[Created by: generate-chains.py]

Certificate chain where the root certificate lacks a basic constraints
extension.

Certificate:
    Data:
        Version: 3 (0x2)
        Serial Number:
            6f:30:93:e0:af:42:20:f7:92:d9:8d:63:e4:7e:ee:e3:df:49:cd:56
        Signature Algorithm: sha256WithRSAEncryption
        Issuer: CN=Intermediate
        Validity
            Not Before: Nov  3 12:00:00 2020 GMT
            Not After : Nov  3 12:00:00 2021 GMT
        Subject: CN=Target
        Subject Public Key Info:
            Public Key Algorithm: rsaEncryption
                RSA Public-Key: (2048 bit)
                Modulus:
                    00:e0:2c:39:1a:67:64:64:af:b8:19:4f:41:9e:78:
                    a6:a8:fc:a4:43:70:a7:7c:23:f9:27:a0:7f:98:37:
                    e7:ee:fe:be:2d:82:65:9e:46:15:1e:fc:3d:70:36:
                    96:47:69:6a:c0:51:c5:f1:59:2a:d7:1e:3f:b3:2e:
                    df:ac:af:89:16:45:ed:71:ae:38:04:4d:5e:e7:b8:
                    d9:a1:45:14:a5:f9:a4:f7:e3:e7:e4:e9:ac:7e:82:
                    95:e6:5c:8e:ac:da:14:d5:2f:04:ed:48:f7:56:4b:
                    5a:98:72:0f:07:66:ca:17:a5:0e:b7:05:64:3b:6a:
                    97:ad:b1:7e:4d:b3:8c:d4:2b:23:3d:88:bb:c9:80:
                    04:d9:5b:1a:36:37:ab:d2:c7:06:a8:81:6f:62:b7:
                    c1:74:74:8e:ee:f6:6b:c0:15:28:44:50:85:dc:8d:
                    3b:e7:0b:82:9d:bd:db:20:69:1a:55:68:48:0e:84:
                    2a:25:26:ca:01:ad:16:7f:3c:30:d4:5b:47:9a:86:
                    fe:fc:90:b5:d0:bb:d3:ee:af:9a:80:3c:4c:da:46:
                    c8:db:36:68:89:51:fe:76:78:cf:22:eb:ce:62:d4:
                    2c:2b:c7:7c:24:48:64:ca:9b:91:b2:90:fc:c9:29:
                    65:70:83:60:05:1a:32:70:ca:12:f3:70:52:dd:3e:
                    82:b1
                Exponent: 65537 (0x10001)
        X509v3 extensions:
            X509v3 Subject Key Identifier: 
                98:FA:6D:F3:B3:9E:A3:B9:81:22:1C:C5:19:24:06:BC:D9:D6:92:ED
            X509v3 Authority Key Identifier: 
                keyid:C1:E9:0B:DE:AA:27:20:FA:0B:FF:DB:77:09:96:1E:9B:2C:0D:F7:70

            Authority Information Access: 
                CA Issuers - URI:http://url-for-aia/Intermediate.cer

            X509v3 CRL Distribution Points: 

                Full Name:
                  URI:http://url-for-crl/Intermediate.crl

            X509v3 Key Usage: critical
                Digital Signature, Key Encipherment
            X509v3 Extended Key Usage: 
                TLS Web Server Authentication, TLS Web Client Authentication
    Signature Algorithm: sha256WithRSAEncryption
         0a:8c:ec:e4:af:ee:c5:2a:5f:22:ff:b7:13:e4:da:02:82:ea:
         fa:b0:5d:45:e8:a5:13:9c:11:76:a1:fb:ff:fb:e6:38:30:19:
         0d:2d:d5:30:4f:45:8f:db:a3:e5:19:d7:ac:ed:7c:0b:99:c5:
         2e:c7:62:e8:29:d4:45:45:a4:85:2e:ec:c1:01:ab:0a:5c:ca:
         1e:90:50:43:8c:d1:68:7f:44:95:dc:8a:0d:ff:a5:9d:e1:2e:
         ea:68:75:f6:5c:5b:3b:48:33:70:df:9e:ed:a1:33:16:41:11:
         82:85:6e:a7:78:7e:c8:b9:4a:c5:90:44:e3:8a:0d:67:22:d4:
         66:f1:6e:b4:96:16:52:2d:0e:d5:d1:7d:cb:e3:b2:0a:39:ba:
         69:ac:54:b2:1e:f0:0f:78:bc:ee:23:c4:f5:38:c4:a6:ac:89:
         87:15:c8:14:6c:44:66:e8:4c:17:3b:bc:d7:bc:54:0d:79:9e:
         97:e9:76:22:5f:03:7c:1a:9b:8e:81:23:21:a8:e1:98:66:37:
         a2:10:44:15:64:a1:21:2a:33:45:00:1e:a5:ac:6b:eb:b6:da:
         14:4b:8a:c1:df:ee:e7:70:0d:80:bb:b2:a2:dd:5b:cb:f3:7a:
         6d:e2:e7:41:45:46:77:8f:02:9d:d1:8a:16:25:2c:d4:19:46:
         51:a5:f6:df
-----BEGIN CERTIFICATE-----
MIIDoDCCAoigAwIBAgIUbzCT4K9CIPeS2Y1j5H7u499JzVYwDQYJKoZIhvcNAQEL
BQAwFzEVMBMGA1UEAwwMSW50ZXJtZWRpYXRlMB4XDTIwMTEwMzEyMDAwMFoXDTIx
MTEwMzEyMDAwMFowETEPMA0GA1UEAwwGVGFyZ2V0MIIBIjANBgkqhkiG9w0BAQEF
AAOCAQ8AMIIBCgKCAQEA4Cw5GmdkZK+4GU9BnnimqPykQ3CnfCP5J6B/mDfn7v6+
LYJlnkYVHvw9cDaWR2lqwFHF8Vkq1x4/sy7frK+JFkXtca44BE1e57jZoUUUpfmk
9+Pn5OmsfoKV5lyOrNoU1S8E7Uj3VktamHIPB2bKF6UOtwVkO2qXrbF+TbOM1Csj
PYi7yYAE2VsaNjer0scGqIFvYrfBdHSO7vZrwBUoRFCF3I075wuCnb3bIGkaVWhI
DoQqJSbKAa0Wfzww1FtHmob+/JC10LvT7q+agDxM2kbI2zZoiVH+dnjPIuvOYtQs
K8d8JEhkypuRspD8ySllcINgBRoycMoS83BS3T6CsQIDAQABo4HpMIHmMB0GA1Ud
DgQWBBSY+m3zs56juYEiHMUZJAa82daS7TAfBgNVHSMEGDAWgBTB6Qveqicg+gv/
23cJlh6bLA33cDA/BggrBgEFBQcBAQQzMDEwLwYIKwYBBQUHMAKGI2h0dHA6Ly91
cmwtZm9yLWFpYS9JbnRlcm1lZGlhdGUuY2VyMDQGA1UdHwQtMCswKaAnoCWGI2h0
dHA6Ly91cmwtZm9yLWNybC9JbnRlcm1lZGlhdGUuY3JsMA4GA1UdDwEB/wQEAwIF
oDAdBgNVHSUEFjAUBggrBgEFBQcDAQYIKwYBBQUHAwIwDQYJKoZIhvcNAQELBQAD
ggEBAAqM7OSv7sUqXyL/txPk2gKC6vqwXUXopROcEXah+//75jgwGQ0t1TBPRY/b
o+UZ16ztfAuZxS7HYugp1EVFpIUu7MEBqwpcyh6QUEOM0Wh/RJXcig3/pZ3hLupo
dfZcWztIM3Dfnu2hMxZBEYKFbqd4fsi5SsWQROOKDWci1GbxbrSWFlItDtXRfcvj
sgo5ummsVLIe8A94vO4jxPU4xKasiYcVyBRsRGboTBc7vNe8VA15npfpdiJfA3wa
m46BIyGo4ZhmN6IQRBVkoSEqM0UAHqWsa+u22hRLisHf7udwDYC7sqLdW8vzem3i
50FFRnePAp3RihYlLNQZRlGl9t8=
-----END CERTIFICATE-----

Certificate:
    Data:
        Version: 3 (0x2)
        Serial Number:
            08:55:78:34:50:50:34:15:fe:10:58:e3:0b:cb:6b:c3:c6:56:3d:16
        Signature Algorithm: sha256WithRSAEncryption
        Issuer: CN=Root
        Validity
            Not Before: Nov  3 12:00:00 2020 GMT
            Not After : Nov  3 12:00:00 2021 GMT
        Subject: CN=Intermediate
        Subject Public Key Info:
            Public Key Algorithm: rsaEncryption
                RSA Public-Key: (2048 bit)
                Modulus:
                    00:de:e6:c0:76:c5:4c:d0:8e:b3:87:07:91:66:aa:
                    f1:ae:93:8f:a2:83:2d:d5:05:91:b8:52:f6:2d:a5:
                    ff:fd:95:ee:85:0f:85:c3:eb:d7:8e:f7:6f:2a:c0:
                    15:de:ae:1e:62:62:12:64:c3:f7:c1:0f:05:a4:0f:
                    b7:33:69:92:66:57:93:4f:4e:04:43:bb:23:bb:c3:
                    c6:29:0b:42:68:1f:26:81:77:2d:91:f6:62:b8:e3:
                    9a:2c:78:2d:7c:1f:3a:f5:ce:f2:c2:75:39:5a:b7:
                    c2:23:f5:f5:ee:7e:a5:7a:45:c4:d4:1e:12:c8:a6:
                    40:44:64:07:ff:33:a8:ce:41:df:77:c4:01:f5:c5:
                    41:6b:4e:a0:ee:9d:36:63:5a:b0:e8:38:bb:bd:fb:
                    a5:7f:6e:5c:6d:c6:62:dd:05:2f:90:d4:fb:5b:18:
                    71:84:57:e2:c9:d3:cc:c8:36:5f:d1:78:20:4c:68:
                    83:1f:df:64:a3:11:9f:e8:bd:d4:bb:8e:04:63:0d:
                    3d:6d:a9:43:30:5d:f0:ca:e3:62:8f:11:9e:8b:8f:
                    de:9a:6e:6d:03:e5:8c:0f:6f:00:6e:1a:72:2c:13:
                    e0:a1:78:93:ef:2c:6d:2c:0a:8a:5c:02:65:50:36:
                    fa:da:07:ba:36:b9:21:eb:01:14:97:ab:19:60:be:
                    97:6b
                Exponent: 65537 (0x10001)
        X509v3 extensions:
            X509v3 Subject Key Identifier: 
                C1:E9:0B:DE:AA:27:20:FA:0B:FF:DB:77:09:96:1E:9B:2C:0D:F7:70
            X509v3 Authority Key Identifier: 
                keyid:96:9F:CB:9C:5C:0D:06:9D:F1:3A:21:D5:22:F7:4B:75:2C:7D:D3:D3

            Authority Information Access: 
                CA Issuers - URI:http://url-for-aia/Root.cer

            X509v3 CRL Distribution Points: 

                Full Name:
                  URI:http://url-for-crl/Root.crl

            X509v3 Key Usage: critical
                Certificate Sign, CRL Sign
            X509v3 Basic Constraints: critical
                CA:TRUE
    Signature Algorithm: sha256WithRSAEncryption
         5a:33:23:6b:4f:7c:41:db:e8:3a:06:a2:a8:7b:f7:80:29:e3:
         52:7a:4a:1e:ea:00:74:ff:56:64:14:20:a9:f1:19:86:75:ed:
         4f:d2:84:60:db:f2:04:67:f1:9f:25:fa:e7:63:a6:e1:65:2d:
         a2:e1:a3:61:e7:52:02:58:2e:52:7b:52:bd:f2:9c:39:ea:ea:
         dd:b9:09:b8:03:b0:56:e7:93:60:d5:36:88:70:53:fe:1a:6a:
         74:ad:54:81:92:a1:cb:a3:86:eb:33:97:9a:0a:0f:05:6a:ae:
         87:de:18:82:d4:53:17:e4:c8:ae:75:b7:13:f3:95:83:2d:9f:
         01:b6:0a:22:c6:ae:6a:6d:3f:48:21:1e:49:ee:5c:52:5e:f6:
         b1:f6:47:93:01:a5:2e:1d:0b:f5:36:f6:22:96:22:3b:ed:d5:
         4f:d5:44:11:a7:04:50:09:fc:1c:7b:0f:4e:50:9c:33:b8:12:
         bd:f2:d0:a6:55:f4:49:42:34:9f:01:31:32:2b:81:e9:57:b2:
         22:f0:24:65:8c:8c:f1:c8:ac:77:6d:22:13:14:3f:38:53:27:
         6e:96:ab:c1:ba:24:32:ba:83:56:a3:a2:5d:04:c4:52:54:e6:
         f4:a0:f4:ff:4e:26:ed:80:53:20:80:b6:98:3b:03:aa:89:41:
         a1:f5:47:27
-----BEGIN CERTIFICATE-----
MIIDgDCCAmigAwIBAgIUCFV4NFBQNBX+EFjjC8trw8ZWPRYwDQYJKoZIhvcNAQEL
BQAwDzENMAsGA1UEAwwEUm9vdDAeFw0yMDExMDMxMjAwMDBaFw0yMTExMDMxMjAw
MDBaMBcxFTATBgNVBAMMDEludGVybWVkaWF0ZTCCASIwDQYJKoZIhvcNAQEBBQAD
ggEPADCCAQoCggEBAN7mwHbFTNCOs4cHkWaq8a6Tj6KDLdUFkbhS9i2l//2V7oUP
hcPr1473byrAFd6uHmJiEmTD98EPBaQPtzNpkmZXk09OBEO7I7vDxikLQmgfJoF3
LZH2Yrjjmix4LXwfOvXO8sJ1OVq3wiP19e5+pXpFxNQeEsimQERkB/8zqM5B33fE
AfXFQWtOoO6dNmNasOg4u737pX9uXG3GYt0FL5DU+1sYcYRX4snTzMg2X9F4IExo
gx/fZKMRn+i91LuOBGMNPW2pQzBd8MrjYo8RnouP3ppubQPljA9vAG4aciwT4KF4
k+8sbSwKilwCZVA2+toHuja5IesBFJerGWC+l2sCAwEAAaOByzCByDAdBgNVHQ4E
FgQUwekL3qonIPoL/9t3CZYemywN93AwHwYDVR0jBBgwFoAUlp/LnFwNBp3xOiHV
IvdLdSx909MwNwYIKwYBBQUHAQEEKzApMCcGCCsGAQUFBzAChhtodHRwOi8vdXJs
LWZvci1haWEvUm9vdC5jZXIwLAYDVR0fBCUwIzAhoB+gHYYbaHR0cDovL3VybC1m
b3ItY3JsL1Jvb3QuY3JsMA4GA1UdDwEB/wQEAwIBBjAPBgNVHRMBAf8EBTADAQH/
MA0GCSqGSIb3DQEBCwUAA4IBAQBaMyNrT3xB2+g6BqKoe/eAKeNSekoe6gB0/1Zk
FCCp8RmGde1P0oRg2/IEZ/GfJfrnY6bhZS2i4aNh51ICWC5Se1K98pw56urduQm4
A7BW55Ng1TaIcFP+Gmp0rVSBkqHLo4brM5eaCg8Faq6H3hiC1FMX5MiudbcT85WD
LZ8Btgoixq5qbT9IIR5J7lxSXvax9keTAaUuHQv1NvYiliI77dVP1UQRpwRQCfwc
ew9OUJwzuBK98tCmVfRJQjSfATEyK4HpV7Ii8CRljIzxyKx3bSITFD84UydulqvB
uiQyuoNWo6JdBMRSVOb0oPT/TibtgFMggLaYOwOqiUGh9Ucn
-----END CERTIFICATE-----

Certificate:
    Data:
        Version: 3 (0x2)
        Serial Number:
            08:55:78:34:50:50:34:15:fe:10:58:e3:0b:cb:6b:c3:c6:56:3d:15
        Signature Algorithm: sha256WithRSAEncryption
        Issuer: CN=Root
        Validity
            Not Before: Nov  3 12:00:00 2020 GMT
            Not After : Nov  3 12:00:00 2021 GMT
        Subject: CN=Root
        Subject Public Key Info:
            Public Key Algorithm: rsaEncryption
                RSA Public-Key: (2048 bit)
                Modulus:
                    00:b7:0e:0c:2e:e1:46:5f:9d:dc:3a:16:51:56:2f:
                    4c:5c:f7:92:93:2a:a1:bf:d1:bd:15:cd:8a:f8:e3:
                    8a:a4:41:fa:9f:de:85:84:ff:cd:5b:7d:13:33:ca:
                    b8:8b:34:f6:85:73:a5:23:ef:ba:61:ca:18:9f:08:
                    ea:39:17:18:69:dd:3a:21:57:a5:6d:b2:63:a7:42:
                    ba:b6:8a:4e:e2:1f:ab:88:4f:ae:ca:1a:66:b8:79:
                    d2:94:73:b9:46:c4:be:89:31:53:c1:d8:b4:cc:1c:
                    6b:d9:0c:a3:5a:e3:a5:20:7c:a0:bd:d4:14:7a:14:
                    29:0c:b7:40:da:f5:fc:af:c3:91:65:78:b3:41:ee:
                    f5:9f:0b:22:0b:c1:f5:12:94:89:25:13:1b:dd:a3:
                    a3:44:7a:57:7c:40:17:e0:66:33:a9:27:7c:2e:6f:
                    9f:38:d3:fa:4d:67:80:39:33:36:e5:41:fd:ac:6b:
                    37:d0:84:75:e2:84:93:3b:8d:ce:8c:22:98:4e:05:
                    64:7f:df:fb:96:85:c5:ea:0e:11:24:f9:84:bd:17:
                    ce:15:30:86:ad:c6:de:2c:48:84:d0:45:d4:0b:1f:
                    13:e9:a4:ca:e7:69:c0:24:a1:23:5e:6b:4e:76:b4:
                    bd:d7:0d:96:94:b6:d9:8e:25:9b:1e:c9:a2:00:10:
                    47:77
                Exponent: 65537 (0x10001)
        X509v3 extensions:
            X509v3 Subject Key Identifier: 
                96:9F:CB:9C:5C:0D:06:9D:F1:3A:21:D5:22:F7:4B:75:2C:7D:D3:D3
            X509v3 Authority Key Identifier: 
                keyid:96:9F:CB:9C:5C:0D:06:9D:F1:3A:21:D5:22:F7:4B:75:2C:7D:D3:D3

            Authority Information Access: 
                CA Issuers - URI:http://url-for-aia/Root.cer

            X509v3 CRL Distribution Points: 

                Full Name:
                  URI:http://url-for-crl/Root.crl

            X509v3 Key Usage: critical
                Certificate Sign, CRL Sign
    Signature Algorithm: sha256WithRSAEncryption
         7f:8b:b3:42:42:8b:2c:1b:29:eb:71:f2:38:e8:e4:2a:89:e6:
         50:dc:f3:f8:b9:58:ff:ae:28:ab:28:64:9e:0c:15:cf:b1:dd:
         29:3d:e3:34:c9:1a:1c:02:5d:30:b4:3f:e8:21:67:71:e6:4d:
         bc:77:be:da:e2:0f:02:7a:2f:bc:4f:d9:db:64:f5:53:40:f6:
         07:f0:63:dd:89:e4:12:14:a8:2d:e7:9f:f8:b6:da:46:45:d2:
         6a:81:d4:2a:85:f3:85:75:47:12:77:38:62:00:35:36:ff:6e:
         4a:08:5a:0e:f1:45:24:fc:1f:0c:c0:cb:53:a4:aa:6e:7d:08:
         c7:4e:fe:5a:15:68:46:fc:47:d1:cd:7b:54:01:54:51:f2:68:
         78:01:82:fe:54:45:21:eb:c3:d2:0e:37:a0:2e:e8:88:02:8b:
         9c:f4:21:68:9e:ae:c4:63:22:09:b5:bd:22:eb:71:35:b3:7d:
         d3:c3:cc:5e:86:e0:6d:fb:61:ee:c9:17:91:c5:e7:55:76:5a:
         ce:f0:38:d2:d4:6d:b8:a9:66:03:93:73:c3:7d:2f:1c:81:3b:
         33:cc:b1:8d:30:d1:5a:40:40:e5:94:3b:29:61:d0:af:83:8e:
         ac:88:bc:56:b5:98:bb:cc:71:3f:8a:e7:32:15:74:74:42:72:
         ef:dd:ae:d2
-----BEGIN CERTIFICATE-----
MIIDZzCCAk+gAwIBAgIUCFV4NFBQNBX+EFjjC8trw8ZWPRUwDQYJKoZIhvcNAQEL
BQAwDzENMAsGA1UEAwwEUm9vdDAeFw0yMDExMDMxMjAwMDBaFw0yMTExMDMxMjAw
MDBaMA8xDTALBgNVBAMMBFJvb3QwggEiMA0GCSqGSIb3DQEBAQUAA4IBDwAwggEK
AoIBAQC3Dgwu4UZfndw6FlFWL0xc95KTKqG/0b0VzYr444qkQfqf3oWE/81bfRMz
yriLNPaFc6Uj77phyhifCOo5Fxhp3TohV6VtsmOnQrq2ik7iH6uIT67KGma4edKU
c7lGxL6JMVPB2LTMHGvZDKNa46UgfKC91BR6FCkMt0Da9fyvw5FleLNB7vWfCyIL
wfUSlIklExvdo6NEeld8QBfgZjOpJ3wub5840/pNZ4A5MzblQf2sazfQhHXihJM7
jc6MIphOBWR/3/uWhcXqDhEk+YS9F84VMIatxt4sSITQRdQLHxPppMrnacAkoSNe
a052tL3XDZaUttmOJZseyaIAEEd3AgMBAAGjgbowgbcwHQYDVR0OBBYEFJafy5xc
DQad8Toh1SL3S3UsfdPTMB8GA1UdIwQYMBaAFJafy5xcDQad8Toh1SL3S3UsfdPT
MDcGCCsGAQUFBwEBBCswKTAnBggrBgEFBQcwAoYbaHR0cDovL3VybC1mb3ItYWlh
L1Jvb3QuY2VyMCwGA1UdHwQlMCMwIaAfoB2GG2h0dHA6Ly91cmwtZm9yLWNybC9S
b290LmNybDAOBgNVHQ8BAf8EBAMCAQYwDQYJKoZIhvcNAQELBQADggEBAH+Ls0JC
iywbKetx8jjo5CqJ5lDc8/i5WP+uKKsoZJ4MFc+x3Sk94zTJGhwCXTC0P+ghZ3Hm
Tbx3vtriDwJ6L7xP2dtk9VNA9gfwY92J5BIUqC3nn/i22kZF0mqB1CqF84V1RxJ3
OGIANTb/bkoIWg7xRST8HwzAy1Okqm59CMdO/loVaEb8R9HNe1QBVFHyaHgBgv5U
RSHrw9ION6Au6IgCi5z0IWiersRjIgm1vSLrcTWzfdPDzF6G4G37Ye7JF5HF51V2
Ws7wONLUbbipZgOTc8N9LxyBOzPMsY0w0VpAQOWUOylh0K+DjqyIvFa1mLvMcT+K
5zIVdHRCcu/drtI=
-----END CERTIFICATE-----
