[Created by: generate-chains.py]

Certificate chain where the root certificate lacks a basic constraints
extension.

Certificate:
    Data:
        Version: 3 (0x2)
        Serial Number:
            6f:30:93:e0:af:42:20:f7:92:d9:8d:63:e4:7e:ee:e3:df:49:cd:56
        Signature Algorithm: sha256WithRSAEncryption
        Issuer: CN=Intermediate
        Validity
            Not Before: Oct  5 12:00:00 2022 GMT
            Not After : Oct  5 12:00:00 2023 GMT
        Subject: CN=Target
        Subject Public Key Info:
            Public Key Algorithm: rsaEncryption
                Public-Key: (2048 bit)
                Modulus:
                    00:e0:2c:39:1a:67:64:64:af:b8:19:4f:41:9e:78:
                    a6:a8:fc:a4:43:70:a7:7c:23:f9:27:a0:7f:98:37:
                    e7:ee:fe:be:2d:82:65:9e:46:15:1e:fc:3d:70:36:
                    96:47:69:6a:c0:51:c5:f1:59:2a:d7:1e:3f:b3:2e:
                    df:ac:af:89:16:45:ed:71:ae:38:04:4d:5e:e7:b8:
                    d9:a1:45:14:a5:f9:a4:f7:e3:e7:e4:e9:ac:7e:82:
                    95:e6:5c:8e:ac:da:14:d5:2f:04:ed:48:f7:56:4b:
                    5a:98:72:0f:07:66:ca:17:a5:0e:b7:05:64:3b:6a:
                    97:ad:b1:7e:4d:b3:8c:d4:2b:23:3d:88:bb:c9:80:
                    04:d9:5b:1a:36:37:ab:d2:c7:06:a8:81:6f:62:b7:
                    c1:74:74:8e:ee:f6:6b:c0:15:28:44:50:85:dc:8d:
                    3b:e7:0b:82:9d:bd:db:20:69:1a:55:68:48:0e:84:
                    2a:25:26:ca:01:ad:16:7f:3c:30:d4:5b:47:9a:86:
                    fe:fc:90:b5:d0:bb:d3:ee:af:9a:80:3c:4c:da:46:
                    c8:db:36:68:89:51:fe:76:78:cf:22:eb:ce:62:d4:
                    2c:2b:c7:7c:24:48:64:ca:9b:91:b2:90:fc:c9:29:
                    65:70:83:60:05:1a:32:70:ca:12:f3:70:52:dd:3e:
                    82:b1
                Exponent: 65537 (0x10001)
        X509v3 extensions:
            X509v3 Subject Key Identifier: 
                98:FA:6D:F3:B3:9E:A3:B9:81:22:1C:C5:19:24:06:BC:D9:D6:92:ED
            X509v3 Authority Key Identifier: 
                C1:E9:0B:DE:AA:27:20:FA:0B:FF:DB:77:09:96:1E:9B:2C:0D:F7:70
            Authority Information Access: 
                CA Issuers - URI:http://url-for-aia/Intermediate.cer
            X509v3 CRL Distribution Points: 
                Full Name:
                  URI:http://url-for-crl/Intermediate.crl
            X509v3 Key Usage: critical
                Digital Signature, Key Encipherment
            X509v3 Extended Key Usage: 
                TLS Web Server Authentication, TLS Web Client Authentication
    Signature Algorithm: sha256WithRSAEncryption
    Signature Value:
        7e:f6:48:d8:7b:be:68:a3:e5:9f:18:45:12:04:33:a5:d4:ed:
        e2:2c:57:06:1f:ff:72:60:f0:d0:15:b6:9a:0a:14:b7:7b:e3:
        78:a1:4e:ed:6d:bb:79:09:dd:b7:ab:d5:dd:df:6d:e6:91:7d:
        b0:d9:d6:f4:75:b4:6b:1e:b8:e8:83:f0:33:99:d7:5f:59:8f:
        7f:cd:9b:78:68:19:42:66:50:fe:54:32:74:0b:24:b2:8e:0a:
        87:32:0d:1a:84:6b:77:02:53:94:33:d4:3f:a5:42:d0:ef:d9:
        dc:8d:e4:2d:74:e8:fd:c1:8e:53:05:03:14:b0:2b:d6:dc:45:
        ec:25:4d:07:98:c7:43:80:6f:1a:c6:ca:8f:fa:63:af:28:d8:
        61:21:88:27:c1:cd:fa:80:87:f8:33:fc:f8:2f:ec:cd:53:b9:
        75:b9:e0:cf:83:70:e3:4e:b9:74:06:15:47:7d:24:95:1c:ab:
        3b:00:bc:ce:a4:2b:e2:72:86:6f:f7:a2:d2:60:48:8d:a1:d3:
        8f:bd:cd:ac:ec:f6:e2:16:bd:37:10:8d:69:8f:8e:8a:c6:e6:
        86:8e:47:2b:41:c3:37:ea:9a:1a:d0:42:3f:d9:fc:55:65:90:
        6d:a8:5f:cd:05:bb:1b:4b:fd:0d:7d:1e:10:aa:6f:7d:ef:62:
        3c:b7:1f:d5
-----BEGIN CERTIFICATE-----
MIIDoDCCAoigAwIBAgIUbzCT4K9CIPeS2Y1j5H7u499JzVYwDQYJKoZIhvcNAQEL
BQAwFzEVMBMGA1UEAwwMSW50ZXJtZWRpYXRlMB4XDTIyMTAwNTEyMDAwMFoXDTIz
MTAwNTEyMDAwMFowETEPMA0GA1UEAwwGVGFyZ2V0MIIBIjANBgkqhkiG9w0BAQEF
AAOCAQ8AMIIBCgKCAQEA4Cw5GmdkZK+4GU9BnnimqPykQ3CnfCP5J6B/mDfn7v6+
LYJlnkYVHvw9cDaWR2lqwFHF8Vkq1x4/sy7frK+JFkXtca44BE1e57jZoUUUpfmk
9+Pn5OmsfoKV5lyOrNoU1S8E7Uj3VktamHIPB2bKF6UOtwVkO2qXrbF+TbOM1Csj
PYi7yYAE2VsaNjer0scGqIFvYrfBdHSO7vZrwBUoRFCF3I075wuCnb3bIGkaVWhI
DoQqJSbKAa0Wfzww1FtHmob+/JC10LvT7q+agDxM2kbI2zZoiVH+dnjPIuvOYtQs
K8d8JEhkypuRspD8ySllcINgBRoycMoS83BS3T6CsQIDAQABo4HpMIHmMB0GA1Ud
DgQWBBSY+m3zs56juYEiHMUZJAa82daS7TAfBgNVHSMEGDAWgBTB6Qveqicg+gv/
23cJlh6bLA33cDA/BggrBgEFBQcBAQQzMDEwLwYIKwYBBQUHMAKGI2h0dHA6Ly91
cmwtZm9yLWFpYS9JbnRlcm1lZGlhdGUuY2VyMDQGA1UdHwQtMCswKaAnoCWGI2h0
dHA6Ly91cmwtZm9yLWNybC9JbnRlcm1lZGlhdGUuY3JsMA4GA1UdDwEB/wQEAwIF
oDAdBgNVHSUEFjAUBggrBgEFBQcDAQYIKwYBBQUHAwIwDQYJKoZIhvcNAQELBQAD
ggEBAH72SNh7vmij5Z8YRRIEM6XU7eIsVwYf/3Jg8NAVtpoKFLd743ihTu1tu3kJ
3ber1d3fbeaRfbDZ1vR1tGseuOiD8DOZ119Zj3/Nm3hoGUJmUP5UMnQLJLKOCocy
DRqEa3cCU5Qz1D+lQtDv2dyN5C106P3BjlMFAxSwK9bcRewlTQeYx0OAbxrGyo/6
Y68o2GEhiCfBzfqAh/gz/Pgv7M1TuXW54M+DcONOuXQGFUd9JJUcqzsAvM6kK+Jy
hm/3otJgSI2h04+9zazs9uIWvTcQjWmPjorG5oaORytBwzfqmhrQQj/Z/FVlkG2o
X80FuxtL/Q19HhCqb33vYjy3H9U=
-----END CERTIFICATE-----

Certificate:
    Data:
        Version: 3 (0x2)
        Serial Number:
            08:55:78:34:50:50:34:15:fe:10:58:e3:0b:cb:6b:c3:c6:56:3d:16
        Signature Algorithm: sha256WithRSAEncryption
        Issuer: CN=Root
        Validity
            Not Before: Oct  5 12:00:00 2022 GMT
            Not After : Oct  5 12:00:00 2023 GMT
        Subject: CN=Intermediate
        Subject Public Key Info:
            Public Key Algorithm: rsaEncryption
                Public-Key: (2048 bit)
                Modulus:
                    00:de:e6:c0:76:c5:4c:d0:8e:b3:87:07:91:66:aa:
                    f1:ae:93:8f:a2:83:2d:d5:05:91:b8:52:f6:2d:a5:
                    ff:fd:95:ee:85:0f:85:c3:eb:d7:8e:f7:6f:2a:c0:
                    15:de:ae:1e:62:62:12:64:c3:f7:c1:0f:05:a4:0f:
                    b7:33:69:92:66:57:93:4f:4e:04:43:bb:23:bb:c3:
                    c6:29:0b:42:68:1f:26:81:77:2d:91:f6:62:b8:e3:
                    9a:2c:78:2d:7c:1f:3a:f5:ce:f2:c2:75:39:5a:b7:
                    c2:23:f5:f5:ee:7e:a5:7a:45:c4:d4:1e:12:c8:a6:
                    40:44:64:07:ff:33:a8:ce:41:df:77:c4:01:f5:c5:
                    41:6b:4e:a0:ee:9d:36:63:5a:b0:e8:38:bb:bd:fb:
                    a5:7f:6e:5c:6d:c6:62:dd:05:2f:90:d4:fb:5b:18:
                    71:84:57:e2:c9:d3:cc:c8:36:5f:d1:78:20:4c:68:
                    83:1f:df:64:a3:11:9f:e8:bd:d4:bb:8e:04:63:0d:
                    3d:6d:a9:43:30:5d:f0:ca:e3:62:8f:11:9e:8b:8f:
                    de:9a:6e:6d:03:e5:8c:0f:6f:00:6e:1a:72:2c:13:
                    e0:a1:78:93:ef:2c:6d:2c:0a:8a:5c:02:65:50:36:
                    fa:da:07:ba:36:b9:21:eb:01:14:97:ab:19:60:be:
                    97:6b
                Exponent: 65537 (0x10001)
        X509v3 extensions:
            X509v3 Subject Key Identifier: 
                C1:E9:0B:DE:AA:27:20:FA:0B:FF:DB:77:09:96:1E:9B:2C:0D:F7:70
            X509v3 Authority Key Identifier: 
                96:9F:CB:9C:5C:0D:06:9D:F1:3A:21:D5:22:F7:4B:75:2C:7D:D3:D3
            Authority Information Access: 
                CA Issuers - URI:http://url-for-aia/Root.cer
            X509v3 CRL Distribution Points: 
                Full Name:
                  URI:http://url-for-crl/Root.crl
            X509v3 Key Usage: critical
                Certificate Sign, CRL Sign
            X509v3 Basic Constraints: critical
                CA:TRUE
    Signature Algorithm: sha256WithRSAEncryption
    Signature Value:
        29:59:88:59:04:9e:8c:47:a4:63:11:ac:8e:e6:ef:70:0b:b4:
        db:50:63:ae:8b:93:8a:c0:dc:7f:3b:25:92:67:25:2a:f9:ab:
        88:04:07:b4:0e:0f:c5:b1:f1:9e:14:34:dd:92:2e:cb:4e:c5:
        b3:e7:9a:fa:3c:87:f8:c2:1c:29:0a:4b:bb:5b:75:2b:8f:8e:
        5d:f4:d7:1e:21:26:ea:bd:ba:14:f6:94:c1:48:8c:ca:29:7d:
        0e:56:07:bb:09:34:d4:d6:d9:0d:50:29:db:7f:f8:12:c8:b5:
        44:59:9e:23:15:1f:fa:ed:37:f0:e2:d8:90:d0:87:98:84:b3:
        c8:2d:8a:30:bb:2b:81:45:dc:61:1a:fb:cc:5f:74:4b:69:e3:
        48:ab:40:18:52:5f:cd:ca:c1:b3:ab:19:b3:c0:a6:cb:58:c7:
        25:af:44:79:de:b8:0d:23:46:a1:48:d0:c4:03:53:98:38:3f:
        09:f4:3e:ad:a3:d3:d5:44:c9:eb:a4:7a:77:91:9e:c3:74:f2:
        9f:a4:d9:22:2f:cd:06:80:ef:2f:9e:32:c8:68:60:aa:eb:1a:
        82:76:9c:92:d0:ef:6f:99:c8:ef:07:de:65:cc:27:42:86:98:
        96:7d:3f:72:95:63:ea:6d:d7:0f:df:fd:11:62:4f:ce:d0:2e:
        e7:47:ce:80
-----BEGIN CERTIFICATE-----
MIIDgDCCAmigAwIBAgIUCFV4NFBQNBX+EFjjC8trw8ZWPRYwDQYJKoZIhvcNAQEL
BQAwDzENMAsGA1UEAwwEUm9vdDAeFw0yMjEwMDUxMjAwMDBaFw0yMzEwMDUxMjAw
MDBaMBcxFTATBgNVBAMMDEludGVybWVkaWF0ZTCCASIwDQYJKoZIhvcNAQEBBQAD
ggEPADCCAQoCggEBAN7mwHbFTNCOs4cHkWaq8a6Tj6KDLdUFkbhS9i2l//2V7oUP
hcPr1473byrAFd6uHmJiEmTD98EPBaQPtzNpkmZXk09OBEO7I7vDxikLQmgfJoF3
LZH2Yrjjmix4LXwfOvXO8sJ1OVq3wiP19e5+pXpFxNQeEsimQERkB/8zqM5B33fE
AfXFQWtOoO6dNmNasOg4u737pX9uXG3GYt0FL5DU+1sYcYRX4snTzMg2X9F4IExo
gx/fZKMRn+i91LuOBGMNPW2pQzBd8MrjYo8RnouP3ppubQPljA9vAG4aciwT4KF4
k+8sbSwKilwCZVA2+toHuja5IesBFJerGWC+l2sCAwEAAaOByzCByDAdBgNVHQ4E
FgQUwekL3qonIPoL/9t3CZYemywN93AwHwYDVR0jBBgwFoAUlp/LnFwNBp3xOiHV
IvdLdSx909MwNwYIKwYBBQUHAQEEKzApMCcGCCsGAQUFBzAChhtodHRwOi8vdXJs
LWZvci1haWEvUm9vdC5jZXIwLAYDVR0fBCUwIzAhoB+gHYYbaHR0cDovL3VybC1m
b3ItY3JsL1Jvb3QuY3JsMA4GA1UdDwEB/wQEAwIBBjAPBgNVHRMBAf8EBTADAQH/
MA0GCSqGSIb3DQEBCwUAA4IBAQApWYhZBJ6MR6RjEayO5u9wC7TbUGOui5OKwNx/
OyWSZyUq+auIBAe0Dg/FsfGeFDTdki7LTsWz55r6PIf4whwpCku7W3Urj45d9Nce
ISbqvboU9pTBSIzKKX0OVge7CTTU1tkNUCnbf/gSyLVEWZ4jFR/67Tfw4tiQ0IeY
hLPILYowuyuBRdxhGvvMX3RLaeNIq0AYUl/NysGzqxmzwKbLWMclr0R53rgNI0ah
SNDEA1OYOD8J9D6to9PVRMnrpHp3kZ7DdPKfpNkiL80GgO8vnjLIaGCq6xqCdpyS
0O9vmcjvB95lzCdChpiWfT9ylWPqbdcP3/0RYk/O0C7nR86A
-----END CERTIFICATE-----

Certificate:
    Data:
        Version: 3 (0x2)
        Serial Number:
            08:55:78:34:50:50:34:15:fe:10:58:e3:0b:cb:6b:c3:c6:56:3d:15
        Signature Algorithm: sha256WithRSAEncryption
        Issuer: CN=Root
        Validity
            Not Before: Oct  5 12:00:00 2022 GMT
            Not After : Oct  5 12:00:00 2023 GMT
        Subject: CN=Root
        Subject Public Key Info:
            Public Key Algorithm: rsaEncryption
                Public-Key: (2048 bit)
                Modulus:
                    00:b7:0e:0c:2e:e1:46:5f:9d:dc:3a:16:51:56:2f:
                    4c:5c:f7:92:93:2a:a1:bf:d1:bd:15:cd:8a:f8:e3:
                    8a:a4:41:fa:9f:de:85:84:ff:cd:5b:7d:13:33:ca:
                    b8:8b:34:f6:85:73:a5:23:ef:ba:61:ca:18:9f:08:
                    ea:39:17:18:69:dd:3a:21:57:a5:6d:b2:63:a7:42:
                    ba:b6:8a:4e:e2:1f:ab:88:4f:ae:ca:1a:66:b8:79:
                    d2:94:73:b9:46:c4:be:89:31:53:c1:d8:b4:cc:1c:
                    6b:d9:0c:a3:5a:e3:a5:20:7c:a0:bd:d4:14:7a:14:
                    29:0c:b7:40:da:f5:fc:af:c3:91:65:78:b3:41:ee:
                    f5:9f:0b:22:0b:c1:f5:12:94:89:25:13:1b:dd:a3:
                    a3:44:7a:57:7c:40:17:e0:66:33:a9:27:7c:2e:6f:
                    9f:38:d3:fa:4d:67:80:39:33:36:e5:41:fd:ac:6b:
                    37:d0:84:75:e2:84:93:3b:8d:ce:8c:22:98:4e:05:
                    64:7f:df:fb:96:85:c5:ea:0e:11:24:f9:84:bd:17:
                    ce:15:30:86:ad:c6:de:2c:48:84:d0:45:d4:0b:1f:
                    13:e9:a4:ca:e7:69:c0:24:a1:23:5e:6b:4e:76:b4:
                    bd:d7:0d:96:94:b6:d9:8e:25:9b:1e:c9:a2:00:10:
                    47:77
                Exponent: 65537 (0x10001)
        X509v3 extensions:
            X509v3 Subject Key Identifier: 
                96:9F:CB:9C:5C:0D:06:9D:F1:3A:21:D5:22:F7:4B:75:2C:7D:D3:D3
            X509v3 Authority Key Identifier: 
                96:9F:CB:9C:5C:0D:06:9D:F1:3A:21:D5:22:F7:4B:75:2C:7D:D3:D3
            Authority Information Access: 
                CA Issuers - URI:http://url-for-aia/Root.cer
            X509v3 CRL Distribution Points: 
                Full Name:
                  URI:http://url-for-crl/Root.crl
            X509v3 Key Usage: critical
                Certificate Sign, CRL Sign
    Signature Algorithm: sha256WithRSAEncryption
    Signature Value:
        11:23:72:c4:b0:ec:02:f6:84:a8:6a:23:0b:08:63:e4:f1:a9:
        5c:4d:2a:e0:54:09:da:71:42:1d:66:67:db:90:61:24:b5:5e:
        22:57:7a:c5:d2:79:91:f9:81:c4:75:12:bb:4e:19:9c:5b:f5:
        92:a2:8f:2a:40:fb:90:f1:ee:2f:f4:c1:f3:49:15:68:a3:15:
        af:b6:5c:26:87:8c:12:e6:94:27:32:f7:20:1a:e6:84:2b:3b:
        84:43:2d:79:26:b7:df:27:e3:86:82:49:b5:aa:73:0b:80:60:
        f9:6a:13:43:20:b8:ae:ce:9e:82:87:96:d6:5b:07:7c:f5:fe:
        c5:0e:26:8b:17:85:4f:aa:f9:6d:bf:8b:8a:74:8e:45:11:35:
        e0:1d:7c:26:76:2e:cb:9b:ec:ea:01:9f:c6:8c:a8:82:5e:ef:
        f1:23:50:76:c1:4e:c7:9a:9a:a1:9d:2f:fc:a1:e4:82:36:6c:
        92:8b:6c:f7:c1:c9:a6:b9:91:19:e3:44:9e:b4:02:ef:13:93:
        91:b0:72:a1:c3:ea:dc:18:a6:6d:4b:24:2f:9b:0b:09:d7:55:
        f8:db:8e:a6:34:9f:77:71:ae:43:b2:f2:8b:3a:82:0e:00:86:
        14:d3:f5:9d:27:40:31:1d:3c:ce:67:e8:d4:aa:82:c1:8d:cc:
        8e:a7:27:97
-----BEGIN CERTIFICATE-----
MIIDZzCCAk+gAwIBAgIUCFV4NFBQNBX+EFjjC8trw8ZWPRUwDQYJKoZIhvcNAQEL
BQAwDzENMAsGA1UEAwwEUm9vdDAeFw0yMjEwMDUxMjAwMDBaFw0yMzEwMDUxMjAw
MDBaMA8xDTALBgNVBAMMBFJvb3QwggEiMA0GCSqGSIb3DQEBAQUAA4IBDwAwggEK
AoIBAQC3Dgwu4UZfndw6FlFWL0xc95KTKqG/0b0VzYr444qkQfqf3oWE/81bfRMz
yriLNPaFc6Uj77phyhifCOo5Fxhp3TohV6VtsmOnQrq2ik7iH6uIT67KGma4edKU
c7lGxL6JMVPB2LTMHGvZDKNa46UgfKC91BR6FCkMt0Da9fyvw5FleLNB7vWfCyIL
wfUSlIklExvdo6NEeld8QBfgZjOpJ3wub5840/pNZ4A5MzblQf2sazfQhHXihJM7
jc6MIphOBWR/3/uWhcXqDhEk+YS9F84VMIatxt4sSITQRdQLHxPppMrnacAkoSNe
a052tL3XDZaUttmOJZseyaIAEEd3AgMBAAGjgbowgbcwHQYDVR0OBBYEFJafy5xc
DQad8Toh1SL3S3UsfdPTMB8GA1UdIwQYMBaAFJafy5xcDQad8Toh1SL3S3UsfdPT
MDcGCCsGAQUFBwEBBCswKTAnBggrBgEFBQcwAoYbaHR0cDovL3VybC1mb3ItYWlh
L1Jvb3QuY2VyMCwGA1UdHwQlMCMwIaAfoB2GG2h0dHA6Ly91cmwtZm9yLWNybC9S
b290LmNybDAOBgNVHQ8BAf8EBAMCAQYwDQYJKoZIhvcNAQELBQADggEBABEjcsSw
7AL2hKhqIwsIY+TxqVxNKuBUCdpxQh1mZ9uQYSS1XiJXesXSeZH5gcR1ErtOGZxb
9ZKijypA+5Dx7i/0wfNJFWijFa+2XCaHjBLmlCcy9yAa5oQrO4RDLXkmt98n44aC
SbWqcwuAYPlqE0MguK7OnoKHltZbB3z1/sUOJosXhU+q+W2/i4p0jkURNeAdfCZ2
Lsub7OoBn8aMqIJe7/EjUHbBTseamqGdL/yh5II2bJKLbPfByaa5kRnjRJ60Au8T
k5GwcqHD6twYpm1LJC+bCwnXVfjbjqY0n3dxrkOy8os6gg4AhhTT9Z0nQDEdPM5n
6NSqgsGNzI6nJ5c=
-----END CERTIFICATE-----
