[Created by: generate-chains.py]

Certificate chain where the root certificate restricts the extended key
usage to clientAuth.

Certificate:
    Data:
        Version: 3 (0x2)
        Serial Number:
            77:30:29:4c:98:1d:55:e4:df:5e:92:14:f6:68:26:ef:11:01:dd:15
        Signature Algorithm: sha256WithRSAEncryption
        Issuer: CN=Intermediate
        Validity
            Not Before: Oct  5 12:00:00 2022 GMT
            Not After : Oct  5 12:00:00 2023 GMT
        Subject: CN=Target
        Subject Public Key Info:
            Public Key Algorithm: rsaEncryption
                Public-Key: (2048 bit)
                Modulus:
                    00:c0:64:a7:01:b2:83:6c:47:bc:2d:30:01:f9:43:
                    8c:fc:cc:6b:7c:a4:c7:1c:78:fa:a8:8c:be:1e:9a:
                    72:d0:34:1a:56:80:67:67:76:48:8a:9f:c5:3a:68:
                    9e:53:c2:35:ce:69:7e:4f:d5:c4:fb:0b:91:3c:af:
                    00:26:f4:bf:77:ca:cd:ec:87:f9:6e:05:9b:0c:93:
                    1b:f2:6e:c8:10:32:4e:7b:51:1c:22:77:4c:b8:a3:
                    bd:d6:dc:95:29:9b:4b:b5:d9:ce:ae:91:d8:05:c5:
                    c5:bf:4a:9c:b7:94:db:d5:a5:e6:b1:44:e1:02:4a:
                    1a:dc:21:e5:e6:a6:ba:54:2e:2c:3f:40:f5:fd:5c:
                    79:dd:55:6d:9e:e2:ab:db:3c:67:b4:84:db:ba:86:
                    fd:a0:b5:d8:8b:d0:b8:bc:8b:77:e9:32:31:51:68:
                    ee:18:17:09:e2:f1:27:79:ca:3c:72:a8:f3:96:25:
                    31:24:3a:05:53:d4:89:0a:48:7a:9c:2d:6d:6a:84:
                    97:df:34:c9:22:7f:d5:05:f2:2c:91:e9:c4:7f:ab:
                    d0:ae:76:22:64:ae:be:e2:7f:97:08:ec:86:8a:92:
                    bf:57:f0:22:f7:91:ff:86:17:62:92:e3:80:8b:19:
                    84:14:60:19:00:91:d6:fe:51:96:77:5b:22:0d:32:
                    50:07
                Exponent: 65537 (0x10001)
        X509v3 extensions:
            X509v3 Subject Key Identifier: 
                E8:27:22:F1:C3:94:E3:48:C4:4C:45:0D:D6:4E:1C:6E:CF:9D:1B:1B
            X509v3 Authority Key Identifier: 
                8F:7C:F8:3A:27:33:C2:AB:96:9E:BD:0F:68:E0:C9:58:BB:0B:7C:F2
            Authority Information Access: 
                CA Issuers - URI:http://url-for-aia/Intermediate.cer
            X509v3 CRL Distribution Points: 
                Full Name:
                  URI:http://url-for-crl/Intermediate.crl
            X509v3 Key Usage: critical
                Digital Signature, Key Encipherment
            X509v3 Extended Key Usage: 
                TLS Web Server Authentication, TLS Web Client Authentication
    Signature Algorithm: sha256WithRSAEncryption
    Signature Value:
        0a:29:b3:9c:77:ee:cb:3f:89:87:88:1c:1e:d4:63:6a:ea:4e:
        e6:1b:68:48:1f:60:37:f8:0b:f4:6b:f7:d5:32:04:db:3f:96:
        69:7c:dd:da:64:54:98:34:57:dd:e3:47:89:82:99:de:0a:4d:
        65:1f:c2:39:da:c1:fb:c9:8c:5d:60:b8:77:33:c0:f0:15:e4:
        f8:43:16:83:2b:d4:76:d9:d2:1b:14:10:cd:b2:71:e4:2e:fb:
        6b:0c:1b:db:01:78:95:60:2a:50:e5:a9:97:12:ee:ad:3a:5c:
        94:cc:cd:b7:25:d0:71:0a:ba:d0:be:a0:f1:48:76:32:d8:92:
        4a:f2:e4:59:ef:c6:fb:97:af:bd:cf:14:79:d0:3b:19:dd:d0:
        2b:49:1b:bf:48:f4:c9:9b:66:3d:ca:8f:54:bb:08:ed:a2:40:
        88:db:5a:d3:6f:79:ed:df:ee:ef:60:9e:20:c3:08:e2:bc:70:
        71:76:4e:02:e0:a5:04:22:81:55:26:9f:af:b1:e8:09:a9:60:
        93:72:02:85:ed:7c:94:dd:c7:ee:83:1b:db:b3:e2:56:01:bf:
        73:f9:ee:3b:7b:44:e7:c7:44:d3:9f:b5:63:c8:04:e5:5c:f9:
        5f:6d:ad:fc:41:d7:f4:06:34:22:a1:60:91:26:3b:78:61:36:
        14:0c:30:9b
-----BEGIN CERTIFICATE-----
MIIDoDCCAoigAwIBAgIUdzApTJgdVeTfXpIU9mgm7xEB3RUwDQYJKoZIhvcNAQEL
BQAwFzEVMBMGA1UEAwwMSW50ZXJtZWRpYXRlMB4XDTIyMTAwNTEyMDAwMFoXDTIz
MTAwNTEyMDAwMFowETEPMA0GA1UEAwwGVGFyZ2V0MIIBIjANBgkqhkiG9w0BAQEF
AAOCAQ8AMIIBCgKCAQEAwGSnAbKDbEe8LTAB+UOM/MxrfKTHHHj6qIy+Hppy0DQa
VoBnZ3ZIip/FOmieU8I1zml+T9XE+wuRPK8AJvS/d8rN7If5bgWbDJMb8m7IEDJO
e1EcIndMuKO91tyVKZtLtdnOrpHYBcXFv0qct5Tb1aXmsUThAkoa3CHl5qa6VC4s
P0D1/Vx53VVtnuKr2zxntITbuob9oLXYi9C4vIt36TIxUWjuGBcJ4vEneco8cqjz
liUxJDoFU9SJCkh6nC1taoSX3zTJIn/VBfIskenEf6vQrnYiZK6+4n+XCOyGipK/
V/Ai95H/hhdikuOAixmEFGAZAJHW/lGWd1siDTJQBwIDAQABo4HpMIHmMB0GA1Ud
DgQWBBToJyLxw5TjSMRMRQ3WThxuz50bGzAfBgNVHSMEGDAWgBSPfPg6JzPCq5ae
vQ9o4MlYuwt88jA/BggrBgEFBQcBAQQzMDEwLwYIKwYBBQUHMAKGI2h0dHA6Ly91
cmwtZm9yLWFpYS9JbnRlcm1lZGlhdGUuY2VyMDQGA1UdHwQtMCswKaAnoCWGI2h0
dHA6Ly91cmwtZm9yLWNybC9JbnRlcm1lZGlhdGUuY3JsMA4GA1UdDwEB/wQEAwIF
oDAdBgNVHSUEFjAUBggrBgEFBQcDAQYIKwYBBQUHAwIwDQYJKoZIhvcNAQELBQAD
ggEBAAops5x37ss/iYeIHB7UY2rqTuYbaEgfYDf4C/Rr99UyBNs/lml83dpkVJg0
V93jR4mCmd4KTWUfwjnawfvJjF1guHczwPAV5PhDFoMr1HbZ0hsUEM2yceQu+2sM
G9sBeJVgKlDlqZcS7q06XJTMzbcl0HEKutC+oPFIdjLYkkry5FnvxvuXr73PFHnQ
Oxnd0CtJG79I9MmbZj3Kj1S7CO2iQIjbWtNvee3f7u9gniDDCOK8cHF2TgLgpQQi
gVUmn6+x6AmpYJNyAoXtfJTdx+6DG9uz4lYBv3P57jt7ROfHRNOftWPIBOVc+V9t
rfxB1/QGNCKhYJEmO3hhNhQMMJs=
-----END CERTIFICATE-----

Certificate:
    Data:
        Version: 3 (0x2)
        Serial Number:
            08:cf:d3:d1:65:21:cc:44:8a:0a:5d:79:88:07:16:54:c3:1f:d8:66
        Signature Algorithm: sha256WithRSAEncryption
        Issuer: CN=Root
        Validity
            Not Before: Oct  5 12:00:00 2022 GMT
            Not After : Oct  5 12:00:00 2023 GMT
        Subject: CN=Intermediate
        Subject Public Key Info:
            Public Key Algorithm: rsaEncryption
                Public-Key: (2048 bit)
                Modulus:
                    00:a8:e7:5f:fa:d0:9d:f1:e1:e4:87:7f:62:7e:1c:
                    89:02:66:64:9e:d5:a0:81:f3:65:68:d7:8d:02:37:
                    99:da:e8:85:00:51:b4:69:e9:57:29:09:51:c2:78:
                    c8:ee:bb:87:62:4a:a8:46:c3:d4:06:e5:f0:c2:33:
                    68:13:f7:55:c5:44:42:14:1e:d7:65:a4:a1:b6:67:
                    38:e0:c2:72:65:ee:ad:f5:94:34:93:4f:e9:d8:a5:
                    93:98:05:34:e5:f6:0f:3b:71:84:39:71:9b:b6:10:
                    47:37:ef:87:d2:98:29:a4:f1:18:e7:f4:3b:52:af:
                    34:b1:39:34:9a:49:b4:7a:ed:21:2c:60:b2:01:e8:
                    cb:b6:ad:f8:00:95:85:a9:87:91:90:05:54:0b:2e:
                    9d:4c:79:c4:c8:6d:72:ab:23:5b:d0:2b:90:3c:5b:
                    53:ed:da:56:39:38:37:45:43:17:3d:81:d5:49:97:
                    23:88:83:9f:bf:86:8d:52:af:3d:86:45:f1:1e:e8:
                    dd:8f:4f:fe:da:b5:35:cb:e0:02:ba:8e:6b:61:4a:
                    f2:c6:5d:d7:02:95:71:23:9e:7b:99:96:cf:ac:df:
                    20:2a:2d:fe:0c:42:72:c6:b8:c3:81:81:3e:a0:8d:
                    62:41:17:14:f5:24:67:f1:6c:af:c6:0c:94:09:fb:
                    56:07
                Exponent: 65537 (0x10001)
        X509v3 extensions:
            X509v3 Subject Key Identifier: 
                8F:7C:F8:3A:27:33:C2:AB:96:9E:BD:0F:68:E0:C9:58:BB:0B:7C:F2
            X509v3 Authority Key Identifier: 
                91:69:0D:94:34:B5:BA:AF:F1:DD:99:22:88:15:2B:83:B1:37:B2:54
            Authority Information Access: 
                CA Issuers - URI:http://url-for-aia/Root.cer
            X509v3 CRL Distribution Points: 
                Full Name:
                  URI:http://url-for-crl/Root.crl
            X509v3 Key Usage: critical
                Certificate Sign, CRL Sign
            X509v3 Basic Constraints: critical
                CA:TRUE
    Signature Algorithm: sha256WithRSAEncryption
    Signature Value:
        0c:e7:13:2b:f3:ce:10:2d:cd:e1:7b:d3:e9:dd:96:49:03:80:
        78:aa:1e:ba:99:d5:55:4a:cb:6f:a9:bc:f8:b9:07:0b:09:86:
        cc:fe:59:29:ad:65:2b:e3:1f:81:db:4b:d0:45:06:75:4c:b2:
        26:9a:34:82:27:77:3e:44:ab:c8:28:bd:3f:66:31:7f:a4:79:
        be:08:7e:eb:84:98:12:d7:01:01:6c:09:eb:5b:a9:3f:ac:00:
        d0:b7:28:e6:d5:54:07:20:32:cc:57:af:4f:b9:58:60:44:05:
        f1:97:75:29:5b:6f:9c:7c:25:45:8e:6c:8f:1c:4b:fa:d5:ef:
        73:17:31:29:4e:48:56:a5:b1:2a:d2:90:7a:a0:a5:57:46:94:
        c5:f1:c4:1f:88:ed:4c:4c:27:c3:c3:3a:be:ac:50:19:6c:ab:
        0e:08:54:bd:bd:4b:ff:79:61:ee:5d:f0:fe:79:a8:ca:6c:9e:
        22:bb:37:74:bf:1d:48:27:9d:57:94:fc:5d:6f:7d:b6:0e:d0:
        13:5e:da:77:aa:ac:60:62:ab:11:86:1e:e7:bd:8e:7b:e2:c8:
        34:c7:e2:e1:38:04:83:88:94:5d:8b:46:af:71:fe:af:7f:c9:
        56:24:4e:e5:31:a7:ba:5a:5e:b1:0b:03:8b:9a:bb:85:21:0e:
        5c:85:18:45
-----BEGIN CERTIFICATE-----
MIIDgDCCAmigAwIBAgIUCM/T0WUhzESKCl15iAcWVMMf2GYwDQYJKoZIhvcNAQEL
BQAwDzENMAsGA1UEAwwEUm9vdDAeFw0yMjEwMDUxMjAwMDBaFw0yMzEwMDUxMjAw
MDBaMBcxFTATBgNVBAMMDEludGVybWVkaWF0ZTCCASIwDQYJKoZIhvcNAQEBBQAD
ggEPADCCAQoCggEBAKjnX/rQnfHh5Id/Yn4ciQJmZJ7VoIHzZWjXjQI3mdrohQBR
tGnpVykJUcJ4yO67h2JKqEbD1Abl8MIzaBP3VcVEQhQe12WkobZnOODCcmXurfWU
NJNP6dilk5gFNOX2DztxhDlxm7YQRzfvh9KYKaTxGOf0O1KvNLE5NJpJtHrtISxg
sgHoy7at+ACVhamHkZAFVAsunUx5xMhtcqsjW9ArkDxbU+3aVjk4N0VDFz2B1UmX
I4iDn7+GjVKvPYZF8R7o3Y9P/tq1NcvgArqOa2FK8sZd1wKVcSOee5mWz6zfICot
/gxCcsa4w4GBPqCNYkEXFPUkZ/Fsr8YMlAn7VgcCAwEAAaOByzCByDAdBgNVHQ4E
FgQUj3z4OiczwquWnr0PaODJWLsLfPIwHwYDVR0jBBgwFoAUkWkNlDS1uq/x3Zki
iBUrg7E3slQwNwYIKwYBBQUHAQEEKzApMCcGCCsGAQUFBzAChhtodHRwOi8vdXJs
LWZvci1haWEvUm9vdC5jZXIwLAYDVR0fBCUwIzAhoB+gHYYbaHR0cDovL3VybC1m
b3ItY3JsL1Jvb3QuY3JsMA4GA1UdDwEB/wQEAwIBBjAPBgNVHRMBAf8EBTADAQH/
MA0GCSqGSIb3DQEBCwUAA4IBAQAM5xMr884QLc3he9Pp3ZZJA4B4qh66mdVVSstv
qbz4uQcLCYbM/lkprWUr4x+B20vQRQZ1TLImmjSCJ3c+RKvIKL0/ZjF/pHm+CH7r
hJgS1wEBbAnrW6k/rADQtyjm1VQHIDLMV69PuVhgRAXxl3UpW2+cfCVFjmyPHEv6
1e9zFzEpTkhWpbEq0pB6oKVXRpTF8cQfiO1MTCfDwzq+rFAZbKsOCFS9vUv/eWHu
XfD+eajKbJ4iuzd0vx1IJ51XlPxdb322DtATXtp3qqxgYqsRhh7nvY574sg0x+Lh
OASDiJRdi0avcf6vf8lWJE7lMae6Wl6xCwOLmruFIQ5chRhF
-----END CERTIFICATE-----

Certificate:
    Data:
        Version: 3 (0x2)
        Serial Number:
            08:cf:d3:d1:65:21:cc:44:8a:0a:5d:79:88:07:16:54:c3:1f:d8:65
        Signature Algorithm: sha256WithRSAEncryption
        Issuer: CN=Root
        Validity
            Not Before: Oct  5 12:00:00 2022 GMT
            Not After : Oct  5 12:00:00 2023 GMT
        Subject: CN=Root
        Subject Public Key Info:
            Public Key Algorithm: rsaEncryption
                Public-Key: (2048 bit)
                Modulus:
                    00:af:9d:d7:d1:a5:91:6e:5d:17:d4:89:85:95:b8:
                    cf:e3:e3:fb:94:dd:cc:c0:99:59:24:ac:c0:4d:cc:
                    4b:37:88:38:3c:a1:60:06:96:8d:1b:6b:e7:2b:b8:
                    71:9e:54:4b:cd:c4:4d:93:b6:3b:3f:7a:a2:c6:3b:
                    ea:9f:36:8d:e5:b0:0f:9e:27:58:7c:f8:fb:6f:e8:
                    ae:0c:bb:69:02:60:21:d1:bd:dc:e1:33:23:8d:c5:
                    5f:dc:ff:33:71:95:98:77:07:69:c0:71:2a:bf:62:
                    eb:b6:e5:cc:2e:3a:98:1c:7b:a4:a7:cb:ba:e5:ab:
                    22:32:fb:d5:03:1a:03:b7:d1:9f:d9:56:69:ae:b1:
                    51:e7:8d:06:ca:2a:f9:25:43:af:92:a1:f7:40:60:
                    85:5a:33:67:2a:62:ad:6e:4a:9a:02:1b:c4:e3:89:
                    38:d3:06:eb:a3:8c:ce:a8:c8:49:5a:4e:08:b2:7e:
                    00:16:92:60:4b:ff:77:2d:53:e7:2c:f3:2c:51:b3:
                    16:87:67:28:43:10:d3:6c:d6:c2:96:97:a3:c8:8e:
                    0b:ae:f1:56:13:bb:1b:ca:7f:2d:59:cc:37:fc:47:
                    9d:f7:c9:0a:66:19:87:3d:13:66:50:0b:52:0d:13:
                    33:6c:0b:fc:fb:88:cf:34:7b:9f:6f:6e:7e:36:ac:
                    ec:39
                Exponent: 65537 (0x10001)
        X509v3 extensions:
            X509v3 Subject Key Identifier: 
                91:69:0D:94:34:B5:BA:AF:F1:DD:99:22:88:15:2B:83:B1:37:B2:54
            X509v3 Authority Key Identifier: 
                91:69:0D:94:34:B5:BA:AF:F1:DD:99:22:88:15:2B:83:B1:37:B2:54
            Authority Information Access: 
                CA Issuers - URI:http://url-for-aia/Root.cer
            X509v3 CRL Distribution Points: 
                Full Name:
                  URI:http://url-for-crl/Root.crl
            X509v3 Key Usage: critical
                Certificate Sign, CRL Sign
            X509v3 Basic Constraints: critical
                CA:TRUE
            X509v3 Extended Key Usage: 
                TLS Web Client Authentication
    Signature Algorithm: sha256WithRSAEncryption
    Signature Value:
        67:a4:c9:1d:41:fb:85:5a:5b:16:12:37:fc:8a:25:28:ac:d2:
        ba:66:2f:7c:77:21:14:15:da:87:d9:8d:c9:47:54:0a:4b:dc:
        b7:26:6b:fb:03:f4:c0:b8:e3:f4:c4:63:f4:42:5e:9b:96:68:
        1c:83:d6:67:fc:89:ca:31:06:97:51:ab:e6:1c:67:b0:46:6d:
        9c:6b:fd:0a:a8:1d:58:ea:90:a6:f6:cf:67:91:3c:2b:99:c0:
        57:e2:b4:d4:7d:20:1f:bc:25:ab:b1:cb:87:fc:86:04:0d:85:
        dd:05:e8:bc:1e:a3:16:a1:a6:ba:c7:30:98:7c:90:d4:01:bd:
        83:3a:23:4d:0c:ef:0b:b5:ae:2d:92:25:19:01:44:64:50:6d:
        96:22:42:da:5f:3d:c3:c6:ec:6f:8f:7a:79:69:14:f1:c2:1f:
        92:d7:a0:df:c4:08:fd:d2:bd:5c:aa:f1:90:eb:9e:e0:a6:3b:
        0c:5e:97:f6:ca:08:b2:a9:c8:db:3a:56:8e:7d:56:61:b1:fc:
        93:61:db:2a:96:9c:a9:55:13:12:fb:4a:82:76:dd:f5:29:b8:
        69:ab:29:68:68:02:a9:db:c1:68:b8:76:1e:d9:01:84:71:60:
        18:4d:92:eb:47:a3:a1:dc:6f:72:e2:af:07:d9:b2:19:e9:35:
        86:65:15:a3
-----BEGIN CERTIFICATE-----
MIIDjTCCAnWgAwIBAgIUCM/T0WUhzESKCl15iAcWVMMf2GUwDQYJKoZIhvcNAQEL
BQAwDzENMAsGA1UEAwwEUm9vdDAeFw0yMjEwMDUxMjAwMDBaFw0yMzEwMDUxMjAw
MDBaMA8xDTALBgNVBAMMBFJvb3QwggEiMA0GCSqGSIb3DQEBAQUAA4IBDwAwggEK
AoIBAQCvndfRpZFuXRfUiYWVuM/j4/uU3czAmVkkrMBNzEs3iDg8oWAGlo0ba+cr
uHGeVEvNxE2Ttjs/eqLGO+qfNo3lsA+eJ1h8+Ptv6K4Mu2kCYCHRvdzhMyONxV/c
/zNxlZh3B2nAcSq/Yuu25cwuOpgce6Sny7rlqyIy+9UDGgO30Z/ZVmmusVHnjQbK
KvklQ6+SofdAYIVaM2cqYq1uSpoCG8TjiTjTBuujjM6oyElaTgiyfgAWkmBL/3ct
U+cs8yxRsxaHZyhDENNs1sKWl6PIjguu8VYTuxvKfy1ZzDf8R533yQpmGYc9E2ZQ
C1INEzNsC/z7iM80e59vbn42rOw5AgMBAAGjgeAwgd0wHQYDVR0OBBYEFJFpDZQ0
tbqv8d2ZIogVK4OxN7JUMB8GA1UdIwQYMBaAFJFpDZQ0tbqv8d2ZIogVK4OxN7JU
MDcGCCsGAQUFBwEBBCswKTAnBggrBgEFBQcwAoYbaHR0cDovL3VybC1mb3ItYWlh
L1Jvb3QuY2VyMCwGA1UdHwQlMCMwIaAfoB2GG2h0dHA6Ly91cmwtZm9yLWNybC9S
b290LmNybDAOBgNVHQ8BAf8EBAMCAQYwDwYDVR0TAQH/BAUwAwEB/zATBgNVHSUE
DDAKBggrBgEFBQcDAjANBgkqhkiG9w0BAQsFAAOCAQEAZ6TJHUH7hVpbFhI3/Iol
KKzSumYvfHchFBXah9mNyUdUCkvctyZr+wP0wLjj9MRj9EJem5ZoHIPWZ/yJyjEG
l1Gr5hxnsEZtnGv9CqgdWOqQpvbPZ5E8K5nAV+K01H0gH7wlq7HLh/yGBA2F3QXo
vB6jFqGmuscwmHyQ1AG9gzojTQzvC7WuLZIlGQFEZFBtliJC2l89w8bsb496eWkU
8cIfkteg38QI/dK9XKrxkOue4KY7DF6X9soIsqnI2zpWjn1WYbH8k2HbKpacqVUT
EvtKgnbd9Sm4aaspaGgCqdvBaLh2HtkBhHFgGE2S60ejodxvcuKvB9myGek1hmUV
ow==
-----END CERTIFICATE-----
