[Created by: generate-chains.py]

Certificate chain where the root certificate restricts the extended key
usage to clientAuth.

Certificate:
    Data:
        Version: 3 (0x2)
        Serial Number:
            77:30:29:4c:98:1d:55:e4:df:5e:92:14:f6:68:26:ef:11:01:dd:15
        Signature Algorithm: sha256WithRSAEncryption
        Issuer: CN=Intermediate
        Validity
            Not Before: Nov  3 12:00:00 2020 GMT
            Not After : Nov  3 12:00:00 2021 GMT
        Subject: CN=Target
        Subject Public Key Info:
            Public Key Algorithm: rsaEncryption
                RSA Public-Key: (2048 bit)
                Modulus:
                    00:c0:64:a7:01:b2:83:6c:47:bc:2d:30:01:f9:43:
                    8c:fc:cc:6b:7c:a4:c7:1c:78:fa:a8:8c:be:1e:9a:
                    72:d0:34:1a:56:80:67:67:76:48:8a:9f:c5:3a:68:
                    9e:53:c2:35:ce:69:7e:4f:d5:c4:fb:0b:91:3c:af:
                    00:26:f4:bf:77:ca:cd:ec:87:f9:6e:05:9b:0c:93:
                    1b:f2:6e:c8:10:32:4e:7b:51:1c:22:77:4c:b8:a3:
                    bd:d6:dc:95:29:9b:4b:b5:d9:ce:ae:91:d8:05:c5:
                    c5:bf:4a:9c:b7:94:db:d5:a5:e6:b1:44:e1:02:4a:
                    1a:dc:21:e5:e6:a6:ba:54:2e:2c:3f:40:f5:fd:5c:
                    79:dd:55:6d:9e:e2:ab:db:3c:67:b4:84:db:ba:86:
                    fd:a0:b5:d8:8b:d0:b8:bc:8b:77:e9:32:31:51:68:
                    ee:18:17:09:e2:f1:27:79:ca:3c:72:a8:f3:96:25:
                    31:24:3a:05:53:d4:89:0a:48:7a:9c:2d:6d:6a:84:
                    97:df:34:c9:22:7f:d5:05:f2:2c:91:e9:c4:7f:ab:
                    d0:ae:76:22:64:ae:be:e2:7f:97:08:ec:86:8a:92:
                    bf:57:f0:22:f7:91:ff:86:17:62:92:e3:80:8b:19:
                    84:14:60:19:00:91:d6:fe:51:96:77:5b:22:0d:32:
                    50:07
                Exponent: 65537 (0x10001)
        X509v3 extensions:
            X509v3 Subject Key Identifier: 
                E8:27:22:F1:C3:94:E3:48:C4:4C:45:0D:D6:4E:1C:6E:CF:9D:1B:1B
            X509v3 Authority Key Identifier: 
                keyid:8F:7C:F8:3A:27:33:C2:AB:96:9E:BD:0F:68:E0:C9:58:BB:0B:7C:F2

            Authority Information Access: 
                CA Issuers - URI:http://url-for-aia/Intermediate.cer

            X509v3 CRL Distribution Points: 

                Full Name:
                  URI:http://url-for-crl/Intermediate.crl

            X509v3 Key Usage: critical
                Digital Signature, Key Encipherment
            X509v3 Extended Key Usage: 
                TLS Web Server Authentication, TLS Web Client Authentication
    Signature Algorithm: sha256WithRSAEncryption
         a5:36:f0:4c:16:00:08:c9:49:aa:12:05:93:57:bf:5a:95:33:
         a9:90:2a:3f:ac:d8:44:93:a5:51:db:ee:89:cf:2e:49:92:07:
         51:d3:22:4f:79:54:76:bc:7b:56:b3:06:8d:a6:05:74:fa:20:
         3f:ad:83:39:12:f9:dd:a1:56:80:d3:15:d5:0a:81:c9:32:bb:
         e1:64:02:a0:16:c5:ae:96:a9:91:54:9a:e9:70:d4:89:54:8a:
         3c:8e:b5:4f:70:4d:cb:99:f3:04:5d:d0:23:e4:0e:32:13:7d:
         85:d7:a8:51:66:4e:c0:a8:5e:c7:6b:bf:d4:0f:c3:6f:ad:14:
         51:9f:c0:e7:85:f3:6d:24:7e:13:ff:8f:fb:97:a2:8d:88:4f:
         91:8f:dc:1f:30:17:82:be:e1:86:93:c6:6a:02:d1:b5:3f:51:
         f9:68:01:83:eb:b9:d3:65:e8:d9:3e:98:f1:18:a3:7f:f7:37:
         dd:6e:d5:d0:84:a6:e2:fd:31:9c:17:89:46:7d:40:bc:93:9e:
         66:6e:21:d1:13:ac:8e:c3:58:3d:fe:e1:2e:54:ae:a4:26:be:
         48:79:d4:2c:9c:1e:2b:fd:59:23:06:99:00:6f:01:78:99:6f:
         58:5d:63:0a:26:13:34:25:0f:a0:41:10:e6:06:72:8a:cc:40:
         45:17:ac:d4
-----BEGIN CERTIFICATE-----
MIIDoDCCAoigAwIBAgIUdzApTJgdVeTfXpIU9mgm7xEB3RUwDQYJKoZIhvcNAQEL
BQAwFzEVMBMGA1UEAwwMSW50ZXJtZWRpYXRlMB4XDTIwMTEwMzEyMDAwMFoXDTIx
MTEwMzEyMDAwMFowETEPMA0GA1UEAwwGVGFyZ2V0MIIBIjANBgkqhkiG9w0BAQEF
AAOCAQ8AMIIBCgKCAQEAwGSnAbKDbEe8LTAB+UOM/MxrfKTHHHj6qIy+Hppy0DQa
VoBnZ3ZIip/FOmieU8I1zml+T9XE+wuRPK8AJvS/d8rN7If5bgWbDJMb8m7IEDJO
e1EcIndMuKO91tyVKZtLtdnOrpHYBcXFv0qct5Tb1aXmsUThAkoa3CHl5qa6VC4s
P0D1/Vx53VVtnuKr2zxntITbuob9oLXYi9C4vIt36TIxUWjuGBcJ4vEneco8cqjz
liUxJDoFU9SJCkh6nC1taoSX3zTJIn/VBfIskenEf6vQrnYiZK6+4n+XCOyGipK/
V/Ai95H/hhdikuOAixmEFGAZAJHW/lGWd1siDTJQBwIDAQABo4HpMIHmMB0GA1Ud
DgQWBBToJyLxw5TjSMRMRQ3WThxuz50bGzAfBgNVHSMEGDAWgBSPfPg6JzPCq5ae
vQ9o4MlYuwt88jA/BggrBgEFBQcBAQQzMDEwLwYIKwYBBQUHMAKGI2h0dHA6Ly91
cmwtZm9yLWFpYS9JbnRlcm1lZGlhdGUuY2VyMDQGA1UdHwQtMCswKaAnoCWGI2h0
dHA6Ly91cmwtZm9yLWNybC9JbnRlcm1lZGlhdGUuY3JsMA4GA1UdDwEB/wQEAwIF
oDAdBgNVHSUEFjAUBggrBgEFBQcDAQYIKwYBBQUHAwIwDQYJKoZIhvcNAQELBQAD
ggEBAKU28EwWAAjJSaoSBZNXv1qVM6mQKj+s2ESTpVHb7onPLkmSB1HTIk95VHa8
e1azBo2mBXT6ID+tgzkS+d2hVoDTFdUKgckyu+FkAqAWxa6WqZFUmulw1IlUijyO
tU9wTcuZ8wRd0CPkDjITfYXXqFFmTsCoXsdrv9QPw2+tFFGfwOeF820kfhP/j/uX
oo2IT5GP3B8wF4K+4YaTxmoC0bU/UfloAYPrudNl6Nk+mPEYo3/3N91u1dCEpuL9
MZwXiUZ9QLyTnmZuIdETrI7DWD3+4S5UrqQmvkh51CycHiv9WSMGmQBvAXiZb1hd
YwomEzQlD6BBEOYGcorMQEUXrNQ=
-----END CERTIFICATE-----

Certificate:
    Data:
        Version: 3 (0x2)
        Serial Number:
            08:cf:d3:d1:65:21:cc:44:8a:0a:5d:79:88:07:16:54:c3:1f:d8:66
        Signature Algorithm: sha256WithRSAEncryption
        Issuer: CN=Root
        Validity
            Not Before: Nov  3 12:00:00 2020 GMT
            Not After : Nov  3 12:00:00 2021 GMT
        Subject: CN=Intermediate
        Subject Public Key Info:
            Public Key Algorithm: rsaEncryption
                RSA Public-Key: (2048 bit)
                Modulus:
                    00:a8:e7:5f:fa:d0:9d:f1:e1:e4:87:7f:62:7e:1c:
                    89:02:66:64:9e:d5:a0:81:f3:65:68:d7:8d:02:37:
                    99:da:e8:85:00:51:b4:69:e9:57:29:09:51:c2:78:
                    c8:ee:bb:87:62:4a:a8:46:c3:d4:06:e5:f0:c2:33:
                    68:13:f7:55:c5:44:42:14:1e:d7:65:a4:a1:b6:67:
                    38:e0:c2:72:65:ee:ad:f5:94:34:93:4f:e9:d8:a5:
                    93:98:05:34:e5:f6:0f:3b:71:84:39:71:9b:b6:10:
                    47:37:ef:87:d2:98:29:a4:f1:18:e7:f4:3b:52:af:
                    34:b1:39:34:9a:49:b4:7a:ed:21:2c:60:b2:01:e8:
                    cb:b6:ad:f8:00:95:85:a9:87:91:90:05:54:0b:2e:
                    9d:4c:79:c4:c8:6d:72:ab:23:5b:d0:2b:90:3c:5b:
                    53:ed:da:56:39:38:37:45:43:17:3d:81:d5:49:97:
                    23:88:83:9f:bf:86:8d:52:af:3d:86:45:f1:1e:e8:
                    dd:8f:4f:fe:da:b5:35:cb:e0:02:ba:8e:6b:61:4a:
                    f2:c6:5d:d7:02:95:71:23:9e:7b:99:96:cf:ac:df:
                    20:2a:2d:fe:0c:42:72:c6:b8:c3:81:81:3e:a0:8d:
                    62:41:17:14:f5:24:67:f1:6c:af:c6:0c:94:09:fb:
                    56:07
                Exponent: 65537 (0x10001)
        X509v3 extensions:
            X509v3 Subject Key Identifier: 
                8F:7C:F8:3A:27:33:C2:AB:96:9E:BD:0F:68:E0:C9:58:BB:0B:7C:F2
            X509v3 Authority Key Identifier: 
                keyid:91:69:0D:94:34:B5:BA:AF:F1:DD:99:22:88:15:2B:83:B1:37:B2:54

            Authority Information Access: 
                CA Issuers - URI:http://url-for-aia/Root.cer

            X509v3 CRL Distribution Points: 

                Full Name:
                  URI:http://url-for-crl/Root.crl

            X509v3 Key Usage: critical
                Certificate Sign, CRL Sign
            X509v3 Basic Constraints: critical
                CA:TRUE
    Signature Algorithm: sha256WithRSAEncryption
         a5:13:f4:a9:a7:60:1f:d7:72:df:aa:f4:06:9d:d5:92:df:07:
         9d:03:92:df:ac:44:fc:61:ae:aa:ca:24:76:45:1f:fc:e7:72:
         d3:00:19:3d:e8:e5:3c:24:b8:07:8a:18:1a:6d:4d:0c:2c:83:
         55:59:40:55:04:d9:2d:e9:a8:fe:67:d4:da:17:ee:0a:f0:1d:
         2d:5e:1f:66:9b:55:45:8f:f3:40:70:e8:e2:7d:3e:7d:24:1c:
         be:55:bc:28:3d:2b:10:4d:56:c8:f8:b1:94:6b:86:a6:78:46:
         17:0a:0e:d3:03:64:5b:16:21:6e:7c:ad:54:b6:9d:b4:d4:dd:
         59:33:39:81:38:ff:19:3b:64:5c:aa:b5:e1:e9:04:c3:d2:18:
         76:9e:f2:13:54:05:7b:da:a9:8c:0d:64:b3:30:6d:f2:c0:97:
         57:1d:44:00:e9:e4:b7:36:46:ae:f9:1e:f8:d0:62:22:34:74:
         57:38:83:5f:a9:35:12:dd:99:f9:66:c1:eb:00:82:ee:72:87:
         aa:02:0c:85:4b:b3:20:b7:90:47:c2:52:a9:41:8a:1e:03:79:
         62:16:11:85:b1:d9:6b:f1:79:30:51:84:23:ae:24:38:1b:ec:
         db:d3:e9:29:5c:90:12:e7:f2:0f:30:20:40:b7:45:c9:c6:85:
         05:79:a5:40
-----BEGIN CERTIFICATE-----
MIIDgDCCAmigAwIBAgIUCM/T0WUhzESKCl15iAcWVMMf2GYwDQYJKoZIhvcNAQEL
BQAwDzENMAsGA1UEAwwEUm9vdDAeFw0yMDExMDMxMjAwMDBaFw0yMTExMDMxMjAw
MDBaMBcxFTATBgNVBAMMDEludGVybWVkaWF0ZTCCASIwDQYJKoZIhvcNAQEBBQAD
ggEPADCCAQoCggEBAKjnX/rQnfHh5Id/Yn4ciQJmZJ7VoIHzZWjXjQI3mdrohQBR
tGnpVykJUcJ4yO67h2JKqEbD1Abl8MIzaBP3VcVEQhQe12WkobZnOODCcmXurfWU
NJNP6dilk5gFNOX2DztxhDlxm7YQRzfvh9KYKaTxGOf0O1KvNLE5NJpJtHrtISxg
sgHoy7at+ACVhamHkZAFVAsunUx5xMhtcqsjW9ArkDxbU+3aVjk4N0VDFz2B1UmX
I4iDn7+GjVKvPYZF8R7o3Y9P/tq1NcvgArqOa2FK8sZd1wKVcSOee5mWz6zfICot
/gxCcsa4w4GBPqCNYkEXFPUkZ/Fsr8YMlAn7VgcCAwEAAaOByzCByDAdBgNVHQ4E
FgQUj3z4OiczwquWnr0PaODJWLsLfPIwHwYDVR0jBBgwFoAUkWkNlDS1uq/x3Zki
iBUrg7E3slQwNwYIKwYBBQUHAQEEKzApMCcGCCsGAQUFBzAChhtodHRwOi8vdXJs
LWZvci1haWEvUm9vdC5jZXIwLAYDVR0fBCUwIzAhoB+gHYYbaHR0cDovL3VybC1m
b3ItY3JsL1Jvb3QuY3JsMA4GA1UdDwEB/wQEAwIBBjAPBgNVHRMBAf8EBTADAQH/
MA0GCSqGSIb3DQEBCwUAA4IBAQClE/Spp2Af13LfqvQGndWS3wedA5LfrET8Ya6q
yiR2RR/853LTABk96OU8JLgHihgabU0MLINVWUBVBNkt6aj+Z9TaF+4K8B0tXh9m
m1VFj/NAcOjifT59JBy+VbwoPSsQTVbI+LGUa4ameEYXCg7TA2RbFiFufK1Utp20
1N1ZMzmBOP8ZO2RcqrXh6QTD0hh2nvITVAV72qmMDWSzMG3ywJdXHUQA6eS3Nkau
+R740GIiNHRXOINfqTUS3Zn5ZsHrAILucoeqAgyFS7Mgt5BHwlKpQYoeA3liFhGF
sdlr8XkwUYQjriQ4G+zb0+kpXJAS5/IPMCBAt0XJxoUFeaVA
-----END CERTIFICATE-----

Certificate:
    Data:
        Version: 3 (0x2)
        Serial Number:
            08:cf:d3:d1:65:21:cc:44:8a:0a:5d:79:88:07:16:54:c3:1f:d8:65
        Signature Algorithm: sha256WithRSAEncryption
        Issuer: CN=Root
        Validity
            Not Before: Nov  3 12:00:00 2020 GMT
            Not After : Nov  3 12:00:00 2021 GMT
        Subject: CN=Root
        Subject Public Key Info:
            Public Key Algorithm: rsaEncryption
                RSA Public-Key: (2048 bit)
                Modulus:
                    00:af:9d:d7:d1:a5:91:6e:5d:17:d4:89:85:95:b8:
                    cf:e3:e3:fb:94:dd:cc:c0:99:59:24:ac:c0:4d:cc:
                    4b:37:88:38:3c:a1:60:06:96:8d:1b:6b:e7:2b:b8:
                    71:9e:54:4b:cd:c4:4d:93:b6:3b:3f:7a:a2:c6:3b:
                    ea:9f:36:8d:e5:b0:0f:9e:27:58:7c:f8:fb:6f:e8:
                    ae:0c:bb:69:02:60:21:d1:bd:dc:e1:33:23:8d:c5:
                    5f:dc:ff:33:71:95:98:77:07:69:c0:71:2a:bf:62:
                    eb:b6:e5:cc:2e:3a:98:1c:7b:a4:a7:cb:ba:e5:ab:
                    22:32:fb:d5:03:1a:03:b7:d1:9f:d9:56:69:ae:b1:
                    51:e7:8d:06:ca:2a:f9:25:43:af:92:a1:f7:40:60:
                    85:5a:33:67:2a:62:ad:6e:4a:9a:02:1b:c4:e3:89:
                    38:d3:06:eb:a3:8c:ce:a8:c8:49:5a:4e:08:b2:7e:
                    00:16:92:60:4b:ff:77:2d:53:e7:2c:f3:2c:51:b3:
                    16:87:67:28:43:10:d3:6c:d6:c2:96:97:a3:c8:8e:
                    0b:ae:f1:56:13:bb:1b:ca:7f:2d:59:cc:37:fc:47:
                    9d:f7:c9:0a:66:19:87:3d:13:66:50:0b:52:0d:13:
                    33:6c:0b:fc:fb:88:cf:34:7b:9f:6f:6e:7e:36:ac:
                    ec:39
                Exponent: 65537 (0x10001)
        X509v3 extensions:
            X509v3 Subject Key Identifier: 
                91:69:0D:94:34:B5:BA:AF:F1:DD:99:22:88:15:2B:83:B1:37:B2:54
            X509v3 Authority Key Identifier: 
                keyid:91:69:0D:94:34:B5:BA:AF:F1:DD:99:22:88:15:2B:83:B1:37:B2:54

            Authority Information Access: 
                CA Issuers - URI:http://url-for-aia/Root.cer

            X509v3 CRL Distribution Points: 

                Full Name:
                  URI:http://url-for-crl/Root.crl

            X509v3 Key Usage: critical
                Certificate Sign, CRL Sign
            X509v3 Basic Constraints: critical
                CA:TRUE
            X509v3 Extended Key Usage: 
                TLS Web Client Authentication
    Signature Algorithm: sha256WithRSAEncryption
         12:f7:8c:84:5f:b6:c7:51:bc:e5:d7:77:50:e8:ee:1a:01:a2:
         41:72:09:c5:01:70:96:46:e3:af:22:68:5e:24:7b:0e:2d:3f:
         5c:96:8c:bd:3b:ad:f3:fd:be:db:6a:25:77:ed:c6:88:7c:60:
         ed:b9:4a:ba:f8:d6:cb:f5:c5:de:52:b9:1a:1f:cf:60:cb:17:
         02:28:45:1f:e0:19:51:6f:0f:60:f9:bb:52:29:88:69:d7:9e:
         f1:21:b9:c2:cd:07:30:f2:1b:cc:41:5f:f4:b1:53:a0:aa:2c:
         5b:d2:60:f9:e7:13:46:48:0e:5f:e3:68:b1:7c:3d:95:a3:93:
         12:64:f3:18:fc:63:fd:e7:19:77:ea:39:4f:c7:d5:34:78:87:
         a3:9b:3e:d7:b8:05:8b:8b:a6:1e:ca:39:72:61:7d:d1:fa:99:
         49:56:60:29:4c:f1:fb:9a:9b:48:32:78:0f:48:b3:f4:ba:3c:
         49:2c:b5:d8:40:b9:ac:95:73:13:a3:fd:59:49:39:b1:ac:d8:
         f5:29:d7:31:56:99:e7:cc:78:c1:54:d9:23:55:a6:29:89:5b:
         77:f7:3f:85:94:5e:80:7f:4c:49:fe:fe:0f:20:10:d0:9a:b9:
         8b:60:b1:b5:b1:d9:4b:48:41:f1:2c:6a:27:6f:5a:f4:1e:33:
         56:5b:9c:af
-----BEGIN CERTIFICATE-----
MIIDjTCCAnWgAwIBAgIUCM/T0WUhzESKCl15iAcWVMMf2GUwDQYJKoZIhvcNAQEL
BQAwDzENMAsGA1UEAwwEUm9vdDAeFw0yMDExMDMxMjAwMDBaFw0yMTExMDMxMjAw
MDBaMA8xDTALBgNVBAMMBFJvb3QwggEiMA0GCSqGSIb3DQEBAQUAA4IBDwAwggEK
AoIBAQCvndfRpZFuXRfUiYWVuM/j4/uU3czAmVkkrMBNzEs3iDg8oWAGlo0ba+cr
uHGeVEvNxE2Ttjs/eqLGO+qfNo3lsA+eJ1h8+Ptv6K4Mu2kCYCHRvdzhMyONxV/c
/zNxlZh3B2nAcSq/Yuu25cwuOpgce6Sny7rlqyIy+9UDGgO30Z/ZVmmusVHnjQbK
KvklQ6+SofdAYIVaM2cqYq1uSpoCG8TjiTjTBuujjM6oyElaTgiyfgAWkmBL/3ct
U+cs8yxRsxaHZyhDENNs1sKWl6PIjguu8VYTuxvKfy1ZzDf8R533yQpmGYc9E2ZQ
C1INEzNsC/z7iM80e59vbn42rOw5AgMBAAGjgeAwgd0wHQYDVR0OBBYEFJFpDZQ0
tbqv8d2ZIogVK4OxN7JUMB8GA1UdIwQYMBaAFJFpDZQ0tbqv8d2ZIogVK4OxN7JU
MDcGCCsGAQUFBwEBBCswKTAnBggrBgEFBQcwAoYbaHR0cDovL3VybC1mb3ItYWlh
L1Jvb3QuY2VyMCwGA1UdHwQlMCMwIaAfoB2GG2h0dHA6Ly91cmwtZm9yLWNybC9S
b290LmNybDAOBgNVHQ8BAf8EBAMCAQYwDwYDVR0TAQH/BAUwAwEB/zATBgNVHSUE
DDAKBggrBgEFBQcDAjANBgkqhkiG9w0BAQsFAAOCAQEAEveMhF+2x1G85dd3UOju
GgGiQXIJxQFwlkbjryJoXiR7Di0/XJaMvTut8/2+22old+3GiHxg7blKuvjWy/XF
3lK5Gh/PYMsXAihFH+AZUW8PYPm7UimIadee8SG5ws0HMPIbzEFf9LFToKosW9Jg
+ecTRkgOX+NosXw9laOTEmTzGPxj/ecZd+o5T8fVNHiHo5s+17gFi4umHso5cmF9
0fqZSVZgKUzx+5qbSDJ4D0iz9Lo8SSy12EC5rJVzE6P9WUk5sazY9SnXMVaZ58x4
wVTZI1WmKYlbd/c/hZRegH9MSf7+DyAQ0Jq5i2CxtbHZS0hB8SxqJ29a9B4zVluc
rw==
-----END CERTIFICATE-----
