[Created by: generate-chains.py]

Certificate chain where the supposed root certificate is wrong:

  * The intermediate's "issuer" does not match the root's "subject"
  * The intermediate's signature was not generated using the root's key


Certificate:
    Data:
        Version: 3 (0x2)
        Serial Number:
            6f:d4:ce:21:aa:ed:06:7b:56:9b:0b:40:d4:28:fb:ff:a9:d9:2b:9b
        Signature Algorithm: sha256WithRSAEncryption
        Issuer: CN=Intermediate
        Validity
            Not Before: Nov  3 12:00:00 2020 GMT
            Not After : Nov  3 12:00:00 2021 GMT
        Subject: CN=Target
        Subject Public Key Info:
            Public Key Algorithm: rsaEncryption
                RSA Public-Key: (2048 bit)
                Modulus:
                    00:b3:d8:e1:c8:d6:ce:ed:3b:b7:8a:5b:17:c2:9e:
                    0c:04:f4:4e:ba:ad:1b:cf:c0:63:b7:c9:01:e9:7a:
                    28:d4:d8:0b:71:36:af:02:f6:44:fc:ce:5e:84:50:
                    fb:5f:ef:a0:b8:b5:77:62:c0:6c:9f:8f:4f:64:52:
                    67:04:0b:d3:92:31:a5:79:f3:8d:11:03:03:a2:c0:
                    da:ef:8f:b5:68:f8:55:f0:ac:9b:05:3a:df:ea:7b:
                    3b:06:f2:de:e3:b2:c5:27:3e:b9:39:90:c0:27:0d:
                    de:6c:a2:8e:e4:2e:f9:95:13:37:df:20:12:28:ae:
                    82:5e:91:3a:cb:75:ae:55:fb:07:d6:40:48:cd:6f:
                    9c:3e:07:0f:48:d1:8f:ba:db:fa:b2:7c:ce:29:10:
                    e0:6b:48:36:80:db:4c:10:19:a1:28:fb:e0:b5:4f:
                    b2:89:40:b7:6b:9a:af:a1:9b:b0:52:03:23:16:fb:
                    0f:5d:c6:c9:f2:98:08:c5:07:85:76:30:57:46:be:
                    85:46:ed:14:74:60:00:61:ce:f7:88:62:6c:0b:a2:
                    41:9c:5a:27:3f:e5:29:9c:36:73:a3:04:8b:ab:74:
                    2d:1e:f5:96:f7:b4:c2:51:77:a9:9c:ef:ac:fd:bc:
                    aa:cf:ba:98:cf:6c:1b:fc:e9:20:8c:dc:17:45:49:
                    12:45
                Exponent: 65537 (0x10001)
        X509v3 extensions:
            X509v3 Subject Key Identifier: 
                14:7E:08:D5:73:67:A9:9C:5B:C1:26:14:D1:96:8E:09:88:11:32:67
            X509v3 Authority Key Identifier: 
                keyid:3F:EE:51:69:3A:24:09:D6:26:3C:A4:08:22:1F:0D:77:7D:D5:E7:3B

            Authority Information Access: 
                CA Issuers - URI:http://url-for-aia/Intermediate.cer

            X509v3 CRL Distribution Points: 

                Full Name:
                  URI:http://url-for-crl/Intermediate.crl

            X509v3 Key Usage: critical
                Digital Signature, Key Encipherment
            X509v3 Extended Key Usage: 
                TLS Web Server Authentication, TLS Web Client Authentication
    Signature Algorithm: sha256WithRSAEncryption
         10:0b:17:9f:98:23:96:2b:b9:78:13:78:7f:59:8b:28:12:d0:
         6d:b7:6d:1c:22:e5:37:9c:e6:a3:d4:3d:70:8c:8f:a6:22:45:
         c1:d9:37:39:e9:f3:ae:da:08:f0:23:0c:8d:d0:20:5f:89:9b:
         a7:11:d2:0b:bd:fa:ee:9b:f6:25:49:83:e0:24:7a:ed:70:aa:
         bf:d7:02:c6:e1:37:33:bd:72:28:c5:de:34:08:c8:85:d7:ff:
         7d:65:f8:f7:e6:a9:e2:83:9c:79:ab:63:2f:1f:00:fd:9e:6f:
         6a:b9:2b:46:a5:38:56:40:8e:38:6b:3b:c4:7a:e9:9f:30:ec:
         54:cc:4b:af:17:4b:b3:42:27:a5:89:f4:83:2c:17:e0:6a:b3:
         01:1a:0b:24:d1:c3:d9:18:6f:71:9f:a6:27:29:51:c3:1f:4d:
         0d:6f:dc:29:a5:b2:7f:ed:f2:2f:82:91:4b:82:a3:fb:53:8f:
         82:93:11:79:98:e9:eb:84:f4:a6:54:3d:6c:90:72:e6:28:58:
         88:9e:98:c9:3a:b6:c1:c9:f5:c5:60:bf:75:fd:a0:e4:04:3f:
         45:84:6d:77:bb:46:ce:f1:01:72:cf:0c:9f:af:b9:02:21:13:
         01:b1:1b:38:8d:c2:73:5c:07:b4:40:c9:16:34:2b:0c:b0:8f:
         24:9b:aa:1c
-----BEGIN CERTIFICATE-----
MIIDoDCCAoigAwIBAgIUb9TOIartBntWmwtA1Cj7/6nZK5swDQYJKoZIhvcNAQEL
BQAwFzEVMBMGA1UEAwwMSW50ZXJtZWRpYXRlMB4XDTIwMTEwMzEyMDAwMFoXDTIx
MTEwMzEyMDAwMFowETEPMA0GA1UEAwwGVGFyZ2V0MIIBIjANBgkqhkiG9w0BAQEF
AAOCAQ8AMIIBCgKCAQEAs9jhyNbO7Tu3ilsXwp4MBPROuq0bz8Bjt8kB6Xoo1NgL
cTavAvZE/M5ehFD7X++guLV3YsBsn49PZFJnBAvTkjGlefONEQMDosDa74+1aPhV
8KybBTrf6ns7BvLe47LFJz65OZDAJw3ebKKO5C75lRM33yASKK6CXpE6y3WuVfsH
1kBIzW+cPgcPSNGPutv6snzOKRDga0g2gNtMEBmhKPvgtU+yiUC3a5qvoZuwUgMj
FvsPXcbJ8pgIxQeFdjBXRr6FRu0UdGAAYc73iGJsC6JBnFonP+UpnDZzowSLq3Qt
HvWW97TCUXepnO+s/byqz7qYz2wb/OkgjNwXRUkSRQIDAQABo4HpMIHmMB0GA1Ud
DgQWBBQUfgjVc2epnFvBJhTRlo4JiBEyZzAfBgNVHSMEGDAWgBQ/7lFpOiQJ1iY8
pAgiHw13fdXnOzA/BggrBgEFBQcBAQQzMDEwLwYIKwYBBQUHMAKGI2h0dHA6Ly91
cmwtZm9yLWFpYS9JbnRlcm1lZGlhdGUuY2VyMDQGA1UdHwQtMCswKaAnoCWGI2h0
dHA6Ly91cmwtZm9yLWNybC9JbnRlcm1lZGlhdGUuY3JsMA4GA1UdDwEB/wQEAwIF
oDAdBgNVHSUEFjAUBggrBgEFBQcDAQYIKwYBBQUHAwIwDQYJKoZIhvcNAQELBQAD
ggEBABALF5+YI5YruXgTeH9ZiygS0G23bRwi5Tec5qPUPXCMj6YiRcHZNznp867a
CPAjDI3QIF+Jm6cR0gu9+u6b9iVJg+Akeu1wqr/XAsbhNzO9cijF3jQIyIXX/31l
+PfmqeKDnHmrYy8fAP2eb2q5K0alOFZAjjhrO8R66Z8w7FTMS68XS7NCJ6WJ9IMs
F+BqswEaCyTRw9kYb3GfpicpUcMfTQ1v3Cmlsn/t8i+CkUuCo/tTj4KTEXmY6euE
9KZUPWyQcuYoWIiemMk6tsHJ9cVgv3X9oOQEP0WEbXe7Rs7xAXLPDJ+vuQIhEwGx
GziNwnNcB7RAyRY0KwywjySbqhw=
-----END CERTIFICATE-----

Certificate:
    Data:
        Version: 3 (0x2)
        Serial Number:
            3e:47:c8:ca:0d:d0:ba:cc:83:24:aa:c4:09:b2:53:44:d2:da:f7:4b
        Signature Algorithm: sha256WithRSAEncryption
        Issuer: CN=Root
        Validity
            Not Before: Nov  3 12:00:00 2020 GMT
            Not After : Nov  3 12:00:00 2021 GMT
        Subject: CN=Intermediate
        Subject Public Key Info:
            Public Key Algorithm: rsaEncryption
                RSA Public-Key: (2048 bit)
                Modulus:
                    00:e4:40:ac:b5:f3:c7:b0:dc:ca:07:85:b4:fa:5f:
                    0d:28:a4:0d:88:12:cb:05:a3:4f:bb:7d:01:88:de:
                    0c:b3:b9:0c:cc:3f:b4:6e:9f:d6:b6:a7:2a:6b:03:
                    c5:bc:3b:10:17:69:fd:29:5c:d3:fd:38:fe:b6:5e:
                    b2:04:8f:10:93:92:aa:db:76:07:a2:60:0f:3e:07:
                    bb:8d:f1:ca:c8:f3:38:69:61:38:41:4e:69:2d:70:
                    c2:ed:af:85:81:99:dc:8e:65:03:45:32:9b:01:95:
                    7c:d5:c0:90:bd:f4:08:a5:44:4b:e5:a2:e7:fe:17:
                    e4:f3:3d:59:35:8e:6d:3b:70:4d:b8:49:ac:63:ff:
                    3e:d4:71:36:e9:2b:50:c9:5c:bc:bb:b0:c6:1b:c4:
                    0a:01:ec:ae:3f:b7:bd:10:57:08:5e:ec:8a:07:ce:
                    e5:da:46:25:e8:ca:0a:e0:c2:cc:0d:44:84:db:0c:
                    88:d5:0f:65:bc:ea:69:10:ba:dc:93:ef:34:f9:2f:
                    c7:9b:c5:49:27:72:9c:a3:fd:40:9c:49:e3:59:7c:
                    24:cc:99:9a:01:b6:0d:fb:41:cb:36:80:41:88:c7:
                    75:9f:d5:01:6f:63:d5:f5:75:85:cd:26:3e:a6:fe:
                    8d:a9:ef:a8:b0:04:8b:7e:89:f3:5f:75:3a:56:69:
                    c7:07
                Exponent: 65537 (0x10001)
        X509v3 extensions:
            X509v3 Subject Key Identifier: 
                3F:EE:51:69:3A:24:09:D6:26:3C:A4:08:22:1F:0D:77:7D:D5:E7:3B
            X509v3 Authority Key Identifier: 
                keyid:64:6F:C2:6E:64:18:20:24:F6:02:A9:AF:63:23:01:ED:CC:69:9B:E0

            Authority Information Access: 
                CA Issuers - URI:http://url-for-aia/Root.cer

            X509v3 CRL Distribution Points: 

                Full Name:
                  URI:http://url-for-crl/Root.crl

            X509v3 Key Usage: critical
                Certificate Sign, CRL Sign
            X509v3 Basic Constraints: critical
                CA:TRUE
    Signature Algorithm: sha256WithRSAEncryption
         79:79:e5:2b:45:ff:46:fe:cc:e8:0c:e4:6f:86:2b:91:a1:88:
         3d:24:46:58:af:86:1d:08:fa:43:1a:8f:16:b2:87:fc:76:2c:
         43:9f:3e:b3:a7:17:40:3c:e7:68:4d:d1:cb:74:0d:2b:07:7a:
         30:59:4b:e5:96:99:97:0d:76:81:bb:3b:35:56:4b:9e:87:35:
         b7:72:1b:7d:0e:5a:af:d0:8f:c7:4f:01:e0:23:c9:28:a7:f9:
         0d:c1:e7:b0:c6:5d:3f:74:fc:5f:72:04:e6:c5:3b:5d:00:f0:
         bd:6e:81:f0:15:57:d0:6c:68:00:b5:55:5b:ce:d0:41:1b:bd:
         fb:a9:fa:a4:39:ed:70:5f:ee:bc:35:86:40:01:3a:0c:ec:1d:
         8e:18:32:08:b1:9c:f2:22:f7:00:aa:ae:ac:a3:04:53:6c:f5:
         a8:cc:86:9d:01:2c:c6:f1:50:59:89:52:f0:e1:ff:c2:7a:2f:
         b6:25:c2:f5:b2:0d:77:9e:7e:0a:da:e7:2f:7f:49:f9:82:b3:
         01:bf:86:63:f9:ed:5f:82:b4:48:16:38:56:de:2a:aa:ed:f4:
         1f:1f:bb:ba:71:71:56:c0:52:ca:b4:14:05:0f:9c:ef:f2:5b:
         fc:9a:33:d2:28:90:ef:b9:f6:69:83:31:ec:d1:f5:52:08:1d:
         0a:0e:1d:ed
-----BEGIN CERTIFICATE-----
MIIDgDCCAmigAwIBAgIUPkfIyg3QusyDJKrECbJTRNLa90swDQYJKoZIhvcNAQEL
BQAwDzENMAsGA1UEAwwEUm9vdDAeFw0yMDExMDMxMjAwMDBaFw0yMTExMDMxMjAw
MDBaMBcxFTATBgNVBAMMDEludGVybWVkaWF0ZTCCASIwDQYJKoZIhvcNAQEBBQAD
ggEPADCCAQoCggEBAORArLXzx7DcygeFtPpfDSikDYgSywWjT7t9AYjeDLO5DMw/
tG6f1ranKmsDxbw7EBdp/Slc0/04/rZesgSPEJOSqtt2B6JgDz4Hu43xysjzOGlh
OEFOaS1wwu2vhYGZ3I5lA0UymwGVfNXAkL30CKVES+Wi5/4X5PM9WTWObTtwTbhJ
rGP/PtRxNukrUMlcvLuwxhvECgHsrj+3vRBXCF7sigfO5dpGJejKCuDCzA1EhNsM
iNUPZbzqaRC63JPvNPkvx5vFSSdynKP9QJxJ41l8JMyZmgG2DftByzaAQYjHdZ/V
AW9j1fV1hc0mPqb+janvqLAEi36J8191OlZpxwcCAwEAAaOByzCByDAdBgNVHQ4E
FgQUP+5RaTokCdYmPKQIIh8Nd33V5zswHwYDVR0jBBgwFoAUZG/CbmQYICT2Aqmv
YyMB7cxpm+AwNwYIKwYBBQUHAQEEKzApMCcGCCsGAQUFBzAChhtodHRwOi8vdXJs
LWZvci1haWEvUm9vdC5jZXIwLAYDVR0fBCUwIzAhoB+gHYYbaHR0cDovL3VybC1m
b3ItY3JsL1Jvb3QuY3JsMA4GA1UdDwEB/wQEAwIBBjAPBgNVHRMBAf8EBTADAQH/
MA0GCSqGSIb3DQEBCwUAA4IBAQB5eeUrRf9G/szoDORvhiuRoYg9JEZYr4YdCPpD
Go8Wsof8dixDnz6zpxdAPOdoTdHLdA0rB3owWUvllpmXDXaBuzs1VkuehzW3cht9
Dlqv0I/HTwHgI8kop/kNweewxl0/dPxfcgTmxTtdAPC9boHwFVfQbGgAtVVbztBB
G737qfqkOe1wX+68NYZAAToM7B2OGDIIsZzyIvcAqq6sowRTbPWozIadASzG8VBZ
iVLw4f/Cei+2JcL1sg13nn4K2ucvf0n5grMBv4Zj+e1fgrRIFjhW3iqq7fQfH7u6
cXFWwFLKtBQFD5zv8lv8mjPSKJDvufZpgzHs0fVSCB0KDh3t
-----END CERTIFICATE-----

Certificate:
    Data:
        Version: 3 (0x2)
        Serial Number:
            66:63:f9:27:23:34:d5:b4:a6:e3:b2:e1:3f:8c:39:ed:fb:cd:58:fc
        Signature Algorithm: sha256WithRSAEncryption
        Issuer: CN=BogusRoot
        Validity
            Not Before: Nov  3 12:00:00 2020 GMT
            Not After : Nov  3 12:00:00 2021 GMT
        Subject: CN=BogusRoot
        Subject Public Key Info:
            Public Key Algorithm: rsaEncryption
                RSA Public-Key: (2048 bit)
                Modulus:
                    00:b8:c8:2f:dc:30:b5:3e:65:02:31:fe:76:d5:cf:
                    18:49:18:9a:99:63:02:ea:1f:9c:fc:34:05:04:f5:
                    dc:94:15:48:0c:0b:c0:18:b9:0f:a5:a0:8f:66:27:
                    02:0b:a9:33:0f:a8:27:d7:61:d7:77:7e:d5:ab:db:
                    d4:a0:32:d0:40:9b:66:91:5b:ec:07:df:67:13:14:
                    71:1f:21:98:d8:89:ae:15:dd:68:07:3d:3b:62:5c:
                    34:f8:e8:39:da:2a:23:01:6a:09:a7:91:a1:c1:94:
                    ab:ba:42:7f:24:20:57:c8:67:2a:d6:cf:24:7b:b6:
                    14:ad:69:61:c5:50:6b:6b:d2:77:0c:0c:6e:30:df:
                    2b:e8:c4:de:89:a9:94:bf:8d:70:4e:ee:e1:5d:0f:
                    11:0f:80:71:3d:67:90:59:c5:c7:d6:8b:6a:29:7d:
                    8a:43:7a:98:0d:75:83:db:3c:09:27:19:12:77:99:
                    2c:2b:a2:94:dc:7d:78:41:e2:4a:9a:31:f4:fa:8b:
                    ef:d3:d3:42:dd:1d:a5:be:5d:2f:1c:9c:33:4f:7d:
                    c8:bd:12:eb:18:cd:e0:80:d5:7a:1a:2d:93:fc:1f:
                    59:8e:72:f8:e5:21:e1:f2:fe:b7:6a:c1:e1:39:20:
                    26:60:98:fd:02:f0:5b:a2:6d:13:c7:15:20:9b:ef:
                    d5:31
                Exponent: 65537 (0x10001)
        X509v3 extensions:
            X509v3 Subject Key Identifier: 
                6F:BD:F8:37:8B:1D:B5:1A:91:4C:D6:08:E8:33:85:8C:08:E9:3E:63
            X509v3 Authority Key Identifier: 
                keyid:6F:BD:F8:37:8B:1D:B5:1A:91:4C:D6:08:E8:33:85:8C:08:E9:3E:63

            Authority Information Access: 
                CA Issuers - URI:http://url-for-aia/BogusRoot.cer

            X509v3 CRL Distribution Points: 

                Full Name:
                  URI:http://url-for-crl/BogusRoot.crl

            X509v3 Key Usage: critical
                Certificate Sign, CRL Sign
            X509v3 Basic Constraints: critical
                CA:TRUE
    Signature Algorithm: sha256WithRSAEncryption
         5b:33:b1:e0:e9:ac:c3:ec:c6:fe:4b:9b:27:6b:4f:7e:e4:7d:
         85:78:78:5e:f0:48:91:44:66:ba:66:9a:4e:bc:af:9f:5a:6c:
         4a:c7:9e:b3:c3:ce:b4:3e:af:48:08:62:fa:e8:71:b8:ca:c8:
         76:98:fb:c3:e8:cc:a9:a7:52:e4:2f:97:e9:5b:ea:64:55:fd:
         4f:7d:88:28:f0:1a:89:4a:a5:48:a9:50:79:8c:54:04:6a:d5:
         c7:0d:5f:b5:b7:89:02:be:49:f4:b2:08:3b:ac:64:cc:6a:23:
         8a:52:60:29:e4:5e:73:37:13:ce:84:c4:10:a6:5a:ad:2b:91:
         04:2c:b9:8a:a5:bf:0e:89:bf:1b:d4:11:84:00:f1:97:e1:68:
         05:e3:3a:79:20:54:3a:f0:f0:65:7a:0f:bc:57:b9:47:d8:55:
         e6:79:7c:26:e2:16:45:ef:77:d5:b0:d3:fb:9b:81:99:42:61:
         1e:33:50:1c:26:4d:14:7e:77:fb:ac:a6:dc:97:24:db:d0:b4:
         d4:94:51:79:b9:2b:0d:f6:11:41:b9:74:35:cb:22:63:94:2d:
         e3:ad:c1:4c:92:b9:7a:39:0f:62:01:64:42:26:51:0a:3c:8a:
         70:db:0e:a7:1b:55:74:ff:1d:28:73:8a:7a:93:30:aa:cd:01:
         d6:fd:2a:93
-----BEGIN CERTIFICATE-----
MIIDjDCCAnSgAwIBAgIUZmP5JyM01bSm47LhP4w57fvNWPwwDQYJKoZIhvcNAQEL
BQAwFDESMBAGA1UEAwwJQm9ndXNSb290MB4XDTIwMTEwMzEyMDAwMFoXDTIxMTEw
MzEyMDAwMFowFDESMBAGA1UEAwwJQm9ndXNSb290MIIBIjANBgkqhkiG9w0BAQEF
AAOCAQ8AMIIBCgKCAQEAuMgv3DC1PmUCMf521c8YSRiamWMC6h+c/DQFBPXclBVI
DAvAGLkPpaCPZicCC6kzD6gn12HXd37Vq9vUoDLQQJtmkVvsB99nExRxHyGY2Imu
Fd1oBz07Ylw0+Og52iojAWoJp5GhwZSrukJ/JCBXyGcq1s8ke7YUrWlhxVBra9J3
DAxuMN8r6MTeiamUv41wTu7hXQ8RD4BxPWeQWcXH1otqKX2KQ3qYDXWD2zwJJxkS
d5ksK6KU3H14QeJKmjH0+ovv09NC3R2lvl0vHJwzT33IvRLrGM3ggNV6Gi2T/B9Z
jnL45SHh8v63asHhOSAmYJj9AvBbom0TxxUgm+/VMQIDAQABo4HVMIHSMB0GA1Ud
DgQWBBRvvfg3ix21GpFM1gjoM4WMCOk+YzAfBgNVHSMEGDAWgBRvvfg3ix21GpFM
1gjoM4WMCOk+YzA8BggrBgEFBQcBAQQwMC4wLAYIKwYBBQUHMAKGIGh0dHA6Ly91
cmwtZm9yLWFpYS9Cb2d1c1Jvb3QuY2VyMDEGA1UdHwQqMCgwJqAkoCKGIGh0dHA6
Ly91cmwtZm9yLWNybC9Cb2d1c1Jvb3QuY3JsMA4GA1UdDwEB/wQEAwIBBjAPBgNV
HRMBAf8EBTADAQH/MA0GCSqGSIb3DQEBCwUAA4IBAQBbM7Hg6azD7Mb+S5sna09+
5H2FeHhe8EiRRGa6ZppOvK+fWmxKx56zw860Pq9ICGL66HG4ysh2mPvD6Mypp1Lk
L5fpW+pkVf1PfYgo8BqJSqVIqVB5jFQEatXHDV+1t4kCvkn0sgg7rGTMaiOKUmAp
5F5zNxPOhMQQplqtK5EELLmKpb8Oib8b1BGEAPGX4WgF4zp5IFQ68PBleg+8V7lH
2FXmeXwm4hZF73fVsNP7m4GZQmEeM1AcJk0Ufnf7rKbclyTb0LTUlFF5uSsN9hFB
uXQ1yyJjlC3jrcFMkrl6OQ9iAWRCJlEKPIpw2w6nG1V0/x0oc4p6kzCqzQHW/SqT
-----END CERTIFICATE-----
