[Created by: generate-chains.py]

Certificate chain where the supposed root certificate is wrong:

  * The intermediate's "issuer" does not match the root's "subject"
  * The intermediate's signature was not generated using the root's key


Certificate:
    Data:
        Version: 3 (0x2)
        Serial Number:
            6f:d4:ce:21:aa:ed:06:7b:56:9b:0b:40:d4:28:fb:ff:a9:d9:2b:9b
        Signature Algorithm: sha256WithRSAEncryption
        Issuer: CN=Intermediate
        Validity
            Not Before: Oct  5 12:00:00 2022 GMT
            Not After : Oct  5 12:00:00 2023 GMT
        Subject: CN=Target
        Subject Public Key Info:
            Public Key Algorithm: rsaEncryption
                Public-Key: (2048 bit)
                Modulus:
                    00:b3:d8:e1:c8:d6:ce:ed:3b:b7:8a:5b:17:c2:9e:
                    0c:04:f4:4e:ba:ad:1b:cf:c0:63:b7:c9:01:e9:7a:
                    28:d4:d8:0b:71:36:af:02:f6:44:fc:ce:5e:84:50:
                    fb:5f:ef:a0:b8:b5:77:62:c0:6c:9f:8f:4f:64:52:
                    67:04:0b:d3:92:31:a5:79:f3:8d:11:03:03:a2:c0:
                    da:ef:8f:b5:68:f8:55:f0:ac:9b:05:3a:df:ea:7b:
                    3b:06:f2:de:e3:b2:c5:27:3e:b9:39:90:c0:27:0d:
                    de:6c:a2:8e:e4:2e:f9:95:13:37:df:20:12:28:ae:
                    82:5e:91:3a:cb:75:ae:55:fb:07:d6:40:48:cd:6f:
                    9c:3e:07:0f:48:d1:8f:ba:db:fa:b2:7c:ce:29:10:
                    e0:6b:48:36:80:db:4c:10:19:a1:28:fb:e0:b5:4f:
                    b2:89:40:b7:6b:9a:af:a1:9b:b0:52:03:23:16:fb:
                    0f:5d:c6:c9:f2:98:08:c5:07:85:76:30:57:46:be:
                    85:46:ed:14:74:60:00:61:ce:f7:88:62:6c:0b:a2:
                    41:9c:5a:27:3f:e5:29:9c:36:73:a3:04:8b:ab:74:
                    2d:1e:f5:96:f7:b4:c2:51:77:a9:9c:ef:ac:fd:bc:
                    aa:cf:ba:98:cf:6c:1b:fc:e9:20:8c:dc:17:45:49:
                    12:45
                Exponent: 65537 (0x10001)
        X509v3 extensions:
            X509v3 Subject Key Identifier: 
                14:7E:08:D5:73:67:A9:9C:5B:C1:26:14:D1:96:8E:09:88:11:32:67
            X509v3 Authority Key Identifier: 
                3F:EE:51:69:3A:24:09:D6:26:3C:A4:08:22:1F:0D:77:7D:D5:E7:3B
            Authority Information Access: 
                CA Issuers - URI:http://url-for-aia/Intermediate.cer
            X509v3 CRL Distribution Points: 
                Full Name:
                  URI:http://url-for-crl/Intermediate.crl
            X509v3 Key Usage: critical
                Digital Signature, Key Encipherment
            X509v3 Extended Key Usage: 
                TLS Web Server Authentication, TLS Web Client Authentication
    Signature Algorithm: sha256WithRSAEncryption
    Signature Value:
        56:ae:c3:f6:2c:50:a8:24:f2:27:8c:eb:f3:a7:fe:13:fe:85:
        9a:90:5c:d4:3e:4d:fb:bd:6a:b2:bf:ee:92:02:ce:aa:d1:9a:
        f5:c3:1e:ae:4f:7d:ee:8f:11:88:34:f7:40:92:86:12:28:ae:
        16:2b:3a:61:c6:bb:79:62:e1:48:c3:ca:9a:9b:de:91:eb:af:
        dc:77:d7:32:77:5f:44:2d:42:00:5a:e8:ce:4b:11:ee:82:fe:
        70:f1:79:78:71:22:e6:4c:f5:ff:3f:ef:f2:3d:2f:1a:c5:f8:
        ca:d7:64:48:73:ed:5b:b6:53:0c:1f:75:d4:f8:02:c1:04:fb:
        31:08:c6:a6:28:77:8b:a6:5b:a4:f1:b7:74:9d:aa:86:1e:7d:
        45:79:9e:61:2b:7f:b6:ca:a2:23:8f:f2:e6:0f:e8:9b:50:15:
        4d:41:1d:b3:d4:db:94:a9:4e:04:c7:0c:48:81:d9:23:97:1b:
        6d:2b:7c:16:d5:7e:31:e7:f9:31:b4:46:26:f0:ae:fe:79:25:
        12:eb:a9:49:62:8d:0f:b2:40:86:98:57:43:c4:06:96:77:bd:
        ba:57:26:da:79:b6:3c:97:fd:02:3c:d4:21:ac:15:d0:98:4d:
        c0:94:0e:3b:d8:f5:46:53:aa:5c:7b:ef:a5:63:6e:da:26:dc:
        80:93:f7:42
-----BEGIN CERTIFICATE-----
MIIDoDCCAoigAwIBAgIUb9TOIartBntWmwtA1Cj7/6nZK5swDQYJKoZIhvcNAQEL
BQAwFzEVMBMGA1UEAwwMSW50ZXJtZWRpYXRlMB4XDTIyMTAwNTEyMDAwMFoXDTIz
MTAwNTEyMDAwMFowETEPMA0GA1UEAwwGVGFyZ2V0MIIBIjANBgkqhkiG9w0BAQEF
AAOCAQ8AMIIBCgKCAQEAs9jhyNbO7Tu3ilsXwp4MBPROuq0bz8Bjt8kB6Xoo1NgL
cTavAvZE/M5ehFD7X++guLV3YsBsn49PZFJnBAvTkjGlefONEQMDosDa74+1aPhV
8KybBTrf6ns7BvLe47LFJz65OZDAJw3ebKKO5C75lRM33yASKK6CXpE6y3WuVfsH
1kBIzW+cPgcPSNGPutv6snzOKRDga0g2gNtMEBmhKPvgtU+yiUC3a5qvoZuwUgMj
FvsPXcbJ8pgIxQeFdjBXRr6FRu0UdGAAYc73iGJsC6JBnFonP+UpnDZzowSLq3Qt
HvWW97TCUXepnO+s/byqz7qYz2wb/OkgjNwXRUkSRQIDAQABo4HpMIHmMB0GA1Ud
DgQWBBQUfgjVc2epnFvBJhTRlo4JiBEyZzAfBgNVHSMEGDAWgBQ/7lFpOiQJ1iY8
pAgiHw13fdXnOzA/BggrBgEFBQcBAQQzMDEwLwYIKwYBBQUHMAKGI2h0dHA6Ly91
cmwtZm9yLWFpYS9JbnRlcm1lZGlhdGUuY2VyMDQGA1UdHwQtMCswKaAnoCWGI2h0
dHA6Ly91cmwtZm9yLWNybC9JbnRlcm1lZGlhdGUuY3JsMA4GA1UdDwEB/wQEAwIF
oDAdBgNVHSUEFjAUBggrBgEFBQcDAQYIKwYBBQUHAwIwDQYJKoZIhvcNAQELBQAD
ggEBAFauw/YsUKgk8ieM6/On/hP+hZqQXNQ+Tfu9arK/7pICzqrRmvXDHq5Pfe6P
EYg090CShhIorhYrOmHGu3li4UjDypqb3pHrr9x31zJ3X0QtQgBa6M5LEe6C/nDx
eXhxIuZM9f8/7/I9LxrF+MrXZEhz7Vu2UwwfddT4AsEE+zEIxqYod4umW6Txt3Sd
qoYefUV5nmErf7bKoiOP8uYP6JtQFU1BHbPU25SpTgTHDEiB2SOXG20rfBbVfjHn
+TG0Ribwrv55JRLrqUlijQ+yQIaYV0PEBpZ3vbpXJtp5tjyX/QI81CGsFdCYTcCU
DjvY9UZTqlx776Vjbtom3ICT90I=
-----END CERTIFICATE-----

Certificate:
    Data:
        Version: 3 (0x2)
        Serial Number:
            3e:47:c8:ca:0d:d0:ba:cc:83:24:aa:c4:09:b2:53:44:d2:da:f7:4b
        Signature Algorithm: sha256WithRSAEncryption
        Issuer: CN=Root
        Validity
            Not Before: Oct  5 12:00:00 2022 GMT
            Not After : Oct  5 12:00:00 2023 GMT
        Subject: CN=Intermediate
        Subject Public Key Info:
            Public Key Algorithm: rsaEncryption
                Public-Key: (2048 bit)
                Modulus:
                    00:e4:40:ac:b5:f3:c7:b0:dc:ca:07:85:b4:fa:5f:
                    0d:28:a4:0d:88:12:cb:05:a3:4f:bb:7d:01:88:de:
                    0c:b3:b9:0c:cc:3f:b4:6e:9f:d6:b6:a7:2a:6b:03:
                    c5:bc:3b:10:17:69:fd:29:5c:d3:fd:38:fe:b6:5e:
                    b2:04:8f:10:93:92:aa:db:76:07:a2:60:0f:3e:07:
                    bb:8d:f1:ca:c8:f3:38:69:61:38:41:4e:69:2d:70:
                    c2:ed:af:85:81:99:dc:8e:65:03:45:32:9b:01:95:
                    7c:d5:c0:90:bd:f4:08:a5:44:4b:e5:a2:e7:fe:17:
                    e4:f3:3d:59:35:8e:6d:3b:70:4d:b8:49:ac:63:ff:
                    3e:d4:71:36:e9:2b:50:c9:5c:bc:bb:b0:c6:1b:c4:
                    0a:01:ec:ae:3f:b7:bd:10:57:08:5e:ec:8a:07:ce:
                    e5:da:46:25:e8:ca:0a:e0:c2:cc:0d:44:84:db:0c:
                    88:d5:0f:65:bc:ea:69:10:ba:dc:93:ef:34:f9:2f:
                    c7:9b:c5:49:27:72:9c:a3:fd:40:9c:49:e3:59:7c:
                    24:cc:99:9a:01:b6:0d:fb:41:cb:36:80:41:88:c7:
                    75:9f:d5:01:6f:63:d5:f5:75:85:cd:26:3e:a6:fe:
                    8d:a9:ef:a8:b0:04:8b:7e:89:f3:5f:75:3a:56:69:
                    c7:07
                Exponent: 65537 (0x10001)
        X509v3 extensions:
            X509v3 Subject Key Identifier: 
                3F:EE:51:69:3A:24:09:D6:26:3C:A4:08:22:1F:0D:77:7D:D5:E7:3B
            X509v3 Authority Key Identifier: 
                64:6F:C2:6E:64:18:20:24:F6:02:A9:AF:63:23:01:ED:CC:69:9B:E0
            Authority Information Access: 
                CA Issuers - URI:http://url-for-aia/Root.cer
            X509v3 CRL Distribution Points: 
                Full Name:
                  URI:http://url-for-crl/Root.crl
            X509v3 Key Usage: critical
                Certificate Sign, CRL Sign
            X509v3 Basic Constraints: critical
                CA:TRUE
    Signature Algorithm: sha256WithRSAEncryption
    Signature Value:
        17:0a:3b:e7:2e:fd:92:8a:ac:61:73:c7:77:5b:a7:4f:58:c7:
        59:e3:ff:fd:23:a7:9a:42:a9:78:ff:e1:3b:02:09:98:a6:fc:
        d5:b8:e7:63:af:a0:d9:92:21:b3:22:6a:1c:ca:04:38:d3:d6:
        0d:ad:cf:6b:51:6d:4b:0f:1c:1e:06:6d:9b:d4:ce:22:e7:c9:
        be:8a:fd:b7:dc:fa:1a:c1:a6:6c:a8:c0:43:b4:4b:61:e0:1a:
        65:e1:f1:d6:90:db:5c:46:b7:e7:9e:17:c4:c3:c1:48:5a:fe:
        3c:b3:e0:45:11:dd:1f:1c:c0:43:9d:bb:48:82:e5:71:74:9f:
        ef:fb:ff:7b:1c:b5:2c:bd:75:51:8c:84:43:34:d7:28:cf:50:
        aa:cb:41:8c:96:51:8f:98:a6:2d:11:29:86:73:43:63:2b:25:
        fb:30:e0:29:bb:5a:7a:dd:3a:b0:41:fc:48:2f:65:e9:67:0c:
        5b:b7:96:29:7e:d2:f6:e2:c3:ce:8e:04:6d:e2:04:a2:75:5b:
        5b:43:81:b2:37:12:d2:3c:69:55:c4:a9:90:da:c0:1d:f5:76:
        e3:bb:dd:f6:9c:ce:92:24:d1:54:56:13:73:f9:74:35:73:76:
        2d:73:59:6e:a2:1b:93:9f:a4:c4:97:f8:85:38:4f:33:f4:f1:
        87:68:39:29
-----BEGIN CERTIFICATE-----
MIIDgDCCAmigAwIBAgIUPkfIyg3QusyDJKrECbJTRNLa90swDQYJKoZIhvcNAQEL
BQAwDzENMAsGA1UEAwwEUm9vdDAeFw0yMjEwMDUxMjAwMDBaFw0yMzEwMDUxMjAw
MDBaMBcxFTATBgNVBAMMDEludGVybWVkaWF0ZTCCASIwDQYJKoZIhvcNAQEBBQAD
ggEPADCCAQoCggEBAORArLXzx7DcygeFtPpfDSikDYgSywWjT7t9AYjeDLO5DMw/
tG6f1ranKmsDxbw7EBdp/Slc0/04/rZesgSPEJOSqtt2B6JgDz4Hu43xysjzOGlh
OEFOaS1wwu2vhYGZ3I5lA0UymwGVfNXAkL30CKVES+Wi5/4X5PM9WTWObTtwTbhJ
rGP/PtRxNukrUMlcvLuwxhvECgHsrj+3vRBXCF7sigfO5dpGJejKCuDCzA1EhNsM
iNUPZbzqaRC63JPvNPkvx5vFSSdynKP9QJxJ41l8JMyZmgG2DftByzaAQYjHdZ/V
AW9j1fV1hc0mPqb+janvqLAEi36J8191OlZpxwcCAwEAAaOByzCByDAdBgNVHQ4E
FgQUP+5RaTokCdYmPKQIIh8Nd33V5zswHwYDVR0jBBgwFoAUZG/CbmQYICT2Aqmv
YyMB7cxpm+AwNwYIKwYBBQUHAQEEKzApMCcGCCsGAQUFBzAChhtodHRwOi8vdXJs
LWZvci1haWEvUm9vdC5jZXIwLAYDVR0fBCUwIzAhoB+gHYYbaHR0cDovL3VybC1m
b3ItY3JsL1Jvb3QuY3JsMA4GA1UdDwEB/wQEAwIBBjAPBgNVHRMBAf8EBTADAQH/
MA0GCSqGSIb3DQEBCwUAA4IBAQAXCjvnLv2Siqxhc8d3W6dPWMdZ4//9I6eaQql4
/+E7AgmYpvzVuOdjr6DZkiGzImocygQ409YNrc9rUW1LDxweBm2b1M4i58m+iv23
3PoawaZsqMBDtEth4Bpl4fHWkNtcRrfnnhfEw8FIWv48s+BFEd0fHMBDnbtIguVx
dJ/v+/97HLUsvXVRjIRDNNcoz1Cqy0GMllGPmKYtESmGc0NjKyX7MOApu1p63Tqw
QfxIL2XpZwxbt5YpftL24sPOjgRt4gSidVtbQ4GyNxLSPGlVxKmQ2sAd9Xbju932
nM6SJNFUVhNz+XQ1c3Ytc1luohuTn6TEl/iFOE8z9PGHaDkp
-----END CERTIFICATE-----

Certificate:
    Data:
        Version: 3 (0x2)
        Serial Number:
            66:63:f9:27:23:34:d5:b4:a6:e3:b2:e1:3f:8c:39:ed:fb:cd:58:fc
        Signature Algorithm: sha256WithRSAEncryption
        Issuer: CN=BogusRoot
        Validity
            Not Before: Oct  5 12:00:00 2022 GMT
            Not After : Oct  5 12:00:00 2023 GMT
        Subject: CN=BogusRoot
        Subject Public Key Info:
            Public Key Algorithm: rsaEncryption
                Public-Key: (2048 bit)
                Modulus:
                    00:b8:c8:2f:dc:30:b5:3e:65:02:31:fe:76:d5:cf:
                    18:49:18:9a:99:63:02:ea:1f:9c:fc:34:05:04:f5:
                    dc:94:15:48:0c:0b:c0:18:b9:0f:a5:a0:8f:66:27:
                    02:0b:a9:33:0f:a8:27:d7:61:d7:77:7e:d5:ab:db:
                    d4:a0:32:d0:40:9b:66:91:5b:ec:07:df:67:13:14:
                    71:1f:21:98:d8:89:ae:15:dd:68:07:3d:3b:62:5c:
                    34:f8:e8:39:da:2a:23:01:6a:09:a7:91:a1:c1:94:
                    ab:ba:42:7f:24:20:57:c8:67:2a:d6:cf:24:7b:b6:
                    14:ad:69:61:c5:50:6b:6b:d2:77:0c:0c:6e:30:df:
                    2b:e8:c4:de:89:a9:94:bf:8d:70:4e:ee:e1:5d:0f:
                    11:0f:80:71:3d:67:90:59:c5:c7:d6:8b:6a:29:7d:
                    8a:43:7a:98:0d:75:83:db:3c:09:27:19:12:77:99:
                    2c:2b:a2:94:dc:7d:78:41:e2:4a:9a:31:f4:fa:8b:
                    ef:d3:d3:42:dd:1d:a5:be:5d:2f:1c:9c:33:4f:7d:
                    c8:bd:12:eb:18:cd:e0:80:d5:7a:1a:2d:93:fc:1f:
                    59:8e:72:f8:e5:21:e1:f2:fe:b7:6a:c1:e1:39:20:
                    26:60:98:fd:02:f0:5b:a2:6d:13:c7:15:20:9b:ef:
                    d5:31
                Exponent: 65537 (0x10001)
        X509v3 extensions:
            X509v3 Subject Key Identifier: 
                6F:BD:F8:37:8B:1D:B5:1A:91:4C:D6:08:E8:33:85:8C:08:E9:3E:63
            X509v3 Authority Key Identifier: 
                6F:BD:F8:37:8B:1D:B5:1A:91:4C:D6:08:E8:33:85:8C:08:E9:3E:63
            Authority Information Access: 
                CA Issuers - URI:http://url-for-aia/BogusRoot.cer
            X509v3 CRL Distribution Points: 
                Full Name:
                  URI:http://url-for-crl/BogusRoot.crl
            X509v3 Key Usage: critical
                Certificate Sign, CRL Sign
            X509v3 Basic Constraints: critical
                CA:TRUE
    Signature Algorithm: sha256WithRSAEncryption
    Signature Value:
        b8:7a:c4:9c:2b:86:8a:6d:7e:60:cd:fb:2a:c3:f4:10:6c:24:
        07:96:e8:41:d8:81:fe:72:54:99:21:40:89:25:ca:5b:a5:51:
        b3:6e:4e:d2:2f:6e:45:44:ed:56:a5:f7:6d:3c:f6:57:aa:2d:
        f5:ef:b1:6f:d5:89:f0:f6:04:fb:f6:06:9f:c6:4d:9b:71:df:
        64:60:c8:b5:00:94:a7:25:fe:d7:59:52:c1:a6:3c:9e:dd:e7:
        8d:39:86:2a:9a:6a:a4:08:4a:fd:c0:26:85:62:4b:60:03:36:
        12:ea:b6:92:1a:a3:6f:c0:6e:05:95:34:d6:c8:c4:22:77:2f:
        d7:9d:be:03:8c:eb:38:15:15:46:4e:ff:48:a7:7a:3c:8d:8a:
        7d:2f:b8:81:68:52:eb:b7:55:9d:f0:3b:15:09:1b:f5:64:b5:
        d1:35:9e:65:99:d3:32:63:d5:ef:cd:72:96:94:e3:13:56:c2:
        4e:a9:83:52:da:90:b6:19:9b:d9:75:26:49:cf:86:7f:c6:7b:
        e5:eb:97:52:17:d6:3c:04:cf:70:77:23:50:1a:01:64:ba:88:
        ad:ea:fd:3d:71:63:8b:95:86:5f:85:dc:49:da:54:bb:ff:9d:
        25:fa:cd:5e:70:14:f6:cb:25:3b:02:64:21:88:b4:57:35:37:
        94:28:ce:cd
-----BEGIN CERTIFICATE-----
MIIDjDCCAnSgAwIBAgIUZmP5JyM01bSm47LhP4w57fvNWPwwDQYJKoZIhvcNAQEL
BQAwFDESMBAGA1UEAwwJQm9ndXNSb290MB4XDTIyMTAwNTEyMDAwMFoXDTIzMTAw
NTEyMDAwMFowFDESMBAGA1UEAwwJQm9ndXNSb290MIIBIjANBgkqhkiG9w0BAQEF
AAOCAQ8AMIIBCgKCAQEAuMgv3DC1PmUCMf521c8YSRiamWMC6h+c/DQFBPXclBVI
DAvAGLkPpaCPZicCC6kzD6gn12HXd37Vq9vUoDLQQJtmkVvsB99nExRxHyGY2Imu
Fd1oBz07Ylw0+Og52iojAWoJp5GhwZSrukJ/JCBXyGcq1s8ke7YUrWlhxVBra9J3
DAxuMN8r6MTeiamUv41wTu7hXQ8RD4BxPWeQWcXH1otqKX2KQ3qYDXWD2zwJJxkS
d5ksK6KU3H14QeJKmjH0+ovv09NC3R2lvl0vHJwzT33IvRLrGM3ggNV6Gi2T/B9Z
jnL45SHh8v63asHhOSAmYJj9AvBbom0TxxUgm+/VMQIDAQABo4HVMIHSMB0GA1Ud
DgQWBBRvvfg3ix21GpFM1gjoM4WMCOk+YzAfBgNVHSMEGDAWgBRvvfg3ix21GpFM
1gjoM4WMCOk+YzA8BggrBgEFBQcBAQQwMC4wLAYIKwYBBQUHMAKGIGh0dHA6Ly91
cmwtZm9yLWFpYS9Cb2d1c1Jvb3QuY2VyMDEGA1UdHwQqMCgwJqAkoCKGIGh0dHA6
Ly91cmwtZm9yLWNybC9Cb2d1c1Jvb3QuY3JsMA4GA1UdDwEB/wQEAwIBBjAPBgNV
HRMBAf8EBTADAQH/MA0GCSqGSIb3DQEBCwUAA4IBAQC4esScK4aKbX5gzfsqw/QQ
bCQHluhB2IH+clSZIUCJJcpbpVGzbk7SL25FRO1WpfdtPPZXqi3177Fv1Ynw9gT7
9gafxk2bcd9kYMi1AJSnJf7XWVLBpjye3eeNOYYqmmqkCEr9wCaFYktgAzYS6raS
GqNvwG4FlTTWyMQidy/Xnb4DjOs4FRVGTv9Ip3o8jYp9L7iBaFLrt1Wd8DsVCRv1
ZLXRNZ5lmdMyY9XvzXKWlOMTVsJOqYNS2pC2GZvZdSZJz4Z/xnvl65dSF9Y8BM9w
dyNQGgFkuoit6v09cWOLlYZfhdxJ2lS7/50l+s1ecBT2yyU7AmQhiLRXNTeUKM7N
-----END CERTIFICATE-----
