[Created by: generate-chains.py]

Certificate chain where the intermediate sets pathlen=0, however
violates this by issuing another (non-self-issued) intermediate.

Certificate:
    Data:
        Version: 3 (0x2)
        Serial Number:
            6c:9c:41:88:f3:dd:f7:23:b5:c4:3d:82:f4:20:ea:b9:2e:9e:c5:ef
        Signature Algorithm: sha256WithRSAEncryption
        Issuer: CN=Intermediate2
        Validity
            Not Before: Nov  3 12:00:00 2020 GMT
            Not After : Nov  3 12:00:00 2021 GMT
        Subject: CN=Target
        Subject Public Key Info:
            Public Key Algorithm: rsaEncryption
                RSA Public-Key: (2048 bit)
                Modulus:
                    00:c6:80:ed:2c:42:bf:ef:7c:65:e7:f7:d5:37:8f:
                    b8:ed:bf:09:be:83:b5:22:ba:8d:8e:5f:63:cb:98:
                    69:ba:fc:79:a6:2c:02:70:b2:11:49:24:32:59:6a:
                    10:ec:da:8a:fa:51:27:d2:95:a6:08:03:1d:39:20:
                    61:4b:c0:a0:f3:54:1a:53:f4:53:34:42:66:af:d3:
                    08:5c:0e:ab:ca:c5:97:1f:76:60:0d:5c:06:56:96:
                    42:a6:73:fc:63:0b:e9:02:a2:64:7b:18:4e:6d:7e:
                    88:b9:65:bf:52:bb:e5:57:ee:af:81:54:b0:6f:b3:
                    c5:22:da:9c:7d:40:d1:86:01:9d:db:37:be:91:50:
                    94:9b:a8:7e:d9:54:32:81:50:fd:14:54:6a:a3:8b:
                    b5:2c:1e:c0:9a:a8:de:fc:96:f5:1a:ca:97:70:60:
                    79:94:5e:67:e8:90:fe:c3:68:63:f0:5d:64:e5:ec:
                    89:a7:75:61:0c:68:2a:fe:b0:d3:85:17:0b:5e:f9:
                    1b:ff:1b:7e:f4:52:ff:20:56:0f:7b:50:15:db:96:
                    77:3c:09:4e:98:2b:c7:8e:55:bb:59:7c:52:b7:6e:
                    45:20:d7:b6:c7:7e:4f:71:d7:dd:e6:b9:58:04:60:
                    2a:e4:40:64:5e:2c:8e:30:96:bc:84:db:42:b9:66:
                    8b:95
                Exponent: 65537 (0x10001)
        X509v3 extensions:
            X509v3 Subject Key Identifier: 
                34:29:52:19:D8:05:D8:C6:BF:24:AE:2A:40:05:81:8A:A8:86:D0:CC
            X509v3 Authority Key Identifier: 
                keyid:B3:4F:7C:A1:46:15:63:82:54:3A:AF:D2:F7:40:56:21:7B:14:44:51

            Authority Information Access: 
                CA Issuers - URI:http://url-for-aia/Intermediate2.cer

            X509v3 CRL Distribution Points: 

                Full Name:
                  URI:http://url-for-crl/Intermediate2.crl

            X509v3 Key Usage: critical
                Digital Signature, Key Encipherment
            X509v3 Extended Key Usage: 
                TLS Web Server Authentication, TLS Web Client Authentication
    Signature Algorithm: sha256WithRSAEncryption
         38:c9:1e:a9:86:5b:2d:1d:1b:2d:2c:bd:c7:5d:ce:6a:55:71:
         02:76:a1:1e:78:d4:08:d1:1b:56:9a:ae:31:30:32:4c:5b:b0:
         de:ef:13:d5:dc:d3:49:fd:52:28:7c:24:5e:47:31:81:40:c8:
         e2:22:e7:c7:43:11:bd:d8:ba:f8:e1:06:d3:be:eb:06:4d:e4:
         23:ff:31:ab:0c:3f:7a:44:27:b6:49:60:74:dd:c1:a1:a9:ea:
         2d:7a:19:7f:c5:d6:96:7f:95:5a:f5:80:16:e5:e9:d9:b3:31:
         29:3d:e1:ed:57:68:67:bf:dd:bc:14:07:55:92:de:37:88:14:
         54:ed:54:e8:1c:55:43:45:a8:26:bc:53:ff:af:09:05:c2:d5:
         08:3f:5d:a9:90:80:f0:3b:42:8e:e9:f0:5c:97:78:86:8a:1e:
         b1:e3:b1:d7:13:f3:40:d1:7f:a9:c1:f1:fd:57:2f:df:69:52:
         a6:36:2e:e7:dd:0e:b8:43:d3:33:6b:92:75:3b:71:bd:57:ba:
         f3:7e:6b:43:8e:6a:48:99:b5:17:36:e6:ae:6d:04:04:81:fd:
         48:cc:5a:e1:93:b1:9a:dc:f9:91:00:4b:96:85:cd:c1:e1:15:
         f1:6f:1f:82:de:b8:25:46:f1:8b:85:eb:0e:e8:7b:c0:f2:64:
         19:1a:d2:56
-----BEGIN CERTIFICATE-----
MIIDozCCAougAwIBAgIUbJxBiPPd9yO1xD2C9CDquS6exe8wDQYJKoZIhvcNAQEL
BQAwGDEWMBQGA1UEAwwNSW50ZXJtZWRpYXRlMjAeFw0yMDExMDMxMjAwMDBaFw0y
MTExMDMxMjAwMDBaMBExDzANBgNVBAMMBlRhcmdldDCCASIwDQYJKoZIhvcNAQEB
BQADggEPADCCAQoCggEBAMaA7SxCv+98Zef31TePuO2/Cb6DtSK6jY5fY8uYabr8
eaYsAnCyEUkkMllqEOzaivpRJ9KVpggDHTkgYUvAoPNUGlP0UzRCZq/TCFwOq8rF
lx92YA1cBlaWQqZz/GML6QKiZHsYTm1+iLllv1K75Vfur4FUsG+zxSLanH1A0YYB
nds3vpFQlJuoftlUMoFQ/RRUaqOLtSwewJqo3vyW9RrKl3BgeZReZ+iQ/sNoY/Bd
ZOXsiad1YQxoKv6w04UXC175G/8bfvRS/yBWD3tQFduWdzwJTpgrx45Vu1l8Urdu
RSDXtsd+T3HX3ea5WARgKuRAZF4sjjCWvITbQrlmi5UCAwEAAaOB6zCB6DAdBgNV
HQ4EFgQUNClSGdgF2Ma/JK4qQAWBiqiG0MwwHwYDVR0jBBgwFoAUs098oUYVY4JU
Oq/S90BWIXsURFEwQAYIKwYBBQUHAQEENDAyMDAGCCsGAQUFBzAChiRodHRwOi8v
dXJsLWZvci1haWEvSW50ZXJtZWRpYXRlMi5jZXIwNQYDVR0fBC4wLDAqoCigJoYk
aHR0cDovL3VybC1mb3ItY3JsL0ludGVybWVkaWF0ZTIuY3JsMA4GA1UdDwEB/wQE
AwIFoDAdBgNVHSUEFjAUBggrBgEFBQcDAQYIKwYBBQUHAwIwDQYJKoZIhvcNAQEL
BQADggEBADjJHqmGWy0dGy0svcddzmpVcQJ2oR541AjRG1aarjEwMkxbsN7vE9Xc
00n9Uih8JF5HMYFAyOIi58dDEb3YuvjhBtO+6wZN5CP/MasMP3pEJ7ZJYHTdwaGp
6i16GX/F1pZ/lVr1gBbl6dmzMSk94e1XaGe/3bwUB1WS3jeIFFTtVOgcVUNFqCa8
U/+vCQXC1Qg/XamQgPA7Qo7p8FyXeIaKHrHjsdcT80DRf6nB8f1XL99pUqY2Lufd
DrhD0zNrknU7cb1XuvN+a0OOakiZtRc25q5tBASB/UjMWuGTsZrc+ZEAS5aFzcHh
FfFvH4LeuCVG8YuF6w7oe8DyZBka0lY=
-----END CERTIFICATE-----

Certificate:
    Data:
        Version: 3 (0x2)
        Serial Number:
            17:8c:9b:75:3d:af:a1:29:c3:af:35:d8:95:1a:c4:3f:ab:fb:b8:e8
        Signature Algorithm: sha256WithRSAEncryption
        Issuer: CN=Intermediate1
        Validity
            Not Before: Nov  3 12:00:00 2020 GMT
            Not After : Nov  3 12:00:00 2021 GMT
        Subject: CN=Intermediate2
        Subject Public Key Info:
            Public Key Algorithm: rsaEncryption
                RSA Public-Key: (2048 bit)
                Modulus:
                    00:a5:da:13:9b:86:a9:21:3f:1b:20:2d:25:a0:65:
                    28:27:5c:0c:2c:f5:ff:28:2a:4c:5c:63:4a:08:c6:
                    90:06:55:13:54:d9:6d:c4:83:64:22:c0:1c:40:b1:
                    c9:f5:64:af:1d:cf:55:74:02:e8:97:af:3b:fe:ba:
                    32:f9:3a:10:79:6f:5b:81:b8:cf:d6:25:3b:36:7f:
                    fb:17:a4:75:32:96:d3:b5:c5:97:87:8f:cd:63:e7:
                    0f:28:3c:8e:0a:1e:46:91:a9:64:8b:70:7c:c8:ef:
                    b1:fa:82:50:2f:56:5c:17:b3:18:b9:4b:26:e2:a5:
                    53:a8:27:a0:b7:d0:61:12:93:a7:5f:9a:1d:41:5c:
                    53:c3:29:bd:96:44:8d:a6:1f:f9:e7:74:13:5a:84:
                    e3:3c:a5:41:cd:e9:86:72:c2:12:ea:2a:78:76:f8:
                    88:93:f6:8a:d0:de:3e:b0:33:a0:96:fa:40:cb:c0:
                    e0:49:4d:c1:e8:46:40:b3:7f:a3:e5:01:d3:4e:9b:
                    e0:6c:21:6e:4a:d3:d6:e5:0c:1b:e1:1d:39:54:ca:
                    35:4f:2a:1a:b0:b3:66:40:4e:f7:e9:72:70:f4:70:
                    83:c6:81:12:bd:c9:c3:cc:53:95:fa:e4:21:74:f5:
                    1e:f6:69:1c:42:6b:ba:ec:b5:83:33:41:7b:72:b8:
                    a4:9f
                Exponent: 65537 (0x10001)
        X509v3 extensions:
            X509v3 Subject Key Identifier: 
                B3:4F:7C:A1:46:15:63:82:54:3A:AF:D2:F7:40:56:21:7B:14:44:51
            X509v3 Authority Key Identifier: 
                keyid:78:A0:50:E7:F0:D8:50:C1:A8:AE:40:CC:35:8A:73:B1:2C:78:51:4A

            Authority Information Access: 
                CA Issuers - URI:http://url-for-aia/Intermediate1.cer

            X509v3 CRL Distribution Points: 

                Full Name:
                  URI:http://url-for-crl/Intermediate1.crl

            X509v3 Key Usage: critical
                Certificate Sign, CRL Sign
            X509v3 Basic Constraints: critical
                CA:TRUE, pathlen:0
    Signature Algorithm: sha256WithRSAEncryption
         34:8b:39:8d:b3:7d:4b:28:b0:ea:17:f2:ee:fe:00:9d:b3:f6:
         e6:55:40:98:cd:20:23:1e:28:ae:04:eb:82:0a:9e:b1:f6:ea:
         7a:44:ff:32:8a:e5:13:21:e4:ff:78:77:87:21:40:27:28:84:
         69:a9:b3:e3:7d:c8:14:f4:6a:84:12:84:11:ac:d7:05:d6:c5:
         f5:e2:16:61:93:9a:21:c1:47:6a:78:cf:e9:66:78:3d:5d:48:
         97:30:e1:e9:af:49:1e:17:20:fc:b3:6f:0d:00:aa:e0:37:a9:
         70:da:96:ed:50:4d:8d:9d:48:65:ef:f1:db:98:63:54:03:5c:
         7f:57:4d:da:d1:9c:87:50:54:61:5e:74:e0:5d:9c:5c:04:6c:
         0d:7f:2d:ea:38:d1:cf:93:db:5a:ec:cc:90:e3:48:18:34:85:
         a8:c6:dc:3a:f1:c7:a1:fa:2e:23:e8:60:0d:52:0f:b1:97:f7:
         9f:4e:8d:37:d0:64:71:11:0b:a1:1c:17:fb:a2:05:b3:89:9a:
         48:44:d5:2f:5f:75:75:db:82:dc:18:f2:72:26:1e:c1:38:ab:
         b1:ca:db:50:fe:cb:de:72:ed:33:db:61:18:64:61:8b:3b:70:
         f8:c5:67:c7:13:49:c2:c3:84:da:c6:9d:39:0e:e6:7f:62:0a:
         eb:61:6b:f2
-----BEGIN CERTIFICATE-----
MIIDnzCCAoegAwIBAgIUF4ybdT2voSnDrzXYlRrEP6v7uOgwDQYJKoZIhvcNAQEL
BQAwGDEWMBQGA1UEAwwNSW50ZXJtZWRpYXRlMTAeFw0yMDExMDMxMjAwMDBaFw0y
MTExMDMxMjAwMDBaMBgxFjAUBgNVBAMMDUludGVybWVkaWF0ZTIwggEiMA0GCSqG
SIb3DQEBAQUAA4IBDwAwggEKAoIBAQCl2hObhqkhPxsgLSWgZSgnXAws9f8oKkxc
Y0oIxpAGVRNU2W3Eg2QiwBxAscn1ZK8dz1V0AuiXrzv+ujL5OhB5b1uBuM/WJTs2
f/sXpHUyltO1xZeHj81j5w8oPI4KHkaRqWSLcHzI77H6glAvVlwXsxi5SybipVOo
J6C30GESk6dfmh1BXFPDKb2WRI2mH/nndBNahOM8pUHN6YZywhLqKnh2+IiT9orQ
3j6wM6CW+kDLwOBJTcHoRkCzf6PlAdNOm+BsIW5K09blDBvhHTlUyjVPKhqws2ZA
TvfpcnD0cIPGgRK9ycPMU5X65CF09R72aRxCa7rstYMzQXtyuKSfAgMBAAGjgeAw
gd0wHQYDVR0OBBYEFLNPfKFGFWOCVDqv0vdAViF7FERRMB8GA1UdIwQYMBaAFHig
UOfw2FDBqK5AzDWKc7EseFFKMEAGCCsGAQUFBwEBBDQwMjAwBggrBgEFBQcwAoYk
aHR0cDovL3VybC1mb3ItYWlhL0ludGVybWVkaWF0ZTEuY2VyMDUGA1UdHwQuMCww
KqAooCaGJGh0dHA6Ly91cmwtZm9yLWNybC9JbnRlcm1lZGlhdGUxLmNybDAOBgNV
HQ8BAf8EBAMCAQYwEgYDVR0TAQH/BAgwBgEB/wIBADANBgkqhkiG9w0BAQsFAAOC
AQEANIs5jbN9Syiw6hfy7v4AnbP25lVAmM0gIx4orgTrggqesfbqekT/MorlEyHk
/3h3hyFAJyiEaamz433IFPRqhBKEEazXBdbF9eIWYZOaIcFHanjP6WZ4PV1IlzDh
6a9JHhcg/LNvDQCq4DepcNqW7VBNjZ1IZe/x25hjVANcf1dN2tGch1BUYV504F2c
XARsDX8t6jjRz5PbWuzMkONIGDSFqMbcOvHHofouI+hgDVIPsZf3n06NN9BkcREL
oRwX+6IFs4maSETVL191dduC3BjyciYewTirscrbUP7L3nLtM9thGGRhiztw+MVn
xxNJwsOE2sadOQ7mf2IK62Fr8g==
-----END CERTIFICATE-----

Certificate:
    Data:
        Version: 3 (0x2)
        Serial Number:
            51:a0:bf:32:38:48:73:e8:3d:c1:b2:cc:5c:f8:d9:94:14:a9:2a:db
        Signature Algorithm: sha256WithRSAEncryption
        Issuer: CN=Root
        Validity
            Not Before: Nov  3 12:00:00 2020 GMT
            Not After : Nov  3 12:00:00 2021 GMT
        Subject: CN=Intermediate1
        Subject Public Key Info:
            Public Key Algorithm: rsaEncryption
                RSA Public-Key: (2048 bit)
                Modulus:
                    00:a1:53:d3:7c:15:ee:13:ee:f8:8a:57:2c:76:df:
                    71:f0:10:21:58:fd:6c:9e:02:b8:6b:09:77:40:de:
                    d2:cf:62:8b:5b:9f:29:fe:11:a3:6b:c8:fb:f3:7f:
                    aa:22:13:87:7f:c1:3f:41:40:3f:1b:21:51:ae:5a:
                    03:ae:86:c2:68:7c:8d:3d:1b:0e:d9:62:98:5a:66:
                    d9:3b:8f:88:2a:44:b6:df:c9:2b:1c:78:95:d3:e1:
                    50:7b:18:42:3b:f3:1b:41:bb:48:d9:31:54:6a:d9:
                    ef:7e:8a:a6:fe:ce:bb:5e:f8:13:68:f2:61:be:75:
                    a2:65:5f:d0:c5:87:fa:f6:e1:04:05:2b:50:a0:88:
                    ac:e2:d5:af:b6:83:6b:b8:b3:a0:1a:2d:65:71:5f:
                    67:a6:97:3e:43:a2:5e:80:c5:fe:36:40:34:05:ea:
                    79:31:0a:fa:b9:68:9a:58:f3:28:b6:7a:dd:6a:06:
                    4c:da:76:f5:a5:63:70:8a:27:64:29:87:c1:8b:77:
                    fa:f0:cd:ef:56:a9:4c:7f:14:6d:da:c8:b8:b5:80:
                    8d:df:68:60:61:6f:e3:31:f3:d7:47:8e:0e:58:f0:
                    f1:9f:f1:7e:d4:d9:41:b9:6a:f4:33:4d:f5:7f:ef:
                    d4:b4:91:50:4b:4b:65:d9:8d:de:cc:a4:d3:88:17:
                    ca:3f
                Exponent: 65537 (0x10001)
        X509v3 extensions:
            X509v3 Subject Key Identifier: 
                78:A0:50:E7:F0:D8:50:C1:A8:AE:40:CC:35:8A:73:B1:2C:78:51:4A
            X509v3 Authority Key Identifier: 
                keyid:FB:44:5A:0F:03:A9:3A:3C:75:B4:3E:87:2E:99:99:2E:73:04:0E:0F

            Authority Information Access: 
                CA Issuers - URI:http://url-for-aia/Root.cer

            X509v3 CRL Distribution Points: 

                Full Name:
                  URI:http://url-for-crl/Root.crl

            X509v3 Key Usage: critical
                Certificate Sign, CRL Sign
            X509v3 Basic Constraints: critical
                CA:TRUE, pathlen:0
    Signature Algorithm: sha256WithRSAEncryption
         1e:51:2a:58:0e:a2:4c:12:af:31:72:9f:ae:91:a4:5e:83:d8:
         e7:90:d8:4e:f4:49:3d:98:a1:d4:60:69:6a:ba:44:3a:70:89:
         7b:8f:78:e9:24:28:91:a2:72:eb:40:64:be:68:73:3c:5a:8f:
         06:24:c7:c1:dd:df:b3:1d:dd:fc:a3:42:c0:73:e7:6f:37:7c:
         6a:04:0b:7d:45:14:8f:46:f0:f8:fe:0a:71:07:a7:37:c3:e2:
         a4:33:4d:95:70:07:04:de:7c:96:21:f1:da:5f:39:57:ed:7d:
         5c:5f:6f:a2:ee:8b:54:9c:02:15:b2:78:7a:86:62:56:80:de:
         e4:39:ac:11:10:7b:33:87:18:2a:a5:4a:8e:d7:07:db:c7:e5:
         85:dc:38:4f:6d:f3:32:d6:93:fd:8c:52:6a:8f:52:67:3a:03:
         c8:f8:79:f7:41:bc:60:f7:34:de:d2:4d:aa:86:5e:c1:d3:67:
         81:cf:a5:9c:12:5e:4d:8e:12:d7:83:fd:bf:08:b3:ae:e2:68:
         43:4d:b8:ff:a8:09:dd:97:2a:2c:98:c0:2f:ab:84:1a:ff:fe:
         c9:36:44:0f:ff:27:63:52:9b:9c:98:90:ae:06:20:fb:74:e3:
         5c:22:71:fc:57:b0:ae:86:09:0c:65:73:8a:73:c4:5f:ff:0f:
         38:44:d2:e9
-----BEGIN CERTIFICATE-----
MIIDhDCCAmygAwIBAgIUUaC/MjhIc+g9wbLMXPjZlBSpKtswDQYJKoZIhvcNAQEL
BQAwDzENMAsGA1UEAwwEUm9vdDAeFw0yMDExMDMxMjAwMDBaFw0yMTExMDMxMjAw
MDBaMBgxFjAUBgNVBAMMDUludGVybWVkaWF0ZTEwggEiMA0GCSqGSIb3DQEBAQUA
A4IBDwAwggEKAoIBAQChU9N8Fe4T7viKVyx233HwECFY/WyeArhrCXdA3tLPYotb
nyn+EaNryPvzf6oiE4d/wT9BQD8bIVGuWgOuhsJofI09Gw7ZYphaZtk7j4gqRLbf
ySsceJXT4VB7GEI78xtBu0jZMVRq2e9+iqb+zrte+BNo8mG+daJlX9DFh/r24QQF
K1CgiKzi1a+2g2u4s6AaLWVxX2emlz5Dol6Axf42QDQF6nkxCvq5aJpY8yi2et1q
BkzadvWlY3CKJ2Qph8GLd/rwze9WqUx/FG3ayLi1gI3faGBhb+Mx89dHjg5Y8PGf
8X7U2UG5avQzTfV/79S0kVBLS2XZjd7MpNOIF8o/AgMBAAGjgc4wgcswHQYDVR0O
BBYEFHigUOfw2FDBqK5AzDWKc7EseFFKMB8GA1UdIwQYMBaAFPtEWg8DqTo8dbQ+
hy6ZmS5zBA4PMDcGCCsGAQUFBwEBBCswKTAnBggrBgEFBQcwAoYbaHR0cDovL3Vy
bC1mb3ItYWlhL1Jvb3QuY2VyMCwGA1UdHwQlMCMwIaAfoB2GG2h0dHA6Ly91cmwt
Zm9yLWNybC9Sb290LmNybDAOBgNVHQ8BAf8EBAMCAQYwEgYDVR0TAQH/BAgwBgEB
/wIBADANBgkqhkiG9w0BAQsFAAOCAQEAHlEqWA6iTBKvMXKfrpGkXoPY55DYTvRJ
PZih1GBparpEOnCJe4946SQokaJy60BkvmhzPFqPBiTHwd3fsx3d/KNCwHPnbzd8
agQLfUUUj0bw+P4KcQenN8PipDNNlXAHBN58liHx2l85V+19XF9vou6LVJwCFbJ4
eoZiVoDe5DmsERB7M4cYKqVKjtcH28flhdw4T23zMtaT/YxSao9SZzoDyPh590G8
YPc03tJNqoZewdNngc+lnBJeTY4S14P9vwizruJoQ024/6gJ3ZcqLJjAL6uEGv/+
yTZED/8nY1KbnJiQrgYg+3TjXCJx/FewroYJDGVzinPEX/8POETS6Q==
-----END CERTIFICATE-----

Certificate:
    Data:
        Version: 3 (0x2)
        Serial Number:
            51:a0:bf:32:38:48:73:e8:3d:c1:b2:cc:5c:f8:d9:94:14:a9:2a:da
        Signature Algorithm: sha256WithRSAEncryption
        Issuer: CN=Root
        Validity
            Not Before: Nov  3 12:00:00 2020 GMT
            Not After : Nov  3 12:00:00 2021 GMT
        Subject: CN=Root
        Subject Public Key Info:
            Public Key Algorithm: rsaEncryption
                RSA Public-Key: (2048 bit)
                Modulus:
                    00:92:08:56:82:b9:30:af:14:a4:b9:10:66:49:4d:
                    2a:e7:3c:3b:38:4e:a9:b3:1e:76:0f:32:75:73:d0:
                    d9:c6:21:3a:86:77:01:b7:a9:ec:52:96:d6:01:97:
                    a4:90:f3:63:24:da:ed:9e:57:98:05:ee:e9:22:69:
                    00:02:c6:cf:16:fb:54:7b:00:33:31:2b:0a:cc:c3:
                    54:98:7a:a0:11:c8:45:78:b5:e7:3a:17:7e:4f:5b:
                    a6:e8:97:9f:73:6a:fc:49:38:d7:4b:3c:51:05:e9:
                    aa:a1:0b:a9:f5:86:52:b7:d3:3d:31:ec:ca:82:64:
                    15:f9:8a:e8:8e:c8:f6:88:35:ae:7c:b1:ba:4a:86:
                    07:f0:85:0e:99:6a:30:a9:a4:a8:0c:d5:21:57:e0:
                    cd:95:96:47:22:bf:93:bc:62:78:c2:59:ab:ae:69:
                    12:75:69:11:c0:60:8d:9d:d7:54:6e:e4:4a:44:0d:
                    75:4c:4b:e4:0e:96:69:0c:5a:be:97:fd:5f:29:8a:
                    a8:46:60:10:b8:a3:c5:ae:47:2d:9a:3f:79:1e:90:
                    44:f7:9d:c9:1b:3e:ad:35:45:83:5f:5d:89:c6:24:
                    a7:b5:bf:09:47:22:f8:30:b8:94:34:85:4f:21:89:
                    52:63:fa:db:01:e5:0f:e0:f3:36:97:5d:2e:6c:6c:
                    3d:57
                Exponent: 65537 (0x10001)
        X509v3 extensions:
            X509v3 Subject Key Identifier: 
                FB:44:5A:0F:03:A9:3A:3C:75:B4:3E:87:2E:99:99:2E:73:04:0E:0F
            X509v3 Authority Key Identifier: 
                keyid:FB:44:5A:0F:03:A9:3A:3C:75:B4:3E:87:2E:99:99:2E:73:04:0E:0F

            Authority Information Access: 
                CA Issuers - URI:http://url-for-aia/Root.cer

            X509v3 CRL Distribution Points: 

                Full Name:
                  URI:http://url-for-crl/Root.crl

            X509v3 Key Usage: critical
                Certificate Sign, CRL Sign
            X509v3 Basic Constraints: critical
                CA:TRUE
    Signature Algorithm: sha256WithRSAEncryption
         21:0c:c0:35:b2:15:ae:7d:a2:ba:25:50:68:8d:ca:85:be:15:
         5f:c6:f1:d3:bb:9c:24:b9:08:91:b1:d3:91:a5:d8:0b:52:96:
         2b:8b:01:14:f0:9b:cd:37:ff:79:c1:60:a2:8b:91:96:62:85:
         dd:ed:9a:4d:b9:49:d4:79:25:9f:ae:fc:75:3e:57:7c:81:1e:
         2e:f1:49:77:95:98:1d:0a:de:08:b2:9c:7f:08:d2:e5:3f:21:
         6e:13:71:cd:b1:19:30:1d:32:2f:ff:f1:3c:d6:9e:d9:af:da:
         8c:54:26:18:17:b8:b5:b6:75:bc:6c:00:80:b3:d4:14:ed:be:
         26:be:3e:a7:5f:2d:67:c4:7d:e5:3b:32:54:08:e5:8e:3c:60:
         94:da:ef:44:0e:dc:1f:58:0f:c7:ea:d4:2a:ac:98:f4:6c:f2:
         78:2b:a0:47:50:d8:49:cb:93:05:ed:b3:52:b0:f1:35:80:f6:
         2e:96:ff:19:30:01:b8:b3:7f:ab:dc:62:5f:af:ca:fd:6f:9b:
         33:c1:3f:db:9c:e5:af:5b:91:3f:26:1c:ec:f5:52:c6:12:84:
         1b:63:df:60:8b:01:2a:f7:a0:f7:19:fe:51:8b:92:0f:06:eb:
         6a:c0:8c:16:91:f8:54:8b:c5:40:74:bc:16:af:26:97:51:90:
         c9:73:38:e1
-----BEGIN CERTIFICATE-----
MIIDeDCCAmCgAwIBAgIUUaC/MjhIc+g9wbLMXPjZlBSpKtowDQYJKoZIhvcNAQEL
BQAwDzENMAsGA1UEAwwEUm9vdDAeFw0yMDExMDMxMjAwMDBaFw0yMTExMDMxMjAw
MDBaMA8xDTALBgNVBAMMBFJvb3QwggEiMA0GCSqGSIb3DQEBAQUAA4IBDwAwggEK
AoIBAQCSCFaCuTCvFKS5EGZJTSrnPDs4TqmzHnYPMnVz0NnGITqGdwG3qexSltYB
l6SQ82Mk2u2eV5gF7ukiaQACxs8W+1R7ADMxKwrMw1SYeqARyEV4tec6F35PW6bo
l59zavxJONdLPFEF6aqhC6n1hlK30z0x7MqCZBX5iuiOyPaINa58sbpKhgfwhQ6Z
ajCppKgM1SFX4M2Vlkciv5O8YnjCWauuaRJ1aRHAYI2d11Ru5EpEDXVMS+QOlmkM
Wr6X/V8piqhGYBC4o8WuRy2aP3kekET3nckbPq01RYNfXYnGJKe1vwlHIvgwuJQ0
hU8hiVJj+tsB5Q/g8zaXXS5sbD1XAgMBAAGjgcswgcgwHQYDVR0OBBYEFPtEWg8D
qTo8dbQ+hy6ZmS5zBA4PMB8GA1UdIwQYMBaAFPtEWg8DqTo8dbQ+hy6ZmS5zBA4P
MDcGCCsGAQUFBwEBBCswKTAnBggrBgEFBQcwAoYbaHR0cDovL3VybC1mb3ItYWlh
L1Jvb3QuY2VyMCwGA1UdHwQlMCMwIaAfoB2GG2h0dHA6Ly91cmwtZm9yLWNybC9S
b290LmNybDAOBgNVHQ8BAf8EBAMCAQYwDwYDVR0TAQH/BAUwAwEB/zANBgkqhkiG
9w0BAQsFAAOCAQEAIQzANbIVrn2iuiVQaI3Khb4VX8bx07ucJLkIkbHTkaXYC1KW
K4sBFPCbzTf/ecFgoouRlmKF3e2aTblJ1Hkln678dT5XfIEeLvFJd5WYHQreCLKc
fwjS5T8hbhNxzbEZMB0yL//xPNae2a/ajFQmGBe4tbZ1vGwAgLPUFO2+Jr4+p18t
Z8R95TsyVAjljjxglNrvRA7cH1gPx+rUKqyY9GzyeCugR1DYScuTBe2zUrDxNYD2
Lpb/GTABuLN/q9xiX6/K/W+bM8E/25zlr1uRPyYc7PVSxhKEG2PfYIsBKveg9xn+
UYuSDwbrasCMFpH4VIvFQHS8Fq8ml1GQyXM44Q==
-----END CERTIFICATE-----
