[Created by: generate-chains.py]

Certificate chain where the intermediate sets pathlen=0, however
violates this by issuing another (non-self-issued) intermediate.

Certificate:
    Data:
        Version: 3 (0x2)
        Serial Number:
            6c:9c:41:88:f3:dd:f7:23:b5:c4:3d:82:f4:20:ea:b9:2e:9e:c5:ef
        Signature Algorithm: sha256WithRSAEncryption
        Issuer: CN=Intermediate2
        Validity
            Not Before: Oct  5 12:00:00 2022 GMT
            Not After : Oct  5 12:00:00 2023 GMT
        Subject: CN=Target
        Subject Public Key Info:
            Public Key Algorithm: rsaEncryption
                Public-Key: (2048 bit)
                Modulus:
                    00:c6:80:ed:2c:42:bf:ef:7c:65:e7:f7:d5:37:8f:
                    b8:ed:bf:09:be:83:b5:22:ba:8d:8e:5f:63:cb:98:
                    69:ba:fc:79:a6:2c:02:70:b2:11:49:24:32:59:6a:
                    10:ec:da:8a:fa:51:27:d2:95:a6:08:03:1d:39:20:
                    61:4b:c0:a0:f3:54:1a:53:f4:53:34:42:66:af:d3:
                    08:5c:0e:ab:ca:c5:97:1f:76:60:0d:5c:06:56:96:
                    42:a6:73:fc:63:0b:e9:02:a2:64:7b:18:4e:6d:7e:
                    88:b9:65:bf:52:bb:e5:57:ee:af:81:54:b0:6f:b3:
                    c5:22:da:9c:7d:40:d1:86:01:9d:db:37:be:91:50:
                    94:9b:a8:7e:d9:54:32:81:50:fd:14:54:6a:a3:8b:
                    b5:2c:1e:c0:9a:a8:de:fc:96:f5:1a:ca:97:70:60:
                    79:94:5e:67:e8:90:fe:c3:68:63:f0:5d:64:e5:ec:
                    89:a7:75:61:0c:68:2a:fe:b0:d3:85:17:0b:5e:f9:
                    1b:ff:1b:7e:f4:52:ff:20:56:0f:7b:50:15:db:96:
                    77:3c:09:4e:98:2b:c7:8e:55:bb:59:7c:52:b7:6e:
                    45:20:d7:b6:c7:7e:4f:71:d7:dd:e6:b9:58:04:60:
                    2a:e4:40:64:5e:2c:8e:30:96:bc:84:db:42:b9:66:
                    8b:95
                Exponent: 65537 (0x10001)
        X509v3 extensions:
            X509v3 Subject Key Identifier: 
                34:29:52:19:D8:05:D8:C6:BF:24:AE:2A:40:05:81:8A:A8:86:D0:CC
            X509v3 Authority Key Identifier: 
                B3:4F:7C:A1:46:15:63:82:54:3A:AF:D2:F7:40:56:21:7B:14:44:51
            Authority Information Access: 
                CA Issuers - URI:http://url-for-aia/Intermediate2.cer
            X509v3 CRL Distribution Points: 
                Full Name:
                  URI:http://url-for-crl/Intermediate2.crl
            X509v3 Key Usage: critical
                Digital Signature, Key Encipherment
            X509v3 Extended Key Usage: 
                TLS Web Server Authentication, TLS Web Client Authentication
    Signature Algorithm: sha256WithRSAEncryption
    Signature Value:
        a5:38:9f:0e:67:a4:39:5d:d2:ab:52:bf:e0:28:13:3f:e4:89:
        02:b0:5f:34:42:ca:83:c7:9f:9e:96:6f:d5:55:43:d1:8e:03:
        25:ef:c4:18:d5:0d:f5:24:b3:21:94:82:8a:e8:24:0b:9c:f7:
        40:4b:77:69:d2:96:8f:72:bc:1d:fd:7b:eb:ad:b7:dc:c1:eb:
        e1:ad:7c:66:16:d5:2e:99:e2:99:c8:6f:a5:e4:1d:01:3e:13:
        9b:3c:a3:4f:f2:d4:63:2b:f0:c8:f6:47:79:6d:9c:0c:0d:2f:
        f4:56:8a:78:b1:e2:e8:11:16:ce:92:c8:63:f9:4f:06:aa:92:
        07:17:03:4a:4a:f2:58:f6:f5:67:91:d5:c6:b5:d2:d7:2a:d9:
        bf:4b:23:b6:79:a4:8e:27:c0:12:1b:8f:5d:ba:33:6c:82:a9:
        a1:cd:9c:a2:9d:0b:d8:20:6a:bf:1a:43:bc:11:8a:ea:7e:06:
        6a:f6:d5:d9:61:98:96:7a:9d:79:20:ac:3d:5f:24:3c:14:1a:
        48:7e:17:99:9f:ba:42:a2:60:47:76:f7:e5:ae:ff:ff:42:b3:
        0f:ae:e7:34:d6:e7:e3:58:2a:97:a3:d4:15:39:e2:ff:73:e9:
        14:bc:16:67:5b:cc:6f:15:7d:b9:89:e0:7e:cd:be:ca:89:46:
        72:fe:89:94
-----BEGIN CERTIFICATE-----
MIIDozCCAougAwIBAgIUbJxBiPPd9yO1xD2C9CDquS6exe8wDQYJKoZIhvcNAQEL
BQAwGDEWMBQGA1UEAwwNSW50ZXJtZWRpYXRlMjAeFw0yMjEwMDUxMjAwMDBaFw0y
MzEwMDUxMjAwMDBaMBExDzANBgNVBAMMBlRhcmdldDCCASIwDQYJKoZIhvcNAQEB
BQADggEPADCCAQoCggEBAMaA7SxCv+98Zef31TePuO2/Cb6DtSK6jY5fY8uYabr8
eaYsAnCyEUkkMllqEOzaivpRJ9KVpggDHTkgYUvAoPNUGlP0UzRCZq/TCFwOq8rF
lx92YA1cBlaWQqZz/GML6QKiZHsYTm1+iLllv1K75Vfur4FUsG+zxSLanH1A0YYB
nds3vpFQlJuoftlUMoFQ/RRUaqOLtSwewJqo3vyW9RrKl3BgeZReZ+iQ/sNoY/Bd
ZOXsiad1YQxoKv6w04UXC175G/8bfvRS/yBWD3tQFduWdzwJTpgrx45Vu1l8Urdu
RSDXtsd+T3HX3ea5WARgKuRAZF4sjjCWvITbQrlmi5UCAwEAAaOB6zCB6DAdBgNV
HQ4EFgQUNClSGdgF2Ma/JK4qQAWBiqiG0MwwHwYDVR0jBBgwFoAUs098oUYVY4JU
Oq/S90BWIXsURFEwQAYIKwYBBQUHAQEENDAyMDAGCCsGAQUFBzAChiRodHRwOi8v
dXJsLWZvci1haWEvSW50ZXJtZWRpYXRlMi5jZXIwNQYDVR0fBC4wLDAqoCigJoYk
aHR0cDovL3VybC1mb3ItY3JsL0ludGVybWVkaWF0ZTIuY3JsMA4GA1UdDwEB/wQE
AwIFoDAdBgNVHSUEFjAUBggrBgEFBQcDAQYIKwYBBQUHAwIwDQYJKoZIhvcNAQEL
BQADggEBAKU4nw5npDld0qtSv+AoEz/kiQKwXzRCyoPHn56Wb9VVQ9GOAyXvxBjV
DfUksyGUgoroJAuc90BLd2nSlo9yvB39e+utt9zB6+GtfGYW1S6Z4pnIb6XkHQE+
E5s8o0/y1GMr8Mj2R3ltnAwNL/RWinix4ugRFs6SyGP5TwaqkgcXA0pK8lj29WeR
1ca10tcq2b9LI7Z5pI4nwBIbj126M2yCqaHNnKKdC9ggar8aQ7wRiup+Bmr21dlh
mJZ6nXkgrD1fJDwUGkh+F5mfukKiYEd29+Wu//9Csw+u5zTW5+NYKpej1BU54v9z
6RS8FmdbzG8VfbmJ4H7NvsqJRnL+iZQ=
-----END CERTIFICATE-----

Certificate:
    Data:
        Version: 3 (0x2)
        Serial Number:
            17:8c:9b:75:3d:af:a1:29:c3:af:35:d8:95:1a:c4:3f:ab:fb:b8:e8
        Signature Algorithm: sha256WithRSAEncryption
        Issuer: CN=Intermediate1
        Validity
            Not Before: Oct  5 12:00:00 2022 GMT
            Not After : Oct  5 12:00:00 2023 GMT
        Subject: CN=Intermediate2
        Subject Public Key Info:
            Public Key Algorithm: rsaEncryption
                Public-Key: (2048 bit)
                Modulus:
                    00:a5:da:13:9b:86:a9:21:3f:1b:20:2d:25:a0:65:
                    28:27:5c:0c:2c:f5:ff:28:2a:4c:5c:63:4a:08:c6:
                    90:06:55:13:54:d9:6d:c4:83:64:22:c0:1c:40:b1:
                    c9:f5:64:af:1d:cf:55:74:02:e8:97:af:3b:fe:ba:
                    32:f9:3a:10:79:6f:5b:81:b8:cf:d6:25:3b:36:7f:
                    fb:17:a4:75:32:96:d3:b5:c5:97:87:8f:cd:63:e7:
                    0f:28:3c:8e:0a:1e:46:91:a9:64:8b:70:7c:c8:ef:
                    b1:fa:82:50:2f:56:5c:17:b3:18:b9:4b:26:e2:a5:
                    53:a8:27:a0:b7:d0:61:12:93:a7:5f:9a:1d:41:5c:
                    53:c3:29:bd:96:44:8d:a6:1f:f9:e7:74:13:5a:84:
                    e3:3c:a5:41:cd:e9:86:72:c2:12:ea:2a:78:76:f8:
                    88:93:f6:8a:d0:de:3e:b0:33:a0:96:fa:40:cb:c0:
                    e0:49:4d:c1:e8:46:40:b3:7f:a3:e5:01:d3:4e:9b:
                    e0:6c:21:6e:4a:d3:d6:e5:0c:1b:e1:1d:39:54:ca:
                    35:4f:2a:1a:b0:b3:66:40:4e:f7:e9:72:70:f4:70:
                    83:c6:81:12:bd:c9:c3:cc:53:95:fa:e4:21:74:f5:
                    1e:f6:69:1c:42:6b:ba:ec:b5:83:33:41:7b:72:b8:
                    a4:9f
                Exponent: 65537 (0x10001)
        X509v3 extensions:
            X509v3 Subject Key Identifier: 
                B3:4F:7C:A1:46:15:63:82:54:3A:AF:D2:F7:40:56:21:7B:14:44:51
            X509v3 Authority Key Identifier: 
                78:A0:50:E7:F0:D8:50:C1:A8:AE:40:CC:35:8A:73:B1:2C:78:51:4A
            Authority Information Access: 
                CA Issuers - URI:http://url-for-aia/Intermediate1.cer
            X509v3 CRL Distribution Points: 
                Full Name:
                  URI:http://url-for-crl/Intermediate1.crl
            X509v3 Key Usage: critical
                Certificate Sign, CRL Sign
            X509v3 Basic Constraints: critical
                CA:TRUE, pathlen:0
    Signature Algorithm: sha256WithRSAEncryption
    Signature Value:
        3a:ad:74:87:fa:16:60:4d:9a:ba:22:e0:a3:d4:d9:fc:d9:51:
        a6:a2:65:ad:96:e6:3d:2e:1c:df:22:01:98:49:59:4f:74:1e:
        c9:a9:8d:15:a3:2d:03:62:26:02:09:d8:2b:7c:a5:b4:74:e4:
        cc:25:24:3e:0d:d0:2d:01:ed:1b:2e:cb:91:31:a0:c0:6c:44:
        91:2f:d5:14:f1:8b:da:90:e2:db:4e:c4:07:e3:00:41:da:37:
        85:ed:1d:5e:75:2a:94:93:de:ec:b4:0e:de:0d:d0:65:7b:72:
        ca:2a:0e:fd:d7:5f:23:9b:17:60:78:bf:ed:0c:69:54:ae:fa:
        57:51:72:74:59:ce:a0:1f:81:4b:a6:c3:29:cb:89:e6:b1:14:
        6c:dc:95:30:0b:18:7e:10:a0:32:a2:5c:f3:fd:37:1c:b6:92:
        98:9b:87:ad:20:d8:89:83:38:04:ac:81:b8:80:97:ce:5a:53:
        a1:ec:62:18:57:24:aa:2c:39:60:f3:9e:4a:fb:7b:9e:57:82:
        c4:87:8a:4b:4b:8a:ea:da:a7:ac:25:55:cf:47:fc:70:01:b9:
        38:0f:53:10:62:e3:d0:52:b9:64:0b:da:0d:6c:87:0f:5b:ec:
        88:29:7e:9a:e9:27:23:6c:c0:ae:58:53:8d:22:73:1e:28:66:
        d5:49:25:7e
-----BEGIN CERTIFICATE-----
MIIDnzCCAoegAwIBAgIUF4ybdT2voSnDrzXYlRrEP6v7uOgwDQYJKoZIhvcNAQEL
BQAwGDEWMBQGA1UEAwwNSW50ZXJtZWRpYXRlMTAeFw0yMjEwMDUxMjAwMDBaFw0y
MzEwMDUxMjAwMDBaMBgxFjAUBgNVBAMMDUludGVybWVkaWF0ZTIwggEiMA0GCSqG
SIb3DQEBAQUAA4IBDwAwggEKAoIBAQCl2hObhqkhPxsgLSWgZSgnXAws9f8oKkxc
Y0oIxpAGVRNU2W3Eg2QiwBxAscn1ZK8dz1V0AuiXrzv+ujL5OhB5b1uBuM/WJTs2
f/sXpHUyltO1xZeHj81j5w8oPI4KHkaRqWSLcHzI77H6glAvVlwXsxi5SybipVOo
J6C30GESk6dfmh1BXFPDKb2WRI2mH/nndBNahOM8pUHN6YZywhLqKnh2+IiT9orQ
3j6wM6CW+kDLwOBJTcHoRkCzf6PlAdNOm+BsIW5K09blDBvhHTlUyjVPKhqws2ZA
TvfpcnD0cIPGgRK9ycPMU5X65CF09R72aRxCa7rstYMzQXtyuKSfAgMBAAGjgeAw
gd0wHQYDVR0OBBYEFLNPfKFGFWOCVDqv0vdAViF7FERRMB8GA1UdIwQYMBaAFHig
UOfw2FDBqK5AzDWKc7EseFFKMEAGCCsGAQUFBwEBBDQwMjAwBggrBgEFBQcwAoYk
aHR0cDovL3VybC1mb3ItYWlhL0ludGVybWVkaWF0ZTEuY2VyMDUGA1UdHwQuMCww
KqAooCaGJGh0dHA6Ly91cmwtZm9yLWNybC9JbnRlcm1lZGlhdGUxLmNybDAOBgNV
HQ8BAf8EBAMCAQYwEgYDVR0TAQH/BAgwBgEB/wIBADANBgkqhkiG9w0BAQsFAAOC
AQEAOq10h/oWYE2auiLgo9TZ/NlRpqJlrZbmPS4c3yIBmElZT3QeyamNFaMtA2Im
AgnYK3yltHTkzCUkPg3QLQHtGy7LkTGgwGxEkS/VFPGL2pDi207EB+MAQdo3he0d
XnUqlJPe7LQO3g3QZXtyyioO/ddfI5sXYHi/7QxpVK76V1FydFnOoB+BS6bDKcuJ
5rEUbNyVMAsYfhCgMqJc8/03HLaSmJuHrSDYiYM4BKyBuICXzlpToexiGFckqiw5
YPOeSvt7nleCxIeKS0uK6tqnrCVVz0f8cAG5OA9TEGLj0FK5ZAvaDWyHD1vsiCl+
muknI2zArlhTjSJzHihm1Uklfg==
-----END CERTIFICATE-----

Certificate:
    Data:
        Version: 3 (0x2)
        Serial Number:
            51:a0:bf:32:38:48:73:e8:3d:c1:b2:cc:5c:f8:d9:94:14:a9:2a:db
        Signature Algorithm: sha256WithRSAEncryption
        Issuer: CN=Root
        Validity
            Not Before: Oct  5 12:00:00 2022 GMT
            Not After : Oct  5 12:00:00 2023 GMT
        Subject: CN=Intermediate1
        Subject Public Key Info:
            Public Key Algorithm: rsaEncryption
                Public-Key: (2048 bit)
                Modulus:
                    00:a1:53:d3:7c:15:ee:13:ee:f8:8a:57:2c:76:df:
                    71:f0:10:21:58:fd:6c:9e:02:b8:6b:09:77:40:de:
                    d2:cf:62:8b:5b:9f:29:fe:11:a3:6b:c8:fb:f3:7f:
                    aa:22:13:87:7f:c1:3f:41:40:3f:1b:21:51:ae:5a:
                    03:ae:86:c2:68:7c:8d:3d:1b:0e:d9:62:98:5a:66:
                    d9:3b:8f:88:2a:44:b6:df:c9:2b:1c:78:95:d3:e1:
                    50:7b:18:42:3b:f3:1b:41:bb:48:d9:31:54:6a:d9:
                    ef:7e:8a:a6:fe:ce:bb:5e:f8:13:68:f2:61:be:75:
                    a2:65:5f:d0:c5:87:fa:f6:e1:04:05:2b:50:a0:88:
                    ac:e2:d5:af:b6:83:6b:b8:b3:a0:1a:2d:65:71:5f:
                    67:a6:97:3e:43:a2:5e:80:c5:fe:36:40:34:05:ea:
                    79:31:0a:fa:b9:68:9a:58:f3:28:b6:7a:dd:6a:06:
                    4c:da:76:f5:a5:63:70:8a:27:64:29:87:c1:8b:77:
                    fa:f0:cd:ef:56:a9:4c:7f:14:6d:da:c8:b8:b5:80:
                    8d:df:68:60:61:6f:e3:31:f3:d7:47:8e:0e:58:f0:
                    f1:9f:f1:7e:d4:d9:41:b9:6a:f4:33:4d:f5:7f:ef:
                    d4:b4:91:50:4b:4b:65:d9:8d:de:cc:a4:d3:88:17:
                    ca:3f
                Exponent: 65537 (0x10001)
        X509v3 extensions:
            X509v3 Subject Key Identifier: 
                78:A0:50:E7:F0:D8:50:C1:A8:AE:40:CC:35:8A:73:B1:2C:78:51:4A
            X509v3 Authority Key Identifier: 
                FB:44:5A:0F:03:A9:3A:3C:75:B4:3E:87:2E:99:99:2E:73:04:0E:0F
            Authority Information Access: 
                CA Issuers - URI:http://url-for-aia/Root.cer
            X509v3 CRL Distribution Points: 
                Full Name:
                  URI:http://url-for-crl/Root.crl
            X509v3 Key Usage: critical
                Certificate Sign, CRL Sign
            X509v3 Basic Constraints: critical
                CA:TRUE, pathlen:0
    Signature Algorithm: sha256WithRSAEncryption
    Signature Value:
        0d:80:8d:7a:f3:4d:ca:ba:00:2e:9e:08:ee:48:21:5a:65:90:
        df:12:47:69:8f:3c:48:61:b9:82:29:0b:89:c9:ed:40:a9:d2:
        d6:6e:b7:d4:c7:ea:1b:cd:12:4d:bc:40:a9:32:13:3b:a0:3a:
        0a:08:7f:a9:6d:bf:90:13:24:13:23:0e:13:cc:f4:95:05:32:
        1a:21:c5:5d:f1:00:40:e9:84:c0:92:ed:ec:53:c4:cd:8b:05:
        f6:eb:f1:3e:e5:4f:d1:7f:f0:3d:90:66:1f:bb:fa:67:ec:69:
        e2:17:52:df:43:bf:33:49:22:f1:59:5b:02:df:be:12:5f:6d:
        97:3e:33:bd:a8:2e:4e:56:a7:84:b2:80:fd:46:3c:f0:3f:72:
        9b:04:86:96:b8:d8:9d:5d:38:a9:24:f5:d6:97:ab:cc:b5:e1:
        e5:84:ed:b4:ca:9e:1f:29:de:ca:d9:1b:00:86:75:64:d0:a1:
        eb:cf:a3:96:e1:00:f9:24:78:c3:3f:9a:16:90:e1:de:77:61:
        00:8c:19:62:61:fc:d5:84:c9:bb:10:69:f3:52:c3:5a:6b:dc:
        c2:82:49:43:1e:ef:5a:e1:e0:5e:e6:1d:3a:75:5f:14:82:76:
        f4:63:cd:89:6d:e8:a9:9e:72:ad:96:6d:29:09:29:53:dd:b2:
        47:9c:c9:b1
-----BEGIN CERTIFICATE-----
MIIDhDCCAmygAwIBAgIUUaC/MjhIc+g9wbLMXPjZlBSpKtswDQYJKoZIhvcNAQEL
BQAwDzENMAsGA1UEAwwEUm9vdDAeFw0yMjEwMDUxMjAwMDBaFw0yMzEwMDUxMjAw
MDBaMBgxFjAUBgNVBAMMDUludGVybWVkaWF0ZTEwggEiMA0GCSqGSIb3DQEBAQUA
A4IBDwAwggEKAoIBAQChU9N8Fe4T7viKVyx233HwECFY/WyeArhrCXdA3tLPYotb
nyn+EaNryPvzf6oiE4d/wT9BQD8bIVGuWgOuhsJofI09Gw7ZYphaZtk7j4gqRLbf
ySsceJXT4VB7GEI78xtBu0jZMVRq2e9+iqb+zrte+BNo8mG+daJlX9DFh/r24QQF
K1CgiKzi1a+2g2u4s6AaLWVxX2emlz5Dol6Axf42QDQF6nkxCvq5aJpY8yi2et1q
BkzadvWlY3CKJ2Qph8GLd/rwze9WqUx/FG3ayLi1gI3faGBhb+Mx89dHjg5Y8PGf
8X7U2UG5avQzTfV/79S0kVBLS2XZjd7MpNOIF8o/AgMBAAGjgc4wgcswHQYDVR0O
BBYEFHigUOfw2FDBqK5AzDWKc7EseFFKMB8GA1UdIwQYMBaAFPtEWg8DqTo8dbQ+
hy6ZmS5zBA4PMDcGCCsGAQUFBwEBBCswKTAnBggrBgEFBQcwAoYbaHR0cDovL3Vy
bC1mb3ItYWlhL1Jvb3QuY2VyMCwGA1UdHwQlMCMwIaAfoB2GG2h0dHA6Ly91cmwt
Zm9yLWNybC9Sb290LmNybDAOBgNVHQ8BAf8EBAMCAQYwEgYDVR0TAQH/BAgwBgEB
/wIBADANBgkqhkiG9w0BAQsFAAOCAQEADYCNevNNyroALp4I7kghWmWQ3xJHaY88
SGG5gikLicntQKnS1m631MfqG80STbxAqTITO6A6Cgh/qW2/kBMkEyMOE8z0lQUy
GiHFXfEAQOmEwJLt7FPEzYsF9uvxPuVP0X/wPZBmH7v6Z+xp4hdS30O/M0ki8Vlb
At++El9tlz4zvaguTlanhLKA/UY88D9ymwSGlrjYnV04qST11perzLXh5YTttMqe
HyneytkbAIZ1ZNCh68+jluEA+SR4wz+aFpDh3ndhAIwZYmH81YTJuxBp81LDWmvc
woJJQx7vWuHgXuYdOnVfFIJ29GPNiW3oqZ5yrZZtKQkpU92yR5zJsQ==
-----END CERTIFICATE-----

Certificate:
    Data:
        Version: 3 (0x2)
        Serial Number:
            51:a0:bf:32:38:48:73:e8:3d:c1:b2:cc:5c:f8:d9:94:14:a9:2a:da
        Signature Algorithm: sha256WithRSAEncryption
        Issuer: CN=Root
        Validity
            Not Before: Oct  5 12:00:00 2022 GMT
            Not After : Oct  5 12:00:00 2023 GMT
        Subject: CN=Root
        Subject Public Key Info:
            Public Key Algorithm: rsaEncryption
                Public-Key: (2048 bit)
                Modulus:
                    00:92:08:56:82:b9:30:af:14:a4:b9:10:66:49:4d:
                    2a:e7:3c:3b:38:4e:a9:b3:1e:76:0f:32:75:73:d0:
                    d9:c6:21:3a:86:77:01:b7:a9:ec:52:96:d6:01:97:
                    a4:90:f3:63:24:da:ed:9e:57:98:05:ee:e9:22:69:
                    00:02:c6:cf:16:fb:54:7b:00:33:31:2b:0a:cc:c3:
                    54:98:7a:a0:11:c8:45:78:b5:e7:3a:17:7e:4f:5b:
                    a6:e8:97:9f:73:6a:fc:49:38:d7:4b:3c:51:05:e9:
                    aa:a1:0b:a9:f5:86:52:b7:d3:3d:31:ec:ca:82:64:
                    15:f9:8a:e8:8e:c8:f6:88:35:ae:7c:b1:ba:4a:86:
                    07:f0:85:0e:99:6a:30:a9:a4:a8:0c:d5:21:57:e0:
                    cd:95:96:47:22:bf:93:bc:62:78:c2:59:ab:ae:69:
                    12:75:69:11:c0:60:8d:9d:d7:54:6e:e4:4a:44:0d:
                    75:4c:4b:e4:0e:96:69:0c:5a:be:97:fd:5f:29:8a:
                    a8:46:60:10:b8:a3:c5:ae:47:2d:9a:3f:79:1e:90:
                    44:f7:9d:c9:1b:3e:ad:35:45:83:5f:5d:89:c6:24:
                    a7:b5:bf:09:47:22:f8:30:b8:94:34:85:4f:21:89:
                    52:63:fa:db:01:e5:0f:e0:f3:36:97:5d:2e:6c:6c:
                    3d:57
                Exponent: 65537 (0x10001)
        X509v3 extensions:
            X509v3 Subject Key Identifier: 
                FB:44:5A:0F:03:A9:3A:3C:75:B4:3E:87:2E:99:99:2E:73:04:0E:0F
            X509v3 Authority Key Identifier: 
                FB:44:5A:0F:03:A9:3A:3C:75:B4:3E:87:2E:99:99:2E:73:04:0E:0F
            Authority Information Access: 
                CA Issuers - URI:http://url-for-aia/Root.cer
            X509v3 CRL Distribution Points: 
                Full Name:
                  URI:http://url-for-crl/Root.crl
            X509v3 Key Usage: critical
                Certificate Sign, CRL Sign
            X509v3 Basic Constraints: critical
                CA:TRUE
    Signature Algorithm: sha256WithRSAEncryption
    Signature Value:
        16:c3:e2:69:7f:c8:69:43:63:ae:4f:c5:66:1e:b5:04:04:d0:
        a2:e5:74:7d:00:88:da:95:c5:61:a7:2b:6e:ae:b3:6b:08:37:
        59:1d:c5:c4:5b:74:24:7f:95:42:ac:04:95:2c:10:00:51:29:
        9f:b4:f5:0d:7d:d2:70:d9:32:8b:5a:f4:0c:5b:95:22:30:28:
        3d:92:50:a0:34:b4:58:3d:1c:48:61:40:0e:37:8b:ff:9e:9c:
        77:b6:71:df:7b:2b:92:14:a0:a3:36:61:51:86:d2:c0:e1:e7:
        b7:b1:87:97:ac:cf:5d:7b:24:1f:7a:0c:39:27:c5:36:08:51:
        d2:03:c4:df:3d:d5:15:62:22:49:43:94:17:8c:4e:fb:91:b7:
        4e:87:ae:01:e3:3e:ce:9c:75:71:65:16:98:b9:85:6c:51:33:
        b4:61:9a:83:db:1a:71:3b:00:6a:49:35:ef:40:48:bc:73:8e:
        0a:eb:a8:5a:7f:fa:c9:53:72:e6:6f:17:f1:69:b2:b3:68:88:
        2a:21:f7:d1:b3:e3:28:a6:f8:58:02:c1:c0:38:24:59:f5:12:
        0c:92:cf:01:dd:d3:a4:bf:ff:88:e6:d5:e8:52:9a:34:18:38:
        fe:9b:a8:21:10:23:b3:25:87:c6:cf:c9:6c:ea:69:7a:eb:7a:
        21:ea:7a:c0
-----BEGIN CERTIFICATE-----
MIIDeDCCAmCgAwIBAgIUUaC/MjhIc+g9wbLMXPjZlBSpKtowDQYJKoZIhvcNAQEL
BQAwDzENMAsGA1UEAwwEUm9vdDAeFw0yMjEwMDUxMjAwMDBaFw0yMzEwMDUxMjAw
MDBaMA8xDTALBgNVBAMMBFJvb3QwggEiMA0GCSqGSIb3DQEBAQUAA4IBDwAwggEK
AoIBAQCSCFaCuTCvFKS5EGZJTSrnPDs4TqmzHnYPMnVz0NnGITqGdwG3qexSltYB
l6SQ82Mk2u2eV5gF7ukiaQACxs8W+1R7ADMxKwrMw1SYeqARyEV4tec6F35PW6bo
l59zavxJONdLPFEF6aqhC6n1hlK30z0x7MqCZBX5iuiOyPaINa58sbpKhgfwhQ6Z
ajCppKgM1SFX4M2Vlkciv5O8YnjCWauuaRJ1aRHAYI2d11Ru5EpEDXVMS+QOlmkM
Wr6X/V8piqhGYBC4o8WuRy2aP3kekET3nckbPq01RYNfXYnGJKe1vwlHIvgwuJQ0
hU8hiVJj+tsB5Q/g8zaXXS5sbD1XAgMBAAGjgcswgcgwHQYDVR0OBBYEFPtEWg8D
qTo8dbQ+hy6ZmS5zBA4PMB8GA1UdIwQYMBaAFPtEWg8DqTo8dbQ+hy6ZmS5zBA4P
MDcGCCsGAQUFBwEBBCswKTAnBggrBgEFBQcwAoYbaHR0cDovL3VybC1mb3ItYWlh
L1Jvb3QuY2VyMCwGA1UdHwQlMCMwIaAfoB2GG2h0dHA6Ly91cmwtZm9yLWNybC9S
b290LmNybDAOBgNVHQ8BAf8EBAMCAQYwDwYDVR0TAQH/BAUwAwEB/zANBgkqhkiG
9w0BAQsFAAOCAQEAFsPiaX/IaUNjrk/FZh61BATQouV0fQCI2pXFYacrbq6zawg3
WR3FxFt0JH+VQqwElSwQAFEpn7T1DX3ScNkyi1r0DFuVIjAoPZJQoDS0WD0cSGFA
DjeL/56cd7Zx33srkhSgozZhUYbSwOHnt7GHl6zPXXskH3oMOSfFNghR0gPE3z3V
FWIiSUOUF4xO+5G3ToeuAeM+zpx1cWUWmLmFbFEztGGag9sacTsAakk170BIvHOO
CuuoWn/6yVNy5m8X8Wmys2iIKiH30bPjKKb4WALBwDgkWfUSDJLPAd3TpL//iObV
6FKaNBg4/puoIRAjsyWHxs/JbOppeut6Iep6wA==
-----END CERTIFICATE-----
