[Created by: generate-chains.py]

Generates certificate chains where the intermediate contains netscape server
gated crypto rather than serverAuth.

Certificate:
    Data:
        Version: 3 (0x2)
        Serial Number:
            16:b5:13:fb:79:d7:bf:0c:f5:4b:2a:50:4c:9a:68:d0:89:a0:f2:9d
        Signature Algorithm: sha256WithRSAEncryption
        Issuer: CN=Intermediate
        Validity
            Not Before: Nov  3 12:00:00 2020 GMT
            Not After : Nov  3 12:00:00 2021 GMT
        Subject: CN=Target
        Subject Public Key Info:
            Public Key Algorithm: rsaEncryption
                RSA Public-Key: (2048 bit)
                Modulus:
                    00:ae:2e:8b:18:8d:f7:76:2c:94:0c:3f:a0:b6:ea:
                    70:1f:5e:c8:48:c5:aa:ad:55:6b:bd:55:68:0d:8e:
                    ce:e5:99:27:c5:2c:b2:9a:29:a9:8f:8e:c3:c6:97:
                    89:6d:31:d7:a4:8f:d8:36:37:4f:33:c7:d6:42:03:
                    11:08:c4:7f:35:8c:ee:0f:1b:7a:31:74:04:aa:01:
                    d3:1e:8b:5b:01:9d:60:4b:9c:d1:8f:1e:ab:e5:dc:
                    8f:17:77:49:e3:f6:d5:82:a5:2f:0a:e8:dc:9f:96:
                    1e:2a:a1:41:d1:67:2c:9e:f3:7f:94:0c:6e:cf:5f:
                    55:52:37:05:d0:39:37:1a:6e:11:ed:db:fa:aa:92:
                    a7:4f:50:29:07:69:af:1d:a7:99:fa:e1:56:f0:03:
                    38:b0:ae:6b:e7:19:0b:dd:c3:07:31:8e:84:04:a5:
                    b4:eb:b8:bc:23:f3:40:b0:17:b4:ab:9e:3f:05:96:
                    89:fc:84:23:cc:d1:06:c2:e4:8b:c6:65:f5:24:eb:
                    72:31:bc:41:7d:3a:c9:55:08:0c:ee:a6:ae:1f:78:
                    17:f8:a7:9d:7b:b1:82:f5:ce:82:6b:a8:b2:c6:8a:
                    b9:be:a5:d8:39:f4:49:e2:4c:53:32:85:26:53:4d:
                    44:ce:d5:3b:a0:6b:e7:d9:02:a1:5a:ef:e1:a5:81:
                    a7:fb
                Exponent: 65537 (0x10001)
        X509v3 extensions:
            X509v3 Subject Key Identifier: 
                EB:B0:1C:BD:B7:68:B8:D1:B9:8A:C2:9F:5D:CF:DD:AF:F2:62:70:8A
            X509v3 Authority Key Identifier: 
                keyid:EE:C6:9A:65:CC:FB:CE:A0:3E:17:02:F9:68:12:86:B6:22:09:60:B4

            Authority Information Access: 
                CA Issuers - URI:http://url-for-aia/Intermediate.cer

            X509v3 CRL Distribution Points: 

                Full Name:
                  URI:http://url-for-crl/Intermediate.crl

            X509v3 Key Usage: critical
                Digital Signature, Key Encipherment
            X509v3 Extended Key Usage: 
                TLS Web Server Authentication, TLS Web Client Authentication
            X509v3 Subject Alternative Name: 
                DNS:test.example
    Signature Algorithm: sha256WithRSAEncryption
         b8:71:59:46:33:f9:7c:90:a8:d1:28:12:2b:eb:a5:bc:4b:1e:
         e5:fb:00:88:af:04:05:3d:df:19:40:4f:4b:69:76:1d:e3:27:
         06:2f:93:e9:c1:33:96:90:5d:d7:79:5d:40:e4:d2:e1:30:9d:
         a6:f8:45:36:4b:25:e9:7b:2c:f1:4f:e1:ae:f3:ad:1b:8a:22:
         95:9b:ce:66:5e:be:24:70:04:22:61:56:3b:3f:b3:bf:7d:9e:
         ce:da:31:32:c2:37:ab:88:bc:05:b1:ca:e5:fb:3e:51:d1:f0:
         c2:7c:a9:7c:8d:0c:60:66:20:33:11:ba:af:4e:71:25:6b:4e:
         4e:a8:1f:9d:32:fb:da:4b:0d:fc:15:ff:30:f4:ad:13:11:a6:
         bc:65:54:19:bf:70:c0:05:f6:ad:81:fa:3e:97:73:ae:43:24:
         14:c0:e2:b2:cf:e2:4b:bd:c5:e5:2d:13:b9:6a:f2:fa:d6:06:
         aa:8c:48:61:6e:5d:f8:67:c2:e4:4e:47:3a:51:49:35:9f:f2:
         79:07:a4:5f:90:24:00:e8:f3:8f:2f:40:72:be:0e:50:8e:ec:
         13:79:d4:57:38:94:3b:8e:c6:dd:14:80:c6:fd:70:7f:7f:03:
         11:6f:8a:3f:cb:8f:61:2f:bc:a5:2f:c4:63:50:6b:87:9a:af:
         06:1c:08:08
-----BEGIN CERTIFICATE-----
MIIDujCCAqKgAwIBAgIUFrUT+3nXvwz1SypQTJpo0Img8p0wDQYJKoZIhvcNAQEL
BQAwFzEVMBMGA1UEAwwMSW50ZXJtZWRpYXRlMB4XDTIwMTEwMzEyMDAwMFoXDTIx
MTEwMzEyMDAwMFowETEPMA0GA1UEAwwGVGFyZ2V0MIIBIjANBgkqhkiG9w0BAQEF
AAOCAQ8AMIIBCgKCAQEAri6LGI33diyUDD+gtupwH17ISMWqrVVrvVVoDY7O5Zkn
xSyymimpj47DxpeJbTHXpI/YNjdPM8fWQgMRCMR/NYzuDxt6MXQEqgHTHotbAZ1g
S5zRjx6r5dyPF3dJ4/bVgqUvCujcn5YeKqFB0WcsnvN/lAxuz19VUjcF0Dk3Gm4R
7dv6qpKnT1ApB2mvHaeZ+uFW8AM4sK5r5xkL3cMHMY6EBKW067i8I/NAsBe0q54/
BZaJ/IQjzNEGwuSLxmX1JOtyMbxBfTrJVQgM7qauH3gX+Kede7GC9c6Ca6iyxoq5
vqXYOfRJ4kxTMoUmU01EztU7oGvn2QKhWu/hpYGn+wIDAQABo4IBAjCB/zAdBgNV
HQ4EFgQU67AcvbdouNG5isKfXc/dr/JicIowHwYDVR0jBBgwFoAU7saaZcz7zqA+
FwL5aBKGtiIJYLQwPwYIKwYBBQUHAQEEMzAxMC8GCCsGAQUFBzAChiNodHRwOi8v
dXJsLWZvci1haWEvSW50ZXJtZWRpYXRlLmNlcjA0BgNVHR8ELTArMCmgJ6AlhiNo
dHRwOi8vdXJsLWZvci1jcmwvSW50ZXJtZWRpYXRlLmNybDAOBgNVHQ8BAf8EBAMC
BaAwHQYDVR0lBBYwFAYIKwYBBQUHAwEGCCsGAQUFBwMCMBcGA1UdEQQQMA6CDHRl
c3QuZXhhbXBsZTANBgkqhkiG9w0BAQsFAAOCAQEAuHFZRjP5fJCo0SgSK+ulvEse
5fsAiK8EBT3fGUBPS2l2HeMnBi+T6cEzlpBd13ldQOTS4TCdpvhFNksl6Xss8U/h
rvOtG4oilZvOZl6+JHAEImFWOz+zv32eztoxMsI3q4i8BbHK5fs+UdHwwnypfI0M
YGYgMxG6r05xJWtOTqgfnTL72ksN/BX/MPStExGmvGVUGb9wwAX2rYH6PpdzrkMk
FMDiss/iS73F5S0TuWry+tYGqoxIYW5d+GfC5E5HOlFJNZ/yeQekX5AkAOjzjy9A
cr4OUI7sE3nUVziUO47G3RSAxv1wf38DEW+KP8uPYS+8pS/EY1Brh5qvBhwICA==
-----END CERTIFICATE-----

Certificate:
    Data:
        Version: 3 (0x2)
        Serial Number:
            42:e0:1e:36:75:40:12:16:19:8d:07:a8:3f:9b:ff:e1:59:bc:6a:9e
        Signature Algorithm: sha1WithRSAEncryption
        Issuer: CN=Root
        Validity
            Not Before: Nov  3 12:00:00 2020 GMT
            Not After : Nov  3 12:00:00 2021 GMT
        Subject: CN=Intermediate
        Subject Public Key Info:
            Public Key Algorithm: rsaEncryption
                RSA Public-Key: (2048 bit)
                Modulus:
                    00:d1:41:40:6f:cb:25:05:d9:29:d0:a3:c7:fe:2f:
                    f0:53:ad:46:36:19:aa:b1:1f:3f:7a:a2:e0:fb:03:
                    2b:77:65:6a:79:eb:f3:a3:16:13:34:83:3b:42:de:
                    a2:bb:e2:bf:d8:d2:75:3d:48:38:86:bb:2a:7d:14:
                    a3:88:f7:7c:00:f4:0a:6b:6b:aa:9b:44:24:62:fe:
                    db:a3:42:55:15:67:2a:32:ff:b2:4d:80:93:d0:84:
                    ef:1b:dc:7c:ac:56:2d:54:08:02:f6:18:6e:b5:80:
                    a8:77:52:1f:b8:2c:09:6d:cc:f8:1c:04:91:62:6e:
                    1e:dd:1d:89:b2:f1:23:0b:4d:4c:6c:da:49:3d:61:
                    83:72:0f:66:36:12:3f:f3:ff:53:52:73:53:a1:ca:
                    38:bd:c3:48:bf:7a:2f:13:19:d7:c2:28:e1:6f:32:
                    00:5e:64:ac:4b:05:7a:77:62:57:55:a9:59:83:d5:
                    ed:a3:2e:28:34:71:79:2f:b9:c3:9e:df:b3:2a:b1:
                    59:cd:04:00:1d:8b:11:56:ae:c6:67:f6:4f:1d:58:
                    07:65:e0:b0:2f:ef:57:6d:de:c1:a0:7c:6e:38:a8:
                    45:26:21:96:e0:f6:ef:0e:28:cf:01:70:57:dc:20:
                    15:08:ad:e8:e3:98:74:8c:54:32:c1:28:17:e0:de:
                    a1:8b
                Exponent: 65537 (0x10001)
        X509v3 extensions:
            X509v3 Subject Key Identifier: 
                EE:C6:9A:65:CC:FB:CE:A0:3E:17:02:F9:68:12:86:B6:22:09:60:B4
            X509v3 Authority Key Identifier: 
                keyid:42:75:41:34:C5:59:9F:99:A3:9B:1C:0C:57:DB:5C:C7:C1:48:B7:91

            Authority Information Access: 
                CA Issuers - URI:http://url-for-aia/Root.cer

            X509v3 CRL Distribution Points: 

                Full Name:
                  URI:http://url-for-crl/Root.crl

            X509v3 Key Usage: critical
                Certificate Sign, CRL Sign
            X509v3 Basic Constraints: critical
                CA:TRUE
            X509v3 Extended Key Usage: 
                Netscape Server Gated Crypto
    Signature Algorithm: sha1WithRSAEncryption
         b0:52:ea:c1:66:00:cc:20:01:05:6a:c3:1d:75:e7:76:cc:50:
         98:63:99:5b:c1:5b:93:9a:bc:96:65:05:ae:33:08:3e:60:e9:
         5d:15:8a:7f:ab:1c:e5:48:9c:52:73:9d:38:9e:e8:c7:32:41:
         2f:c4:5c:36:83:8d:3d:af:cd:23:50:12:e6:33:27:42:9d:50:
         73:5a:4a:c5:8d:f3:92:07:2f:ec:06:a5:15:ec:58:3e:4b:66:
         58:61:98:5e:5a:ff:ea:37:79:42:06:88:a1:0e:89:4f:0c:00:
         cd:c1:84:14:04:d9:55:7a:34:ab:24:a6:57:6b:88:4a:0f:57:
         43:95:d2:d4:bd:b5:3a:cb:b9:f1:d5:43:c0:72:6d:4e:fc:84:
         9f:95:57:5e:69:eb:03:75:40:e7:cd:52:8d:f7:98:5f:cc:fb:
         08:ae:ce:40:d4:0b:34:9c:67:27:a0:09:4c:f8:1c:df:bb:bb:
         62:a7:9d:da:8e:e5:67:a3:df:a3:46:09:46:48:9f:ba:19:be:
         61:3d:a1:84:1d:04:6f:44:e8:64:4b:11:74:0c:bc:a9:02:d1:
         93:aa:40:2c:0c:3e:10:1d:55:93:d6:0e:08:ba:cb:75:c1:b8:
         da:b2:15:05:3e:cb:ea:d0:a8:df:56:ca:33:54:ef:97:25:12:
         93:29:f5:4a
-----BEGIN CERTIFICATE-----
MIIDljCCAn6gAwIBAgIUQuAeNnVAEhYZjQeoP5v/4Vm8ap4wDQYJKoZIhvcNAQEF
BQAwDzENMAsGA1UEAwwEUm9vdDAeFw0yMDExMDMxMjAwMDBaFw0yMTExMDMxMjAw
MDBaMBcxFTATBgNVBAMMDEludGVybWVkaWF0ZTCCASIwDQYJKoZIhvcNAQEBBQAD
ggEPADCCAQoCggEBANFBQG/LJQXZKdCjx/4v8FOtRjYZqrEfP3qi4PsDK3dlannr
86MWEzSDO0Leorviv9jSdT1IOIa7Kn0Uo4j3fAD0CmtrqptEJGL+26NCVRVnKjL/
sk2Ak9CE7xvcfKxWLVQIAvYYbrWAqHdSH7gsCW3M+BwEkWJuHt0dibLxIwtNTGza
ST1hg3IPZjYSP/P/U1JzU6HKOL3DSL96LxMZ18Io4W8yAF5krEsFendiV1WpWYPV
7aMuKDRxeS+5w57fsyqxWc0EAB2LEVauxmf2Tx1YB2XgsC/vV23ewaB8bjioRSYh
luD27w4ozwFwV9wgFQit6OOYdIxUMsEoF+DeoYsCAwEAAaOB4TCB3jAdBgNVHQ4E
FgQU7saaZcz7zqA+FwL5aBKGtiIJYLQwHwYDVR0jBBgwFoAUQnVBNMVZn5mjmxwM
V9tcx8FIt5EwNwYIKwYBBQUHAQEEKzApMCcGCCsGAQUFBzAChhtodHRwOi8vdXJs
LWZvci1haWEvUm9vdC5jZXIwLAYDVR0fBCUwIzAhoB+gHYYbaHR0cDovL3VybC1m
b3ItY3JsL1Jvb3QuY3JsMA4GA1UdDwEB/wQEAwIBBjAPBgNVHRMBAf8EBTADAQH/
MBQGA1UdJQQNMAsGCWCGSAGG+EIEATANBgkqhkiG9w0BAQUFAAOCAQEAsFLqwWYA
zCABBWrDHXXndsxQmGOZW8Fbk5q8lmUFrjMIPmDpXRWKf6sc5UicUnOdOJ7oxzJB
L8RcNoONPa/NI1AS5jMnQp1Qc1pKxY3zkgcv7AalFexYPktmWGGYXlr/6jd5QgaI
oQ6JTwwAzcGEFATZVXo0qySmV2uISg9XQ5XS1L21Osu58dVDwHJtTvyEn5VXXmnr
A3VA581SjfeYX8z7CK7OQNQLNJxnJ6AJTPgc37u7Yqed2o7lZ6Pfo0YJRkifuhm+
YT2hhB0Eb0ToZEsRdAy8qQLRk6pALAw+EB1Vk9YOCLrLdcG42rIVBT7L6tCo31bK
M1TvlyUSkyn1Sg==
-----END CERTIFICATE-----

Certificate:
    Data:
        Version: 3 (0x2)
        Serial Number:
            42:e0:1e:36:75:40:12:16:19:8d:07:a8:3f:9b:ff:e1:59:bc:6a:9d
        Signature Algorithm: sha256WithRSAEncryption
        Issuer: CN=Root
        Validity
            Not Before: Nov  3 12:00:00 2020 GMT
            Not After : Nov  3 12:00:00 2021 GMT
        Subject: CN=Root
        Subject Public Key Info:
            Public Key Algorithm: rsaEncryption
                RSA Public-Key: (2048 bit)
                Modulus:
                    00:c3:96:66:c7:e7:fd:21:14:ec:df:4a:05:1a:8c:
                    22:da:8f:3e:b7:8e:ca:a2:de:d7:e3:08:05:cd:28:
                    1c:da:d4:99:ba:ad:de:92:07:44:18:55:e7:b5:41:
                    6b:38:64:18:06:ab:6c:b8:ad:3d:b8:4e:c8:fa:8c:
                    fc:58:2c:2c:a8:42:08:28:b4:85:2a:aa:57:e2:a8:
                    76:4a:6e:fe:38:2f:d1:14:c6:52:6f:05:a4:89:54:
                    c2:0f:f0:93:83:09:b7:55:56:94:7b:57:65:87:09:
                    dd:61:ea:1a:02:3c:24:a5:cc:2d:d3:7c:0a:dc:2e:
                    67:a2:7f:91:ad:b4:76:76:02:ac:7f:85:5f:61:86:
                    0c:60:15:a0:82:7f:85:16:f4:10:8d:49:27:e4:33:
                    58:75:55:6b:5a:ab:c7:d1:bd:3d:a8:3b:68:1b:b4:
                    de:68:89:c4:87:fe:87:04:d4:52:f3:8f:fa:2e:44:
                    79:c1:62:46:b7:88:4c:bb:75:61:fd:e6:c5:6a:fb:
                    a8:3b:ef:a7:e6:1a:1e:44:2d:61:a7:4e:63:5e:66:
                    b8:f7:85:60:74:8b:ea:20:82:84:84:71:f5:1d:c6:
                    0c:c2:ee:11:78:01:ae:44:5a:e3:7b:97:2e:01:d0:
                    18:91:77:01:23:7f:d2:21:73:f4:f3:9a:94:ad:93:
                    2e:a1
                Exponent: 65537 (0x10001)
        X509v3 extensions:
            X509v3 Subject Key Identifier: 
                42:75:41:34:C5:59:9F:99:A3:9B:1C:0C:57:DB:5C:C7:C1:48:B7:91
            X509v3 Authority Key Identifier: 
                keyid:42:75:41:34:C5:59:9F:99:A3:9B:1C:0C:57:DB:5C:C7:C1:48:B7:91

            Authority Information Access: 
                CA Issuers - URI:http://url-for-aia/Root.cer

            X509v3 CRL Distribution Points: 

                Full Name:
                  URI:http://url-for-crl/Root.crl

            X509v3 Key Usage: critical
                Certificate Sign, CRL Sign
            X509v3 Basic Constraints: critical
                CA:TRUE
    Signature Algorithm: sha256WithRSAEncryption
         c2:27:1d:74:e6:22:a1:29:28:61:97:d8:e9:63:da:e2:e5:9e:
         20:3e:df:19:f6:8d:dd:b2:1a:7d:89:a9:5d:70:a6:8e:75:4c:
         b2:2b:87:6d:f4:70:a4:2d:4c:a6:d8:c4:0b:ee:7f:1c:e2:87:
         35:4a:55:29:05:45:fc:20:d8:ff:f1:30:dc:f9:ec:c9:83:8d:
         bf:37:9b:da:92:a5:34:cc:30:cb:48:c0:f2:1f:88:3c:0c:b4:
         dd:44:e3:8a:e7:e4:6c:bf:4f:69:f0:24:d0:30:86:12:4b:6e:
         31:51:b8:23:3a:c6:45:ea:1e:88:0a:cd:cc:b6:fb:73:5b:77:
         18:df:45:1c:60:28:b1:5e:06:11:66:5a:25:64:97:27:6b:94:
         30:af:db:60:7d:de:88:bd:4d:1c:f6:45:c8:36:a6:83:58:ae:
         cf:f2:28:97:0b:e6:fa:22:a6:40:95:11:e3:ab:f1:de:64:11:
         da:f8:d5:fa:ce:50:e2:0f:cb:8b:0d:d6:4b:9c:47:5f:47:ed:
         6a:bb:e4:e4:f2:b2:f4:db:19:1f:f6:21:1a:de:04:19:f2:87:
         bf:4b:9f:5c:fd:dc:d3:18:fc:8f:af:ef:f6:d6:4d:cc:a0:0b:
         d4:9a:52:2e:c3:af:aa:7f:f2:9d:5d:08:ff:d4:06:72:20:cc:
         5a:fe:3d:0b
-----BEGIN CERTIFICATE-----
MIIDeDCCAmCgAwIBAgIUQuAeNnVAEhYZjQeoP5v/4Vm8ap0wDQYJKoZIhvcNAQEL
BQAwDzENMAsGA1UEAwwEUm9vdDAeFw0yMDExMDMxMjAwMDBaFw0yMTExMDMxMjAw
MDBaMA8xDTALBgNVBAMMBFJvb3QwggEiMA0GCSqGSIb3DQEBAQUAA4IBDwAwggEK
AoIBAQDDlmbH5/0hFOzfSgUajCLajz63jsqi3tfjCAXNKBza1Jm6rd6SB0QYVee1
QWs4ZBgGq2y4rT24Tsj6jPxYLCyoQggotIUqqlfiqHZKbv44L9EUxlJvBaSJVMIP
8JODCbdVVpR7V2WHCd1h6hoCPCSlzC3TfArcLmeif5GttHZ2Aqx/hV9hhgxgFaCC
f4UW9BCNSSfkM1h1VWtaq8fRvT2oO2gbtN5oicSH/ocE1FLzj/ouRHnBYka3iEy7
dWH95sVq+6g776fmGh5ELWGnTmNeZrj3hWB0i+oggoSEcfUdxgzC7hF4Aa5EWuN7
ly4B0BiRdwEjf9Ihc/TzmpStky6hAgMBAAGjgcswgcgwHQYDVR0OBBYEFEJ1QTTF
WZ+Zo5scDFfbXMfBSLeRMB8GA1UdIwQYMBaAFEJ1QTTFWZ+Zo5scDFfbXMfBSLeR
MDcGCCsGAQUFBwEBBCswKTAnBggrBgEFBQcwAoYbaHR0cDovL3VybC1mb3ItYWlh
L1Jvb3QuY2VyMCwGA1UdHwQlMCMwIaAfoB2GG2h0dHA6Ly91cmwtZm9yLWNybC9S
b290LmNybDAOBgNVHQ8BAf8EBAMCAQYwDwYDVR0TAQH/BAUwAwEB/zANBgkqhkiG
9w0BAQsFAAOCAQEAwicddOYioSkoYZfY6WPa4uWeID7fGfaN3bIafYmpXXCmjnVM
siuHbfRwpC1MptjEC+5/HOKHNUpVKQVF/CDY//Ew3PnsyYONvzeb2pKlNMwwy0jA
8h+IPAy03UTjiufkbL9PafAk0DCGEktuMVG4IzrGReoeiArNzLb7c1t3GN9FHGAo
sV4GEWZaJWSXJ2uUMK/bYH3eiL1NHPZFyDamg1iuz/Iolwvm+iKmQJUR46vx3mQR
2vjV+s5Q4g/Liw3WS5xHX0ftarvk5PKy9NsZH/YhGt4EGfKHv0ufXP3c0xj8j6/v
9tZNzKAL1JpSLsOvqn/ynV0I/9QGciDMWv49Cw==
-----END CERTIFICATE-----
