[Created by: generate-chains.py]

Generates certificate chains where the intermediate contains netscape server
gated crypto rather than serverAuth.

Certificate:
    Data:
        Version: 3 (0x2)
        Serial Number:
            16:b5:13:fb:79:d7:bf:0c:f5:4b:2a:50:4c:9a:68:d0:89:a0:f2:9d
        Signature Algorithm: sha256WithRSAEncryption
        Issuer: CN=Intermediate
        Validity
            Not Before: Oct  5 12:00:00 2022 GMT
            Not After : Oct  5 12:00:00 2023 GMT
        Subject: CN=Target
        Subject Public Key Info:
            Public Key Algorithm: rsaEncryption
                Public-Key: (2048 bit)
                Modulus:
                    00:ae:2e:8b:18:8d:f7:76:2c:94:0c:3f:a0:b6:ea:
                    70:1f:5e:c8:48:c5:aa:ad:55:6b:bd:55:68:0d:8e:
                    ce:e5:99:27:c5:2c:b2:9a:29:a9:8f:8e:c3:c6:97:
                    89:6d:31:d7:a4:8f:d8:36:37:4f:33:c7:d6:42:03:
                    11:08:c4:7f:35:8c:ee:0f:1b:7a:31:74:04:aa:01:
                    d3:1e:8b:5b:01:9d:60:4b:9c:d1:8f:1e:ab:e5:dc:
                    8f:17:77:49:e3:f6:d5:82:a5:2f:0a:e8:dc:9f:96:
                    1e:2a:a1:41:d1:67:2c:9e:f3:7f:94:0c:6e:cf:5f:
                    55:52:37:05:d0:39:37:1a:6e:11:ed:db:fa:aa:92:
                    a7:4f:50:29:07:69:af:1d:a7:99:fa:e1:56:f0:03:
                    38:b0:ae:6b:e7:19:0b:dd:c3:07:31:8e:84:04:a5:
                    b4:eb:b8:bc:23:f3:40:b0:17:b4:ab:9e:3f:05:96:
                    89:fc:84:23:cc:d1:06:c2:e4:8b:c6:65:f5:24:eb:
                    72:31:bc:41:7d:3a:c9:55:08:0c:ee:a6:ae:1f:78:
                    17:f8:a7:9d:7b:b1:82:f5:ce:82:6b:a8:b2:c6:8a:
                    b9:be:a5:d8:39:f4:49:e2:4c:53:32:85:26:53:4d:
                    44:ce:d5:3b:a0:6b:e7:d9:02:a1:5a:ef:e1:a5:81:
                    a7:fb
                Exponent: 65537 (0x10001)
        X509v3 extensions:
            X509v3 Subject Key Identifier: 
                EB:B0:1C:BD:B7:68:B8:D1:B9:8A:C2:9F:5D:CF:DD:AF:F2:62:70:8A
            X509v3 Authority Key Identifier: 
                EE:C6:9A:65:CC:FB:CE:A0:3E:17:02:F9:68:12:86:B6:22:09:60:B4
            Authority Information Access: 
                CA Issuers - URI:http://url-for-aia/Intermediate.cer
            X509v3 CRL Distribution Points: 
                Full Name:
                  URI:http://url-for-crl/Intermediate.crl
            X509v3 Key Usage: critical
                Digital Signature, Key Encipherment
            X509v3 Extended Key Usage: 
                TLS Web Server Authentication, TLS Web Client Authentication
            X509v3 Subject Alternative Name: 
                DNS:test.example
    Signature Algorithm: sha256WithRSAEncryption
    Signature Value:
        c3:ad:17:2c:62:f0:d0:bd:7c:b8:1f:a7:43:6d:82:53:8f:3e:
        09:9e:f4:a7:13:bf:70:e7:71:91:80:0c:44:a4:e0:e7:11:32:
        62:a3:cb:74:d2:d4:1f:6a:91:6d:a3:02:7c:9b:b9:97:6c:ff:
        7f:6b:f5:39:c3:10:ae:68:54:97:67:fa:c2:c5:2f:49:73:93:
        7a:47:2b:8e:ce:ee:76:32:c5:6a:9d:cb:6a:20:22:34:0f:a6:
        ca:e5:8b:db:bb:75:d6:9b:3f:0b:e1:a4:48:0f:3e:bf:01:17:
        28:a2:44:d6:08:1c:e4:3a:08:53:5d:60:bb:32:de:c2:c4:f2:
        f4:72:72:df:ae:1f:08:ff:b2:c1:b0:89:24:cd:19:b2:aa:d4:
        47:86:20:45:61:59:ef:79:43:32:4a:ea:31:5d:2b:46:2b:c2:
        ee:f0:43:9b:34:a2:a7:bf:0d:ca:a9:a3:68:52:09:12:12:95:
        1d:c9:58:36:14:0e:f3:8d:06:c0:4c:70:db:67:a4:8d:18:a1:
        2d:56:eb:b0:23:1f:eb:e9:28:20:c4:2e:d8:37:be:28:90:87:
        4e:92:ed:13:fd:ba:c6:3a:04:2e:f8:0c:aa:f1:38:9e:1a:5a:
        9e:1d:e0:01:bd:b1:c6:2b:38:05:b6:ba:9c:3f:70:67:ae:32:
        32:cb:92:0d
-----BEGIN CERTIFICATE-----
MIIDujCCAqKgAwIBAgIUFrUT+3nXvwz1SypQTJpo0Img8p0wDQYJKoZIhvcNAQEL
BQAwFzEVMBMGA1UEAwwMSW50ZXJtZWRpYXRlMB4XDTIyMTAwNTEyMDAwMFoXDTIz
MTAwNTEyMDAwMFowETEPMA0GA1UEAwwGVGFyZ2V0MIIBIjANBgkqhkiG9w0BAQEF
AAOCAQ8AMIIBCgKCAQEAri6LGI33diyUDD+gtupwH17ISMWqrVVrvVVoDY7O5Zkn
xSyymimpj47DxpeJbTHXpI/YNjdPM8fWQgMRCMR/NYzuDxt6MXQEqgHTHotbAZ1g
S5zRjx6r5dyPF3dJ4/bVgqUvCujcn5YeKqFB0WcsnvN/lAxuz19VUjcF0Dk3Gm4R
7dv6qpKnT1ApB2mvHaeZ+uFW8AM4sK5r5xkL3cMHMY6EBKW067i8I/NAsBe0q54/
BZaJ/IQjzNEGwuSLxmX1JOtyMbxBfTrJVQgM7qauH3gX+Kede7GC9c6Ca6iyxoq5
vqXYOfRJ4kxTMoUmU01EztU7oGvn2QKhWu/hpYGn+wIDAQABo4IBAjCB/zAdBgNV
HQ4EFgQU67AcvbdouNG5isKfXc/dr/JicIowHwYDVR0jBBgwFoAU7saaZcz7zqA+
FwL5aBKGtiIJYLQwPwYIKwYBBQUHAQEEMzAxMC8GCCsGAQUFBzAChiNodHRwOi8v
dXJsLWZvci1haWEvSW50ZXJtZWRpYXRlLmNlcjA0BgNVHR8ELTArMCmgJ6AlhiNo
dHRwOi8vdXJsLWZvci1jcmwvSW50ZXJtZWRpYXRlLmNybDAOBgNVHQ8BAf8EBAMC
BaAwHQYDVR0lBBYwFAYIKwYBBQUHAwEGCCsGAQUFBwMCMBcGA1UdEQQQMA6CDHRl
c3QuZXhhbXBsZTANBgkqhkiG9w0BAQsFAAOCAQEAw60XLGLw0L18uB+nQ22CU48+
CZ70pxO/cOdxkYAMRKTg5xEyYqPLdNLUH2qRbaMCfJu5l2z/f2v1OcMQrmhUl2f6
wsUvSXOTekcrjs7udjLFap3LaiAiNA+myuWL27t11ps/C+GkSA8+vwEXKKJE1ggc
5DoIU11guzLewsTy9HJy364fCP+ywbCJJM0ZsqrUR4YgRWFZ73lDMkrqMV0rRivC
7vBDmzSip78NyqmjaFIJEhKVHclYNhQO840GwExw22ekjRihLVbrsCMf6+koIMQu
2De+KJCHTpLtE/26xjoELvgMqvE4nhpanh3gAb2xxis4Bba6nD9wZ64yMsuSDQ==
-----END CERTIFICATE-----

Certificate:
    Data:
        Version: 3 (0x2)
        Serial Number:
            42:e0:1e:36:75:40:12:16:19:8d:07:a8:3f:9b:ff:e1:59:bc:6a:9e
        Signature Algorithm: sha1WithRSAEncryption
        Issuer: CN=Root
        Validity
            Not Before: Oct  5 12:00:00 2022 GMT
            Not After : Oct  5 12:00:00 2023 GMT
        Subject: CN=Intermediate
        Subject Public Key Info:
            Public Key Algorithm: rsaEncryption
                Public-Key: (2048 bit)
                Modulus:
                    00:d1:41:40:6f:cb:25:05:d9:29:d0:a3:c7:fe:2f:
                    f0:53:ad:46:36:19:aa:b1:1f:3f:7a:a2:e0:fb:03:
                    2b:77:65:6a:79:eb:f3:a3:16:13:34:83:3b:42:de:
                    a2:bb:e2:bf:d8:d2:75:3d:48:38:86:bb:2a:7d:14:
                    a3:88:f7:7c:00:f4:0a:6b:6b:aa:9b:44:24:62:fe:
                    db:a3:42:55:15:67:2a:32:ff:b2:4d:80:93:d0:84:
                    ef:1b:dc:7c:ac:56:2d:54:08:02:f6:18:6e:b5:80:
                    a8:77:52:1f:b8:2c:09:6d:cc:f8:1c:04:91:62:6e:
                    1e:dd:1d:89:b2:f1:23:0b:4d:4c:6c:da:49:3d:61:
                    83:72:0f:66:36:12:3f:f3:ff:53:52:73:53:a1:ca:
                    38:bd:c3:48:bf:7a:2f:13:19:d7:c2:28:e1:6f:32:
                    00:5e:64:ac:4b:05:7a:77:62:57:55:a9:59:83:d5:
                    ed:a3:2e:28:34:71:79:2f:b9:c3:9e:df:b3:2a:b1:
                    59:cd:04:00:1d:8b:11:56:ae:c6:67:f6:4f:1d:58:
                    07:65:e0:b0:2f:ef:57:6d:de:c1:a0:7c:6e:38:a8:
                    45:26:21:96:e0:f6:ef:0e:28:cf:01:70:57:dc:20:
                    15:08:ad:e8:e3:98:74:8c:54:32:c1:28:17:e0:de:
                    a1:8b
                Exponent: 65537 (0x10001)
        X509v3 extensions:
            X509v3 Subject Key Identifier: 
                EE:C6:9A:65:CC:FB:CE:A0:3E:17:02:F9:68:12:86:B6:22:09:60:B4
            X509v3 Authority Key Identifier: 
                42:75:41:34:C5:59:9F:99:A3:9B:1C:0C:57:DB:5C:C7:C1:48:B7:91
            Authority Information Access: 
                CA Issuers - URI:http://url-for-aia/Root.cer
            X509v3 CRL Distribution Points: 
                Full Name:
                  URI:http://url-for-crl/Root.crl
            X509v3 Key Usage: critical
                Certificate Sign, CRL Sign
            X509v3 Basic Constraints: critical
                CA:TRUE
            X509v3 Extended Key Usage: 
                Netscape Server Gated Crypto
    Signature Algorithm: sha1WithRSAEncryption
    Signature Value:
        37:3e:43:d3:6e:e8:bd:07:62:e5:94:f5:d8:19:eb:63:a4:40:
        6b:9d:61:9a:d3:fe:38:e9:2e:1e:30:87:5d:1c:fd:b7:5e:f6:
        ba:2e:f2:69:3c:11:e5:63:23:c9:a5:7a:f0:39:45:61:03:e4:
        f6:5b:80:43:a3:fc:a9:ae:98:94:dc:83:93:f7:ea:02:a8:71:
        30:0e:42:0f:3d:8c:e0:2a:4f:ff:25:5c:4e:90:94:12:46:6f:
        4e:cb:62:2a:52:3a:75:26:6a:1c:14:33:7a:78:00:a1:ac:43:
        67:f9:28:29:63:f2:52:0e:07:b2:5b:e4:e9:e8:aa:e2:41:4e:
        98:64:72:22:b7:eb:5c:32:c7:82:d9:99:7c:2d:a7:60:f4:4e:
        86:91:57:26:95:51:c1:ad:67:d6:9a:d4:de:2b:1c:72:80:00:
        24:e6:e2:26:34:00:6d:3b:fe:35:36:60:0f:43:53:3c:03:fa:
        c7:c1:0a:ed:43:4f:c4:cd:3c:20:66:fb:5b:e4:ed:4e:9e:21:
        ed:d5:f6:87:05:12:df:78:29:90:20:06:4e:b6:26:e4:a5:f0:
        1d:5a:19:d5:5e:74:8d:f1:f2:bd:9a:ac:a9:2c:d8:03:6b:a6:
        02:49:2f:10:3b:a8:ac:20:4b:e9:72:e9:37:90:0a:ea:9c:ea:
        30:be:49:2f
-----BEGIN CERTIFICATE-----
MIIDljCCAn6gAwIBAgIUQuAeNnVAEhYZjQeoP5v/4Vm8ap4wDQYJKoZIhvcNAQEF
BQAwDzENMAsGA1UEAwwEUm9vdDAeFw0yMjEwMDUxMjAwMDBaFw0yMzEwMDUxMjAw
MDBaMBcxFTATBgNVBAMMDEludGVybWVkaWF0ZTCCASIwDQYJKoZIhvcNAQEBBQAD
ggEPADCCAQoCggEBANFBQG/LJQXZKdCjx/4v8FOtRjYZqrEfP3qi4PsDK3dlannr
86MWEzSDO0Leorviv9jSdT1IOIa7Kn0Uo4j3fAD0CmtrqptEJGL+26NCVRVnKjL/
sk2Ak9CE7xvcfKxWLVQIAvYYbrWAqHdSH7gsCW3M+BwEkWJuHt0dibLxIwtNTGza
ST1hg3IPZjYSP/P/U1JzU6HKOL3DSL96LxMZ18Io4W8yAF5krEsFendiV1WpWYPV
7aMuKDRxeS+5w57fsyqxWc0EAB2LEVauxmf2Tx1YB2XgsC/vV23ewaB8bjioRSYh
luD27w4ozwFwV9wgFQit6OOYdIxUMsEoF+DeoYsCAwEAAaOB4TCB3jAdBgNVHQ4E
FgQU7saaZcz7zqA+FwL5aBKGtiIJYLQwHwYDVR0jBBgwFoAUQnVBNMVZn5mjmxwM
V9tcx8FIt5EwNwYIKwYBBQUHAQEEKzApMCcGCCsGAQUFBzAChhtodHRwOi8vdXJs
LWZvci1haWEvUm9vdC5jZXIwLAYDVR0fBCUwIzAhoB+gHYYbaHR0cDovL3VybC1m
b3ItY3JsL1Jvb3QuY3JsMA4GA1UdDwEB/wQEAwIBBjAPBgNVHRMBAf8EBTADAQH/
MBQGA1UdJQQNMAsGCWCGSAGG+EIEATANBgkqhkiG9w0BAQUFAAOCAQEANz5D027o
vQdi5ZT12BnrY6RAa51hmtP+OOkuHjCHXRz9t172ui7yaTwR5WMjyaV68DlFYQPk
9luAQ6P8qa6YlNyDk/fqAqhxMA5CDz2M4CpP/yVcTpCUEkZvTstiKlI6dSZqHBQz
engAoaxDZ/koKWPyUg4Hslvk6eiq4kFOmGRyIrfrXDLHgtmZfC2nYPROhpFXJpVR
wa1n1prU3isccoAAJObiJjQAbTv+NTZgD0NTPAP6x8EK7UNPxM08IGb7W+TtTp4h
7dX2hwUS33gpkCAGTrYm5KXwHVoZ1V50jfHyvZqsqSzYA2umAkkvEDuorCBL6XLp
N5AK6pzqML5JLw==
-----END CERTIFICATE-----

Certificate:
    Data:
        Version: 3 (0x2)
        Serial Number:
            42:e0:1e:36:75:40:12:16:19:8d:07:a8:3f:9b:ff:e1:59:bc:6a:9d
        Signature Algorithm: sha256WithRSAEncryption
        Issuer: CN=Root
        Validity
            Not Before: Oct  5 12:00:00 2022 GMT
            Not After : Oct  5 12:00:00 2023 GMT
        Subject: CN=Root
        Subject Public Key Info:
            Public Key Algorithm: rsaEncryption
                Public-Key: (2048 bit)
                Modulus:
                    00:c3:96:66:c7:e7:fd:21:14:ec:df:4a:05:1a:8c:
                    22:da:8f:3e:b7:8e:ca:a2:de:d7:e3:08:05:cd:28:
                    1c:da:d4:99:ba:ad:de:92:07:44:18:55:e7:b5:41:
                    6b:38:64:18:06:ab:6c:b8:ad:3d:b8:4e:c8:fa:8c:
                    fc:58:2c:2c:a8:42:08:28:b4:85:2a:aa:57:e2:a8:
                    76:4a:6e:fe:38:2f:d1:14:c6:52:6f:05:a4:89:54:
                    c2:0f:f0:93:83:09:b7:55:56:94:7b:57:65:87:09:
                    dd:61:ea:1a:02:3c:24:a5:cc:2d:d3:7c:0a:dc:2e:
                    67:a2:7f:91:ad:b4:76:76:02:ac:7f:85:5f:61:86:
                    0c:60:15:a0:82:7f:85:16:f4:10:8d:49:27:e4:33:
                    58:75:55:6b:5a:ab:c7:d1:bd:3d:a8:3b:68:1b:b4:
                    de:68:89:c4:87:fe:87:04:d4:52:f3:8f:fa:2e:44:
                    79:c1:62:46:b7:88:4c:bb:75:61:fd:e6:c5:6a:fb:
                    a8:3b:ef:a7:e6:1a:1e:44:2d:61:a7:4e:63:5e:66:
                    b8:f7:85:60:74:8b:ea:20:82:84:84:71:f5:1d:c6:
                    0c:c2:ee:11:78:01:ae:44:5a:e3:7b:97:2e:01:d0:
                    18:91:77:01:23:7f:d2:21:73:f4:f3:9a:94:ad:93:
                    2e:a1
                Exponent: 65537 (0x10001)
        X509v3 extensions:
            X509v3 Subject Key Identifier: 
                42:75:41:34:C5:59:9F:99:A3:9B:1C:0C:57:DB:5C:C7:C1:48:B7:91
            X509v3 Authority Key Identifier: 
                42:75:41:34:C5:59:9F:99:A3:9B:1C:0C:57:DB:5C:C7:C1:48:B7:91
            Authority Information Access: 
                CA Issuers - URI:http://url-for-aia/Root.cer
            X509v3 CRL Distribution Points: 
                Full Name:
                  URI:http://url-for-crl/Root.crl
            X509v3 Key Usage: critical
                Certificate Sign, CRL Sign
            X509v3 Basic Constraints: critical
                CA:TRUE
    Signature Algorithm: sha256WithRSAEncryption
    Signature Value:
        37:26:80:90:03:37:cd:b4:70:39:98:dc:78:a0:19:63:00:1d:
        c3:70:05:8e:d2:f4:3a:7b:31:d5:47:af:47:1a:35:8c:56:05:
        23:56:7c:1c:23:31:ee:48:bf:74:58:e7:00:51:1d:cc:aa:ba:
        77:50:22:d9:63:1f:e5:d1:2e:55:96:8f:c3:03:1f:0c:c9:00:
        e1:a7:3c:94:e0:f1:82:6e:79:31:fd:33:34:3a:76:d1:8a:27:
        d0:19:b9:70:7d:90:6e:8a:d1:40:13:2a:70:b0:44:e2:8a:3f:
        65:ca:58:ec:dd:a0:8d:98:fd:cc:ed:c8:f6:1c:c5:09:8f:77:
        05:3c:09:d9:00:ca:84:4f:3e:48:b9:d5:a8:29:72:ed:c4:cb:
        fa:b3:e2:cd:d6:af:bf:10:65:35:8a:2d:ac:01:ca:30:1a:d1:
        51:04:f7:cf:51:bd:07:b5:f9:d6:28:ea:d7:9f:b9:b1:c5:80:
        95:4e:d6:95:df:d7:a6:4f:2f:62:aa:50:e3:34:c9:59:a0:9a:
        47:bb:64:c3:65:44:95:d3:13:ef:41:87:80:87:3c:f7:02:ad:
        34:ee:f3:87:d3:32:71:27:09:4a:a5:0f:0f:11:2d:f2:b5:c9:
        90:ed:a3:5f:1c:fc:56:5a:6e:f5:7d:f2:8b:75:9c:75:80:ca:
        9b:c0:bc:47
-----BEGIN CERTIFICATE-----
MIIDeDCCAmCgAwIBAgIUQuAeNnVAEhYZjQeoP5v/4Vm8ap0wDQYJKoZIhvcNAQEL
BQAwDzENMAsGA1UEAwwEUm9vdDAeFw0yMjEwMDUxMjAwMDBaFw0yMzEwMDUxMjAw
MDBaMA8xDTALBgNVBAMMBFJvb3QwggEiMA0GCSqGSIb3DQEBAQUAA4IBDwAwggEK
AoIBAQDDlmbH5/0hFOzfSgUajCLajz63jsqi3tfjCAXNKBza1Jm6rd6SB0QYVee1
QWs4ZBgGq2y4rT24Tsj6jPxYLCyoQggotIUqqlfiqHZKbv44L9EUxlJvBaSJVMIP
8JODCbdVVpR7V2WHCd1h6hoCPCSlzC3TfArcLmeif5GttHZ2Aqx/hV9hhgxgFaCC
f4UW9BCNSSfkM1h1VWtaq8fRvT2oO2gbtN5oicSH/ocE1FLzj/ouRHnBYka3iEy7
dWH95sVq+6g776fmGh5ELWGnTmNeZrj3hWB0i+oggoSEcfUdxgzC7hF4Aa5EWuN7
ly4B0BiRdwEjf9Ihc/TzmpStky6hAgMBAAGjgcswgcgwHQYDVR0OBBYEFEJ1QTTF
WZ+Zo5scDFfbXMfBSLeRMB8GA1UdIwQYMBaAFEJ1QTTFWZ+Zo5scDFfbXMfBSLeR
MDcGCCsGAQUFBwEBBCswKTAnBggrBgEFBQcwAoYbaHR0cDovL3VybC1mb3ItYWlh
L1Jvb3QuY2VyMCwGA1UdHwQlMCMwIaAfoB2GG2h0dHA6Ly91cmwtZm9yLWNybC9S
b290LmNybDAOBgNVHQ8BAf8EBAMCAQYwDwYDVR0TAQH/BAUwAwEB/zANBgkqhkiG
9w0BAQsFAAOCAQEANyaAkAM3zbRwOZjceKAZYwAdw3AFjtL0Onsx1UevRxo1jFYF
I1Z8HCMx7ki/dFjnAFEdzKq6d1Ai2WMf5dEuVZaPwwMfDMkA4ac8lODxgm55Mf0z
NDp20Yon0Bm5cH2QborRQBMqcLBE4oo/ZcpY7N2gjZj9zO3I9hzFCY93BTwJ2QDK
hE8+SLnVqCly7cTL+rPizdavvxBlNYotrAHKMBrRUQT3z1G9B7X51ijq15+5scWA
lU7Wld/Xpk8vYqpQ4zTJWaCaR7tkw2VEldMT70GHgIc89wKtNO7zh9MycScJSqUP
DxEt8rXJkO2jXxz8Vlpu9X3yi3WcdYDKm8C8Rw==
-----END CERTIFICATE-----
