[Created by: generate-chains.py]

Generates certificate chains where the intermediate contains netscape server
gated crypto rather than serverAuth.

Certificate:
    Data:
        Version: 3 (0x2)
        Serial Number:
            16:b5:13:fb:79:d7:bf:0c:f5:4b:2a:50:4c:9a:68:d0:89:a0:f2:9e
        Signature Algorithm: sha256WithRSAEncryption
        Issuer: CN=Intermediate
        Validity
            Not Before: Nov  3 12:00:00 2020 GMT
            Not After : Nov  3 12:00:00 2021 GMT
        Subject: CN=Target
        Subject Public Key Info:
            Public Key Algorithm: rsaEncryption
                RSA Public-Key: (2048 bit)
                Modulus:
                    00:c8:af:a5:d9:15:56:dd:ec:b1:41:dd:34:36:48:
                    ab:5a:3f:2e:6a:14:16:38:1f:c2:ad:27:64:f2:72:
                    54:a1:81:73:9c:fd:3a:37:2c:64:f9:e2:0a:bd:0f:
                    74:9a:70:ea:9c:6e:c9:64:e9:92:a4:bf:9a:30:2c:
                    9a:8f:4c:eb:12:1e:58:08:f5:6a:4b:72:e0:a8:a9:
                    22:81:ca:cd:7c:78:cd:24:9b:90:8a:7d:ac:79:cf:
                    40:a9:d0:f6:a4:78:ef:fd:c3:b3:9d:d3:ea:51:ee:
                    c7:ed:f5:2b:36:5c:50:11:be:44:a9:29:cd:d6:79:
                    bc:bd:5b:a5:46:d1:a7:86:a5:86:2a:73:f5:ba:f9:
                    f4:5e:9c:94:9e:95:81:ec:42:f9:83:f1:4e:a6:eb:
                    c9:a1:3c:e9:97:80:cb:ee:4d:06:45:75:a7:38:db:
                    f2:a9:17:12:46:f1:99:1f:40:48:89:a0:bd:07:46:
                    a5:ab:11:03:fb:a5:2c:a2:c9:bc:f7:07:e5:9f:ce:
                    24:26:3e:a1:a8:ac:fe:ad:09:64:00:d9:da:3c:c8:
                    09:c3:bc:c7:64:b9:93:c2:b9:39:4e:3c:a0:7c:9c:
                    14:fc:e5:bd:1f:1e:fc:4d:e8:e5:aa:9d:ff:33:ed:
                    f7:10:0e:72:da:81:79:e9:1e:f3:65:03:b0:13:77:
                    30:a5
                Exponent: 65537 (0x10001)
        X509v3 extensions:
            X509v3 Subject Key Identifier: 
                63:59:54:71:BD:5B:C7:56:B3:FE:AE:DA:EF:DE:59:E2:60:69:B3:2C
            X509v3 Authority Key Identifier: 
                keyid:34:04:CA:F4:40:13:44:0C:86:E8:1F:47:3F:F0:E8:23:D6:EE:02:09

            Authority Information Access: 
                CA Issuers - URI:http://url-for-aia/Intermediate.cer

            X509v3 CRL Distribution Points: 

                Full Name:
                  URI:http://url-for-crl/Intermediate.crl

            X509v3 Key Usage: critical
                Digital Signature, Key Encipherment
            X509v3 Extended Key Usage: 
                TLS Web Server Authentication, TLS Web Client Authentication
            X509v3 Subject Alternative Name: 
                DNS:test.example
    Signature Algorithm: sha256WithRSAEncryption
         05:09:b9:df:28:3b:3d:5b:33:58:d1:21:1c:a7:51:35:bf:4e:
         42:7d:2c:74:a9:07:7c:72:81:19:d0:01:da:b3:64:1e:f8:34:
         69:bb:98:5f:a1:a6:cb:89:4b:e0:0a:ed:b4:63:7f:19:a3:c7:
         f4:a1:dd:8a:b4:c0:bf:d3:02:8a:2c:0f:cf:a6:b0:d5:61:76:
         c5:50:78:10:df:5c:2f:70:13:e1:dd:97:9b:50:dd:a1:2f:b1:
         1c:aa:2f:c5:19:ec:3c:13:a4:8d:af:28:7e:56:fe:69:92:c4:
         aa:b4:65:a5:c6:b9:e2:e4:8e:40:6c:8f:83:cb:6d:83:a9:44:
         f6:e6:da:d5:30:fb:a0:48:0f:dc:b7:9a:b2:c4:8c:71:db:3f:
         41:c0:76:0e:02:ec:77:05:42:50:67:74:50:7a:02:76:42:fd:
         a7:40:50:bc:a2:29:ff:c9:53:13:a4:15:f6:1a:d2:66:6e:94:
         1d:c6:72:ef:79:b6:bb:0b:4f:b6:54:1e:16:2f:b3:aa:ad:c5:
         6c:84:9a:b0:fe:f4:06:3c:a5:9e:39:dc:f5:2c:20:54:dc:91:
         71:d2:21:2b:b2:8c:23:1f:e1:89:ca:9c:ad:1d:d6:8c:2c:03:
         c6:e8:80:6e:35:7e:e5:d4:4d:23:91:58:02:3b:0a:66:f3:8a:
         1a:3e:fa:3e
-----BEGIN CERTIFICATE-----
MIIDujCCAqKgAwIBAgIUFrUT+3nXvwz1SypQTJpo0Img8p4wDQYJKoZIhvcNAQEL
BQAwFzEVMBMGA1UEAwwMSW50ZXJtZWRpYXRlMB4XDTIwMTEwMzEyMDAwMFoXDTIx
MTEwMzEyMDAwMFowETEPMA0GA1UEAwwGVGFyZ2V0MIIBIjANBgkqhkiG9w0BAQEF
AAOCAQ8AMIIBCgKCAQEAyK+l2RVW3eyxQd00NkirWj8uahQWOB/CrSdk8nJUoYFz
nP06Nyxk+eIKvQ90mnDqnG7JZOmSpL+aMCyaj0zrEh5YCPVqS3LgqKkigcrNfHjN
JJuQin2sec9AqdD2pHjv/cOzndPqUe7H7fUrNlxQEb5EqSnN1nm8vVulRtGnhqWG
KnP1uvn0XpyUnpWB7EL5g/FOpuvJoTzpl4DL7k0GRXWnONvyqRcSRvGZH0BIiaC9
B0alqxED+6Usosm89wfln84kJj6hqKz+rQlkANnaPMgJw7zHZLmTwrk5TjygfJwU
/OW9Hx78Tejlqp3/M+33EA5y2oF56R7zZQOwE3cwpQIDAQABo4IBAjCB/zAdBgNV
HQ4EFgQUY1lUcb1bx1az/q7a795Z4mBpsywwHwYDVR0jBBgwFoAUNATK9EATRAyG
6B9HP/DoI9buAgkwPwYIKwYBBQUHAQEEMzAxMC8GCCsGAQUFBzAChiNodHRwOi8v
dXJsLWZvci1haWEvSW50ZXJtZWRpYXRlLmNlcjA0BgNVHR8ELTArMCmgJ6AlhiNo
dHRwOi8vdXJsLWZvci1jcmwvSW50ZXJtZWRpYXRlLmNybDAOBgNVHQ8BAf8EBAMC
BaAwHQYDVR0lBBYwFAYIKwYBBQUHAwEGCCsGAQUFBwMCMBcGA1UdEQQQMA6CDHRl
c3QuZXhhbXBsZTANBgkqhkiG9w0BAQsFAAOCAQEABQm53yg7PVszWNEhHKdRNb9O
Qn0sdKkHfHKBGdAB2rNkHvg0abuYX6Gmy4lL4ArttGN/GaPH9KHdirTAv9MCiiwP
z6aw1WF2xVB4EN9cL3AT4d2Xm1DdoS+xHKovxRnsPBOkja8oflb+aZLEqrRlpca5
4uSOQGyPg8ttg6lE9uba1TD7oEgP3LeassSMcds/QcB2DgLsdwVCUGd0UHoCdkL9
p0BQvKIp/8lTE6QV9hrSZm6UHcZy73m2uwtPtlQeFi+zqq3FbISasP70Bjylnjnc
9SwgVNyRcdIhK7KMIx/hicqcrR3WjCwDxuiAbjV+5dRNI5FYAjsKZvOKGj76Pg==
-----END CERTIFICATE-----

Certificate:
    Data:
        Version: 3 (0x2)
        Serial Number:
            42:e0:1e:36:75:40:12:16:19:8d:07:a8:3f:9b:ff:e1:59:bc:6a:a0
        Signature Algorithm: sha256WithRSAEncryption
        Issuer: CN=Root
        Validity
            Not Before: Nov  3 12:00:00 2020 GMT
            Not After : Nov  3 12:00:00 2021 GMT
        Subject: CN=Intermediate
        Subject Public Key Info:
            Public Key Algorithm: rsaEncryption
                RSA Public-Key: (2048 bit)
                Modulus:
                    00:9a:21:10:93:91:7b:75:0d:a8:b0:51:a1:b8:2c:
                    87:b9:1c:9f:63:63:7a:f5:03:a3:89:4c:5e:b5:03:
                    e9:50:32:c2:e2:30:68:9e:16:ec:ee:70:15:74:47:
                    0f:cd:ea:5d:61:28:1d:0b:3f:37:39:83:ae:f0:64:
                    05:83:15:e6:2d:cb:e9:69:1d:98:bd:3a:cf:25:f6:
                    21:a2:cf:e8:57:ac:bb:97:32:66:51:bb:c3:3f:4c:
                    f9:e8:ac:27:30:00:e5:e3:f5:64:f1:e4:f2:79:93:
                    6a:56:f6:99:28:81:f2:23:13:ac:97:e2:39:d0:80:
                    91:8e:f2:c5:30:cd:46:71:3c:88:ca:03:b5:74:a2:
                    dc:db:e1:ae:70:2a:42:b1:99:b8:d5:48:60:2f:1e:
                    da:d3:1f:27:8b:6c:12:40:3d:5d:eb:0d:e8:f0:e3:
                    f0:4a:8b:cd:74:62:e8:06:44:ca:d8:5e:2a:6d:09:
                    4d:7b:8e:47:1c:04:12:da:ea:e5:6f:6c:41:2c:23:
                    1d:39:83:d0:44:a5:7c:c6:13:0e:6c:73:2a:06:71:
                    4f:65:ba:b1:5e:db:d3:ec:ca:ae:40:5e:24:87:63:
                    2d:ae:4b:d5:f6:4c:25:fc:3f:d9:6e:96:65:c8:b2:
                    8b:1a:a3:ed:33:b4:3a:f3:cc:4a:c5:fc:66:81:3f:
                    89:59
                Exponent: 65537 (0x10001)
        X509v3 extensions:
            X509v3 Subject Key Identifier: 
                34:04:CA:F4:40:13:44:0C:86:E8:1F:47:3F:F0:E8:23:D6:EE:02:09
            X509v3 Authority Key Identifier: 
                keyid:4E:42:54:6A:32:D3:BE:9E:70:41:47:41:3E:90:BA:86:3F:D4:FD:6C

            Authority Information Access: 
                CA Issuers - URI:http://url-for-aia/Root.cer

            X509v3 CRL Distribution Points: 

                Full Name:
                  URI:http://url-for-crl/Root.crl

            X509v3 Key Usage: critical
                Certificate Sign, CRL Sign
            X509v3 Basic Constraints: critical
                CA:TRUE
            X509v3 Extended Key Usage: 
                Netscape Server Gated Crypto
    Signature Algorithm: sha256WithRSAEncryption
         88:7f:e6:48:fd:5e:38:82:57:78:fc:5b:ca:de:08:93:77:97:
         4f:99:d9:43:fd:89:b5:d0:e3:9b:b6:af:d5:fc:6d:d3:af:b2:
         e2:dd:4c:83:8a:19:cb:49:32:b6:41:6d:a2:53:e3:64:a7:d5:
         65:66:fc:9c:90:9e:73:c0:41:39:fa:aa:aa:15:5d:5c:73:ac:
         1b:4b:ca:57:99:17:ba:67:de:63:87:db:48:71:2c:5e:3e:67:
         6b:e9:d1:f5:08:11:a3:ba:d6:6b:4d:c3:d9:c2:64:56:b3:50:
         90:ec:13:bb:b2:79:ff:7d:56:de:d2:3e:78:8c:8a:b1:dd:0a:
         a4:5f:92:8f:be:26:e3:fb:24:fb:4b:bf:19:fe:51:9a:72:01:
         71:eb:e0:1d:93:fa:34:b1:b9:1c:0f:f2:b6:26:13:17:d6:d6:
         89:b7:e6:d3:ea:9f:64:ea:f0:00:15:5d:12:36:52:0a:d3:00:
         35:5b:16:ec:02:e7:db:ce:5e:c6:46:48:fe:45:11:65:75:b9:
         6d:bf:0e:36:2b:56:6b:57:24:62:35:78:22:2d:27:e9:79:2e:
         85:c7:d3:30:a0:95:81:44:23:24:43:10:f4:ba:9b:76:00:7a:
         34:30:51:70:7f:27:eb:78:6d:cb:10:5a:6d:18:66:1d:8d:0d:
         a7:67:61:f9
-----BEGIN CERTIFICATE-----
MIIDljCCAn6gAwIBAgIUQuAeNnVAEhYZjQeoP5v/4Vm8aqAwDQYJKoZIhvcNAQEL
BQAwDzENMAsGA1UEAwwEUm9vdDAeFw0yMDExMDMxMjAwMDBaFw0yMTExMDMxMjAw
MDBaMBcxFTATBgNVBAMMDEludGVybWVkaWF0ZTCCASIwDQYJKoZIhvcNAQEBBQAD
ggEPADCCAQoCggEBAJohEJORe3UNqLBRobgsh7kcn2NjevUDo4lMXrUD6VAywuIw
aJ4W7O5wFXRHD83qXWEoHQs/NzmDrvBkBYMV5i3L6WkdmL06zyX2IaLP6Fesu5cy
ZlG7wz9M+eisJzAA5eP1ZPHk8nmTalb2mSiB8iMTrJfiOdCAkY7yxTDNRnE8iMoD
tXSi3NvhrnAqQrGZuNVIYC8e2tMfJ4tsEkA9XesN6PDj8EqLzXRi6AZEytheKm0J
TXuORxwEEtrq5W9sQSwjHTmD0ESlfMYTDmxzKgZxT2W6sV7b0+zKrkBeJIdjLa5L
1fZMJfw/2W6WZciyixqj7TO0OvPMSsX8ZoE/iVkCAwEAAaOB4TCB3jAdBgNVHQ4E
FgQUNATK9EATRAyG6B9HP/DoI9buAgkwHwYDVR0jBBgwFoAUTkJUajLTvp5wQUdB
PpC6hj/U/WwwNwYIKwYBBQUHAQEEKzApMCcGCCsGAQUFBzAChhtodHRwOi8vdXJs
LWZvci1haWEvUm9vdC5jZXIwLAYDVR0fBCUwIzAhoB+gHYYbaHR0cDovL3VybC1m
b3ItY3JsL1Jvb3QuY3JsMA4GA1UdDwEB/wQEAwIBBjAPBgNVHRMBAf8EBTADAQH/
MBQGA1UdJQQNMAsGCWCGSAGG+EIEATANBgkqhkiG9w0BAQsFAAOCAQEAiH/mSP1e
OIJXePxbyt4Ik3eXT5nZQ/2JtdDjm7av1fxt06+y4t1Mg4oZy0kytkFtolPjZKfV
ZWb8nJCec8BBOfqqqhVdXHOsG0vKV5kXumfeY4fbSHEsXj5na+nR9QgRo7rWa03D
2cJkVrNQkOwTu7J5/31W3tI+eIyKsd0KpF+Sj74m4/sk+0u/Gf5RmnIBcevgHZP6
NLG5HA/ytiYTF9bWibfm0+qfZOrwABVdEjZSCtMANVsW7ALn285exkZI/kURZXW5
bb8ONitWa1ckYjV4Ii0n6XkuhcfTMKCVgUQjJEMQ9LqbdgB6NDBRcH8n63htyxBa
bRhmHY0Np2dh+Q==
-----END CERTIFICATE-----

Certificate:
    Data:
        Version: 3 (0x2)
        Serial Number:
            42:e0:1e:36:75:40:12:16:19:8d:07:a8:3f:9b:ff:e1:59:bc:6a:9f
        Signature Algorithm: sha256WithRSAEncryption
        Issuer: CN=Root
        Validity
            Not Before: Nov  3 12:00:00 2020 GMT
            Not After : Nov  3 12:00:00 2021 GMT
        Subject: CN=Root
        Subject Public Key Info:
            Public Key Algorithm: rsaEncryption
                RSA Public-Key: (2048 bit)
                Modulus:
                    00:e2:b0:53:05:80:84:a4:62:d7:02:96:95:55:ad:
                    63:c9:cd:d7:46:41:1a:cb:b7:0d:6c:70:75:05:e6:
                    ea:a8:f6:64:dd:9e:b8:f7:a3:da:05:50:14:ad:0b:
                    fd:1f:8d:7f:d0:03:ce:ec:7d:de:f3:5e:eb:8b:f0:
                    db:98:70:cc:c2:c0:a9:f7:2c:e7:27:04:a5:79:10:
                    47:6d:a7:80:22:ba:0e:0b:28:e5:2a:f1:69:14:a2:
                    dd:a4:a8:ac:67:76:a0:db:8b:78:c0:0b:7e:2c:9c:
                    65:f6:e5:40:b7:c0:ca:b3:f0:1e:74:69:77:45:38:
                    e1:8c:de:c9:1f:fc:67:28:ee:22:ae:4d:3d:8c:6b:
                    63:62:9f:bf:ef:67:7d:e6:ee:a4:d7:41:c2:62:c5:
                    f2:3c:49:af:f9:44:74:b4:a7:26:f8:bd:ed:57:ec:
                    ed:16:2c:42:77:3d:85:69:e8:48:7e:d7:70:05:21:
                    b9:15:96:0b:5a:5d:ac:ee:64:46:1b:4c:eb:58:b0:
                    fd:48:fe:c1:02:e7:d0:c0:0b:52:aa:e7:51:9c:93:
                    91:46:05:ed:23:2e:c3:0b:0e:50:0e:6e:38:ac:31:
                    69:7d:70:d2:40:dd:7d:41:3e:08:31:78:c6:e3:57:
                    1d:c5:53:e7:91:6d:de:bc:de:3f:2e:72:de:e2:a0:
                    63:0b
                Exponent: 65537 (0x10001)
        X509v3 extensions:
            X509v3 Subject Key Identifier: 
                4E:42:54:6A:32:D3:BE:9E:70:41:47:41:3E:90:BA:86:3F:D4:FD:6C
            X509v3 Authority Key Identifier: 
                keyid:4E:42:54:6A:32:D3:BE:9E:70:41:47:41:3E:90:BA:86:3F:D4:FD:6C

            Authority Information Access: 
                CA Issuers - URI:http://url-for-aia/Root.cer

            X509v3 CRL Distribution Points: 

                Full Name:
                  URI:http://url-for-crl/Root.crl

            X509v3 Key Usage: critical
                Certificate Sign, CRL Sign
            X509v3 Basic Constraints: critical
                CA:TRUE
    Signature Algorithm: sha256WithRSAEncryption
         6c:da:ff:24:21:cc:b3:4b:79:99:eb:34:06:d0:75:9d:45:43:
         fe:87:6d:a5:60:eb:83:bd:55:17:f4:59:3d:a8:48:87:5f:c4:
         d4:05:88:62:14:73:69:1b:a3:c2:ef:17:96:3a:30:96:63:80:
         bf:cf:58:a7:b3:58:b1:23:8d:4f:cc:e7:5c:11:34:50:4d:0d:
         7d:7f:02:f0:e7:ed:75:1d:89:e1:01:b0:7b:3d:eb:41:37:c5:
         a0:c7:b7:22:c3:89:e4:5f:36:99:9f:d9:45:04:39:5c:21:dd:
         13:bd:9b:dc:d5:61:7e:5d:0a:50:38:1f:af:b0:1e:ac:8d:d0:
         e0:d1:d5:d1:96:b4:9f:d9:ab:3a:88:de:c1:97:85:f3:2d:2a:
         d3:18:03:4b:51:5e:f3:5d:0b:6d:13:47:32:e4:29:e2:54:85:
         fd:a8:2a:88:87:95:d3:1f:19:e7:68:47:c6:a1:36:ac:f0:56:
         bd:ab:62:e1:a1:c8:6e:c3:d8:36:34:15:d2:cf:29:1c:91:d8:
         65:f9:df:f1:dc:0d:a6:6b:09:6b:1f:f1:66:f5:41:66:09:6d:
         7f:21:70:9e:0a:3e:c3:1a:0b:50:f6:e9:58:69:a6:59:30:d2:
         d2:dd:8b:45:5f:94:48:d8:48:90:c5:f8:51:43:03:36:6e:6e:
         0b:f9:2c:7e
-----BEGIN CERTIFICATE-----
MIIDeDCCAmCgAwIBAgIUQuAeNnVAEhYZjQeoP5v/4Vm8ap8wDQYJKoZIhvcNAQEL
BQAwDzENMAsGA1UEAwwEUm9vdDAeFw0yMDExMDMxMjAwMDBaFw0yMTExMDMxMjAw
MDBaMA8xDTALBgNVBAMMBFJvb3QwggEiMA0GCSqGSIb3DQEBAQUAA4IBDwAwggEK
AoIBAQDisFMFgISkYtcClpVVrWPJzddGQRrLtw1scHUF5uqo9mTdnrj3o9oFUBSt
C/0fjX/QA87sfd7zXuuL8NuYcMzCwKn3LOcnBKV5EEdtp4Aiug4LKOUq8WkUot2k
qKxndqDbi3jAC34snGX25UC3wMqz8B50aXdFOOGM3skf/Gco7iKuTT2Ma2Nin7/v
Z33m7qTXQcJixfI8Sa/5RHS0pyb4ve1X7O0WLEJ3PYVp6Eh+13AFIbkVlgtaXazu
ZEYbTOtYsP1I/sEC59DAC1Kq51Gck5FGBe0jLsMLDlAObjisMWl9cNJA3X1BPggx
eMbjVx3FU+eRbd683j8uct7ioGMLAgMBAAGjgcswgcgwHQYDVR0OBBYEFE5CVGoy
076ecEFHQT6QuoY/1P1sMB8GA1UdIwQYMBaAFE5CVGoy076ecEFHQT6QuoY/1P1s
MDcGCCsGAQUFBwEBBCswKTAnBggrBgEFBQcwAoYbaHR0cDovL3VybC1mb3ItYWlh
L1Jvb3QuY2VyMCwGA1UdHwQlMCMwIaAfoB2GG2h0dHA6Ly91cmwtZm9yLWNybC9S
b290LmNybDAOBgNVHQ8BAf8EBAMCAQYwDwYDVR0TAQH/BAUwAwEB/zANBgkqhkiG
9w0BAQsFAAOCAQEAbNr/JCHMs0t5mes0BtB1nUVD/odtpWDrg71VF/RZPahIh1/E
1AWIYhRzaRujwu8XljowlmOAv89Yp7NYsSONT8znXBE0UE0NfX8C8OftdR2J4QGw
ez3rQTfFoMe3IsOJ5F82mZ/ZRQQ5XCHdE72b3NVhfl0KUDgfr7AerI3Q4NHV0Za0
n9mrOojewZeF8y0q0xgDS1Fe810LbRNHMuQp4lSF/agqiIeV0x8Z52hHxqE2rPBW
vati4aHIbsPYNjQV0s8pHJHYZfnf8dwNpmsJax/xZvVBZgltfyFwngo+wxoLUPbp
WGmmWTDS0t2LRV+USNhIkMX4UUMDNm5uC/ksfg==
-----END CERTIFICATE-----
