[Created by: generate-chains.py]

Generates certificate chains where the intermediate contains netscape server
gated crypto rather than serverAuth.

Certificate:
    Data:
        Version: 3 (0x2)
        Serial Number:
            16:b5:13:fb:79:d7:bf:0c:f5:4b:2a:50:4c:9a:68:d0:89:a0:f2:9e
        Signature Algorithm: sha256WithRSAEncryption
        Issuer: CN=Intermediate
        Validity
            Not Before: Oct  5 12:00:00 2022 GMT
            Not After : Oct  5 12:00:00 2023 GMT
        Subject: CN=Target
        Subject Public Key Info:
            Public Key Algorithm: rsaEncryption
                Public-Key: (2048 bit)
                Modulus:
                    00:c8:af:a5:d9:15:56:dd:ec:b1:41:dd:34:36:48:
                    ab:5a:3f:2e:6a:14:16:38:1f:c2:ad:27:64:f2:72:
                    54:a1:81:73:9c:fd:3a:37:2c:64:f9:e2:0a:bd:0f:
                    74:9a:70:ea:9c:6e:c9:64:e9:92:a4:bf:9a:30:2c:
                    9a:8f:4c:eb:12:1e:58:08:f5:6a:4b:72:e0:a8:a9:
                    22:81:ca:cd:7c:78:cd:24:9b:90:8a:7d:ac:79:cf:
                    40:a9:d0:f6:a4:78:ef:fd:c3:b3:9d:d3:ea:51:ee:
                    c7:ed:f5:2b:36:5c:50:11:be:44:a9:29:cd:d6:79:
                    bc:bd:5b:a5:46:d1:a7:86:a5:86:2a:73:f5:ba:f9:
                    f4:5e:9c:94:9e:95:81:ec:42:f9:83:f1:4e:a6:eb:
                    c9:a1:3c:e9:97:80:cb:ee:4d:06:45:75:a7:38:db:
                    f2:a9:17:12:46:f1:99:1f:40:48:89:a0:bd:07:46:
                    a5:ab:11:03:fb:a5:2c:a2:c9:bc:f7:07:e5:9f:ce:
                    24:26:3e:a1:a8:ac:fe:ad:09:64:00:d9:da:3c:c8:
                    09:c3:bc:c7:64:b9:93:c2:b9:39:4e:3c:a0:7c:9c:
                    14:fc:e5:bd:1f:1e:fc:4d:e8:e5:aa:9d:ff:33:ed:
                    f7:10:0e:72:da:81:79:e9:1e:f3:65:03:b0:13:77:
                    30:a5
                Exponent: 65537 (0x10001)
        X509v3 extensions:
            X509v3 Subject Key Identifier: 
                63:59:54:71:BD:5B:C7:56:B3:FE:AE:DA:EF:DE:59:E2:60:69:B3:2C
            X509v3 Authority Key Identifier: 
                34:04:CA:F4:40:13:44:0C:86:E8:1F:47:3F:F0:E8:23:D6:EE:02:09
            Authority Information Access: 
                CA Issuers - URI:http://url-for-aia/Intermediate.cer
            X509v3 CRL Distribution Points: 
                Full Name:
                  URI:http://url-for-crl/Intermediate.crl
            X509v3 Key Usage: critical
                Digital Signature, Key Encipherment
            X509v3 Extended Key Usage: 
                TLS Web Server Authentication, TLS Web Client Authentication
            X509v3 Subject Alternative Name: 
                DNS:test.example
    Signature Algorithm: sha256WithRSAEncryption
    Signature Value:
        77:c3:3c:04:78:87:4d:90:89:97:21:b1:72:e3:f3:17:73:98:
        41:4d:e4:ed:8a:fc:43:c6:7c:c7:4d:93:15:d8:1a:d7:1c:e9:
        8c:67:49:de:b6:f8:51:61:f7:27:14:2c:8d:a9:9f:ff:7c:87:
        9d:37:14:c9:af:1d:90:76:68:13:0c:72:f3:5b:9d:7d:ad:0f:
        9f:23:cd:de:85:b7:c9:2a:98:75:64:e4:c8:43:49:38:30:f1:
        a2:83:9e:2f:42:b5:5f:bf:ab:4c:41:4b:a3:af:c9:b3:4a:24:
        6a:ee:b5:58:63:c3:63:1f:9a:cc:3c:63:30:0a:16:fe:0e:06:
        a2:02:5f:0d:60:77:c0:62:68:18:15:38:5e:a2:b8:d8:c3:8d:
        7d:d2:a1:2f:17:dc:5e:0d:a8:2a:5c:b2:92:a4:9d:65:0f:29:
        17:7e:27:93:c2:c3:83:22:3f:ca:f1:57:0f:0f:f3:6e:fd:21:
        0f:f2:aa:c0:75:8b:bb:49:a0:87:f9:44:a6:8c:99:36:3f:37:
        ce:95:2d:37:b1:7a:b0:3c:83:01:3f:20:e0:2a:d0:6a:5e:3d:
        c1:ca:6b:dc:1e:07:8e:56:5c:7f:0f:1c:0c:1a:c8:8d:a4:d3:
        b1:67:e3:b6:f8:4c:19:60:6e:7b:00:0f:d2:ea:83:25:ed:2b:
        90:be:09:99
-----BEGIN CERTIFICATE-----
MIIDujCCAqKgAwIBAgIUFrUT+3nXvwz1SypQTJpo0Img8p4wDQYJKoZIhvcNAQEL
BQAwFzEVMBMGA1UEAwwMSW50ZXJtZWRpYXRlMB4XDTIyMTAwNTEyMDAwMFoXDTIz
MTAwNTEyMDAwMFowETEPMA0GA1UEAwwGVGFyZ2V0MIIBIjANBgkqhkiG9w0BAQEF
AAOCAQ8AMIIBCgKCAQEAyK+l2RVW3eyxQd00NkirWj8uahQWOB/CrSdk8nJUoYFz
nP06Nyxk+eIKvQ90mnDqnG7JZOmSpL+aMCyaj0zrEh5YCPVqS3LgqKkigcrNfHjN
JJuQin2sec9AqdD2pHjv/cOzndPqUe7H7fUrNlxQEb5EqSnN1nm8vVulRtGnhqWG
KnP1uvn0XpyUnpWB7EL5g/FOpuvJoTzpl4DL7k0GRXWnONvyqRcSRvGZH0BIiaC9
B0alqxED+6Usosm89wfln84kJj6hqKz+rQlkANnaPMgJw7zHZLmTwrk5TjygfJwU
/OW9Hx78Tejlqp3/M+33EA5y2oF56R7zZQOwE3cwpQIDAQABo4IBAjCB/zAdBgNV
HQ4EFgQUY1lUcb1bx1az/q7a795Z4mBpsywwHwYDVR0jBBgwFoAUNATK9EATRAyG
6B9HP/DoI9buAgkwPwYIKwYBBQUHAQEEMzAxMC8GCCsGAQUFBzAChiNodHRwOi8v
dXJsLWZvci1haWEvSW50ZXJtZWRpYXRlLmNlcjA0BgNVHR8ELTArMCmgJ6AlhiNo
dHRwOi8vdXJsLWZvci1jcmwvSW50ZXJtZWRpYXRlLmNybDAOBgNVHQ8BAf8EBAMC
BaAwHQYDVR0lBBYwFAYIKwYBBQUHAwEGCCsGAQUFBwMCMBcGA1UdEQQQMA6CDHRl
c3QuZXhhbXBsZTANBgkqhkiG9w0BAQsFAAOCAQEAd8M8BHiHTZCJlyGxcuPzF3OY
QU3k7Yr8Q8Z8x02TFdga1xzpjGdJ3rb4UWH3JxQsjamf/3yHnTcUya8dkHZoEwxy
81udfa0PnyPN3oW3ySqYdWTkyENJODDxooOeL0K1X7+rTEFLo6/Js0okau61WGPD
Yx+azDxjMAoW/g4GogJfDWB3wGJoGBU4XqK42MONfdKhLxfcXg2oKlyykqSdZQ8p
F34nk8LDgyI/yvFXDw/zbv0hD/KqwHWLu0mgh/lEpoyZNj83zpUtN7F6sDyDAT8g
4CrQal49wcpr3B4HjlZcfw8cDBrIjaTTsWfjtvhMGWBuewAP0uqDJe0rkL4JmQ==
-----END CERTIFICATE-----

Certificate:
    Data:
        Version: 3 (0x2)
        Serial Number:
            42:e0:1e:36:75:40:12:16:19:8d:07:a8:3f:9b:ff:e1:59:bc:6a:a0
        Signature Algorithm: sha256WithRSAEncryption
        Issuer: CN=Root
        Validity
            Not Before: Oct  5 12:00:00 2022 GMT
            Not After : Oct  5 12:00:00 2023 GMT
        Subject: CN=Intermediate
        Subject Public Key Info:
            Public Key Algorithm: rsaEncryption
                Public-Key: (2048 bit)
                Modulus:
                    00:9a:21:10:93:91:7b:75:0d:a8:b0:51:a1:b8:2c:
                    87:b9:1c:9f:63:63:7a:f5:03:a3:89:4c:5e:b5:03:
                    e9:50:32:c2:e2:30:68:9e:16:ec:ee:70:15:74:47:
                    0f:cd:ea:5d:61:28:1d:0b:3f:37:39:83:ae:f0:64:
                    05:83:15:e6:2d:cb:e9:69:1d:98:bd:3a:cf:25:f6:
                    21:a2:cf:e8:57:ac:bb:97:32:66:51:bb:c3:3f:4c:
                    f9:e8:ac:27:30:00:e5:e3:f5:64:f1:e4:f2:79:93:
                    6a:56:f6:99:28:81:f2:23:13:ac:97:e2:39:d0:80:
                    91:8e:f2:c5:30:cd:46:71:3c:88:ca:03:b5:74:a2:
                    dc:db:e1:ae:70:2a:42:b1:99:b8:d5:48:60:2f:1e:
                    da:d3:1f:27:8b:6c:12:40:3d:5d:eb:0d:e8:f0:e3:
                    f0:4a:8b:cd:74:62:e8:06:44:ca:d8:5e:2a:6d:09:
                    4d:7b:8e:47:1c:04:12:da:ea:e5:6f:6c:41:2c:23:
                    1d:39:83:d0:44:a5:7c:c6:13:0e:6c:73:2a:06:71:
                    4f:65:ba:b1:5e:db:d3:ec:ca:ae:40:5e:24:87:63:
                    2d:ae:4b:d5:f6:4c:25:fc:3f:d9:6e:96:65:c8:b2:
                    8b:1a:a3:ed:33:b4:3a:f3:cc:4a:c5:fc:66:81:3f:
                    89:59
                Exponent: 65537 (0x10001)
        X509v3 extensions:
            X509v3 Subject Key Identifier: 
                34:04:CA:F4:40:13:44:0C:86:E8:1F:47:3F:F0:E8:23:D6:EE:02:09
            X509v3 Authority Key Identifier: 
                4E:42:54:6A:32:D3:BE:9E:70:41:47:41:3E:90:BA:86:3F:D4:FD:6C
            Authority Information Access: 
                CA Issuers - URI:http://url-for-aia/Root.cer
            X509v3 CRL Distribution Points: 
                Full Name:
                  URI:http://url-for-crl/Root.crl
            X509v3 Key Usage: critical
                Certificate Sign, CRL Sign
            X509v3 Basic Constraints: critical
                CA:TRUE
            X509v3 Extended Key Usage: 
                Netscape Server Gated Crypto
    Signature Algorithm: sha256WithRSAEncryption
    Signature Value:
        ac:f7:e3:0e:fb:27:a3:e6:75:bb:c5:9b:a1:be:4e:75:f7:ae:
        44:68:0d:b4:55:f2:5f:cd:d0:67:3f:1c:97:c7:0f:04:4c:8f:
        22:6b:51:a2:f9:cc:57:41:40:71:11:b2:fc:94:69:4a:0c:c1:
        6f:8c:e5:21:14:2e:4a:02:69:76:f0:cc:72:58:7f:4e:20:45:
        4b:a5:d2:e9:c7:38:f3:28:6c:b4:95:81:0b:49:58:72:f4:af:
        e8:e2:88:43:ad:cd:e6:ea:e2:cf:71:91:36:00:74:31:33:d6:
        ae:aa:e5:71:b5:d2:59:cf:27:92:5b:e1:3f:41:aa:01:9d:33:
        8f:11:8b:97:8e:51:05:b4:c0:a8:54:3b:10:11:12:b8:3f:1a:
        d2:0f:1d:a9:94:ea:22:21:66:74:ba:b4:4e:51:32:01:c3:e6:
        b8:3c:43:ed:3c:80:01:59:6f:28:2c:41:41:79:8f:00:4b:60:
        b4:56:1d:54:55:07:9d:cb:8e:da:df:66:57:ec:1a:70:28:9d:
        92:20:f1:e9:f0:82:5b:72:7b:4f:dc:1a:7e:43:76:c5:99:1f:
        53:36:93:0d:5a:3d:79:f8:19:b8:21:59:6d:2c:0a:d5:01:56:
        c1:9e:24:03:79:11:97:58:e8:52:af:55:be:91:47:df:fb:4d:
        ca:1e:a2:90
-----BEGIN CERTIFICATE-----
MIIDljCCAn6gAwIBAgIUQuAeNnVAEhYZjQeoP5v/4Vm8aqAwDQYJKoZIhvcNAQEL
BQAwDzENMAsGA1UEAwwEUm9vdDAeFw0yMjEwMDUxMjAwMDBaFw0yMzEwMDUxMjAw
MDBaMBcxFTATBgNVBAMMDEludGVybWVkaWF0ZTCCASIwDQYJKoZIhvcNAQEBBQAD
ggEPADCCAQoCggEBAJohEJORe3UNqLBRobgsh7kcn2NjevUDo4lMXrUD6VAywuIw
aJ4W7O5wFXRHD83qXWEoHQs/NzmDrvBkBYMV5i3L6WkdmL06zyX2IaLP6Fesu5cy
ZlG7wz9M+eisJzAA5eP1ZPHk8nmTalb2mSiB8iMTrJfiOdCAkY7yxTDNRnE8iMoD
tXSi3NvhrnAqQrGZuNVIYC8e2tMfJ4tsEkA9XesN6PDj8EqLzXRi6AZEytheKm0J
TXuORxwEEtrq5W9sQSwjHTmD0ESlfMYTDmxzKgZxT2W6sV7b0+zKrkBeJIdjLa5L
1fZMJfw/2W6WZciyixqj7TO0OvPMSsX8ZoE/iVkCAwEAAaOB4TCB3jAdBgNVHQ4E
FgQUNATK9EATRAyG6B9HP/DoI9buAgkwHwYDVR0jBBgwFoAUTkJUajLTvp5wQUdB
PpC6hj/U/WwwNwYIKwYBBQUHAQEEKzApMCcGCCsGAQUFBzAChhtodHRwOi8vdXJs
LWZvci1haWEvUm9vdC5jZXIwLAYDVR0fBCUwIzAhoB+gHYYbaHR0cDovL3VybC1m
b3ItY3JsL1Jvb3QuY3JsMA4GA1UdDwEB/wQEAwIBBjAPBgNVHRMBAf8EBTADAQH/
MBQGA1UdJQQNMAsGCWCGSAGG+EIEATANBgkqhkiG9w0BAQsFAAOCAQEArPfjDvsn
o+Z1u8Wbob5OdfeuRGgNtFXyX83QZz8cl8cPBEyPImtRovnMV0FAcRGy/JRpSgzB
b4zlIRQuSgJpdvDMclh/TiBFS6XS6cc48yhstJWBC0lYcvSv6OKIQ63N5uriz3GR
NgB0MTPWrqrlcbXSWc8nklvhP0GqAZ0zjxGLl45RBbTAqFQ7EBESuD8a0g8dqZTq
IiFmdLq0TlEyAcPmuDxD7TyAAVlvKCxBQXmPAEtgtFYdVFUHncuO2t9mV+wacCid
kiDx6fCCW3J7T9wafkN2xZkfUzaTDVo9efgZuCFZbSwK1QFWwZ4kA3kRl1joUq9V
vpFH3/tNyh6ikA==
-----END CERTIFICATE-----

Certificate:
    Data:
        Version: 3 (0x2)
        Serial Number:
            42:e0:1e:36:75:40:12:16:19:8d:07:a8:3f:9b:ff:e1:59:bc:6a:9f
        Signature Algorithm: sha256WithRSAEncryption
        Issuer: CN=Root
        Validity
            Not Before: Oct  5 12:00:00 2022 GMT
            Not After : Oct  5 12:00:00 2023 GMT
        Subject: CN=Root
        Subject Public Key Info:
            Public Key Algorithm: rsaEncryption
                Public-Key: (2048 bit)
                Modulus:
                    00:e2:b0:53:05:80:84:a4:62:d7:02:96:95:55:ad:
                    63:c9:cd:d7:46:41:1a:cb:b7:0d:6c:70:75:05:e6:
                    ea:a8:f6:64:dd:9e:b8:f7:a3:da:05:50:14:ad:0b:
                    fd:1f:8d:7f:d0:03:ce:ec:7d:de:f3:5e:eb:8b:f0:
                    db:98:70:cc:c2:c0:a9:f7:2c:e7:27:04:a5:79:10:
                    47:6d:a7:80:22:ba:0e:0b:28:e5:2a:f1:69:14:a2:
                    dd:a4:a8:ac:67:76:a0:db:8b:78:c0:0b:7e:2c:9c:
                    65:f6:e5:40:b7:c0:ca:b3:f0:1e:74:69:77:45:38:
                    e1:8c:de:c9:1f:fc:67:28:ee:22:ae:4d:3d:8c:6b:
                    63:62:9f:bf:ef:67:7d:e6:ee:a4:d7:41:c2:62:c5:
                    f2:3c:49:af:f9:44:74:b4:a7:26:f8:bd:ed:57:ec:
                    ed:16:2c:42:77:3d:85:69:e8:48:7e:d7:70:05:21:
                    b9:15:96:0b:5a:5d:ac:ee:64:46:1b:4c:eb:58:b0:
                    fd:48:fe:c1:02:e7:d0:c0:0b:52:aa:e7:51:9c:93:
                    91:46:05:ed:23:2e:c3:0b:0e:50:0e:6e:38:ac:31:
                    69:7d:70:d2:40:dd:7d:41:3e:08:31:78:c6:e3:57:
                    1d:c5:53:e7:91:6d:de:bc:de:3f:2e:72:de:e2:a0:
                    63:0b
                Exponent: 65537 (0x10001)
        X509v3 extensions:
            X509v3 Subject Key Identifier: 
                4E:42:54:6A:32:D3:BE:9E:70:41:47:41:3E:90:BA:86:3F:D4:FD:6C
            X509v3 Authority Key Identifier: 
                4E:42:54:6A:32:D3:BE:9E:70:41:47:41:3E:90:BA:86:3F:D4:FD:6C
            Authority Information Access: 
                CA Issuers - URI:http://url-for-aia/Root.cer
            X509v3 CRL Distribution Points: 
                Full Name:
                  URI:http://url-for-crl/Root.crl
            X509v3 Key Usage: critical
                Certificate Sign, CRL Sign
            X509v3 Basic Constraints: critical
                CA:TRUE
    Signature Algorithm: sha256WithRSAEncryption
    Signature Value:
        18:d3:6a:33:61:9d:c2:58:d2:84:e9:90:61:79:78:3f:e1:11:
        81:a0:d8:3d:5b:b0:8c:9b:bd:94:b9:06:1c:41:68:9c:e5:a3:
        80:f0:3d:32:88:5f:38:a6:c2:f2:58:aa:c0:fd:95:44:06:af:
        ff:e3:3f:59:f3:e9:63:7b:e4:ca:a4:c1:84:0d:60:fa:68:57:
        81:32:52:51:c0:5b:40:23:f8:f3:98:9c:ef:7f:0d:0b:14:3c:
        14:16:a0:39:35:c6:b1:e7:b4:40:2b:8e:bf:19:51:51:08:6c:
        66:7e:57:44:fc:c3:97:1b:25:e2:89:74:51:90:55:48:c1:f5:
        77:5c:a1:f6:d8:ba:38:90:3f:ea:c9:1b:eb:4c:e9:6d:e9:09:
        85:7d:ca:d4:e2:50:31:e0:63:76:d8:27:16:5b:aa:25:7b:81:
        23:17:45:40:1c:bb:7f:eb:32:28:a9:26:ef:a9:ad:da:bf:14:
        73:14:f8:a8:3f:26:b8:c0:1b:84:59:b0:94:98:e0:30:97:f1:
        44:1c:34:3d:23:02:2d:3c:93:5a:04:d3:8e:18:ec:09:46:4f:
        48:74:8b:4f:0b:e5:41:f3:27:03:3d:84:ae:bd:8d:da:5e:ea:
        93:e9:7d:06:70:83:3f:fa:64:ba:e3:67:6e:b9:ca:8b:56:9d:
        57:be:b8:3d
-----BEGIN CERTIFICATE-----
MIIDeDCCAmCgAwIBAgIUQuAeNnVAEhYZjQeoP5v/4Vm8ap8wDQYJKoZIhvcNAQEL
BQAwDzENMAsGA1UEAwwEUm9vdDAeFw0yMjEwMDUxMjAwMDBaFw0yMzEwMDUxMjAw
MDBaMA8xDTALBgNVBAMMBFJvb3QwggEiMA0GCSqGSIb3DQEBAQUAA4IBDwAwggEK
AoIBAQDisFMFgISkYtcClpVVrWPJzddGQRrLtw1scHUF5uqo9mTdnrj3o9oFUBSt
C/0fjX/QA87sfd7zXuuL8NuYcMzCwKn3LOcnBKV5EEdtp4Aiug4LKOUq8WkUot2k
qKxndqDbi3jAC34snGX25UC3wMqz8B50aXdFOOGM3skf/Gco7iKuTT2Ma2Nin7/v
Z33m7qTXQcJixfI8Sa/5RHS0pyb4ve1X7O0WLEJ3PYVp6Eh+13AFIbkVlgtaXazu
ZEYbTOtYsP1I/sEC59DAC1Kq51Gck5FGBe0jLsMLDlAObjisMWl9cNJA3X1BPggx
eMbjVx3FU+eRbd683j8uct7ioGMLAgMBAAGjgcswgcgwHQYDVR0OBBYEFE5CVGoy
076ecEFHQT6QuoY/1P1sMB8GA1UdIwQYMBaAFE5CVGoy076ecEFHQT6QuoY/1P1s
MDcGCCsGAQUFBwEBBCswKTAnBggrBgEFBQcwAoYbaHR0cDovL3VybC1mb3ItYWlh
L1Jvb3QuY2VyMCwGA1UdHwQlMCMwIaAfoB2GG2h0dHA6Ly91cmwtZm9yLWNybC9S
b290LmNybDAOBgNVHQ8BAf8EBAMCAQYwDwYDVR0TAQH/BAUwAwEB/zANBgkqhkiG
9w0BAQsFAAOCAQEAGNNqM2GdwljShOmQYXl4P+ERgaDYPVuwjJu9lLkGHEFonOWj
gPA9MohfOKbC8liqwP2VRAav/+M/WfPpY3vkyqTBhA1g+mhXgTJSUcBbQCP485ic
738NCxQ8FBagOTXGsee0QCuOvxlRUQhsZn5XRPzDlxsl4ol0UZBVSMH1d1yh9ti6
OJA/6skb60zpbekJhX3K1OJQMeBjdtgnFluqJXuBIxdFQBy7f+syKKkm76mt2r8U
cxT4qD8muMAbhFmwlJjgMJfxRBw0PSMCLTyTWgTTjhjsCUZPSHSLTwvlQfMnAz2E
rr2N2l7qk+l9BnCDP/pkuuNnbrnKi1adV764PQ==
-----END CERTIFICATE-----
