[Created by: generate-chains.py]

Certificate chain where the root certificate is not self-signed (or
self-issued for that matter).

Certificate:
    Data:
        Version: 3 (0x2)
        Serial Number:
            12:8d:5e:30:60:e5:57:f6:f3:09:84:b2:6d:4f:a0:fb:9d:6f:5e:9d
        Signature Algorithm: sha256WithRSAEncryption
        Issuer: CN=Intermediate
        Validity
            Not Before: Nov  3 12:00:00 2020 GMT
            Not After : Nov  3 12:00:00 2021 GMT
        Subject: CN=Target
        Subject Public Key Info:
            Public Key Algorithm: rsaEncryption
                RSA Public-Key: (2048 bit)
                Modulus:
                    00:ca:05:80:6e:cf:1f:63:66:cf:05:e3:dc:51:2c:
                    12:41:1f:96:f5:a5:94:96:c5:5e:34:36:bc:90:df:
                    85:73:5e:26:ed:f3:12:fb:90:a0:fb:05:b4:8e:05:
                    71:07:4c:cc:32:ae:95:89:87:8c:9a:08:22:f0:a1:
                    47:da:be:5c:12:c7:18:31:aa:19:61:59:3d:3a:7b:
                    e9:e9:1a:9f:56:d9:5b:31:b4:3f:bc:ad:da:1c:e9:
                    0d:dc:40:5c:4d:5d:8c:5a:ad:78:97:ab:cf:28:fb:
                    52:7d:74:6f:d3:27:da:5a:e4:37:7e:1a:56:8b:f3:
                    85:55:c5:aa:f8:96:3d:51:52:5f:be:60:47:97:fd:
                    82:ef:28:b7:cd:50:64:e2:70:43:7b:1f:5d:f3:9e:
                    d1:c2:dd:22:a6:08:85:94:e8:80:69:62:67:01:ed:
                    12:bb:96:96:83:b4:02:4f:5a:a0:33:63:99:e2:1c:
                    88:33:38:fa:b7:20:70:2d:91:e7:ca:27:9b:81:2f:
                    29:a6:d6:f0:ea:ec:7b:a4:86:61:56:af:bd:30:26:
                    91:e7:d9:18:e9:4e:90:6e:66:ab:1a:48:70:62:9d:
                    b9:0e:11:fa:49:d5:3c:8c:20:52:9b:b0:6a:71:85:
                    a5:92:66:22:ea:79:0c:53:b1:66:ab:82:3d:7c:16:
                    78:fd
                Exponent: 65537 (0x10001)
        X509v3 extensions:
            X509v3 Subject Key Identifier: 
                7F:FE:A1:79:97:34:D7:6D:63:C2:1A:94:43:45:AE:6E:0D:30:5A:18
            X509v3 Authority Key Identifier: 
                keyid:1E:C9:1C:45:5F:46:A4:0C:10:15:82:7C:01:23:5B:21:F4:AE:88:D9

            Authority Information Access: 
                CA Issuers - URI:http://url-for-aia/Intermediate.cer

            X509v3 CRL Distribution Points: 

                Full Name:
                  URI:http://url-for-crl/Intermediate.crl

            X509v3 Key Usage: critical
                Digital Signature, Key Encipherment
            X509v3 Extended Key Usage: 
                TLS Web Server Authentication, TLS Web Client Authentication
    Signature Algorithm: sha256WithRSAEncryption
         39:91:4d:71:07:94:a3:49:9e:21:0f:ed:59:bd:06:e8:d5:2a:
         db:51:b1:69:05:aa:b7:61:68:a0:cf:a5:1b:78:66:db:db:d6:
         7b:c5:e5:20:5f:73:d8:b4:32:6e:95:14:ca:0f:69:06:d4:ca:
         28:f9:1a:84:27:62:22:ce:f3:1a:71:5c:ae:24:c1:51:ba:59:
         80:bc:ca:7f:b4:23:07:bc:94:78:bb:19:95:44:d8:6d:f6:2f:
         6e:23:62:f7:46:da:86:2f:b7:a2:69:ab:cb:2c:df:53:3c:79:
         db:c3:e3:fa:ac:73:c4:aa:bc:12:83:ec:dc:4d:ca:e0:ee:3d:
         00:89:21:47:cf:54:a9:5c:f6:a8:ce:a3:ea:f3:39:9d:45:53:
         ad:eb:ba:c3:5b:53:62:53:ea:bf:10:c3:dd:09:62:cb:3b:56:
         ef:1b:f2:a2:3c:d7:78:dc:42:e0:75:f5:0a:d8:37:40:ee:49:
         5d:c7:dd:cf:f2:fa:17:d6:13:72:1a:00:d7:b8:6f:72:80:07:
         c0:59:29:a8:3d:46:8e:1f:d7:de:81:8e:35:75:db:a2:69:6d:
         b4:e7:eb:da:ad:6c:1a:e1:11:60:bf:a9:54:4d:a4:f9:c5:0e:
         ab:ab:2d:6d:8e:1b:34:84:73:30:f9:4b:e9:e6:a7:22:2f:50:
         c1:05:6a:4d
-----BEGIN CERTIFICATE-----
MIIDoDCCAoigAwIBAgIUEo1eMGDlV/bzCYSybU+g+51vXp0wDQYJKoZIhvcNAQEL
BQAwFzEVMBMGA1UEAwwMSW50ZXJtZWRpYXRlMB4XDTIwMTEwMzEyMDAwMFoXDTIx
MTEwMzEyMDAwMFowETEPMA0GA1UEAwwGVGFyZ2V0MIIBIjANBgkqhkiG9w0BAQEF
AAOCAQ8AMIIBCgKCAQEAygWAbs8fY2bPBePcUSwSQR+W9aWUlsVeNDa8kN+Fc14m
7fMS+5Cg+wW0jgVxB0zMMq6ViYeMmggi8KFH2r5cEscYMaoZYVk9Onvp6RqfVtlb
MbQ/vK3aHOkN3EBcTV2MWq14l6vPKPtSfXRv0yfaWuQ3fhpWi/OFVcWq+JY9UVJf
vmBHl/2C7yi3zVBk4nBDex9d857Rwt0ipgiFlOiAaWJnAe0Su5aWg7QCT1qgM2OZ
4hyIMzj6tyBwLZHnyiebgS8pptbw6ux7pIZhVq+9MCaR59kY6U6QbmarGkhwYp25
DhH6SdU8jCBSm7BqcYWlkmYi6nkMU7Fmq4I9fBZ4/QIDAQABo4HpMIHmMB0GA1Ud
DgQWBBR//qF5lzTXbWPCGpRDRa5uDTBaGDAfBgNVHSMEGDAWgBQeyRxFX0akDBAV
gnwBI1sh9K6I2TA/BggrBgEFBQcBAQQzMDEwLwYIKwYBBQUHMAKGI2h0dHA6Ly91
cmwtZm9yLWFpYS9JbnRlcm1lZGlhdGUuY2VyMDQGA1UdHwQtMCswKaAnoCWGI2h0
dHA6Ly91cmwtZm9yLWNybC9JbnRlcm1lZGlhdGUuY3JsMA4GA1UdDwEB/wQEAwIF
oDAdBgNVHSUEFjAUBggrBgEFBQcDAQYIKwYBBQUHAwIwDQYJKoZIhvcNAQELBQAD
ggEBADmRTXEHlKNJniEP7Vm9BujVKttRsWkFqrdhaKDPpRt4Ztvb1nvF5SBfc9i0
Mm6VFMoPaQbUyij5GoQnYiLO8xpxXK4kwVG6WYC8yn+0Iwe8lHi7GZVE2G32L24j
YvdG2oYvt6Jpq8ss31M8edvD4/qsc8SqvBKD7NxNyuDuPQCJIUfPVKlc9qjOo+rz
OZ1FU63rusNbU2JT6r8Qw90JYss7Vu8b8qI813jcQuB19QrYN0DuSV3H3c/y+hfW
E3IaANe4b3KAB8BZKag9Ro4f196BjjV126JpbbTn69qtbBrhEWC/qVRNpPnFDqur
LW2OGzSEczD5S+nmpyIvUMEFak0=
-----END CERTIFICATE-----

Certificate:
    Data:
        Version: 3 (0x2)
        Serial Number:
            29:24:c9:62:9e:9b:f4:e2:b7:3b:f4:4d:c4:01:48:be:71:f6:09:ac
        Signature Algorithm: sha256WithRSAEncryption
        Issuer: CN=Root
        Validity
            Not Before: Nov  3 12:00:00 2020 GMT
            Not After : Nov  3 12:00:00 2021 GMT
        Subject: CN=Intermediate
        Subject Public Key Info:
            Public Key Algorithm: rsaEncryption
                RSA Public-Key: (2048 bit)
                Modulus:
                    00:b8:b5:04:1a:b6:ce:13:85:6b:9b:9e:2d:2f:a5:
                    b4:b5:05:44:72:4b:8b:80:23:1e:0b:1e:1d:30:eb:
                    c0:f5:c1:a5:17:e6:13:5d:b4:2f:bf:7c:a9:95:38:
                    cc:88:9a:6e:26:e2:3a:22:68:fe:b1:a3:e4:70:04:
                    73:70:78:b7:68:7a:c7:0d:86:c0:ad:3c:a4:ad:83:
                    a5:00:a8:a3:c2:59:53:3a:77:33:c7:f2:56:15:1b:
                    85:7a:2f:b4:44:e1:40:5d:04:9a:ce:0c:4d:5c:33:
                    40:4c:68:de:b9:58:48:f1:b6:cc:a4:02:48:86:46:
                    66:32:0f:0e:3d:fd:fd:af:df:96:27:b1:60:5b:0d:
                    be:25:b5:dd:84:ec:f8:9d:da:21:44:95:df:46:16:
                    3f:77:69:8e:70:bc:9a:78:ec:45:89:13:0f:be:34:
                    7e:00:4d:83:cd:d3:f4:fe:3f:6c:ce:d0:6f:36:64:
                    6c:c1:61:dd:c2:68:1d:b9:78:2d:2d:0b:32:96:75:
                    3a:d6:a5:d3:3f:2d:55:0e:e7:9e:aa:7d:31:a0:4d:
                    ac:91:20:1e:46:41:85:3f:03:45:db:8f:98:c2:c2:
                    b8:7d:e1:f2:e7:b8:6f:a8:cb:b9:d6:7e:8a:29:98:
                    b3:b3:ed:38:a4:a7:fc:9d:c1:e1:63:68:00:64:a5:
                    e1:bf
                Exponent: 65537 (0x10001)
        X509v3 extensions:
            X509v3 Subject Key Identifier: 
                1E:C9:1C:45:5F:46:A4:0C:10:15:82:7C:01:23:5B:21:F4:AE:88:D9
            X509v3 Authority Key Identifier: 
                keyid:91:D7:20:C6:1D:00:21:35:53:7D:FE:50:11:02:DD:E3:40:2B:9A:A8

            Authority Information Access: 
                CA Issuers - URI:http://url-for-aia/Root.cer

            X509v3 CRL Distribution Points: 

                Full Name:
                  URI:http://url-for-crl/Root.crl

            X509v3 Key Usage: critical
                Certificate Sign, CRL Sign
            X509v3 Basic Constraints: critical
                CA:TRUE
    Signature Algorithm: sha256WithRSAEncryption
         b7:ff:05:8d:79:a1:b5:fb:a9:ff:f1:47:bb:85:d7:45:0a:e8:
         88:98:a3:e8:f4:51:cc:f5:bb:97:42:ea:24:cf:a6:8a:94:de:
         36:b6:f2:17:d2:ed:c2:c0:53:ba:52:28:9f:9f:db:f6:e8:c3:
         67:80:b6:c9:e3:33:47:5f:f3:a4:30:c3:36:69:73:c8:df:da:
         96:bc:6d:b3:cf:5c:49:92:ac:ec:9e:f9:e0:9f:d8:85:87:02:
         37:c4:0c:c6:2f:55:74:71:2c:1b:aa:25:b2:63:9a:36:51:f1:
         8a:35:40:ec:e5:ab:02:74:43:78:62:0d:79:4e:ee:14:41:40:
         9c:16:ce:6f:77:e7:ac:0c:da:ee:01:54:14:6d:04:b8:88:7b:
         8e:df:64:cb:e3:ff:d7:3a:98:18:1a:22:f9:bb:ae:b6:fd:e1:
         c8:f1:5e:3f:8b:4e:4b:ee:82:82:44:8c:90:87:bf:33:61:04:
         55:cc:b1:69:cb:08:cd:93:c5:87:a1:f7:4e:48:80:0b:68:e6:
         76:e3:35:08:20:96:0d:6f:ed:96:a4:f2:c4:8c:6b:e3:c6:21:
         67:b9:7b:f0:fa:d1:f4:be:df:16:76:0e:1f:5e:48:37:43:60:
         0a:9d:cf:58:5a:d1:6b:73:79:c0:e3:5f:bb:af:d7:82:8e:10:
         cf:1c:9c:e8
-----BEGIN CERTIFICATE-----
MIIDgDCCAmigAwIBAgIUKSTJYp6b9OK3O/RNxAFIvnH2CawwDQYJKoZIhvcNAQEL
BQAwDzENMAsGA1UEAwwEUm9vdDAeFw0yMDExMDMxMjAwMDBaFw0yMTExMDMxMjAw
MDBaMBcxFTATBgNVBAMMDEludGVybWVkaWF0ZTCCASIwDQYJKoZIhvcNAQEBBQAD
ggEPADCCAQoCggEBALi1BBq2zhOFa5ueLS+ltLUFRHJLi4AjHgseHTDrwPXBpRfm
E120L798qZU4zIiabibiOiJo/rGj5HAEc3B4t2h6xw2GwK08pK2DpQCoo8JZUzp3
M8fyVhUbhXovtEThQF0Ems4MTVwzQExo3rlYSPG2zKQCSIZGZjIPDj39/a/fliex
YFsNviW13YTs+J3aIUSV30YWP3dpjnC8mnjsRYkTD740fgBNg83T9P4/bM7QbzZk
bMFh3cJoHbl4LS0LMpZ1Otal0z8tVQ7nnqp9MaBNrJEgHkZBhT8DRduPmMLCuH3h
8ue4b6jLudZ+iimYs7PtOKSn/J3B4WNoAGSl4b8CAwEAAaOByzCByDAdBgNVHQ4E
FgQUHskcRV9GpAwQFYJ8ASNbIfSuiNkwHwYDVR0jBBgwFoAUkdcgxh0AITVTff5Q
EQLd40ArmqgwNwYIKwYBBQUHAQEEKzApMCcGCCsGAQUFBzAChhtodHRwOi8vdXJs
LWZvci1haWEvUm9vdC5jZXIwLAYDVR0fBCUwIzAhoB+gHYYbaHR0cDovL3VybC1m
b3ItY3JsL1Jvb3QuY3JsMA4GA1UdDwEB/wQEAwIBBjAPBgNVHRMBAf8EBTADAQH/
MA0GCSqGSIb3DQEBCwUAA4IBAQC3/wWNeaG1+6n/8Ue7hddFCuiImKPo9FHM9buX
Quokz6aKlN42tvIX0u3CwFO6Uiifn9v26MNngLbJ4zNHX/OkMMM2aXPI39qWvG2z
z1xJkqzsnvngn9iFhwI3xAzGL1V0cSwbqiWyY5o2UfGKNUDs5asCdEN4Yg15Tu4U
QUCcFs5vd+esDNruAVQUbQS4iHuO32TL4//XOpgYGiL5u662/eHI8V4/i05L7oKC
RIyQh78zYQRVzLFpywjNk8WHofdOSIALaOZ24zUIIJYNb+2WpPLEjGvjxiFnuXvw
+tH0vt8Wdg4fXkg3Q2AKnc9YWtFrc3nA41+7r9eCjhDPHJzo
-----END CERTIFICATE-----

Certificate:
    Data:
        Version: 3 (0x2)
        Serial Number:
            1e:8a:27:93:f7:53:8e:01:34:58:db:a9:3d:d0:8b:61:22:1b:4b:15
        Signature Algorithm: sha256WithRSAEncryption
        Issuer: CN=ShadowRoot
        Validity
            Not Before: Nov  3 12:00:00 2020 GMT
            Not After : Nov  3 12:00:00 2021 GMT
        Subject: CN=Root
        Subject Public Key Info:
            Public Key Algorithm: rsaEncryption
                RSA Public-Key: (2048 bit)
                Modulus:
                    00:bb:fa:87:39:cb:43:d9:24:e9:2c:54:cd:18:ea:
                    b8:87:ec:2f:d3:57:e3:9c:23:be:94:3c:26:41:db:
                    61:40:b8:ad:07:53:f1:69:c5:b4:2c:6a:ad:de:e5:
                    4a:bd:e3:0f:77:c4:59:fa:ee:d5:3a:1a:93:ca:cd:
                    b1:22:2a:24:42:5a:01:42:e8:57:74:f9:89:56:f8:
                    c1:13:f6:c9:42:9b:45:7b:ff:b7:aa:c1:1f:1b:e8:
                    02:24:12:97:0d:84:b9:62:70:83:93:72:cd:9b:1a:
                    26:27:92:34:46:51:c5:b7:c7:4a:b4:7a:8a:84:98:
                    e2:f7:90:4d:cc:cf:3d:ee:85:91:8d:75:60:38:0c:
                    e5:0b:00:e6:fe:e9:c3:19:64:3f:2d:c8:14:f1:d9:
                    a9:76:05:54:a8:5a:9e:64:56:ed:60:43:c5:98:db:
                    7a:ae:da:2c:56:cb:87:00:6f:3d:83:3b:a3:5c:f5:
                    55:0d:6c:ab:ed:68:c1:b8:1d:a5:d0:77:1d:b7:e6:
                    52:ef:2c:75:3a:98:ec:51:6f:15:5f:64:82:f6:d1:
                    90:bd:ee:01:28:e5:89:0e:01:ee:54:07:1d:0e:7a:
                    f0:82:9c:cc:c1:c5:4a:f6:a9:58:33:c5:cc:a3:86:
                    17:72:19:92:2c:ae:6a:46:a8:a8:25:2a:cf:ba:70:
                    c1:89
                Exponent: 65537 (0x10001)
        X509v3 extensions:
            X509v3 Subject Key Identifier: 
                91:D7:20:C6:1D:00:21:35:53:7D:FE:50:11:02:DD:E3:40:2B:9A:A8
            X509v3 Authority Key Identifier: 
                keyid:85:C5:B6:72:29:30:56:96:1B:80:37:79:29:18:A2:BD:48:F9:9E:4A

            Authority Information Access: 
                CA Issuers - URI:http://url-for-aia/ShadowRoot.cer

            X509v3 CRL Distribution Points: 

                Full Name:
                  URI:http://url-for-crl/ShadowRoot.crl

            X509v3 Key Usage: critical
                Certificate Sign, CRL Sign
            X509v3 Basic Constraints: critical
                CA:TRUE
    Signature Algorithm: sha256WithRSAEncryption
         49:5b:08:b4:de:7c:43:02:34:01:36:be:0b:08:e0:6e:e7:9b:
         6f:62:c1:72:96:02:f9:a9:77:92:01:e8:61:0c:85:f7:12:c2:
         44:bb:20:3e:d9:27:ff:50:ec:3a:13:e9:9c:5e:8c:66:90:25:
         8b:ce:81:13:7b:fb:06:c8:c2:f4:2f:3f:97:41:79:5f:1c:50:
         2e:de:68:dc:d7:40:27:2c:28:87:95:24:8c:9e:30:9b:61:17:
         cb:7c:8d:61:1c:87:22:4b:d4:15:31:a5:7d:d4:01:ae:f3:e8:
         0f:16:09:49:d7:fc:db:c2:5d:50:ee:53:5e:f4:e5:26:5a:bd:
         13:05:55:1b:59:17:9c:a7:af:e1:e9:b9:01:12:a2:93:4c:d6:
         8e:99:9e:35:a8:f2:1c:a4:3b:0a:ca:10:01:ef:e7:c4:3e:f4:
         6e:38:3b:cf:06:50:c3:78:29:a9:ec:bf:89:b3:26:af:53:54:
         08:ae:f0:5d:9e:ca:01:6a:0e:cb:aa:2a:20:62:d0:b0:7c:3e:
         b7:03:b6:f5:d7:24:e5:9a:73:5b:33:2f:ad:ff:95:b0:44:3c:
         bd:fa:f8:b1:cf:83:92:1f:9a:a6:db:f9:fe:9d:74:65:2a:76:
         ce:d6:36:c8:90:97:e0:38:7d:db:a4:b0:63:f2:99:e4:a7:e3:
         3e:5b:6a:f0
-----BEGIN CERTIFICATE-----
MIIDijCCAnKgAwIBAgIUHoonk/dTjgE0WNupPdCLYSIbSxUwDQYJKoZIhvcNAQEL
BQAwFTETMBEGA1UEAwwKU2hhZG93Um9vdDAeFw0yMDExMDMxMjAwMDBaFw0yMTEx
MDMxMjAwMDBaMA8xDTALBgNVBAMMBFJvb3QwggEiMA0GCSqGSIb3DQEBAQUAA4IB
DwAwggEKAoIBAQC7+oc5y0PZJOksVM0Y6riH7C/TV+OcI76UPCZB22FAuK0HU/Fp
xbQsaq3e5Uq94w93xFn67tU6GpPKzbEiKiRCWgFC6Fd0+YlW+MET9slCm0V7/7eq
wR8b6AIkEpcNhLlicIOTcs2bGiYnkjRGUcW3x0q0eoqEmOL3kE3Mzz3uhZGNdWA4
DOULAOb+6cMZZD8tyBTx2al2BVSoWp5kVu1gQ8WY23qu2ixWy4cAbz2DO6Nc9VUN
bKvtaMG4HaXQdx235lLvLHU6mOxRbxVfZIL20ZC97gEo5YkOAe5UBx0OevCCnMzB
xUr2qVgzxcyjhhdyGZIsrmpGqKglKs+6cMGJAgMBAAGjgdcwgdQwHQYDVR0OBBYE
FJHXIMYdACE1U33+UBEC3eNAK5qoMB8GA1UdIwQYMBaAFIXFtnIpMFaWG4A3eSkY
or1I+Z5KMD0GCCsGAQUFBwEBBDEwLzAtBggrBgEFBQcwAoYhaHR0cDovL3VybC1m
b3ItYWlhL1NoYWRvd1Jvb3QuY2VyMDIGA1UdHwQrMCkwJ6AloCOGIWh0dHA6Ly91
cmwtZm9yLWNybC9TaGFkb3dSb290LmNybDAOBgNVHQ8BAf8EBAMCAQYwDwYDVR0T
AQH/BAUwAwEB/zANBgkqhkiG9w0BAQsFAAOCAQEASVsItN58QwI0ATa+Cwjgbueb
b2LBcpYC+al3kgHoYQyF9xLCRLsgPtkn/1DsOhPpnF6MZpAli86BE3v7BsjC9C8/
l0F5XxxQLt5o3NdAJywoh5UkjJ4wm2EXy3yNYRyHIkvUFTGlfdQBrvPoDxYJSdf8
28JdUO5TXvTlJlq9EwVVG1kXnKev4em5ARKik0zWjpmeNajyHKQ7CsoQAe/nxD70
bjg7zwZQw3gpqey/ibMmr1NUCK7wXZ7KAWoOy6oqIGLQsHw+twO29dck5ZpzWzMv
rf+VsEQ8vfr4sc+Dkh+aptv5/p10ZSp2ztY2yJCX4Dh926SwY/KZ5KfjPltq8A==
-----END CERTIFICATE-----
