[Created by: generate-chains.py]

Certificate chain where the root certificate is not self-signed (or
self-issued for that matter).

Certificate:
    Data:
        Version: 3 (0x2)
        Serial Number:
            12:8d:5e:30:60:e5:57:f6:f3:09:84:b2:6d:4f:a0:fb:9d:6f:5e:9d
        Signature Algorithm: sha256WithRSAEncryption
        Issuer: CN=Intermediate
        Validity
            Not Before: Oct  5 12:00:00 2022 GMT
            Not After : Oct  5 12:00:00 2023 GMT
        Subject: CN=Target
        Subject Public Key Info:
            Public Key Algorithm: rsaEncryption
                Public-Key: (2048 bit)
                Modulus:
                    00:ca:05:80:6e:cf:1f:63:66:cf:05:e3:dc:51:2c:
                    12:41:1f:96:f5:a5:94:96:c5:5e:34:36:bc:90:df:
                    85:73:5e:26:ed:f3:12:fb:90:a0:fb:05:b4:8e:05:
                    71:07:4c:cc:32:ae:95:89:87:8c:9a:08:22:f0:a1:
                    47:da:be:5c:12:c7:18:31:aa:19:61:59:3d:3a:7b:
                    e9:e9:1a:9f:56:d9:5b:31:b4:3f:bc:ad:da:1c:e9:
                    0d:dc:40:5c:4d:5d:8c:5a:ad:78:97:ab:cf:28:fb:
                    52:7d:74:6f:d3:27:da:5a:e4:37:7e:1a:56:8b:f3:
                    85:55:c5:aa:f8:96:3d:51:52:5f:be:60:47:97:fd:
                    82:ef:28:b7:cd:50:64:e2:70:43:7b:1f:5d:f3:9e:
                    d1:c2:dd:22:a6:08:85:94:e8:80:69:62:67:01:ed:
                    12:bb:96:96:83:b4:02:4f:5a:a0:33:63:99:e2:1c:
                    88:33:38:fa:b7:20:70:2d:91:e7:ca:27:9b:81:2f:
                    29:a6:d6:f0:ea:ec:7b:a4:86:61:56:af:bd:30:26:
                    91:e7:d9:18:e9:4e:90:6e:66:ab:1a:48:70:62:9d:
                    b9:0e:11:fa:49:d5:3c:8c:20:52:9b:b0:6a:71:85:
                    a5:92:66:22:ea:79:0c:53:b1:66:ab:82:3d:7c:16:
                    78:fd
                Exponent: 65537 (0x10001)
        X509v3 extensions:
            X509v3 Subject Key Identifier: 
                7F:FE:A1:79:97:34:D7:6D:63:C2:1A:94:43:45:AE:6E:0D:30:5A:18
            X509v3 Authority Key Identifier: 
                1E:C9:1C:45:5F:46:A4:0C:10:15:82:7C:01:23:5B:21:F4:AE:88:D9
            Authority Information Access: 
                CA Issuers - URI:http://url-for-aia/Intermediate.cer
            X509v3 CRL Distribution Points: 
                Full Name:
                  URI:http://url-for-crl/Intermediate.crl
            X509v3 Key Usage: critical
                Digital Signature, Key Encipherment
            X509v3 Extended Key Usage: 
                TLS Web Server Authentication, TLS Web Client Authentication
    Signature Algorithm: sha256WithRSAEncryption
    Signature Value:
        3a:36:90:f9:e1:f1:44:f8:be:37:7b:44:1e:ac:7a:7a:c3:98:
        5f:ff:a0:85:e8:86:5b:2f:00:f6:6a:14:46:1e:2c:eb:28:cc:
        37:3d:1a:7c:eb:05:47:3e:91:c8:10:c2:1f:43:dc:e4:40:bb:
        7a:b4:b4:ff:e1:dc:ea:63:ec:01:42:b3:ec:a6:f5:e8:50:cf:
        08:a0:2d:6d:68:0d:9f:c7:5d:c5:fe:8c:ae:b9:e9:44:eb:cb:
        66:f7:fc:83:63:f7:9e:94:66:08:3f:8e:df:3c:82:bc:3d:df:
        49:21:ef:bc:8e:c4:c6:c8:90:f2:bc:21:0e:69:6b:a9:7c:8f:
        c4:12:11:19:98:a0:00:0b:2a:c6:13:b5:1d:72:bb:a3:f7:60:
        f9:5f:d6:f0:72:57:2d:e7:9a:f3:89:24:97:84:43:a1:7c:36:
        df:f4:74:c4:a2:7c:48:a3:e8:59:12:05:8e:11:46:53:2b:3e:
        26:19:bb:31:98:58:8e:d8:f0:d5:13:bc:a7:b9:da:63:61:ce:
        79:11:e8:64:9e:48:f3:c8:8a:2c:b0:64:1f:e9:2e:9a:4d:b8:
        b6:f2:a3:46:93:8b:a5:ac:89:48:bc:1f:30:85:cc:20:ee:93:
        c4:97:fd:ca:1d:11:38:78:fc:be:77:44:f7:4f:c9:be:7c:8c:
        ac:96:50:6a
-----BEGIN CERTIFICATE-----
MIIDoDCCAoigAwIBAgIUEo1eMGDlV/bzCYSybU+g+51vXp0wDQYJKoZIhvcNAQEL
BQAwFzEVMBMGA1UEAwwMSW50ZXJtZWRpYXRlMB4XDTIyMTAwNTEyMDAwMFoXDTIz
MTAwNTEyMDAwMFowETEPMA0GA1UEAwwGVGFyZ2V0MIIBIjANBgkqhkiG9w0BAQEF
AAOCAQ8AMIIBCgKCAQEAygWAbs8fY2bPBePcUSwSQR+W9aWUlsVeNDa8kN+Fc14m
7fMS+5Cg+wW0jgVxB0zMMq6ViYeMmggi8KFH2r5cEscYMaoZYVk9Onvp6RqfVtlb
MbQ/vK3aHOkN3EBcTV2MWq14l6vPKPtSfXRv0yfaWuQ3fhpWi/OFVcWq+JY9UVJf
vmBHl/2C7yi3zVBk4nBDex9d857Rwt0ipgiFlOiAaWJnAe0Su5aWg7QCT1qgM2OZ
4hyIMzj6tyBwLZHnyiebgS8pptbw6ux7pIZhVq+9MCaR59kY6U6QbmarGkhwYp25
DhH6SdU8jCBSm7BqcYWlkmYi6nkMU7Fmq4I9fBZ4/QIDAQABo4HpMIHmMB0GA1Ud
DgQWBBR//qF5lzTXbWPCGpRDRa5uDTBaGDAfBgNVHSMEGDAWgBQeyRxFX0akDBAV
gnwBI1sh9K6I2TA/BggrBgEFBQcBAQQzMDEwLwYIKwYBBQUHMAKGI2h0dHA6Ly91
cmwtZm9yLWFpYS9JbnRlcm1lZGlhdGUuY2VyMDQGA1UdHwQtMCswKaAnoCWGI2h0
dHA6Ly91cmwtZm9yLWNybC9JbnRlcm1lZGlhdGUuY3JsMA4GA1UdDwEB/wQEAwIF
oDAdBgNVHSUEFjAUBggrBgEFBQcDAQYIKwYBBQUHAwIwDQYJKoZIhvcNAQELBQAD
ggEBADo2kPnh8UT4vjd7RB6senrDmF//oIXohlsvAPZqFEYeLOsozDc9GnzrBUc+
kcgQwh9D3ORAu3q0tP/h3Opj7AFCs+ym9ehQzwigLW1oDZ/HXcX+jK656UTry2b3
/INj956UZgg/jt88grw930kh77yOxMbIkPK8IQ5pa6l8j8QSERmYoAALKsYTtR1y
u6P3YPlf1vByVy3nmvOJJJeEQ6F8Nt/0dMSifEij6FkSBY4RRlMrPiYZuzGYWI7Y
8NUTvKe52mNhznkR6GSeSPPIiiywZB/pLppNuLbyo0aTi6WsiUi8HzCFzCDuk8SX
/codETh4/L53RPdPyb58jKyWUGo=
-----END CERTIFICATE-----

Certificate:
    Data:
        Version: 3 (0x2)
        Serial Number:
            29:24:c9:62:9e:9b:f4:e2:b7:3b:f4:4d:c4:01:48:be:71:f6:09:ac
        Signature Algorithm: sha256WithRSAEncryption
        Issuer: CN=Root
        Validity
            Not Before: Oct  5 12:00:00 2022 GMT
            Not After : Oct  5 12:00:00 2023 GMT
        Subject: CN=Intermediate
        Subject Public Key Info:
            Public Key Algorithm: rsaEncryption
                Public-Key: (2048 bit)
                Modulus:
                    00:b8:b5:04:1a:b6:ce:13:85:6b:9b:9e:2d:2f:a5:
                    b4:b5:05:44:72:4b:8b:80:23:1e:0b:1e:1d:30:eb:
                    c0:f5:c1:a5:17:e6:13:5d:b4:2f:bf:7c:a9:95:38:
                    cc:88:9a:6e:26:e2:3a:22:68:fe:b1:a3:e4:70:04:
                    73:70:78:b7:68:7a:c7:0d:86:c0:ad:3c:a4:ad:83:
                    a5:00:a8:a3:c2:59:53:3a:77:33:c7:f2:56:15:1b:
                    85:7a:2f:b4:44:e1:40:5d:04:9a:ce:0c:4d:5c:33:
                    40:4c:68:de:b9:58:48:f1:b6:cc:a4:02:48:86:46:
                    66:32:0f:0e:3d:fd:fd:af:df:96:27:b1:60:5b:0d:
                    be:25:b5:dd:84:ec:f8:9d:da:21:44:95:df:46:16:
                    3f:77:69:8e:70:bc:9a:78:ec:45:89:13:0f:be:34:
                    7e:00:4d:83:cd:d3:f4:fe:3f:6c:ce:d0:6f:36:64:
                    6c:c1:61:dd:c2:68:1d:b9:78:2d:2d:0b:32:96:75:
                    3a:d6:a5:d3:3f:2d:55:0e:e7:9e:aa:7d:31:a0:4d:
                    ac:91:20:1e:46:41:85:3f:03:45:db:8f:98:c2:c2:
                    b8:7d:e1:f2:e7:b8:6f:a8:cb:b9:d6:7e:8a:29:98:
                    b3:b3:ed:38:a4:a7:fc:9d:c1:e1:63:68:00:64:a5:
                    e1:bf
                Exponent: 65537 (0x10001)
        X509v3 extensions:
            X509v3 Subject Key Identifier: 
                1E:C9:1C:45:5F:46:A4:0C:10:15:82:7C:01:23:5B:21:F4:AE:88:D9
            X509v3 Authority Key Identifier: 
                91:D7:20:C6:1D:00:21:35:53:7D:FE:50:11:02:DD:E3:40:2B:9A:A8
            Authority Information Access: 
                CA Issuers - URI:http://url-for-aia/Root.cer
            X509v3 CRL Distribution Points: 
                Full Name:
                  URI:http://url-for-crl/Root.crl
            X509v3 Key Usage: critical
                Certificate Sign, CRL Sign
            X509v3 Basic Constraints: critical
                CA:TRUE
    Signature Algorithm: sha256WithRSAEncryption
    Signature Value:
        7a:b9:b2:b3:48:b1:5e:d5:44:34:b7:18:ff:7c:5a:4d:93:1b:
        76:06:cb:77:3b:cc:b9:d2:cf:97:99:a9:78:a2:b3:49:6a:34:
        ca:cb:d8:ff:31:66:b4:d3:38:79:78:93:ba:1a:8e:02:6d:be:
        6b:94:2f:ca:5f:38:ea:20:01:04:01:bf:e4:55:dd:49:b7:11:
        40:4e:67:7c:a0:94:71:55:c6:5c:9b:80:43:6b:52:c6:c9:ab:
        d6:98:4b:38:c0:07:b9:ec:03:27:89:52:3f:69:43:f0:3b:37:
        08:23:87:e1:f9:62:69:3f:03:fa:c1:71:40:42:05:46:2a:03:
        87:ef:cf:0b:61:86:e6:ba:bf:53:be:3b:bd:88:8a:36:a2:2c:
        05:6e:0e:cd:93:8c:cd:79:a0:a6:7a:27:43:f7:fa:2f:3e:5a:
        75:69:a7:d7:fa:3f:49:fe:39:d4:b4:7d:fa:b1:d8:69:76:a6:
        8b:21:79:a9:28:ce:14:5d:6c:47:18:09:2f:07:8a:09:45:0d:
        94:d1:1d:83:c1:55:1d:15:4d:ee:65:58:d6:58:24:90:2c:4b:
        8b:97:6b:9e:04:2a:ff:a4:37:fb:34:89:13:37:dd:a2:8f:05:
        3b:cf:e6:55:3d:48:ad:70:47:db:a9:ba:ab:35:26:51:b3:f9:
        ff:03:09:6f
-----BEGIN CERTIFICATE-----
MIIDgDCCAmigAwIBAgIUKSTJYp6b9OK3O/RNxAFIvnH2CawwDQYJKoZIhvcNAQEL
BQAwDzENMAsGA1UEAwwEUm9vdDAeFw0yMjEwMDUxMjAwMDBaFw0yMzEwMDUxMjAw
MDBaMBcxFTATBgNVBAMMDEludGVybWVkaWF0ZTCCASIwDQYJKoZIhvcNAQEBBQAD
ggEPADCCAQoCggEBALi1BBq2zhOFa5ueLS+ltLUFRHJLi4AjHgseHTDrwPXBpRfm
E120L798qZU4zIiabibiOiJo/rGj5HAEc3B4t2h6xw2GwK08pK2DpQCoo8JZUzp3
M8fyVhUbhXovtEThQF0Ems4MTVwzQExo3rlYSPG2zKQCSIZGZjIPDj39/a/fliex
YFsNviW13YTs+J3aIUSV30YWP3dpjnC8mnjsRYkTD740fgBNg83T9P4/bM7QbzZk
bMFh3cJoHbl4LS0LMpZ1Otal0z8tVQ7nnqp9MaBNrJEgHkZBhT8DRduPmMLCuH3h
8ue4b6jLudZ+iimYs7PtOKSn/J3B4WNoAGSl4b8CAwEAAaOByzCByDAdBgNVHQ4E
FgQUHskcRV9GpAwQFYJ8ASNbIfSuiNkwHwYDVR0jBBgwFoAUkdcgxh0AITVTff5Q
EQLd40ArmqgwNwYIKwYBBQUHAQEEKzApMCcGCCsGAQUFBzAChhtodHRwOi8vdXJs
LWZvci1haWEvUm9vdC5jZXIwLAYDVR0fBCUwIzAhoB+gHYYbaHR0cDovL3VybC1m
b3ItY3JsL1Jvb3QuY3JsMA4GA1UdDwEB/wQEAwIBBjAPBgNVHRMBAf8EBTADAQH/
MA0GCSqGSIb3DQEBCwUAA4IBAQB6ubKzSLFe1UQ0txj/fFpNkxt2Bst3O8y50s+X
mal4orNJajTKy9j/MWa00zh5eJO6Go4Cbb5rlC/KXzjqIAEEAb/kVd1JtxFATmd8
oJRxVcZcm4BDa1LGyavWmEs4wAe57AMniVI/aUPwOzcII4fh+WJpPwP6wXFAQgVG
KgOH788LYYbmur9Tvju9iIo2oiwFbg7Nk4zNeaCmeidD9/ovPlp1aafX+j9J/jnU
tH36sdhpdqaLIXmpKM4UXWxHGAkvB4oJRQ2U0R2DwVUdFU3uZVjWWCSQLEuLl2ue
BCr/pDf7NIkTN92ijwU7z+ZVPUitcEfbqbqrNSZRs/n/Awlv
-----END CERTIFICATE-----

Certificate:
    Data:
        Version: 3 (0x2)
        Serial Number:
            1e:8a:27:93:f7:53:8e:01:34:58:db:a9:3d:d0:8b:61:22:1b:4b:15
        Signature Algorithm: sha256WithRSAEncryption
        Issuer: CN=ShadowRoot
        Validity
            Not Before: Oct  5 12:00:00 2022 GMT
            Not After : Oct  5 12:00:00 2023 GMT
        Subject: CN=Root
        Subject Public Key Info:
            Public Key Algorithm: rsaEncryption
                Public-Key: (2048 bit)
                Modulus:
                    00:bb:fa:87:39:cb:43:d9:24:e9:2c:54:cd:18:ea:
                    b8:87:ec:2f:d3:57:e3:9c:23:be:94:3c:26:41:db:
                    61:40:b8:ad:07:53:f1:69:c5:b4:2c:6a:ad:de:e5:
                    4a:bd:e3:0f:77:c4:59:fa:ee:d5:3a:1a:93:ca:cd:
                    b1:22:2a:24:42:5a:01:42:e8:57:74:f9:89:56:f8:
                    c1:13:f6:c9:42:9b:45:7b:ff:b7:aa:c1:1f:1b:e8:
                    02:24:12:97:0d:84:b9:62:70:83:93:72:cd:9b:1a:
                    26:27:92:34:46:51:c5:b7:c7:4a:b4:7a:8a:84:98:
                    e2:f7:90:4d:cc:cf:3d:ee:85:91:8d:75:60:38:0c:
                    e5:0b:00:e6:fe:e9:c3:19:64:3f:2d:c8:14:f1:d9:
                    a9:76:05:54:a8:5a:9e:64:56:ed:60:43:c5:98:db:
                    7a:ae:da:2c:56:cb:87:00:6f:3d:83:3b:a3:5c:f5:
                    55:0d:6c:ab:ed:68:c1:b8:1d:a5:d0:77:1d:b7:e6:
                    52:ef:2c:75:3a:98:ec:51:6f:15:5f:64:82:f6:d1:
                    90:bd:ee:01:28:e5:89:0e:01:ee:54:07:1d:0e:7a:
                    f0:82:9c:cc:c1:c5:4a:f6:a9:58:33:c5:cc:a3:86:
                    17:72:19:92:2c:ae:6a:46:a8:a8:25:2a:cf:ba:70:
                    c1:89
                Exponent: 65537 (0x10001)
        X509v3 extensions:
            X509v3 Subject Key Identifier: 
                91:D7:20:C6:1D:00:21:35:53:7D:FE:50:11:02:DD:E3:40:2B:9A:A8
            X509v3 Authority Key Identifier: 
                85:C5:B6:72:29:30:56:96:1B:80:37:79:29:18:A2:BD:48:F9:9E:4A
            Authority Information Access: 
                CA Issuers - URI:http://url-for-aia/ShadowRoot.cer
            X509v3 CRL Distribution Points: 
                Full Name:
                  URI:http://url-for-crl/ShadowRoot.crl
            X509v3 Key Usage: critical
                Certificate Sign, CRL Sign
            X509v3 Basic Constraints: critical
                CA:TRUE
    Signature Algorithm: sha256WithRSAEncryption
    Signature Value:
        bd:1c:7f:b2:8a:bb:bd:4c:0d:39:a7:c6:93:20:20:93:34:95:
        fb:d1:e0:cc:3f:bf:3c:6b:f8:e7:ab:aa:59:19:3e:d9:07:d7:
        70:b5:41:63:73:1b:6b:1c:5f:c8:f7:72:41:24:19:50:b7:69:
        78:79:09:d0:1d:42:c9:35:5b:3f:b7:ac:36:7e:22:b7:28:9f:
        f2:3a:73:43:c2:db:0d:e3:2a:c7:c3:df:3a:69:46:79:40:63:
        b8:a9:b6:b4:19:6d:62:ec:0e:15:1e:1a:d2:56:09:f7:01:42:
        8c:ac:b4:f8:8d:a5:b8:b9:0b:40:c4:18:3f:3b:21:ce:1c:f2:
        ce:61:a7:e8:bf:ea:f7:c5:ff:cd:5f:ea:20:2c:6b:a1:c6:c9:
        96:2c:ce:87:7f:b1:15:d7:a3:18:c0:d2:fe:b0:14:af:bb:ab:
        34:5a:cc:5b:e0:33:e2:61:a1:fe:de:29:aa:6d:11:88:56:a4:
        82:7c:b9:13:ce:4e:34:6c:e5:14:f6:9b:98:c5:b7:93:bc:d8:
        b9:4b:fd:ca:c1:76:c4:97:49:37:a1:15:c5:5f:df:b1:27:ac:
        b3:89:fc:b6:79:f4:07:bf:09:8b:a2:da:88:8e:1d:20:09:31:
        d2:a2:26:04:cd:e2:52:77:03:07:96:af:06:89:89:cb:17:78:
        25:c8:d0:4f
-----BEGIN CERTIFICATE-----
MIIDijCCAnKgAwIBAgIUHoonk/dTjgE0WNupPdCLYSIbSxUwDQYJKoZIhvcNAQEL
BQAwFTETMBEGA1UEAwwKU2hhZG93Um9vdDAeFw0yMjEwMDUxMjAwMDBaFw0yMzEw
MDUxMjAwMDBaMA8xDTALBgNVBAMMBFJvb3QwggEiMA0GCSqGSIb3DQEBAQUAA4IB
DwAwggEKAoIBAQC7+oc5y0PZJOksVM0Y6riH7C/TV+OcI76UPCZB22FAuK0HU/Fp
xbQsaq3e5Uq94w93xFn67tU6GpPKzbEiKiRCWgFC6Fd0+YlW+MET9slCm0V7/7eq
wR8b6AIkEpcNhLlicIOTcs2bGiYnkjRGUcW3x0q0eoqEmOL3kE3Mzz3uhZGNdWA4
DOULAOb+6cMZZD8tyBTx2al2BVSoWp5kVu1gQ8WY23qu2ixWy4cAbz2DO6Nc9VUN
bKvtaMG4HaXQdx235lLvLHU6mOxRbxVfZIL20ZC97gEo5YkOAe5UBx0OevCCnMzB
xUr2qVgzxcyjhhdyGZIsrmpGqKglKs+6cMGJAgMBAAGjgdcwgdQwHQYDVR0OBBYE
FJHXIMYdACE1U33+UBEC3eNAK5qoMB8GA1UdIwQYMBaAFIXFtnIpMFaWG4A3eSkY
or1I+Z5KMD0GCCsGAQUFBwEBBDEwLzAtBggrBgEFBQcwAoYhaHR0cDovL3VybC1m
b3ItYWlhL1NoYWRvd1Jvb3QuY2VyMDIGA1UdHwQrMCkwJ6AloCOGIWh0dHA6Ly91
cmwtZm9yLWNybC9TaGFkb3dSb290LmNybDAOBgNVHQ8BAf8EBAMCAQYwDwYDVR0T
AQH/BAUwAwEB/zANBgkqhkiG9w0BAQsFAAOCAQEAvRx/soq7vUwNOafGkyAgkzSV
+9HgzD+/PGv456uqWRk+2QfXcLVBY3MbaxxfyPdyQSQZULdpeHkJ0B1CyTVbP7es
Nn4ityif8jpzQ8LbDeMqx8PfOmlGeUBjuKm2tBltYuwOFR4a0lYJ9wFCjKy0+I2l
uLkLQMQYPzshzhzyzmGn6L/q98X/zV/qICxrocbJlizOh3+xFdejGMDS/rAUr7ur
NFrMW+Az4mGh/t4pqm0RiFakgny5E85ONGzlFPabmMW3k7zYuUv9ysF2xJdJN6EV
xV/fsSess4n8tnn0B78Ji6LaiI4dIAkx0qImBM3iUncDB5avBomJyxd4JcjQTw==
-----END CERTIFICATE-----
