[Created by: generate-chains.py]

Certificate chain where the intermediate was signed by a different
certificate with a different key. The intermediate lacks an
authorityKeyIdentifier extension as some verifiers will not try verifying with
the bogus root if the authorityKeyIdentifier does not match the root's
subjectKeyIdentifier.


Certificate:
    Data:
        Version: 3 (0x2)
        Serial Number:
            79:09:02:a5:7e:5f:ed:29:b0:9c:e2:2b:f0:ed:48:a5:f4:32:81:64
        Signature Algorithm: sha256WithRSAEncryption
        Issuer: CN=Intermediate
        Validity
            Not Before: Oct  5 12:00:00 2022 GMT
            Not After : Oct  5 12:00:00 2023 GMT
        Subject: CN=Target
        Subject Public Key Info:
            Public Key Algorithm: rsaEncryption
                Public-Key: (2048 bit)
                Modulus:
                    00:ab:12:e3:ca:56:56:53:39:63:22:cd:90:66:ef:
                    33:38:2d:22:ef:23:1b:4c:81:d0:2e:d0:8e:f8:63:
                    f4:36:e4:45:45:5c:98:6d:46:f1:d4:98:49:15:44:
                    6d:81:cd:55:14:95:f8:b0:80:e6:26:4e:ff:04:c7:
                    d7:71:ab:01:0c:0b:f1:7b:18:80:a2:e2:9c:29:0e:
                    7d:d5:c0:a7:b5:4a:04:42:5e:d5:4d:9c:68:ed:b4:
                    04:f2:3e:e3:ce:1e:89:2c:06:13:f3:85:ec:63:01:
                    a5:de:7c:01:ed:fd:35:60:d2:66:ac:d7:9b:3a:81:
                    07:7c:90:7f:ae:e2:ac:b3:41:1c:58:7b:21:c6:7d:
                    22:dc:e9:16:5c:53:a5:bc:4d:09:51:8b:6c:c8:93:
                    9a:65:cc:16:20:01:3c:cf:99:8e:9e:17:57:0b:d7:
                    9a:30:6f:db:ed:64:85:d1:ad:8b:a3:ad:f1:c0:6f:
                    de:3e:83:9a:33:fb:1c:d3:ed:a6:46:1c:3c:c0:41:
                    95:7c:da:5b:a2:73:eb:99:58:4d:dd:ee:76:4a:d6:
                    9c:0d:66:46:72:79:f0:95:94:aa:08:18:0e:12:b1:
                    03:73:9c:a4:52:b2:54:c8:e4:cb:27:6b:aa:24:07:
                    14:98:76:12:7d:01:5f:df:a7:e8:34:2a:46:61:b6:
                    11:f5
                Exponent: 65537 (0x10001)
        X509v3 extensions:
            X509v3 Subject Key Identifier: 
                3B:80:B5:C8:C1:DB:F2:5A:84:C6:36:8C:08:04:72:6B:FC:78:48:55
            X509v3 Authority Key Identifier: 
                9C:50:7F:A1:0F:62:41:B6:41:8A:7E:5C:6E:73:B4:3E:44:FE:E6:C2
            Authority Information Access: 
                CA Issuers - URI:http://url-for-aia/Intermediate.cer
            X509v3 CRL Distribution Points: 
                Full Name:
                  URI:http://url-for-crl/Intermediate.crl
            X509v3 Key Usage: critical
                Digital Signature, Key Encipherment
            X509v3 Extended Key Usage: 
                TLS Web Server Authentication, TLS Web Client Authentication
            X509v3 Subject Alternative Name: 
                DNS:test.example
    Signature Algorithm: sha256WithRSAEncryption
    Signature Value:
        53:20:53:09:5a:1f:50:d5:e2:6a:56:50:9c:8d:70:e6:ac:2d:
        03:9d:30:dc:25:31:80:5c:1b:23:e0:c8:26:7a:3e:c8:03:f1:
        56:fc:00:80:3a:bb:fb:44:cf:de:8e:5d:be:ba:83:7b:f2:56:
        f8:35:d7:88:b6:f8:89:d6:0d:d9:c3:29:29:92:41:92:05:b7:
        02:35:68:d9:d5:fc:87:c7:60:2c:1b:89:ea:bb:69:03:73:a3:
        44:13:0f:d4:68:4c:0e:3d:da:3e:60:82:e3:82:ab:f7:19:ff:
        9f:42:0d:c9:58:5c:40:f2:3c:bf:c7:50:cc:80:a7:5a:19:a1:
        27:af:24:c0:fd:8c:c3:1b:f3:e7:71:52:37:b8:fe:bf:db:7b:
        a2:fa:73:56:84:21:19:55:7f:f4:0e:74:6b:52:2c:a9:d2:22:
        d4:d3:2b:d7:00:c0:8d:79:bd:b1:f8:47:e4:43:81:b9:39:0a:
        26:e2:7f:e3:93:4c:cf:a7:64:1d:63:44:e3:57:e7:1b:3a:1b:
        fa:ca:ed:7c:6d:0c:82:2c:d8:f3:99:a1:d2:31:42:ec:72:6d:
        68:ca:23:0e:0b:59:21:19:3d:d5:8c:1b:c9:04:b1:d7:d9:10:
        bf:2f:01:5b:72:ed:7e:95:39:bd:c2:0f:9b:19:b9:5a:2b:79:
        e6:eb:cf:18
-----BEGIN CERTIFICATE-----
MIIDujCCAqKgAwIBAgIUeQkCpX5f7SmwnOIr8O1IpfQygWQwDQYJKoZIhvcNAQEL
BQAwFzEVMBMGA1UEAwwMSW50ZXJtZWRpYXRlMB4XDTIyMTAwNTEyMDAwMFoXDTIz
MTAwNTEyMDAwMFowETEPMA0GA1UEAwwGVGFyZ2V0MIIBIjANBgkqhkiG9w0BAQEF
AAOCAQ8AMIIBCgKCAQEAqxLjylZWUzljIs2QZu8zOC0i7yMbTIHQLtCO+GP0NuRF
RVyYbUbx1JhJFURtgc1VFJX4sIDmJk7/BMfXcasBDAvxexiAouKcKQ591cCntUoE
Ql7VTZxo7bQE8j7jzh6JLAYT84XsYwGl3nwB7f01YNJmrNebOoEHfJB/ruKss0Ec
WHshxn0i3OkWXFOlvE0JUYtsyJOaZcwWIAE8z5mOnhdXC9eaMG/b7WSF0a2Lo63x
wG/ePoOaM/sc0+2mRhw8wEGVfNpbonPrmVhN3e52StacDWZGcnnwlZSqCBgOErED
c5ykUrJUyOTLJ2uqJAcUmHYSfQFf36foNCpGYbYR9QIDAQABo4IBAjCB/zAdBgNV
HQ4EFgQUO4C1yMHb8lqExjaMCARya/x4SFUwHwYDVR0jBBgwFoAUnFB/oQ9iQbZB
in5cbnO0PkT+5sIwPwYIKwYBBQUHAQEEMzAxMC8GCCsGAQUFBzAChiNodHRwOi8v
dXJsLWZvci1haWEvSW50ZXJtZWRpYXRlLmNlcjA0BgNVHR8ELTArMCmgJ6AlhiNo
dHRwOi8vdXJsLWZvci1jcmwvSW50ZXJtZWRpYXRlLmNybDAOBgNVHQ8BAf8EBAMC
BaAwHQYDVR0lBBYwFAYIKwYBBQUHAwEGCCsGAQUFBwMCMBcGA1UdEQQQMA6CDHRl
c3QuZXhhbXBsZTANBgkqhkiG9w0BAQsFAAOCAQEAUyBTCVofUNXialZQnI1w5qwt
A50w3CUxgFwbI+DIJno+yAPxVvwAgDq7+0TP3o5dvrqDe/JW+DXXiLb4idYN2cMp
KZJBkgW3AjVo2dX8h8dgLBuJ6rtpA3OjRBMP1GhMDj3aPmCC44Kr9xn/n0INyVhc
QPI8v8dQzICnWhmhJ68kwP2Mwxvz53FSN7j+v9t7ovpzVoQhGVV/9A50a1IsqdIi
1NMr1wDAjXm9sfhH5EOBuTkKJuJ/45NMz6dkHWNE41fnGzob+srtfG0MgizY85mh
0jFC7HJtaMojDgtZIRk91YwbyQSx19kQvy8BW3LtfpU5vcIPmxm5Wit55uvPGA==
-----END CERTIFICATE-----

Certificate:
    Data:
        Version: 3 (0x2)
        Serial Number:
            70:e9:3f:62:d9:75:26:c4:22:75:a1:77:c9:f1:44:79:41:3f:cb:10
        Signature Algorithm: sha256WithRSAEncryption
        Issuer: CN=Root
        Validity
            Not Before: Oct  5 12:00:00 2022 GMT
            Not After : Oct  5 12:00:00 2023 GMT
        Subject: CN=Intermediate
        Subject Public Key Info:
            Public Key Algorithm: rsaEncryption
                Public-Key: (2048 bit)
                Modulus:
                    00:b1:5a:2a:19:91:cd:d4:28:05:9d:4e:95:4e:47:
                    cf:79:0a:12:27:4f:0c:29:93:3f:2a:9c:3a:b3:a3:
                    07:43:a3:40:06:07:37:7c:1f:d8:6c:6a:af:38:06:
                    a8:3c:31:cf:c6:46:1e:ba:b8:70:95:5f:85:49:59:
                    41:78:3b:f9:c2:03:d2:a1:9d:5a:82:f5:c7:ae:74:
                    53:ec:d1:ae:07:26:0c:bd:67:47:bb:05:fd:d5:a6:
                    24:d4:c0:39:db:3b:ff:1e:f0:8f:0d:bf:f2:0d:00:
                    e5:7d:63:13:2d:d0:9b:3f:96:46:5d:c9:06:34:40:
                    15:94:a3:29:9f:fe:7d:ec:95:9f:e9:e5:c6:97:f6:
                    10:3f:ea:09:40:84:ba:59:64:d6:83:06:bc:ec:ea:
                    3f:7c:99:f3:b4:c7:13:9d:1a:74:bc:f5:4f:b5:d7:
                    c0:fc:0f:78:f9:87:fb:9a:f1:44:00:91:d2:d9:5d:
                    12:67:a0:cd:75:a4:eb:c2:47:86:b8:bd:d5:4c:7e:
                    6b:48:8e:a9:7d:0c:3f:4e:a0:2e:a1:fc:67:63:40:
                    fa:c4:56:b0:a3:ee:8a:73:55:69:fa:ec:5f:39:57:
                    74:65:1d:ef:66:9e:ad:76:84:e3:a7:ec:7e:d8:c2:
                    fb:8b:16:0e:1e:65:79:1d:c7:8e:d9:df:1e:31:49:
                    1e:85
                Exponent: 65537 (0x10001)
        X509v3 extensions:
            X509v3 Subject Key Identifier: 
                9C:50:7F:A1:0F:62:41:B6:41:8A:7E:5C:6E:73:B4:3E:44:FE:E6:C2
            Authority Information Access: 
                CA Issuers - URI:http://url-for-aia/Root.cer
            X509v3 CRL Distribution Points: 
                Full Name:
                  URI:http://url-for-crl/Root.crl
            X509v3 Key Usage: critical
                Certificate Sign, CRL Sign
            X509v3 Basic Constraints: critical
                CA:TRUE
            X509v3 Authority Key Identifier: 
                7C:DD:D6:E2:3D:6F:65:32:2C:F8:31:C1:A6:B5:01:0A:31:F3:18:EC
    Signature Algorithm: sha256WithRSAEncryption
    Signature Value:
        b7:1f:b1:13:23:f9:91:f6:3a:88:d6:13:51:00:2d:5b:cf:1d:
        05:23:8e:0f:e3:ae:e0:f2:cf:05:2f:07:5f:a3:ab:24:36:6c:
        c6:ef:8f:52:85:98:5f:1e:5a:2b:f7:ba:9a:3f:b1:fc:4b:fc:
        7c:eb:23:af:6e:6c:e6:99:73:ec:82:c8:e8:c2:5e:1e:60:aa:
        df:f3:5c:fa:a6:aa:f9:5f:59:eb:12:94:b6:34:5f:55:02:d7:
        a0:78:9e:17:75:44:41:09:dc:9f:dd:71:e6:bd:2f:57:fe:4a:
        68:58:17:7b:77:99:0a:c9:7a:41:81:4c:34:3d:2c:cc:f8:6a:
        4f:35:e2:bd:3e:5f:91:73:3a:ca:af:3b:0a:b5:bc:b8:4c:5f:
        d5:c1:9e:60:e4:cb:41:52:ad:78:41:cc:09:cb:c8:ec:34:73:
        d7:97:a4:99:3a:8b:6a:f0:90:43:5b:c0:98:3f:17:49:75:b3:
        cd:ce:1e:73:b8:70:35:1e:4c:8b:79:a9:97:7b:d8:0d:54:ad:
        eb:73:c0:c3:f8:a1:52:55:20:7f:67:ee:a9:88:bc:15:d6:af:
        f1:81:42:aa:97:b8:3d:8a:b1:26:18:e5:45:7b:ba:14:03:6c:
        60:d7:8c:b5:10:5b:56:1b:49:82:68:37:a5:de:6c:05:51:42:
        f5:37:46:2b
-----BEGIN CERTIFICATE-----
MIIDgDCCAmigAwIBAgIUcOk/Ytl1JsQidaF3yfFEeUE/yxAwDQYJKoZIhvcNAQEL
BQAwDzENMAsGA1UEAwwEUm9vdDAeFw0yMjEwMDUxMjAwMDBaFw0yMzEwMDUxMjAw
MDBaMBcxFTATBgNVBAMMDEludGVybWVkaWF0ZTCCASIwDQYJKoZIhvcNAQEBBQAD
ggEPADCCAQoCggEBALFaKhmRzdQoBZ1OlU5Hz3kKEidPDCmTPyqcOrOjB0OjQAYH
N3wf2GxqrzgGqDwxz8ZGHrq4cJVfhUlZQXg7+cID0qGdWoL1x650U+zRrgcmDL1n
R7sF/dWmJNTAOds7/x7wjw2/8g0A5X1jEy3Qmz+WRl3JBjRAFZSjKZ/+feyVn+nl
xpf2ED/qCUCEullk1oMGvOzqP3yZ87THE50adLz1T7XXwPwPePmH+5rxRACR0tld
EmegzXWk68JHhri91Ux+a0iOqX0MP06gLqH8Z2NA+sRWsKPuinNVafrsXzlXdGUd
72aerXaE46fsftjC+4sWDh5leR3HjtnfHjFJHoUCAwEAAaOByzCByDAdBgNVHQ4E
FgQUnFB/oQ9iQbZBin5cbnO0PkT+5sIwNwYIKwYBBQUHAQEEKzApMCcGCCsGAQUF
BzAChhtodHRwOi8vdXJsLWZvci1haWEvUm9vdC5jZXIwLAYDVR0fBCUwIzAhoB+g
HYYbaHR0cDovL3VybC1mb3ItY3JsL1Jvb3QuY3JsMA4GA1UdDwEB/wQEAwIBBjAP
BgNVHRMBAf8EBTADAQH/MB8GA1UdIwQYMBaAFHzd1uI9b2UyLPgxwaa1AQox8xjs
MA0GCSqGSIb3DQEBCwUAA4IBAQC3H7ETI/mR9jqI1hNRAC1bzx0FI44P467g8s8F
Lwdfo6skNmzG749ShZhfHlor97qaP7H8S/x86yOvbmzmmXPsgsjowl4eYKrf81z6
pqr5X1nrEpS2NF9VAtegeJ4XdURBCdyf3XHmvS9X/kpoWBd7d5kKyXpBgUw0PSzM
+GpPNeK9Pl+RczrKrzsKtby4TF/VwZ5g5MtBUq14QcwJy8jsNHPXl6SZOotq8JBD
W8CYPxdJdbPNzh5zuHA1HkyLeamXe9gNVK3rc8DD+KFSVSB/Z+6piLwV1q/xgUKq
l7g9irEmGOVFe7oUA2xg14y1EFtWG0mCaDel3mwFUUL1N0Yr
-----END CERTIFICATE-----

Certificate:
    Data:
        Version: 3 (0x2)
        Serial Number:
            70:e9:3f:62:d9:75:26:c4:22:75:a1:77:c9:f1:44:79:41:3f:cb:11
        Signature Algorithm: sha256WithRSAEncryption
        Issuer: CN=Root
        Validity
            Not Before: Oct  5 12:00:00 2022 GMT
            Not After : Oct  5 12:00:00 2023 GMT
        Subject: CN=Root
        Subject Public Key Info:
            Public Key Algorithm: rsaEncryption
                Public-Key: (2048 bit)
                Modulus:
                    00:9c:03:e4:44:d9:35:7b:d7:f5:f0:78:21:45:10:
                    23:6f:06:36:12:ff:a2:76:ef:19:ec:6f:a5:07:40:
                    3c:81:11:8d:0b:5a:6b:1f:fe:73:80:3e:62:0b:00:
                    de:05:eb:a6:e8:e6:70:33:d1:16:6c:56:d7:0e:a5:
                    a7:52:9b:9c:9b:33:ab:7e:98:d6:1f:42:36:65:d4:
                    54:bf:85:fd:ba:23:40:84:c6:0f:48:e6:0a:14:2c:
                    6e:12:b2:ce:c4:2b:47:aa:61:5c:ba:37:c3:c1:7b:
                    39:04:1f:2d:5a:6a:b1:35:33:d9:02:66:92:36:0e:
                    30:50:d6:57:4a:e0:07:d9:4c:39:f3:2f:8d:e3:e6:
                    2b:ce:ab:37:6b:24:d6:99:fa:25:b2:f5:dc:6c:bd:
                    85:a2:e5:bb:41:a6:a5:44:8c:12:3f:a8:89:90:8b:
                    51:bf:25:40:f7:fa:f9:f3:4f:d7:0c:43:c8:ea:bf:
                    4e:1f:08:90:e6:6e:cc:3f:ab:83:41:52:d4:96:9b:
                    df:18:90:f0:dc:51:05:10:e0:44:9e:9f:5a:f3:f5:
                    9b:81:41:fe:64:40:00:54:db:22:c4:b1:dd:7b:1a:
                    c9:f9:54:21:fc:15:13:c2:b6:c5:8c:45:c8:f6:44:
                    c8:32:6e:9c:23:cd:2a:61:92:b1:11:b6:35:a2:e4:
                    e8:2b
                Exponent: 65537 (0x10001)
        X509v3 extensions:
            X509v3 Subject Key Identifier: 
                A4:09:C4:04:3B:00:F6:3C:A0:27:CB:BE:2F:C5:65:78:EE:43:F1:56
            X509v3 Authority Key Identifier: 
                A4:09:C4:04:3B:00:F6:3C:A0:27:CB:BE:2F:C5:65:78:EE:43:F1:56
            Authority Information Access: 
                CA Issuers - URI:http://url-for-aia/Root.cer
            X509v3 CRL Distribution Points: 
                Full Name:
                  URI:http://url-for-crl/Root.crl
            X509v3 Key Usage: critical
                Certificate Sign, CRL Sign
            X509v3 Basic Constraints: critical
                CA:TRUE
    Signature Algorithm: sha256WithRSAEncryption
    Signature Value:
        28:82:16:bf:98:fc:53:7a:74:7d:69:3a:e3:d4:88:10:92:89:
        8c:cc:ff:e0:06:85:86:a6:2b:66:dd:21:46:32:3b:f4:9d:62:
        e3:a1:0f:b4:a2:59:a3:36:32:99:4b:d0:b3:f6:ee:ca:8b:f8:
        9d:30:57:81:fd:7f:f5:7c:10:9c:26:27:01:cd:7d:39:87:f3:
        67:35:40:de:72:a0:9a:af:21:e0:ec:fc:cc:8a:43:f9:05:33:
        ba:f3:8e:82:8a:31:63:52:bb:3e:17:e6:95:3b:12:b0:0a:54:
        72:87:d3:db:56:f2:70:03:3e:dd:f1:0c:48:1c:dc:de:24:71:
        1d:cd:43:33:18:14:52:9e:b2:06:79:b7:23:ee:09:90:d8:06:
        c9:2f:c3:86:14:53:32:79:e9:61:30:b8:8c:53:f0:f4:6d:b6:
        82:c0:2a:29:7a:33:65:59:e3:25:a4:93:06:0e:f7:c7:91:3d:
        0a:cc:d9:3d:ef:ea:3d:0f:76:b1:49:01:9b:c2:2a:a3:c6:67:
        1e:42:9d:91:3c:f4:d3:09:02:9f:cb:30:4f:f9:24:2b:4e:8a:
        1c:88:dd:fd:6f:13:f6:f3:17:6b:e4:9e:6d:7e:d6:ab:20:05:
        dc:0f:b6:fc:3a:31:e2:30:82:f5:9c:41:ae:d0:d2:5e:c6:e3:
        5b:69:b7:4d
-----BEGIN CERTIFICATE-----
MIIDeDCCAmCgAwIBAgIUcOk/Ytl1JsQidaF3yfFEeUE/yxEwDQYJKoZIhvcNAQEL
BQAwDzENMAsGA1UEAwwEUm9vdDAeFw0yMjEwMDUxMjAwMDBaFw0yMzEwMDUxMjAw
MDBaMA8xDTALBgNVBAMMBFJvb3QwggEiMA0GCSqGSIb3DQEBAQUAA4IBDwAwggEK
AoIBAQCcA+RE2TV71/XweCFFECNvBjYS/6J27xnsb6UHQDyBEY0LWmsf/nOAPmIL
AN4F66bo5nAz0RZsVtcOpadSm5ybM6t+mNYfQjZl1FS/hf26I0CExg9I5goULG4S
ss7EK0eqYVy6N8PBezkEHy1aarE1M9kCZpI2DjBQ1ldK4AfZTDnzL43j5ivOqzdr
JNaZ+iWy9dxsvYWi5btBpqVEjBI/qImQi1G/JUD3+vnzT9cMQ8jqv04fCJDmbsw/
q4NBUtSWm98YkPDcUQUQ4ESen1rz9ZuBQf5kQABU2yLEsd17Gsn5VCH8FRPCtsWM
Rcj2RMgybpwjzSphkrERtjWi5OgrAgMBAAGjgcswgcgwHQYDVR0OBBYEFKQJxAQ7
APY8oCfLvi/FZXjuQ/FWMB8GA1UdIwQYMBaAFKQJxAQ7APY8oCfLvi/FZXjuQ/FW
MDcGCCsGAQUFBwEBBCswKTAnBggrBgEFBQcwAoYbaHR0cDovL3VybC1mb3ItYWlh
L1Jvb3QuY2VyMCwGA1UdHwQlMCMwIaAfoB2GG2h0dHA6Ly91cmwtZm9yLWNybC9S
b290LmNybDAOBgNVHQ8BAf8EBAMCAQYwDwYDVR0TAQH/BAUwAwEB/zANBgkqhkiG
9w0BAQsFAAOCAQEAKIIWv5j8U3p0fWk649SIEJKJjMz/4AaFhqYrZt0hRjI79J1i
46EPtKJZozYymUvQs/buyov4nTBXgf1/9XwQnCYnAc19OYfzZzVA3nKgmq8h4Oz8
zIpD+QUzuvOOgooxY1K7PhfmlTsSsApUcofT21bycAM+3fEMSBzc3iRxHc1DMxgU
Up6yBnm3I+4JkNgGyS/DhhRTMnnpYTC4jFPw9G22gsAqKXozZVnjJaSTBg73x5E9
CszZPe/qPQ92sUkBm8Iqo8ZnHkKdkTz00wkCn8swT/kkK06KHIjd/W8T9vMXa+Se
bX7WqyAF3A+2/Dox4jCC9ZxBrtDSXsbjW2m3TQ==
-----END CERTIFICATE-----
