[Created by: ./generate-chains.py]

Certificate chain where the intermediate was signed by a different
certificate with a different key. The intermediate lacks an
authorityKeyIdentifier extension as some verifiers will not try verifying with
the bogus root if the authorityKeyIdentifier does not match the root's
subjectKeyIdentifier.


Certificate:
    Data:
        Version: 3 (0x2)
        Serial Number:
            79:09:02:a5:7e:5f:ed:29:b0:9c:e2:2b:f0:ed:48:a5:f4:32:81:64
        Signature Algorithm: sha256WithRSAEncryption
        Issuer: CN=Intermediate
        Validity
            Not Before: Mar 10 12:00:00 2018 GMT
            Not After : Jan  1 12:00:00 2021 GMT
        Subject: CN=Target
        Subject Public Key Info:
            Public Key Algorithm: rsaEncryption
                RSA Public-Key: (2048 bit)
                Modulus:
                    00:ab:12:e3:ca:56:56:53:39:63:22:cd:90:66:ef:
                    33:38:2d:22:ef:23:1b:4c:81:d0:2e:d0:8e:f8:63:
                    f4:36:e4:45:45:5c:98:6d:46:f1:d4:98:49:15:44:
                    6d:81:cd:55:14:95:f8:b0:80:e6:26:4e:ff:04:c7:
                    d7:71:ab:01:0c:0b:f1:7b:18:80:a2:e2:9c:29:0e:
                    7d:d5:c0:a7:b5:4a:04:42:5e:d5:4d:9c:68:ed:b4:
                    04:f2:3e:e3:ce:1e:89:2c:06:13:f3:85:ec:63:01:
                    a5:de:7c:01:ed:fd:35:60:d2:66:ac:d7:9b:3a:81:
                    07:7c:90:7f:ae:e2:ac:b3:41:1c:58:7b:21:c6:7d:
                    22:dc:e9:16:5c:53:a5:bc:4d:09:51:8b:6c:c8:93:
                    9a:65:cc:16:20:01:3c:cf:99:8e:9e:17:57:0b:d7:
                    9a:30:6f:db:ed:64:85:d1:ad:8b:a3:ad:f1:c0:6f:
                    de:3e:83:9a:33:fb:1c:d3:ed:a6:46:1c:3c:c0:41:
                    95:7c:da:5b:a2:73:eb:99:58:4d:dd:ee:76:4a:d6:
                    9c:0d:66:46:72:79:f0:95:94:aa:08:18:0e:12:b1:
                    03:73:9c:a4:52:b2:54:c8:e4:cb:27:6b:aa:24:07:
                    14:98:76:12:7d:01:5f:df:a7:e8:34:2a:46:61:b6:
                    11:f5
                Exponent: 65537 (0x10001)
        X509v3 extensions:
            X509v3 Subject Key Identifier: 
                3B:80:B5:C8:C1:DB:F2:5A:84:C6:36:8C:08:04:72:6B:FC:78:48:55
            X509v3 Authority Key Identifier: 
                keyid:9C:50:7F:A1:0F:62:41:B6:41:8A:7E:5C:6E:73:B4:3E:44:FE:E6:C2

            Authority Information Access: 
                CA Issuers - URI:http://url-for-aia/Intermediate.cer

            X509v3 CRL Distribution Points: 

                Full Name:
                  URI:http://url-for-crl/Intermediate.crl

            X509v3 Key Usage: critical
                Digital Signature, Key Encipherment
            X509v3 Extended Key Usage: 
                TLS Web Server Authentication, TLS Web Client Authentication
            X509v3 Subject Alternative Name: 
                DNS:test.example
    Signature Algorithm: sha256WithRSAEncryption
         4e:64:05:05:df:94:c5:dd:90:98:b3:b2:52:e1:f8:a2:b0:b6:
         3f:0b:34:84:63:4c:95:a0:4e:17:18:e4:59:b6:c3:f6:90:4b:
         5a:99:e9:aa:ce:6e:d1:b0:2a:6a:f7:eb:73:bf:33:03:9b:1e:
         65:8e:26:47:95:4b:b3:2a:50:43:70:bc:41:36:50:c6:13:81:
         1c:d0:3f:21:2c:cb:04:b6:13:59:a3:03:0e:c9:7e:13:b3:b9:
         ae:2c:d5:dd:e2:11:c5:dd:ee:55:9b:1d:78:a5:ef:ca:89:73:
         ce:ab:d1:1f:b4:e3:e1:46:e9:3d:65:d1:6d:e6:76:cf:f7:06:
         24:7c:dd:bf:02:42:6e:a9:50:2a:31:dc:34:11:79:19:b0:b4:
         15:3e:1c:fb:27:bf:12:3c:b8:61:ff:c2:c9:54:91:bf:13:c2:
         d5:09:38:ac:68:ec:21:13:c0:19:75:91:13:a8:1a:4e:81:3b:
         8f:0c:33:27:09:f2:0f:32:14:29:c3:2f:ad:12:ad:5c:29:d9:
         4a:13:a1:42:85:ea:fc:00:3d:63:64:19:20:af:b4:32:75:60:
         04:bd:c1:a9:9c:0e:22:17:99:7c:47:d6:62:1d:41:d9:f5:16:
         e7:ab:e2:75:a4:bb:8d:19:b9:0a:21:ad:84:ec:a3:5d:6f:99:
         e9:78:c8:20
-----BEGIN CERTIFICATE-----
MIIDujCCAqKgAwIBAgIUeQkCpX5f7SmwnOIr8O1IpfQygWQwDQYJKoZIhvcNAQEL
BQAwFzEVMBMGA1UEAwwMSW50ZXJtZWRpYXRlMB4XDTE4MDMxMDEyMDAwMFoXDTIx
MDEwMTEyMDAwMFowETEPMA0GA1UEAwwGVGFyZ2V0MIIBIjANBgkqhkiG9w0BAQEF
AAOCAQ8AMIIBCgKCAQEAqxLjylZWUzljIs2QZu8zOC0i7yMbTIHQLtCO+GP0NuRF
RVyYbUbx1JhJFURtgc1VFJX4sIDmJk7/BMfXcasBDAvxexiAouKcKQ591cCntUoE
Ql7VTZxo7bQE8j7jzh6JLAYT84XsYwGl3nwB7f01YNJmrNebOoEHfJB/ruKss0Ec
WHshxn0i3OkWXFOlvE0JUYtsyJOaZcwWIAE8z5mOnhdXC9eaMG/b7WSF0a2Lo63x
wG/ePoOaM/sc0+2mRhw8wEGVfNpbonPrmVhN3e52StacDWZGcnnwlZSqCBgOErED
c5ykUrJUyOTLJ2uqJAcUmHYSfQFf36foNCpGYbYR9QIDAQABo4IBAjCB/zAdBgNV
HQ4EFgQUO4C1yMHb8lqExjaMCARya/x4SFUwHwYDVR0jBBgwFoAUnFB/oQ9iQbZB
in5cbnO0PkT+5sIwPwYIKwYBBQUHAQEEMzAxMC8GCCsGAQUFBzAChiNodHRwOi8v
dXJsLWZvci1haWEvSW50ZXJtZWRpYXRlLmNlcjA0BgNVHR8ELTArMCmgJ6AlhiNo
dHRwOi8vdXJsLWZvci1jcmwvSW50ZXJtZWRpYXRlLmNybDAOBgNVHQ8BAf8EBAMC
BaAwHQYDVR0lBBYwFAYIKwYBBQUHAwEGCCsGAQUFBwMCMBcGA1UdEQQQMA6CDHRl
c3QuZXhhbXBsZTANBgkqhkiG9w0BAQsFAAOCAQEATmQFBd+Uxd2QmLOyUuH4orC2
Pws0hGNMlaBOFxjkWbbD9pBLWpnpqs5u0bAqavfrc78zA5seZY4mR5VLsypQQ3C8
QTZQxhOBHNA/ISzLBLYTWaMDDsl+E7O5rizV3eIRxd3uVZsdeKXvyolzzqvRH7Tj
4UbpPWXRbeZ2z/cGJHzdvwJCbqlQKjHcNBF5GbC0FT4c+ye/Ejy4Yf/CyVSRvxPC
1Qk4rGjsIRPAGXWRE6gaToE7jwwzJwnyDzIUKcMvrRKtXCnZShOhQoXq/AA9Y2QZ
IK+0MnVgBL3BqZwOIheZfEfWYh1B2fUW56vidaS7jRm5CiGthOyjXW+Z6XjIIA==
-----END CERTIFICATE-----

Certificate:
    Data:
        Version: 3 (0x2)
        Serial Number:
            70:e9:3f:62:d9:75:26:c4:22:75:a1:77:c9:f1:44:79:41:3f:cb:10
        Signature Algorithm: sha256WithRSAEncryption
        Issuer: CN=Root
        Validity
            Not Before: Mar 10 12:00:00 2018 GMT
            Not After : Jan  1 12:00:00 2021 GMT
        Subject: CN=Intermediate
        Subject Public Key Info:
            Public Key Algorithm: rsaEncryption
                RSA Public-Key: (2048 bit)
                Modulus:
                    00:b1:5a:2a:19:91:cd:d4:28:05:9d:4e:95:4e:47:
                    cf:79:0a:12:27:4f:0c:29:93:3f:2a:9c:3a:b3:a3:
                    07:43:a3:40:06:07:37:7c:1f:d8:6c:6a:af:38:06:
                    a8:3c:31:cf:c6:46:1e:ba:b8:70:95:5f:85:49:59:
                    41:78:3b:f9:c2:03:d2:a1:9d:5a:82:f5:c7:ae:74:
                    53:ec:d1:ae:07:26:0c:bd:67:47:bb:05:fd:d5:a6:
                    24:d4:c0:39:db:3b:ff:1e:f0:8f:0d:bf:f2:0d:00:
                    e5:7d:63:13:2d:d0:9b:3f:96:46:5d:c9:06:34:40:
                    15:94:a3:29:9f:fe:7d:ec:95:9f:e9:e5:c6:97:f6:
                    10:3f:ea:09:40:84:ba:59:64:d6:83:06:bc:ec:ea:
                    3f:7c:99:f3:b4:c7:13:9d:1a:74:bc:f5:4f:b5:d7:
                    c0:fc:0f:78:f9:87:fb:9a:f1:44:00:91:d2:d9:5d:
                    12:67:a0:cd:75:a4:eb:c2:47:86:b8:bd:d5:4c:7e:
                    6b:48:8e:a9:7d:0c:3f:4e:a0:2e:a1:fc:67:63:40:
                    fa:c4:56:b0:a3:ee:8a:73:55:69:fa:ec:5f:39:57:
                    74:65:1d:ef:66:9e:ad:76:84:e3:a7:ec:7e:d8:c2:
                    fb:8b:16:0e:1e:65:79:1d:c7:8e:d9:df:1e:31:49:
                    1e:85
                Exponent: 65537 (0x10001)
        X509v3 extensions:
            X509v3 Subject Key Identifier: 
                9C:50:7F:A1:0F:62:41:B6:41:8A:7E:5C:6E:73:B4:3E:44:FE:E6:C2
            Authority Information Access: 
                CA Issuers - URI:http://url-for-aia/Root.cer

            X509v3 CRL Distribution Points: 

                Full Name:
                  URI:http://url-for-crl/Root.crl

            X509v3 Key Usage: critical
                Certificate Sign, CRL Sign
            X509v3 Basic Constraints: critical
                CA:TRUE
    Signature Algorithm: sha256WithRSAEncryption
         22:28:bd:e1:37:71:fa:b4:51:db:95:63:f0:00:60:8e:ed:1a:
         9b:09:ab:4e:88:56:ee:ae:1e:b5:73:b7:d3:f1:77:b6:d6:5b:
         54:9f:27:8b:c9:1f:0a:b1:bc:2d:2c:32:f0:d2:be:cc:f5:22:
         18:bc:86:40:f2:7b:33:bb:cf:c8:f7:26:f3:94:b1:22:5a:13:
         b9:8f:eb:05:4d:ee:cf:f4:94:46:74:c8:c9:f5:e2:36:73:29:
         5e:52:6c:98:77:ca:87:da:62:21:55:5b:4b:8a:ec:9c:02:6d:
         7d:a6:c5:e0:80:05:fe:94:b7:ad:ff:d4:bd:80:6c:50:ca:85:
         b9:c3:5a:eb:41:90:82:84:e4:04:2a:90:ef:0a:47:17:05:5d:
         6c:34:20:bd:48:11:3c:5a:4d:f4:14:97:6f:3c:ae:72:db:d6:
         aa:1b:6b:f0:4e:e5:a3:36:ea:16:a2:52:dd:3f:8c:3e:15:f0:
         11:20:83:db:a8:ac:54:a4:a6:5d:42:aa:91:f7:d7:cf:f3:21:
         9f:e2:68:f2:17:e0:4d:18:60:cb:f6:4b:c3:4b:4c:49:3a:5e:
         69:d6:27:62:22:5b:da:a6:16:c1:4c:6e:4c:5e:dd:6c:32:67:
         30:86:02:e5:3b:73:ca:0e:1d:bc:87:0a:bc:8e:0e:49:1e:52:
         ee:58:f8:6f
-----BEGIN CERTIFICATE-----
MIIDXzCCAkegAwIBAgIUcOk/Ytl1JsQidaF3yfFEeUE/yxAwDQYJKoZIhvcNAQEL
BQAwDzENMAsGA1UEAwwEUm9vdDAeFw0xODAzMTAxMjAwMDBaFw0yMTAxMDExMjAw
MDBaMBcxFTATBgNVBAMMDEludGVybWVkaWF0ZTCCASIwDQYJKoZIhvcNAQEBBQAD
ggEPADCCAQoCggEBALFaKhmRzdQoBZ1OlU5Hz3kKEidPDCmTPyqcOrOjB0OjQAYH
N3wf2GxqrzgGqDwxz8ZGHrq4cJVfhUlZQXg7+cID0qGdWoL1x650U+zRrgcmDL1n
R7sF/dWmJNTAOds7/x7wjw2/8g0A5X1jEy3Qmz+WRl3JBjRAFZSjKZ/+feyVn+nl
xpf2ED/qCUCEullk1oMGvOzqP3yZ87THE50adLz1T7XXwPwPePmH+5rxRACR0tld
EmegzXWk68JHhri91Ux+a0iOqX0MP06gLqH8Z2NA+sRWsKPuinNVafrsXzlXdGUd
72aerXaE46fsftjC+4sWDh5leR3HjtnfHjFJHoUCAwEAAaOBqjCBpzAdBgNVHQ4E
FgQUnFB/oQ9iQbZBin5cbnO0PkT+5sIwNwYIKwYBBQUHAQEEKzApMCcGCCsGAQUF
BzAChhtodHRwOi8vdXJsLWZvci1haWEvUm9vdC5jZXIwLAYDVR0fBCUwIzAhoB+g
HYYbaHR0cDovL3VybC1mb3ItY3JsL1Jvb3QuY3JsMA4GA1UdDwEB/wQEAwIBBjAP
BgNVHRMBAf8EBTADAQH/MA0GCSqGSIb3DQEBCwUAA4IBAQAiKL3hN3H6tFHblWPw
AGCO7RqbCatOiFburh61c7fT8Xe21ltUnyeLyR8KsbwtLDLw0r7M9SIYvIZA8nsz
u8/I9ybzlLEiWhO5j+sFTe7P9JRGdMjJ9eI2cyleUmyYd8qH2mIhVVtLiuycAm19
psXggAX+lLet/9S9gGxQyoW5w1rrQZCChOQEKpDvCkcXBV1sNCC9SBE8Wk30FJdv
PK5y29aqG2vwTuWjNuoWolLdP4w+FfARIIPbqKxUpKZdQqqR99fP8yGf4mjyF+BN
GGDL9kvDS0xJOl5p1idiIlvaphbBTG5MXt1sMmcwhgLlO3PKDh28hwq8jg5JHlLu
WPhv
-----END CERTIFICATE-----

Certificate:
    Data:
        Version: 3 (0x2)
        Serial Number:
            70:e9:3f:62:d9:75:26:c4:22:75:a1:77:c9:f1:44:79:41:3f:cb:11
        Signature Algorithm: sha256WithRSAEncryption
        Issuer: CN=Root
        Validity
            Not Before: Mar 10 12:00:00 2018 GMT
            Not After : Jan  1 12:00:00 2021 GMT
        Subject: CN=Root
        Subject Public Key Info:
            Public Key Algorithm: rsaEncryption
                RSA Public-Key: (2048 bit)
                Modulus:
                    00:9c:03:e4:44:d9:35:7b:d7:f5:f0:78:21:45:10:
                    23:6f:06:36:12:ff:a2:76:ef:19:ec:6f:a5:07:40:
                    3c:81:11:8d:0b:5a:6b:1f:fe:73:80:3e:62:0b:00:
                    de:05:eb:a6:e8:e6:70:33:d1:16:6c:56:d7:0e:a5:
                    a7:52:9b:9c:9b:33:ab:7e:98:d6:1f:42:36:65:d4:
                    54:bf:85:fd:ba:23:40:84:c6:0f:48:e6:0a:14:2c:
                    6e:12:b2:ce:c4:2b:47:aa:61:5c:ba:37:c3:c1:7b:
                    39:04:1f:2d:5a:6a:b1:35:33:d9:02:66:92:36:0e:
                    30:50:d6:57:4a:e0:07:d9:4c:39:f3:2f:8d:e3:e6:
                    2b:ce:ab:37:6b:24:d6:99:fa:25:b2:f5:dc:6c:bd:
                    85:a2:e5:bb:41:a6:a5:44:8c:12:3f:a8:89:90:8b:
                    51:bf:25:40:f7:fa:f9:f3:4f:d7:0c:43:c8:ea:bf:
                    4e:1f:08:90:e6:6e:cc:3f:ab:83:41:52:d4:96:9b:
                    df:18:90:f0:dc:51:05:10:e0:44:9e:9f:5a:f3:f5:
                    9b:81:41:fe:64:40:00:54:db:22:c4:b1:dd:7b:1a:
                    c9:f9:54:21:fc:15:13:c2:b6:c5:8c:45:c8:f6:44:
                    c8:32:6e:9c:23:cd:2a:61:92:b1:11:b6:35:a2:e4:
                    e8:2b
                Exponent: 65537 (0x10001)
        X509v3 extensions:
            X509v3 Subject Key Identifier: 
                A4:09:C4:04:3B:00:F6:3C:A0:27:CB:BE:2F:C5:65:78:EE:43:F1:56
            X509v3 Authority Key Identifier: 
                keyid:A4:09:C4:04:3B:00:F6:3C:A0:27:CB:BE:2F:C5:65:78:EE:43:F1:56

            Authority Information Access: 
                CA Issuers - URI:http://url-for-aia/Root.cer

            X509v3 CRL Distribution Points: 

                Full Name:
                  URI:http://url-for-crl/Root.crl

            X509v3 Key Usage: critical
                Certificate Sign, CRL Sign
            X509v3 Basic Constraints: critical
                CA:TRUE
    Signature Algorithm: sha256WithRSAEncryption
         03:76:f2:1b:92:bc:b7:9f:a1:9a:a9:c8:82:2a:c0:de:9f:83:
         ba:a7:b0:d9:57:73:a0:c0:87:a2:6b:86:a8:f9:90:f6:e1:92:
         99:58:8c:9b:b6:41:af:3d:83:87:08:41:20:ec:1e:a9:c0:78:
         88:64:0d:54:45:72:54:e7:78:4d:d7:f0:d1:76:b5:d5:7c:93:
         71:cb:b1:0c:1a:30:3d:bd:ad:76:d0:32:26:75:1d:17:26:e5:
         83:49:a7:cd:e8:6c:16:f5:1f:75:a6:1a:74:f9:7a:85:52:d1:
         db:8d:3a:50:93:98:e8:dd:2c:33:21:aa:90:49:28:4a:51:8d:
         aa:d8:34:82:4f:b3:a6:8b:02:f1:75:2b:3b:1f:c6:7a:de:cd:
         b3:0e:0f:5d:f9:99:c1:42:70:ad:58:0a:68:fb:0c:5b:a9:7a:
         13:d6:44:b8:dc:87:63:ff:19:8c:f6:80:11:2e:ed:ad:56:ff:
         2b:72:e2:6d:de:25:47:d0:8f:97:07:a5:0d:40:91:6c:d8:9d:
         b6:4d:02:16:6e:44:38:51:b4:c3:02:44:b4:0f:ab:da:95:c7:
         18:65:4f:9f:a0:9f:b1:8f:78:84:83:a0:9e:2a:af:1d:1f:b4:
         41:e0:4d:c5:0f:68:c7:71:0a:1f:79:6b:45:75:26:cd:3c:6b:
         87:a6:e6:8f
-----BEGIN CERTIFICATE-----
MIIDeDCCAmCgAwIBAgIUcOk/Ytl1JsQidaF3yfFEeUE/yxEwDQYJKoZIhvcNAQEL
BQAwDzENMAsGA1UEAwwEUm9vdDAeFw0xODAzMTAxMjAwMDBaFw0yMTAxMDExMjAw
MDBaMA8xDTALBgNVBAMMBFJvb3QwggEiMA0GCSqGSIb3DQEBAQUAA4IBDwAwggEK
AoIBAQCcA+RE2TV71/XweCFFECNvBjYS/6J27xnsb6UHQDyBEY0LWmsf/nOAPmIL
AN4F66bo5nAz0RZsVtcOpadSm5ybM6t+mNYfQjZl1FS/hf26I0CExg9I5goULG4S
ss7EK0eqYVy6N8PBezkEHy1aarE1M9kCZpI2DjBQ1ldK4AfZTDnzL43j5ivOqzdr
JNaZ+iWy9dxsvYWi5btBpqVEjBI/qImQi1G/JUD3+vnzT9cMQ8jqv04fCJDmbsw/
q4NBUtSWm98YkPDcUQUQ4ESen1rz9ZuBQf5kQABU2yLEsd17Gsn5VCH8FRPCtsWM
Rcj2RMgybpwjzSphkrERtjWi5OgrAgMBAAGjgcswgcgwHQYDVR0OBBYEFKQJxAQ7
APY8oCfLvi/FZXjuQ/FWMB8GA1UdIwQYMBaAFKQJxAQ7APY8oCfLvi/FZXjuQ/FW
MDcGCCsGAQUFBwEBBCswKTAnBggrBgEFBQcwAoYbaHR0cDovL3VybC1mb3ItYWlh
L1Jvb3QuY2VyMCwGA1UdHwQlMCMwIaAfoB2GG2h0dHA6Ly91cmwtZm9yLWNybC9S
b290LmNybDAOBgNVHQ8BAf8EBAMCAQYwDwYDVR0TAQH/BAUwAwEB/zANBgkqhkiG
9w0BAQsFAAOCAQEAA3byG5K8t5+hmqnIgirA3p+Duqew2VdzoMCHomuGqPmQ9uGS
mViMm7ZBrz2DhwhBIOweqcB4iGQNVEVyVOd4Tdfw0Xa11XyTccuxDBowPb2tdtAy
JnUdFyblg0mnzehsFvUfdaYadPl6hVLR2406UJOY6N0sMyGqkEkoSlGNqtg0gk+z
posC8XUrOx/Get7Nsw4PXfmZwUJwrVgKaPsMW6l6E9ZEuNyHY/8ZjPaAES7trVb/
K3Libd4lR9CPlwelDUCRbNidtk0CFm5EOFG0wwJEtA+r2pXHGGVPn6CfsY94hIOg
niqvHR+0QeBNxQ9ox3EKH3lrRXUmzTxrh6bmjw==
-----END CERTIFICATE-----
