[Created by: generate-chains.py]

Certificate chain where the intermediate was signed by a different
certificate with a different key. The intermediate lacks an
authorityKeyIdentifier extension as some verifiers will not try verifying with
the bogus root if the authorityKeyIdentifier does not match the root's
subjectKeyIdentifier.


Certificate:
    Data:
        Version: 3 (0x2)
        Serial Number:
            79:09:02:a5:7e:5f:ed:29:b0:9c:e2:2b:f0:ed:48:a5:f4:32:81:64
        Signature Algorithm: sha256WithRSAEncryption
        Issuer: CN=Intermediate
        Validity
            Not Before: Nov  3 12:00:00 2020 GMT
            Not After : Nov  3 12:00:00 2021 GMT
        Subject: CN=Target
        Subject Public Key Info:
            Public Key Algorithm: rsaEncryption
                RSA Public-Key: (2048 bit)
                Modulus:
                    00:ab:12:e3:ca:56:56:53:39:63:22:cd:90:66:ef:
                    33:38:2d:22:ef:23:1b:4c:81:d0:2e:d0:8e:f8:63:
                    f4:36:e4:45:45:5c:98:6d:46:f1:d4:98:49:15:44:
                    6d:81:cd:55:14:95:f8:b0:80:e6:26:4e:ff:04:c7:
                    d7:71:ab:01:0c:0b:f1:7b:18:80:a2:e2:9c:29:0e:
                    7d:d5:c0:a7:b5:4a:04:42:5e:d5:4d:9c:68:ed:b4:
                    04:f2:3e:e3:ce:1e:89:2c:06:13:f3:85:ec:63:01:
                    a5:de:7c:01:ed:fd:35:60:d2:66:ac:d7:9b:3a:81:
                    07:7c:90:7f:ae:e2:ac:b3:41:1c:58:7b:21:c6:7d:
                    22:dc:e9:16:5c:53:a5:bc:4d:09:51:8b:6c:c8:93:
                    9a:65:cc:16:20:01:3c:cf:99:8e:9e:17:57:0b:d7:
                    9a:30:6f:db:ed:64:85:d1:ad:8b:a3:ad:f1:c0:6f:
                    de:3e:83:9a:33:fb:1c:d3:ed:a6:46:1c:3c:c0:41:
                    95:7c:da:5b:a2:73:eb:99:58:4d:dd:ee:76:4a:d6:
                    9c:0d:66:46:72:79:f0:95:94:aa:08:18:0e:12:b1:
                    03:73:9c:a4:52:b2:54:c8:e4:cb:27:6b:aa:24:07:
                    14:98:76:12:7d:01:5f:df:a7:e8:34:2a:46:61:b6:
                    11:f5
                Exponent: 65537 (0x10001)
        X509v3 extensions:
            X509v3 Subject Key Identifier: 
                3B:80:B5:C8:C1:DB:F2:5A:84:C6:36:8C:08:04:72:6B:FC:78:48:55
            X509v3 Authority Key Identifier: 
                keyid:9C:50:7F:A1:0F:62:41:B6:41:8A:7E:5C:6E:73:B4:3E:44:FE:E6:C2

            Authority Information Access: 
                CA Issuers - URI:http://url-for-aia/Intermediate.cer

            X509v3 CRL Distribution Points: 

                Full Name:
                  URI:http://url-for-crl/Intermediate.crl

            X509v3 Key Usage: critical
                Digital Signature, Key Encipherment
            X509v3 Extended Key Usage: 
                TLS Web Server Authentication, TLS Web Client Authentication
            X509v3 Subject Alternative Name: 
                DNS:test.example
    Signature Algorithm: sha256WithRSAEncryption
         06:46:24:0d:81:32:4f:f1:69:ab:5a:90:6b:f9:50:17:c1:6f:
         23:bb:e2:e0:f6:93:26:26:73:0e:b8:c1:f7:be:2f:30:74:7b:
         d0:44:ca:a1:3a:b9:d1:29:8d:37:fd:28:70:af:d7:04:fc:a7:
         40:42:22:ba:36:19:6a:f7:06:f7:b0:d1:b9:70:bd:da:bb:e2:
         63:b5:02:be:cb:c7:b3:0d:93:78:cb:5a:06:51:95:17:db:b7:
         8a:d5:7e:1f:8f:af:b4:f7:0e:bd:5f:e7:c4:c8:ff:2d:1e:4e:
         c2:c2:1f:c0:6c:e0:a2:f8:3e:86:55:91:03:b3:8a:fa:5c:c2:
         cf:8b:58:d3:6e:65:79:5e:7b:eb:a3:0a:88:61:48:17:03:ef:
         3a:bc:ee:cb:f2:35:ac:39:d8:46:fa:a0:49:1e:3b:3f:28:36:
         53:5a:a8:04:df:d7:74:6f:f4:14:ea:df:2f:66:f8:ce:6e:6b:
         0d:09:28:63:b9:19:29:99:8c:71:c9:27:0a:e5:9c:62:eb:2b:
         92:e2:0d:11:94:2c:2a:b2:49:1b:2c:80:88:7f:05:fa:3e:47:
         76:d1:ca:38:2a:a2:f3:c7:36:8e:24:33:6b:1e:81:c0:ec:d9:
         f0:ee:ee:08:0f:29:2c:32:2a:c9:e1:ca:af:53:15:5e:fe:33:
         44:9b:6e:db
-----BEGIN CERTIFICATE-----
MIIDujCCAqKgAwIBAgIUeQkCpX5f7SmwnOIr8O1IpfQygWQwDQYJKoZIhvcNAQEL
BQAwFzEVMBMGA1UEAwwMSW50ZXJtZWRpYXRlMB4XDTIwMTEwMzEyMDAwMFoXDTIx
MTEwMzEyMDAwMFowETEPMA0GA1UEAwwGVGFyZ2V0MIIBIjANBgkqhkiG9w0BAQEF
AAOCAQ8AMIIBCgKCAQEAqxLjylZWUzljIs2QZu8zOC0i7yMbTIHQLtCO+GP0NuRF
RVyYbUbx1JhJFURtgc1VFJX4sIDmJk7/BMfXcasBDAvxexiAouKcKQ591cCntUoE
Ql7VTZxo7bQE8j7jzh6JLAYT84XsYwGl3nwB7f01YNJmrNebOoEHfJB/ruKss0Ec
WHshxn0i3OkWXFOlvE0JUYtsyJOaZcwWIAE8z5mOnhdXC9eaMG/b7WSF0a2Lo63x
wG/ePoOaM/sc0+2mRhw8wEGVfNpbonPrmVhN3e52StacDWZGcnnwlZSqCBgOErED
c5ykUrJUyOTLJ2uqJAcUmHYSfQFf36foNCpGYbYR9QIDAQABo4IBAjCB/zAdBgNV
HQ4EFgQUO4C1yMHb8lqExjaMCARya/x4SFUwHwYDVR0jBBgwFoAUnFB/oQ9iQbZB
in5cbnO0PkT+5sIwPwYIKwYBBQUHAQEEMzAxMC8GCCsGAQUFBzAChiNodHRwOi8v
dXJsLWZvci1haWEvSW50ZXJtZWRpYXRlLmNlcjA0BgNVHR8ELTArMCmgJ6AlhiNo
dHRwOi8vdXJsLWZvci1jcmwvSW50ZXJtZWRpYXRlLmNybDAOBgNVHQ8BAf8EBAMC
BaAwHQYDVR0lBBYwFAYIKwYBBQUHAwEGCCsGAQUFBwMCMBcGA1UdEQQQMA6CDHRl
c3QuZXhhbXBsZTANBgkqhkiG9w0BAQsFAAOCAQEABkYkDYEyT/Fpq1qQa/lQF8Fv
I7vi4PaTJiZzDrjB974vMHR70ETKoTq50SmNN/0ocK/XBPynQEIiujYZavcG97DR
uXC92rviY7UCvsvHsw2TeMtaBlGVF9u3itV+H4+vtPcOvV/nxMj/LR5OwsIfwGzg
ovg+hlWRA7OK+lzCz4tY025leV5766MKiGFIFwPvOrzuy/I1rDnYRvqgSR47Pyg2
U1qoBN/XdG/0FOrfL2b4zm5rDQkoY7kZKZmMccknCuWcYusrkuINEZQsKrJJGyyA
iH8F+j5HdtHKOCqi88c2jiQzax6BwOzZ8O7uCA8pLDIqyeHKr1MVXv4zRJtu2w==
-----END CERTIFICATE-----

Certificate:
    Data:
        Version: 3 (0x2)
        Serial Number:
            70:e9:3f:62:d9:75:26:c4:22:75:a1:77:c9:f1:44:79:41:3f:cb:10
        Signature Algorithm: sha256WithRSAEncryption
        Issuer: CN=Root
        Validity
            Not Before: Nov  3 12:00:00 2020 GMT
            Not After : Nov  3 12:00:00 2021 GMT
        Subject: CN=Intermediate
        Subject Public Key Info:
            Public Key Algorithm: rsaEncryption
                RSA Public-Key: (2048 bit)
                Modulus:
                    00:b1:5a:2a:19:91:cd:d4:28:05:9d:4e:95:4e:47:
                    cf:79:0a:12:27:4f:0c:29:93:3f:2a:9c:3a:b3:a3:
                    07:43:a3:40:06:07:37:7c:1f:d8:6c:6a:af:38:06:
                    a8:3c:31:cf:c6:46:1e:ba:b8:70:95:5f:85:49:59:
                    41:78:3b:f9:c2:03:d2:a1:9d:5a:82:f5:c7:ae:74:
                    53:ec:d1:ae:07:26:0c:bd:67:47:bb:05:fd:d5:a6:
                    24:d4:c0:39:db:3b:ff:1e:f0:8f:0d:bf:f2:0d:00:
                    e5:7d:63:13:2d:d0:9b:3f:96:46:5d:c9:06:34:40:
                    15:94:a3:29:9f:fe:7d:ec:95:9f:e9:e5:c6:97:f6:
                    10:3f:ea:09:40:84:ba:59:64:d6:83:06:bc:ec:ea:
                    3f:7c:99:f3:b4:c7:13:9d:1a:74:bc:f5:4f:b5:d7:
                    c0:fc:0f:78:f9:87:fb:9a:f1:44:00:91:d2:d9:5d:
                    12:67:a0:cd:75:a4:eb:c2:47:86:b8:bd:d5:4c:7e:
                    6b:48:8e:a9:7d:0c:3f:4e:a0:2e:a1:fc:67:63:40:
                    fa:c4:56:b0:a3:ee:8a:73:55:69:fa:ec:5f:39:57:
                    74:65:1d:ef:66:9e:ad:76:84:e3:a7:ec:7e:d8:c2:
                    fb:8b:16:0e:1e:65:79:1d:c7:8e:d9:df:1e:31:49:
                    1e:85
                Exponent: 65537 (0x10001)
        X509v3 extensions:
            X509v3 Subject Key Identifier: 
                9C:50:7F:A1:0F:62:41:B6:41:8A:7E:5C:6E:73:B4:3E:44:FE:E6:C2
            Authority Information Access: 
                CA Issuers - URI:http://url-for-aia/Root.cer

            X509v3 CRL Distribution Points: 

                Full Name:
                  URI:http://url-for-crl/Root.crl

            X509v3 Key Usage: critical
                Certificate Sign, CRL Sign
            X509v3 Basic Constraints: critical
                CA:TRUE
    Signature Algorithm: sha256WithRSAEncryption
         29:fe:27:9b:8f:99:5d:70:96:0f:ac:94:fc:cc:c7:87:72:92:
         52:46:90:4b:e7:37:e1:b3:39:1e:d8:9a:2f:e4:62:b8:2f:46:
         98:58:b7:28:95:d3:32:31:55:d6:1f:32:cb:22:86:5d:61:db:
         b3:b2:d0:68:3b:98:52:ac:5f:c9:23:4a:84:93:09:b5:5b:97:
         0e:e6:65:45:8e:65:03:46:9e:a4:18:fd:d4:90:c0:ea:af:ab:
         5d:5c:02:a7:b3:d1:57:06:f4:82:61:24:e1:88:95:db:8f:20:
         df:8a:9b:fc:3d:25:3a:9c:88:4f:14:f2:6a:78:76:0d:48:88:
         4b:06:6e:d7:98:ab:1b:e7:26:0f:41:37:57:01:f4:d4:98:06:
         e8:e8:53:e2:ba:55:a8:f6:c9:46:7c:fc:8c:53:a1:d1:52:e0:
         4e:53:45:ad:fc:87:ef:47:01:ea:78:95:63:bd:4d:b8:50:e3:
         97:3b:20:95:2d:59:89:e4:f7:b1:44:8c:5a:dc:09:f8:d8:23:
         c0:5f:9f:76:c9:8c:3e:75:db:bf:59:fc:6f:74:f9:d7:d1:a6:
         68:80:d2:38:cf:46:26:68:41:99:6c:f2:64:20:8c:2f:dc:df:
         7e:71:b5:8d:8f:d1:d0:97:92:5e:d5:d3:36:15:dc:12:ec:6b:
         b8:c5:cc:50
-----BEGIN CERTIFICATE-----
MIIDXzCCAkegAwIBAgIUcOk/Ytl1JsQidaF3yfFEeUE/yxAwDQYJKoZIhvcNAQEL
BQAwDzENMAsGA1UEAwwEUm9vdDAeFw0yMDExMDMxMjAwMDBaFw0yMTExMDMxMjAw
MDBaMBcxFTATBgNVBAMMDEludGVybWVkaWF0ZTCCASIwDQYJKoZIhvcNAQEBBQAD
ggEPADCCAQoCggEBALFaKhmRzdQoBZ1OlU5Hz3kKEidPDCmTPyqcOrOjB0OjQAYH
N3wf2GxqrzgGqDwxz8ZGHrq4cJVfhUlZQXg7+cID0qGdWoL1x650U+zRrgcmDL1n
R7sF/dWmJNTAOds7/x7wjw2/8g0A5X1jEy3Qmz+WRl3JBjRAFZSjKZ/+feyVn+nl
xpf2ED/qCUCEullk1oMGvOzqP3yZ87THE50adLz1T7XXwPwPePmH+5rxRACR0tld
EmegzXWk68JHhri91Ux+a0iOqX0MP06gLqH8Z2NA+sRWsKPuinNVafrsXzlXdGUd
72aerXaE46fsftjC+4sWDh5leR3HjtnfHjFJHoUCAwEAAaOBqjCBpzAdBgNVHQ4E
FgQUnFB/oQ9iQbZBin5cbnO0PkT+5sIwNwYIKwYBBQUHAQEEKzApMCcGCCsGAQUF
BzAChhtodHRwOi8vdXJsLWZvci1haWEvUm9vdC5jZXIwLAYDVR0fBCUwIzAhoB+g
HYYbaHR0cDovL3VybC1mb3ItY3JsL1Jvb3QuY3JsMA4GA1UdDwEB/wQEAwIBBjAP
BgNVHRMBAf8EBTADAQH/MA0GCSqGSIb3DQEBCwUAA4IBAQAp/iebj5ldcJYPrJT8
zMeHcpJSRpBL5zfhszke2Jov5GK4L0aYWLcoldMyMVXWHzLLIoZdYduzstBoO5hS
rF/JI0qEkwm1W5cO5mVFjmUDRp6kGP3UkMDqr6tdXAKns9FXBvSCYSThiJXbjyDf
ipv8PSU6nIhPFPJqeHYNSIhLBm7XmKsb5yYPQTdXAfTUmAbo6FPiulWo9slGfPyM
U6HRUuBOU0Wt/IfvRwHqeJVjvU24UOOXOyCVLVmJ5PexRIxa3An42CPAX592yYw+
ddu/WfxvdPnX0aZogNI4z0YmaEGZbPJkIIwv3N9+cbWNj9HQl5Je1dM2FdwS7Gu4
xcxQ
-----END CERTIFICATE-----

Certificate:
    Data:
        Version: 3 (0x2)
        Serial Number:
            70:e9:3f:62:d9:75:26:c4:22:75:a1:77:c9:f1:44:79:41:3f:cb:11
        Signature Algorithm: sha256WithRSAEncryption
        Issuer: CN=Root
        Validity
            Not Before: Nov  3 12:00:00 2020 GMT
            Not After : Nov  3 12:00:00 2021 GMT
        Subject: CN=Root
        Subject Public Key Info:
            Public Key Algorithm: rsaEncryption
                RSA Public-Key: (2048 bit)
                Modulus:
                    00:9c:03:e4:44:d9:35:7b:d7:f5:f0:78:21:45:10:
                    23:6f:06:36:12:ff:a2:76:ef:19:ec:6f:a5:07:40:
                    3c:81:11:8d:0b:5a:6b:1f:fe:73:80:3e:62:0b:00:
                    de:05:eb:a6:e8:e6:70:33:d1:16:6c:56:d7:0e:a5:
                    a7:52:9b:9c:9b:33:ab:7e:98:d6:1f:42:36:65:d4:
                    54:bf:85:fd:ba:23:40:84:c6:0f:48:e6:0a:14:2c:
                    6e:12:b2:ce:c4:2b:47:aa:61:5c:ba:37:c3:c1:7b:
                    39:04:1f:2d:5a:6a:b1:35:33:d9:02:66:92:36:0e:
                    30:50:d6:57:4a:e0:07:d9:4c:39:f3:2f:8d:e3:e6:
                    2b:ce:ab:37:6b:24:d6:99:fa:25:b2:f5:dc:6c:bd:
                    85:a2:e5:bb:41:a6:a5:44:8c:12:3f:a8:89:90:8b:
                    51:bf:25:40:f7:fa:f9:f3:4f:d7:0c:43:c8:ea:bf:
                    4e:1f:08:90:e6:6e:cc:3f:ab:83:41:52:d4:96:9b:
                    df:18:90:f0:dc:51:05:10:e0:44:9e:9f:5a:f3:f5:
                    9b:81:41:fe:64:40:00:54:db:22:c4:b1:dd:7b:1a:
                    c9:f9:54:21:fc:15:13:c2:b6:c5:8c:45:c8:f6:44:
                    c8:32:6e:9c:23:cd:2a:61:92:b1:11:b6:35:a2:e4:
                    e8:2b
                Exponent: 65537 (0x10001)
        X509v3 extensions:
            X509v3 Subject Key Identifier: 
                A4:09:C4:04:3B:00:F6:3C:A0:27:CB:BE:2F:C5:65:78:EE:43:F1:56
            X509v3 Authority Key Identifier: 
                keyid:A4:09:C4:04:3B:00:F6:3C:A0:27:CB:BE:2F:C5:65:78:EE:43:F1:56

            Authority Information Access: 
                CA Issuers - URI:http://url-for-aia/Root.cer

            X509v3 CRL Distribution Points: 

                Full Name:
                  URI:http://url-for-crl/Root.crl

            X509v3 Key Usage: critical
                Certificate Sign, CRL Sign
            X509v3 Basic Constraints: critical
                CA:TRUE
    Signature Algorithm: sha256WithRSAEncryption
         26:d0:2a:bf:c4:e8:0a:e8:c7:a7:cb:ce:13:86:17:46:89:0c:
         49:04:54:e3:86:ee:26:17:ad:95:54:a0:8c:51:76:d5:16:c0:
         98:42:5b:55:5b:eb:7a:2e:b0:33:54:91:57:ba:6e:00:d5:10:
         05:ec:15:43:0c:0b:37:14:8c:34:91:37:c7:58:a0:01:c4:64:
         bd:49:0c:7a:4d:5a:16:b6:a0:f2:41:b9:40:f2:fc:3a:d5:29:
         bb:ee:fb:c4:96:f0:dd:f2:bd:c0:6a:79:f1:4b:ea:e3:5a:7d:
         e7:d9:9a:be:a3:8e:e1:b8:ba:a3:9d:5e:5a:76:5c:4c:7f:b3:
         2a:85:ae:c0:19:46:20:89:b0:e2:ea:63:43:66:6b:1f:38:47:
         d7:64:8b:de:4e:c7:16:a5:85:78:e9:4c:d3:de:44:fc:aa:f5:
         83:38:26:ae:8c:f3:35:d3:be:cc:f6:9c:c4:0d:6b:90:fb:c2:
         d6:f4:1f:cf:7e:47:65:b8:fe:85:97:a2:2b:be:91:b9:7f:c0:
         64:55:8a:60:40:60:5b:ec:be:a0:06:aa:69:7a:26:3f:b3:22:
         42:d3:ee:3f:84:bb:fc:16:1f:0a:6c:3d:70:ca:e2:9f:59:f0:
         58:5c:0f:b5:de:1b:81:f5:30:5e:9e:70:bf:d3:dc:bc:aa:9c:
         34:a1:94:22
-----BEGIN CERTIFICATE-----
MIIDeDCCAmCgAwIBAgIUcOk/Ytl1JsQidaF3yfFEeUE/yxEwDQYJKoZIhvcNAQEL
BQAwDzENMAsGA1UEAwwEUm9vdDAeFw0yMDExMDMxMjAwMDBaFw0yMTExMDMxMjAw
MDBaMA8xDTALBgNVBAMMBFJvb3QwggEiMA0GCSqGSIb3DQEBAQUAA4IBDwAwggEK
AoIBAQCcA+RE2TV71/XweCFFECNvBjYS/6J27xnsb6UHQDyBEY0LWmsf/nOAPmIL
AN4F66bo5nAz0RZsVtcOpadSm5ybM6t+mNYfQjZl1FS/hf26I0CExg9I5goULG4S
ss7EK0eqYVy6N8PBezkEHy1aarE1M9kCZpI2DjBQ1ldK4AfZTDnzL43j5ivOqzdr
JNaZ+iWy9dxsvYWi5btBpqVEjBI/qImQi1G/JUD3+vnzT9cMQ8jqv04fCJDmbsw/
q4NBUtSWm98YkPDcUQUQ4ESen1rz9ZuBQf5kQABU2yLEsd17Gsn5VCH8FRPCtsWM
Rcj2RMgybpwjzSphkrERtjWi5OgrAgMBAAGjgcswgcgwHQYDVR0OBBYEFKQJxAQ7
APY8oCfLvi/FZXjuQ/FWMB8GA1UdIwQYMBaAFKQJxAQ7APY8oCfLvi/FZXjuQ/FW
MDcGCCsGAQUFBwEBBCswKTAnBggrBgEFBQcwAoYbaHR0cDovL3VybC1mb3ItYWlh
L1Jvb3QuY2VyMCwGA1UdHwQlMCMwIaAfoB2GG2h0dHA6Ly91cmwtZm9yLWNybC9S
b290LmNybDAOBgNVHQ8BAf8EBAMCAQYwDwYDVR0TAQH/BAUwAwEB/zANBgkqhkiG
9w0BAQsFAAOCAQEAJtAqv8ToCujHp8vOE4YXRokMSQRU44buJhetlVSgjFF21RbA
mEJbVVvrei6wM1SRV7puANUQBewVQwwLNxSMNJE3x1igAcRkvUkMek1aFrag8kG5
QPL8OtUpu+77xJbw3fK9wGp58Uvq41p959mavqOO4bi6o51eWnZcTH+zKoWuwBlG
IImw4upjQ2ZrHzhH12SL3k7HFqWFeOlM095E/Kr1gzgmrozzNdO+zPacxA1rkPvC
1vQfz35HZbj+hZeiK76RuX/AZFWKYEBgW+y+oAaqaXomP7MiQtPuP4S7/BYfCmw9
cMrin1nwWFwPtd4bgfUwXp5wv9PcvKqcNKGUIg==
-----END CERTIFICATE-----
