[Created by: generate-chains.py]

Certificate chain where the intermediate used MD5 to sign the target
certificate.

Certificate:
    Data:
        Version: 3 (0x2)
        Serial Number:
            37:80:c8:e7:c9:8c:34:b2:f2:5f:ce:c2:67:de:57:61:ca:3e:53:62
        Signature Algorithm: sha1WithRSAEncryption
        Issuer: CN=Intermediate
        Validity
            Not Before: Oct  5 12:00:00 2022 GMT
            Not After : Oct  5 12:00:00 2023 GMT
        Subject: CN=Target
        Subject Public Key Info:
            Public Key Algorithm: rsaEncryption
                Public-Key: (2048 bit)
                Modulus:
                    00:a7:b8:bc:92:74:b1:bc:8f:5b:d5:3c:81:a6:8f:
                    d2:bf:7e:b8:f6:cd:49:5b:fd:18:ee:07:5c:32:cf:
                    f1:7f:51:06:98:53:91:16:4e:c0:2c:34:16:b8:12:
                    9d:10:5d:72:42:ec:00:e9:6b:4a:fb:17:bf:3a:35:
                    f9:a7:f5:50:df:80:bf:d9:6a:3d:74:93:4b:ce:13:
                    5f:57:3c:a1:60:55:10:e9:32:0f:84:ce:c2:d7:51:
                    be:16:b1:54:3f:86:5b:9e:9c:ec:5e:10:87:10:08:
                    ac:78:ee:da:97:5a:af:52:84:de:8d:2d:e4:91:30:
                    09:a1:e7:2b:8b:8b:b8:70:a0:43:0f:db:15:48:a5:
                    c2:94:af:f9:82:e4:86:57:d3:1c:e8:0c:71:11:06:
                    fe:f5:5e:ad:a6:26:d3:51:0b:f2:f0:5c:99:05:fe:
                    51:a1:d7:4a:e6:7f:f3:54:eb:82:07:f9:3a:83:bb:
                    c4:b5:41:07:df:76:95:9a:ed:04:34:4a:1f:bd:91:
                    19:78:6b:e0:24:4c:cc:ad:21:80:61:20:03:96:1c:
                    e8:d8:ca:e9:bc:ee:5f:93:eb:f8:48:ee:93:01:eb:
                    c3:a4:83:6b:3d:03:0e:fa:a7:aa:22:4d:66:40:8b:
                    ff:e4:9e:39:4f:b1:13:1f:ee:cd:70:21:10:26:96:
                    9b:03
                Exponent: 65537 (0x10001)
        X509v3 extensions:
            X509v3 Subject Key Identifier: 
                BF:EB:3A:84:42:B2:07:20:64:80:5F:29:BC:F8:61:4A:F6:05:54:0D
            X509v3 Authority Key Identifier: 
                EE:50:7B:40:71:90:A0:CE:F2:A3:28:0D:EC:1C:F2:D9:7E:A8:F3:0E
            Authority Information Access: 
                CA Issuers - URI:http://url-for-aia/Intermediate.cer
            X509v3 CRL Distribution Points: 
                Full Name:
                  URI:http://url-for-crl/Intermediate.crl
            X509v3 Key Usage: critical
                Digital Signature, Key Encipherment
            X509v3 Extended Key Usage: 
                TLS Web Server Authentication, TLS Web Client Authentication
    Signature Algorithm: sha1WithRSAEncryption
    Signature Value:
        bb:78:31:47:ac:88:82:8d:4a:3f:7d:95:a6:e0:4c:c4:07:67:
        60:a1:01:20:ab:44:30:be:a0:45:85:55:c9:57:54:5c:66:39:
        13:a9:33:9a:44:aa:93:95:62:64:8d:e7:fa:ed:6b:f0:83:6a:
        46:75:c5:7b:f2:fd:4d:dc:65:6d:53:9f:b2:af:93:1c:51:76:
        d6:10:64:86:90:6f:ee:bf:f1:44:f0:6f:85:a3:24:1a:4c:2b:
        52:44:d5:62:4e:70:7e:f7:b8:68:4e:00:ae:b8:51:a9:e2:9c:
        0a:2c:ea:9b:52:d3:a0:89:fc:80:16:bf:af:b3:be:69:b3:d6:
        4a:cc:16:ac:99:cc:5e:9a:67:d0:39:10:7b:18:8d:8a:6c:8f:
        73:1b:1b:7f:ea:e7:c4:b3:32:03:a6:de:b4:9b:35:11:db:98:
        0c:5f:c6:99:f3:e7:d4:ff:f7:f3:62:34:d5:67:4c:3a:14:43:
        44:f4:c4:5d:cc:62:45:c4:8c:1c:6f:46:7d:59:7d:57:a3:a2:
        04:5b:d0:c7:ed:ac:a1:1b:77:9a:a3:00:fe:fa:31:a2:77:7e:
        65:73:f6:41:6c:a0:f7:68:eb:28:04:23:45:b2:c5:77:07:a4:
        77:43:52:d8:ad:30:de:66:8b:3f:31:7a:0d:39:25:e6:b9:40:
        98:d2:75:fb
-----BEGIN CERTIFICATE-----
MIIDoDCCAoigAwIBAgIUN4DI58mMNLLyX87CZ95XYco+U2IwDQYJKoZIhvcNAQEF
BQAwFzEVMBMGA1UEAwwMSW50ZXJtZWRpYXRlMB4XDTIyMTAwNTEyMDAwMFoXDTIz
MTAwNTEyMDAwMFowETEPMA0GA1UEAwwGVGFyZ2V0MIIBIjANBgkqhkiG9w0BAQEF
AAOCAQ8AMIIBCgKCAQEAp7i8knSxvI9b1TyBpo/Sv3649s1JW/0Y7gdcMs/xf1EG
mFORFk7ALDQWuBKdEF1yQuwA6WtK+xe/OjX5p/VQ34C/2Wo9dJNLzhNfVzyhYFUQ
6TIPhM7C11G+FrFUP4ZbnpzsXhCHEAiseO7al1qvUoTejS3kkTAJoecri4u4cKBD
D9sVSKXClK/5guSGV9Mc6AxxEQb+9V6tpibTUQvy8FyZBf5RoddK5n/zVOuCB/k6
g7vEtUEH33aVmu0ENEofvZEZeGvgJEzMrSGAYSADlhzo2MrpvO5fk+v4SO6TAevD
pINrPQMO+qeqIk1mQIv/5J45T7ETH+7NcCEQJpabAwIDAQABo4HpMIHmMB0GA1Ud
DgQWBBS/6zqEQrIHIGSAXym8+GFK9gVUDTAfBgNVHSMEGDAWgBTuUHtAcZCgzvKj
KA3sHPLZfqjzDjA/BggrBgEFBQcBAQQzMDEwLwYIKwYBBQUHMAKGI2h0dHA6Ly91
cmwtZm9yLWFpYS9JbnRlcm1lZGlhdGUuY2VyMDQGA1UdHwQtMCswKaAnoCWGI2h0
dHA6Ly91cmwtZm9yLWNybC9JbnRlcm1lZGlhdGUuY3JsMA4GA1UdDwEB/wQEAwIF
oDAdBgNVHSUEFjAUBggrBgEFBQcDAQYIKwYBBQUHAwIwDQYJKoZIhvcNAQEFBQAD
ggEBALt4MUesiIKNSj99labgTMQHZ2ChASCrRDC+oEWFVclXVFxmOROpM5pEqpOV
YmSN5/rta/CDakZ1xXvy/U3cZW1Tn7KvkxxRdtYQZIaQb+6/8UTwb4WjJBpMK1JE
1WJOcH73uGhOAK64UaninAos6ptS06CJ/IAWv6+zvmmz1krMFqyZzF6aZ9A5EHsY
jYpsj3MbG3/q58SzMgOm3rSbNRHbmAxfxpnz59T/9/NiNNVnTDoUQ0T0xF3MYkXE
jBxvRn1ZfVejogRb0MftrKEbd5qjAP76MaJ3fmVz9kFsoPdo6ygEI0WyxXcHpHdD
UtitMN5miz8xeg05Jea5QJjSdfs=
-----END CERTIFICATE-----

Certificate:
    Data:
        Version: 3 (0x2)
        Serial Number:
            23:02:cd:b6:0b:15:34:56:69:b1:fe:49:95:c1:9e:3b:5e:70:80:92
        Signature Algorithm: sha256WithRSAEncryption
        Issuer: CN=Root
        Validity
            Not Before: Oct  5 12:00:00 2022 GMT
            Not After : Oct  5 12:00:00 2023 GMT
        Subject: CN=Intermediate
        Subject Public Key Info:
            Public Key Algorithm: rsaEncryption
                Public-Key: (2048 bit)
                Modulus:
                    00:d9:cf:a3:72:11:43:a1:d1:78:59:5e:27:cb:ee:
                    f6:2e:52:4e:9d:79:d1:c4:1e:bd:bb:e9:d4:cb:5e:
                    95:9f:ba:0c:7c:aa:b3:1b:97:57:82:a9:6c:f1:e6:
                    89:4b:37:fc:68:8c:93:2b:c8:35:58:e4:f5:6a:c9:
                    9d:cc:a3:3f:25:98:a3:6f:81:6c:97:67:30:b8:7a:
                    ab:47:42:6a:7c:93:a1:c9:1d:3e:b9:02:fb:1c:71:
                    40:2d:9a:a3:46:35:5c:4e:db:a9:2d:9a:09:d6:d1:
                    9d:7c:99:93:a9:fd:25:98:90:ba:84:a7:74:bf:4f:
                    9a:8e:5b:a2:2e:6b:5d:23:c4:77:42:77:0b:8a:f4:
                    e1:55:21:66:18:43:a7:a6:08:41:99:42:cc:f3:1c:
                    90:93:21:12:5d:67:1d:af:fd:f0:f6:c1:ce:26:83:
                    85:02:6e:dc:ca:9a:d4:81:55:19:9c:57:a0:56:17:
                    4c:a7:1a:7b:f0:89:cf:9a:fd:27:56:9b:b6:24:00:
                    a4:8a:1b:82:5a:39:fc:3a:d1:e9:ae:03:0d:aa:8d:
                    95:c4:31:50:18:b5:0b:c5:4f:95:85:00:1d:de:e4:
                    d4:1f:fa:c3:90:12:47:d4:60:75:ca:5a:1b:37:22:
                    5a:21:14:21:89:8a:07:1b:10:5d:9f:35:b5:50:3f:
                    d2:29
                Exponent: 65537 (0x10001)
        X509v3 extensions:
            X509v3 Subject Key Identifier: 
                EE:50:7B:40:71:90:A0:CE:F2:A3:28:0D:EC:1C:F2:D9:7E:A8:F3:0E
            X509v3 Authority Key Identifier: 
                92:8E:AB:BC:5A:AD:A6:C8:EA:A3:7B:A6:23:5B:F4:4F:B0:FA:60:FA
            Authority Information Access: 
                CA Issuers - URI:http://url-for-aia/Root.cer
            X509v3 CRL Distribution Points: 
                Full Name:
                  URI:http://url-for-crl/Root.crl
            X509v3 Key Usage: critical
                Certificate Sign, CRL Sign
            X509v3 Basic Constraints: critical
                CA:TRUE
    Signature Algorithm: sha256WithRSAEncryption
    Signature Value:
        b1:6f:1e:42:7c:cc:c4:5f:de:2e:9c:cb:b1:41:ac:9e:2e:52:
        27:b8:32:38:d9:a3:4c:de:5e:6d:72:e8:dc:ba:66:ba:be:b5:
        07:16:e1:37:48:27:a2:11:69:fc:05:a3:7e:7c:3c:87:7f:8f:
        92:2b:ee:b3:e7:20:38:fc:1d:5e:00:0d:78:e4:d7:9b:26:16:
        d1:33:be:cd:d1:fc:77:ef:f2:c5:e1:ee:12:b5:04:16:82:33:
        3c:85:c1:68:07:1c:95:1f:1d:57:69:eb:32:7b:7d:2d:2e:43:
        ff:cb:8f:df:38:a1:f0:83:cf:04:2a:31:d1:a7:f9:75:cf:95:
        ee:db:65:cd:4c:b8:4c:fb:76:7c:8c:88:75:df:a7:77:50:58:
        53:09:d9:b1:34:bf:f8:93:fa:96:19:13:0c:2b:13:1b:ed:f7:
        3f:03:54:c7:a8:ee:6d:37:0f:1e:8b:9a:37:0c:38:af:95:d0:
        ef:e2:3b:3e:4b:7c:89:47:02:5d:04:02:4f:c9:6e:07:6f:c0:
        c3:04:66:ac:d0:26:2b:70:2c:78:9b:c6:e7:af:cb:9d:6a:9d:
        8a:96:11:19:15:65:c0:a7:2a:bc:98:a6:37:9e:5f:b4:84:5f:
        4c:7a:4c:4b:f6:15:20:1a:46:35:e9:6e:c6:f0:0f:29:31:e7:
        cf:ac:58:15
-----BEGIN CERTIFICATE-----
MIIDgDCCAmigAwIBAgIUIwLNtgsVNFZpsf5JlcGeO15wgJIwDQYJKoZIhvcNAQEL
BQAwDzENMAsGA1UEAwwEUm9vdDAeFw0yMjEwMDUxMjAwMDBaFw0yMzEwMDUxMjAw
MDBaMBcxFTATBgNVBAMMDEludGVybWVkaWF0ZTCCASIwDQYJKoZIhvcNAQEBBQAD
ggEPADCCAQoCggEBANnPo3IRQ6HReFleJ8vu9i5STp150cQevbvp1MtelZ+6DHyq
sxuXV4KpbPHmiUs3/GiMkyvINVjk9WrJncyjPyWYo2+BbJdnMLh6q0dCanyTockd
PrkC+xxxQC2ao0Y1XE7bqS2aCdbRnXyZk6n9JZiQuoSndL9Pmo5boi5rXSPEd0J3
C4r04VUhZhhDp6YIQZlCzPMckJMhEl1nHa/98PbBziaDhQJu3Mqa1IFVGZxXoFYX
TKcae/CJz5r9J1abtiQApIobglo5/DrR6a4DDaqNlcQxUBi1C8VPlYUAHd7k1B/6
w5ASR9RgdcpaGzciWiEUIYmKBxsQXZ81tVA/0ikCAwEAAaOByzCByDAdBgNVHQ4E
FgQU7lB7QHGQoM7yoygN7Bzy2X6o8w4wHwYDVR0jBBgwFoAUko6rvFqtpsjqo3um
I1v0T7D6YPowNwYIKwYBBQUHAQEEKzApMCcGCCsGAQUFBzAChhtodHRwOi8vdXJs
LWZvci1haWEvUm9vdC5jZXIwLAYDVR0fBCUwIzAhoB+gHYYbaHR0cDovL3VybC1m
b3ItY3JsL1Jvb3QuY3JsMA4GA1UdDwEB/wQEAwIBBjAPBgNVHRMBAf8EBTADAQH/
MA0GCSqGSIb3DQEBCwUAA4IBAQCxbx5CfMzEX94unMuxQayeLlInuDI42aNM3l5t
cujcuma6vrUHFuE3SCeiEWn8BaN+fDyHf4+SK+6z5yA4/B1eAA145NebJhbRM77N
0fx37/LF4e4StQQWgjM8hcFoBxyVHx1Xaesye30tLkP/y4/fOKHwg88EKjHRp/l1
z5Xu22XNTLhM+3Z8jIh136d3UFhTCdmxNL/4k/qWGRMMKxMb7fc/A1THqO5tNw8e
i5o3DDivldDv4js+S3yJRwJdBAJPyW4Hb8DDBGas0CYrcCx4m8bnr8udap2KlhEZ
FWXApyq8mKY3nl+0hF9MekxL9hUgGkY16W7G8A8pMefPrFgV
-----END CERTIFICATE-----

Certificate:
    Data:
        Version: 3 (0x2)
        Serial Number:
            23:02:cd:b6:0b:15:34:56:69:b1:fe:49:95:c1:9e:3b:5e:70:80:91
        Signature Algorithm: sha256WithRSAEncryption
        Issuer: CN=Root
        Validity
            Not Before: Oct  5 12:00:00 2022 GMT
            Not After : Oct  5 12:00:00 2023 GMT
        Subject: CN=Root
        Subject Public Key Info:
            Public Key Algorithm: rsaEncryption
                Public-Key: (2048 bit)
                Modulus:
                    00:f6:22:a8:ce:1d:94:88:97:b9:e7:e7:ab:56:da:
                    1c:7c:06:27:7b:06:ac:a5:75:b0:b8:8b:44:d9:8f:
                    07:38:8f:c8:15:46:49:46:c7:33:07:74:fa:4c:30:
                    a7:e6:48:eb:5c:03:14:0b:da:f9:66:be:0b:f4:04:
                    e2:d6:d8:79:cf:3c:0c:1d:61:27:4e:8e:0e:21:4f:
                    b6:2b:e0:bf:dd:67:0d:31:7b:38:36:8c:89:f0:50:
                    2c:35:f0:a6:1f:46:85:f2:78:59:2e:e0:f0:a3:a5:
                    d7:d5:25:a9:6e:d3:6e:6f:80:57:64:a0:c0:d3:75:
                    94:62:72:99:1f:a3:df:6e:b9:e3:39:6b:d3:94:83:
                    db:99:91:fa:d3:98:e2:c0:e3:66:71:1c:ff:ee:40:
                    14:75:eb:47:79:21:01:b5:60:86:81:1e:40:c7:e6:
                    b8:48:95:2c:07:50:49:40:65:9f:c4:91:6c:00:ee:
                    cc:98:1e:c5:d2:ef:fe:09:74:f2:b8:d9:91:48:01:
                    48:27:d9:50:b5:4f:44:e8:f3:fa:03:12:08:a5:fa:
                    b9:55:b1:45:59:76:87:c9:d4:c4:d7:65:ad:b4:c5:
                    82:79:ea:f0:b7:5c:75:18:4d:33:4c:bc:f6:05:e8:
                    22:30:6b:5b:d8:2a:14:2a:6a:11:7c:48:6a:7c:0e:
                    e7:e9
                Exponent: 65537 (0x10001)
        X509v3 extensions:
            X509v3 Subject Key Identifier: 
                92:8E:AB:BC:5A:AD:A6:C8:EA:A3:7B:A6:23:5B:F4:4F:B0:FA:60:FA
            X509v3 Authority Key Identifier: 
                92:8E:AB:BC:5A:AD:A6:C8:EA:A3:7B:A6:23:5B:F4:4F:B0:FA:60:FA
            Authority Information Access: 
                CA Issuers - URI:http://url-for-aia/Root.cer
            X509v3 CRL Distribution Points: 
                Full Name:
                  URI:http://url-for-crl/Root.crl
            X509v3 Key Usage: critical
                Certificate Sign, CRL Sign
            X509v3 Basic Constraints: critical
                CA:TRUE
    Signature Algorithm: sha256WithRSAEncryption
    Signature Value:
        f1:18:b0:8f:d9:3d:a5:70:23:68:d9:d2:a8:98:4d:96:d6:cd:
        55:0d:c6:81:81:f4:dd:d5:da:cf:04:ac:b1:c4:20:5f:37:8c:
        b3:44:e0:8a:25:23:66:de:9c:ed:e7:a0:10:7c:df:97:73:81:
        df:30:48:27:2e:67:82:03:b5:e9:56:6f:04:cc:6d:8a:9b:df:
        33:85:61:4f:d6:35:f5:de:6e:9a:ac:c0:84:01:87:85:0c:d3:
        db:ba:da:7c:5a:7a:8e:48:9f:28:ca:87:63:04:32:e8:f5:df:
        1b:26:bf:ee:78:87:6c:40:17:8f:cc:82:1c:e7:05:d4:07:ed:
        26:e8:8a:e3:8f:56:63:32:3d:af:a5:fd:5b:cb:3f:4a:19:20:
        ad:c3:a5:39:3f:e4:66:4b:8e:66:8d:47:b6:c6:ab:7f:e3:6f:
        a6:2b:19:a8:d2:fa:ee:f9:79:5a:1f:12:a3:ce:a6:5d:5c:e3:
        28:51:41:94:fb:fd:d1:f3:ce:ae:51:b9:88:de:08:f8:5f:63:
        78:d7:a3:4f:d4:4a:95:b8:6b:49:87:4e:f1:dc:06:d5:5a:00:
        b1:cd:58:b3:9d:33:19:c9:03:dd:9f:f7:84:af:21:56:26:21:
        4c:bd:67:79:7c:32:11:96:75:df:d4:96:be:b4:7c:6f:06:07:
        58:bf:7e:9d
-----BEGIN CERTIFICATE-----
MIIDeDCCAmCgAwIBAgIUIwLNtgsVNFZpsf5JlcGeO15wgJEwDQYJKoZIhvcNAQEL
BQAwDzENMAsGA1UEAwwEUm9vdDAeFw0yMjEwMDUxMjAwMDBaFw0yMzEwMDUxMjAw
MDBaMA8xDTALBgNVBAMMBFJvb3QwggEiMA0GCSqGSIb3DQEBAQUAA4IBDwAwggEK
AoIBAQD2IqjOHZSIl7nn56tW2hx8Bid7BqyldbC4i0TZjwc4j8gVRklGxzMHdPpM
MKfmSOtcAxQL2vlmvgv0BOLW2HnPPAwdYSdOjg4hT7Yr4L/dZw0xezg2jInwUCw1
8KYfRoXyeFku4PCjpdfVJalu025vgFdkoMDTdZRicpkfo99uueM5a9OUg9uZkfrT
mOLA42ZxHP/uQBR160d5IQG1YIaBHkDH5rhIlSwHUElAZZ/EkWwA7syYHsXS7/4J
dPK42ZFIAUgn2VC1T0To8/oDEgil+rlVsUVZdofJ1MTXZa20xYJ56vC3XHUYTTNM
vPYF6CIwa1vYKhQqahF8SGp8DufpAgMBAAGjgcswgcgwHQYDVR0OBBYEFJKOq7xa
rabI6qN7piNb9E+w+mD6MB8GA1UdIwQYMBaAFJKOq7xarabI6qN7piNb9E+w+mD6
MDcGCCsGAQUFBwEBBCswKTAnBggrBgEFBQcwAoYbaHR0cDovL3VybC1mb3ItYWlh
L1Jvb3QuY2VyMCwGA1UdHwQlMCMwIaAfoB2GG2h0dHA6Ly91cmwtZm9yLWNybC9S
b290LmNybDAOBgNVHQ8BAf8EBAMCAQYwDwYDVR0TAQH/BAUwAwEB/zANBgkqhkiG
9w0BAQsFAAOCAQEA8Riwj9k9pXAjaNnSqJhNltbNVQ3GgYH03dXazwSsscQgXzeM
s0TgiiUjZt6c7eegEHzfl3OB3zBIJy5nggO16VZvBMxtipvfM4VhT9Y19d5umqzA
hAGHhQzT27rafFp6jkifKMqHYwQy6PXfGya/7niHbEAXj8yCHOcF1AftJuiK449W
YzI9r6X9W8s/ShkgrcOlOT/kZkuOZo1Htsarf+NvpisZqNL67vl5Wh8So86mXVzj
KFFBlPv90fPOrlG5iN4I+F9jeNejT9RKlbhrSYdO8dwG1VoAsc1Ys50zGckD3Z/3
hK8hViYhTL1neXwyEZZ139SWvrR8bwYHWL9+nQ==
-----END CERTIFICATE-----
