Certificate:
    Data:
        Version: 3 (0x2)
        Serial Number:
            6e:47:a9:c7:6c:a9:73:24:40:89:0f:03:55:dd:8d:1d
        Signature Algorithm: ecdsa-with-SHA384
        Issuer: C = US, O = Google Trust Services LLC, CN = GTS Root R3
        Validity
            Not Before: Jun 22 00:00:00 2016 GMT
            Not After : Jun 22 00:00:00 2036 GMT
        Subject: C = US, O = Google Trust Services LLC, CN = GTS Root R3
        Subject Public Key Info:
            Public Key Algorithm: id-ecPublicKey
                Public-Key: (384 bit)
                pub:
                    04:1f:4f:33:87:33:29:8a:a1:84:de:cb:c7:21:58:
                    41:89:ea:56:9d:2b:4b:85:c6:1d:4c:27:bc:7f:26:
                    51:72:6f:e2:9f:d6:a3:ca:cc:45:14:46:8b:ad:ef:
                    7e:86:8c:ec:b1:7e:2f:ff:a9:71:9d:18:84:45:04:
                    41:55:6e:2b:ea:26:7f:bb:90:01:e3:4b:19:ba:e4:
                    54:96:45:09:b1:d5:6c:91:44:ad:84:13:8e:9a:8c:
                    0d:80:0c:32:f6:e0:27
                ASN1 OID: secp384r1
                NIST CURVE: P-384
        X509v3 extensions:
            X509v3 Key Usage: critical
                Certificate Sign, CRL Sign
            X509v3 Basic Constraints: critical
                CA:TRUE
            X509v3 Subject Key Identifier: 
                C1:F1:26:BA:A0:2D:AE:85:81:CF:D3:F1:2A:12:BD:B8:0A:67:FD:BC
    Signature Algorithm: ecdsa-with-SHA384
         30:66:02:31:00:80:5b:a4:7c:23:c0:95:a5:2c:dc:be:89:6f:
         23:b9:a3:dd:65:00:52:5e:91:ac:c8:9d:72:74:82:53:0b:7d:
         a9:40:bd:68:60:c5:e1:b8:54:3b:c1:36:17:25:d8:c1:bd:02:
         31:00:9e:35:92:74:85:25:51:f5:24:ec:64:52:24:50:a5:1f:
         db:e8:cb:c9:76:ec:ec:82:6e:f5:85:18:53:e8:b8:e3:9a:29:
         aa:96:d3:83:23:c9:a4:7b:61:b3:cc:02:e8:5d
-----BEGIN CERTIFICATE-----
MIICDDCCAZGgAwIBAgIQbkepx2ypcyRAiQ8DVd2NHTAKBggqhkjOPQQDAzBHMQsw
CQYDVQQGEwJVUzEiMCAGA1UEChMZR29vZ2xlIFRydXN0IFNlcnZpY2VzIExMQzEU
MBIGA1UEAxMLR1RTIFJvb3QgUjMwHhcNMTYwNjIyMDAwMDAwWhcNMzYwNjIyMDAw
MDAwWjBHMQswCQYDVQQGEwJVUzEiMCAGA1UEChMZR29vZ2xlIFRydXN0IFNlcnZp
Y2VzIExMQzEUMBIGA1UEAxMLR1RTIFJvb3QgUjMwdjAQBgcqhkjOPQIBBgUrgQQA
IgNiAAQfTzOHMymKoYTey8chWEGJ6ladK0uFxh1MJ7x/JlFyb+Kf1qPKzEUURout
736GjOyxfi//qXGdGIRFBEFVbivqJn+7kAHjSxm65FSWRQmx1WyRRK2EE46ajA2A
DDL24CejQjBAMA4GA1UdDwEB/wQEAwIBBjAPBgNVHRMBAf8EBTADAQH/MB0GA1Ud
DgQWBBTB8Sa6oC2uhYHP0/EqEr24Cmf9vDAKBggqhkjOPQQDAwNpADBmAjEAgFuk
fCPAlaUs3L6JbyO5o91lAFJekazInXJ0glMLfalAvWhgxeG4VDvBNhcl2MG9AjEA
njWSdIUlUfUk7GRSJFClH9voy8l27OyCbvWFGFPouOOaKaqW04MjyaR7YbPMAuhd
-----END CERTIFICATE-----
