Certificate:
    Data:
        Version: 3 (0x2)
        Serial Number:
            6e:47:a9:c5:4b:47:0c:0d:ec:33:d0:89:b9:1c:f4:e1
        Signature Algorithm: sha384WithRSAEncryption
        Issuer: C = US, O = Google Trust Services LLC, CN = GTS Root R1
        Validity
            Not Before: Jun 22 00:00:00 2016 GMT
            Not After : Jun 22 00:00:00 2036 GMT
        Subject: C = US, O = Google Trust Services LLC, CN = GTS Root R1
        Subject Public Key Info:
            Public Key Algorithm: rsaEncryption
                RSA Public-Key: (4096 bit)
                Modulus:
                    00:b6:11:02:8b:1e:e3:a1:77:9b:3b:dc:bf:94:3e:
                    b7:95:a7:40:3c:a1:fd:82:f9:7d:32:06:82:71:f6:
                    f6:8c:7f:fb:e8:db:bc:6a:2e:97:97:a3:8c:4b:f9:
                    2b:f6:b1:f9:ce:84:1d:b1:f9:c5:97:de:ef:b9:f2:
                    a3:e9:bc:12:89:5e:a7:aa:52:ab:f8:23:27:cb:a4:
                    b1:9c:63:db:d7:99:7e:f0:0a:5e:eb:68:a6:f4:c6:
                    5a:47:0d:4d:10:33:e3:4e:b1:13:a3:c8:18:6c:4b:
                    ec:fc:09:90:df:9d:64:29:25:23:07:a1:b4:d2:3d:
                    2e:60:e0:cf:d2:09:87:bb:cd:48:f0:4d:c2:c2:7a:
                    88:8a:bb:ba:cf:59:19:d6:af:8f:b0:07:b0:9e:31:
                    f1:82:c1:c0:df:2e:a6:6d:6c:19:0e:b5:d8:7e:26:
                    1a:45:03:3d:b0:79:a4:94:28:ad:0f:7f:26:e5:a8:
                    08:fe:96:e8:3c:68:94:53:ee:83:3a:88:2b:15:96:
                    09:b2:e0:7a:8c:2e:75:d6:9c:eb:a7:56:64:8f:96:
                    4f:68:ae:3d:97:c2:84:8f:c0:bc:40:c0:0b:5c:bd:
                    f6:87:b3:35:6c:ac:18:50:7f:84:e0:4c:cd:92:d3:
                    20:e9:33:bc:52:99:af:32:b5:29:b3:25:2a:b4:48:
                    f9:72:e1:ca:64:f7:e6:82:10:8d:e8:9d:c2:8a:88:
                    fa:38:66:8a:fc:63:f9:01:f9:78:fd:7b:5c:77:fa:
                    76:87:fa:ec:df:b1:0e:79:95:57:b4:bd:26:ef:d6:
                    01:d1:eb:16:0a:bb:8e:0b:b5:c5:c5:8a:55:ab:d3:
                    ac:ea:91:4b:29:cc:19:a4:32:25:4e:2a:f1:65:44:
                    d0:02:ce:aa:ce:49:b4:ea:9f:7c:83:b0:40:7b:e7:
                    43:ab:a7:6c:a3:8f:7d:89:81:fa:4c:a5:ff:d5:8e:
                    c3:ce:4b:e0:b5:d8:b3:8e:45:cf:76:c0:ed:40:2b:
                    fd:53:0f:b0:a7:d5:3b:0d:b1:8a:a2:03:de:31:ad:
                    cc:77:ea:6f:7b:3e:d6:df:91:22:12:e6:be:fa:d8:
                    32:fc:10:63:14:51:72:de:5d:d6:16:93:bd:29:68:
                    33:ef:3a:66:ec:07:8a:26:df:13:d7:57:65:78:27:
                    de:5e:49:14:00:a2:00:7f:9a:a8:21:b6:a9:b1:95:
                    b0:a5:b9:0d:16:11:da:c7:6c:48:3c:40:e0:7e:0d:
                    5a:cd:56:3c:d1:97:05:b9:cb:4b:ed:39:4b:9c:c4:
                    3f:d2:55:13:6e:24:b0:d6:71:fa:f4:c1:ba:cc:ed:
                    1b:f5:fe:81:41:d8:00:98:3d:3a:c8:ae:7a:98:37:
                    18:05:95
                Exponent: 65537 (0x10001)
        X509v3 extensions:
            X509v3 Key Usage: critical
                Certificate Sign, CRL Sign
            X509v3 Basic Constraints: critical
                CA:TRUE
            X509v3 Subject Key Identifier: 
                E4:AF:2B:26:71:1A:2B:48:27:85:2F:52:66:2C:EF:F0:89:13:71:3E
    Signature Algorithm: sha384WithRSAEncryption
         38:96:0a:ee:3d:b4:96:1e:5f:ef:9d:9c:0b:33:9f:2b:e0:ca:
         fd:d2:8e:0a:1f:41:74:a5:7c:aa:84:d4:e5:f2:1e:e6:37:52:
         32:9c:0b:d1:61:1d:bf:28:c1:b6:44:29:35:75:77:98:b2:7c:
         d9:bd:74:ac:8a:68:e3:a9:31:09:29:01:60:73:e3:47:7c:53:
         a8:90:4a:27:ef:4b:d7:9f:93:e7:82:36:ce:9a:68:0c:82:e7:
         cf:d4:10:16:6f:5f:0e:99:5c:f6:1f:71:7d:ef:ef:7b:2f:7e:
         ea:36:d6:97:70:0b:15:ee:d7:5c:56:6a:33:a5:e3:49:38:0c:
         b8:7d:fb:8d:85:a4:b1:59:5e:f4:6a:e1:dd:a1:f6:64:44:ae:
         e6:51:83:21:66:c6:11:3e:f3:ce:47:ee:9c:28:1f:25:da:ff:
         ac:66:95:dd:35:0f:5c:ef:20:2c:62:fd:91:ba:a9:cc:fc:5a:
         9c:93:81:83:29:97:4a:7c:5a:72:b4:39:d0:b7:77:cb:79:fd:
         69:3a:92:37:ed:6e:38:65:46:7e:e9:60:bd:79:88:97:5f:38:
         12:f4:ee:af:5b:82:c8:86:d5:e1:99:6d:8c:04:f2:76:ba:49:
         f6:6e:e9:6d:1e:5f:a0:ef:27:82:76:40:f8:a6:d3:58:5c:0f:
         2c:42:da:42:c6:7b:88:34:c7:c1:d8:45:9b:c1:3e:c5:61:1d:
         d9:63:50:49:f6:34:85:6a:e0:18:c5:6e:47:ab:41:42:29:9b:
         f6:60:0d:d2:31:d3:63:98:23:93:5a:00:81:48:b4:ef:cd:8a:
         cd:c9:cf:99:ee:d9:9e:aa:36:e1:68:4b:71:49:14:36:28:3a:
         3d:1d:ce:9a:8f:25:e6:80:71:61:2b:b5:7b:cc:f9:25:16:81:
         e1:31:5f:a1:a3:7e:16:a4:9c:16:6a:97:18:bd:76:72:a5:0b:
         9e:1d:36:e6:2f:a1:2f:be:70:91:0f:a8:e6:da:f8:c4:92:40:
         6c:25:7e:7b:b3:09:dc:b2:17:ad:80:44:f0:68:a5:8f:94:75:
         ff:74:5a:e8:a8:02:7c:0c:09:e2:a9:4b:0b:a0:85:0b:62:b9:
         ef:a1:31:92:fb:ef:f6:51:04:89:6c:e8:a9:74:a1:bb:17:b3:
         b5:fd:49:0f:7c:3c:ec:83:18:20:43:4e:d5:93:ba:b4:34:b1:
         1f:16:36:1f:0c:e6:64:39:16:4c:dc:e0:fe:1d:c8:a9:62:3d:
         40:ea:ca:c5:34:02:b4:ae:89:88:33:35:dc:2c:13:73:d8:27:
         f1:d0:72:ee:75:3b:22:de:98:68:66:5b:f1:c6:63:47:55:1c:
         ba:a5:08:51:75:a6:48:25
-----BEGIN CERTIFICATE-----
MIIFWjCCA0KgAwIBAgIQbkepxUtHDA3sM9CJuRz04TANBgkqhkiG9w0BAQwFADBH
MQswCQYDVQQGEwJVUzEiMCAGA1UEChMZR29vZ2xlIFRydXN0IFNlcnZpY2VzIExM
QzEUMBIGA1UEAxMLR1RTIFJvb3QgUjEwHhcNMTYwNjIyMDAwMDAwWhcNMzYwNjIy
MDAwMDAwWjBHMQswCQYDVQQGEwJVUzEiMCAGA1UEChMZR29vZ2xlIFRydXN0IFNl
cnZpY2VzIExMQzEUMBIGA1UEAxMLR1RTIFJvb3QgUjEwggIiMA0GCSqGSIb3DQEB
AQUAA4ICDwAwggIKAoICAQC2EQKLHuOhd5s73L+UPreVp0A8of2C+X0yBoJx9vaM
f/vo27xqLpeXo4xL+Sv2sfnOhB2x+cWX3u+58qPpvBKJXqeqUqv4IyfLpLGcY9vX
mX7wCl7raKb0xlpHDU0QM+NOsROjyBhsS+z8CZDfnWQpJSMHobTSPS5g4M/SCYe7
zUjwTcLCeoiKu7rPWRnWr4+wB7CeMfGCwcDfLqZtbBkOtdh+JhpFAz2weaSUKK0P
fyblqAj+lug8aJRT7oM6iCsVlgmy4HqMLnXWnOunVmSPlk9orj2XwoSPwLxAwAtc
vfaHszVsrBhQf4TgTM2S0yDpM7xSma8ytSmzJSq0SPly4cpk9+aCEI3oncKKiPo4
Zor8Y/kB+Xj9e1x3+naH+uzfsQ55lVe0vSbv1gHR6xYKu44LtcXFilWr06zqkUsp
zBmkMiVOKvFlRNACzqrOSbTqn3yDsEB750Orp2yjj32JgfpMpf/VjsPOS+C12LOO
Rc92wO1AK/1TD7Cn1TsNsYqiA94xrcx36m97PtbfkSIS5r762DL8EGMUUXLeXdYW
k70paDPvOmbsB4om3xPXV2V4J95eSRQAogB/mqghtqmxlbCluQ0WEdrHbEg8QOB+
DVrNVjzRlwW5y0vtOUucxD/SVRNuJLDWcfr0wbrM7Rv1/oFB2ACYPTrIrnqYNxgF
lQIDAQABo0IwQDAOBgNVHQ8BAf8EBAMCAQYwDwYDVR0TAQH/BAUwAwEB/zAdBgNV
HQ4EFgQU5K8rJnEaK0gnhS9SZizv8IkTcT4wDQYJKoZIhvcNAQEMBQADggIBADiW
Cu49tJYeX++dnAsznyvgyv3SjgofQXSlfKqE1OXyHuY3UjKcC9FhHb8owbZEKTV1
d5iyfNm9dKyKaOOpMQkpAWBz40d8U6iQSifvS9efk+eCNs6aaAyC58/UEBZvXw6Z
XPYfcX3v73svfuo21pdwCxXu11xWajOl40k4DLh9+42FpLFZXvRq4d2h9mREruZR
gyFmxhE+885H7pwoHyXa/6xmld01D1zvICxi/ZG6qcz8WpyTgYMpl0p8WnK0OdC3
d8t5/Wk6kjftbjhlRn7pYL15iJdfOBL07q9bgsiG1eGZbYwE8na6SfZu6W0eX6Dv
J4J2QPim01hcDyxC2kLGe4g0x8HYRZvBPsVhHdljUEn2NIVq4BjFbkerQUIpm/Zg
DdIx02OYI5NaAIFItO/Nis3Jz5nu2Z6qNuFoS3FJFDYoOj0dzpqPJeaAcWErtXvM
+SUWgeExX6GjfhaknBZqlxi9dnKlC54dNuYvoS++cJEPqOba+MSSQGwlfnuzCdyy
F62ARPBopY+Udf90WuioAnwMCeKpSwughQtiue+hMZL77/ZRBIls6Kl0obsXs7X9
SQ98POyDGCBDTtWTurQ0sR8WNh8M5mQ5Fkzc4P4dyKliPUDqysU0ArSuiYgzNdws
E3PYJ/HQcu51OyLemGhmW/HGY0dVHLqlCFF1pkgl
-----END CERTIFICATE-----
