Certificate:
    Data:
        Version: 3 (0x2)
        Serial Number:
            66:f2:3d:af:87:de:8b:b1:4a:ea:0c:57:31:01:c2:ec
        Signature Algorithm: ecdsa-with-SHA384
        Issuer: C = US, O = Microsoft Corporation, CN = Microsoft ECC Root Certificate Authority 2017
        Validity
            Not Before: Dec 18 23:06:45 2019 GMT
            Not After : Jul 18 23:16:04 2042 GMT
        Subject: C = US, O = Microsoft Corporation, CN = Microsoft ECC Root Certificate Authority 2017
        Subject Public Key Info:
            Public Key Algorithm: id-ecPublicKey
                Public-Key: (384 bit)
                pub:
                    04:d4:bc:3d:02:42:75:41:13:23:cd:80:04:86:02:
                    51:2f:6a:a8:81:62:0b:65:cc:f6:ca:9d:1e:6f:4a:
                    66:51:a2:03:d9:9d:91:fa:b6:16:b1:8c:6e:de:7c:
                    cd:db:79:a6:2f:ce:bb:ce:71:2f:e5:a5:ab:28:ec:
                    63:04:66:99:f8:fa:f2:93:10:05:e1:81:28:42:e3:
                    c6:68:f4:e6:1b:84:60:4a:89:af:ed:79:0f:3b:ce:
                    f1:f6:44:f5:01:78:c0
                ASN1 OID: secp384r1
                NIST CURVE: P-384
        X509v3 extensions:
            X509v3 Key Usage: critical
                Digital Signature, Certificate Sign, CRL Sign
            X509v3 Basic Constraints: critical
                CA:TRUE
            X509v3 Subject Key Identifier: 
                C8:CB:99:72:70:52:0C:F8:E6:BE:B2:04:57:29:2A:CF:42:10:ED:35
            1.3.6.1.4.1.311.21.1: 
                ...
    Signature Algorithm: ecdsa-with-SHA384
         30:65:02:30:58:f2:4d:ea:0c:f9:5f:5e:ee:60:29:cb:3a:f2:
         db:d6:32:84:19:3f:7c:d5:2f:c2:b1:cc:93:ae:50:bb:09:32:
         c6:c6:ed:7e:c9:36:94:12:e4:68:85:06:a2:1b:d0:2f:02:31:
         00:99:e9:16:b4:0e:fa:56:48:d4:a4:30:16:91:78:db:54:8c:
         65:01:8a:e7:50:66:c2:31:b7:39:ba:b8:1a:22:07:4e:fc:6b:
         54:16:20:ff:2b:b5:e7:4c:0c:4d:a6:4f:73
-----BEGIN CERTIFICATE-----
MIICWTCCAd+gAwIBAgIQZvI9r4fei7FK6gxXMQHC7DAKBggqhkjOPQQDAzBlMQsw
CQYDVQQGEwJVUzEeMBwGA1UEChMVTWljcm9zb2Z0IENvcnBvcmF0aW9uMTYwNAYD
VQQDEy1NaWNyb3NvZnQgRUNDIFJvb3QgQ2VydGlmaWNhdGUgQXV0aG9yaXR5IDIw
MTcwHhcNMTkxMjE4MjMwNjQ1WhcNNDIwNzE4MjMxNjA0WjBlMQswCQYDVQQGEwJV
UzEeMBwGA1UEChMVTWljcm9zb2Z0IENvcnBvcmF0aW9uMTYwNAYDVQQDEy1NaWNy
b3NvZnQgRUNDIFJvb3QgQ2VydGlmaWNhdGUgQXV0aG9yaXR5IDIwMTcwdjAQBgcq
hkjOPQIBBgUrgQQAIgNiAATUvD0CQnVBEyPNgASGAlEvaqiBYgtlzPbKnR5vSmZR
ogPZnZH6thaxjG7efM3beaYvzrvOcS/lpaso7GMEZpn4+vKTEAXhgShC48Zo9OYb
hGBKia/teQ87zvH2RPUBeMCjVDBSMA4GA1UdDwEB/wQEAwIBhjAPBgNVHRMBAf8E
BTADAQH/MB0GA1UdDgQWBBTIy5lycFIM+Oa+sgRXKSrPQhDtNTAQBgkrBgEEAYI3
FQEEAwIBADAKBggqhkjOPQQDAwNoADBlAjBY8k3qDPlfXu5gKcs68tvWMoQZP3zV
L8KxzJOuULsJMsbG7X7JNpQS5GiFBqIb0C8CMQCZ6Ra0DvpWSNSkMBaReNtUjGUB
iudQZsIxtzm6uBoiB078a1QWIP8rtedMDE2mT3M=
-----END CERTIFICATE-----
