Certificate:
    Data:
        Version: 3 (0x2)
        Serial Number:
            31:f5:e4:62:0c:6c:58:ed:d6:d8
        Signature Algorithm: sha256WithRSAEncryption
        Issuer: C = IN, OU = emSign PKI, O = eMudhra Technologies Limited, CN = emSign Root CA - G1
        Validity
            Not Before: Feb 18 18:30:00 2018 GMT
            Not After : Feb 18 18:30:00 2043 GMT
        Subject: C = IN, OU = emSign PKI, O = eMudhra Technologies Limited, CN = emSign Root CA - G1
        Subject Public Key Info:
            Public Key Algorithm: rsaEncryption
                RSA Public-Key: (2048 bit)
                Modulus:
                    00:93:4b:bb:e9:66:8a:ee:9d:5b:d5:34:93:d0:1b:
                    1e:c3:e7:9e:b8:64:33:7f:63:78:68:b4:cd:2e:71:
                    75:d7:9b:20:c6:4d:29:bc:b6:68:60:8a:f7:21:9a:
                    56:35:5a:f3:76:bd:d8:cd:9a:ff:93:56:4b:a5:59:
                    06:a1:93:34:29:dd:16:34:75:4e:f2:81:b4:c7:96:
                    4e:ad:19:15:52:4a:fe:3c:70:75:70:cd:af:2b:ab:
                    15:9a:33:3c:aa:b3:8b:aa:cd:43:fd:f5:ea:70:ff:
                    ed:cf:11:3b:94:ce:4e:32:16:d3:23:40:2a:77:b3:
                    af:3c:01:2c:6c:ed:99:2c:8b:d9:4e:69:98:b2:f7:
                    8f:41:b0:32:78:61:d6:0d:5f:c3:fa:a2:40:92:1d:
                    5c:17:e6:70:3e:35:e7:a2:b7:c2:62:e2:ab:a4:38:
                    4c:b5:39:35:6f:ea:03:69:fa:3a:54:68:85:6d:d6:
                    f2:2f:43:55:1e:91:0d:0e:d8:d5:6a:a4:96:d1:13:
                    3c:2c:78:50:e8:3a:92:d2:17:56:e5:35:1a:40:1c:
                    3e:8d:2c:ed:39:df:42:e0:83:41:74:df:a3:cd:c2:
                    86:60:48:68:e3:69:0b:54:00:8b:e4:76:69:21:0d:
                    79:4e:34:08:5e:14:c2:cc:b1:b7:ad:d7:7c:70:8a:
                    c7:85
                Exponent: 65537 (0x10001)
        X509v3 extensions:
            X509v3 Subject Key Identifier: 
                FB:EF:0D:86:9E:B0:E3:DD:A9:B9:F1:21:17:7F:3E:FC:F0:77:2B:1A
            X509v3 Key Usage: critical
                Certificate Sign, CRL Sign
            X509v3 Basic Constraints: critical
                CA:TRUE
    Signature Algorithm: sha256WithRSAEncryption
         59:ff:f2:8c:f5:87:7d:71:3d:a3:9f:1b:5b:d1:da:f8:d3:9c:
         6b:36:bd:9b:a9:61:eb:de:16:2c:74:3d:9e:e6:75:da:d7:ba:
         a7:bc:42:17:e7:3d:91:eb:e5:7d:dd:3e:9c:f1:cf:92:ac:6c:
         48:cc:c2:22:3f:69:3b:c5:b6:15:2f:a3:35:c6:68:2a:1c:57:
         af:39:ef:8d:d0:35:c3:18:0c:7b:00:56:1c:cd:8b:19:74:de:
         be:0f:12:e0:d0:aa:a1:3f:02:34:b1:70:ce:9d:18:d6:08:03:
         09:46:ee:60:e0:7e:b6:c4:49:04:51:7d:70:60:bc:aa:b2:ff:
         79:72:7a:a6:1d:3d:5f:2a:f8:ca:e2:fd:39:b7:47:b9:eb:7e:
         df:04:23:af:fa:9c:06:07:e9:fb:63:93:80:40:b5:c6:6c:0a:
         31:28:ce:0c:9f:cf:b3:23:35:80:41:8d:6c:c4:37:7b:81:2f:
         80:a1:40:42:85:e9:d9:38:8d:e8:a1:53:cd:01:bf:69:e8:5a:
         06:f2:45:0b:90:fa:ae:e1:bf:9d:f2:ae:57:3c:a5:ae:b2:56:
         f4:8b:65:40:e9:fd:31:81:2c:f4:39:09:d8:ee:6b:a7:b4:a6:
         1d:15:a5:98:f7:01:81:d8:85:7d:f3:51:5c:71:88:de:ba:cc:
         1f:80:7e:4a
-----BEGIN CERTIFICATE-----
MIIDlDCCAnygAwIBAgIKMfXkYgxsWO3W2DANBgkqhkiG9w0BAQsFADBnMQswCQYD
VQQGEwJJTjETMBEGA1UECxMKZW1TaWduIFBLSTElMCMGA1UEChMcZU11ZGhyYSBU
ZWNobm9sb2dpZXMgTGltaXRlZDEcMBoGA1UEAxMTZW1TaWduIFJvb3QgQ0EgLSBH
MTAeFw0xODAyMTgxODMwMDBaFw00MzAyMTgxODMwMDBaMGcxCzAJBgNVBAYTAklO
MRMwEQYDVQQLEwplbVNpZ24gUEtJMSUwIwYDVQQKExxlTXVkaHJhIFRlY2hub2xv
Z2llcyBMaW1pdGVkMRwwGgYDVQQDExNlbVNpZ24gUm9vdCBDQSAtIEcxMIIBIjAN
BgkqhkiG9w0BAQEFAAOCAQ8AMIIBCgKCAQEAk0u76WaK7p1b1TST0Bsew+eeuGQz
f2N4aLTNLnF115sgxk0pvLZoYIr3IZpWNVrzdr3YzZr/k1ZLpVkGoZM0Kd0WNHVO
8oG0x5ZOrRkVUkr+PHB1cM2vK6sVmjM8qrOLqs1D/fXqcP/tzxE7lM5OMhbTI0Aq
d7OvPAEsbO2ZLIvZTmmYsvePQbAyeGHWDV/D+qJAkh1cF+ZwPjXnorfCYuKrpDhM
tTk1b+oDafo6VGiFbdbyL0NVHpENDtjVaqSW0RM8LHhQ6DqS0hdW5TUaQBw+jSzt
Od9C4INBdN+jzcKGYEho42kLVACL5HZpIQ15TjQIXhTCzLG3rdd8cIrHhQIDAQAB
o0IwQDAdBgNVHQ4EFgQU++8Nhp6w492pufEhF38+/PB3KxowDgYDVR0PAQH/BAQD
AgEGMA8GA1UdEwEB/wQFMAMBAf8wDQYJKoZIhvcNAQELBQADggEBAFn/8oz1h31x
PaOfG1vR2vjTnGs2vZupYeveFix0PZ7mddrXuqe8QhfnPZHr5X3dPpzxz5KsbEjM
wiI/aTvFthUvozXGaCocV685743QNcMYDHsAVhzNixl03r4PEuDQqqE/AjSxcM6d
GNYIAwlG7mDgfrbESQRRfXBgvKqy/3lyeqYdPV8q+Mri/Tm3R7nrft8EI6/6nAYH
6ftjk4BAtcZsCjEozgyfz7MjNYBBjWzEN3uBL4ChQEKF6dk4jeihU80Bv2noWgby
RQuQ+q7hv53yrlc8pa6yVvSLZUDp/TGBLPQ5Cdjua6e0ph0VpZj3AYHYhX3zUVxx
iN66zB+Afko=
-----END CERTIFICATE-----
