Certificate:
    Data:
        Version: 3 (0x2)
        Serial Number: 623603 (0x983f3)
        Signature Algorithm: sha256WithRSAEncryption
        Issuer: C = DE, O = D-Trust GmbH, CN = D-TRUST Root Class 3 CA 2 2009
        Validity
            Not Before: Nov  5 08:35:58 2009 GMT
            Not After : Nov  5 08:35:58 2029 GMT
        Subject: C = DE, O = D-Trust GmbH, CN = D-TRUST Root Class 3 CA 2 2009
        Subject Public Key Info:
            Public Key Algorithm: rsaEncryption
                RSA Public-Key: (2048 bit)
                Modulus:
                    00:d3:b2:4a:cf:7a:47:ef:75:9b:23:fa:3a:2f:d6:
                    50:45:89:35:3a:c6:6b:db:fe:db:00:68:a8:e0:03:
                    11:1d:37:50:08:9f:4d:4a:68:94:35:b3:53:d1:94:
                    63:a7:20:56:af:de:51:78:ec:2a:3d:f3:48:48:50:
                    3e:0a:df:46:55:8b:27:6d:c3:10:4d:0d:91:52:43:
                    d8:87:e0:5d:4e:36:b5:21:ca:5f:39:40:04:5f:5b:
                    7e:cc:a3:c6:2b:a9:40:1e:d9:36:84:d6:48:f3:92:
                    1e:34:46:20:24:c1:a4:51:8e:4a:1a:ef:50:3f:69:
                    5d:19:7f:45:c3:c7:01:8f:51:c9:23:e8:72:ae:b4:
                    bc:56:09:7f:12:cb:1c:b1:af:29:90:0a:c9:55:cc:
                    0f:d3:b4:1a:ed:47:35:5a:4a:ed:9c:73:04:21:d0:
                    aa:bd:0c:13:b5:00:ca:26:6c:c4:6b:0c:94:5a:95:
                    94:da:50:9a:f1:ff:a5:2b:66:31:a4:c9:38:a0:df:
                    1d:1f:b8:09:2e:f3:a7:e8:67:52:ab:95:1f:e0:46:
                    3e:d8:a4:c3:ca:5a:c5:31:80:e8:48:9a:9f:94:69:
                    fe:19:dd:d8:73:7c:81:ca:96:de:8e:ed:b3:32:05:
                    65:84:34:e6:e6:fd:57:10:b5:5f:76:bf:2f:b0:10:
                    0d:c5
                Exponent: 65537 (0x10001)
        X509v3 extensions:
            X509v3 Basic Constraints: critical
                CA:TRUE
            X509v3 Subject Key Identifier: 
                FD:DA:14:C4:9F:30:DE:21:BD:1E:42:39:FC:AB:63:23:49:E0:F1:84
            X509v3 Key Usage: critical
                Certificate Sign, CRL Sign
            X509v3 CRL Distribution Points: 

                Full Name:
                  URI:ldap://directory.d-trust.net/CN=D-TRUST%20Root%20Class%203%20CA%202%202009,O=D-Trust%20GmbH,C=DE?certificaterevocationlist

                Full Name:
                  URI:http://www.d-trust.net/crl/d-trust_root_class_3_ca_2_2009.crl

    Signature Algorithm: sha256WithRSAEncryption
         7f:97:db:30:c8:df:a4:9c:7d:21:7a:80:70:ce:14:12:69:88:
         14:95:60:44:01:ac:b2:e9:30:4f:9b:50:c2:66:d8:7e:8d:30:
         b5:70:31:e9:e2:69:c7:f3:70:db:20:15:86:d0:0d:f0:be:ac:
         01:75:84:ce:7e:9f:4d:bf:b7:60:3b:9c:f3:ca:1d:e2:5e:68:
         d8:a3:9d:97:e5:40:60:d2:36:21:fe:d0:b4:b8:17:da:74:a3:
         7f:d4:df:b0:98:02:ac:6f:6b:6b:2c:25:24:72:a1:65:ee:25:
         5a:e5:e6:32:e7:f2:df:ab:49:fa:f3:90:69:23:db:04:d9:e7:
         5c:58:fc:65:d4:97:be:cc:fc:2e:0a:cc:25:2a:35:04:f8:60:
         91:15:75:3d:41:ff:23:1f:19:c8:6c:eb:82:53:04:a6:e4:4c:
         22:4d:8d:8c:ba:ce:5b:73:ec:64:54:50:6d:d1:9c:55:fb:69:
         c3:36:c3:8c:bc:3c:85:a6:6b:0a:26:0d:e0:93:98:60:ae:7e:
         c6:24:97:8a:61:5f:91:8e:66:92:09:87:36:cd:8b:9b:2d:3e:
         f6:51:d4:50:d4:59:28:bd:83:f2:cc:28:7b:53:86:6d:d8:26:
         88:70:d7:ea:91:cd:3e:b9:ca:c0:90:6e:5a:c6:5e:74:65:d7:
         5c:fe:a3:e2
-----BEGIN CERTIFICATE-----
MIIEMzCCAxugAwIBAgIDCYPzMA0GCSqGSIb3DQEBCwUAME0xCzAJBgNVBAYTAkRF
MRUwEwYDVQQKDAxELVRydXN0IEdtYkgxJzAlBgNVBAMMHkQtVFJVU1QgUm9vdCBD
bGFzcyAzIENBIDIgMjAwOTAeFw0wOTExMDUwODM1NThaFw0yOTExMDUwODM1NTha
ME0xCzAJBgNVBAYTAkRFMRUwEwYDVQQKDAxELVRydXN0IEdtYkgxJzAlBgNVBAMM
HkQtVFJVU1QgUm9vdCBDbGFzcyAzIENBIDIgMjAwOTCCASIwDQYJKoZIhvcNAQEB
BQADggEPADCCAQoCggEBANOySs96R+91myP6Oi/WUEWJNTrGa9v+2wBoqOADER03
UAifTUpolDWzU9GUY6cgVq/eUXjsKj3zSEhQPgrfRlWLJ23DEE0NkVJD2IfgXU42
tSHKXzlABF9bfsyjxiupQB7ZNoTWSPOSHjRGICTBpFGOShrvUD9pXRl/RcPHAY9R
ySPocq60vFYJfxLLHLGvKZAKyVXMD9O0Gu1HNVpK7ZxzBCHQqr0ME7UAyiZsxGsM
lFqVlNpQmvH/pStmMaTJOKDfHR+4CS7zp+hnUquVH+BGPtikw8paxTGA6Eian5Rp
/hnd2HN8gcqW3o7tszIFZYQ05ub9VxC1X3a/L7AQDcUCAwEAAaOCARowggEWMA8G
A1UdEwEB/wQFMAMBAf8wHQYDVR0OBBYEFP3aFMSfMN4hvR5COfyrYyNJ4PGEMA4G
A1UdDwEB/wQEAwIBBjCB0wYDVR0fBIHLMIHIMIGAoH6gfIZ6bGRhcDovL2RpcmVj
dG9yeS5kLXRydXN0Lm5ldC9DTj1ELVRSVVNUJTIwUm9vdCUyMENsYXNzJTIwMyUy
MENBJTIwMiUyMDIwMDksTz1ELVRydXN0JTIwR21iSCxDPURFP2NlcnRpZmljYXRl
cmV2b2NhdGlvbmxpc3QwQ6BBoD+GPWh0dHA6Ly93d3cuZC10cnVzdC5uZXQvY3Js
L2QtdHJ1c3Rfcm9vdF9jbGFzc18zX2NhXzJfMjAwOS5jcmwwDQYJKoZIhvcNAQEL
BQADggEBAH+X2zDI36ScfSF6gHDOFBJpiBSVYEQBrLLpME+bUMJm2H6NMLVwMeni
acfzcNsgFYbQDfC+rAF1hM5+n02/t2A7nPPKHeJeaNijnZflQGDSNiH+0LS4F9p0
o3/U37CYAqxva2ssJSRyoWXuJVrl5jLn8t+rSfrzkGkj2wTZ51xY/GXUl77M/C4K
zCUqNQT4YJEVdT1B/yMfGchs64JTBKbkTCJNjYy6zltz7GRUUG3RnFX7acM2w4y8
PIWmawomDeCTmGCufsYkl4phX5GOZpIJhzbNi5stPvZR1FDUWSi9g/LMKHtThm3Y
Johw1+qRzT65ysCQblrGXnRl11z+o+I=
-----END CERTIFICATE-----
