Certificate:
    Data:
        Version: 3 (0x2)
        Serial Number:
            0a:01:42:80:00:00:01:45:23:c8:44:b5:00:00:00:02
        Signature Algorithm: sha256WithRSAEncryption
        Issuer: C = US, O = IdenTrust, CN = IdenTrust Commercial Root CA 1
        Validity
            Not Before: Jan 16 18:12:23 2014 GMT
            Not After : Jan 16 18:12:23 2034 GMT
        Subject: C = US, O = IdenTrust, CN = IdenTrust Commercial Root CA 1
        Subject Public Key Info:
            Public Key Algorithm: rsaEncryption
                RSA Public-Key: (4096 bit)
                Modulus:
                    00:a7:50:19:de:3f:99:3d:d4:33:46:f1:6f:51:61:
                    82:b2:a9:4f:8f:67:89:5d:84:d9:53:dd:0c:28:d9:
                    d7:f0:ff:ae:95:43:72:99:f9:b5:5d:7c:8a:c1:42:
                    e1:31:50:74:d1:81:0d:7c:cd:9b:21:ab:43:e2:ac:
                    ad:5e:86:6e:f3:09:8a:1f:5a:32:bd:a2:eb:94:f9:
                    e8:5c:0a:ec:ff:98:d2:af:71:b3:b4:53:9f:4e:87:
                    ef:92:bc:bd:ec:4f:32:30:88:4b:17:5e:57:c4:53:
                    c2:f6:02:97:8d:d9:62:2b:bf:24:1f:62:8d:df:c3:
                    b8:29:4b:49:78:3c:93:60:88:22:fc:99:da:36:c8:
                    c2:a2:d4:2c:54:00:67:35:6e:73:bf:02:58:f0:a4:
                    dd:e5:b0:a2:26:7a:ca:e0:36:a5:19:16:f5:fd:b7:
                    ef:ae:3f:40:f5:6d:5a:04:fd:ce:34:ca:24:dc:74:
                    23:1b:5d:33:13:12:5d:c4:01:25:f6:30:dd:02:5d:
                    9f:e0:d5:47:bd:b4:eb:1b:a1:bb:49:49:d8:9f:5b:
                    02:f3:8a:e4:24:90:e4:62:4f:4f:c1:af:8b:0e:74:
                    17:a8:d1:72:88:6a:7a:01:49:cc:b4:46:79:c6:17:
                    b1:da:98:1e:07:59:fa:75:21:85:65:dd:90:56:ce:
                    fb:ab:a5:60:9d:c4:9d:f9:52:b0:8b:bd:87:f9:8f:
                    2b:23:0a:23:76:3b:f7:33:e1:c9:00:f3:69:f9:4b:
                    a2:e0:4e:bc:7e:93:39:84:07:f7:44:70:7e:fe:07:
                    5a:e5:b1:ac:d1:18:cc:f2:35:e5:49:49:08:ca:56:
                    c9:3d:fb:0f:18:7d:8b:3b:c1:13:c2:4d:8f:c9:4f:
                    0e:37:e9:1f:a1:0e:6a:df:62:2e:cb:35:06:51:79:
                    2c:c8:25:38:f4:fa:4b:a7:89:5c:9c:d2:e3:0d:39:
                    86:4a:74:7c:d5:59:87:c2:3f:4e:0c:5c:52:f4:3d:
                    f7:52:82:f1:ea:a3:ac:fd:49:34:1a:28:f3:41:88:
                    3a:13:ee:e8:de:ff:99:1d:5f:ba:cb:e8:1e:f2:b9:
                    50:60:c0:31:d3:73:e5:ef:be:a0:ed:33:0b:74:be:
                    20:20:c4:67:6c:f0:08:03:7a:55:80:7f:46:4e:96:
                    a7:f4:1e:3e:e1:f6:d8:09:e1:33:64:2b:63:d7:32:
                    5e:9f:f9:c0:7b:0f:78:6f:97:bc:93:9a:f9:9c:12:
                    90:78:7a:80:87:15:d7:72:74:9c:55:74:78:b1:ba:
                    e1:6e:70:04:ba:4f:a0:ba:68:c3:7b:ff:31:f0:73:
                    3d:3d:94:2a:b1:0b:41:0e:a0:fe:4d:88:65:6b:79:
                    33:b4:d7
                Exponent: 65537 (0x10001)
        X509v3 extensions:
            X509v3 Key Usage: critical
                Certificate Sign, CRL Sign
            X509v3 Basic Constraints: critical
                CA:TRUE
            X509v3 Subject Key Identifier: 
                ED:44:19:C0:D3:F0:06:8B:EE:A4:7B:BE:42:E7:26:54:C8:8E:36:76
    Signature Algorithm: sha256WithRSAEncryption
         0d:ae:90:32:f6:a6:4b:7c:44:76:19:61:1e:27:28:cd:5e:54:
         ef:25:bc:e3:08:90:f9:29:d7:ae:68:08:e1:94:00:58:ef:2e:
         2e:7e:53:52:8c:b6:5c:07:ea:88:ba:99:8b:50:94:d7:82:80:
         df:61:09:00:93:ad:0d:14:e6:ce:c1:f2:37:94:78:b0:5f:9c:
         b3:a2:73:b8:8f:05:93:38:cd:8d:3e:b0:b8:fb:c0:cf:b1:f2:
         ec:2d:2d:1b:cc:ec:aa:9a:b3:aa:60:82:1b:2d:3b:c3:84:3d:
         57:8a:96:1e:9c:75:b8:d3:30:cd:60:08:83:90:d3:8e:54:f1:
         4d:66:c0:5d:74:03:40:a3:ee:85:7e:c2:1f:77:9c:06:e8:c1:
         a7:18:5d:52:95:ed:c9:dd:25:9e:6d:fa:a9:ed:a3:3a:34:d0:
         59:7b:da:ed:50:f3:35:bf:ed:eb:14:4d:31:c7:60:f4:da:f1:
         87:9c:e2:48:e2:c6:c5:37:fb:06:10:fa:75:59:66:31:47:29:
         da:76:9a:1c:e9:82:ae:ef:9a:b9:51:f7:88:23:9a:69:95:62:
         3c:e5:55:80:36:d7:54:02:ff:f1:b9:5d:ce:d4:23:6f:d8:45:
         84:4a:5b:65:ef:89:0c:dd:14:a7:20:cb:18:a5:25:b4:0d:f9:
         01:f0:a2:d2:f4:00:c8:74:8e:a1:2a:48:8e:65:db:13:c4:e2:
         25:17:7d:eb:be:87:5b:17:20:54:51:93:4a:53:03:0b:ec:5d:
         ca:33:ed:62:fd:45:c7:2f:5b:dc:58:a0:80:39:e6:fa:d7:fe:
         13:14:a6:ed:3d:94:4a:42:74:d4:c3:77:59:73:cd:8f:46:be:
         55:38:ef:fa:e8:91:32:ea:97:58:04:22:de:38:c3:cc:bc:6d:
         c9:33:3a:6a:0a:69:3f:a0:c8:ea:72:8f:8c:63:86:23:bd:6d:
         3c:96:9e:95:e0:49:4c:aa:a2:b9:2a:1b:9c:36:81:78:ed:c3:
         e8:46:e2:26:59:44:75:1e:d9:75:89:51:cd:10:84:9d:61:60:
         cb:5d:f9:97:22:4d:8e:98:e6:e3:7f:f6:5b:bb:ae:cd:ca:4a:
         81:6b:5e:0b:f3:51:e1:74:2b:e9:7e:27:a7:d9:99:49:4e:f8:
         a5:80:db:25:0f:1c:63:62:8a:c9:33:67:6b:3c:10:83:c6:ad:
         de:a8:cd:16:8e:8d:f0:07:37:71:9f:f2:ab:fc:41:f5:c1:8b:
         ec:00:37:5d:09:e5:4e:80:ef:fa:b1:5c:38:06:a5:1b:4a:e1:
         dc:38:2d:3c:dc:ab:1f:90:1a:d5:4a:9c:ee:d1:70:6c:cc:ee:
         f4:57:f8:18:ba:84:6e:87
-----BEGIN CERTIFICATE-----
MIIFYDCCA0igAwIBAgIQCgFCgAAAAUUjyES1AAAAAjANBgkqhkiG9w0BAQsFADBK
MQswCQYDVQQGEwJVUzESMBAGA1UEChMJSWRlblRydXN0MScwJQYDVQQDEx5JZGVu
VHJ1c3QgQ29tbWVyY2lhbCBSb290IENBIDEwHhcNMTQwMTE2MTgxMjIzWhcNMzQw
MTE2MTgxMjIzWjBKMQswCQYDVQQGEwJVUzESMBAGA1UEChMJSWRlblRydXN0MScw
JQYDVQQDEx5JZGVuVHJ1c3QgQ29tbWVyY2lhbCBSb290IENBIDEwggIiMA0GCSqG
SIb3DQEBAQUAA4ICDwAwggIKAoICAQCnUBneP5k91DNG8W9RYYKyqU+PZ4ldhNlT
3Qwo2dfw/66VQ3KZ+bVdfIrBQuExUHTRgQ18zZshq0PirK1ehm7zCYofWjK9ouuU
+ehcCuz/mNKvcbO0U59Oh++SvL3sTzIwiEsXXlfEU8L2ApeN2WIrvyQfYo3fw7gp
S0l4PJNgiCL8mdo2yMKi1CxUAGc1bnO/AljwpN3lsKImesrgNqUZFvX9t++uP0D1
bVoE/c40yiTcdCMbXTMTEl3EASX2MN0CXZ/g1Ue9tOsbobtJSdifWwLziuQkkORi
T0/Br4sOdBeo0XKIanoBScy0RnnGF7HamB4HWfp1IYVl3ZBWzvurpWCdxJ35UrCL
vYf5jysjCiN2O/cz4ckA82n5S6LgTrx+kzmEB/dEcH7+B1rlsazRGMzyNeVJSQjK
Vsk9+w8YfYs7wRPCTY/JTw436R+hDmrfYi7LNQZReSzIJTj0+kuniVyc0uMNOYZK
dHzVWYfCP04MXFL0PfdSgvHqo6z9STQaKPNBiDoT7uje/5kdX7rL6B7yuVBgwDHT
c+XvvqDtMwt0viAgxGds8AgDelWAf0ZOlqf0Hj7h9tgJ4TNkK2PXMl6f+cB7D3hv
l7yTmvmcEpB4eoCHFddydJxVdHixuuFucAS6T6C6aMN7/zHwcz09lCqxC0EOoP5N
iGVreTO01wIDAQABo0IwQDAOBgNVHQ8BAf8EBAMCAQYwDwYDVR0TAQH/BAUwAwEB
/zAdBgNVHQ4EFgQU7UQZwNPwBovupHu+QucmVMiONnYwDQYJKoZIhvcNAQELBQAD
ggIBAA2ukDL2pkt8RHYZYR4nKM1eVO8lvOMIkPkp165oCOGUAFjvLi5+U1KMtlwH
6oi6mYtQlNeCgN9hCQCTrQ0U5s7B8jeUeLBfnLOic7iPBZM4zY0+sLj7wM+x8uwt
LRvM7Kqas6pgghstO8OEPVeKlh6cdbjTMM1gCIOQ045U8U1mwF10A0Cj7oV+wh93
nAbowacYXVKV7cndJZ5t+qntozo00Fl72u1Q8zW/7esUTTHHYPTa8Yec4kjixsU3
+wYQ+nVZZjFHKdp2mhzpgq7vmrlR94gjmmmVYjzlVYA211QC//G5Xc7UI2/YRYRK
W2XviQzdFKcgyxilJbQN+QHwotL0AMh0jqEqSI5l2xPE4iUXfeu+h1sXIFRRk0pT
AwvsXcoz7WL9RccvW9xYoIA55vrX/hMUpu09lEpCdNTDd1lzzY9GvlU47/rokTLq
l1gEIt44w8y8bckzOmoKaT+gyOpyj4xjhiO9bTyWnpXgSUyqorkqG5w2gXjtw+hG
4iZZRHUe2XWJUc0QhJ1hYMtd+ZciTY6Y5uN/9lu7rs3KSoFrXgvzUeF0K+l+J6fZ
mUlO+KWA2yUPHGNiiskzZ2s8EIPGrd6ozRaOjfAHN3Gf8qv8QfXBi+wAN10J5U6A
7/qxXDgGpRtK4dw4LTzcqx+QGtVKnO7RcGzM7vRX+Bi6hG6H
-----END CERTIFICATE-----
