Certificate:
    Data:
        Version: 3 (0x2)
        Serial Number: 80544274841616 (0x49412ce40010)
        Signature Algorithm: sha256WithRSAEncryption
        Issuer: C = HU, L = Budapest, O = NetLock Kft., OU = Tan\C3\BAs\C3\ADtv\C3\A1nykiad\C3\B3k (Certification Services), CN = NetLock Arany (Class Gold) F\C5\91tan\C3\BAs\C3\ADtv\C3\A1ny
        Validity
            Not Before: Dec 11 15:08:21 2008 GMT
            Not After : Dec  6 15:08:21 2028 GMT
        Subject: C = HU, L = Budapest, O = NetLock Kft., OU = Tan\C3\BAs\C3\ADtv\C3\A1nykiad\C3\B3k (Certification Services), CN = NetLock Arany (Class Gold) F\C5\91tan\C3\BAs\C3\ADtv\C3\A1ny
        Subject Public Key Info:
            Public Key Algorithm: rsaEncryption
                RSA Public-Key: (2048 bit)
                Modulus:
                    00:c4:24:5e:73:be:4b:6d:14:c3:a1:f4:e3:97:90:
                    6e:d2:30:45:1e:3c:ee:67:d9:64:e0:1a:8a:7f:ca:
                    30:ca:83:e3:20:c1:e3:f4:3a:d3:94:5f:1a:7c:5b:
                    6d:bf:30:4f:84:27:f6:9f:1f:49:bc:c6:99:0a:90:
                    f2:0f:f5:7f:43:84:37:63:51:8b:7a:a5:70:fc:7a:
                    58:cd:8e:9b:ed:c3:46:6c:84:70:5d:da:f3:01:90:
                    23:fc:4e:30:a9:7e:e1:27:63:e7:ed:64:3c:a0:b8:
                    c9:33:63:fe:16:90:ff:b0:b8:fd:d7:a8:c0:c0:94:
                    43:0b:b6:d5:59:a6:9e:56:d0:24:1f:70:79:af:db:
                    39:54:0d:65:75:d9:15:41:94:01:af:5e:ec:f6:8d:
                    f1:ff:ad:64:fe:20:9a:d7:5c:eb:fe:a6:1f:08:64:
                    a3:8b:76:55:ad:1e:3b:28:60:2e:87:25:e8:aa:af:
                    1f:c6:64:46:20:b7:70:7f:3c:de:48:db:96:53:b7:
                    39:77:e4:1a:e2:c7:16:84:76:97:5b:2f:bb:19:15:
                    85:f8:69:85:f5:99:a7:a9:f2:34:a7:a9:b6:a6:03:
                    fc:6f:86:3d:54:7c:76:04:9b:6b:f9:40:5d:00:34:
                    c7:2e:99:75:9d:e5:88:03:aa:4d:f8:03:d2:42:76:
                    c0:1b
                Exponent: 43147 (0xa88b)
        X509v3 extensions:
            X509v3 Basic Constraints: critical
                CA:TRUE, pathlen:4
            X509v3 Key Usage: critical
                Certificate Sign, CRL Sign
            X509v3 Subject Key Identifier: 
                CC:FA:67:93:F0:B6:B8:D0:A5:C0:1E:F3:53:FD:8C:53:DF:83:D7:96
    Signature Algorithm: sha256WithRSAEncryption
         ab:7f:ee:1c:16:a9:9c:3c:51:00:a0:c0:11:08:05:a7:99:e6:
         6f:01:88:54:61:6e:f1:b9:18:ad:4a:ad:fe:81:40:23:94:2f:
         fb:75:7c:2f:28:4b:62:24:81:82:0b:f5:61:f1:1c:6e:b8:61:
         38:eb:81:fa:62:a1:3b:5a:62:d3:94:65:c4:e1:e6:6d:82:f8:
         2f:25:70:b2:21:26:c1:72:51:1f:8c:2c:c3:84:90:c3:5a:8f:
         ba:cf:f4:a7:65:a5:eb:98:d1:fb:05:b2:46:75:15:23:6a:6f:
         85:63:30:80:f0:d5:9e:1f:29:1c:c2:6c:b0:50:59:5d:90:5b:
         3b:a8:0d:30:cf:bf:7d:7f:ce:f1:9d:83:bd:c9:46:6e:20:a6:
         f9:61:51:ba:21:2f:7b:be:a5:15:63:a1:d4:95:87:f1:9e:b9:
         f3:89:f3:3d:85:b8:b8:db:be:b5:b9:29:f9:da:37:05:00:49:
         94:03:84:44:e7:bf:43:31:cf:75:8b:25:d1:f4:a6:64:f5:92:
         f6:ab:05:eb:3d:e9:a5:0b:36:62:da:cc:06:5f:36:8b:b6:5e:
         31:b8:2a:fb:5e:f6:71:df:44:26:9e:c4:e6:0d:91:b4:2e:75:
         95:80:51:6a:4b:30:a6:b0:62:a1:93:f1:9b:d8:ce:c4:63:75:
         3f:59:47:b1
-----BEGIN CERTIFICATE-----
MIIEFTCCAv2gAwIBAgIGSUEs5AAQMA0GCSqGSIb3DQEBCwUAMIGnMQswCQYDVQQG
EwJIVTERMA8GA1UEBwwIQnVkYXBlc3QxFTATBgNVBAoMDE5ldExvY2sgS2Z0LjE3
MDUGA1UECwwuVGFuw7pzw610dsOhbnlraWFkw7NrIChDZXJ0aWZpY2F0aW9uIFNl
cnZpY2VzKTE1MDMGA1UEAwwsTmV0TG9jayBBcmFueSAoQ2xhc3MgR29sZCkgRsWR
dGFuw7pzw610dsOhbnkwHhcNMDgxMjExMTUwODIxWhcNMjgxMjA2MTUwODIxWjCB
pzELMAkGA1UEBhMCSFUxETAPBgNVBAcMCEJ1ZGFwZXN0MRUwEwYDVQQKDAxOZXRM
b2NrIEtmdC4xNzA1BgNVBAsMLlRhbsO6c8OtdHbDoW55a2lhZMOzayAoQ2VydGlm
aWNhdGlvbiBTZXJ2aWNlcykxNTAzBgNVBAMMLE5ldExvY2sgQXJhbnkgKENsYXNz
IEdvbGQpIEbFkXRhbsO6c8OtdHbDoW55MIIBIjANBgkqhkiG9w0BAQEFAAOCAQ8A
MIIBCgKCAQEAxCRec75LbRTDofTjl5Bu0jBFHjzuZ9lk4BqKf8owyoPjIMHj9DrT
lF8afFttvzBPhCf2nx9JvMaZCpDyD/V/Q4Q3Y1GLeqVw/HpYzY6b7cNGbIRwXdrz
AZAj/E4wqX7hJ2Pn7WQ8oLjJM2P+FpD/sLj916jAwJRDC7bVWaaeVtAkH3B5r9s5
VA1lddkVQZQBr17s9o3x/61k/iCa11zr/qYfCGSji3ZVrR47KGAuhyXoqq8fxmRG
ILdwfzzeSNuWU7c5d+Qa4scWhHaXWy+7GRWF+GmF9ZmnqfI0p6m2pgP8b4Y9VHx2
BJtr+UBdADTHLpl1neWIA6pN+APSQnbAGwIDAKiLo0UwQzASBgNVHRMBAf8ECDAG
AQH/AgEEMA4GA1UdDwEB/wQEAwIBBjAdBgNVHQ4EFgQUzPpnk/C2uNClwB7zU/2M
U9+D15YwDQYJKoZIhvcNAQELBQADggEBAKt/7hwWqZw8UQCgwBEIBaeZ5m8BiFRh
bvG5GK1Krf6BQCOUL/t1fC8oS2IkgYIL9WHxHG64YTjrgfpioTtaYtOUZcTh5m2C
+C8lcLIhJsFyUR+MLMOEkMNaj7rP9KdlpeuY0fsFskZ1FSNqb4VjMIDw1Z4fKRzC
bLBQWV2QWzuoDTDPv31/zvGdg73JRm4gpvlhUbohL3u+pRVjodSVh/GeufOJ8z2F
uLjbvrW5KfnaNwUASZQDhETnv0Mxz3WLJdH0pmT1kvarBes96aULNmLazAZfNou2
XjG4Kvte9nHfRCaexOYNkbQudZWAUWpLMKawYqGT8ZvYzsRjdT9ZR7E=
-----END CERTIFICATE-----
