Certificate:
    Data:
        Version: 3 (0x2)
        Serial Number:
            0b:93:1c:3a:d6:39:67:ea:67:23:bf:c3:af:9a:f4:4b
        Signature Algorithm: sha256WithRSAEncryption
        Issuer: C = US, O = DigiCert Inc, OU = www.digicert.com, CN = DigiCert Assured ID Root G2
        Validity
            Not Before: Aug  1 12:00:00 2013 GMT
            Not After : Jan 15 12:00:00 2038 GMT
        Subject: C = US, O = DigiCert Inc, OU = www.digicert.com, CN = DigiCert Assured ID Root G2
        Subject Public Key Info:
            Public Key Algorithm: rsaEncryption
                RSA Public-Key: (2048 bit)
                Modulus:
                    00:d9:e7:28:2f:52:3f:36:72:49:88:93:34:f3:f8:
                    6a:1e:31:54:80:9f:ad:54:41:b5:47:df:96:a8:d4:
                    af:80:2d:b9:0a:cf:75:fd:89:a5:7d:24:fa:e3:22:
                    0c:2b:bc:95:17:0b:33:bf:19:4d:41:06:90:00:bd:
                    0c:4d:10:fe:07:b5:e7:1c:6e:22:55:31:65:97:bd:
                    d3:17:d2:1e:62:f3:db:ea:6c:50:8c:3f:84:0c:96:
                    cf:b7:cb:03:e0:ca:6d:a1:14:4c:1b:89:dd:ed:00:
                    b0:52:7c:af:91:6c:b1:38:13:d1:e9:12:08:c0:00:
                    b0:1c:2b:11:da:77:70:36:9b:ae:ce:79:87:dc:82:
                    70:e6:09:74:70:55:69:af:a3:68:9f:bf:dd:b6:79:
                    b3:f2:9d:70:29:55:f4:ab:ff:95:61:f3:c9:40:6f:
                    1d:d1:be:93:bb:d3:88:2a:bb:9d:bf:72:5a:56:71:
                    3b:3f:d4:f3:d1:0a:fe:28:ef:a3:ee:d9:99:af:03:
                    d3:8f:60:b7:f2:92:a1:b1:bd:89:89:1f:30:cd:c3:
                    a6:2e:62:33:ae:16:02:77:44:5a:e7:81:0a:3c:a7:
                    44:2e:79:b8:3f:04:bc:5c:a0:87:e1:1b:af:51:8e:
                    cd:ec:2c:fa:f8:fe:6d:f0:3a:7c:aa:8b:e4:67:95:
                    31:8d
                Exponent: 65537 (0x10001)
        X509v3 extensions:
            X509v3 Basic Constraints: critical
                CA:TRUE
            X509v3 Key Usage: critical
                Digital Signature, Certificate Sign, CRL Sign
            X509v3 Subject Key Identifier: 
                CE:C3:4A:B9:99:55:F2:B8:DB:60:BF:A9:7E:BD:56:B5:97:36:A7:D6
    Signature Algorithm: sha256WithRSAEncryption
         ca:a5:55:8c:e3:c8:41:6e:69:27:a7:75:11:ef:3c:86:36:6f:
         d2:9d:c6:78:38:1d:69:96:a2:92:69:2e:38:6c:9b:7d:04:d4:
         89:a5:b1:31:37:8a:c9:21:cc:ab:6c:cd:8b:1c:9a:d6:bf:48:
         d2:32:66:c1:8a:c0:f3:2f:3a:ef:c0:e3:d4:91:86:d1:50:e3:
         03:db:73:77:6f:4a:39:53:ed:de:26:c7:b5:7d:af:2b:42:d1:
         75:62:e3:4a:2b:02:c7:50:4b:e0:69:e2:96:6c:0e:44:66:10:
         44:8f:ad:05:eb:f8:79:ac:a6:1b:e8:37:34:9d:53:c9:61:aa:
         a2:52:af:4a:70:16:86:c2:3a:c8:b1:13:70:36:d8:cf:ee:f4:
         0a:34:d5:5b:4c:fd:07:9c:a2:ba:d9:01:72:5c:f3:4d:c1:dd:
         0e:b1:1c:0d:c4:63:be:ad:f4:14:fb:89:ec:a2:41:0e:4c:cc:
         c8:57:40:d0:6e:03:aa:cd:0c:8e:89:99:99:6c:f0:3c:30:af:
         38:df:6f:bc:a3:be:29:20:27:ab:74:ff:13:22:78:de:97:52:
         55:1e:83:b5:54:20:03:ee:ae:c0:4f:56:de:37:cc:c3:7f:aa:
         04:27:bb:d3:77:b8:62:db:17:7c:9c:28:22:13:73:6c:cf:26:
         f5:8a:29:e7
-----BEGIN CERTIFICATE-----
MIIDljCCAn6gAwIBAgIQC5McOtY5Z+pnI7/Dr5r0SzANBgkqhkiG9w0BAQsFADBl
MQswCQYDVQQGEwJVUzEVMBMGA1UEChMMRGlnaUNlcnQgSW5jMRkwFwYDVQQLExB3
d3cuZGlnaWNlcnQuY29tMSQwIgYDVQQDExtEaWdpQ2VydCBBc3N1cmVkIElEIFJv
b3QgRzIwHhcNMTMwODAxMTIwMDAwWhcNMzgwMTE1MTIwMDAwWjBlMQswCQYDVQQG
EwJVUzEVMBMGA1UEChMMRGlnaUNlcnQgSW5jMRkwFwYDVQQLExB3d3cuZGlnaWNl
cnQuY29tMSQwIgYDVQQDExtEaWdpQ2VydCBBc3N1cmVkIElEIFJvb3QgRzIwggEi
MA0GCSqGSIb3DQEBAQUAA4IBDwAwggEKAoIBAQDZ5ygvUj82ckmIkzTz+GoeMVSA
n61UQbVH35ao1K+ALbkKz3X9iaV9JPrjIgwrvJUXCzO/GU1BBpAAvQxNEP4Htecc
biJVMWWXvdMX0h5i89vqbFCMP4QMls+3ywPgym2hFEwbid3tALBSfK+RbLE4E9Hp
EgjAALAcKxHad3A2m67OeYfcgnDmCXRwVWmvo2ifv922ebPynXApVfSr/5Vh88lA
bx3RvpO704gqu52/clpWcTs/1PPRCv4o76Pu2ZmvA9OPYLfykqGxvYmJHzDNw6Yu
YjOuFgJ3RFrngQo8p0Quebg/BLxcoIfhG69Rjs3sLPr4/m3wOnyqi+RnlTGNAgMB
AAGjQjBAMA8GA1UdEwEB/wQFMAMBAf8wDgYDVR0PAQH/BAQDAgGGMB0GA1UdDgQW
BBTOw0q5mVXyuNtgv6l+vVa1lzan1jANBgkqhkiG9w0BAQsFAAOCAQEAyqVVjOPI
QW5pJ6d1Ee88hjZv0p3GeDgdaZaikmkuOGybfQTUiaWxMTeKySHMq2zNixya1r9I
0jJmwYrA8y8678Dj1JGG0VDjA9tzd29KOVPt3ibHtX2vK0LRdWLjSisCx1BL4Gni
lmwORGYQRI+tBev4eaymG+g3NJ1TyWGqolKvSnAWhsI6yLETcDbYz+70CjTVW0z9
B5yiutkBclzzTcHdDrEcDcRjvq30FPuJ7KJBDkzMyFdA0G4Dqs0MjomZmWzwPDCv
ON9vvKO+KSAnq3T/EyJ43pdSVR6DtVQgA+6uwE9W3jfMw3+qBCe703e4YtsXfJwo
IhNzbM8m9Yop5w==
-----END CERTIFICATE-----
