Certificate:
    Data:
        Version: 3 (0x2)
        Serial Number: 8875640296558310041 (0x7b2c9bd316803299)
        Signature Algorithm: sha256WithRSAEncryption
        Issuer: C = US, ST = Texas, L = Houston, O = SSL Corporation, CN = SSL.com Root Certification Authority RSA
        Validity
            Not Before: Feb 12 17:39:39 2016 GMT
            Not After : Feb 12 17:39:39 2041 GMT
        Subject: C = US, ST = Texas, L = Houston, O = SSL Corporation, CN = SSL.com Root Certification Authority RSA
        Subject Public Key Info:
            Public Key Algorithm: rsaEncryption
                RSA Public-Key: (4096 bit)
                Modulus:
                    00:f9:0f:dd:a3:2b:7d:cb:d0:2a:fe:ec:67:85:a6:
                    e7:2e:1b:ba:77:e1:e3:f5:af:a4:ec:fa:4a:5d:91:
                    c4:57:47:6b:18:77:6b:76:f2:fd:93:e4:3d:0f:c2:
                    16:9e:0b:66:c3:56:94:9e:17:83:85:ce:56:ef:f2:
                    16:fd:00:62:f5:22:09:54:e8:65:17:4e:41:b9:e0:
                    4f:46:97:aa:1b:c8:b8:6e:62:5e:69:b1:5f:db:2a:
                    02:7e:fc:6c:ca:f3:41:d8:ed:d0:e8:fc:3f:61:48:
                    ed:b0:03:14:1d:10:0e:4b:19:e0:bb:4e:ec:86:65:
                    ff:36:f3:5e:67:02:0b:9d:86:55:61:fd:7a:38:ed:
                    fe:e2:19:00:b7:6f:a1:50:62:75:74:3c:a0:fa:c8:
                    25:92:b4:6e:7a:22:c7:f8:1e:a1:e3:b2:dd:91:31:
                    ab:2b:1d:04:ff:a5:4a:04:37:e9:85:a4:33:2b:fd:
                    e2:d6:55:34:7c:19:a4:4a:68:c7:b2:a8:d3:b7:ca:
                    a1:93:88:eb:c1:97:bc:8c:f9:1d:d9:22:84:24:74:
                    c7:04:3d:6a:a9:29:93:cc:eb:b8:5b:e1:fe:5f:25:
                    aa:34:58:c8:c1:23:54:9d:1b:98:11:c3:38:9c:7e:
                    3d:86:6c:a5:0f:40:86:7c:02:f4:5c:02:4f:28:cb:
                    ae:71:9f:0f:3a:c8:33:fe:11:25:35:ea:fc:ba:c5:
                    60:3d:d9:7c:18:d5:b2:a9:d3:75:78:03:72:22:ca:
                    3a:c3:1f:ef:2c:e5:2e:a9:fa:9e:2c:b6:51:46:fd:
                    af:03:d6:ea:60:68:ea:85:16:36:6b:85:e9:1e:c0:
                    b3:dd:c4:24:dc:80:2a:81:41:6d:94:3e:c8:e0:c9:
                    81:41:00:9e:5e:bf:7f:c5:08:98:a2:18:2c:42:40:
                    b3:f9:6f:38:27:4b:4e:80:f4:3d:81:47:e0:88:7c:
                    ea:1c:ce:b5:75:5c:51:2e:1c:2b:7f:1a:72:28:e7:
                    00:b5:d1:74:c6:d7:e4:9f:ad:07:93:b6:53:35:35:
                    fc:37:e4:c3:f6:5d:16:be:21:73:de:92:0a:f8:a0:
                    63:6a:bc:96:92:6a:3e:f8:bc:65:55:9b:de:f5:0d:
                    89:26:04:fc:25:1a:a6:25:69:cb:c2:6d:ca:7c:e2:
                    59:5f:97:ac:eb:ef:2e:c8:bc:d7:1b:59:3c:2b:cc:
                    f2:19:c8:93:6b:27:63:19:cf:fc:e9:26:f8:ca:71:
                    9b:7f:93:fe:34:67:84:4e:99:eb:fc:b3:78:09:33:
                    70:ba:66:a6:76:ed:1b:73:eb:1a:a5:0d:c4:22:13:
                    20:94:56:0a:4e:2c:6c:4e:b1:fd:cf:9c:09:ba:a2:
                    33:ed:87
                Exponent: 65537 (0x10001)
        X509v3 extensions:
            X509v3 Subject Key Identifier: 
                DD:04:09:07:A2:F5:7A:7D:52:53:12:92:95:EE:38:80:25:0D:A6:59
            X509v3 Basic Constraints: critical
                CA:TRUE
            X509v3 Authority Key Identifier: 
                keyid:DD:04:09:07:A2:F5:7A:7D:52:53:12:92:95:EE:38:80:25:0D:A6:59

            X509v3 Key Usage: critical
                Digital Signature, Certificate Sign, CRL Sign
    Signature Algorithm: sha256WithRSAEncryption
         20:18:11:94:29:fb:26:9d:1c:1e:1e:70:61:f1:95:72:93:71:
         24:ad:68:93:58:8e:32:af:1b:b3:70:03:fc:25:2b:74:85:90:
         3d:78:6a:f4:b9:8b:a5:97:3b:b5:18:91:bb:1e:a7:f9:40:5b:
         91:f9:55:99:af:1e:11:d0:5c:1d:a7:66:e3:b1:94:07:0c:32:
         39:a6:ea:1b:b0:79:d8:1d:9c:70:44:e3:8a:dd:c4:f9:95:1f:
         8a:38:43:3f:01:85:a5:47:a7:3d:46:b2:bc:e5:22:68:f7:7b:
         9c:d8:2c:3e:0a:21:c8:2d:33:ac:bf:c5:81:99:31:74:c1:75:
         71:c5:be:b1:f0:23:45:f4:9d:6b:fc:19:63:9d:a3:bc:04:c6:
         18:0b:25:bb:53:89:0f:b3:80:50:de:45:ee:44:7f:ab:94:78:
         64:98:d3:f6:28:dd:87:d8:70:65:74:fb:0e:b9:13:eb:a7:0f:
         61:a9:32:96:cc:de:bb:ed:63:4c:18:bb:a9:40:f7:a0:54:6e:
         20:88:71:75:18:ea:7a:b4:34:72:e0:23:27:77:5c:b6:90:ea:
         86:25:40:ab:ef:33:0f:cb:9f:82:be:a2:20:fb:f6:b5:2d:1a:
         e6:c2:85:b1:74:0f:fb:c8:65:02:a4:52:01:47:dd:49:22:c1:
         bf:d8:eb:6b:ac:7e:de:ec:63:33:15:b7:23:08:8f:c6:0f:8d:
         41:5a:dd:8e:c5:b9:8f:e5:45:3f:78:db:ba:d2:1b:40:b1:fe:
         71:4d:3f:e0:81:a2:ba:5e:b4:ec:15:e0:93:dd:08:1f:7e:e1:
         55:99:0b:21:de:93:9e:0a:fb:e6:a3:49:bd:36:30:fe:e7:77:
         b2:a0:75:97:b5:2d:81:88:17:65:20:f7:da:90:00:9f:c9:52:
         cc:32:ca:35:7c:f5:3d:0f:d8:2b:d7:f5:26:6c:c9:06:34:96:
         16:ea:70:59:1a:32:79:79:0b:b6:88:7f:0f:52:48:3d:bf:6c:
         d8:a2:44:2e:d1:4e:b7:72:58:d3:89:13:95:fe:44:ab:f8:d7:
         8b:1b:6e:9c:bc:2c:a0:5b:d5:6a:00:af:5f:37:e1:d5:fa:10:
         0b:98:9c:86:e7:26:8f:ce:f0:ec:6e:8a:57:0b:80:e3:4e:b2:
         c0:a0:63:61:90:ba:55:68:37:74:6a:b6:92:db:9f:a1:86:22:
         b6:65:27:0e:ec:b6:9f:42:60:e4:67:c2:b5:da:41:0b:c4:d3:
         8b:61:1b:bc:fa:1f:91:2b:d7:44:07:5e:ba:29:ac:d9:c5:e9:
         ef:53:48:5a:eb:80:f1:28:58:21:cd:b0:06:55:fb:27:3f:53:
         90:70:a9:04:1e:57:27:b9
-----BEGIN CERTIFICATE-----
MIIF3TCCA8WgAwIBAgIIeyyb0xaAMpkwDQYJKoZIhvcNAQELBQAwfDELMAkGA1UE
BhMCVVMxDjAMBgNVBAgMBVRleGFzMRAwDgYDVQQHDAdIb3VzdG9uMRgwFgYDVQQK
DA9TU0wgQ29ycG9yYXRpb24xMTAvBgNVBAMMKFNTTC5jb20gUm9vdCBDZXJ0aWZp
Y2F0aW9uIEF1dGhvcml0eSBSU0EwHhcNMTYwMjEyMTczOTM5WhcNNDEwMjEyMTcz
OTM5WjB8MQswCQYDVQQGEwJVUzEOMAwGA1UECAwFVGV4YXMxEDAOBgNVBAcMB0hv
dXN0b24xGDAWBgNVBAoMD1NTTCBDb3Jwb3JhdGlvbjExMC8GA1UEAwwoU1NMLmNv
bSBSb290IENlcnRpZmljYXRpb24gQXV0aG9yaXR5IFJTQTCCAiIwDQYJKoZIhvcN
AQEBBQADggIPADCCAgoCggIBAPkP3aMrfcvQKv7sZ4Wm5y4bunfh4/WvpOz6Sl2R
xFdHaxh3a3by/ZPkPQ/CFp4LZsNWlJ4Xg4XOVu/yFv0AYvUiCVToZRdOQbngT0aX
qhvIuG5iXmmxX9sqAn78bMrzQdjt0Oj8P2FI7bADFB0QDksZ4LtO7IZl/zbzXmcC
C52GVWH9ejjt/uIZALdvoVBidXQ8oPrIJZK0bnoix/geoeOy3ZExqysdBP+lSgQ3
6YWkMyv94tZVNHwZpEpox7Ko07fKoZOI68GXvIz5HdkihCR0xwQ9aqkpk8zruFvh
/l8lqjRYyMEjVJ0bmBHDOJx+PYZspQ9AhnwC9FwCTyjLrnGfDzrIM/4RJTXq/LrF
YD3ZfBjVsqnTdXgDciLKOsMf7yzlLqn6niy2UUb9rwPW6mBo6oUWNmuF6R7As93E
JNyAKoFBbZQ+yODJgUEAnl6/f8UImKIYLEJAs/lvOCdLToD0PYFH4Ih86hzOtXVc
US4cK38acijnALXRdMbX5J+tB5O2UzU1/Dfkw/ZdFr4hc96SCvigY2q8lpJqPvi8
ZVWb3vUNiSYE/CUapiVpy8JtynziWV+XrOvvLsi81xtZPCvM8hnIk2snYxnP/Okm
+Mpxm3+T/jRnhE6Z6/yzeAkzcLpmpnbtG3PrGqUNxCITIJRWCk4sbE6x/c+cCbqi
M+2HAgMBAAGjYzBhMB0GA1UdDgQWBBTdBAkHovV6fVJTEpKV7jiAJQ2mWTAPBgNV
HRMBAf8EBTADAQH/MB8GA1UdIwQYMBaAFN0ECQei9Xp9UlMSkpXuOIAlDaZZMA4G
A1UdDwEB/wQEAwIBhjANBgkqhkiG9w0BAQsFAAOCAgEAIBgRlCn7Jp0cHh5wYfGV
cpNxJK1ok1iOMq8bs3AD/CUrdIWQPXhq9LmLpZc7tRiRux6n+UBbkflVma8eEdBc
Hadm47GUBwwyOabqG7B52B2ccETjit3E+ZUfijhDPwGFpUenPUayvOUiaPd7nNgs
PgohyC0zrL/FgZkxdMF1ccW+sfAjRfSda/wZY52jvATGGAslu1OJD7OAUN5F7kR/
q5R4ZJjT9ijdh9hwZXT7DrkT66cPYakylszeu+1jTBi7qUD3oFRuIIhxdRjqerQ0
cuAjJ3dctpDqhiVAq+8zD8ufgr6iIPv2tS0a5sKFsXQP+8hlAqRSAUfdSSLBv9jr
a6x+3uxjMxW3IwiPxg+NQVrdjsW5j+VFP3jbutIbQLH+cU0/4IGiul607BXgk90I
H37hVZkLId6Tngr75qNJvTYw/ud3sqB1l7UtgYgXZSD32pAAn8lSzDLKNXz1PQ/Y
K9f1JmzJBjSWFupwWRoyeXkLtoh/D1JIPb9s2KJELtFOt3JY04kTlf5Eq/jXixtu
nLwsoFvVagCvXzfh1foQC5ichucmj87w7G6KVwuA406ywKBjYZC6VWg3dGq2ktuf
oYYitmUnDuy2n0Jg5GfCtdpBC8TTi2EbvPofkSvXRAdeuims2cXp71NIWuuA8ShY
Ic2wBlX7Jz9TkHCpBB5XJ7k=
-----END CERTIFICATE-----
