Certificate:
    Data:
        Version: 3 (0x2)
        Serial Number:
            2e:f5:9b:02:28:a7:db:7a:ff:d5:a3:a9:ee:bd:03:a0:cf:12:6a:1d
        Signature Algorithm: sha256WithRSAEncryption
        Issuer: C = BM, O = QuoVadis Limited, CN = QuoVadis Root CA 3 G3
        Validity
            Not Before: Jan 12 20:26:32 2012 GMT
            Not After : Jan 12 20:26:32 2042 GMT
        Subject: C = BM, O = QuoVadis Limited, CN = QuoVadis Root CA 3 G3
        Subject Public Key Info:
            Public Key Algorithm: rsaEncryption
                RSA Public-Key: (4096 bit)
                Modulus:
                    00:b3:cb:0e:10:67:8e:ea:14:97:a7:32:2a:0a:56:
                    36:7f:68:4c:c7:b3:6f:3a:23:14:91:ff:19:7f:a5:
                    ca:ac:ee:b3:76:9d:7a:e9:8b:1b:ab:6b:31:db:fa:
                    0b:53:4c:af:c5:a5:1a:79:3c:8a:4c:ff:ac:df:25:
                    de:4e:d9:82:32:0b:44:de:ca:db:8c:ac:a3:6e:16:
                    83:3b:a6:64:4b:32:89:fb:16:16:38:7e:eb:43:e2:
                    d3:74:4a:c2:62:0a:73:0a:dd:49:b3:57:d2:b0:0a:
                    85:9d:71:3c:de:a3:cb:c0:32:f3:01:39:20:43:1b:
                    35:d1:53:b3:b1:ee:c5:93:69:82:3e:16:b5:28:46:
                    a1:de:ea:89:09:ed:43:b8:05:46:8a:86:f5:59:47:
                    be:1b:6f:01:21:10:b9:fd:a9:d2:28:ca:10:39:09:
                    ca:13:36:cf:9c:ad:ad:40:74:79:2b:02:3f:34:ff:
                    fa:20:69:7d:d3:ee:61:f5:ba:b3:e7:30:d0:37:23:
                    86:72:61:45:29:48:59:68:6f:77:a6:2e:81:be:07:
                    4d:6f:af:ce:c4:45:13:91:14:70:06:8f:1f:9f:f8:
                    87:69:b1:0e:ef:c3:89:19:eb:ea:1c:61:fc:7a:6c:
                    8a:dc:d6:03:0b:9e:26:ba:12:dd:d4:54:39:ab:26:
                    a3:33:ea:75:81:da:2d:cd:0f:4f:e4:03:d1:ef:15:
                    97:1b:6b:90:c5:02:90:93:66:02:21:b1:47:de:8b:
                    9a:4a:80:b9:55:8f:b5:a2:2f:c0:d6:33:67:da:7e:
                    c4:a7:b4:04:44:eb:47:fb:e6:58:b9:f7:0c:f0:7b:
                    2b:b1:c0:70:29:c3:40:62:2d:3b:48:69:dc:23:3c:
                    48:eb:7b:09:79:a9:6d:da:a8:30:98:cf:80:72:03:
                    88:a6:5b:46:ae:72:79:7c:08:03:21:65:ae:b7:e1:
                    1c:a5:b1:2a:a2:31:de:66:04:f7:c0:74:e8:71:de:
                    ff:3d:59:cc:96:26:12:8b:85:95:57:1a:ab:6b:75:
                    0b:44:3d:11:28:3c:7b:61:b7:e2:8f:67:4f:e5:ec:
                    3c:4c:60:80:69:57:38:1e:01:5b:8d:55:e8:c7:df:
                    c0:cc:77:23:34:49:75:7c:f6:98:11:eb:2d:de:ed:
                    41:2e:14:05:02:7f:e0:fe:20:eb:35:e7:11:ac:22:
                    ce:57:3d:de:c9:30:6d:10:03:85:cd:f1:ff:8c:16:
                    b5:c1:b2:3e:88:6c:60:7f:90:4f:95:f7:f6:2d:ad:
                    01:39:07:04:fa:75:80:7d:bf:49:50:ed:ef:c9:c4:
                    7c:1c:eb:80:7e:db:b6:d0:dd:13:fe:c9:d3:9c:d7:
                    b2:97:a9
                Exponent: 65537 (0x10001)
        X509v3 extensions:
            X509v3 Basic Constraints: critical
                CA:TRUE
            X509v3 Key Usage: critical
                Certificate Sign, CRL Sign
            X509v3 Subject Key Identifier: 
                C6:17:D0:BC:A8:EA:02:43:F2:1B:06:99:5D:2B:90:20:B9:D7:9C:E4
    Signature Algorithm: sha256WithRSAEncryption
         34:61:d9:56:b5:12:87:55:4d:dd:a3:35:31:46:bb:a4:07:72:
         bc:5f:61:62:e8:a5:fb:0b:37:b1:3c:b6:b3:fa:29:9d:7f:02:
         f5:a4:c9:a8:93:b7:7a:71:28:69:8f:73:e1:52:90:da:d5:be:
         3a:e5:b7:76:6a:56:80:21:df:5d:e6:e9:3a:9e:e5:3e:f6:a2:
         69:c7:2a:0a:b0:18:47:dc:20:70:7d:52:a3:3e:59:7c:c1:ba:
         c9:c8:15:40:61:ca:72:d6:70:ac:d2:b7:f0:1c:e4:86:29:f0:
         ce:ef:68:63:d0:b5:20:8a:15:61:9a:7e:86:98:b4:c9:c2:76:
         fb:cc:ba:30:16:cc:a3:61:c6:74:13:e5:6b:ef:a3:15:ea:03:
         fe:13:8b:64:e4:d3:c1:d2:e8:84:fb:49:d1:10:4d:79:66:eb:
         aa:fd:f4:8d:31:1e:70:14:ad:dc:de:67:13:4c:81:15:61:bc:
         b7:d9:91:77:71:19:81:60:bb:f0:58:a5:b5:9c:0b:f7:8f:22:
         55:27:c0:4b:01:6d:3b:99:0d:d4:1d:9b:63:67:2f:d0:ee:0d:
         ca:66:bc:94:4f:a6:ad:ed:fc:ee:63:ac:57:3f:65:25:cf:b2:
         86:8f:d0:08:ff:b8:76:14:6e:de:e5:27:ec:ab:78:b5:53:b9:
         b6:3f:e8:20:f9:d2:a8:be:61:46:ca:87:8c:84:f3:f9:f1:a0:
         68:9b:22:1e:81:26:9b:10:04:91:71:c0:06:1f:dc:a0:d3:b9:
         56:a7:e3:98:2d:7f:83:9d:df:8c:2b:9c:32:8e:32:94:f0:01:
         3c:22:2a:9f:43:c2:2e:c3:98:39:07:38:7b:fc:5e:00:42:1f:
         f3:32:26:79:83:84:f6:e5:f0:c1:51:12:c0:0b:1e:04:23:0c:
         54:a5:4c:2f:49:c5:4a:d1:b6:6e:60:0d:6b:fc:6b:8b:85:24:
         64:b7:89:0e:ab:25:47:5b:3c:cf:7e:49:bd:c7:e9:0a:c6:da:
         f7:7e:0e:17:08:d3:48:97:d0:71:92:f0:0f:39:3e:34:6a:1c:
         7d:d8:f2:22:ae:bb:69:f4:33:b4:a6:48:55:d1:0f:0e:26:e8:
         ec:b6:0b:2d:a7:85:35:cd:fd:59:c8:9f:d1:cd:3e:5a:29:34:
         b9:3d:84:ce:b1:65:d4:59:91:91:56:75:21:c1:77:9e:f9:7a:
         e1:60:9d:d3:ad:04:18:f4:7c:eb:5e:93:8f:53:4a:22:29:f8:
         48:2b:3e:4d:86:ac:5b:7f:cb:06:99:59:60:d8:58:65:95:8d:
         44:d1:f7:7f:7e:27:7f:7d:ae:80:f5:07:4c:b6:3e:9c:71:54:
         99:04:4b:fd:58:f9:98:f4
-----BEGIN CERTIFICATE-----
MIIFYDCCA0igAwIBAgIULvWbAiin23r/1aOp7r0DoM8Sah0wDQYJKoZIhvcNAQEL
BQAwSDELMAkGA1UEBhMCQk0xGTAXBgNVBAoTEFF1b1ZhZGlzIExpbWl0ZWQxHjAc
BgNVBAMTFVF1b1ZhZGlzIFJvb3QgQ0EgMyBHMzAeFw0xMjAxMTIyMDI2MzJaFw00
MjAxMTIyMDI2MzJaMEgxCzAJBgNVBAYTAkJNMRkwFwYDVQQKExBRdW9WYWRpcyBM
aW1pdGVkMR4wHAYDVQQDExVRdW9WYWRpcyBSb290IENBIDMgRzMwggIiMA0GCSqG
SIb3DQEBAQUAA4ICDwAwggIKAoICAQCzyw4QZ47qFJenMioKVjZ/aEzHs286IxSR
/xl/pcqs7rN2nXrpixurazHb+gtTTK/FpRp5PIpM/6zfJd5O2YIyC0TeytuMrKNu
FoM7pmRLMon7FhY4futD4tN0SsJiCnMK3UmzV9KwCoWdcTzeo8vAMvMBOSBDGzXR
U7Ox7sWTaYI+FrUoRqHe6okJ7UO4BUaKhvVZR74bbwEhELn9qdIoyhA5CcoTNs+c
ra1AdHkrAj80//ogaX3T7mH1urPnMNA3I4ZyYUUpSFlob3emLoG+B01vr87ERROR
FHAGjx+f+IdpsQ7vw4kZ6+ocYfx6bIrc1gMLnia6Et3UVDmrJqMz6nWB2i3ND0/k
A9HvFZcba5DFApCTZgIhsUfei5pKgLlVj7WiL8DWM2fafsSntARE60f75li59wzw
eyuxwHApw0BiLTtIadwjPEjrewl5qW3aqDCYz4ByA4imW0aucnl8CAMhZa634Ryl
sSqiMd5mBPfAdOhx3v89WcyWJhKLhZVXGqtrdQtEPREoPHtht+KPZ0/l7DxMYIBp
VzgeAVuNVejH38DMdyM0SXV89pgR6y3e7UEuFAUCf+D+IOs15xGsIs5XPd7JMG0Q
A4XN8f+MFrXBsj6IbGB/kE+V9/YtrQE5BwT6dYB9v0lQ7e/JxHwc64B+27bQ3RP+
ydOc17KXqQIDAQABo0IwQDAPBgNVHRMBAf8EBTADAQH/MA4GA1UdDwEB/wQEAwIB
BjAdBgNVHQ4EFgQUxhfQvKjqAkPyGwaZXSuQILnXnOQwDQYJKoZIhvcNAQELBQAD
ggIBADRh2Va1EodVTd2jNTFGu6QHcrxfYWLopfsLN7E8trP6KZ1/AvWkyaiTt3px
KGmPc+FSkNrVvjrlt3ZqVoAh313m6Tqe5T72omnHKgqwGEfcIHB9UqM+WXzBusnI
FUBhynLWcKzSt/Ac5IYp8M7vaGPQtSCKFWGafoaYtMnCdvvMujAWzKNhxnQT5Wvv
oxXqA/4Ti2Tk08HS6IT7SdEQTXlm66r99I0xHnAUrdzeZxNMgRVhvLfZkXdxGYFg
u/BYpbWcC/ePIlUnwEsBbTuZDdQdm2NnL9DuDcpmvJRPpq3t/O5jrFc/ZSXPsoaP
0Aj/uHYUbt7lJ+yreLVTubY/6CD50qi+YUbKh4yE8/nxoGibIh6BJpsQBJFxwAYf
3KDTuVan45gtf4Od34wrnDKOMpTwATwiKp9Dwi7DmDkHOHv8XgBCH/MyJnmDhPbl
8MFREsALHgQjDFSlTC9JxUrRtm5gDWv8a4uFJGS3iQ6rJUdbPM9+Sb3H6QrG2vd+
DhcI00iX0HGS8A85PjRqHH3Y8iKuu2n0M7SmSFXRDw4m6Oy2Cy2nhTXN/VnIn9HN
PlopNLk9hM6xZdRZkZFWdSHBd575euFgndOtBBj0fOtek49TSiIp+EgrPk2GrFt/
ywaZWWDYWGWVjUTR939+J399roD1B0y2PpxxVJkES/1Y+Zj0
-----END CERTIFICATE-----
