Certificate:
    Data:
        Version: 3 (0x2)
        Serial Number:
            0d:6a:5f:08:3f:28:5c:3e:51:95:df:5d
        Signature Algorithm: ecdsa-with-SHA256
        Issuer: C = US, ST = Illinois, L = Chicago, O = "Trustwave Holdings, Inc.", CN = Trustwave Global ECC P256 Certification Authority
        Validity
            Not Before: Aug 23 19:35:10 2017 GMT
            Not After : Aug 23 19:35:10 2042 GMT
        Subject: C = US, ST = Illinois, L = Chicago, O = "Trustwave Holdings, Inc.", CN = Trustwave Global ECC P256 Certification Authority
        Subject Public Key Info:
            Public Key Algorithm: id-ecPublicKey
                Public-Key: (256 bit)
                pub:
                    04:7e:fb:6c:e6:23:e3:73:32:08:ca:60:e6:53:9c:
                    ba:74:8d:18:b0:78:90:52:80:dd:38:c0:4a:1d:d1:
                    a8:cc:93:a4:97:06:38:ca:0d:15:62:c6:8e:01:2a:
                    65:9d:aa:df:34:91:2e:81:c1:e4:33:92:31:c4:fd:
                    09:3a:a6:3f:ad
                ASN1 OID: prime256v1
                NIST CURVE: P-256
        X509v3 extensions:
            X509v3 Basic Constraints: critical
                CA:TRUE
            X509v3 Key Usage: critical
                Certificate Sign, CRL Sign
            X509v3 Subject Key Identifier: 
                A3:41:06:AC:90:6D:D1:4A:EB:75:A5:4A:10:99:B3:B1:A1:8B:4A:F7
    Signature Algorithm: ecdsa-with-SHA256
         30:44:02:20:07:e6:54:da:0e:a0:5a:b2:ae:11:9f:87:c5:b6:
         ff:69:de:25:be:f8:a0:b7:08:f3:44:ce:2a:df:08:21:0c:37:
         02:20:2d:26:03:a0:05:bd:6b:d1:f6:5c:f8:65:cc:86:6d:b3:
         9c:34:48:63:84:09:c5:8d:77:1a:e2:cc:9c:e1:74:7b
-----BEGIN CERTIFICATE-----
MIICYDCCAgegAwIBAgIMDWpfCD8oXD5Rld9dMAoGCCqGSM49BAMCMIGRMQswCQYD
VQQGEwJVUzERMA8GA1UECBMISWxsaW5vaXMxEDAOBgNVBAcTB0NoaWNhZ28xITAf
BgNVBAoTGFRydXN0d2F2ZSBIb2xkaW5ncywgSW5jLjE6MDgGA1UEAxMxVHJ1c3R3
YXZlIEdsb2JhbCBFQ0MgUDI1NiBDZXJ0aWZpY2F0aW9uIEF1dGhvcml0eTAeFw0x
NzA4MjMxOTM1MTBaFw00MjA4MjMxOTM1MTBaMIGRMQswCQYDVQQGEwJVUzERMA8G
A1UECBMISWxsaW5vaXMxEDAOBgNVBAcTB0NoaWNhZ28xITAfBgNVBAoTGFRydXN0
d2F2ZSBIb2xkaW5ncywgSW5jLjE6MDgGA1UEAxMxVHJ1c3R3YXZlIEdsb2JhbCBF
Q0MgUDI1NiBDZXJ0aWZpY2F0aW9uIEF1dGhvcml0eTBZMBMGByqGSM49AgEGCCqG
SM49AwEHA0IABH77bOYj43MyCMpg5lOcunSNGLB4kFKA3TjASh3RqMyTpJcGOMoN
FWLGjgEqZZ2q3zSRLoHB5DOSMcT9CTqmP62jQzBBMA8GA1UdEwEB/wQFMAMBAf8w
DwYDVR0PAQH/BAUDAwcGADAdBgNVHQ4EFgQUo0EGrJBt0UrrdaVKEJmzsaGLSvcw
CgYIKoZIzj0EAwIDRwAwRAIgB+ZU2g6gWrKuEZ+Hxbb/ad4lvvigtwjzRM4q3wgh
DDcCIC0mA6AFvWvR9lz4ZcyGbbOcNEhjhAnFjXca4syc4XR7
-----END CERTIFICATE-----
