Certificate:
    Data:
        Version: 3 (0x2)
        Serial Number: 985026699 (0x3ab6508b)
        Signature Algorithm: sha1WithRSAEncryption
        Issuer: C = BM, O = QuoVadis Limited, OU = Root Certification Authority, CN = QuoVadis Root Certification Authority
        Validity
            Not Before: Mar 19 18:33:33 2001 GMT
            Not After : Mar 17 18:33:33 2021 GMT
        Subject: C = BM, O = QuoVadis Limited, OU = Root Certification Authority, CN = QuoVadis Root Certification Authority
        Subject Public Key Info:
            Public Key Algorithm: rsaEncryption
                RSA Public-Key: (2048 bit)
                Modulus:
                    00:bf:61:b5:95:53:ba:57:fc:fa:f2:67:0b:3a:1a:
                    df:11:80:64:95:b4:d1:bc:cd:7a:cf:f6:29:96:2e:
                    24:54:40:24:38:f7:1a:85:dc:58:4c:cb:a4:27:42:
                    97:d0:9f:83:8a:c3:e4:06:03:5b:00:a5:51:1e:70:
                    04:74:e2:c1:d4:3a:ab:d7:ad:3b:07:18:05:8e:fd:
                    83:ac:ea:66:d9:18:1b:68:8a:f5:57:1a:98:ba:f5:
                    ed:76:3d:7c:d9:de:94:6a:3b:4b:17:c1:d5:8f:bd:
                    65:38:3a:95:d0:3d:55:36:4e:df:79:57:31:2a:1e:
                    d8:59:65:49:58:20:98:7e:ab:5f:7e:9f:e9:d6:4d:
                    ec:83:74:a9:c7:6c:d8:ee:29:4a:85:2a:06:14:f9:
                    54:e6:d3:da:65:07:8b:63:37:12:d7:d0:ec:c3:7b:
                    20:41:44:a3:ed:cb:a0:17:e1:71:65:ce:1d:66:31:
                    f7:76:01:19:c8:7d:03:58:b6:95:49:1d:a6:12:26:
                    e8:c6:0c:76:e0:e3:66:cb:ea:5d:a6:26:ee:e5:cc:
                    5f:bd:67:a7:01:27:0e:a2:ca:54:c5:b1:7a:95:1d:
                    71:1e:4a:29:8a:03:dc:6a:45:c1:a4:19:5e:6f:36:
                    cd:c3:a2:b0:b7:fe:5c:38:e2:52:bc:f8:44:43:e6:
                    90:bb
                Exponent: 65537 (0x10001)
        X509v3 extensions:
            Authority Information Access: 
                OCSP - URI:https://ocsp.quovadisoffshore.com

            X509v3 Basic Constraints: critical
                CA:TRUE
            X509v3 Certificate Policies: 
                Policy: 1.3.6.1.4.1.8024.0.1
                  User Notice:
                    Explicit Text: Reliance on the QuoVadis Root Certificate by any party assumes acceptance of the then applicable standard terms and conditions of use, certification practices, and the QuoVadis Certificate Policy.
                  CPS: http://www.quovadis.bm

            X509v3 Subject Key Identifier: 
                8B:4B:6D:ED:D3:29:B9:06:19:EC:39:39:A9:F0:97:84:6A:CB:EF:DF
            X509v3 Authority Key Identifier: 
                keyid:8B:4B:6D:ED:D3:29:B9:06:19:EC:39:39:A9:F0:97:84:6A:CB:EF:DF
                DirName:/C=BM/O=QuoVadis Limited/OU=Root Certification Authority/CN=QuoVadis Root Certification Authority
                serial:3A:B6:50:8B

            X509v3 Key Usage: critical
                Certificate Sign, CRL Sign
    Signature Algorithm: sha1WithRSAEncryption
         8a:d4:14:b5:fe:f4:9a:92:a7:19:d4:a4:7e:72:18:8f:d9:68:
         7c:52:24:dd:67:6f:39:7a:c4:aa:5e:3d:e2:58:b0:4d:70:98:
         84:61:e8:1b:e3:69:18:0e:ce:fb:47:50:a0:4e:ff:f0:24:1f:
         bd:b2:ce:f5:27:fc:ec:2f:53:aa:73:7b:03:3d:74:6e:e6:16:
         9e:eb:a5:2e:c4:bf:56:27:50:2b:62:ba:be:4b:1c:3c:55:5c:
         41:1d:24:be:82:20:47:5d:d5:44:7e:7a:16:68:df:7d:4d:51:
         70:78:57:1d:33:1e:fd:02:99:9c:0c:cd:0a:05:4f:c7:bb:8e:
         a4:75:fa:4a:6d:b1:80:8e:09:56:b9:9c:1a:60:fe:5d:c1:d7:
         7a:dc:11:78:d0:d6:5d:c1:b7:d5:ad:32:99:03:3a:8a:cc:54:
         25:39:31:81:7b:13:22:51:ba:46:6c:a1:bb:9e:fa:04:6c:49:
         26:74:8f:d2:73:eb:cc:30:a2:e6:ea:59:22:87:f8:97:f5:0e:
         fd:ea:cc:92:a4:16:c4:52:18:ea:21:ce:b1:f1:e6:84:81:e5:
         ba:a9:86:28:f2:43:5a:5d:12:9d:ac:1e:d9:a8:e5:0a:6a:a7:
         7f:a0:87:29:cf:f2:89:4d:d4:ec:c5:e2:e6:7a:d0:36:23:8a:
         4a:74:36:f9
-----BEGIN CERTIFICATE-----
MIIF0DCCBLigAwIBAgIEOrZQizANBgkqhkiG9w0BAQUFADB/MQswCQYDVQQGEwJC
TTEZMBcGA1UEChMQUXVvVmFkaXMgTGltaXRlZDElMCMGA1UECxMcUm9vdCBDZXJ0
aWZpY2F0aW9uIEF1dGhvcml0eTEuMCwGA1UEAxMlUXVvVmFkaXMgUm9vdCBDZXJ0
aWZpY2F0aW9uIEF1dGhvcml0eTAeFw0wMTAzMTkxODMzMzNaFw0yMTAzMTcxODMz
MzNaMH8xCzAJBgNVBAYTAkJNMRkwFwYDVQQKExBRdW9WYWRpcyBMaW1pdGVkMSUw
IwYDVQQLExxSb290IENlcnRpZmljYXRpb24gQXV0aG9yaXR5MS4wLAYDVQQDEyVR
dW9WYWRpcyBSb290IENlcnRpZmljYXRpb24gQXV0aG9yaXR5MIIBIjANBgkqhkiG
9w0BAQEFAAOCAQ8AMIIBCgKCAQEAv2G1lVO6V/z68mcLOhrfEYBklbTRvM16z/Yp
li4kVEAkOPcahdxYTMukJ0KX0J+DisPkBgNbAKVRHnAEdOLB1Dqr1607BxgFjv2D
rOpm2RgbaIr1VxqYuvXtdj182d6UajtLF8HVj71lODqV0D1VNk7feVcxKh7YWWVJ
WCCYfqtffp/p1k3sg3Spx2zY7ilKhSoGFPlU5tPaZQeLYzcS19Dsw3sgQUSj7cug
F+FxZc4dZjH3dgEZyH0DWLaVSR2mEiboxgx24ONmy+pdpibu5cxfvWenAScOospU
xbF6lR1xHkopigPcakXBpBlebzbNw6Kwt/5cOOJSvPhEQ+aQuwIDAQABo4ICUjCC
Ak4wPQYIKwYBBQUHAQEEMTAvMC0GCCsGAQUFBzABhiFodHRwczovL29jc3AucXVv
dmFkaXNvZmZzaG9yZS5jb20wDwYDVR0TAQH/BAUwAwEB/zCCARoGA1UdIASCAREw
ggENMIIBCQYJKwYBBAG+WAABMIH7MIHUBggrBgEFBQcCAjCBxxqBxFJlbGlhbmNl
IG9uIHRoZSBRdW9WYWRpcyBSb290IENlcnRpZmljYXRlIGJ5IGFueSBwYXJ0eSBh
c3N1bWVzIGFjY2VwdGFuY2Ugb2YgdGhlIHRoZW4gYXBwbGljYWJsZSBzdGFuZGFy
ZCB0ZXJtcyBhbmQgY29uZGl0aW9ucyBvZiB1c2UsIGNlcnRpZmljYXRpb24gcHJh
Y3RpY2VzLCBhbmQgdGhlIFF1b1ZhZGlzIENlcnRpZmljYXRlIFBvbGljeS4wIgYI
KwYBBQUHAgEWFmh0dHA6Ly93d3cucXVvdmFkaXMuYm0wHQYDVR0OBBYEFItLbe3T
KbkGGew5Oanwl4Rqy+/fMIGuBgNVHSMEgaYwgaOAFItLbe3TKbkGGew5Oanwl4Rq
y+/foYGEpIGBMH8xCzAJBgNVBAYTAkJNMRkwFwYDVQQKExBRdW9WYWRpcyBMaW1p
dGVkMSUwIwYDVQQLExxSb290IENlcnRpZmljYXRpb24gQXV0aG9yaXR5MS4wLAYD
VQQDEyVRdW9WYWRpcyBSb290IENlcnRpZmljYXRpb24gQXV0aG9yaXR5ggQ6tlCL
MA4GA1UdDwEB/wQEAwIBBjANBgkqhkiG9w0BAQUFAAOCAQEAitQUtf70mpKnGdSk
fnIYj9lofFIk3WdvOXrEql494liwTXCYhGHoG+NpGA7O+0dQoE7/8CQfvbLO9Sf8
7C9TqnN7Az10buYWnuulLsS/VidQK2K6vkscPFVcQR0kvoIgR13VRH56FmjffU1R
cHhXHTMe/QKZnAzNCgVPx7uOpHX6Sm2xgI4JVrmcGmD+XcHXetwReNDWXcG31a0y
mQM6isxUJTkxgXsTIlG6Rmyhu576BGxJJnSP0nPrzDCi5upZIof4l/UO/erMkqQW
xFIY6iHOsfHmhIHluqmGKPJDWl0Snawe2ajlCmqnf6CHKc/yiU3U7MXi5nrQNiOK
SnQ2+Q==
-----END CERTIFICATE-----
