Certificate:
    Data:
        Version: 3 (0x2)
        Serial Number:
            01:54:48:ef:21:fd:97:59:0d:f5:04:0a
        Signature Algorithm: ecdsa-with-SHA256
        Issuer: C = HU, L = Budapest, O = Microsec Ltd., organizationIdentifier = VATHU-23584497, CN = e-Szigno Root CA 2017
        Validity
            Not Before: Aug 22 12:07:06 2017 GMT
            Not After : Aug 22 12:07:06 2042 GMT
        Subject: C = HU, L = Budapest, O = Microsec Ltd., organizationIdentifier = VATHU-23584497, CN = e-Szigno Root CA 2017
        Subject Public Key Info:
            Public Key Algorithm: id-ecPublicKey
                Public-Key: (256 bit)
                pub:
                    04:96:dc:3d:8a:d8:b0:7b:6f:c6:27:be:44:90:b1:
                    b3:56:15:7b:8e:43:24:7d:1a:84:59:ee:63:68:b2:
                    c6:5e:87:d0:15:48:1e:a8:90:ad:bd:53:a2:da:de:
                    3a:90:a6:60:5f:68:32:b5:86:41:df:87:5b:2c:7b:
                    c5:fe:7c:7a:da
                ASN1 OID: prime256v1
                NIST CURVE: P-256
        X509v3 extensions:
            X509v3 Basic Constraints: critical
                CA:TRUE
            X509v3 Key Usage: critical
                Certificate Sign, CRL Sign
            X509v3 Subject Key Identifier: 
                87:11:15:08:D1:AA:C1:78:0C:B1:AF:CE:C6:C9:90:EF:BF:30:04:C0
            X509v3 Authority Key Identifier: 
                keyid:87:11:15:08:D1:AA:C1:78:0C:B1:AF:CE:C6:C9:90:EF:BF:30:04:C0

    Signature Algorithm: ecdsa-with-SHA256
         30:46:02:21:00:b5:57:dd:d7:8a:55:0b:36:e1:86:44:fa:d4:
         d9:68:8d:b8:dc:23:8a:8a:0d:d4:2f:7d:ea:73:ec:bf:4d:6c:
         a8:02:21:00:cb:a5:b4:12:fa:e7:b5:e8:cf:7e:93:fc:f3:35:
         8f:6f:4e:5a:7c:b4:bc:4e:b2:fc:72:aa:5b:59:f9:e7:dc:31
-----BEGIN CERTIFICATE-----
MIICQDCCAeWgAwIBAgIMAVRI7yH9l1kN9QQKMAoGCCqGSM49BAMCMHExCzAJBgNV
BAYTAkhVMREwDwYDVQQHDAhCdWRhcGVzdDEWMBQGA1UECgwNTWljcm9zZWMgTHRk
LjEXMBUGA1UEYQwOVkFUSFUtMjM1ODQ0OTcxHjAcBgNVBAMMFWUtU3ppZ25vIFJv
b3QgQ0EgMjAxNzAeFw0xNzA4MjIxMjA3MDZaFw00MjA4MjIxMjA3MDZaMHExCzAJ
BgNVBAYTAkhVMREwDwYDVQQHDAhCdWRhcGVzdDEWMBQGA1UECgwNTWljcm9zZWMg
THRkLjEXMBUGA1UEYQwOVkFUSFUtMjM1ODQ0OTcxHjAcBgNVBAMMFWUtU3ppZ25v
IFJvb3QgQ0EgMjAxNzBZMBMGByqGSM49AgEGCCqGSM49AwEHA0IABJbcPYrYsHtv
xie+RJCxs1YVe45DJH0ahFnuY2iyxl6H0BVIHqiQrb1TotreOpCmYF9oMrWGQd+H
Wyx7xf58etqjYzBhMA8GA1UdEwEB/wQFMAMBAf8wDgYDVR0PAQH/BAQDAgEGMB0G
A1UdDgQWBBSHERUI0arBeAyxr87GyZDvvzAEwDAfBgNVHSMEGDAWgBSHERUI0arB
eAyxr87GyZDvvzAEwDAKBggqhkjOPQQDAgNJADBGAiEAtVfd14pVCzbhhkT61Nlo
jbjcI4qKDdQvfepz7L9NbKgCIQDLpbQS+ue16M9+k/zzNY9vTlp8tLxOsvxyqltZ
+efcMQ==
-----END CERTIFICATE-----
