Certificate:
    Data:
        Version: 3 (0x2)
        Serial Number:
            4f:d2:2b:8f:f5:64:c8:33:9e:4f:34:58:66:23:70:60
        Signature Algorithm: sha256WithRSAEncryption
        Issuer: C = CN, O = UniTrust, CN = UCA Extended Validation Root
        Validity
            Not Before: Mar 13 00:00:00 2015 GMT
            Not After : Dec 31 00:00:00 2038 GMT
        Subject: C = CN, O = UniTrust, CN = UCA Extended Validation Root
        Subject Public Key Info:
            Public Key Algorithm: rsaEncryption
                RSA Public-Key: (4096 bit)
                Modulus:
                    00:a9:09:07:28:13:02:b0:99:e0:64:aa:1e:43:16:
                    7a:73:b1:91:a0:75:3e:a8:fa:e3:38:00:7a:ec:89:
                    6a:20:0f:8b:c5:b0:9b:33:03:5a:86:c6:58:86:d5:
                    c1:85:bb:4f:c6:9c:40:4d:ca:be:ee:69:96:b8:ad:
                    81:30:9a:7c:92:05:eb:05:2b:9a:48:d0:b8:76:3e:
                    96:c8:20:bb:d2:b0:f1:8f:d8:ac:45:46:ff:aa:67:
                    60:b4:77:7e:6a:1f:3c:1a:52:7a:04:3d:07:3c:85:
                    0d:84:d0:1f:76:0a:f7:6a:14:df:72:e3:34:7c:57:
                    4e:56:01:3e:79:f1:aa:29:3b:6c:fa:f8:8f:6d:4d:
                    c8:35:df:ae:eb:dc:24:ee:79:45:a7:85:b6:05:88:
                    de:88:5d:25:7c:97:64:67:09:d9:bf:5a:15:05:86:
                    f3:09:1e:ec:58:32:33:11:f3:77:64:b0:76:1f:e4:
                    10:35:17:1b:f2:0e:b1:6c:a4:2a:a3:73:fc:09:1f:
                    1e:32:19:53:11:e7:d9:b3:2c:2e:76:2e:a1:a3:de:
                    7e:6a:88:09:e8:f2:07:8a:f8:b2:cd:10:e7:e2:73:
                    40:93:bb:08:d1:3f:e1:fc:0b:94:b3:25:ef:7c:a6:
                    d7:d1:af:9f:ff:96:9a:f5:91:7b:98:0b:77:d4:7e:
                    e8:07:d2:62:b5:95:39:e3:f3:f1:6d:0f:0e:65:84:
                    8a:63:54:c5:80:b6:e0:9e:4b:7d:47:26:a7:01:08:
                    5d:d1:88:9e:d7:c3:32:44:fa:82:4a:0a:68:54:7f:
                    38:53:03:cc:a4:00:33:64:51:59:0b:a3:82:91:7a:
                    5e:ec:16:c2:f3:2a:e6:62:da:2a:db:59:62:10:25:
                    4a:2a:81:0b:47:07:43:06:70:87:d2:fa:93:11:29:
                    7a:48:4d:eb:94:c7:70:4d:af:67:d5:51:b1:80:20:
                    01:01:b4:7a:08:a6:90:7f:4e:e0:ef:07:41:87:af:
                    6a:a5:5e:8b:fb:cf:50:b2:9a:54:af:c3:89:ba:58:
                    2d:f5:30:98:b1:36:72:39:7e:49:04:fd:29:a7:4c:
                    79:e4:05:57:db:94:b9:16:53:8d:46:b3:1d:95:61:
                    57:56:7f:af:f0:16:5b:61:58:6f:36:50:11:0b:d8:
                    ac:2b:95:16:1a:0e:1f:08:cd:36:34:65:10:62:66:
                    d5:80:5f:14:20:5f:2d:0c:a0:78:0a:68:d6:2c:d7:
                    e9:6f:2b:d2:4a:05:93:fc:9e:6f:6b:67:ff:88:f1:
                    4e:a5:69:4a:52:37:05:ea:c6:16:8d:d2:c4:99:d1:
                    82:2b:3b:ba:35:75:f7:51:51:58:f3:c8:07:dd:e4:
                    b4:03:7f
                Exponent: 65537 (0x10001)
        X509v3 extensions:
            X509v3 Subject Key Identifier: 
                D9:74:3A:E4:30:3D:0D:F7:12:DC:7E:5A:05:9F:1E:34:9A:F7:E1:14
            X509v3 Basic Constraints: critical
                CA:TRUE
            X509v3 Key Usage: critical
                Digital Signature, Certificate Sign, CRL Sign
    Signature Algorithm: sha256WithRSAEncryption
         36:8d:97:cc:42:15:64:29:37:9b:26:2c:d6:fb:ae:15:69:2c:
         6b:1a:1a:f7:5f:b6:f9:07:4c:59:ea:f3:c9:c8:b9:ae:cc:ba:
         2e:7a:dc:c0:f5:b0:2d:c0:3b:af:9f:70:05:11:6a:9f:25:4f:
         01:29:70:e3:e5:0c:e1:ea:5a:7c:dc:49:bb:c1:1e:2a:81:f5:
         16:4b:72:91:c8:a2:31:b9:aa:da:fc:9d:1f:f3:5d:40:02:13:
         fc:4e:1c:06:ca:b3:14:90:54:17:19:12:1a:f1:1f:d7:0c:69:
         5a:f6:71:78:f4:94:7d:91:0b:8e:ec:90:54:8e:bc:6f:a1:4c:
         ab:fc:74:64:fd:71:9a:f8:41:07:a1:cd:91:e4:3c:9a:e0:9b:
         32:39:73:ab:2a:d5:69:c8:78:91:26:31:7d:e2:c7:30:f1:fc:
         14:78:77:12:0e:13:f4:dd:16:94:bf:4b:67:7b:70:53:85:ca:
         b0:bb:f3:38:4d:2c:90:39:c0:0d:c2:5d:6b:e9:e2:e5:d5:88:
         8d:d6:2c:bf:ab:1b:be:b5:28:87:12:17:74:6e:fc:7d:fc:8f:
         d0:87:26:b0:1b:fb:b9:6c:ab:e2:9e:3d:15:c1:3b:2e:67:02:
         58:91:9f:ef:f8:42:1f:2c:b7:68:f5:75:ad:cf:b5:f6:ff:11:
         7d:c2:f0:24:a5:ad:d3:fa:a0:3c:a9:fa:5d:dc:a5:a0:ef:44:
         a4:be:d6:e8:e5:e4:13:96:17:7b:06:3e:32:ed:c7:b7:42:bc:
         76:a3:d8:65:38:2b:38:35:51:21:0e:0e:6f:2e:34:13:40:e1:
         2b:67:0c:6d:4a:41:30:18:23:5a:32:55:99:c9:17:e0:3c:de:
         f6:ec:79:ad:2b:58:19:a2:ad:2c:22:1a:95:8e:be:96:90:5d:
         42:57:c4:f9:14:03:35:2b:1c:2d:51:57:08:a7:3a:de:3f:e4:
         c8:b4:03:73:c2:c1:26:80:bb:0b:42:1f:ad:0d:af:26:72:da:
         cc:be:b3:a3:83:58:0d:82:c5:1f:46:51:e3:9c:18:cc:8d:9b:
         8d:ec:49:eb:75:50:d5:8c:28:59:ca:74:34:da:8c:0b:21:ab:
         1e:ea:1b:e5:c7:fd:15:3e:c0:17:aa:fb:23:6e:26:46:cb:fa:
         f9:b1:72:6b:69:cf:22:84:0b:62:0f:ac:d9:19:00:94:a2:76:
         3c:d4:2d:9a:ed:04:9e:2d:06:62:10:37:52:1c:85:72:1b:27:
         e5:cc:c6:31:ec:37:ec:63:59:9b:0b:1d:76:cc:7e:32:9a:88:
         95:08:36:52:bb:de:76:5f:76:49:49:ad:7f:bd:65:20:b2:c9:
         c1:2b:76:18:76:9f:56:b1
-----BEGIN CERTIFICATE-----
MIIFWjCCA0KgAwIBAgIQT9Irj/VkyDOeTzRYZiNwYDANBgkqhkiG9w0BAQsFADBH
MQswCQYDVQQGEwJDTjERMA8GA1UECgwIVW5pVHJ1c3QxJTAjBgNVBAMMHFVDQSBF
eHRlbmRlZCBWYWxpZGF0aW9uIFJvb3QwHhcNMTUwMzEzMDAwMDAwWhcNMzgxMjMx
MDAwMDAwWjBHMQswCQYDVQQGEwJDTjERMA8GA1UECgwIVW5pVHJ1c3QxJTAjBgNV
BAMMHFVDQSBFeHRlbmRlZCBWYWxpZGF0aW9uIFJvb3QwggIiMA0GCSqGSIb3DQEB
AQUAA4ICDwAwggIKAoICAQCpCQcoEwKwmeBkqh5DFnpzsZGgdT6o+uM4AHrsiWog
D4vFsJszA1qGxliG1cGFu0/GnEBNyr7uaZa4rYEwmnySBesFK5pI0Lh2PpbIILvS
sPGP2KxFRv+qZ2C0d35qHzwaUnoEPQc8hQ2E0B92CvdqFN9y4zR8V05WAT558aop
O2z6+I9tTcg1367r3CTueUWnhbYFiN6IXSV8l2RnCdm/WhUFhvMJHuxYMjMR83dk
sHYf5BA1FxvyDrFspCqjc/wJHx4yGVMR59mzLC52LqGj3n5qiAno8geK+LLNEOfi
c0CTuwjRP+H8C5SzJe98ptfRr5//lpr1kXuYC3fUfugH0mK1lTnj8/FtDw5lhIpj
VMWAtuCeS31HJqcBCF3RiJ7XwzJE+oJKCmhUfzhTA8ykADNkUVkLo4KRel7sFsLz
KuZi2irbWWIQJUoqgQtHB0MGcIfS+pMRKXpITeuUx3BNr2fVUbGAIAEBtHoIppB/
TuDvB0GHr2qlXov7z1CymlSvw4m6WC31MJixNnI5fkkE/SmnTHnkBVfblLkWU41G
sx2VYVdWf6/wFlthWG82UBEL2KwrlRYaDh8IzTY0ZRBiZtWAXxQgXy0MoHgKaNYs
1+lvK9JKBZP8nm9rZ/+I8U6laUpSNwXqxhaN0sSZ0YIrO7o1dfdRUVjzyAfd5LQD
fwIDAQABo0IwQDAdBgNVHQ4EFgQU2XQ65DA9DfcS3H5aBZ8eNJr34RQwDwYDVR0T
AQH/BAUwAwEB/zAOBgNVHQ8BAf8EBAMCAYYwDQYJKoZIhvcNAQELBQADggIBADaN
l8xCFWQpN5smLNb7rhVpLGsaGvdftvkHTFnq88nIua7Mui563MD1sC3AO6+fcAUR
ap8lTwEpcOPlDOHqWnzcSbvBHiqB9RZLcpHIojG5qtr8nR/zXUACE/xOHAbKsxSQ
VBcZEhrxH9cMaVr2cXj0lH2RC47skFSOvG+hTKv8dGT9cZr4QQehzZHkPJrgmzI5
c6sq1WnIeJEmMX3ixzDx/BR4dxIOE/TdFpS/S2d7cFOFyrC78zhNLJA5wA3CXWvp
4uXViI3WLL+rG761KIcSF3Ru/H38j9CHJrAb+7lsq+KePRXBOy5nAliRn+/4Qh8s
t2j1da3Ptfb/EX3C8CSlrdP6oDyp+l3cpaDvRKS+1ujl5BOWF3sGPjLtx7dCvHaj
2GU4Kzg1USEODm8uNBNA4StnDG1KQTAYI1oyVZnJF+A83vbsea0rWBmirSwiGpWO
vpaQXUJXxPkUAzUrHC1RVwinOt4/5Mi0A3PCwSaAuwtCH60NryZy2sy+s6ODWA2C
xR9GUeOcGMyNm43sSet1UNWMKFnKdDTajAshqx7qG+XH/RU+wBeq+yNuJkbL+vmx
cmtpzyKEC2IPrNkZAJSidjzULZrtBJ4tBmIQN1IchXIbJ+XMxjHsN+xjWZsLHXbM
fjKaiJUINlK73nZfdklJrX+9ZSCyycErdhh2n1ax
-----END CERTIFICATE-----
