[Created by: generate-chains.py]

Certificate chain where the intermediate has a basic constraints extension
that indicates it is NOT a CA.

Certificate:
    Data:
        Version: 3 (0x2)
        Serial Number:
            5d:89:40:ce:2b:53:75:88:ff:8e:84:70:5e:89:c5:8b:d1:5c:22:c2
        Signature Algorithm: sha256WithRSAEncryption
        Issuer: CN=Intermediate
        Validity
            Not Before: Oct  5 12:00:00 2022 GMT
            Not After : Oct  5 12:00:00 2023 GMT
        Subject: CN=Target
        Subject Public Key Info:
            Public Key Algorithm: rsaEncryption
                Public-Key: (2048 bit)
                Modulus:
                    00:96:d4:6b:47:00:ed:9a:72:03:1f:bc:14:42:63:
                    28:8d:c9:5a:08:27:59:06:2e:61:d9:28:aa:ed:58:
                    17:5f:f2:bf:ee:33:ab:74:0b:1c:c3:00:b6:38:96:
                    96:d0:dc:91:44:ab:1d:fa:e5:99:ed:fe:ee:43:dd:
                    21:b0:b8:1a:31:70:bb:c6:a5:eb:6e:2e:79:cf:c3:
                    c9:32:f7:39:e5:ff:9f:1e:fd:c8:8c:8f:9d:42:e6:
                    5d:cc:b1:75:fa:94:f3:f8:df:f8:47:ea:7a:4f:4c:
                    1d:67:fd:37:2e:75:a3:13:84:00:92:c5:6c:86:66:
                    80:39:7b:0f:2e:af:14:ce:82:1c:e4:78:7b:f3:d8:
                    f4:b3:b1:d1:7d:5f:ed:19:6f:1d:eb:7e:be:3a:33:
                    e1:b4:86:82:22:05:28:87:85:b8:2b:70:f1:88:45:
                    6b:b4:fb:d0:f0:0a:e5:45:f6:a8:e2:18:88:74:56:
                    4c:a7:4b:cb:13:8e:61:8b:1a:c2:a2:2b:2d:24:7a:
                    f0:4c:53:49:8b:98:be:52:31:72:5d:38:e7:8d:36:
                    7b:bb:34:4d:66:2d:b3:8b:82:85:9f:e6:f9:d8:58:
                    da:0d:e9:d5:d2:be:53:4b:88:ad:58:8a:3b:3c:1d:
                    53:60:ed:15:50:9c:fd:c3:bf:0c:fc:56:02:8f:06:
                    ab:9d
                Exponent: 65537 (0x10001)
        X509v3 extensions:
            X509v3 Subject Key Identifier: 
                69:F2:C8:4F:15:5E:61:18:40:61:41:B1:88:18:21:B5:77:6F:F9:DE
            X509v3 Authority Key Identifier: 
                AF:9B:3A:70:86:45:08:AD:02:CD:FC:FD:46:48:82:7D:46:63:31:DB
            Authority Information Access: 
                CA Issuers - URI:http://url-for-aia/Intermediate.cer
            X509v3 CRL Distribution Points: 
                Full Name:
                  URI:http://url-for-crl/Intermediate.crl
            X509v3 Key Usage: critical
                Digital Signature, Key Encipherment
            X509v3 Extended Key Usage: 
                TLS Web Server Authentication, TLS Web Client Authentication
    Signature Algorithm: sha256WithRSAEncryption
    Signature Value:
        64:6e:72:07:de:90:7e:49:ae:31:92:85:73:27:13:b3:dd:b7:
        e6:90:01:40:b0:16:52:6f:70:18:fd:77:f7:47:ac:7c:f4:fe:
        d8:c8:3e:83:1e:8d:2e:a0:3b:b8:c4:4e:10:fa:ba:6d:7f:7a:
        54:94:7e:54:0c:0f:38:cf:9b:b8:53:ac:01:28:86:5d:92:bf:
        da:21:c5:b4:40:e7:49:54:d1:52:ab:2a:b5:f4:e2:30:5b:f8:
        f8:2c:e7:a8:96:72:b4:94:0e:e2:d5:9f:da:90:50:bf:3e:47:
        4f:23:c3:44:b8:fb:87:0a:82:0e:05:53:31:37:77:30:af:43:
        85:73:a9:81:cf:10:43:a5:cc:dd:cc:46:01:a0:ef:0d:78:c3:
        e2:3e:b2:da:d7:5e:43:9d:c6:25:9a:1d:02:3d:71:6f:21:20:
        61:40:81:0d:1c:a6:35:d6:9a:7a:90:1d:c6:f8:49:ae:3e:91:
        de:90:22:cd:ac:c4:a7:08:98:02:a8:63:2c:1f:14:0a:71:3d:
        81:06:e4:b2:97:6a:27:61:e1:5c:50:fc:a0:83:be:98:5c:3d:
        e4:55:1e:6e:84:82:d9:9f:70:7b:3d:8d:d6:3b:41:53:a5:9a:
        db:ee:c0:b6:e1:be:22:84:58:71:18:2b:59:17:8b:95:66:63:
        6a:03:4a:da
-----BEGIN CERTIFICATE-----
MIIDoDCCAoigAwIBAgIUXYlAzitTdYj/joRwXonFi9FcIsIwDQYJKoZIhvcNAQEL
BQAwFzEVMBMGA1UEAwwMSW50ZXJtZWRpYXRlMB4XDTIyMTAwNTEyMDAwMFoXDTIz
MTAwNTEyMDAwMFowETEPMA0GA1UEAwwGVGFyZ2V0MIIBIjANBgkqhkiG9w0BAQEF
AAOCAQ8AMIIBCgKCAQEAltRrRwDtmnIDH7wUQmMojclaCCdZBi5h2Siq7VgXX/K/
7jOrdAscwwC2OJaW0NyRRKsd+uWZ7f7uQ90hsLgaMXC7xqXrbi55z8PJMvc55f+f
Hv3IjI+dQuZdzLF1+pTz+N/4R+p6T0wdZ/03LnWjE4QAksVshmaAOXsPLq8UzoIc
5Hh789j0s7HRfV/tGW8d636+OjPhtIaCIgUoh4W4K3DxiEVrtPvQ8ArlRfao4hiI
dFZMp0vLE45hixrCoistJHrwTFNJi5i+UjFyXTjnjTZ7uzRNZi2zi4KFn+b52Fja
DenV0r5TS4itWIo7PB1TYO0VUJz9w78M/FYCjwarnQIDAQABo4HpMIHmMB0GA1Ud
DgQWBBRp8shPFV5hGEBhQbGIGCG1d2/53jAfBgNVHSMEGDAWgBSvmzpwhkUIrQLN
/P1GSIJ9RmMx2zA/BggrBgEFBQcBAQQzMDEwLwYIKwYBBQUHMAKGI2h0dHA6Ly91
cmwtZm9yLWFpYS9JbnRlcm1lZGlhdGUuY2VyMDQGA1UdHwQtMCswKaAnoCWGI2h0
dHA6Ly91cmwtZm9yLWNybC9JbnRlcm1lZGlhdGUuY3JsMA4GA1UdDwEB/wQEAwIF
oDAdBgNVHSUEFjAUBggrBgEFBQcDAQYIKwYBBQUHAwIwDQYJKoZIhvcNAQELBQAD
ggEBAGRucgfekH5JrjGShXMnE7Pdt+aQAUCwFlJvcBj9d/dHrHz0/tjIPoMejS6g
O7jEThD6um1/elSUflQMDzjPm7hTrAEohl2Sv9ohxbRA50lU0VKrKrX04jBb+Pgs
56iWcrSUDuLVn9qQUL8+R08jw0S4+4cKgg4FUzE3dzCvQ4VzqYHPEEOlzN3MRgGg
7w14w+I+strXXkOdxiWaHQI9cW8hIGFAgQ0cpjXWmnqQHcb4Sa4+kd6QIs2sxKcI
mAKoYywfFApxPYEG5LKXaidh4VxQ/KCDvphcPeRVHm6EgtmfcHs9jdY7QVOlmtvu
wLbhviKEWHEYK1kXi5VmY2oDSto=
-----END CERTIFICATE-----

Certificate:
    Data:
        Version: 3 (0x2)
        Serial Number:
            5e:d2:b9:cc:38:a5:71:aa:e1:ce:1e:c1:8b:50:10:aa:15:44:3f:ba
        Signature Algorithm: sha256WithRSAEncryption
        Issuer: CN=Root
        Validity
            Not Before: Oct  5 12:00:00 2022 GMT
            Not After : Oct  5 12:00:00 2023 GMT
        Subject: CN=Intermediate
        Subject Public Key Info:
            Public Key Algorithm: rsaEncryption
                Public-Key: (2048 bit)
                Modulus:
                    00:c2:02:78:c1:e7:a0:b7:63:87:52:e4:d4:11:71:
                    3e:cb:65:9c:d9:2f:cb:48:30:8e:62:29:ae:c9:22:
                    36:a6:67:d2:ea:10:58:d2:82:ab:bc:1e:a3:12:64:
                    6e:fd:79:af:2e:6c:c0:8b:fd:36:68:ea:e0:0a:09:
                    53:99:89:75:92:61:13:ac:aa:d9:e2:f1:ac:93:72:
                    94:65:99:9e:52:9d:8f:6d:1e:b1:3e:83:fb:fa:c4:
                    dd:b4:b3:d2:0b:bb:f8:21:10:a9:51:8e:9e:b4:c8:
                    a8:63:79:50:62:03:59:3f:53:19:02:7c:a4:d9:45:
                    dd:07:b7:76:89:ac:ac:6f:b1:1d:aa:8c:4a:e5:40:
                    a2:05:32:2f:ba:a8:a9:8a:f3:eb:f0:f3:d9:9e:97:
                    e6:89:42:dd:95:67:de:33:62:2c:10:59:0b:b6:de:
                    9a:3e:54:10:b8:a4:a9:33:05:4d:fc:ea:8b:56:38:
                    2a:11:88:cd:75:1f:74:ea:4e:ad:3c:ef:da:d4:00:
                    72:57:1c:16:d3:20:b6:99:cc:7f:aa:58:fa:48:e8:
                    e9:a9:bd:00:2e:87:ce:39:9b:1c:17:23:ac:28:55:
                    77:81:e7:ac:f6:d6:6d:77:27:fb:e7:a0:22:72:58:
                    83:4d:1a:1a:be:b6:00:8e:d1:11:c7:71:28:93:09:
                    74:7b
                Exponent: 65537 (0x10001)
        X509v3 extensions:
            X509v3 Subject Key Identifier: 
                AF:9B:3A:70:86:45:08:AD:02:CD:FC:FD:46:48:82:7D:46:63:31:DB
            X509v3 Authority Key Identifier: 
                6C:B8:FE:A6:74:44:97:70:ED:FE:CB:24:38:90:2A:A9:61:48:FB:EB
            Authority Information Access: 
                CA Issuers - URI:http://url-for-aia/Root.cer
            X509v3 CRL Distribution Points: 
                Full Name:
                  URI:http://url-for-crl/Root.crl
            X509v3 Key Usage: critical
                Certificate Sign, CRL Sign
            X509v3 Basic Constraints: critical
                CA:FALSE
    Signature Algorithm: sha256WithRSAEncryption
    Signature Value:
        7e:d6:f8:64:42:f3:ea:19:91:fe:f0:42:a1:08:b5:08:10:e1:
        91:b8:f7:e6:f2:82:c9:06:76:ae:47:03:0d:c0:94:fa:6c:c0:
        bb:c0:d7:20:93:26:3d:6e:77:6f:e4:cc:ff:fb:d2:2f:fd:43:
        4f:e5:0a:58:83:1b:3e:b7:9b:59:84:fa:c7:73:0d:8a:22:9e:
        89:69:be:2a:3c:77:5c:9f:27:7c:1a:88:ab:00:b1:24:c8:da:
        8f:b0:30:db:80:98:7a:80:b7:1a:59:0d:f4:41:88:e1:82:4b:
        e1:64:ba:3a:f6:c6:5a:cf:b0:18:2c:c9:fe:04:bd:68:24:69:
        c4:0a:dd:69:6e:75:d3:1b:de:5c:e1:fb:b4:41:15:17:5b:27:
        a3:f4:2b:fb:0c:24:99:a1:0b:b5:42:53:0f:f1:d8:5f:a1:2a:
        52:a1:e3:6e:59:a6:25:e5:48:a3:02:e4:bf:e0:17:d5:81:c6:
        14:b4:8f:4f:0a:7f:06:d6:4a:15:f4:cb:2c:4c:bd:91:59:c5:
        6b:40:49:99:d9:db:e1:d9:14:13:1d:5a:52:f8:42:8b:1a:64:
        ae:0c:f9:62:89:c0:d4:42:47:b8:53:c2:db:1d:2e:76:97:66:
        43:91:f1:84:fd:94:2c:94:48:1e:94:a4:fe:a4:4e:31:5e:c2:
        ca:e4:c0:e2
-----BEGIN CERTIFICATE-----
MIIDfTCCAmWgAwIBAgIUXtK5zDilcarhzh7Bi1AQqhVEP7owDQYJKoZIhvcNAQEL
BQAwDzENMAsGA1UEAwwEUm9vdDAeFw0yMjEwMDUxMjAwMDBaFw0yMzEwMDUxMjAw
MDBaMBcxFTATBgNVBAMMDEludGVybWVkaWF0ZTCCASIwDQYJKoZIhvcNAQEBBQAD
ggEPADCCAQoCggEBAMICeMHnoLdjh1Lk1BFxPstlnNkvy0gwjmIprskiNqZn0uoQ
WNKCq7weoxJkbv15ry5swIv9Nmjq4AoJU5mJdZJhE6yq2eLxrJNylGWZnlKdj20e
sT6D+/rE3bSz0gu7+CEQqVGOnrTIqGN5UGIDWT9TGQJ8pNlF3Qe3domsrG+xHaqM
SuVAogUyL7qoqYrz6/Dz2Z6X5olC3ZVn3jNiLBBZC7bemj5UELikqTMFTfzqi1Y4
KhGIzXUfdOpOrTzv2tQAclccFtMgtpnMf6pY+kjo6am9AC6HzjmbHBcjrChVd4Hn
rPbWbXcn++egInJYg00aGr62AI7REcdxKJMJdHsCAwEAAaOByDCBxTAdBgNVHQ4E
FgQUr5s6cIZFCK0Czfz9RkiCfUZjMdswHwYDVR0jBBgwFoAUbLj+pnREl3Dt/ssk
OJAqqWFI++swNwYIKwYBBQUHAQEEKzApMCcGCCsGAQUFBzAChhtodHRwOi8vdXJs
LWZvci1haWEvUm9vdC5jZXIwLAYDVR0fBCUwIzAhoB+gHYYbaHR0cDovL3VybC1m
b3ItY3JsL1Jvb3QuY3JsMA4GA1UdDwEB/wQEAwIBBjAMBgNVHRMBAf8EAjAAMA0G
CSqGSIb3DQEBCwUAA4IBAQB+1vhkQvPqGZH+8EKhCLUIEOGRuPfm8oLJBnauRwMN
wJT6bMC7wNcgkyY9bndv5Mz/+9Iv/UNP5QpYgxs+t5tZhPrHcw2KIp6Jab4qPHdc
nyd8GoirALEkyNqPsDDbgJh6gLcaWQ30QYjhgkvhZLo69sZaz7AYLMn+BL1oJGnE
Ct1pbnXTG95c4fu0QRUXWyej9Cv7DCSZoQu1QlMP8dhfoSpSoeNuWaYl5UijAuS/
4BfVgcYUtI9PCn8G1koV9MssTL2RWcVrQEmZ2dvh2RQTHVpS+EKLGmSuDPliicDU
Qke4U8LbHS52l2ZDkfGE/ZQslEgelKT+pE4xXsLK5MDi
-----END CERTIFICATE-----

Certificate:
    Data:
        Version: 3 (0x2)
        Serial Number:
            5e:d2:b9:cc:38:a5:71:aa:e1:ce:1e:c1:8b:50:10:aa:15:44:3f:b9
        Signature Algorithm: sha256WithRSAEncryption
        Issuer: CN=Root
        Validity
            Not Before: Oct  5 12:00:00 2022 GMT
            Not After : Oct  5 12:00:00 2023 GMT
        Subject: CN=Root
        Subject Public Key Info:
            Public Key Algorithm: rsaEncryption
                Public-Key: (2048 bit)
                Modulus:
                    00:bb:74:06:fa:a6:03:d1:64:c6:fa:62:8c:f6:40:
                    93:be:4e:7d:71:8b:3c:fb:57:b2:64:7a:08:9d:ce:
                    c3:40:ff:eb:84:43:e9:0c:e0:80:2c:e3:9c:38:43:
                    90:9d:e1:a5:4e:a1:10:9f:ac:b4:bf:24:38:7a:d7:
                    37:21:0d:ae:de:f0:99:37:43:6a:e7:7f:d0:4a:ba:
                    d3:a4:f4:df:ce:fa:d1:b0:03:f9:5d:79:a5:c5:82:
                    b0:cf:62:02:87:84:ec:73:d2:65:33:86:02:d7:f4:
                    57:8d:98:a2:2a:8f:89:c6:23:29:68:ff:56:46:d2:
                    dc:9a:e3:d2:24:d8:e9:fe:18:0c:4f:67:b3:cd:5e:
                    31:4a:70:2e:4c:b2:7e:10:e1:38:c7:a1:fa:bc:8f:
                    9b:23:e9:19:56:c5:38:4a:e8:7d:31:e2:6e:03:70:
                    ce:f2:0b:52:7d:6d:d7:d7:53:d8:e0:1c:6e:95:f3:
                    1c:b6:04:50:03:23:39:86:42:28:68:26:5f:ca:a7:
                    13:e2:51:ed:f0:55:bb:ac:4e:9d:cf:e5:07:44:41:
                    45:f8:5c:65:cf:d7:7f:0a:e0:ee:5e:5e:2c:0c:13:
                    10:f6:d4:e3:ba:9f:16:f4:8c:85:b2:53:4c:e1:56:
                    63:f0:08:11:84:df:dc:e1:a0:7f:fb:78:5d:eb:21:
                    f9:e5
                Exponent: 65537 (0x10001)
        X509v3 extensions:
            X509v3 Subject Key Identifier: 
                6C:B8:FE:A6:74:44:97:70:ED:FE:CB:24:38:90:2A:A9:61:48:FB:EB
            X509v3 Authority Key Identifier: 
                6C:B8:FE:A6:74:44:97:70:ED:FE:CB:24:38:90:2A:A9:61:48:FB:EB
            Authority Information Access: 
                CA Issuers - URI:http://url-for-aia/Root.cer
            X509v3 CRL Distribution Points: 
                Full Name:
                  URI:http://url-for-crl/Root.crl
            X509v3 Key Usage: critical
                Certificate Sign, CRL Sign
            X509v3 Basic Constraints: critical
                CA:TRUE
    Signature Algorithm: sha256WithRSAEncryption
    Signature Value:
        08:4a:c8:80:8a:70:6d:08:e0:dd:3a:ac:94:7e:8e:28:82:80:
        33:63:bf:70:2d:d2:04:84:54:b9:a9:c1:e7:1d:8f:ea:c5:b0:
        57:79:89:cc:43:1c:64:86:98:2b:59:5c:cf:a6:3a:3b:2a:79:
        00:ef:bf:3a:b6:33:06:56:84:2a:88:4e:66:e9:14:23:e0:64:
        79:49:1a:bb:87:e9:7c:d0:cd:cb:fa:cb:bb:a6:09:e4:04:ff:
        e9:0d:90:31:53:a2:6a:24:0e:ab:37:51:23:0a:78:02:f9:d4:
        84:50:75:fb:2a:3f:e1:95:23:7b:c2:4e:c9:4f:61:84:e8:35:
        65:04:57:8d:40:e3:47:ac:71:29:c2:1a:cc:7f:e8:72:df:75:
        ba:80:3f:d6:33:ab:cd:ea:a7:06:81:15:fb:4a:92:ed:92:e6:
        ef:02:79:60:11:64:5f:1a:5e:ff:85:7a:17:6f:69:ea:16:53:
        08:aa:af:b9:5c:3d:69:a5:c5:be:e0:f5:53:5e:f7:06:b5:3a:
        48:ab:a6:52:6b:7b:d1:78:ca:9f:ce:34:87:1b:b2:24:b7:0e:
        84:bd:a9:1d:e5:7c:80:72:94:54:5f:77:58:99:3e:68:aa:3e:
        96:52:7a:44:2b:f9:7e:ae:39:71:eb:83:63:26:e0:5d:02:0c:
        64:d9:0d:bd
-----BEGIN CERTIFICATE-----
MIIDeDCCAmCgAwIBAgIUXtK5zDilcarhzh7Bi1AQqhVEP7kwDQYJKoZIhvcNAQEL
BQAwDzENMAsGA1UEAwwEUm9vdDAeFw0yMjEwMDUxMjAwMDBaFw0yMzEwMDUxMjAw
MDBaMA8xDTALBgNVBAMMBFJvb3QwggEiMA0GCSqGSIb3DQEBAQUAA4IBDwAwggEK
AoIBAQC7dAb6pgPRZMb6Yoz2QJO+Tn1xizz7V7JkegidzsNA/+uEQ+kM4IAs45w4
Q5Cd4aVOoRCfrLS/JDh61zchDa7e8Jk3Q2rnf9BKutOk9N/O+tGwA/ldeaXFgrDP
YgKHhOxz0mUzhgLX9FeNmKIqj4nGIylo/1ZG0tya49Ik2On+GAxPZ7PNXjFKcC5M
sn4Q4TjHofq8j5sj6RlWxThK6H0x4m4DcM7yC1J9bdfXU9jgHG6V8xy2BFADIzmG
QihoJl/KpxPiUe3wVbusTp3P5QdEQUX4XGXP138K4O5eXiwMExD21OO6nxb0jIWy
U0zhVmPwCBGE39zhoH/7eF3rIfnlAgMBAAGjgcswgcgwHQYDVR0OBBYEFGy4/qZ0
RJdw7f7LJDiQKqlhSPvrMB8GA1UdIwQYMBaAFGy4/qZ0RJdw7f7LJDiQKqlhSPvr
MDcGCCsGAQUFBwEBBCswKTAnBggrBgEFBQcwAoYbaHR0cDovL3VybC1mb3ItYWlh
L1Jvb3QuY2VyMCwGA1UdHwQlMCMwIaAfoB2GG2h0dHA6Ly91cmwtZm9yLWNybC9S
b290LmNybDAOBgNVHQ8BAf8EBAMCAQYwDwYDVR0TAQH/BAUwAwEB/zANBgkqhkiG
9w0BAQsFAAOCAQEACErIgIpwbQjg3TqslH6OKIKAM2O/cC3SBIRUuanB5x2P6sWw
V3mJzEMcZIaYK1lcz6Y6Oyp5AO+/OrYzBlaEKohOZukUI+BkeUkau4fpfNDNy/rL
u6YJ5AT/6Q2QMVOiaiQOqzdRIwp4AvnUhFB1+yo/4ZUje8JOyU9hhOg1ZQRXjUDj
R6xxKcIazH/oct91uoA/1jOrzeqnBoEV+0qS7ZLm7wJ5YBFkXxpe/4V6F29p6hZT
CKqvuVw9aaXFvuD1U173BrU6SKumUmt70XjKn840hxuyJLcOhL2pHeV8gHKUVF93
WJk+aKo+llJ6RCv5fq45ceuDYybgXQIMZNkNvQ==
-----END CERTIFICATE-----
