[Created by: generate-chains.py]

Certificate chain where the intermediate has a basic constraints extension
that indicates it is NOT a CA.

Certificate:
    Data:
        Version: 3 (0x2)
        Serial Number:
            5d:89:40:ce:2b:53:75:88:ff:8e:84:70:5e:89:c5:8b:d1:5c:22:c2
        Signature Algorithm: sha256WithRSAEncryption
        Issuer: CN=Intermediate
        Validity
            Not Before: Nov  3 12:00:00 2020 GMT
            Not After : Nov  3 12:00:00 2021 GMT
        Subject: CN=Target
        Subject Public Key Info:
            Public Key Algorithm: rsaEncryption
                RSA Public-Key: (2048 bit)
                Modulus:
                    00:96:d4:6b:47:00:ed:9a:72:03:1f:bc:14:42:63:
                    28:8d:c9:5a:08:27:59:06:2e:61:d9:28:aa:ed:58:
                    17:5f:f2:bf:ee:33:ab:74:0b:1c:c3:00:b6:38:96:
                    96:d0:dc:91:44:ab:1d:fa:e5:99:ed:fe:ee:43:dd:
                    21:b0:b8:1a:31:70:bb:c6:a5:eb:6e:2e:79:cf:c3:
                    c9:32:f7:39:e5:ff:9f:1e:fd:c8:8c:8f:9d:42:e6:
                    5d:cc:b1:75:fa:94:f3:f8:df:f8:47:ea:7a:4f:4c:
                    1d:67:fd:37:2e:75:a3:13:84:00:92:c5:6c:86:66:
                    80:39:7b:0f:2e:af:14:ce:82:1c:e4:78:7b:f3:d8:
                    f4:b3:b1:d1:7d:5f:ed:19:6f:1d:eb:7e:be:3a:33:
                    e1:b4:86:82:22:05:28:87:85:b8:2b:70:f1:88:45:
                    6b:b4:fb:d0:f0:0a:e5:45:f6:a8:e2:18:88:74:56:
                    4c:a7:4b:cb:13:8e:61:8b:1a:c2:a2:2b:2d:24:7a:
                    f0:4c:53:49:8b:98:be:52:31:72:5d:38:e7:8d:36:
                    7b:bb:34:4d:66:2d:b3:8b:82:85:9f:e6:f9:d8:58:
                    da:0d:e9:d5:d2:be:53:4b:88:ad:58:8a:3b:3c:1d:
                    53:60:ed:15:50:9c:fd:c3:bf:0c:fc:56:02:8f:06:
                    ab:9d
                Exponent: 65537 (0x10001)
        X509v3 extensions:
            X509v3 Subject Key Identifier: 
                69:F2:C8:4F:15:5E:61:18:40:61:41:B1:88:18:21:B5:77:6F:F9:DE
            X509v3 Authority Key Identifier: 
                keyid:AF:9B:3A:70:86:45:08:AD:02:CD:FC:FD:46:48:82:7D:46:63:31:DB

            Authority Information Access: 
                CA Issuers - URI:http://url-for-aia/Intermediate.cer

            X509v3 CRL Distribution Points: 

                Full Name:
                  URI:http://url-for-crl/Intermediate.crl

            X509v3 Key Usage: critical
                Digital Signature, Key Encipherment
            X509v3 Extended Key Usage: 
                TLS Web Server Authentication, TLS Web Client Authentication
    Signature Algorithm: sha256WithRSAEncryption
         22:8c:e5:f9:c9:f2:a8:f4:f2:aa:82:96:a7:f5:99:fc:30:4f:
         b5:3a:20:4a:8e:5b:20:fe:93:f8:ed:91:8e:05:f0:f7:16:34:
         ee:b3:31:ea:e0:bf:1a:21:1e:80:1b:f7:a9:6d:9a:a3:a3:c2:
         33:8a:eb:e6:47:0a:50:7e:9f:de:73:cb:1c:0f:ea:20:5f:ac:
         07:23:34:08:73:86:57:05:5f:fe:59:eb:6d:71:78:9b:ba:dd:
         91:6d:01:55:5e:b7:fa:76:e8:2b:57:38:fc:08:ed:cf:d4:e8:
         0c:6a:86:25:e1:ed:d6:33:57:be:7c:3c:06:b7:53:ae:ef:16:
         f2:62:d3:5e:91:53:4b:d9:ec:b8:4f:18:2c:b0:1c:f3:20:b3:
         af:be:5e:a7:42:af:7d:7b:1e:1c:98:b1:2a:00:b5:f1:df:91:
         b4:dc:a8:52:4c:58:df:7a:20:2b:bb:8a:11:0d:e1:44:8f:f9:
         d4:25:30:dc:8c:13:db:65:53:f3:41:7a:5b:d0:01:dd:b6:7c:
         b5:4b:0d:93:20:a6:2f:51:6d:f0:80:41:75:01:3f:8b:9e:cc:
         d2:fd:36:fb:77:9f:de:54:99:6f:1b:34:13:eb:55:05:0d:3e:
         f2:8c:c9:de:54:00:2a:f7:ea:dd:18:de:8c:b0:28:f3:57:14:
         03:c0:5f:1d
-----BEGIN CERTIFICATE-----
MIIDoDCCAoigAwIBAgIUXYlAzitTdYj/joRwXonFi9FcIsIwDQYJKoZIhvcNAQEL
BQAwFzEVMBMGA1UEAwwMSW50ZXJtZWRpYXRlMB4XDTIwMTEwMzEyMDAwMFoXDTIx
MTEwMzEyMDAwMFowETEPMA0GA1UEAwwGVGFyZ2V0MIIBIjANBgkqhkiG9w0BAQEF
AAOCAQ8AMIIBCgKCAQEAltRrRwDtmnIDH7wUQmMojclaCCdZBi5h2Siq7VgXX/K/
7jOrdAscwwC2OJaW0NyRRKsd+uWZ7f7uQ90hsLgaMXC7xqXrbi55z8PJMvc55f+f
Hv3IjI+dQuZdzLF1+pTz+N/4R+p6T0wdZ/03LnWjE4QAksVshmaAOXsPLq8UzoIc
5Hh789j0s7HRfV/tGW8d636+OjPhtIaCIgUoh4W4K3DxiEVrtPvQ8ArlRfao4hiI
dFZMp0vLE45hixrCoistJHrwTFNJi5i+UjFyXTjnjTZ7uzRNZi2zi4KFn+b52Fja
DenV0r5TS4itWIo7PB1TYO0VUJz9w78M/FYCjwarnQIDAQABo4HpMIHmMB0GA1Ud
DgQWBBRp8shPFV5hGEBhQbGIGCG1d2/53jAfBgNVHSMEGDAWgBSvmzpwhkUIrQLN
/P1GSIJ9RmMx2zA/BggrBgEFBQcBAQQzMDEwLwYIKwYBBQUHMAKGI2h0dHA6Ly91
cmwtZm9yLWFpYS9JbnRlcm1lZGlhdGUuY2VyMDQGA1UdHwQtMCswKaAnoCWGI2h0
dHA6Ly91cmwtZm9yLWNybC9JbnRlcm1lZGlhdGUuY3JsMA4GA1UdDwEB/wQEAwIF
oDAdBgNVHSUEFjAUBggrBgEFBQcDAQYIKwYBBQUHAwIwDQYJKoZIhvcNAQELBQAD
ggEBACKM5fnJ8qj08qqClqf1mfwwT7U6IEqOWyD+k/jtkY4F8PcWNO6zMergvxoh
HoAb96ltmqOjwjOK6+ZHClB+n95zyxwP6iBfrAcjNAhzhlcFX/5Z621xeJu63ZFt
AVVet/p26CtXOPwI7c/U6AxqhiXh7dYzV758PAa3U67vFvJi016RU0vZ7LhPGCyw
HPMgs6++XqdCr317HhyYsSoAtfHfkbTcqFJMWN96ICu7ihEN4USP+dQlMNyME9tl
U/NBelvQAd22fLVLDZMgpi9RbfCAQXUBP4uezNL9Nvt3n95UmW8bNBPrVQUNPvKM
yd5UACr36t0Y3oywKPNXFAPAXx0=
-----END CERTIFICATE-----

Certificate:
    Data:
        Version: 3 (0x2)
        Serial Number:
            5e:d2:b9:cc:38:a5:71:aa:e1:ce:1e:c1:8b:50:10:aa:15:44:3f:ba
        Signature Algorithm: sha256WithRSAEncryption
        Issuer: CN=Root
        Validity
            Not Before: Nov  3 12:00:00 2020 GMT
            Not After : Nov  3 12:00:00 2021 GMT
        Subject: CN=Intermediate
        Subject Public Key Info:
            Public Key Algorithm: rsaEncryption
                RSA Public-Key: (2048 bit)
                Modulus:
                    00:c2:02:78:c1:e7:a0:b7:63:87:52:e4:d4:11:71:
                    3e:cb:65:9c:d9:2f:cb:48:30:8e:62:29:ae:c9:22:
                    36:a6:67:d2:ea:10:58:d2:82:ab:bc:1e:a3:12:64:
                    6e:fd:79:af:2e:6c:c0:8b:fd:36:68:ea:e0:0a:09:
                    53:99:89:75:92:61:13:ac:aa:d9:e2:f1:ac:93:72:
                    94:65:99:9e:52:9d:8f:6d:1e:b1:3e:83:fb:fa:c4:
                    dd:b4:b3:d2:0b:bb:f8:21:10:a9:51:8e:9e:b4:c8:
                    a8:63:79:50:62:03:59:3f:53:19:02:7c:a4:d9:45:
                    dd:07:b7:76:89:ac:ac:6f:b1:1d:aa:8c:4a:e5:40:
                    a2:05:32:2f:ba:a8:a9:8a:f3:eb:f0:f3:d9:9e:97:
                    e6:89:42:dd:95:67:de:33:62:2c:10:59:0b:b6:de:
                    9a:3e:54:10:b8:a4:a9:33:05:4d:fc:ea:8b:56:38:
                    2a:11:88:cd:75:1f:74:ea:4e:ad:3c:ef:da:d4:00:
                    72:57:1c:16:d3:20:b6:99:cc:7f:aa:58:fa:48:e8:
                    e9:a9:bd:00:2e:87:ce:39:9b:1c:17:23:ac:28:55:
                    77:81:e7:ac:f6:d6:6d:77:27:fb:e7:a0:22:72:58:
                    83:4d:1a:1a:be:b6:00:8e:d1:11:c7:71:28:93:09:
                    74:7b
                Exponent: 65537 (0x10001)
        X509v3 extensions:
            X509v3 Subject Key Identifier: 
                AF:9B:3A:70:86:45:08:AD:02:CD:FC:FD:46:48:82:7D:46:63:31:DB
            X509v3 Authority Key Identifier: 
                keyid:6C:B8:FE:A6:74:44:97:70:ED:FE:CB:24:38:90:2A:A9:61:48:FB:EB

            Authority Information Access: 
                CA Issuers - URI:http://url-for-aia/Root.cer

            X509v3 CRL Distribution Points: 

                Full Name:
                  URI:http://url-for-crl/Root.crl

            X509v3 Key Usage: critical
                Certificate Sign, CRL Sign
            X509v3 Basic Constraints: critical
                CA:FALSE
    Signature Algorithm: sha256WithRSAEncryption
         51:3e:0c:5b:e1:4f:1a:70:e0:e0:a5:03:28:a4:01:c6:c9:65:
         0d:34:d2:3b:c8:db:8c:4c:33:e1:20:ed:01:d6:14:db:cc:d5:
         2a:a3:fc:a6:6c:b1:4b:58:d2:5a:6f:d6:14:d4:93:d6:8a:57:
         83:01:34:70:5b:50:58:b4:22:03:17:19:4d:ec:cc:44:22:da:
         96:51:2c:5c:08:6e:42:f6:f4:bf:0d:8f:36:b0:4a:a7:9f:b5:
         e1:f1:e4:6e:83:f2:82:09:af:b2:8e:4d:9e:5d:8e:70:d7:71:
         96:62:ea:b8:fd:36:2d:5f:43:c7:4f:e1:53:d9:c7:1e:32:31:
         fd:72:13:bf:71:dc:cf:0c:5e:62:86:a0:27:f9:35:52:8b:8c:
         86:17:f4:59:cd:ff:9f:49:47:99:2d:50:b3:9e:91:e4:83:4a:
         54:63:05:95:2c:67:3f:cd:a4:85:ee:35:61:82:2b:49:79:52:
         82:a4:71:e3:db:86:ea:7c:5b:8e:a9:68:b1:99:4e:c9:45:8d:
         e6:a1:e1:60:96:8a:49:b4:97:5f:d8:e2:8c:07:c5:ab:4e:57:
         61:32:78:54:61:00:95:a8:8a:69:12:16:57:d9:8a:11:e2:65:
         d4:33:b8:90:70:79:68:5a:06:48:d2:91:51:b4:85:2c:ad:2e:
         35:31:76:c4
-----BEGIN CERTIFICATE-----
MIIDfTCCAmWgAwIBAgIUXtK5zDilcarhzh7Bi1AQqhVEP7owDQYJKoZIhvcNAQEL
BQAwDzENMAsGA1UEAwwEUm9vdDAeFw0yMDExMDMxMjAwMDBaFw0yMTExMDMxMjAw
MDBaMBcxFTATBgNVBAMMDEludGVybWVkaWF0ZTCCASIwDQYJKoZIhvcNAQEBBQAD
ggEPADCCAQoCggEBAMICeMHnoLdjh1Lk1BFxPstlnNkvy0gwjmIprskiNqZn0uoQ
WNKCq7weoxJkbv15ry5swIv9Nmjq4AoJU5mJdZJhE6yq2eLxrJNylGWZnlKdj20e
sT6D+/rE3bSz0gu7+CEQqVGOnrTIqGN5UGIDWT9TGQJ8pNlF3Qe3domsrG+xHaqM
SuVAogUyL7qoqYrz6/Dz2Z6X5olC3ZVn3jNiLBBZC7bemj5UELikqTMFTfzqi1Y4
KhGIzXUfdOpOrTzv2tQAclccFtMgtpnMf6pY+kjo6am9AC6HzjmbHBcjrChVd4Hn
rPbWbXcn++egInJYg00aGr62AI7REcdxKJMJdHsCAwEAAaOByDCBxTAdBgNVHQ4E
FgQUr5s6cIZFCK0Czfz9RkiCfUZjMdswHwYDVR0jBBgwFoAUbLj+pnREl3Dt/ssk
OJAqqWFI++swNwYIKwYBBQUHAQEEKzApMCcGCCsGAQUFBzAChhtodHRwOi8vdXJs
LWZvci1haWEvUm9vdC5jZXIwLAYDVR0fBCUwIzAhoB+gHYYbaHR0cDovL3VybC1m
b3ItY3JsL1Jvb3QuY3JsMA4GA1UdDwEB/wQEAwIBBjAMBgNVHRMBAf8EAjAAMA0G
CSqGSIb3DQEBCwUAA4IBAQBRPgxb4U8acODgpQMopAHGyWUNNNI7yNuMTDPhIO0B
1hTbzNUqo/ymbLFLWNJab9YU1JPWileDATRwW1BYtCIDFxlN7MxEItqWUSxcCG5C
9vS/DY82sEqnn7Xh8eRug/KCCa+yjk2eXY5w13GWYuq4/TYtX0PHT+FT2cceMjH9
chO/cdzPDF5ihqAn+TVSi4yGF/RZzf+fSUeZLVCznpHkg0pUYwWVLGc/zaSF7jVh
gitJeVKCpHHj24bqfFuOqWixmU7JRY3moeFglopJtJdf2OKMB8WrTldhMnhUYQCV
qIppEhZX2YoR4mXUM7iQcHloWgZI0pFRtIUsrS41MXbE
-----END CERTIFICATE-----

Certificate:
    Data:
        Version: 3 (0x2)
        Serial Number:
            5e:d2:b9:cc:38:a5:71:aa:e1:ce:1e:c1:8b:50:10:aa:15:44:3f:b9
        Signature Algorithm: sha256WithRSAEncryption
        Issuer: CN=Root
        Validity
            Not Before: Nov  3 12:00:00 2020 GMT
            Not After : Nov  3 12:00:00 2021 GMT
        Subject: CN=Root
        Subject Public Key Info:
            Public Key Algorithm: rsaEncryption
                RSA Public-Key: (2048 bit)
                Modulus:
                    00:bb:74:06:fa:a6:03:d1:64:c6:fa:62:8c:f6:40:
                    93:be:4e:7d:71:8b:3c:fb:57:b2:64:7a:08:9d:ce:
                    c3:40:ff:eb:84:43:e9:0c:e0:80:2c:e3:9c:38:43:
                    90:9d:e1:a5:4e:a1:10:9f:ac:b4:bf:24:38:7a:d7:
                    37:21:0d:ae:de:f0:99:37:43:6a:e7:7f:d0:4a:ba:
                    d3:a4:f4:df:ce:fa:d1:b0:03:f9:5d:79:a5:c5:82:
                    b0:cf:62:02:87:84:ec:73:d2:65:33:86:02:d7:f4:
                    57:8d:98:a2:2a:8f:89:c6:23:29:68:ff:56:46:d2:
                    dc:9a:e3:d2:24:d8:e9:fe:18:0c:4f:67:b3:cd:5e:
                    31:4a:70:2e:4c:b2:7e:10:e1:38:c7:a1:fa:bc:8f:
                    9b:23:e9:19:56:c5:38:4a:e8:7d:31:e2:6e:03:70:
                    ce:f2:0b:52:7d:6d:d7:d7:53:d8:e0:1c:6e:95:f3:
                    1c:b6:04:50:03:23:39:86:42:28:68:26:5f:ca:a7:
                    13:e2:51:ed:f0:55:bb:ac:4e:9d:cf:e5:07:44:41:
                    45:f8:5c:65:cf:d7:7f:0a:e0:ee:5e:5e:2c:0c:13:
                    10:f6:d4:e3:ba:9f:16:f4:8c:85:b2:53:4c:e1:56:
                    63:f0:08:11:84:df:dc:e1:a0:7f:fb:78:5d:eb:21:
                    f9:e5
                Exponent: 65537 (0x10001)
        X509v3 extensions:
            X509v3 Subject Key Identifier: 
                6C:B8:FE:A6:74:44:97:70:ED:FE:CB:24:38:90:2A:A9:61:48:FB:EB
            X509v3 Authority Key Identifier: 
                keyid:6C:B8:FE:A6:74:44:97:70:ED:FE:CB:24:38:90:2A:A9:61:48:FB:EB

            Authority Information Access: 
                CA Issuers - URI:http://url-for-aia/Root.cer

            X509v3 CRL Distribution Points: 

                Full Name:
                  URI:http://url-for-crl/Root.crl

            X509v3 Key Usage: critical
                Certificate Sign, CRL Sign
            X509v3 Basic Constraints: critical
                CA:TRUE
    Signature Algorithm: sha256WithRSAEncryption
         6c:d4:bb:27:87:92:e0:db:d9:f8:64:41:62:0e:68:0f:f9:af:
         d5:d4:59:ca:09:b1:77:49:6b:b4:c8:c3:cb:12:c4:16:06:25:
         a2:fd:15:04:71:11:81:43:07:36:ac:73:bc:03:23:dc:8a:da:
         76:2b:dc:96:da:84:11:21:86:cd:bb:6c:28:5d:1e:69:cb:7f:
         ad:73:d9:04:70:4d:93:33:02:9e:ce:d9:ca:49:d5:28:ff:f4:
         92:57:61:37:01:39:81:a4:f2:ba:1d:12:ed:45:0b:95:0f:c8:
         02:95:83:01:50:d5:88:05:7c:bd:1f:fb:de:e1:2e:ab:77:7d:
         3d:79:0e:2e:bd:d4:b2:0e:3c:77:e2:f8:db:51:c3:b5:2a:53:
         8c:43:81:77:69:a9:de:97:56:ce:68:2d:4b:2c:ec:6c:f2:a0:
         c6:45:20:b1:ee:78:0f:93:0c:cc:90:aa:b9:ec:31:d7:6e:66:
         11:67:1d:0a:9c:86:29:21:1b:05:22:38:d4:58:00:a7:2b:a0:
         94:88:30:94:e1:e6:f6:f8:8f:67:f8:e8:0e:ef:5a:b9:37:e1:
         3e:d2:f9:aa:b0:ed:d9:b4:c9:81:bb:04:43:8f:25:cd:47:bd:
         6e:7d:dc:8c:bb:20:31:dd:ea:07:25:08:0b:fe:0a:ee:d8:ea:
         31:52:75:dc
-----BEGIN CERTIFICATE-----
MIIDeDCCAmCgAwIBAgIUXtK5zDilcarhzh7Bi1AQqhVEP7kwDQYJKoZIhvcNAQEL
BQAwDzENMAsGA1UEAwwEUm9vdDAeFw0yMDExMDMxMjAwMDBaFw0yMTExMDMxMjAw
MDBaMA8xDTALBgNVBAMMBFJvb3QwggEiMA0GCSqGSIb3DQEBAQUAA4IBDwAwggEK
AoIBAQC7dAb6pgPRZMb6Yoz2QJO+Tn1xizz7V7JkegidzsNA/+uEQ+kM4IAs45w4
Q5Cd4aVOoRCfrLS/JDh61zchDa7e8Jk3Q2rnf9BKutOk9N/O+tGwA/ldeaXFgrDP
YgKHhOxz0mUzhgLX9FeNmKIqj4nGIylo/1ZG0tya49Ik2On+GAxPZ7PNXjFKcC5M
sn4Q4TjHofq8j5sj6RlWxThK6H0x4m4DcM7yC1J9bdfXU9jgHG6V8xy2BFADIzmG
QihoJl/KpxPiUe3wVbusTp3P5QdEQUX4XGXP138K4O5eXiwMExD21OO6nxb0jIWy
U0zhVmPwCBGE39zhoH/7eF3rIfnlAgMBAAGjgcswgcgwHQYDVR0OBBYEFGy4/qZ0
RJdw7f7LJDiQKqlhSPvrMB8GA1UdIwQYMBaAFGy4/qZ0RJdw7f7LJDiQKqlhSPvr
MDcGCCsGAQUFBwEBBCswKTAnBggrBgEFBQcwAoYbaHR0cDovL3VybC1mb3ItYWlh
L1Jvb3QuY2VyMCwGA1UdHwQlMCMwIaAfoB2GG2h0dHA6Ly91cmwtZm9yLWNybC9S
b290LmNybDAOBgNVHQ8BAf8EBAMCAQYwDwYDVR0TAQH/BAUwAwEB/zANBgkqhkiG
9w0BAQsFAAOCAQEAbNS7J4eS4NvZ+GRBYg5oD/mv1dRZygmxd0lrtMjDyxLEFgYl
ov0VBHERgUMHNqxzvAMj3IradivcltqEESGGzbtsKF0eact/rXPZBHBNkzMCns7Z
yknVKP/0kldhNwE5gaTyuh0S7UULlQ/IApWDAVDViAV8vR/73uEuq3d9PXkOLr3U
sg48d+L421HDtSpTjEOBd2mp3pdWzmgtSyzsbPKgxkUgse54D5MMzJCquewx125m
EWcdCpyGKSEbBSI41FgApyuglIgwlOHm9viPZ/joDu9auTfhPtL5qrDt2bTJgbsE
Q48lzUe9bn3cjLsgMd3qByUIC/4K7tjqMVJ13A==
-----END CERTIFICATE-----
