Certificate:
    Data:
        Version: 3 (0x2)
        Serial Number: 1 (0x1)
    Signature Algorithm: sha256WithRSAEncryption
        Issuer: CN=web-platform-tests
        Validity
            Not Before: Oct 18 08:36:53 2016 GMT
            Not After : Jan  4 08:36:53 2025 GMT
        Subject: CN=web-platform-tests
        Subject Public Key Info:
            Public Key Algorithm: rsaEncryption
                Public-Key: (2048 bit)
                Modulus:
                    00:c9:e3:69:85:18:ad:1a:df:ba:6c:05:96:0c:c1:
                    22:51:78:3a:90:42:88:72:f7:f4:8c:81:59:43:5b:
                    ea:13:0e:e7:ac:27:c2:72:55:c6:53:48:4f:08:37:
                    a1:5f:e1:5c:78:24:d3:12:2d:2b:71:c3:51:a3:ad:
                    0b:c6:a1:95:2d:f5:cf:db:50:64:c8:fa:d0:2a:bc:
                    ae:a8:2b:44:53:a2:a9:e8:55:92:b7:95:4f:d2:f3:
                    d9:f1:e1:0b:17:11:ad:62:50:c5:57:4d:43:ed:fc:
                    6f:14:99:52:ab:27:f4:59:45:f8:86:77:d1:fc:00:
                    8a:b3:4c:7e:66:1a:b3:04:58:e5:9e:57:52:b8:9d:
                    ef:cc:ef:59:6e:a0:99:2c:e1:e1:1b:da:19:be:61:
                    f9:c3:89:76:1e:88:1e:86:64:1f:5b:27:3e:44:7c:
                    ad:d0:04:b0:57:db:79:bd:1e:7d:4a:73:52:c9:2d:
                    16:6d:f0:80:2e:07:70:09:2f:ca:a2:c3:12:ae:2c:
                    51:3d:d4:f3:4e:f6:53:c2:9d:e0:6c:56:6d:36:38:
                    bc:1e:4f:d9:7e:1e:b9:26:fe:2f:f0:d6:6b:af:02:
                    bf:4d:93:4b:a7:e7:bd:eb:e7:79:69:b1:65:1f:88:
                    f0:fd:cc:03:ce:5e:00:83:b9:ad:70:6a:95:78:5b:
                    97:fb
                Exponent: 65537 (0x10001)
        X509v3 extensions:
            X509v3 Basic Constraints: 
                CA:TRUE
            X509v3 Subject Key Identifier: 
                4E:65:0D:3B:92:B3:5A:4B:34:75:FB:29:26:CA:53:6B:A1:65:15:7E
            X509v3 Authority Key Identifier: 
                keyid:4E:65:0D:3B:92:B3:5A:4B:34:75:FB:29:26:CA:53:6B:A1:65:15:7E
                DirName:/CN=web-platform-tests
                serial:01

            X509v3 Key Usage: 
                Certificate Sign
            X509v3 Extended Key Usage: 
                TLS Web Server Authentication
    Signature Algorithm: sha256WithRSAEncryption
         c6:f0:d9:1e:24:82:3a:b8:d4:b3:92:00:ea:0e:d6:17:e9:8d:
         a0:7a:35:bc:59:b9:2d:b0:6b:c2:27:74:66:6f:26:18:c2:75:
         14:4c:29:76:3d:28:3c:6e:66:be:3c:27:55:17:09:f3:f4:2d:
         1b:ab:b5:b5:5c:f6:5c:24:d1:7d:35:45:30:7e:41:19:79:f8:
         a1:38:ca:ce:30:35:e0:de:1c:77:f8:fe:cd:dd:25:4c:13:18:
         d7:9e:8b:35:04:58:24:7e:a3:f5:89:48:fc:28:e7:11:88:ec:
         b8:37:e5:2f:8b:61:b9:f3:44:12:6a:62:cb:b3:16:5f:61:77:
         8c:e6:d5:3f:ec:43:9a:22:7b:d2:e0:3a:25:15:49:e4:75:09:
         a3:9e:82:64:a9:3f:94:86:c7:a8:87:a2:34:51:87:c9:58:89:
         76:42:00:bc:7c:d3:17:7a:40:79:b1:f5:ac:0d:9d:14:a5:db:
         57:7f:10:36:21:79:7e:8f:62:91:68:d2:1f:c9:d3:76:18:cf:
         98:13:bf:21:a1:09:c3:40:17:9e:16:80:f4:61:23:46:cf:78:
         9b:00:a7:fa:53:00:b5:67:d3:82:84:79:50:c0:ae:e0:0f:51:
         55:84:e8:5a:cd:c7:6a:83:11:de:82:58:70:11:b8:1e:67:ab:
         30:1d:a6:82
-----BEGIN CERTIFICATE-----
MIIDTzCCAjegAwIBAgIBATANBgkqhkiG9w0BAQsFADAdMRswGQYDVQQDDBJ3ZWIt
cGxhdGZvcm0tdGVzdHMwHhcNMTYxMDE4MDgzNjUzWhcNMjUwMTA0MDgzNjUzWjAd
MRswGQYDVQQDDBJ3ZWItcGxhdGZvcm0tdGVzdHMwggEiMA0GCSqGSIb3DQEBAQUA
A4IBDwAwggEKAoIBAQDJ42mFGK0a37psBZYMwSJReDqQQohy9/SMgVlDW+oTDues
J8JyVcZTSE8IN6Ff4Vx4JNMSLStxw1GjrQvGoZUt9c/bUGTI+tAqvK6oK0RToqno
VZK3lU/S89nx4QsXEa1iUMVXTUPt/G8UmVKrJ/RZRfiGd9H8AIqzTH5mGrMEWOWe
V1K4ne/M71luoJks4eEb2hm+YfnDiXYeiB6GZB9bJz5EfK3QBLBX23m9Hn1Kc1LJ
LRZt8IAuB3AJL8qiwxKuLFE91PNO9lPCneBsVm02OLweT9l+Hrkm/i/w1muvAr9N
k0un573r53lpsWUfiPD9zAPOXgCDua1wapV4W5f7AgMBAAGjgZkwgZYwDAYDVR0T
BAUwAwEB/zAdBgNVHQ4EFgQUTmUNO5KzWks0dfspJspTa6FlFX4wRQYDVR0jBD4w
PIAUTmUNO5KzWks0dfspJspTa6FlFX6hIaQfMB0xGzAZBgNVBAMMEndlYi1wbGF0
Zm9ybS10ZXN0c4IBATALBgNVHQ8EBAMCAgQwEwYDVR0lBAwwCgYIKwYBBQUHAwEw
DQYJKoZIhvcNAQELBQADggEBAMbw2R4kgjq41LOSAOoO1hfpjaB6NbxZuS2wa8In
dGZvJhjCdRRMKXY9KDxuZr48J1UXCfP0LRurtbVc9lwk0X01RTB+QRl5+KE4ys4w
NeDeHHf4/s3dJUwTGNeeizUEWCR+o/WJSPwo5xGI7Lg35S+LYbnzRBJqYsuzFl9h
d4zm1T/sQ5oie9LgOiUVSeR1CaOegmSpP5SGx6iHojRRh8lYiXZCALx80xd6QHmx
9awNnRSl21d/EDYheX6PYpFo0h/J03YYz5gTvyGhCcNAF54WgPRhI0bPeJsAp/pT
ALVn04KEeVDAruAPUVWE6FrNx2qDEd6CWHARuB5nqzAdpoI=
-----END CERTIFICATE-----
