Certificate:
    Data:
        Version: 3 (0x2)
        Serial Number: 95953 (0x176d1)
        Signature Algorithm: sha256WithRSAEncryption
        Issuer: CN=web-platform-tests
        Validity
            Not Before: Dec  6 17:12:36 2024 GMT
            Not After : Feb 22 17:12:36 2033 GMT
        Subject: CN=127.0.0.1
        Subject Public Key Info:
            Public Key Algorithm: rsaEncryption
                Public-Key: (2048 bit)
                Modulus:
                    00:c1:fe:d5:b9:6b:f6:33:13:f9:1a:bf:7a:5b:82:
                    b5:7a:ad:75:51:9c:27:04:2c:0e:dc:98:dd:0f:1c:
                    d5:45:f1:ab:53:30:62:46:3f:81:0c:d9:f2:ee:36:
                    56:0a:48:51:a0:9a:87:8d:f4:0b:55:47:e3:b1:51:
                    23:a2:47:8c:e1:0b:75:91:5a:6e:95:5e:e3:6f:fd:
                    e2:c8:36:68:54:88:98:72:87:82:66:29:02:ae:3d:
                    9d:45:98:21:35:61:a8:42:54:f5:31:9a:8f:d5:d9:
                    44:a2:6e:f6:f8:ac:e2:06:2d:7c:39:8c:67:c8:b6:
                    01:09:14:0e:1a:f9:aa:4d:c5:9d:de:d4:a0:5e:37:
                    fa:df:7f:a9:58:18:b0:35:73:c5:d3:c5:93:fd:16:
                    21:c4:bd:62:55:7e:ca:86:cb:98:43:52:cc:93:6a:
                    61:67:50:f3:6b:e4:34:2c:2c:9f:41:6f:fa:5c:f9:
                    a2:e9:ef:ee:24:8c:35:ff:ee:a0:c3:ef:0f:d6:4c:
                    73:5e:73:54:d5:f2:bf:05:01:75:4c:47:08:73:ed:
                    cd:74:6a:ce:63:2a:94:68:00:aa:94:2a:ca:0d:12:
                    76:b6:c7:8b:05:54:0b:c4:05:8c:53:e4:fa:88:30:
                    2a:74:5e:12:64:b8:37:38:18:af:eb:08:34:75:59:
                    b0:29
                Exponent: 65537 (0x10001)
        X509v3 extensions:
            X509v3 Basic Constraints: 
                CA:FALSE
            X509v3 Subject Key Identifier: 
                3C:26:F2:6F:7E:7D:8A:AD:1F:6C:0F:96:9C:89:F2:DA:CC:C3:0A:C6
            X509v3 Authority Key Identifier: 
                47:C8:FD:25:EC:65:5F:4F:6D:EF:8C:BC:92:F3:3D:90:13:B5:25:1E
            X509v3 Key Usage: 
                Digital Signature, Non Repudiation, Key Encipherment
            X509v3 Extended Key Usage: 
                TLS Web Server Authentication
            X509v3 Subject Alternative Name: 
                DNS:127.0.0.1, DNS:www.127.0.0.1, DNS:www1.127.0.0.1, DNS:www2.127.0.0.1, DNS:xn--lve-6lad.127.0.0.1, DNS:xn--n8j6ds53lwwkrqhv28a.127.0.0.1
    Signature Algorithm: sha256WithRSAEncryption
    Signature Value:
        67:6c:ac:56:fd:82:20:19:20:d9:97:0e:af:75:d3:82:1d:39:
        db:16:19:6a:9c:57:1c:3e:68:d4:54:bc:5d:9e:86:fa:30:2b:
        8c:b0:09:2d:08:04:9e:2c:a7:73:9e:e4:27:dc:1a:f9:05:de:
        8b:44:de:74:c8:9a:f1:ee:ab:fc:a6:2c:ed:a4:91:bc:e0:a7:
        bc:0c:84:ef:a9:cb:98:8a:96:a0:b0:5c:ba:52:cf:3f:73:22:
        a3:e2:7d:49:98:db:f0:2f:2f:47:ae:0a:14:20:34:ff:98:73:
        03:7e:d9:56:34:e6:25:63:f1:7b:43:88:d6:67:9a:38:29:d2:
        f9:b8:6b:e7:12:ed:9b:3d:01:fc:95:3d:3f:f0:da:77:19:8c:
        33:c3:3d:b3:a7:66:9a:b3:2a:79:3f:42:21:78:ce:02:d7:9d:
        7b:54:60:0d:df:25:c7:8f:e3:c8:2f:0b:69:a5:74:a6:53:40:
        bf:90:a3:5d:95:c8:d7:44:1e:dc:4e:a3:97:4d:db:40:1a:7d:
        43:e1:69:02:b0:25:eb:0f:8b:37:df:78:d2:f7:09:7b:e7:87:
        96:1b:46:3e:c1:bd:45:01:71:f3:10:ca:33:b1:0a:3f:3b:45:
        0e:3c:9a:1a:7a:0b:58:50:d3:ca:b3:bd:f6:d6:16:b5:74:db:
        86:21:59:2d
-----BEGIN CERTIFICATE-----
MIIDnzCCAoegAwIBAgIDAXbRMA0GCSqGSIb3DQEBCwUAMB0xGzAZBgNVBAMMEndl
Yi1wbGF0Zm9ybS10ZXN0czAeFw0yNDEyMDYxNzEyMzZaFw0zMzAyMjIxNzEyMzZa
MBQxEjAQBgNVBAMMCTEyNy4wLjAuMTCCASIwDQYJKoZIhvcNAQEBBQADggEPADCC
AQoCggEBAMH+1blr9jMT+Rq/eluCtXqtdVGcJwQsDtyY3Q8c1UXxq1MwYkY/gQzZ
8u42VgpIUaCah430C1VH47FRI6JHjOELdZFabpVe42/94sg2aFSImHKHgmYpAq49
nUWYITVhqEJU9TGaj9XZRKJu9vis4gYtfDmMZ8i2AQkUDhr5qk3Fnd7UoF43+t9/
qVgYsDVzxdPFk/0WIcS9YlV+yobLmENSzJNqYWdQ82vkNCwsn0Fv+lz5ounv7iSM
Nf/uoMPvD9ZMc15zVNXyvwUBdUxHCHPtzXRqzmMqlGgAqpQqyg0SdrbHiwVUC8QF
jFPk+ogwKnReEmS4NzgYr+sINHVZsCkCAwEAAaOB8DCB7TAJBgNVHRMEAjAAMB0G
A1UdDgQWBBQ8JvJvfn2KrR9sD5acifLazMMKxjAfBgNVHSMEGDAWgBRHyP0l7GVf
T23vjLyS8z2QE7UlHjALBgNVHQ8EBAMCBeAwEwYDVR0lBAwwCgYIKwYBBQUHAwEw
fgYDVR0RBHcwdYIJMTI3LjAuMC4xgg13d3cuMTI3LjAuMC4xgg53d3cxLjEyNy4w
LjAuMYIOd3d3Mi4xMjcuMC4wLjGCFnhuLS1sdmUtNmxhZC4xMjcuMC4wLjGCIXhu
LS1uOGo2ZHM1M2x3d2tycWh2MjhhLjEyNy4wLjAuMTANBgkqhkiG9w0BAQsFAAOC
AQEAZ2ysVv2CIBkg2ZcOr3XTgh052xYZapxXHD5o1FS8XZ6G+jArjLAJLQgEniyn
c57kJ9wa+QXei0TedMia8e6r/KYs7aSRvOCnvAyE76nLmIqWoLBculLPP3Mio+J9
SZjb8C8vR64KFCA0/5hzA37ZVjTmJWPxe0OI1meaOCnS+bhr5xLtmz0B/JU9P/Da
dxmMM8M9s6dmmrMqeT9CIXjOAtede1RgDd8lx4/jyC8LaaV0plNAv5CjXZXI10Qe
3E6jl03bQBp9Q+FpArAl6w+LN9940vcJe+eHlhtGPsG9RQFx8xDKM7EKPztFDjya
GnoLWFDTyrO99tYWtXTbhiFZLQ==
-----END CERTIFICATE-----
