Certificate:
    Data:
        Version: 3 (0x2)
        Serial Number: 2 (0x2)
    Signature Algorithm: sha256WithRSAEncryption
        Issuer: CN=web-platform-tests
        Validity
            Not Before: Oct 18 08:36:53 2016 GMT
            Not After : Jan  4 08:36:53 2025 GMT
        Subject: CN=127.0.0.1
        Subject Public Key Info:
            Public Key Algorithm: rsaEncryption
                Public-Key: (2048 bit)
                Modulus:
                    00:aa:bd:55:d1:6f:96:08:8b:8f:72:bd:ce:70:2c:
                    08:f5:28:8b:4c:03:ba:78:ad:d3:5e:a9:26:87:5f:
                    45:ce:7d:6e:cc:18:f9:73:cb:34:e0:d6:50:bc:47:
                    51:61:93:2d:4f:18:c5:61:77:9e:4e:8b:3f:eb:36:
                    f0:b9:1c:a4:c8:3e:73:0e:c8:fd:9a:32:cc:22:28:
                    46:00:c8:03:4a:46:42:bb:0d:06:c0:0e:87:1b:ca:
                    91:b8:84:7d:c9:38:41:a8:be:f9:46:cf:9e:7a:f2:
                    5c:12:98:9a:eb:34:fe:18:8e:e1:4d:f8:06:a9:43:
                    00:2d:bb:8b:ec:ad:f9:3e:9e:82:5b:83:32:f0:47:
                    2f:4c:aa:de:e6:83:27:0c:b3:3b:05:d9:ee:ee:1a:
                    f2:cd:39:d8:15:3a:3a:9d:63:1e:63:ed:77:ab:d9:
                    02:b1:63:b1:a0:62:49:4a:43:c5:9f:cc:e3:1d:7f:
                    54:92:9f:5e:4a:d7:27:78:32:c1:fa:33:58:66:86:
                    0b:44:3a:75:a6:05:2f:41:d3:3b:cb:f6:52:81:d3:
                    c9:0d:7b:99:22:0e:b9:18:f8:49:b3:99:b3:59:24:
                    cf:11:90:bb:bb:69:09:ef:9a:f9:8a:32:e0:a8:5c:
                    30:97:75:9f:0b:4c:80:b1:a3:40:de:e5:8f:d9:b7:
                    23:6f
                Exponent: 65537 (0x10001)
        X509v3 extensions:
            X509v3 Basic Constraints: 
                CA:FALSE
            X509v3 Subject Key Identifier: 
                A1:21:E0:6B:F3:A6:1B:7D:8C:F0:05:33:61:C7:1D:7D:47:6D:66:99
            X509v3 Authority Key Identifier: 
                keyid:4E:65:0D:3B:92:B3:5A:4B:34:75:FB:29:26:CA:53:6B:A1:65:15:7E

            X509v3 Key Usage: 
                Digital Signature, Non Repudiation, Key Encipherment
            X509v3 Extended Key Usage: 
                TLS Web Server Authentication
            X509v3 Subject Alternative Name: 
                DNS:127.0.0.1, DNS:www.127.0.0.1, DNS:xn--n8j6ds53lwwkrqhv28a.127.0.0.1, DNS:xn--lve-6lad.127.0.0.1, DNS:www2.127.0.0.1, DNS:www1.127.0.0.1
    Signature Algorithm: sha256WithRSAEncryption
         44:47:be:6b:b8:d7:34:79:ac:e7:a6:5a:5f:e8:2b:7f:c9:a9:
         04:1a:d5:75:a7:d6:3e:f7:98:b3:eb:37:ed:7d:96:37:44:0c:
         7c:ad:e9:8a:c6:50:69:56:63:91:3f:2b:b4:89:0c:f7:03:ae:
         69:b1:b0:d6:00:33:a6:7c:83:db:56:d0:e9:d8:fc:53:be:ad:
         b8:3e:3e:c4:e5:22:cd:d0:eb:a7:a5:75:f1:03:ba:bd:49:32:
         0b:1b:b7:2f:56:a8:98:14:43:58:d4:23:05:7c:b9:13:00:85:
         6e:70:e5:5a:45:1f:9e:4a:c0:06:72:93:38:24:9d:d2:d9:82:
         99:c8:5f:c2:c6:f2:f9:53:49:e1:cb:13:72:aa:07:e8:f3:83:
         a6:f4:4c:28:a6:94:7c:d7:e4:42:b0:de:d6:ec:0d:e2:af:2f:
         cd:44:c4:b6:cb:54:7d:d7:1f:32:4d:97:31:c7:6e:13:14:0e:
         a1:f8:6e:e4:b4:ee:15:83:fd:7e:29:e4:7b:06:35:d2:e3:9a:
         6e:79:aa:a1:a2:91:65:98:48:46:1b:33:36:ab:26:c2:76:18:
         94:82:ea:c0:a0:ca:9e:b1:98:5f:98:4d:d7:1c:89:b4:e9:72:
         0d:fa:b7:a9:c2:69:c3:0a:ee:f3:3e:fd:90:87:c8:0c:33:31:
         69:e1:c0:99
-----BEGIN CERTIFICATE-----
MIIDnTCCAoWgAwIBAgIBAjANBgkqhkiG9w0BAQsFADAdMRswGQYDVQQDDBJ3ZWIt
cGxhdGZvcm0tdGVzdHMwHhcNMTYxMDE4MDgzNjUzWhcNMjUwMTA0MDgzNjUzWjAU
MRIwEAYDVQQDDAkxMjcuMC4wLjEwggEiMA0GCSqGSIb3DQEBAQUAA4IBDwAwggEK
AoIBAQCqvVXRb5YIi49yvc5wLAj1KItMA7p4rdNeqSaHX0XOfW7MGPlzyzTg1lC8
R1Fhky1PGMVhd55Oiz/rNvC5HKTIPnMOyP2aMswiKEYAyANKRkK7DQbADocbypG4
hH3JOEGovvlGz5568lwSmJrrNP4YjuFN+AapQwAtu4vsrfk+noJbgzLwRy9Mqt7m
gycMszsF2e7uGvLNOdgVOjqdYx5j7Xer2QKxY7GgYklKQ8WfzOMdf1SSn15K1yd4
MsH6M1hmhgtEOnWmBS9B0zvL9lKB08kNe5kiDrkY+EmzmbNZJM8RkLu7aQnvmvmK
MuCoXDCXdZ8LTICxo0De5Y/ZtyNvAgMBAAGjgfAwge0wCQYDVR0TBAIwADAdBgNV
HQ4EFgQUoSHga/OmG32M8AUzYccdfUdtZpkwHwYDVR0jBBgwFoAUTmUNO5KzWks0
dfspJspTa6FlFX4wCwYDVR0PBAQDAgXgMBMGA1UdJQQMMAoGCCsGAQUFBwMBMH4G
A1UdEQR3MHWCCTEyNy4wLjAuMYINd3d3LjEyNy4wLjAuMYIheG4tLW44ajZkczUz
bHd3a3JxaHYyOGEuMTI3LjAuMC4xghZ4bi0tbHZlLTZsYWQuMTI3LjAuMC4xgg53
d3cyLjEyNy4wLjAuMYIOd3d3MS4xMjcuMC4wLjEwDQYJKoZIhvcNAQELBQADggEB
AERHvmu41zR5rOemWl/oK3/JqQQa1XWn1j73mLPrN+19ljdEDHyt6YrGUGlWY5E/
K7SJDPcDrmmxsNYAM6Z8g9tW0OnY/FO+rbg+PsTlIs3Q66eldfEDur1JMgsbty9W
qJgUQ1jUIwV8uRMAhW5w5VpFH55KwAZykzgkndLZgpnIX8LG8vlTSeHLE3KqB+jz
g6b0TCimlHzX5EKw3tbsDeKvL81ExLbLVH3XHzJNlzHHbhMUDqH4buS07hWD/X4p
5HsGNdLjmm55qqGikWWYSEYbMzarJsJ2GJSC6sCgyp6xmF+YTdccibTpcg36t6nC
acMK7vM+/ZCHyAwzMWnhwJk=
-----END CERTIFICATE-----
