[Created by: generate-chains.py]

Certificate chain where the intermediate contains an unknown non-critical
extension.

Certificate:
    Data:
        Version: 3 (0x2)
        Serial Number:
            15:0f:e8:d3:8e:fb:9a:03:b3:58:55:cb:3f:cf:6d:78:a5:26:b4:1f
        Signature Algorithm: sha256WithRSAEncryption
        Issuer: CN=Intermediate
        Validity
            Not Before: Oct  5 12:00:00 2022 GMT
            Not After : Oct  5 12:00:00 2023 GMT
        Subject: CN=Target
        Subject Public Key Info:
            Public Key Algorithm: rsaEncryption
                Public-Key: (2048 bit)
                Modulus:
                    00:c1:45:b7:c7:2a:57:db:f0:c6:44:38:af:69:b5:
                    8a:33:9c:bf:ba:bf:19:8f:a4:96:5f:61:74:0c:3c:
                    95:c0:24:0a:a9:55:c9:3b:a3:1c:93:b3:d8:d8:40:
                    92:4f:c9:c0:9c:51:41:bb:ee:eb:ef:83:4b:d2:a5:
                    2f:da:74:90:bc:45:3a:62:7b:5a:e2:0e:9e:b3:83:
                    c2:8e:67:02:a2:4f:4b:8a:5b:33:19:16:3e:0f:f6:
                    01:f6:b6:c2:6c:17:8f:63:d2:91:3e:6a:2d:08:c8:
                    7c:51:f8:24:2f:dc:f7:74:24:0e:b6:9b:85:c8:2b:
                    82:81:0f:04:5f:d6:53:1e:53:2f:7e:1c:16:fc:3a:
                    77:f3:7f:51:1a:16:e0:7a:a4:05:89:d3:4a:9d:91:
                    03:db:a5:6d:6e:60:cb:f9:40:53:0f:5d:f8:b4:70:
                    23:5a:c7:ff:bf:45:1c:f1:21:8c:4a:9b:11:f7:8c:
                    df:9f:8a:94:be:2b:16:f1:9b:07:90:0d:ff:28:1c:
                    0e:4c:21:36:4e:18:86:50:2d:24:c0:d3:ce:f5:66:
                    a2:96:28:01:56:ba:97:d9:f9:fe:c6:0c:af:2f:34:
                    c3:b7:e1:b3:8a:85:3d:52:ef:fc:61:10:97:17:35:
                    95:fb:c8:e2:ae:49:1f:b4:8a:a7:70:76:b7:c7:df:
                    6b:71
                Exponent: 65537 (0x10001)
        X509v3 extensions:
            X509v3 Subject Key Identifier: 
                49:9D:A7:97:77:91:95:74:7C:01:DC:46:BB:A1:09:4F:19:65:53:D1
            X509v3 Authority Key Identifier: 
                07:F3:ED:92:2A:F7:2C:67:60:A8:EF:86:B2:9B:CC:97:5C:FA:CF:5A
            Authority Information Access: 
                CA Issuers - URI:http://url-for-aia/Intermediate.cer
            X509v3 CRL Distribution Points: 
                Full Name:
                  URI:http://url-for-crl/Intermediate.crl
            X509v3 Key Usage: critical
                Digital Signature, Key Encipherment
            X509v3 Extended Key Usage: 
                TLS Web Server Authentication, TLS Web Client Authentication
    Signature Algorithm: sha256WithRSAEncryption
    Signature Value:
        7e:47:0b:6b:8f:6b:20:b1:a2:38:55:21:1c:62:21:f1:00:fb:
        5c:88:69:9f:b3:d3:58:52:7e:81:28:0b:71:20:5c:02:a3:1d:
        8b:17:6c:11:49:0c:f8:c5:70:6b:3c:4f:c6:69:2a:20:c4:7c:
        c6:ac:3c:bf:57:74:11:3d:b8:3c:58:a0:8e:a8:a0:1e:68:4b:
        4d:4c:2e:8d:49:72:55:9a:9e:0d:b0:1f:e2:9f:fb:e9:a0:e9:
        97:ba:68:ff:06:ae:71:03:98:26:b1:8e:62:e4:8f:3e:a5:f8:
        a0:0d:d3:d2:dd:f8:04:a0:2a:2f:56:81:20:73:dc:dc:81:e9:
        c6:81:fd:32:6b:37:37:9d:18:d8:e6:d5:e0:1b:93:a2:30:e6:
        39:c8:4a:da:ed:87:6a:0d:0d:ae:ac:90:40:18:54:64:be:f1:
        24:99:06:67:45:3e:6e:87:e8:bd:68:58:58:14:d4:08:ec:8e:
        e1:68:09:de:a7:cd:41:a9:66:57:c4:89:bc:bc:f7:ff:2e:24:
        71:7f:5b:63:09:90:7e:19:82:7c:89:b7:d5:3a:f3:f4:dc:9f:
        b3:1e:bf:5f:f7:ee:af:c3:03:c4:18:1a:f5:2a:e5:17:34:5c:
        70:90:08:79:fe:81:45:84:e4:1a:03:8b:8a:b5:d5:8a:8f:14:
        f0:e2:0c:a4
-----BEGIN CERTIFICATE-----
MIIDoDCCAoigAwIBAgIUFQ/o0477mgOzWFXLP89teKUmtB8wDQYJKoZIhvcNAQEL
BQAwFzEVMBMGA1UEAwwMSW50ZXJtZWRpYXRlMB4XDTIyMTAwNTEyMDAwMFoXDTIz
MTAwNTEyMDAwMFowETEPMA0GA1UEAwwGVGFyZ2V0MIIBIjANBgkqhkiG9w0BAQEF
AAOCAQ8AMIIBCgKCAQEAwUW3xypX2/DGRDivabWKM5y/ur8Zj6SWX2F0DDyVwCQK
qVXJO6Mck7PY2ECST8nAnFFBu+7r74NL0qUv2nSQvEU6Ynta4g6es4PCjmcCok9L
ilszGRY+D/YB9rbCbBePY9KRPmotCMh8UfgkL9z3dCQOtpuFyCuCgQ8EX9ZTHlMv
fhwW/Dp3839RGhbgeqQFidNKnZED26VtbmDL+UBTD134tHAjWsf/v0Uc8SGMSpsR
94zfn4qUvisW8ZsHkA3/KBwOTCE2ThiGUC0kwNPO9WailigBVrqX2fn+xgyvLzTD
t+GzioU9Uu/8YRCXFzWV+8jirkkftIqncHa3x99rcQIDAQABo4HpMIHmMB0GA1Ud
DgQWBBRJnaeXd5GVdHwB3Ea7oQlPGWVT0TAfBgNVHSMEGDAWgBQH8+2SKvcsZ2Co
74aym8yXXPrPWjA/BggrBgEFBQcBAQQzMDEwLwYIKwYBBQUHMAKGI2h0dHA6Ly91
cmwtZm9yLWFpYS9JbnRlcm1lZGlhdGUuY2VyMDQGA1UdHwQtMCswKaAnoCWGI2h0
dHA6Ly91cmwtZm9yLWNybC9JbnRlcm1lZGlhdGUuY3JsMA4GA1UdDwEB/wQEAwIF
oDAdBgNVHSUEFjAUBggrBgEFBQcDAQYIKwYBBQUHAwIwDQYJKoZIhvcNAQELBQAD
ggEBAH5HC2uPayCxojhVIRxiIfEA+1yIaZ+z01hSfoEoC3EgXAKjHYsXbBFJDPjF
cGs8T8ZpKiDEfMasPL9XdBE9uDxYoI6ooB5oS01MLo1JclWang2wH+Kf++mg6Ze6
aP8GrnEDmCaxjmLkjz6l+KAN09Ld+ASgKi9WgSBz3NyB6caB/TJrNzedGNjm1eAb
k6Iw5jnIStrth2oNDa6skEAYVGS+8SSZBmdFPm6H6L1oWFgU1AjsjuFoCd6nzUGp
ZlfEiby89/8uJHF/W2MJkH4ZgnyJt9U68/Tcn7Mev1/37q/DA8QYGvUq5Rc0XHCQ
CHn+gUWE5BoDi4q11YqPFPDiDKQ=
-----END CERTIFICATE-----

Certificate:
    Data:
        Version: 3 (0x2)
        Serial Number:
            29:7e:4d:0e:76:59:e5:dd:a7:55:bf:98:47:02:50:e5:71:03:33:72
        Signature Algorithm: sha256WithRSAEncryption
        Issuer: CN=Root
        Validity
            Not Before: Oct  5 12:00:00 2022 GMT
            Not After : Oct  5 12:00:00 2023 GMT
        Subject: CN=Intermediate
        Subject Public Key Info:
            Public Key Algorithm: rsaEncryption
                Public-Key: (2048 bit)
                Modulus:
                    00:c9:47:61:13:ce:5c:97:1f:40:92:f1:86:de:28:
                    e0:4e:e8:70:01:3a:19:75:23:4f:bd:7b:ec:b6:45:
                    5f:aa:5e:2c:58:bd:ed:17:3c:ad:fc:74:4e:97:48:
                    71:a3:ce:04:90:0f:cf:78:62:89:58:18:66:c5:b7:
                    c9:a2:80:48:57:ee:64:a8:17:90:8c:e1:51:6d:a3:
                    79:21:d0:67:9f:82:ba:89:70:6e:54:32:67:e2:f5:
                    d7:8c:de:f8:6f:21:86:26:11:89:e7:7a:52:ab:25:
                    a4:e9:53:0d:01:58:04:a1:8e:ce:93:52:36:33:82:
                    17:6f:4c:cd:5c:9b:ee:42:96:2f:5c:ef:e4:c1:8b:
                    db:78:ad:af:e3:9f:b6:1c:be:f1:1d:36:9b:63:92:
                    37:be:ea:27:49:b7:7b:89:73:93:2c:b2:cb:bb:74:
                    d4:a6:c2:fe:08:ae:e8:bc:e3:40:a7:4d:97:db:14:
                    26:6b:c8:02:d3:95:4a:9b:7b:12:69:d3:3f:e9:88:
                    07:d7:49:26:6f:87:85:aa:0f:be:88:3c:a7:f0:9f:
                    7f:21:f0:96:35:26:71:f1:f9:33:3f:f8:c8:92:64:
                    c1:7a:6a:6b:52:a8:54:dc:88:5c:75:93:81:7f:4f:
                    cc:c5:cf:51:4b:87:ff:4e:3c:e2:76:08:2d:fc:4d:
                    cf:0f
                Exponent: 65537 (0x10001)
        X509v3 extensions:
            X509v3 Subject Key Identifier: 
                07:F3:ED:92:2A:F7:2C:67:60:A8:EF:86:B2:9B:CC:97:5C:FA:CF:5A
            X509v3 Authority Key Identifier: 
                5E:73:41:09:27:46:17:12:6B:62:FF:2E:78:20:DE:7A:59:ED:29:84
            Authority Information Access: 
                CA Issuers - URI:http://url-for-aia/Root.cer
            X509v3 CRL Distribution Points: 
                Full Name:
                  URI:http://url-for-crl/Root.crl
            X509v3 Key Usage: critical
                Certificate Sign, CRL Sign
            X509v3 Basic Constraints: critical
                CA:TRUE
            1.2.3.4: 
                ....
    Signature Algorithm: sha256WithRSAEncryption
    Signature Value:
        4f:af:25:1b:75:d5:92:c4:c8:a6:9c:35:4c:2c:f0:fc:c1:58:
        f1:b9:65:36:4f:ca:89:70:1b:90:74:2f:dd:e2:b2:da:50:cc:
        bc:50:76:f1:ee:ae:00:d0:96:06:0e:7b:f9:77:2a:9a:90:a6:
        16:05:f1:80:82:27:77:a4:7d:37:d7:d1:7a:54:34:86:0d:a0:
        10:81:59:4e:6a:ba:40:07:5f:b8:59:c8:45:d5:f8:3d:6a:33:
        3e:64:36:97:9c:85:5e:ae:e1:0b:14:e2:2c:fa:63:fe:02:c9:
        53:2a:08:6c:fb:a4:7f:34:c9:60:d6:fc:03:8a:0a:96:d8:b7:
        69:14:3e:c3:2f:60:25:d4:04:17:d3:4c:d5:26:05:8b:ba:8f:
        7d:94:9f:03:30:d2:3c:cb:10:e7:79:7e:90:5c:40:15:47:ff:
        ce:cf:91:3e:9b:ef:5a:56:35:3b:6c:bd:99:0b:2b:9c:ff:8f:
        eb:93:c1:2e:f2:3e:b7:08:ef:c0:0c:87:5f:c9:9c:fc:1f:5e:
        b4:08:8d:34:c1:31:90:cd:da:cf:84:a0:af:a1:82:bc:b8:d4:
        25:ef:51:4b:0a:30:e4:48:ed:ba:f6:f8:64:9d:d4:f9:25:ad:
        94:19:d8:e1:ec:92:99:3b:e6:04:07:a7:2b:07:46:a7:cc:e8:
        da:63:cc:40
-----BEGIN CERTIFICATE-----
MIIDjTCCAnWgAwIBAgIUKX5NDnZZ5d2nVb+YRwJQ5XEDM3IwDQYJKoZIhvcNAQEL
BQAwDzENMAsGA1UEAwwEUm9vdDAeFw0yMjEwMDUxMjAwMDBaFw0yMzEwMDUxMjAw
MDBaMBcxFTATBgNVBAMMDEludGVybWVkaWF0ZTCCASIwDQYJKoZIhvcNAQEBBQAD
ggEPADCCAQoCggEBAMlHYRPOXJcfQJLxht4o4E7ocAE6GXUjT7177LZFX6peLFi9
7Rc8rfx0TpdIcaPOBJAPz3hiiVgYZsW3yaKASFfuZKgXkIzhUW2jeSHQZ5+Cuolw
blQyZ+L114ze+G8hhiYRied6UqslpOlTDQFYBKGOzpNSNjOCF29MzVyb7kKWL1zv
5MGL23itr+Ofthy+8R02m2OSN77qJ0m3e4lzkyyyy7t01KbC/giu6LzjQKdNl9sU
JmvIAtOVSpt7EmnTP+mIB9dJJm+HhaoPvog8p/CffyHwljUmcfH5Mz/4yJJkwXpq
a1KoVNyIXHWTgX9PzMXPUUuH/0484nYILfxNzw8CAwEAAaOB2DCB1TAdBgNVHQ4E
FgQUB/Ptkir3LGdgqO+GspvMl1z6z1owHwYDVR0jBBgwFoAUXnNBCSdGFxJrYv8u
eCDeelntKYQwNwYIKwYBBQUHAQEEKzApMCcGCCsGAQUFBzAChhtodHRwOi8vdXJs
LWZvci1haWEvUm9vdC5jZXIwLAYDVR0fBCUwIzAhoB+gHYYbaHR0cDovL3VybC1m
b3ItY3JsL1Jvb3QuY3JsMA4GA1UdDwEB/wQEAwIBBjAPBgNVHRMBAf8EBTADAQH/
MAsGAyoDBAQEAQIDBDANBgkqhkiG9w0BAQsFAAOCAQEAT68lG3XVksTIppw1TCzw
/MFY8bllNk/KiXAbkHQv3eKy2lDMvFB28e6uANCWBg57+XcqmpCmFgXxgIInd6R9
N9fRelQ0hg2gEIFZTmq6QAdfuFnIRdX4PWozPmQ2l5yFXq7hCxTiLPpj/gLJUyoI
bPukfzTJYNb8A4oKlti3aRQ+wy9gJdQEF9NM1SYFi7qPfZSfAzDSPMsQ53l+kFxA
FUf/zs+RPpvvWlY1O2y9mQsrnP+P65PBLvI+twjvwAyHX8mc/B9etAiNNMExkM3a
z4Sgr6GCvLjUJe9RSwow5Ejtuvb4ZJ3U+SWtlBnY4eySmTvmBAenKwdGp8zo2mPM
QA==
-----END CERTIFICATE-----

Certificate:
    Data:
        Version: 3 (0x2)
        Serial Number:
            29:7e:4d:0e:76:59:e5:dd:a7:55:bf:98:47:02:50:e5:71:03:33:71
        Signature Algorithm: sha256WithRSAEncryption
        Issuer: CN=Root
        Validity
            Not Before: Oct  5 12:00:00 2022 GMT
            Not After : Oct  5 12:00:00 2023 GMT
        Subject: CN=Root
        Subject Public Key Info:
            Public Key Algorithm: rsaEncryption
                Public-Key: (2048 bit)
                Modulus:
                    00:d0:c9:04:2a:e3:2c:61:f5:b8:fe:95:cf:f0:4f:
                    49:3a:13:bf:16:40:fd:16:d5:31:53:5b:2c:16:94:
                    96:7b:63:43:b0:04:9f:0c:9f:f9:30:48:94:ad:03:
                    c7:84:48:a0:9e:eb:7a:a4:d7:09:f7:48:4d:1d:d8:
                    05:59:46:52:33:43:a7:6c:c1:66:b4:8e:5a:3e:8a:
                    5b:bc:18:09:ff:c3:5b:c2:d7:1f:00:e1:5d:85:b1:
                    b6:8b:aa:ac:7a:9e:30:37:d8:57:c6:d8:82:f5:23:
                    80:16:2b:ff:95:5b:dc:24:61:0b:0f:62:14:e8:dd:
                    ee:5c:30:86:6d:4e:e9:99:b5:61:d1:94:cf:4c:f9:
                    c4:92:be:22:59:2d:be:ca:2c:d3:8d:9f:8e:ea:d3:
                    88:dc:cd:69:21:18:64:d2:66:23:50:d4:ca:38:76:
                    09:3d:f5:cc:42:91:a2:12:f1:f4:cb:86:83:7c:0d:
                    87:f7:89:a7:eb:ff:99:19:c6:04:22:b5:05:18:ca:
                    04:60:d3:61:b8:b2:b1:64:cf:c4:15:af:a4:62:f6:
                    a1:c6:cc:f9:f9:3d:3e:25:7c:03:a6:a6:17:d6:43:
                    90:7d:d8:04:f6:27:c7:79:cf:c9:96:b4:b3:b7:0e:
                    0a:fc:c4:ea:b4:ce:7e:67:e7:21:33:92:cc:11:af:
                    f2:9b
                Exponent: 65537 (0x10001)
        X509v3 extensions:
            X509v3 Subject Key Identifier: 
                5E:73:41:09:27:46:17:12:6B:62:FF:2E:78:20:DE:7A:59:ED:29:84
            X509v3 Authority Key Identifier: 
                5E:73:41:09:27:46:17:12:6B:62:FF:2E:78:20:DE:7A:59:ED:29:84
            Authority Information Access: 
                CA Issuers - URI:http://url-for-aia/Root.cer
            X509v3 CRL Distribution Points: 
                Full Name:
                  URI:http://url-for-crl/Root.crl
            X509v3 Key Usage: critical
                Certificate Sign, CRL Sign
            X509v3 Basic Constraints: critical
                CA:TRUE
    Signature Algorithm: sha256WithRSAEncryption
    Signature Value:
        a5:41:a2:36:6e:18:04:f9:23:13:bb:a1:6f:2e:d0:66:d5:17:
        5f:88:b3:7c:be:e9:1f:ce:09:c9:50:e1:cc:ae:d3:c7:80:0c:
        c4:1f:05:8b:08:b0:60:33:de:5b:2a:4a:82:86:cc:ce:38:f6:
        05:ca:fe:b7:db:f0:38:e6:d6:d1:d7:a1:27:bc:73:00:17:4c:
        c5:a8:3f:77:c2:0e:9f:90:48:00:93:bb:d4:f3:e5:0c:80:ba:
        8e:77:fe:fc:91:59:04:1a:bf:fa:8e:17:ac:2e:64:f6:f0:79:
        7d:1d:19:22:a9:a8:12:b0:4a:8b:8d:62:5b:47:08:19:b1:ba:
        b1:92:2a:3e:fe:1f:3b:76:3a:c3:60:2a:46:df:b0:de:ba:51:
        4d:88:48:c1:39:a5:be:27:83:55:24:a2:74:06:39:12:84:19:
        ac:2e:73:61:4d:16:39:31:b3:88:c3:56:10:fc:7a:13:41:60:
        aa:98:5e:c8:18:7c:f4:b7:ea:a7:b2:a5:23:ee:25:56:91:e9:
        4b:c5:88:3e:f7:d3:47:20:c0:43:cc:bc:d1:53:1b:98:0d:c8:
        6f:21:7d:f0:55:c9:e3:cd:49:39:5b:c1:8b:65:21:77:4e:8f:
        b7:18:3d:08:5d:5d:76:9e:42:12:a4:6e:f2:68:33:17:f6:9b:
        5f:8e:88:35
-----BEGIN CERTIFICATE-----
MIIDeDCCAmCgAwIBAgIUKX5NDnZZ5d2nVb+YRwJQ5XEDM3EwDQYJKoZIhvcNAQEL
BQAwDzENMAsGA1UEAwwEUm9vdDAeFw0yMjEwMDUxMjAwMDBaFw0yMzEwMDUxMjAw
MDBaMA8xDTALBgNVBAMMBFJvb3QwggEiMA0GCSqGSIb3DQEBAQUAA4IBDwAwggEK
AoIBAQDQyQQq4yxh9bj+lc/wT0k6E78WQP0W1TFTWywWlJZ7Y0OwBJ8Mn/kwSJSt
A8eESKCe63qk1wn3SE0d2AVZRlIzQ6dswWa0jlo+ilu8GAn/w1vC1x8A4V2FsbaL
qqx6njA32FfG2IL1I4AWK/+VW9wkYQsPYhTo3e5cMIZtTumZtWHRlM9M+cSSviJZ
Lb7KLNONn47q04jczWkhGGTSZiNQ1Mo4dgk99cxCkaIS8fTLhoN8DYf3iafr/5kZ
xgQitQUYygRg02G4srFkz8QVr6Ri9qHGzPn5PT4lfAOmphfWQ5B92AT2J8d5z8mW
tLO3Dgr8xOq0zn5n5yEzkswRr/KbAgMBAAGjgcswgcgwHQYDVR0OBBYEFF5zQQkn
RhcSa2L/Lngg3npZ7SmEMB8GA1UdIwQYMBaAFF5zQQknRhcSa2L/Lngg3npZ7SmE
MDcGCCsGAQUFBwEBBCswKTAnBggrBgEFBQcwAoYbaHR0cDovL3VybC1mb3ItYWlh
L1Jvb3QuY2VyMCwGA1UdHwQlMCMwIaAfoB2GG2h0dHA6Ly91cmwtZm9yLWNybC9S
b290LmNybDAOBgNVHQ8BAf8EBAMCAQYwDwYDVR0TAQH/BAUwAwEB/zANBgkqhkiG
9w0BAQsFAAOCAQEApUGiNm4YBPkjE7uhby7QZtUXX4izfL7pH84JyVDhzK7Tx4AM
xB8FiwiwYDPeWypKgobMzjj2Bcr+t9vwOObW0dehJ7xzABdMxag/d8IOn5BIAJO7
1PPlDIC6jnf+/JFZBBq/+o4XrC5k9vB5fR0ZIqmoErBKi41iW0cIGbG6sZIqPv4f
O3Y6w2AqRt+w3rpRTYhIwTmlvieDVSSidAY5EoQZrC5zYU0WOTGziMNWEPx6E0Fg
qpheyBh89Lfqp7KlI+4lVpHpS8WIPvfTRyDAQ8y80VMbmA3IbyF98FXJ481JOVvB
i2Uhd06Ptxg9CF1ddp5CEqRu8mgzF/abX46INQ==
-----END CERTIFICATE-----
