[Created by: generate-chains.py]

Certificate chain where the intermediate contains an unknown non-critical
extension.

Certificate:
    Data:
        Version: 3 (0x2)
        Serial Number:
            15:0f:e8:d3:8e:fb:9a:03:b3:58:55:cb:3f:cf:6d:78:a5:26:b4:1f
        Signature Algorithm: sha256WithRSAEncryption
        Issuer: CN=Intermediate
        Validity
            Not Before: Nov  3 12:00:00 2020 GMT
            Not After : Nov  3 12:00:00 2021 GMT
        Subject: CN=Target
        Subject Public Key Info:
            Public Key Algorithm: rsaEncryption
                RSA Public-Key: (2048 bit)
                Modulus:
                    00:c1:45:b7:c7:2a:57:db:f0:c6:44:38:af:69:b5:
                    8a:33:9c:bf:ba:bf:19:8f:a4:96:5f:61:74:0c:3c:
                    95:c0:24:0a:a9:55:c9:3b:a3:1c:93:b3:d8:d8:40:
                    92:4f:c9:c0:9c:51:41:bb:ee:eb:ef:83:4b:d2:a5:
                    2f:da:74:90:bc:45:3a:62:7b:5a:e2:0e:9e:b3:83:
                    c2:8e:67:02:a2:4f:4b:8a:5b:33:19:16:3e:0f:f6:
                    01:f6:b6:c2:6c:17:8f:63:d2:91:3e:6a:2d:08:c8:
                    7c:51:f8:24:2f:dc:f7:74:24:0e:b6:9b:85:c8:2b:
                    82:81:0f:04:5f:d6:53:1e:53:2f:7e:1c:16:fc:3a:
                    77:f3:7f:51:1a:16:e0:7a:a4:05:89:d3:4a:9d:91:
                    03:db:a5:6d:6e:60:cb:f9:40:53:0f:5d:f8:b4:70:
                    23:5a:c7:ff:bf:45:1c:f1:21:8c:4a:9b:11:f7:8c:
                    df:9f:8a:94:be:2b:16:f1:9b:07:90:0d:ff:28:1c:
                    0e:4c:21:36:4e:18:86:50:2d:24:c0:d3:ce:f5:66:
                    a2:96:28:01:56:ba:97:d9:f9:fe:c6:0c:af:2f:34:
                    c3:b7:e1:b3:8a:85:3d:52:ef:fc:61:10:97:17:35:
                    95:fb:c8:e2:ae:49:1f:b4:8a:a7:70:76:b7:c7:df:
                    6b:71
                Exponent: 65537 (0x10001)
        X509v3 extensions:
            X509v3 Subject Key Identifier: 
                49:9D:A7:97:77:91:95:74:7C:01:DC:46:BB:A1:09:4F:19:65:53:D1
            X509v3 Authority Key Identifier: 
                keyid:07:F3:ED:92:2A:F7:2C:67:60:A8:EF:86:B2:9B:CC:97:5C:FA:CF:5A

            Authority Information Access: 
                CA Issuers - URI:http://url-for-aia/Intermediate.cer

            X509v3 CRL Distribution Points: 

                Full Name:
                  URI:http://url-for-crl/Intermediate.crl

            X509v3 Key Usage: critical
                Digital Signature, Key Encipherment
            X509v3 Extended Key Usage: 
                TLS Web Server Authentication, TLS Web Client Authentication
    Signature Algorithm: sha256WithRSAEncryption
         bc:6e:aa:44:09:e7:75:7a:90:e7:33:5e:97:96:ca:2e:8d:68:
         17:92:7d:23:fc:2f:c5:15:78:dd:0c:af:56:42:09:e0:59:f2:
         d3:03:7f:6c:0a:a6:23:67:34:b6:1c:ec:04:8c:e1:75:71:f5:
         ec:ad:55:1a:e0:51:09:56:37:b8:6e:7f:6b:45:13:2e:af:c6:
         65:79:d9:95:e9:73:ce:0e:fa:44:45:6f:fa:bc:f3:38:8a:a3:
         ae:30:4c:27:3d:56:4a:81:13:16:6e:75:97:5a:ba:25:48:e6:
         21:18:17:48:39:6d:74:7c:5a:df:3b:05:99:05:99:0a:6e:bc:
         41:91:76:65:99:99:c5:a5:05:50:16:34:5b:45:d1:f0:c5:bd:
         b9:28:02:88:17:c1:7b:a2:79:7e:99:31:4d:22:21:07:ed:38:
         d3:54:ae:25:0f:11:3f:9b:98:72:15:06:45:63:39:75:dc:c2:
         29:36:2d:d3:5c:90:cd:55:c1:25:5c:cd:93:71:f4:bc:20:93:
         e0:83:38:2a:9c:0e:23:d1:1d:9d:d3:06:d1:b4:de:74:ba:14:
         33:a9:9c:17:8c:33:ff:3a:ba:aa:60:98:4b:21:52:2b:62:4f:
         68:26:4d:3f:50:e4:0a:5b:3e:36:6d:dd:b4:16:18:b4:00:70:
         ca:6f:53:55
-----BEGIN CERTIFICATE-----
MIIDoDCCAoigAwIBAgIUFQ/o0477mgOzWFXLP89teKUmtB8wDQYJKoZIhvcNAQEL
BQAwFzEVMBMGA1UEAwwMSW50ZXJtZWRpYXRlMB4XDTIwMTEwMzEyMDAwMFoXDTIx
MTEwMzEyMDAwMFowETEPMA0GA1UEAwwGVGFyZ2V0MIIBIjANBgkqhkiG9w0BAQEF
AAOCAQ8AMIIBCgKCAQEAwUW3xypX2/DGRDivabWKM5y/ur8Zj6SWX2F0DDyVwCQK
qVXJO6Mck7PY2ECST8nAnFFBu+7r74NL0qUv2nSQvEU6Ynta4g6es4PCjmcCok9L
ilszGRY+D/YB9rbCbBePY9KRPmotCMh8UfgkL9z3dCQOtpuFyCuCgQ8EX9ZTHlMv
fhwW/Dp3839RGhbgeqQFidNKnZED26VtbmDL+UBTD134tHAjWsf/v0Uc8SGMSpsR
94zfn4qUvisW8ZsHkA3/KBwOTCE2ThiGUC0kwNPO9WailigBVrqX2fn+xgyvLzTD
t+GzioU9Uu/8YRCXFzWV+8jirkkftIqncHa3x99rcQIDAQABo4HpMIHmMB0GA1Ud
DgQWBBRJnaeXd5GVdHwB3Ea7oQlPGWVT0TAfBgNVHSMEGDAWgBQH8+2SKvcsZ2Co
74aym8yXXPrPWjA/BggrBgEFBQcBAQQzMDEwLwYIKwYBBQUHMAKGI2h0dHA6Ly91
cmwtZm9yLWFpYS9JbnRlcm1lZGlhdGUuY2VyMDQGA1UdHwQtMCswKaAnoCWGI2h0
dHA6Ly91cmwtZm9yLWNybC9JbnRlcm1lZGlhdGUuY3JsMA4GA1UdDwEB/wQEAwIF
oDAdBgNVHSUEFjAUBggrBgEFBQcDAQYIKwYBBQUHAwIwDQYJKoZIhvcNAQELBQAD
ggEBALxuqkQJ53V6kOczXpeWyi6NaBeSfSP8L8UVeN0Mr1ZCCeBZ8tMDf2wKpiNn
NLYc7ASM4XVx9eytVRrgUQlWN7huf2tFEy6vxmV52ZXpc84O+kRFb/q88ziKo64w
TCc9VkqBExZudZdauiVI5iEYF0g5bXR8Wt87BZkFmQpuvEGRdmWZmcWlBVAWNFtF
0fDFvbkoAogXwXuieX6ZMU0iIQftONNUriUPET+bmHIVBkVjOXXcwik2LdNckM1V
wSVczZNx9Lwgk+CDOCqcDiPRHZ3TBtG03nS6FDOpnBeMM/86uqpgmEshUitiT2gm
TT9Q5ApbPjZt3bQWGLQAcMpvU1U=
-----END CERTIFICATE-----

Certificate:
    Data:
        Version: 3 (0x2)
        Serial Number:
            29:7e:4d:0e:76:59:e5:dd:a7:55:bf:98:47:02:50:e5:71:03:33:72
        Signature Algorithm: sha256WithRSAEncryption
        Issuer: CN=Root
        Validity
            Not Before: Nov  3 12:00:00 2020 GMT
            Not After : Nov  3 12:00:00 2021 GMT
        Subject: CN=Intermediate
        Subject Public Key Info:
            Public Key Algorithm: rsaEncryption
                RSA Public-Key: (2048 bit)
                Modulus:
                    00:c9:47:61:13:ce:5c:97:1f:40:92:f1:86:de:28:
                    e0:4e:e8:70:01:3a:19:75:23:4f:bd:7b:ec:b6:45:
                    5f:aa:5e:2c:58:bd:ed:17:3c:ad:fc:74:4e:97:48:
                    71:a3:ce:04:90:0f:cf:78:62:89:58:18:66:c5:b7:
                    c9:a2:80:48:57:ee:64:a8:17:90:8c:e1:51:6d:a3:
                    79:21:d0:67:9f:82:ba:89:70:6e:54:32:67:e2:f5:
                    d7:8c:de:f8:6f:21:86:26:11:89:e7:7a:52:ab:25:
                    a4:e9:53:0d:01:58:04:a1:8e:ce:93:52:36:33:82:
                    17:6f:4c:cd:5c:9b:ee:42:96:2f:5c:ef:e4:c1:8b:
                    db:78:ad:af:e3:9f:b6:1c:be:f1:1d:36:9b:63:92:
                    37:be:ea:27:49:b7:7b:89:73:93:2c:b2:cb:bb:74:
                    d4:a6:c2:fe:08:ae:e8:bc:e3:40:a7:4d:97:db:14:
                    26:6b:c8:02:d3:95:4a:9b:7b:12:69:d3:3f:e9:88:
                    07:d7:49:26:6f:87:85:aa:0f:be:88:3c:a7:f0:9f:
                    7f:21:f0:96:35:26:71:f1:f9:33:3f:f8:c8:92:64:
                    c1:7a:6a:6b:52:a8:54:dc:88:5c:75:93:81:7f:4f:
                    cc:c5:cf:51:4b:87:ff:4e:3c:e2:76:08:2d:fc:4d:
                    cf:0f
                Exponent: 65537 (0x10001)
        X509v3 extensions:
            X509v3 Subject Key Identifier: 
                07:F3:ED:92:2A:F7:2C:67:60:A8:EF:86:B2:9B:CC:97:5C:FA:CF:5A
            X509v3 Authority Key Identifier: 
                keyid:5E:73:41:09:27:46:17:12:6B:62:FF:2E:78:20:DE:7A:59:ED:29:84

            Authority Information Access: 
                CA Issuers - URI:http://url-for-aia/Root.cer

            X509v3 CRL Distribution Points: 

                Full Name:
                  URI:http://url-for-crl/Root.crl

            X509v3 Key Usage: critical
                Certificate Sign, CRL Sign
            X509v3 Basic Constraints: critical
                CA:TRUE
            1.2.3.4: 
                ....
    Signature Algorithm: sha256WithRSAEncryption
         03:cd:e4:26:b5:46:6a:ac:9f:3d:59:12:29:25:ec:d5:14:4a:
         cf:64:19:22:f6:78:d1:7e:b7:a6:a0:c9:89:f9:1e:34:22:ad:
         41:0e:ea:a3:4c:ce:b6:97:1f:d3:86:9c:bc:5f:f3:8d:2b:f6:
         7d:34:0f:35:4f:63:3f:bc:85:68:d5:09:ec:d6:22:51:e8:8d:
         48:05:c7:8a:8a:cf:a8:6c:bc:70:13:1a:87:b5:13:99:76:8a:
         bd:0e:8c:b6:42:a5:9c:98:e8:80:fc:49:ce:56:6b:b0:cf:b9:
         20:6d:c1:70:b7:aa:fa:81:a2:f0:10:9b:a9:90:87:fc:57:83:
         df:6f:cc:44:d4:76:ff:32:ef:c6:23:50:4d:93:3a:bf:cf:4e:
         0a:ab:f0:bb:b1:6e:fc:bf:f4:03:74:2c:1b:0a:03:1a:db:ca:
         b2:7b:2b:46:e9:09:20:b4:11:e9:7e:eb:ba:07:49:a4:c7:c0:
         51:5b:a5:f2:43:ec:d1:17:ab:70:be:0e:6d:ea:06:b0:6e:71:
         1d:82:44:a2:72:61:ca:7c:3a:33:f8:04:43:06:05:55:30:3a:
         30:15:cc:71:6f:f1:7c:d7:c9:35:07:55:0a:60:86:61:3a:d8:
         62:06:cc:4b:b4:83:f6:6a:46:e2:bd:b7:66:c3:2d:3d:81:a3:
         7f:2b:da:7b
-----BEGIN CERTIFICATE-----
MIIDjTCCAnWgAwIBAgIUKX5NDnZZ5d2nVb+YRwJQ5XEDM3IwDQYJKoZIhvcNAQEL
BQAwDzENMAsGA1UEAwwEUm9vdDAeFw0yMDExMDMxMjAwMDBaFw0yMTExMDMxMjAw
MDBaMBcxFTATBgNVBAMMDEludGVybWVkaWF0ZTCCASIwDQYJKoZIhvcNAQEBBQAD
ggEPADCCAQoCggEBAMlHYRPOXJcfQJLxht4o4E7ocAE6GXUjT7177LZFX6peLFi9
7Rc8rfx0TpdIcaPOBJAPz3hiiVgYZsW3yaKASFfuZKgXkIzhUW2jeSHQZ5+Cuolw
blQyZ+L114ze+G8hhiYRied6UqslpOlTDQFYBKGOzpNSNjOCF29MzVyb7kKWL1zv
5MGL23itr+Ofthy+8R02m2OSN77qJ0m3e4lzkyyyy7t01KbC/giu6LzjQKdNl9sU
JmvIAtOVSpt7EmnTP+mIB9dJJm+HhaoPvog8p/CffyHwljUmcfH5Mz/4yJJkwXpq
a1KoVNyIXHWTgX9PzMXPUUuH/0484nYILfxNzw8CAwEAAaOB2DCB1TAdBgNVHQ4E
FgQUB/Ptkir3LGdgqO+GspvMl1z6z1owHwYDVR0jBBgwFoAUXnNBCSdGFxJrYv8u
eCDeelntKYQwNwYIKwYBBQUHAQEEKzApMCcGCCsGAQUFBzAChhtodHRwOi8vdXJs
LWZvci1haWEvUm9vdC5jZXIwLAYDVR0fBCUwIzAhoB+gHYYbaHR0cDovL3VybC1m
b3ItY3JsL1Jvb3QuY3JsMA4GA1UdDwEB/wQEAwIBBjAPBgNVHRMBAf8EBTADAQH/
MAsGAyoDBAQEAQIDBDANBgkqhkiG9w0BAQsFAAOCAQEAA83kJrVGaqyfPVkSKSXs
1RRKz2QZIvZ40X63pqDJifkeNCKtQQ7qo0zOtpcf04acvF/zjSv2fTQPNU9jP7yF
aNUJ7NYiUeiNSAXHiorPqGy8cBMah7UTmXaKvQ6MtkKlnJjogPxJzlZrsM+5IG3B
cLeq+oGi8BCbqZCH/FeD32/MRNR2/zLvxiNQTZM6v89OCqvwu7Fu/L/0A3QsGwoD
GtvKsnsrRukJILQR6X7rugdJpMfAUVul8kPs0RercL4ObeoGsG5xHYJEonJhynw6
M/gEQwYFVTA6MBXMcW/xfNfJNQdVCmCGYTrYYgbMS7SD9mpG4r23ZsMtPYGjfyva
ew==
-----END CERTIFICATE-----

Certificate:
    Data:
        Version: 3 (0x2)
        Serial Number:
            29:7e:4d:0e:76:59:e5:dd:a7:55:bf:98:47:02:50:e5:71:03:33:71
        Signature Algorithm: sha256WithRSAEncryption
        Issuer: CN=Root
        Validity
            Not Before: Nov  3 12:00:00 2020 GMT
            Not After : Nov  3 12:00:00 2021 GMT
        Subject: CN=Root
        Subject Public Key Info:
            Public Key Algorithm: rsaEncryption
                RSA Public-Key: (2048 bit)
                Modulus:
                    00:d0:c9:04:2a:e3:2c:61:f5:b8:fe:95:cf:f0:4f:
                    49:3a:13:bf:16:40:fd:16:d5:31:53:5b:2c:16:94:
                    96:7b:63:43:b0:04:9f:0c:9f:f9:30:48:94:ad:03:
                    c7:84:48:a0:9e:eb:7a:a4:d7:09:f7:48:4d:1d:d8:
                    05:59:46:52:33:43:a7:6c:c1:66:b4:8e:5a:3e:8a:
                    5b:bc:18:09:ff:c3:5b:c2:d7:1f:00:e1:5d:85:b1:
                    b6:8b:aa:ac:7a:9e:30:37:d8:57:c6:d8:82:f5:23:
                    80:16:2b:ff:95:5b:dc:24:61:0b:0f:62:14:e8:dd:
                    ee:5c:30:86:6d:4e:e9:99:b5:61:d1:94:cf:4c:f9:
                    c4:92:be:22:59:2d:be:ca:2c:d3:8d:9f:8e:ea:d3:
                    88:dc:cd:69:21:18:64:d2:66:23:50:d4:ca:38:76:
                    09:3d:f5:cc:42:91:a2:12:f1:f4:cb:86:83:7c:0d:
                    87:f7:89:a7:eb:ff:99:19:c6:04:22:b5:05:18:ca:
                    04:60:d3:61:b8:b2:b1:64:cf:c4:15:af:a4:62:f6:
                    a1:c6:cc:f9:f9:3d:3e:25:7c:03:a6:a6:17:d6:43:
                    90:7d:d8:04:f6:27:c7:79:cf:c9:96:b4:b3:b7:0e:
                    0a:fc:c4:ea:b4:ce:7e:67:e7:21:33:92:cc:11:af:
                    f2:9b
                Exponent: 65537 (0x10001)
        X509v3 extensions:
            X509v3 Subject Key Identifier: 
                5E:73:41:09:27:46:17:12:6B:62:FF:2E:78:20:DE:7A:59:ED:29:84
            X509v3 Authority Key Identifier: 
                keyid:5E:73:41:09:27:46:17:12:6B:62:FF:2E:78:20:DE:7A:59:ED:29:84

            Authority Information Access: 
                CA Issuers - URI:http://url-for-aia/Root.cer

            X509v3 CRL Distribution Points: 

                Full Name:
                  URI:http://url-for-crl/Root.crl

            X509v3 Key Usage: critical
                Certificate Sign, CRL Sign
            X509v3 Basic Constraints: critical
                CA:TRUE
    Signature Algorithm: sha256WithRSAEncryption
         19:94:32:f3:7c:81:77:6a:d9:5b:70:44:26:4a:c5:89:23:11:
         c4:ea:40:a4:4d:cc:b9:66:cc:68:95:5f:6d:05:4c:90:39:35:
         3e:2a:41:93:0e:e7:0e:4a:08:88:1b:27:d8:1f:e7:41:d8:6b:
         c1:df:bd:65:9f:ce:47:0d:65:c7:d8:78:b3:0c:53:c9:49:02:
         c9:ee:03:19:d4:45:82:7e:8a:4d:33:c1:d5:dc:6a:b3:a6:44:
         60:f4:08:2b:26:12:89:eb:95:39:e0:3e:09:32:c8:f2:e5:16:
         ce:d7:68:7b:a1:d5:e3:a9:15:f1:c4:9f:93:58:45:55:a7:f4:
         0b:38:2b:1d:54:a8:68:06:81:e4:3c:0a:84:e0:df:ca:fa:3a:
         c3:de:ce:ab:82:e5:5e:4f:f8:5e:ba:98:1f:c6:59:89:74:5c:
         7a:ca:0b:d0:8c:00:f3:56:d7:19:40:1c:f7:c8:95:63:39:e6:
         18:0c:5c:14:cd:f4:7a:54:b9:5f:5c:32:51:a6:ea:00:f4:f1:
         ed:a5:92:54:2b:00:87:af:81:ca:39:ea:a6:14:8e:77:52:dd:
         17:f1:e9:9f:0f:9f:b2:bf:64:cc:d3:c6:39:0a:7d:8d:52:2e:
         37:11:ca:72:9b:15:63:29:8c:2b:3b:b0:19:1d:00:04:00:b4:
         46:5b:04:da
-----BEGIN CERTIFICATE-----
MIIDeDCCAmCgAwIBAgIUKX5NDnZZ5d2nVb+YRwJQ5XEDM3EwDQYJKoZIhvcNAQEL
BQAwDzENMAsGA1UEAwwEUm9vdDAeFw0yMDExMDMxMjAwMDBaFw0yMTExMDMxMjAw
MDBaMA8xDTALBgNVBAMMBFJvb3QwggEiMA0GCSqGSIb3DQEBAQUAA4IBDwAwggEK
AoIBAQDQyQQq4yxh9bj+lc/wT0k6E78WQP0W1TFTWywWlJZ7Y0OwBJ8Mn/kwSJSt
A8eESKCe63qk1wn3SE0d2AVZRlIzQ6dswWa0jlo+ilu8GAn/w1vC1x8A4V2FsbaL
qqx6njA32FfG2IL1I4AWK/+VW9wkYQsPYhTo3e5cMIZtTumZtWHRlM9M+cSSviJZ
Lb7KLNONn47q04jczWkhGGTSZiNQ1Mo4dgk99cxCkaIS8fTLhoN8DYf3iafr/5kZ
xgQitQUYygRg02G4srFkz8QVr6Ri9qHGzPn5PT4lfAOmphfWQ5B92AT2J8d5z8mW
tLO3Dgr8xOq0zn5n5yEzkswRr/KbAgMBAAGjgcswgcgwHQYDVR0OBBYEFF5zQQkn
RhcSa2L/Lngg3npZ7SmEMB8GA1UdIwQYMBaAFF5zQQknRhcSa2L/Lngg3npZ7SmE
MDcGCCsGAQUFBwEBBCswKTAnBggrBgEFBQcwAoYbaHR0cDovL3VybC1mb3ItYWlh
L1Jvb3QuY2VyMCwGA1UdHwQlMCMwIaAfoB2GG2h0dHA6Ly91cmwtZm9yLWNybC9S
b290LmNybDAOBgNVHQ8BAf8EBAMCAQYwDwYDVR0TAQH/BAUwAwEB/zANBgkqhkiG
9w0BAQsFAAOCAQEAGZQy83yBd2rZW3BEJkrFiSMRxOpApE3MuWbMaJVfbQVMkDk1
PipBkw7nDkoIiBsn2B/nQdhrwd+9ZZ/ORw1lx9h4swxTyUkCye4DGdRFgn6KTTPB
1dxqs6ZEYPQIKyYSieuVOeA+CTLI8uUWztdoe6HV46kV8cSfk1hFVaf0CzgrHVSo
aAaB5DwKhODfyvo6w97Oq4LlXk/4XrqYH8ZZiXRcesoL0IwA81bXGUAc98iVYznm
GAxcFM30elS5X1wyUabqAPTx7aWSVCsAh6+ByjnqphSOd1LdF/Hpnw+fsr9kzNPG
OQp9jVIuNxHKcpsVYymMKzuwGR0ABAC0RlsE2g==
-----END CERTIFICATE-----
