[Created by: generate-chains.py]

Simple certificate chain for a serverAuth which is comprised of a root,
intermediate, and leaf certificate.

Certificate:
    Data:
        Version: 3 (0x2)
        Serial Number:
            36:ca:7f:6d:80:1b:f8:bd:48:70:cd:9e:69:48:89:43:5e:d7:40:41
        Signature Algorithm: sha256WithRSAEncryption
        Issuer: CN=Intermediate
        Validity
            Not Before: Oct  5 12:00:00 2022 GMT
            Not After : Oct  5 12:00:00 2023 GMT
        Subject: CN=Target
        Subject Public Key Info:
            Public Key Algorithm: rsaEncryption
                Public-Key: (2048 bit)
                Modulus:
                    00:ca:19:b1:9d:8f:85:f5:a4:a8:8a:0d:d3:7f:f3:
                    67:67:b1:d1:db:3d:69:8c:fa:bb:53:58:28:50:14:
                    2f:06:aa:7e:f5:c6:06:4d:7d:76:9f:ee:33:d8:c8:
                    6c:16:e8:65:df:d0:c0:9a:62:49:60:2a:d9:53:b6:
                    6d:c6:27:32:13:58:b2:c3:64:63:61:bf:6b:40:ea:
                    24:9c:a6:15:ae:2b:38:e7:70:58:12:46:92:5f:a5:
                    70:6c:ea:50:3c:7b:9b:33:50:54:93:a4:9c:41:e0:
                    40:7e:18:87:8a:52:d5:1d:66:f3:f0:f7:54:3f:55:
                    61:f5:66:1c:a6:0d:73:57:a3:78:1a:4c:99:7d:77:
                    e0:aa:c5:c5:5e:49:21:35:4e:47:3d:61:7d:43:9b:
                    e0:94:28:b7:65:4d:cf:7e:52:2c:2a:b3:93:94:8b:
                    0f:04:f6:45:20:83:97:b7:a4:dd:ef:8d:1f:c7:c5:
                    29:d4:55:9f:a3:90:38:14:46:f6:7e:13:9e:99:6d:
                    41:b0:c4:00:69:58:e6:7f:ac:a5:0a:e4:ad:c8:e3:
                    c1:a1:2a:a1:77:83:e9:f0:d1:c2:5b:48:10:33:59:
                    4e:8d:0e:d7:01:0a:3c:11:e0:bf:cf:e8:2f:47:4b:
                    f6:d6:95:4d:c0:73:a7:b5:21:a4:0a:98:dc:fa:9b:
                    0d:87
                Exponent: 65537 (0x10001)
        X509v3 extensions:
            X509v3 Subject Key Identifier: 
                4A:80:F9:C0:2F:58:C5:F9:EB:98:BA:65:70:D0:81:0A:DA:16:C3:E0
            X509v3 Authority Key Identifier: 
                F3:3D:8D:B6:D6:56:60:17:BC:E3:79:08:BF:E8:D0:61:78:8E:0C:00
            Authority Information Access: 
                CA Issuers - URI:http://url-for-aia/Intermediate.cer
            X509v3 CRL Distribution Points: 
                Full Name:
                  URI:http://url-for-crl/Intermediate.crl
            X509v3 Key Usage: critical
                Digital Signature, Key Encipherment
            X509v3 Extended Key Usage: 
                TLS Web Server Authentication, TLS Web Client Authentication
    Signature Algorithm: sha256WithRSAEncryption
    Signature Value:
        30:6c:25:11:1b:fd:ac:b4:4d:0e:bf:b0:e0:fc:1b:10:af:a1:
        20:4a:ed:d3:9b:c8:e3:76:c8:eb:b9:50:13:e0:8d:a1:2e:9c:
        c7:88:b9:fc:c6:c0:33:1f:58:11:45:61:91:4f:06:c9:57:e0:
        ee:04:81:61:b1:64:62:6f:d9:72:30:05:cc:79:89:e3:78:1a:
        63:72:b8:da:72:ac:c1:f1:3f:1a:70:e4:03:e2:a2:c2:83:62:
        ab:93:89:3e:25:3c:f6:2b:d5:5e:db:b3:fc:f1:be:44:ab:f4:
        15:8d:d1:7d:e6:e4:d7:a4:0a:33:ed:e0:05:da:de:c4:52:44:
        7f:ec:82:25:27:08:63:d7:ea:44:09:d4:cb:4c:f0:3a:c7:15:
        7a:fd:53:ef:40:65:e6:bb:23:78:d6:3a:40:05:74:3e:75:8e:
        9c:9c:27:83:66:7a:2f:8a:d7:77:1f:db:23:e0:2d:c5:cf:da:
        b0:8e:11:18:aa:4a:98:4c:44:e5:2a:ec:fe:39:28:4e:53:fa:
        c7:db:72:86:c1:7f:b9:8f:cd:c9:1e:9a:03:9d:d6:94:f1:73:
        14:57:e1:3f:42:55:19:4c:9d:f4:bc:3d:8d:34:52:b7:77:38:
        e8:13:c7:c5:e8:c9:98:29:a6:35:ed:b8:c8:5a:bf:ec:36:e9:
        2c:6e:fc:5a
-----BEGIN CERTIFICATE-----
MIIDoDCCAoigAwIBAgIUNsp/bYAb+L1IcM2eaUiJQ17XQEEwDQYJKoZIhvcNAQEL
BQAwFzEVMBMGA1UEAwwMSW50ZXJtZWRpYXRlMB4XDTIyMTAwNTEyMDAwMFoXDTIz
MTAwNTEyMDAwMFowETEPMA0GA1UEAwwGVGFyZ2V0MIIBIjANBgkqhkiG9w0BAQEF
AAOCAQ8AMIIBCgKCAQEAyhmxnY+F9aSoig3Tf/NnZ7HR2z1pjPq7U1goUBQvBqp+
9cYGTX12n+4z2MhsFuhl39DAmmJJYCrZU7ZtxicyE1iyw2RjYb9rQOoknKYVris4
53BYEkaSX6VwbOpQPHubM1BUk6ScQeBAfhiHilLVHWbz8PdUP1Vh9WYcpg1zV6N4
GkyZfXfgqsXFXkkhNU5HPWF9Q5vglCi3ZU3PflIsKrOTlIsPBPZFIIOXt6Td740f
x8Up1FWfo5A4FEb2fhOemW1BsMQAaVjmf6ylCuStyOPBoSqhd4Pp8NHCW0gQM1lO
jQ7XAQo8EeC/z+gvR0v21pVNwHOntSGkCpjc+psNhwIDAQABo4HpMIHmMB0GA1Ud
DgQWBBRKgPnAL1jF+euYumVw0IEK2hbD4DAfBgNVHSMEGDAWgBTzPY221lZgF7zj
eQi/6NBheI4MADA/BggrBgEFBQcBAQQzMDEwLwYIKwYBBQUHMAKGI2h0dHA6Ly91
cmwtZm9yLWFpYS9JbnRlcm1lZGlhdGUuY2VyMDQGA1UdHwQtMCswKaAnoCWGI2h0
dHA6Ly91cmwtZm9yLWNybC9JbnRlcm1lZGlhdGUuY3JsMA4GA1UdDwEB/wQEAwIF
oDAdBgNVHSUEFjAUBggrBgEFBQcDAQYIKwYBBQUHAwIwDQYJKoZIhvcNAQELBQAD
ggEBADBsJREb/ay0TQ6/sOD8GxCvoSBK7dObyON2yOu5UBPgjaEunMeIufzGwDMf
WBFFYZFPBslX4O4EgWGxZGJv2XIwBcx5ieN4GmNyuNpyrMHxPxpw5APiosKDYquT
iT4lPPYr1V7bs/zxvkSr9BWN0X3m5NekCjPt4AXa3sRSRH/sgiUnCGPX6kQJ1MtM
8DrHFXr9U+9AZea7I3jWOkAFdD51jpycJ4Nmei+K13cf2yPgLcXP2rCOERiqSphM
ROUq7P45KE5T+sfbcobBf7mPzckemgOd1pTxcxRX4T9CVRlMnfS8PY00Urd3OOgT
x8XoyZgppjXtuMhav+w26Sxu/Fo=
-----END CERTIFICATE-----

Certificate:
    Data:
        Version: 3 (0x2)
        Serial Number:
            31:35:7f:72:00:4e:18:f5:81:03:33:ce:54:3c:48:8b:a6:7d:a0:8c
        Signature Algorithm: sha256WithRSAEncryption
        Issuer: CN=Root
        Validity
            Not Before: Oct  5 12:00:00 2022 GMT
            Not After : Oct  5 12:00:00 2023 GMT
        Subject: CN=Intermediate
        Subject Public Key Info:
            Public Key Algorithm: rsaEncryption
                Public-Key: (2048 bit)
                Modulus:
                    00:bc:ef:ca:8a:95:3f:19:1b:19:eb:4e:fe:3d:fe:
                    02:be:20:db:89:a3:06:b7:99:d8:af:c7:9a:a9:4d:
                    b8:82:5d:6a:06:66:fd:4d:b0:c9:f6:07:27:96:bd:
                    31:1c:77:f4:04:ba:fe:d4:25:46:02:9a:8a:88:bd:
                    e7:c3:dc:61:0a:78:26:db:b6:9e:ff:43:cd:ed:ea:
                    c0:67:f0:3d:e3:f5:d9:5a:ec:db:ac:ef:06:2d:6e:
                    37:fc:8d:c5:d3:a0:b0:d4:60:4e:0d:f8:ab:fa:68:
                    1a:36:2b:ce:bb:91:14:3b:0e:16:1c:0b:c9:c4:46:
                    e7:c2:1a:86:cc:ad:07:68:eb:cb:6e:93:37:cc:1a:
                    cc:59:de:9a:12:ec:3c:0f:eb:bf:8c:f7:76:0f:7e:
                    f5:89:f9:85:0c:21:95:af:ac:3c:a2:9d:9e:ba:d3:
                    06:aa:50:2d:25:c0:02:a8:a5:97:cf:7a:b3:ad:78:
                    c5:30:95:be:ce:0a:26:bd:4f:e2:5f:51:c6:f0:b9:
                    a1:bd:24:32:07:0d:b7:1b:2c:b2:ec:c8:c8:ef:77:
                    8f:ab:6f:e9:e2:66:d9:30:02:49:96:11:16:ed:e2:
                    e8:85:cd:48:d6:a9:b1:20:02:95:ff:1b:79:9d:6b:
                    21:6b:bd:d3:27:94:19:67:b1:9f:aa:06:d6:8c:69:
                    11:33
                Exponent: 65537 (0x10001)
        X509v3 extensions:
            X509v3 Subject Key Identifier: 
                F3:3D:8D:B6:D6:56:60:17:BC:E3:79:08:BF:E8:D0:61:78:8E:0C:00
            X509v3 Authority Key Identifier: 
                EE:92:48:AE:86:AC:68:E4:9E:C1:3D:D4:4C:34:B2:DF:8A:5D:FF:8C
            Authority Information Access: 
                CA Issuers - URI:http://url-for-aia/Root.cer
            X509v3 CRL Distribution Points: 
                Full Name:
                  URI:http://url-for-crl/Root.crl
            X509v3 Key Usage: critical
                Certificate Sign, CRL Sign
            X509v3 Basic Constraints: critical
                CA:TRUE
    Signature Algorithm: sha256WithRSAEncryption
    Signature Value:
        99:9f:a9:fd:eb:a1:cc:1e:a1:b6:ff:f9:9c:26:55:de:f4:a1:
        f6:1d:9c:4e:88:2b:98:93:3a:6b:80:75:5f:8c:65:6c:f7:b5:
        0a:22:3f:89:b7:f1:c5:28:3c:06:d8:e9:50:55:ce:83:29:43:
        7e:f4:33:b5:ba:41:a0:4f:69:00:cb:fd:09:fd:06:56:9e:42:
        26:25:c6:ca:60:80:47:fc:40:31:98:e2:97:af:54:bd:a7:0c:
        d1:00:45:a3:df:41:8f:7b:61:2c:99:d7:2a:15:53:51:e5:65:
        98:2a:1d:b0:97:ff:9b:97:dc:0a:4b:58:4e:2e:46:58:d6:fd:
        3f:d6:b8:65:82:d5:4b:25:9c:2d:5e:69:cf:6e:0b:21:c2:8b:
        d6:47:6c:ba:46:14:e6:1a:01:ea:97:74:fa:ed:d9:9a:a0:d6:
        fb:c6:16:7c:ab:8f:7b:65:27:f4:ae:96:ba:b3:d9:92:64:62:
        5c:5d:6b:f7:ea:31:84:fc:87:d5:da:59:d6:6f:ff:ad:73:c2:
        e0:d9:c4:ef:f0:e9:1a:e2:92:39:ea:ed:8c:3e:a7:19:06:d4:
        7e:57:67:ae:54:85:7d:a5:2d:78:26:7e:72:72:4a:8e:62:69:
        21:19:9f:26:75:ba:0e:f6:18:d2:32:c0:5d:0b:a1:3d:82:09:
        36:aa:6d:cb
-----BEGIN CERTIFICATE-----
MIIDgDCCAmigAwIBAgIUMTV/cgBOGPWBAzPOVDxIi6Z9oIwwDQYJKoZIhvcNAQEL
BQAwDzENMAsGA1UEAwwEUm9vdDAeFw0yMjEwMDUxMjAwMDBaFw0yMzEwMDUxMjAw
MDBaMBcxFTATBgNVBAMMDEludGVybWVkaWF0ZTCCASIwDQYJKoZIhvcNAQEBBQAD
ggEPADCCAQoCggEBALzvyoqVPxkbGetO/j3+Ar4g24mjBreZ2K/HmqlNuIJdagZm
/U2wyfYHJ5a9MRx39AS6/tQlRgKaioi958PcYQp4Jtu2nv9Dze3qwGfwPeP12Vrs
26zvBi1uN/yNxdOgsNRgTg34q/poGjYrzruRFDsOFhwLycRG58IahsytB2jry26T
N8wazFnemhLsPA/rv4z3dg9+9Yn5hQwhla+sPKKdnrrTBqpQLSXAAqill896s614
xTCVvs4KJr1P4l9RxvC5ob0kMgcNtxsssuzIyO93j6tv6eJm2TACSZYRFu3i6IXN
SNapsSAClf8beZ1rIWu90yeUGWexn6oG1oxpETMCAwEAAaOByzCByDAdBgNVHQ4E
FgQU8z2NttZWYBe843kIv+jQYXiODAAwHwYDVR0jBBgwFoAU7pJIroasaOSewT3U
TDSy34pd/4wwNwYIKwYBBQUHAQEEKzApMCcGCCsGAQUFBzAChhtodHRwOi8vdXJs
LWZvci1haWEvUm9vdC5jZXIwLAYDVR0fBCUwIzAhoB+gHYYbaHR0cDovL3VybC1m
b3ItY3JsL1Jvb3QuY3JsMA4GA1UdDwEB/wQEAwIBBjAPBgNVHRMBAf8EBTADAQH/
MA0GCSqGSIb3DQEBCwUAA4IBAQCZn6n966HMHqG2//mcJlXe9KH2HZxOiCuYkzpr
gHVfjGVs97UKIj+Jt/HFKDwG2OlQVc6DKUN+9DO1ukGgT2kAy/0J/QZWnkImJcbK
YIBH/EAxmOKXr1S9pwzRAEWj30GPe2EsmdcqFVNR5WWYKh2wl/+bl9wKS1hOLkZY
1v0/1rhlgtVLJZwtXmnPbgshwovWR2y6RhTmGgHql3T67dmaoNb7xhZ8q497ZSf0
rpa6s9mSZGJcXWv36jGE/IfV2lnWb/+tc8Lg2cTv8Oka4pI56u2MPqcZBtR+V2eu
VIV9pS14Jn5yckqOYmkhGZ8mdboO9hjSMsBdC6E9ggk2qm3L
-----END CERTIFICATE-----

Certificate:
    Data:
        Version: 3 (0x2)
        Serial Number:
            31:35:7f:72:00:4e:18:f5:81:03:33:ce:54:3c:48:8b:a6:7d:a0:8b
        Signature Algorithm: sha256WithRSAEncryption
        Issuer: CN=Root
        Validity
            Not Before: Oct  5 12:00:00 2022 GMT
            Not After : Oct  5 12:00:00 2023 GMT
        Subject: CN=Root
        Subject Public Key Info:
            Public Key Algorithm: rsaEncryption
                Public-Key: (2048 bit)
                Modulus:
                    00:9b:9e:4a:8e:cd:47:0e:a6:2f:17:ad:24:c7:d6:
                    c7:40:5f:ba:90:b2:2c:4b:57:5c:3e:f2:de:80:f6:
                    fd:f2:28:12:9c:92:63:4a:11:c6:bb:74:d7:ad:ec:
                    3e:9d:1a:7f:0a:30:98:df:1f:a2:98:11:a6:60:6f:
                    69:5f:dd:28:35:06:39:b6:e2:91:df:59:be:07:c5:
                    52:57:84:a4:ae:cb:5b:9b:b3:aa:56:77:fd:00:1a:
                    55:96:00:27:12:6e:d1:f6:35:ff:a3:fa:b6:0b:0e:
                    2a:46:75:6b:58:27:a6:a1:43:ba:37:74:1d:28:1a:
                    3d:bf:e6:f2:10:bf:2c:ce:24:67:03:4e:4e:fc:aa:
                    51:22:25:f8:e5:75:5c:c3:ad:da:03:56:b4:1b:8a:
                    6f:26:e5:c8:ef:43:a9:d7:81:8b:0f:b1:8b:d6:cd:
                    11:e9:4c:0c:cb:a2:ab:fa:34:2a:13:aa:a4:db:83:
                    9c:d8:a6:45:ec:f5:fa:d0:cd:b0:6b:7a:1b:0e:ca:
                    d3:31:4b:cb:53:f1:5c:82:8c:96:f7:ca:b6:40:53:
                    d0:24:67:27:1a:8d:1a:f7:65:c9:a1:fc:f9:f4:85:
                    3c:51:3c:fc:56:87:18:bf:a3:d5:dd:de:8e:e6:3b:
                    67:29:e9:fd:4b:4f:ba:1a:ff:d7:ec:f1:da:bd:56:
                    48:2b
                Exponent: 65537 (0x10001)
        X509v3 extensions:
            X509v3 Subject Key Identifier: 
                EE:92:48:AE:86:AC:68:E4:9E:C1:3D:D4:4C:34:B2:DF:8A:5D:FF:8C
            X509v3 Authority Key Identifier: 
                EE:92:48:AE:86:AC:68:E4:9E:C1:3D:D4:4C:34:B2:DF:8A:5D:FF:8C
            Authority Information Access: 
                CA Issuers - URI:http://url-for-aia/Root.cer
            X509v3 CRL Distribution Points: 
                Full Name:
                  URI:http://url-for-crl/Root.crl
            X509v3 Key Usage: critical
                Certificate Sign, CRL Sign
            X509v3 Basic Constraints: critical
                CA:TRUE
    Signature Algorithm: sha256WithRSAEncryption
    Signature Value:
        8f:ab:e7:3c:dd:7f:b8:a8:94:36:34:11:e7:36:17:7b:04:dd:
        36:29:5a:69:68:49:95:68:65:97:94:46:c6:ee:24:6b:15:98:
        6d:1c:ec:b5:88:f3:d6:d9:34:e5:27:f2:ef:ef:cb:9d:f9:2d:
        e2:cc:ad:da:47:7e:86:39:ff:4f:ff:b8:bd:c4:d0:b0:aa:10:
        7d:22:a4:38:04:63:e6:15:33:08:d1:01:71:fd:4c:ce:de:c8:
        dd:08:c7:11:0b:e7:73:38:fc:6a:46:b7:a7:6a:92:d1:7b:01:
        70:4b:02:c1:7c:5d:e2:8c:8f:98:46:ae:e4:8f:e5:e0:25:03:
        31:41:dd:56:7c:57:86:65:20:13:88:c1:a2:03:84:e8:1a:92:
        06:d6:61:68:db:84:4b:84:8b:a0:4d:c9:76:cc:fd:e3:db:21:
        de:3d:0c:43:8a:d4:aa:58:af:5f:b1:9e:ab:78:07:6c:d9:33:
        97:83:dc:5d:55:2b:9b:d5:ec:c0:64:b9:22:fe:8c:2a:a1:db:
        1f:59:bf:ef:7d:9a:cf:6f:3c:40:26:04:30:f3:04:59:b6:01:
        48:b9:b1:df:30:78:10:72:40:be:78:81:e3:1b:14:2f:4d:6c:
        96:c6:ed:d4:a9:a0:81:75:ee:60:18:69:91:cc:7c:c3:09:08:
        95:f0:10:f2
-----BEGIN CERTIFICATE-----
MIIDeDCCAmCgAwIBAgIUMTV/cgBOGPWBAzPOVDxIi6Z9oIswDQYJKoZIhvcNAQEL
BQAwDzENMAsGA1UEAwwEUm9vdDAeFw0yMjEwMDUxMjAwMDBaFw0yMzEwMDUxMjAw
MDBaMA8xDTALBgNVBAMMBFJvb3QwggEiMA0GCSqGSIb3DQEBAQUAA4IBDwAwggEK
AoIBAQCbnkqOzUcOpi8XrSTH1sdAX7qQsixLV1w+8t6A9v3yKBKckmNKEca7dNet
7D6dGn8KMJjfH6KYEaZgb2lf3Sg1Bjm24pHfWb4HxVJXhKSuy1ubs6pWd/0AGlWW
ACcSbtH2Nf+j+rYLDipGdWtYJ6ahQ7o3dB0oGj2/5vIQvyzOJGcDTk78qlEiJfjl
dVzDrdoDVrQbim8m5cjvQ6nXgYsPsYvWzRHpTAzLoqv6NCoTqqTbg5zYpkXs9frQ
zbBrehsOytMxS8tT8VyCjJb3yrZAU9AkZycajRr3Zcmh/Pn0hTxRPPxWhxi/o9Xd
3o7mO2cp6f1LT7oa/9fs8dq9VkgrAgMBAAGjgcswgcgwHQYDVR0OBBYEFO6SSK6G
rGjknsE91Ew0st+KXf+MMB8GA1UdIwQYMBaAFO6SSK6GrGjknsE91Ew0st+KXf+M
MDcGCCsGAQUFBwEBBCswKTAnBggrBgEFBQcwAoYbaHR0cDovL3VybC1mb3ItYWlh
L1Jvb3QuY2VyMCwGA1UdHwQlMCMwIaAfoB2GG2h0dHA6Ly91cmwtZm9yLWNybC9S
b290LmNybDAOBgNVHQ8BAf8EBAMCAQYwDwYDVR0TAQH/BAUwAwEB/zANBgkqhkiG
9w0BAQsFAAOCAQEAj6vnPN1/uKiUNjQR5zYXewTdNilaaWhJlWhll5RGxu4kaxWY
bRzstYjz1tk05Sfy7+/Lnfkt4syt2kd+hjn/T/+4vcTQsKoQfSKkOARj5hUzCNEB
cf1Mzt7I3QjHEQvnczj8aka3p2qS0XsBcEsCwXxd4oyPmEau5I/l4CUDMUHdVnxX
hmUgE4jBogOE6BqSBtZhaNuES4SLoE3Jdsz949sh3j0MQ4rUqlivX7Geq3gHbNkz
l4PcXVUrm9XswGS5Iv6MKqHbH1m/732az288QCYEMPMEWbYBSLmx3zB4EHJAvniB
4xsUL01slsbt1KmggXXuYBhpkcx8wwkIlfAQ8g==
-----END CERTIFICATE-----
