[Created by: generate-chains.py]

Simple certificate chain for a serverAuth which is comprised of a root,
intermediate, and leaf certificate.

Certificate:
    Data:
        Version: 3 (0x2)
        Serial Number:
            36:ca:7f:6d:80:1b:f8:bd:48:70:cd:9e:69:48:89:43:5e:d7:40:41
        Signature Algorithm: sha256WithRSAEncryption
        Issuer: CN=Intermediate
        Validity
            Not Before: Nov  3 12:00:00 2020 GMT
            Not After : Nov  3 12:00:00 2021 GMT
        Subject: CN=Target
        Subject Public Key Info:
            Public Key Algorithm: rsaEncryption
                RSA Public-Key: (2048 bit)
                Modulus:
                    00:ca:19:b1:9d:8f:85:f5:a4:a8:8a:0d:d3:7f:f3:
                    67:67:b1:d1:db:3d:69:8c:fa:bb:53:58:28:50:14:
                    2f:06:aa:7e:f5:c6:06:4d:7d:76:9f:ee:33:d8:c8:
                    6c:16:e8:65:df:d0:c0:9a:62:49:60:2a:d9:53:b6:
                    6d:c6:27:32:13:58:b2:c3:64:63:61:bf:6b:40:ea:
                    24:9c:a6:15:ae:2b:38:e7:70:58:12:46:92:5f:a5:
                    70:6c:ea:50:3c:7b:9b:33:50:54:93:a4:9c:41:e0:
                    40:7e:18:87:8a:52:d5:1d:66:f3:f0:f7:54:3f:55:
                    61:f5:66:1c:a6:0d:73:57:a3:78:1a:4c:99:7d:77:
                    e0:aa:c5:c5:5e:49:21:35:4e:47:3d:61:7d:43:9b:
                    e0:94:28:b7:65:4d:cf:7e:52:2c:2a:b3:93:94:8b:
                    0f:04:f6:45:20:83:97:b7:a4:dd:ef:8d:1f:c7:c5:
                    29:d4:55:9f:a3:90:38:14:46:f6:7e:13:9e:99:6d:
                    41:b0:c4:00:69:58:e6:7f:ac:a5:0a:e4:ad:c8:e3:
                    c1:a1:2a:a1:77:83:e9:f0:d1:c2:5b:48:10:33:59:
                    4e:8d:0e:d7:01:0a:3c:11:e0:bf:cf:e8:2f:47:4b:
                    f6:d6:95:4d:c0:73:a7:b5:21:a4:0a:98:dc:fa:9b:
                    0d:87
                Exponent: 65537 (0x10001)
        X509v3 extensions:
            X509v3 Subject Key Identifier: 
                4A:80:F9:C0:2F:58:C5:F9:EB:98:BA:65:70:D0:81:0A:DA:16:C3:E0
            X509v3 Authority Key Identifier: 
                keyid:F3:3D:8D:B6:D6:56:60:17:BC:E3:79:08:BF:E8:D0:61:78:8E:0C:00

            Authority Information Access: 
                CA Issuers - URI:http://url-for-aia/Intermediate.cer

            X509v3 CRL Distribution Points: 

                Full Name:
                  URI:http://url-for-crl/Intermediate.crl

            X509v3 Key Usage: critical
                Digital Signature, Key Encipherment
            X509v3 Extended Key Usage: 
                TLS Web Server Authentication, TLS Web Client Authentication
    Signature Algorithm: sha256WithRSAEncryption
         34:b1:22:a0:84:bc:bb:f7:ed:6c:e9:f0:49:21:0e:b4:f6:ce:
         14:58:76:65:10:fd:cb:68:52:80:84:9c:38:2a:a1:40:42:a4:
         db:38:bc:84:36:a3:66:94:9a:8e:e8:7d:7d:32:1b:b8:18:95:
         71:61:d6:4e:c5:5d:3a:69:0e:e2:ea:3a:35:20:e5:a0:ea:a3:
         b3:ed:aa:64:a9:7a:5f:e2:d0:5f:63:6c:12:63:bf:a7:6d:c7:
         16:44:57:a0:c6:02:17:da:d2:47:38:a6:17:38:8d:7d:82:b4:
         6c:66:ef:72:d6:d0:38:09:34:75:85:89:0d:29:a6:cf:98:00:
         da:e5:f7:48:4c:fb:9e:ec:f6:e6:a0:86:b4:d2:df:0e:27:4c:
         f4:ed:c5:ba:70:08:df:d9:f2:52:00:a1:79:97:24:87:7c:44:
         4f:41:5d:c0:7f:65:a1:88:13:a1:08:c2:d4:c0:56:95:83:16:
         5d:fd:21:41:6f:e4:dd:1e:91:54:ba:57:95:21:20:68:01:92:
         93:59:26:04:36:f4:a2:ff:9b:11:e4:d0:ad:fa:2a:ad:ba:62:
         a2:cd:3f:09:a2:ea:18:1e:88:97:3a:44:91:41:f2:5c:1c:61:
         11:c6:41:3b:a6:5a:69:8d:e8:fd:29:4c:b8:74:d2:b7:18:60:
         b0:16:b0:fd
-----BEGIN CERTIFICATE-----
MIIDoDCCAoigAwIBAgIUNsp/bYAb+L1IcM2eaUiJQ17XQEEwDQYJKoZIhvcNAQEL
BQAwFzEVMBMGA1UEAwwMSW50ZXJtZWRpYXRlMB4XDTIwMTEwMzEyMDAwMFoXDTIx
MTEwMzEyMDAwMFowETEPMA0GA1UEAwwGVGFyZ2V0MIIBIjANBgkqhkiG9w0BAQEF
AAOCAQ8AMIIBCgKCAQEAyhmxnY+F9aSoig3Tf/NnZ7HR2z1pjPq7U1goUBQvBqp+
9cYGTX12n+4z2MhsFuhl39DAmmJJYCrZU7ZtxicyE1iyw2RjYb9rQOoknKYVris4
53BYEkaSX6VwbOpQPHubM1BUk6ScQeBAfhiHilLVHWbz8PdUP1Vh9WYcpg1zV6N4
GkyZfXfgqsXFXkkhNU5HPWF9Q5vglCi3ZU3PflIsKrOTlIsPBPZFIIOXt6Td740f
x8Up1FWfo5A4FEb2fhOemW1BsMQAaVjmf6ylCuStyOPBoSqhd4Pp8NHCW0gQM1lO
jQ7XAQo8EeC/z+gvR0v21pVNwHOntSGkCpjc+psNhwIDAQABo4HpMIHmMB0GA1Ud
DgQWBBRKgPnAL1jF+euYumVw0IEK2hbD4DAfBgNVHSMEGDAWgBTzPY221lZgF7zj
eQi/6NBheI4MADA/BggrBgEFBQcBAQQzMDEwLwYIKwYBBQUHMAKGI2h0dHA6Ly91
cmwtZm9yLWFpYS9JbnRlcm1lZGlhdGUuY2VyMDQGA1UdHwQtMCswKaAnoCWGI2h0
dHA6Ly91cmwtZm9yLWNybC9JbnRlcm1lZGlhdGUuY3JsMA4GA1UdDwEB/wQEAwIF
oDAdBgNVHSUEFjAUBggrBgEFBQcDAQYIKwYBBQUHAwIwDQYJKoZIhvcNAQELBQAD
ggEBADSxIqCEvLv37Wzp8EkhDrT2zhRYdmUQ/ctoUoCEnDgqoUBCpNs4vIQ2o2aU
mo7ofX0yG7gYlXFh1k7FXTppDuLqOjUg5aDqo7PtqmSpel/i0F9jbBJjv6dtxxZE
V6DGAhfa0kc4phc4jX2CtGxm73LW0DgJNHWFiQ0pps+YANrl90hM+57s9uaghrTS
3w4nTPTtxbpwCN/Z8lIAoXmXJId8RE9BXcB/ZaGIE6EIwtTAVpWDFl39IUFv5N0e
kVS6V5UhIGgBkpNZJgQ29KL/mxHk0K36Kq26YqLNPwmi6hgeiJc6RJFB8lwcYRHG
QTumWmmN6P0pTLh00rcYYLAWsP0=
-----END CERTIFICATE-----

Certificate:
    Data:
        Version: 3 (0x2)
        Serial Number:
            31:35:7f:72:00:4e:18:f5:81:03:33:ce:54:3c:48:8b:a6:7d:a0:8c
        Signature Algorithm: sha256WithRSAEncryption
        Issuer: CN=Root
        Validity
            Not Before: Nov  3 12:00:00 2020 GMT
            Not After : Nov  3 12:00:00 2021 GMT
        Subject: CN=Intermediate
        Subject Public Key Info:
            Public Key Algorithm: rsaEncryption
                RSA Public-Key: (2048 bit)
                Modulus:
                    00:bc:ef:ca:8a:95:3f:19:1b:19:eb:4e:fe:3d:fe:
                    02:be:20:db:89:a3:06:b7:99:d8:af:c7:9a:a9:4d:
                    b8:82:5d:6a:06:66:fd:4d:b0:c9:f6:07:27:96:bd:
                    31:1c:77:f4:04:ba:fe:d4:25:46:02:9a:8a:88:bd:
                    e7:c3:dc:61:0a:78:26:db:b6:9e:ff:43:cd:ed:ea:
                    c0:67:f0:3d:e3:f5:d9:5a:ec:db:ac:ef:06:2d:6e:
                    37:fc:8d:c5:d3:a0:b0:d4:60:4e:0d:f8:ab:fa:68:
                    1a:36:2b:ce:bb:91:14:3b:0e:16:1c:0b:c9:c4:46:
                    e7:c2:1a:86:cc:ad:07:68:eb:cb:6e:93:37:cc:1a:
                    cc:59:de:9a:12:ec:3c:0f:eb:bf:8c:f7:76:0f:7e:
                    f5:89:f9:85:0c:21:95:af:ac:3c:a2:9d:9e:ba:d3:
                    06:aa:50:2d:25:c0:02:a8:a5:97:cf:7a:b3:ad:78:
                    c5:30:95:be:ce:0a:26:bd:4f:e2:5f:51:c6:f0:b9:
                    a1:bd:24:32:07:0d:b7:1b:2c:b2:ec:c8:c8:ef:77:
                    8f:ab:6f:e9:e2:66:d9:30:02:49:96:11:16:ed:e2:
                    e8:85:cd:48:d6:a9:b1:20:02:95:ff:1b:79:9d:6b:
                    21:6b:bd:d3:27:94:19:67:b1:9f:aa:06:d6:8c:69:
                    11:33
                Exponent: 65537 (0x10001)
        X509v3 extensions:
            X509v3 Subject Key Identifier: 
                F3:3D:8D:B6:D6:56:60:17:BC:E3:79:08:BF:E8:D0:61:78:8E:0C:00
            X509v3 Authority Key Identifier: 
                keyid:EE:92:48:AE:86:AC:68:E4:9E:C1:3D:D4:4C:34:B2:DF:8A:5D:FF:8C

            Authority Information Access: 
                CA Issuers - URI:http://url-for-aia/Root.cer

            X509v3 CRL Distribution Points: 

                Full Name:
                  URI:http://url-for-crl/Root.crl

            X509v3 Key Usage: critical
                Certificate Sign, CRL Sign
            X509v3 Basic Constraints: critical
                CA:TRUE
    Signature Algorithm: sha256WithRSAEncryption
         8d:fa:63:8a:4f:a0:63:e8:15:26:a3:49:c4:e2:e9:6e:67:e0:
         e9:c1:a0:07:12:0b:2d:0b:c1:07:38:ac:3f:dd:69:c3:96:d8:
         c3:f9:81:8f:91:c9:c4:56:ed:fd:62:69:61:57:27:35:fa:a8:
         4e:fe:60:e4:c3:09:07:3e:14:54:e4:37:eb:88:3a:fe:27:6f:
         ce:51:8c:47:f4:14:28:92:88:30:e9:19:ad:16:54:cb:77:4c:
         69:6d:d2:d9:69:42:bc:7e:e9:b8:f4:01:4e:46:95:89:a2:ad:
         70:02:be:10:db:63:b9:c5:75:71:c0:a9:88:e7:6a:45:1e:f7:
         69:19:a0:2b:98:17:63:a5:a1:d3:aa:09:4f:bb:59:2b:00:f8:
         59:ec:fc:ec:bd:2e:59:7e:cc:95:0f:f8:1d:ec:2d:0d:47:31:
         b1:ad:49:50:f3:72:f4:68:96:5a:9d:51:65:6b:f2:49:1d:fa:
         ee:9d:30:c0:2c:57:07:7f:8e:a3:d6:fe:7d:f7:c6:53:99:7c:
         96:33:fa:83:bb:5f:fa:21:5d:68:6e:92:d1:8e:17:4a:bf:62:
         39:52:0d:3e:79:9f:10:79:66:9e:02:77:0b:00:62:32:9b:9c:
         eb:30:0f:3e:3a:e0:d5:1c:9b:f4:49:b1:11:7d:61:bb:be:81:
         4e:00:f2:dc
-----BEGIN CERTIFICATE-----
MIIDgDCCAmigAwIBAgIUMTV/cgBOGPWBAzPOVDxIi6Z9oIwwDQYJKoZIhvcNAQEL
BQAwDzENMAsGA1UEAwwEUm9vdDAeFw0yMDExMDMxMjAwMDBaFw0yMTExMDMxMjAw
MDBaMBcxFTATBgNVBAMMDEludGVybWVkaWF0ZTCCASIwDQYJKoZIhvcNAQEBBQAD
ggEPADCCAQoCggEBALzvyoqVPxkbGetO/j3+Ar4g24mjBreZ2K/HmqlNuIJdagZm
/U2wyfYHJ5a9MRx39AS6/tQlRgKaioi958PcYQp4Jtu2nv9Dze3qwGfwPeP12Vrs
26zvBi1uN/yNxdOgsNRgTg34q/poGjYrzruRFDsOFhwLycRG58IahsytB2jry26T
N8wazFnemhLsPA/rv4z3dg9+9Yn5hQwhla+sPKKdnrrTBqpQLSXAAqill896s614
xTCVvs4KJr1P4l9RxvC5ob0kMgcNtxsssuzIyO93j6tv6eJm2TACSZYRFu3i6IXN
SNapsSAClf8beZ1rIWu90yeUGWexn6oG1oxpETMCAwEAAaOByzCByDAdBgNVHQ4E
FgQU8z2NttZWYBe843kIv+jQYXiODAAwHwYDVR0jBBgwFoAU7pJIroasaOSewT3U
TDSy34pd/4wwNwYIKwYBBQUHAQEEKzApMCcGCCsGAQUFBzAChhtodHRwOi8vdXJs
LWZvci1haWEvUm9vdC5jZXIwLAYDVR0fBCUwIzAhoB+gHYYbaHR0cDovL3VybC1m
b3ItY3JsL1Jvb3QuY3JsMA4GA1UdDwEB/wQEAwIBBjAPBgNVHRMBAf8EBTADAQH/
MA0GCSqGSIb3DQEBCwUAA4IBAQCN+mOKT6Bj6BUmo0nE4uluZ+DpwaAHEgstC8EH
OKw/3WnDltjD+YGPkcnEVu39YmlhVyc1+qhO/mDkwwkHPhRU5DfriDr+J2/OUYxH
9BQokogw6RmtFlTLd0xpbdLZaUK8fum49AFORpWJoq1wAr4Q22O5xXVxwKmI52pF
HvdpGaArmBdjpaHTqglPu1krAPhZ7PzsvS5ZfsyVD/gd7C0NRzGxrUlQ83L0aJZa
nVFla/JJHfrunTDALFcHf46j1v5998ZTmXyWM/qDu1/6IV1obpLRjhdKv2I5Ug0+
eZ8QeWaeAncLAGIym5zrMA8+OuDVHJv0SbERfWG7voFOAPLc
-----END CERTIFICATE-----

Certificate:
    Data:
        Version: 3 (0x2)
        Serial Number:
            31:35:7f:72:00:4e:18:f5:81:03:33:ce:54:3c:48:8b:a6:7d:a0:8b
        Signature Algorithm: sha256WithRSAEncryption
        Issuer: CN=Root
        Validity
            Not Before: Nov  3 12:00:00 2020 GMT
            Not After : Nov  3 12:00:00 2021 GMT
        Subject: CN=Root
        Subject Public Key Info:
            Public Key Algorithm: rsaEncryption
                RSA Public-Key: (2048 bit)
                Modulus:
                    00:9b:9e:4a:8e:cd:47:0e:a6:2f:17:ad:24:c7:d6:
                    c7:40:5f:ba:90:b2:2c:4b:57:5c:3e:f2:de:80:f6:
                    fd:f2:28:12:9c:92:63:4a:11:c6:bb:74:d7:ad:ec:
                    3e:9d:1a:7f:0a:30:98:df:1f:a2:98:11:a6:60:6f:
                    69:5f:dd:28:35:06:39:b6:e2:91:df:59:be:07:c5:
                    52:57:84:a4:ae:cb:5b:9b:b3:aa:56:77:fd:00:1a:
                    55:96:00:27:12:6e:d1:f6:35:ff:a3:fa:b6:0b:0e:
                    2a:46:75:6b:58:27:a6:a1:43:ba:37:74:1d:28:1a:
                    3d:bf:e6:f2:10:bf:2c:ce:24:67:03:4e:4e:fc:aa:
                    51:22:25:f8:e5:75:5c:c3:ad:da:03:56:b4:1b:8a:
                    6f:26:e5:c8:ef:43:a9:d7:81:8b:0f:b1:8b:d6:cd:
                    11:e9:4c:0c:cb:a2:ab:fa:34:2a:13:aa:a4:db:83:
                    9c:d8:a6:45:ec:f5:fa:d0:cd:b0:6b:7a:1b:0e:ca:
                    d3:31:4b:cb:53:f1:5c:82:8c:96:f7:ca:b6:40:53:
                    d0:24:67:27:1a:8d:1a:f7:65:c9:a1:fc:f9:f4:85:
                    3c:51:3c:fc:56:87:18:bf:a3:d5:dd:de:8e:e6:3b:
                    67:29:e9:fd:4b:4f:ba:1a:ff:d7:ec:f1:da:bd:56:
                    48:2b
                Exponent: 65537 (0x10001)
        X509v3 extensions:
            X509v3 Subject Key Identifier: 
                EE:92:48:AE:86:AC:68:E4:9E:C1:3D:D4:4C:34:B2:DF:8A:5D:FF:8C
            X509v3 Authority Key Identifier: 
                keyid:EE:92:48:AE:86:AC:68:E4:9E:C1:3D:D4:4C:34:B2:DF:8A:5D:FF:8C

            Authority Information Access: 
                CA Issuers - URI:http://url-for-aia/Root.cer

            X509v3 CRL Distribution Points: 

                Full Name:
                  URI:http://url-for-crl/Root.crl

            X509v3 Key Usage: critical
                Certificate Sign, CRL Sign
            X509v3 Basic Constraints: critical
                CA:TRUE
    Signature Algorithm: sha256WithRSAEncryption
         8d:38:e0:dd:24:a6:be:9f:e2:da:a1:4a:0b:b2:7b:ef:ac:ef:
         4e:83:73:8c:8e:c5:61:ed:88:76:71:bb:5d:5f:a2:04:db:b1:
         27:52:85:ee:94:72:b6:f2:70:af:04:9d:db:44:0b:37:4b:bc:
         f6:2c:f3:31:e6:6d:b9:bc:1b:fb:63:dd:79:49:13:b3:45:4b:
         ab:44:7e:8b:75:ff:c0:ea:bd:10:9b:23:cd:a0:ba:be:f2:70:
         08:42:0c:71:f2:3c:68:7e:63:c0:f9:61:90:11:44:c6:23:b5:
         2c:95:55:16:f9:80:2c:d6:60:2c:ba:3c:29:ea:ad:74:5f:b9:
         ad:5b:9a:6c:1d:d9:b8:36:48:ce:22:45:87:8b:c3:90:ab:d5:
         84:c5:ae:85:ef:e5:eb:45:f2:c2:11:74:31:80:87:c4:de:1c:
         96:b7:60:e5:b3:98:b5:bf:57:93:ab:98:7c:ae:af:35:a5:19:
         89:8b:9c:52:9c:51:cc:74:ee:e7:e0:ec:00:dd:29:5d:2f:0d:
         62:f2:0c:e6:0e:b1:d6:8f:ad:98:a3:ca:ef:c4:37:e8:08:7c:
         96:d4:92:cd:ee:dd:ec:ce:f9:50:bf:f9:60:96:6c:43:ee:b5:
         65:9a:8c:8b:32:c0:42:07:78:7c:1e:b9:53:ea:77:c3:71:59:
         1c:e1:a0:8c
-----BEGIN CERTIFICATE-----
MIIDeDCCAmCgAwIBAgIUMTV/cgBOGPWBAzPOVDxIi6Z9oIswDQYJKoZIhvcNAQEL
BQAwDzENMAsGA1UEAwwEUm9vdDAeFw0yMDExMDMxMjAwMDBaFw0yMTExMDMxMjAw
MDBaMA8xDTALBgNVBAMMBFJvb3QwggEiMA0GCSqGSIb3DQEBAQUAA4IBDwAwggEK
AoIBAQCbnkqOzUcOpi8XrSTH1sdAX7qQsixLV1w+8t6A9v3yKBKckmNKEca7dNet
7D6dGn8KMJjfH6KYEaZgb2lf3Sg1Bjm24pHfWb4HxVJXhKSuy1ubs6pWd/0AGlWW
ACcSbtH2Nf+j+rYLDipGdWtYJ6ahQ7o3dB0oGj2/5vIQvyzOJGcDTk78qlEiJfjl
dVzDrdoDVrQbim8m5cjvQ6nXgYsPsYvWzRHpTAzLoqv6NCoTqqTbg5zYpkXs9frQ
zbBrehsOytMxS8tT8VyCjJb3yrZAU9AkZycajRr3Zcmh/Pn0hTxRPPxWhxi/o9Xd
3o7mO2cp6f1LT7oa/9fs8dq9VkgrAgMBAAGjgcswgcgwHQYDVR0OBBYEFO6SSK6G
rGjknsE91Ew0st+KXf+MMB8GA1UdIwQYMBaAFO6SSK6GrGjknsE91Ew0st+KXf+M
MDcGCCsGAQUFBwEBBCswKTAnBggrBgEFBQcwAoYbaHR0cDovL3VybC1mb3ItYWlh
L1Jvb3QuY2VyMCwGA1UdHwQlMCMwIaAfoB2GG2h0dHA6Ly91cmwtZm9yLWNybC9S
b290LmNybDAOBgNVHQ8BAf8EBAMCAQYwDwYDVR0TAQH/BAUwAwEB/zANBgkqhkiG
9w0BAQsFAAOCAQEAjTjg3SSmvp/i2qFKC7J776zvToNzjI7FYe2IdnG7XV+iBNux
J1KF7pRytvJwrwSd20QLN0u89izzMeZtubwb+2PdeUkTs0VLq0R+i3X/wOq9EJsj
zaC6vvJwCEIMcfI8aH5jwPlhkBFExiO1LJVVFvmALNZgLLo8KeqtdF+5rVuabB3Z
uDZIziJFh4vDkKvVhMWuhe/l60XywhF0MYCHxN4clrdg5bOYtb9Xk6uYfK6vNaUZ
iYucUpxRzHTu5+DsAN0pXS8NYvIM5g6x1o+tmKPK78Q36Ah8ltSSze7d7M75UL/5
YJZsQ+61ZZqMizLAQgd4fB65U+p3w3FZHOGgjA==
-----END CERTIFICATE-----
