[Created by: generate-chains.py]

Certificate chain where the root certificate holds an RSA key, intermediate
certificate holds an EC key, and target certificate holds an RSA key. The
target certificate has a valid signature using ECDSA.

Certificate:
    Data:
        Version: 3 (0x2)
        Serial Number:
            41:40:39:26:f7:3c:b3:a7:c4:58:60:3a:f3:20:9a:3a:ee:e3:c5:56
        Signature Algorithm: ecdsa-with-SHA256
        Issuer: CN=Intermediate
        Validity
            Not Before: Nov  3 12:00:00 2020 GMT
            Not After : Nov  3 12:00:00 2021 GMT
        Subject: CN=Target
        Subject Public Key Info:
            Public Key Algorithm: rsaEncryption
                RSA Public-Key: (2048 bit)
                Modulus:
                    00:e6:90:14:d7:6c:5e:85:24:21:17:7a:ce:f2:8a:
                    3e:83:20:e4:3e:eb:cf:4c:06:bb:0a:d5:21:d9:2b:
                    e1:2e:14:8a:20:16:c8:c9:4b:55:ed:e9:ea:48:ed:
                    ef:03:2b:de:25:dd:41:9b:0c:0b:bd:f8:58:e2:a0:
                    ba:92:3f:03:de:ca:e6:35:42:be:ab:e1:33:17:ac:
                    3e:bc:fc:90:2a:d2:c7:76:1f:51:d2:ca:e9:80:e0:
                    76:39:ab:88:65:b4:e3:ea:05:dd:c5:8e:fe:4c:86:
                    c3:06:49:0c:ab:69:a5:4f:14:cc:82:1f:b1:3d:f6:
                    f9:d5:d4:61:41:35:e5:d4:f7:4f:1a:af:fb:a8:ff:
                    ef:7b:38:95:40:c5:56:32:a5:cf:8f:d6:04:df:23:
                    eb:5b:f7:32:a3:d7:a1:df:cb:67:35:25:d6:63:92:
                    d7:da:d9:83:20:52:58:1d:ef:6e:3c:88:91:14:08:
                    c7:70:85:b7:b3:93:c1:9a:51:57:d8:d5:4c:81:83:
                    96:91:b6:5a:b9:b5:7e:fb:90:bd:71:2e:09:04:6e:
                    f9:0b:ff:51:43:d4:20:77:ee:31:34:98:f8:e8:8f:
                    5a:2e:75:f1:0f:bf:64:35:a5:00:cb:4a:00:6e:45:
                    a3:01:d7:97:46:49:55:c1:df:2d:31:c4:98:ae:25:
                    b2:b3
                Exponent: 65537 (0x10001)
        X509v3 extensions:
            X509v3 Subject Key Identifier: 
                A0:D4:34:B4:BC:27:68:8C:38:A0:8F:3A:CF:6E:58:5F:57:97:44:B8
            X509v3 Authority Key Identifier: 
                keyid:B1:0E:68:94:5F:A9:F7:F8:4B:09:42:7D:AE:5A:7A:05:BF:E4:A1:F1

            Authority Information Access: 
                CA Issuers - URI:http://url-for-aia/Intermediate.cer

            X509v3 CRL Distribution Points: 

                Full Name:
                  URI:http://url-for-crl/Intermediate.crl

            X509v3 Key Usage: critical
                Digital Signature, Key Encipherment
            X509v3 Extended Key Usage: 
                TLS Web Server Authentication, TLS Web Client Authentication
    Signature Algorithm: ecdsa-with-SHA256
         30:66:02:31:00:c9:58:97:00:c8:85:07:35:22:94:ab:bc:58:
         9b:4e:ea:ef:fa:f4:72:9e:43:6e:79:8e:87:1b:ed:56:68:01:
         95:56:90:65:aa:e9:5b:7f:33:48:71:e2:4c:09:d3:5e:1f:02:
         31:00:bb:12:f4:e2:33:11:21:1c:68:fb:a1:0d:eb:c8:6d:b7:
         95:4c:b0:f4:2d:f7:35:a7:20:bd:30:b1:8e:05:50:46:c9:5c:
         85:17:9e:32:67:94:59:44:a3:20:f2:ac:9d:7b
-----BEGIN CERTIFICATE-----
MIIDADCCAoWgAwIBAgIUQUA5Jvc8s6fEWGA68yCaOu7jxVYwCgYIKoZIzj0EAwIw
FzEVMBMGA1UEAwwMSW50ZXJtZWRpYXRlMB4XDTIwMTEwMzEyMDAwMFoXDTIxMTEw
MzEyMDAwMFowETEPMA0GA1UEAwwGVGFyZ2V0MIIBIjANBgkqhkiG9w0BAQEFAAOC
AQ8AMIIBCgKCAQEA5pAU12xehSQhF3rO8oo+gyDkPuvPTAa7CtUh2SvhLhSKIBbI
yUtV7enqSO3vAyveJd1BmwwLvfhY4qC6kj8D3srmNUK+q+EzF6w+vPyQKtLHdh9R
0srpgOB2OauIZbTj6gXdxY7+TIbDBkkMq2mlTxTMgh+xPfb51dRhQTXl1PdPGq/7
qP/veziVQMVWMqXPj9YE3yPrW/cyo9eh38tnNSXWY5LX2tmDIFJYHe9uPIiRFAjH
cIW3s5PBmlFX2NVMgYOWkbZaubV++5C9cS4JBG75C/9RQ9Qgd+4xNJj46I9aLnXx
D79kNaUAy0oAbkWjAdeXRklVwd8tMcSYriWyswIDAQABo4HpMIHmMB0GA1UdDgQW
BBSg1DS0vCdojDigjzrPblhfV5dEuDAfBgNVHSMEGDAWgBSxDmiUX6n3+EsJQn2u
WnoFv+Sh8TA/BggrBgEFBQcBAQQzMDEwLwYIKwYBBQUHMAKGI2h0dHA6Ly91cmwt
Zm9yLWFpYS9JbnRlcm1lZGlhdGUuY2VyMDQGA1UdHwQtMCswKaAnoCWGI2h0dHA6
Ly91cmwtZm9yLWNybC9JbnRlcm1lZGlhdGUuY3JsMA4GA1UdDwEB/wQEAwIFoDAd
BgNVHSUEFjAUBggrBgEFBQcDAQYIKwYBBQUHAwIwCgYIKoZIzj0EAwIDaQAwZgIx
AMlYlwDIhQc1IpSrvFibTurv+vRynkNueY6HG+1WaAGVVpBlqulbfzNIceJMCdNe
HwIxALsS9OIzESEcaPuhDevIbbeVTLD0Lfc1pyC9MLGOBVBGyVyFF54yZ5RZRKMg
8qydew==
-----END CERTIFICATE-----

Certificate:
    Data:
        Version: 3 (0x2)
        Serial Number:
            62:20:1f:53:92:38:2c:47:67:4d:1d:04:41:2d:53:ab:1e:d4:5c:aa
        Signature Algorithm: sha256WithRSAEncryption
        Issuer: CN=Root
        Validity
            Not Before: Nov  3 12:00:00 2020 GMT
            Not After : Nov  3 12:00:00 2021 GMT
        Subject: CN=Intermediate
        Subject Public Key Info:
            Public Key Algorithm: id-ecPublicKey
                Public-Key: (384 bit)
                pub:
                    04:f3:8f:d7:88:9f:98:67:05:36:a9:16:7c:85:b2:
                    cf:8e:02:72:19:eb:ab:48:14:1e:6f:6a:13:93:3e:
                    80:b9:aa:7f:53:9c:91:91:9e:b1:79:76:ec:31:ef:
                    97:46:30:d8:f4:ad:9c:60:c0:a6:00:88:62:5a:68:
                    9e:3e:00:f3:6c:b4:1a:10:0b:78:12:f3:fe:5f:47:
                    40:14:e7:2d:c0:82:cc:cf:df:93:fb:21:8e:ed:59:
                    b2:70:1e:7b:70:0c:e5
                ASN1 OID: secp384r1
                NIST CURVE: P-384
        X509v3 extensions:
            X509v3 Subject Key Identifier: 
                B1:0E:68:94:5F:A9:F7:F8:4B:09:42:7D:AE:5A:7A:05:BF:E4:A1:F1
            X509v3 Authority Key Identifier: 
                keyid:43:E7:CC:3C:45:3E:58:A7:6D:D2:90:56:8F:16:93:9E:2F:F3:06:2E

            Authority Information Access: 
                CA Issuers - URI:http://url-for-aia/Root.cer

            X509v3 CRL Distribution Points: 

                Full Name:
                  URI:http://url-for-crl/Root.crl

            X509v3 Key Usage: critical
                Certificate Sign, CRL Sign
            X509v3 Basic Constraints: critical
                CA:TRUE
    Signature Algorithm: sha256WithRSAEncryption
         c6:e5:a2:fd:05:a4:fa:ad:75:3f:4d:10:9c:cf:88:58:82:7f:
         4f:b7:b8:e3:e3:e0:42:fd:70:6d:57:11:14:5e:d2:c4:0d:9b:
         64:83:98:a4:36:49:3b:64:75:91:71:f8:73:b1:0c:45:31:31:
         d6:f8:6e:9a:3f:2b:1b:af:87:da:a8:d6:ca:ef:ea:88:a4:4e:
         36:93:79:d5:21:38:22:c8:d3:bf:99:ae:cd:cb:74:6b:95:ea:
         16:2b:8d:1d:1a:43:5c:5e:40:f5:ba:1c:48:3b:50:eb:ff:ec:
         de:e3:da:25:7b:7c:b9:43:9c:15:f7:be:1d:39:6a:28:73:8e:
         9e:1b:53:be:60:49:d0:a6:61:05:7f:7f:5f:20:cd:0f:d9:3c:
         4f:2b:33:4d:3d:50:4b:2f:0c:90:d4:24:8f:aa:d3:6e:79:f3:
         72:42:31:88:cc:a8:59:50:fb:f7:58:77:f2:05:e2:41:91:fe:
         8b:91:74:1c:ee:23:2b:52:74:0a:bd:c3:5f:18:b5:e4:2c:12:
         ad:5a:d5:54:53:d0:e7:40:64:13:c2:2d:26:6e:c1:1f:b9:29:
         06:12:a2:35:ba:7f:41:be:a1:f3:a0:86:4b:c5:b0:8e:c9:3c:
         f2:d4:7e:49:12:02:e5:09:02:c6:4d:86:0a:fc:45:47:64:81:
         a4:47:e8:49
-----BEGIN CERTIFICATE-----
MIIC0jCCAbqgAwIBAgIUYiAfU5I4LEdnTR0EQS1Tqx7UXKowDQYJKoZIhvcNAQEL
BQAwDzENMAsGA1UEAwwEUm9vdDAeFw0yMDExMDMxMjAwMDBaFw0yMTExMDMxMjAw
MDBaMBcxFTATBgNVBAMMDEludGVybWVkaWF0ZTB2MBAGByqGSM49AgEGBSuBBAAi
A2IABPOP14ifmGcFNqkWfIWyz44Cchnrq0gUHm9qE5M+gLmqf1OckZGesXl27DHv
l0Yw2PStnGDApgCIYlponj4A82y0GhALeBLz/l9HQBTnLcCCzM/fk/shju1ZsnAe
e3AM5aOByzCByDAdBgNVHQ4EFgQUsQ5olF+p9/hLCUJ9rlp6Bb/kofEwHwYDVR0j
BBgwFoAUQ+fMPEU+WKdt0pBWjxaTni/zBi4wNwYIKwYBBQUHAQEEKzApMCcGCCsG
AQUFBzAChhtodHRwOi8vdXJsLWZvci1haWEvUm9vdC5jZXIwLAYDVR0fBCUwIzAh
oB+gHYYbaHR0cDovL3VybC1mb3ItY3JsL1Jvb3QuY3JsMA4GA1UdDwEB/wQEAwIB
BjAPBgNVHRMBAf8EBTADAQH/MA0GCSqGSIb3DQEBCwUAA4IBAQDG5aL9BaT6rXU/
TRCcz4hYgn9Pt7jj4+BC/XBtVxEUXtLEDZtkg5ikNkk7ZHWRcfhzsQxFMTHW+G6a
Pysbr4faqNbK7+qIpE42k3nVITgiyNO/ma7Ny3RrleoWK40dGkNcXkD1uhxIO1Dr
/+ze49ole3y5Q5wV974dOWooc46eG1O+YEnQpmEFf39fIM0P2TxPKzNNPVBLLwyQ
1CSPqtNuefNyQjGIzKhZUPv3WHfyBeJBkf6LkXQc7iMrUnQKvcNfGLXkLBKtWtVU
U9DnQGQTwi0mbsEfuSkGEqI1un9BvqHzoIZLxbCOyTzy1H5JEgLlCQLGTYYK/EVH
ZIGkR+hJ
-----END CERTIFICATE-----

Certificate:
    Data:
        Version: 3 (0x2)
        Serial Number:
            62:20:1f:53:92:38:2c:47:67:4d:1d:04:41:2d:53:ab:1e:d4:5c:a9
        Signature Algorithm: sha256WithRSAEncryption
        Issuer: CN=Root
        Validity
            Not Before: Nov  3 12:00:00 2020 GMT
            Not After : Nov  3 12:00:00 2021 GMT
        Subject: CN=Root
        Subject Public Key Info:
            Public Key Algorithm: rsaEncryption
                RSA Public-Key: (2048 bit)
                Modulus:
                    00:f5:c6:4e:ee:3f:f0:7c:64:c3:5d:09:15:02:1c:
                    1b:f3:43:19:a5:c1:a9:a0:fb:f9:98:ee:e4:af:7c:
                    e2:ad:51:6d:c5:74:03:4d:db:f1:e0:69:ed:9a:23:
                    d8:cd:34:0b:83:6a:32:4e:1d:c0:91:fc:88:17:02:
                    0d:bd:6d:d9:b9:92:71:6b:8f:23:40:f9:48:fe:16:
                    59:af:f4:9c:33:7d:3f:08:65:ff:f1:e5:9c:4d:e8:
                    e8:7b:4a:c3:16:6d:53:9d:92:d7:86:9b:95:fb:5d:
                    86:6d:af:00:dd:6f:25:0d:53:70:7e:b6:36:11:94:
                    d1:90:b5:f1:6d:a8:b0:e8:2d:0d:c5:85:b5:50:4b:
                    7e:b0:57:8d:82:6d:bb:e0:82:64:3b:a4:d6:c4:d7:
                    0a:2c:89:61:47:99:67:5e:71:1f:5c:66:14:08:fa:
                    29:88:09:3b:38:60:4d:01:67:53:fe:16:85:70:54:
                    bf:e1:5e:76:b8:33:e3:9c:17:08:a4:0f:f2:c5:e1:
                    ac:99:94:7e:10:47:7d:51:43:42:85:df:e2:9a:53:
                    07:c4:2f:c8:bf:56:da:0b:7f:41:6d:8f:76:42:b0:
                    25:3c:fb:0a:f4:d0:d0:b3:79:72:70:0d:07:95:97:
                    c1:11:82:ff:c4:13:ec:0f:cf:bb:4e:b8:4a:ed:ca:
                    3c:a3
                Exponent: 65537 (0x10001)
        X509v3 extensions:
            X509v3 Subject Key Identifier: 
                43:E7:CC:3C:45:3E:58:A7:6D:D2:90:56:8F:16:93:9E:2F:F3:06:2E
            X509v3 Authority Key Identifier: 
                keyid:43:E7:CC:3C:45:3E:58:A7:6D:D2:90:56:8F:16:93:9E:2F:F3:06:2E

            Authority Information Access: 
                CA Issuers - URI:http://url-for-aia/Root.cer

            X509v3 CRL Distribution Points: 

                Full Name:
                  URI:http://url-for-crl/Root.crl

            X509v3 Key Usage: critical
                Certificate Sign, CRL Sign
            X509v3 Basic Constraints: critical
                CA:TRUE
    Signature Algorithm: sha256WithRSAEncryption
         31:fc:83:c0:53:9d:5a:92:3c:75:5b:58:86:1f:57:9f:28:54:
         5f:fe:5d:f4:fd:3c:55:62:2d:f7:53:fe:43:cb:fc:85:ce:d1:
         16:bb:e4:de:27:d9:5e:e4:42:9a:4f:e3:3e:8f:f6:b9:da:90:
         f4:2a:d3:06:3c:80:8a:e5:4a:60:e4:5b:a4:b9:55:24:40:96:
         e4:d9:17:99:a9:eb:bb:98:f5:15:6a:6a:ad:a1:ac:8a:6b:ce:
         18:4c:f4:ce:5d:90:86:12:41:38:e4:eb:b2:eb:e3:76:37:f1:
         57:a5:ab:ae:06:3b:5e:24:f0:c3:ee:cf:36:08:37:95:28:1b:
         76:66:cb:94:5c:ec:2d:c7:a5:b8:e3:12:73:d0:ff:1b:b9:c2:
         43:24:b8:c1:4d:11:4e:c6:93:c9:50:14:35:9a:6d:69:f6:24:
         3d:c8:31:7e:4b:a1:60:35:22:96:c0:f3:89:eb:82:e2:a5:45:
         c3:74:9c:1b:25:7a:9f:f2:ce:ad:68:0c:f7:86:73:ed:cb:3f:
         e5:fb:d9:1d:af:ec:b9:90:85:87:25:a9:bd:87:ad:85:46:1f:
         d3:e4:b6:11:f9:ec:8d:e2:7c:b1:f2:c7:b6:1f:4f:6d:35:c3:
         42:70:01:da:46:c7:72:74:12:de:f9:93:52:5b:b3:99:9c:8d:
         25:73:ec:92
-----BEGIN CERTIFICATE-----
MIIDeDCCAmCgAwIBAgIUYiAfU5I4LEdnTR0EQS1Tqx7UXKkwDQYJKoZIhvcNAQEL
BQAwDzENMAsGA1UEAwwEUm9vdDAeFw0yMDExMDMxMjAwMDBaFw0yMTExMDMxMjAw
MDBaMA8xDTALBgNVBAMMBFJvb3QwggEiMA0GCSqGSIb3DQEBAQUAA4IBDwAwggEK
AoIBAQD1xk7uP/B8ZMNdCRUCHBvzQxmlwamg+/mY7uSvfOKtUW3FdANN2/Hgae2a
I9jNNAuDajJOHcCR/IgXAg29bdm5knFrjyNA+Uj+Flmv9JwzfT8IZf/x5ZxN6Oh7
SsMWbVOdkteGm5X7XYZtrwDdbyUNU3B+tjYRlNGQtfFtqLDoLQ3FhbVQS36wV42C
bbvggmQ7pNbE1wosiWFHmWdecR9cZhQI+imICTs4YE0BZ1P+FoVwVL/hXna4M+Oc
FwikD/LF4ayZlH4QR31RQ0KF3+KaUwfEL8i/VtoLf0Ftj3ZCsCU8+wr00NCzeXJw
DQeVl8ERgv/EE+wPz7tOuErtyjyjAgMBAAGjgcswgcgwHQYDVR0OBBYEFEPnzDxF
PlinbdKQVo8Wk54v8wYuMB8GA1UdIwQYMBaAFEPnzDxFPlinbdKQVo8Wk54v8wYu
MDcGCCsGAQUFBwEBBCswKTAnBggrBgEFBQcwAoYbaHR0cDovL3VybC1mb3ItYWlh
L1Jvb3QuY2VyMCwGA1UdHwQlMCMwIaAfoB2GG2h0dHA6Ly91cmwtZm9yLWNybC9S
b290LmNybDAOBgNVHQ8BAf8EBAMCAQYwDwYDVR0TAQH/BAUwAwEB/zANBgkqhkiG
9w0BAQsFAAOCAQEAMfyDwFOdWpI8dVtYhh9XnyhUX/5d9P08VWIt91P+Q8v8hc7R
Frvk3ifZXuRCmk/jPo/2udqQ9CrTBjyAiuVKYORbpLlVJECW5NkXmanru5j1FWpq
raGsimvOGEz0zl2QhhJBOOTrsuvjdjfxV6WrrgY7XiTww+7PNgg3lSgbdmbLlFzs
LceluOMSc9D/G7nCQyS4wU0RTsaTyVAUNZptafYkPcgxfkuhYDUilsDzieuC4qVF
w3ScGyV6n/LOrWgM94Zz7cs/5fvZHa/suZCFhyWpvYethUYf0+S2EfnsjeJ8sfLH
th9PbTXDQnAB2kbHcnQS3vmTUluzmZyNJXPskg==
-----END CERTIFICATE-----
