[Created by: generate-chains.py]

Certificate chain where the root certificate holds an RSA key, intermediate
certificate holds an EC key, and target certificate holds an RSA key. The
target certificate has a valid signature using ECDSA.

Certificate:
    Data:
        Version: 3 (0x2)
        Serial Number:
            41:40:39:26:f7:3c:b3:a7:c4:58:60:3a:f3:20:9a:3a:ee:e3:c5:56
        Signature Algorithm: ecdsa-with-SHA256
        Issuer: CN=Intermediate
        Validity
            Not Before: Oct  5 12:00:00 2022 GMT
            Not After : Oct  5 12:00:00 2023 GMT
        Subject: CN=Target
        Subject Public Key Info:
            Public Key Algorithm: rsaEncryption
                Public-Key: (2048 bit)
                Modulus:
                    00:e6:90:14:d7:6c:5e:85:24:21:17:7a:ce:f2:8a:
                    3e:83:20:e4:3e:eb:cf:4c:06:bb:0a:d5:21:d9:2b:
                    e1:2e:14:8a:20:16:c8:c9:4b:55:ed:e9:ea:48:ed:
                    ef:03:2b:de:25:dd:41:9b:0c:0b:bd:f8:58:e2:a0:
                    ba:92:3f:03:de:ca:e6:35:42:be:ab:e1:33:17:ac:
                    3e:bc:fc:90:2a:d2:c7:76:1f:51:d2:ca:e9:80:e0:
                    76:39:ab:88:65:b4:e3:ea:05:dd:c5:8e:fe:4c:86:
                    c3:06:49:0c:ab:69:a5:4f:14:cc:82:1f:b1:3d:f6:
                    f9:d5:d4:61:41:35:e5:d4:f7:4f:1a:af:fb:a8:ff:
                    ef:7b:38:95:40:c5:56:32:a5:cf:8f:d6:04:df:23:
                    eb:5b:f7:32:a3:d7:a1:df:cb:67:35:25:d6:63:92:
                    d7:da:d9:83:20:52:58:1d:ef:6e:3c:88:91:14:08:
                    c7:70:85:b7:b3:93:c1:9a:51:57:d8:d5:4c:81:83:
                    96:91:b6:5a:b9:b5:7e:fb:90:bd:71:2e:09:04:6e:
                    f9:0b:ff:51:43:d4:20:77:ee:31:34:98:f8:e8:8f:
                    5a:2e:75:f1:0f:bf:64:35:a5:00:cb:4a:00:6e:45:
                    a3:01:d7:97:46:49:55:c1:df:2d:31:c4:98:ae:25:
                    b2:b3
                Exponent: 65537 (0x10001)
        X509v3 extensions:
            X509v3 Subject Key Identifier: 
                A0:D4:34:B4:BC:27:68:8C:38:A0:8F:3A:CF:6E:58:5F:57:97:44:B8
            X509v3 Authority Key Identifier: 
                B1:0E:68:94:5F:A9:F7:F8:4B:09:42:7D:AE:5A:7A:05:BF:E4:A1:F1
            Authority Information Access: 
                CA Issuers - URI:http://url-for-aia/Intermediate.cer
            X509v3 CRL Distribution Points: 
                Full Name:
                  URI:http://url-for-crl/Intermediate.crl
            X509v3 Key Usage: critical
                Digital Signature, Key Encipherment
            X509v3 Extended Key Usage: 
                TLS Web Server Authentication, TLS Web Client Authentication
    Signature Algorithm: ecdsa-with-SHA256
    Signature Value:
        30:64:02:30:21:93:5a:b8:32:f7:5c:f3:48:92:e4:73:9f:21:
        a9:34:7b:bd:9d:18:74:d5:53:2c:51:a8:7c:ad:8f:54:50:93:
        62:74:f6:4d:58:35:ab:5f:8a:e0:f9:40:f6:ea:fb:b9:02:30:
        0e:50:f0:f2:53:6c:89:0d:38:c3:92:f3:ef:7e:67:e3:40:17:
        62:cb:3d:6d:6a:42:11:04:87:95:6f:0b:39:69:64:6e:ad:07:
        c3:34:b8:ce:28:31:fd:69:8c:b3:41:4f
-----BEGIN CERTIFICATE-----
MIIC/jCCAoWgAwIBAgIUQUA5Jvc8s6fEWGA68yCaOu7jxVYwCgYIKoZIzj0EAwIw
FzEVMBMGA1UEAwwMSW50ZXJtZWRpYXRlMB4XDTIyMTAwNTEyMDAwMFoXDTIzMTAw
NTEyMDAwMFowETEPMA0GA1UEAwwGVGFyZ2V0MIIBIjANBgkqhkiG9w0BAQEFAAOC
AQ8AMIIBCgKCAQEA5pAU12xehSQhF3rO8oo+gyDkPuvPTAa7CtUh2SvhLhSKIBbI
yUtV7enqSO3vAyveJd1BmwwLvfhY4qC6kj8D3srmNUK+q+EzF6w+vPyQKtLHdh9R
0srpgOB2OauIZbTj6gXdxY7+TIbDBkkMq2mlTxTMgh+xPfb51dRhQTXl1PdPGq/7
qP/veziVQMVWMqXPj9YE3yPrW/cyo9eh38tnNSXWY5LX2tmDIFJYHe9uPIiRFAjH
cIW3s5PBmlFX2NVMgYOWkbZaubV++5C9cS4JBG75C/9RQ9Qgd+4xNJj46I9aLnXx
D79kNaUAy0oAbkWjAdeXRklVwd8tMcSYriWyswIDAQABo4HpMIHmMB0GA1UdDgQW
BBSg1DS0vCdojDigjzrPblhfV5dEuDAfBgNVHSMEGDAWgBSxDmiUX6n3+EsJQn2u
WnoFv+Sh8TA/BggrBgEFBQcBAQQzMDEwLwYIKwYBBQUHMAKGI2h0dHA6Ly91cmwt
Zm9yLWFpYS9JbnRlcm1lZGlhdGUuY2VyMDQGA1UdHwQtMCswKaAnoCWGI2h0dHA6
Ly91cmwtZm9yLWNybC9JbnRlcm1lZGlhdGUuY3JsMA4GA1UdDwEB/wQEAwIFoDAd
BgNVHSUEFjAUBggrBgEFBQcDAQYIKwYBBQUHAwIwCgYIKoZIzj0EAwIDZwAwZAIw
IZNauDL3XPNIkuRznyGpNHu9nRh01VMsUah8rY9UUJNidPZNWDWrX4rg+UD26vu5
AjAOUPDyU2yJDTjDkvPvfmfjQBdiyz1takIRBIeVbws5aWRurQfDNLjOKDH9aYyz
QU8=
-----END CERTIFICATE-----

Certificate:
    Data:
        Version: 3 (0x2)
        Serial Number:
            62:20:1f:53:92:38:2c:47:67:4d:1d:04:41:2d:53:ab:1e:d4:5c:aa
        Signature Algorithm: sha256WithRSAEncryption
        Issuer: CN=Root
        Validity
            Not Before: Oct  5 12:00:00 2022 GMT
            Not After : Oct  5 12:00:00 2023 GMT
        Subject: CN=Intermediate
        Subject Public Key Info:
            Public Key Algorithm: id-ecPublicKey
                Public-Key: (384 bit)
                pub:
                    04:f3:8f:d7:88:9f:98:67:05:36:a9:16:7c:85:b2:
                    cf:8e:02:72:19:eb:ab:48:14:1e:6f:6a:13:93:3e:
                    80:b9:aa:7f:53:9c:91:91:9e:b1:79:76:ec:31:ef:
                    97:46:30:d8:f4:ad:9c:60:c0:a6:00:88:62:5a:68:
                    9e:3e:00:f3:6c:b4:1a:10:0b:78:12:f3:fe:5f:47:
                    40:14:e7:2d:c0:82:cc:cf:df:93:fb:21:8e:ed:59:
                    b2:70:1e:7b:70:0c:e5
                ASN1 OID: secp384r1
                NIST CURVE: P-384
        X509v3 extensions:
            X509v3 Subject Key Identifier: 
                B1:0E:68:94:5F:A9:F7:F8:4B:09:42:7D:AE:5A:7A:05:BF:E4:A1:F1
            X509v3 Authority Key Identifier: 
                43:E7:CC:3C:45:3E:58:A7:6D:D2:90:56:8F:16:93:9E:2F:F3:06:2E
            Authority Information Access: 
                CA Issuers - URI:http://url-for-aia/Root.cer
            X509v3 CRL Distribution Points: 
                Full Name:
                  URI:http://url-for-crl/Root.crl
            X509v3 Key Usage: critical
                Certificate Sign, CRL Sign
            X509v3 Basic Constraints: critical
                CA:TRUE
    Signature Algorithm: sha256WithRSAEncryption
    Signature Value:
        c6:8e:12:07:c8:ed:3a:0d:c7:99:f8:33:60:51:97:5d:7a:44:
        29:47:4a:1c:77:be:2e:e3:8a:3b:a9:02:2b:d7:bc:4c:8a:49:
        2e:ec:58:64:a1:ec:bf:74:2e:39:5c:e5:86:5b:9e:7f:b6:2a:
        d5:14:98:ae:97:58:f6:27:52:fa:88:b4:8a:76:0c:a1:ec:d1:
        a1:2d:fd:54:73:06:36:7b:55:67:5b:85:ad:a2:73:c4:c9:a0:
        fd:a6:b1:e3:b8:be:b3:c1:a2:60:62:a8:ca:d2:5f:6f:7f:81:
        af:cc:a9:ea:1f:b6:58:71:31:52:42:26:1c:2a:1c:1e:d5:2d:
        7a:09:11:06:1c:4e:fd:20:f1:ee:d0:f4:e8:07:67:4a:46:41:
        b1:91:49:c8:66:99:55:17:32:0e:5b:e5:7f:50:a6:dc:94:b2:
        66:98:d5:ad:b6:17:36:a3:7e:47:b3:2a:e5:d1:ab:5b:83:8e:
        25:ba:56:35:3a:ae:e2:21:1e:8d:89:9f:cc:6d:1a:ce:b1:83:
        84:71:11:62:23:97:a9:8e:c3:e9:32:a3:b0:3d:93:1d:ce:b7:
        ab:00:7d:3f:3d:c2:f2:45:87:d1:27:4a:76:6b:fc:a9:e0:ae:
        35:a2:bd:e7:78:75:49:13:d5:71:1a:71:79:bb:06:04:52:db:
        72:32:60:0a
-----BEGIN CERTIFICATE-----
MIIC0jCCAbqgAwIBAgIUYiAfU5I4LEdnTR0EQS1Tqx7UXKowDQYJKoZIhvcNAQEL
BQAwDzENMAsGA1UEAwwEUm9vdDAeFw0yMjEwMDUxMjAwMDBaFw0yMzEwMDUxMjAw
MDBaMBcxFTATBgNVBAMMDEludGVybWVkaWF0ZTB2MBAGByqGSM49AgEGBSuBBAAi
A2IABPOP14ifmGcFNqkWfIWyz44Cchnrq0gUHm9qE5M+gLmqf1OckZGesXl27DHv
l0Yw2PStnGDApgCIYlponj4A82y0GhALeBLz/l9HQBTnLcCCzM/fk/shju1ZsnAe
e3AM5aOByzCByDAdBgNVHQ4EFgQUsQ5olF+p9/hLCUJ9rlp6Bb/kofEwHwYDVR0j
BBgwFoAUQ+fMPEU+WKdt0pBWjxaTni/zBi4wNwYIKwYBBQUHAQEEKzApMCcGCCsG
AQUFBzAChhtodHRwOi8vdXJsLWZvci1haWEvUm9vdC5jZXIwLAYDVR0fBCUwIzAh
oB+gHYYbaHR0cDovL3VybC1mb3ItY3JsL1Jvb3QuY3JsMA4GA1UdDwEB/wQEAwIB
BjAPBgNVHRMBAf8EBTADAQH/MA0GCSqGSIb3DQEBCwUAA4IBAQDGjhIHyO06DceZ
+DNgUZddekQpR0ocd74u44o7qQIr17xMikku7Fhkoey/dC45XOWGW55/tirVFJiu
l1j2J1L6iLSKdgyh7NGhLf1UcwY2e1VnW4WtonPEyaD9prHjuL6zwaJgYqjK0l9v
f4GvzKnqH7ZYcTFSQiYcKhwe1S16CREGHE79IPHu0PToB2dKRkGxkUnIZplVFzIO
W+V/UKbclLJmmNWtthc2o35Hsyrl0atbg44lulY1Oq7iIR6NiZ/MbRrOsYOEcRFi
I5epjsPpMqOwPZMdzrerAH0/PcLyRYfRJ0p2a/yp4K41or3neHVJE9VxGnF5uwYE
UttyMmAK
-----END CERTIFICATE-----

Certificate:
    Data:
        Version: 3 (0x2)
        Serial Number:
            62:20:1f:53:92:38:2c:47:67:4d:1d:04:41:2d:53:ab:1e:d4:5c:a9
        Signature Algorithm: sha256WithRSAEncryption
        Issuer: CN=Root
        Validity
            Not Before: Oct  5 12:00:00 2022 GMT
            Not After : Oct  5 12:00:00 2023 GMT
        Subject: CN=Root
        Subject Public Key Info:
            Public Key Algorithm: rsaEncryption
                Public-Key: (2048 bit)
                Modulus:
                    00:f5:c6:4e:ee:3f:f0:7c:64:c3:5d:09:15:02:1c:
                    1b:f3:43:19:a5:c1:a9:a0:fb:f9:98:ee:e4:af:7c:
                    e2:ad:51:6d:c5:74:03:4d:db:f1:e0:69:ed:9a:23:
                    d8:cd:34:0b:83:6a:32:4e:1d:c0:91:fc:88:17:02:
                    0d:bd:6d:d9:b9:92:71:6b:8f:23:40:f9:48:fe:16:
                    59:af:f4:9c:33:7d:3f:08:65:ff:f1:e5:9c:4d:e8:
                    e8:7b:4a:c3:16:6d:53:9d:92:d7:86:9b:95:fb:5d:
                    86:6d:af:00:dd:6f:25:0d:53:70:7e:b6:36:11:94:
                    d1:90:b5:f1:6d:a8:b0:e8:2d:0d:c5:85:b5:50:4b:
                    7e:b0:57:8d:82:6d:bb:e0:82:64:3b:a4:d6:c4:d7:
                    0a:2c:89:61:47:99:67:5e:71:1f:5c:66:14:08:fa:
                    29:88:09:3b:38:60:4d:01:67:53:fe:16:85:70:54:
                    bf:e1:5e:76:b8:33:e3:9c:17:08:a4:0f:f2:c5:e1:
                    ac:99:94:7e:10:47:7d:51:43:42:85:df:e2:9a:53:
                    07:c4:2f:c8:bf:56:da:0b:7f:41:6d:8f:76:42:b0:
                    25:3c:fb:0a:f4:d0:d0:b3:79:72:70:0d:07:95:97:
                    c1:11:82:ff:c4:13:ec:0f:cf:bb:4e:b8:4a:ed:ca:
                    3c:a3
                Exponent: 65537 (0x10001)
        X509v3 extensions:
            X509v3 Subject Key Identifier: 
                43:E7:CC:3C:45:3E:58:A7:6D:D2:90:56:8F:16:93:9E:2F:F3:06:2E
            X509v3 Authority Key Identifier: 
                43:E7:CC:3C:45:3E:58:A7:6D:D2:90:56:8F:16:93:9E:2F:F3:06:2E
            Authority Information Access: 
                CA Issuers - URI:http://url-for-aia/Root.cer
            X509v3 CRL Distribution Points: 
                Full Name:
                  URI:http://url-for-crl/Root.crl
            X509v3 Key Usage: critical
                Certificate Sign, CRL Sign
            X509v3 Basic Constraints: critical
                CA:TRUE
    Signature Algorithm: sha256WithRSAEncryption
    Signature Value:
        d7:46:7f:70:8a:3d:81:34:60:72:08:c0:e4:f4:2d:84:fc:f8:
        36:aa:57:01:73:1b:25:65:3d:b4:89:b0:62:15:58:fa:3e:f7:
        69:af:a4:90:f9:9d:79:ad:67:c7:09:e1:10:c3:92:01:35:8b:
        75:86:0c:32:9d:cd:30:b2:6d:8b:39:56:98:30:33:99:a3:d8:
        88:c3:0b:f5:cd:84:a2:dd:bc:1a:34:2b:d4:84:df:22:93:7b:
        35:ac:a1:e3:9d:4b:df:ff:08:e8:5d:6c:e1:b5:85:8c:6c:3b:
        2e:3f:65:75:34:54:d7:a6:90:d7:88:a9:58:8a:57:87:a0:78:
        34:c4:59:77:db:f4:4b:90:7e:15:27:d2:b1:2b:ea:bd:10:66:
        80:86:ab:ab:23:ed:51:99:05:3a:b4:e9:ee:50:56:cd:19:b3:
        fd:8b:ec:11:dc:a6:4c:8e:dd:50:43:7a:bd:d4:3d:79:3c:4d:
        e8:04:ac:89:50:e5:6a:20:6d:d9:c1:4f:85:d1:65:8d:de:02:
        dd:56:1a:d1:46:5e:9e:b9:15:b7:16:0a:7e:02:34:81:44:dc:
        87:42:05:a7:21:1d:0e:ac:34:f7:23:d2:b7:ac:43:47:2c:84:
        4e:5f:77:b2:75:d9:2a:bb:fa:d5:34:4b:64:78:9f:6d:c9:64:
        6b:e4:af:56
-----BEGIN CERTIFICATE-----
MIIDeDCCAmCgAwIBAgIUYiAfU5I4LEdnTR0EQS1Tqx7UXKkwDQYJKoZIhvcNAQEL
BQAwDzENMAsGA1UEAwwEUm9vdDAeFw0yMjEwMDUxMjAwMDBaFw0yMzEwMDUxMjAw
MDBaMA8xDTALBgNVBAMMBFJvb3QwggEiMA0GCSqGSIb3DQEBAQUAA4IBDwAwggEK
AoIBAQD1xk7uP/B8ZMNdCRUCHBvzQxmlwamg+/mY7uSvfOKtUW3FdANN2/Hgae2a
I9jNNAuDajJOHcCR/IgXAg29bdm5knFrjyNA+Uj+Flmv9JwzfT8IZf/x5ZxN6Oh7
SsMWbVOdkteGm5X7XYZtrwDdbyUNU3B+tjYRlNGQtfFtqLDoLQ3FhbVQS36wV42C
bbvggmQ7pNbE1wosiWFHmWdecR9cZhQI+imICTs4YE0BZ1P+FoVwVL/hXna4M+Oc
FwikD/LF4ayZlH4QR31RQ0KF3+KaUwfEL8i/VtoLf0Ftj3ZCsCU8+wr00NCzeXJw
DQeVl8ERgv/EE+wPz7tOuErtyjyjAgMBAAGjgcswgcgwHQYDVR0OBBYEFEPnzDxF
PlinbdKQVo8Wk54v8wYuMB8GA1UdIwQYMBaAFEPnzDxFPlinbdKQVo8Wk54v8wYu
MDcGCCsGAQUFBwEBBCswKTAnBggrBgEFBQcwAoYbaHR0cDovL3VybC1mb3ItYWlh
L1Jvb3QuY2VyMCwGA1UdHwQlMCMwIaAfoB2GG2h0dHA6Ly91cmwtZm9yLWNybC9S
b290LmNybDAOBgNVHQ8BAf8EBAMCAQYwDwYDVR0TAQH/BAUwAwEB/zANBgkqhkiG
9w0BAQsFAAOCAQEA10Z/cIo9gTRgcgjA5PQthPz4NqpXAXMbJWU9tImwYhVY+j73
aa+kkPmdea1nxwnhEMOSATWLdYYMMp3NMLJtizlWmDAzmaPYiMML9c2Eot28GjQr
1ITfIpN7Nayh451L3/8I6F1s4bWFjGw7Lj9ldTRU16aQ14ipWIpXh6B4NMRZd9v0
S5B+FSfSsSvqvRBmgIarqyPtUZkFOrTp7lBWzRmz/YvsEdymTI7dUEN6vdQ9eTxN
6ASsiVDlaiBt2cFPhdFljd4C3VYa0UZenrkVtxYKfgI0gUTch0IFpyEdDqw09yPS
t6xDRyyETl93snXZKrv61TRLZHifbclka+SvVg==
-----END CERTIFICATE-----
