[Created by: generate-chains.py]

Certificate chain where the intermediate restricts the extended key usage to
clientAuth, and the target asserts serverAuth + clientAuth.

Certificate:
    Data:
        Version: 3 (0x2)
        Serial Number:
            56:4a:78:5b:dc:c1:19:20:fe:f3:13:be:99:46:f9:53:d1:a4:40:a1
        Signature Algorithm: sha256WithRSAEncryption
        Issuer: CN=Intermediate
        Validity
            Not Before: Nov  3 12:00:00 2020 GMT
            Not After : Nov  3 12:00:00 2021 GMT
        Subject: CN=Target
        Subject Public Key Info:
            Public Key Algorithm: rsaEncryption
                RSA Public-Key: (2048 bit)
                Modulus:
                    00:bb:d3:3c:f5:4c:df:73:61:c9:d0:be:56:b8:7f:
                    e6:52:56:9c:3b:84:83:23:d8:ea:30:cb:cc:01:ba:
                    1d:36:70:d3:4c:58:62:74:2f:96:57:7c:e5:b0:27:
                    6f:fa:72:c0:5b:0b:0c:f6:ec:1e:3b:c7:04:45:b8:
                    89:97:be:fa:49:27:b6:c2:0a:29:b8:98:cd:a4:a4:
                    54:29:ce:55:c5:91:ff:89:d3:51:87:88:d0:c3:ef:
                    0c:de:43:b0:e0:b9:d9:23:92:f0:04:42:b6:50:06:
                    2b:1a:7b:97:3e:67:a4:ed:77:23:e5:83:76:76:63:
                    09:6d:be:05:6e:fc:aa:a0:c8:91:97:97:2d:85:02:
                    95:c2:fc:dd:dc:f4:4b:08:c3:be:3b:43:76:96:cc:
                    ec:55:7a:0f:00:fe:29:4b:87:ca:df:50:ba:5c:60:
                    e5:6f:8c:f0:56:7b:5b:20:3d:87:fd:81:7f:61:51:
                    6c:44:61:55:3a:52:28:cf:49:4d:72:3f:34:b0:a3:
                    04:18:e6:47:50:c7:f0:e1:a5:4f:8c:59:e3:73:ca:
                    b6:a6:0d:34:a3:40:fb:41:97:8c:66:93:64:29:20:
                    13:1b:f5:ab:69:74:11:88:13:8d:dc:15:c8:22:a2:
                    2b:16:74:f2:f1:8b:27:c1:5a:9c:c5:0e:95:78:ba:
                    fe:9f
                Exponent: 65537 (0x10001)
        X509v3 extensions:
            X509v3 Subject Key Identifier: 
                6D:1B:79:D9:7C:01:F2:1D:99:D4:DD:54:90:BF:32:03:0F:28:4D:38
            X509v3 Authority Key Identifier: 
                keyid:3A:B9:4C:96:D7:3D:14:A8:24:C8:DE:55:0A:54:05:5D:5C:A2:C9:99

            Authority Information Access: 
                CA Issuers - URI:http://url-for-aia/Intermediate.cer

            X509v3 CRL Distribution Points: 

                Full Name:
                  URI:http://url-for-crl/Intermediate.crl

            X509v3 Key Usage: critical
                Digital Signature, Key Encipherment
            X509v3 Extended Key Usage: 
                TLS Web Server Authentication, TLS Web Client Authentication
    Signature Algorithm: sha256WithRSAEncryption
         b2:32:a8:95:2b:0d:5f:3f:0c:20:ab:de:5c:79:fe:17:1d:98:
         c5:e7:ee:ba:51:24:25:1b:e2:3d:ca:00:a5:8c:79:c5:6c:7c:
         95:05:3c:9e:0d:5b:87:1c:ac:36:6a:8b:3f:7c:4c:91:e6:13:
         b6:34:7f:6c:56:e9:de:4e:0f:de:36:62:b1:42:d5:48:3a:c4:
         ca:4d:57:58:4d:cf:ff:0f:9e:af:63:f0:1d:ca:c8:1d:ae:c5:
         bb:5e:83:27:48:26:08:d2:3d:1b:74:a0:af:b2:e9:91:2f:3b:
         f5:c9:64:89:12:db:40:76:7a:8f:4a:9b:bb:11:ec:e7:ab:3b:
         2b:6b:4e:36:6f:0b:b8:58:87:24:54:5b:ba:c8:c3:40:5d:ec:
         27:08:70:69:2f:ae:33:12:45:f6:21:98:d3:6e:07:c8:75:43:
         90:ac:78:b4:b8:df:5e:18:60:d0:53:a6:75:c7:59:c6:20:64:
         3f:55:41:b4:b6:92:83:3b:5a:28:4a:ae:24:f0:45:8b:de:7a:
         4a:02:95:62:f1:9c:7e:0f:be:57:b5:0f:d7:a4:74:7b:20:16:
         ec:56:08:ac:c6:7d:a8:00:9e:13:c7:8b:86:a9:81:ec:d5:5b:
         d8:f1:db:d9:bf:e5:2e:bc:4f:ce:86:ef:1d:4c:95:a0:1b:ba:
         3a:88:d8:5b
-----BEGIN CERTIFICATE-----
MIIDoDCCAoigAwIBAgIUVkp4W9zBGSD+8xO+mUb5U9GkQKEwDQYJKoZIhvcNAQEL
BQAwFzEVMBMGA1UEAwwMSW50ZXJtZWRpYXRlMB4XDTIwMTEwMzEyMDAwMFoXDTIx
MTEwMzEyMDAwMFowETEPMA0GA1UEAwwGVGFyZ2V0MIIBIjANBgkqhkiG9w0BAQEF
AAOCAQ8AMIIBCgKCAQEAu9M89Uzfc2HJ0L5WuH/mUlacO4SDI9jqMMvMAbodNnDT
TFhidC+WV3zlsCdv+nLAWwsM9uweO8cERbiJl776SSe2wgopuJjNpKRUKc5VxZH/
idNRh4jQw+8M3kOw4LnZI5LwBEK2UAYrGnuXPmek7Xcj5YN2dmMJbb4FbvyqoMiR
l5cthQKVwvzd3PRLCMO+O0N2lszsVXoPAP4pS4fK31C6XGDlb4zwVntbID2H/YF/
YVFsRGFVOlIoz0lNcj80sKMEGOZHUMfw4aVPjFnjc8q2pg00o0D7QZeMZpNkKSAT
G/WraXQRiBON3BXIIqIrFnTy8YsnwVqcxQ6VeLr+nwIDAQABo4HpMIHmMB0GA1Ud
DgQWBBRtG3nZfAHyHZnU3VSQvzIDDyhNODAfBgNVHSMEGDAWgBQ6uUyW1z0UqCTI
3lUKVAVdXKLJmTA/BggrBgEFBQcBAQQzMDEwLwYIKwYBBQUHMAKGI2h0dHA6Ly91
cmwtZm9yLWFpYS9JbnRlcm1lZGlhdGUuY2VyMDQGA1UdHwQtMCswKaAnoCWGI2h0
dHA6Ly91cmwtZm9yLWNybC9JbnRlcm1lZGlhdGUuY3JsMA4GA1UdDwEB/wQEAwIF
oDAdBgNVHSUEFjAUBggrBgEFBQcDAQYIKwYBBQUHAwIwDQYJKoZIhvcNAQELBQAD
ggEBALIyqJUrDV8/DCCr3lx5/hcdmMXn7rpRJCUb4j3KAKWMecVsfJUFPJ4NW4cc
rDZqiz98TJHmE7Y0f2xW6d5OD942YrFC1Ug6xMpNV1hNz/8Pnq9j8B3KyB2uxbte
gydIJgjSPRt0oK+y6ZEvO/XJZIkS20B2eo9Km7sR7OerOytrTjZvC7hYhyRUW7rI
w0Bd7CcIcGkvrjMSRfYhmNNuB8h1Q5CseLS4314YYNBTpnXHWcYgZD9VQbS2koM7
WihKriTwRYveekoClWLxnH4Pvle1D9ekdHsgFuxWCKzGfagAnhPHi4apgezVW9jx
29m/5S68T86G7x1MlaAbujqI2Fs=
-----END CERTIFICATE-----

Certificate:
    Data:
        Version: 3 (0x2)
        Serial Number:
            6b:b7:9e:0a:83:55:83:77:1b:db:10:18:94:12:3f:c4:67:6e:66:e1
        Signature Algorithm: sha256WithRSAEncryption
        Issuer: CN=Root
        Validity
            Not Before: Nov  3 12:00:00 2020 GMT
            Not After : Nov  3 12:00:00 2021 GMT
        Subject: CN=Intermediate
        Subject Public Key Info:
            Public Key Algorithm: rsaEncryption
                RSA Public-Key: (2048 bit)
                Modulus:
                    00:bd:9a:08:67:72:a5:4d:ba:39:c4:0a:d5:a9:42:
                    46:7a:a0:f3:f2:2b:1f:83:91:58:a7:00:3b:b3:17:
                    51:e5:1f:83:13:44:10:14:7f:84:6d:97:57:de:32:
                    00:bd:15:18:e4:c7:89:8b:6e:5b:41:51:ad:d3:c9:
                    f7:3e:75:51:74:5c:71:40:2e:9b:95:be:8f:3b:17:
                    33:a5:3a:33:17:97:05:d7:30:0c:40:94:c1:8d:e7:
                    80:5f:f3:d4:3e:e4:46:8c:e3:80:ec:95:91:87:e0:
                    a0:a3:32:73:6c:44:c2:9c:12:a5:d3:6b:91:e0:60:
                    3d:a1:61:9d:09:6f:5f:7b:b1:c5:98:6a:3a:cc:85:
                    76:45:f2:44:0e:3f:cf:b9:56:5a:23:55:68:31:4b:
                    17:30:ad:a0:e2:b1:85:3f:6e:2e:7e:a7:38:b9:dd:
                    cd:3d:fb:74:1a:83:87:c2:ec:ec:6a:63:0b:5e:c8:
                    75:07:b5:4f:3f:93:58:a5:fe:3e:76:18:ee:16:df:
                    b1:52:b8:1a:f0:77:65:a3:b7:2d:16:a3:e6:c8:11:
                    67:e1:20:ea:2f:ed:0b:93:e6:c8:2a:a0:fc:34:b7:
                    fa:4b:21:33:60:02:86:cf:b4:bd:f0:c7:ec:f5:7a:
                    b4:ff:84:18:f4:73:a1:28:7a:31:de:08:b6:fd:be:
                    0a:7d
                Exponent: 65537 (0x10001)
        X509v3 extensions:
            X509v3 Subject Key Identifier: 
                3A:B9:4C:96:D7:3D:14:A8:24:C8:DE:55:0A:54:05:5D:5C:A2:C9:99
            X509v3 Authority Key Identifier: 
                keyid:AE:89:01:94:41:77:67:BD:EF:7F:98:4F:29:E7:1B:3A:18:B9:DD:51

            Authority Information Access: 
                CA Issuers - URI:http://url-for-aia/Root.cer

            X509v3 CRL Distribution Points: 

                Full Name:
                  URI:http://url-for-crl/Root.crl

            X509v3 Key Usage: critical
                Certificate Sign, CRL Sign
            X509v3 Basic Constraints: critical
                CA:TRUE
            X509v3 Extended Key Usage: 
                TLS Web Client Authentication
    Signature Algorithm: sha256WithRSAEncryption
         56:e2:8d:51:9e:38:ee:20:2f:78:53:98:f3:fc:85:0e:95:3e:
         94:70:27:ca:1f:10:6b:7c:64:02:ba:c8:3d:91:05:d3:14:f6:
         24:c8:bb:fe:2d:40:83:14:68:29:b9:91:f6:4e:1a:06:1b:8f:
         85:41:c1:63:38:a4:34:d6:6d:d4:ec:7d:c5:f8:dd:75:cd:15:
         84:0b:74:53:e0:3c:10:c6:28:08:7f:1f:f4:b2:08:0e:71:d0:
         6a:5c:79:8c:f8:5f:2a:f3:9f:e0:86:5a:93:25:a0:75:2d:e2:
         c5:a1:44:6a:22:a4:c7:f1:36:90:de:2b:aa:ed:d1:6e:ab:20:
         01:97:ea:f8:ae:b9:c5:14:62:1b:09:43:99:ea:41:a9:73:01:
         8e:e3:c1:71:17:b9:0a:51:f5:24:7c:e8:d6:20:c4:fc:87:c9:
         10:74:27:c3:0f:56:e3:51:c1:0e:24:96:05:3b:13:e8:15:c8:
         1b:fa:d3:f6:ca:00:88:c7:da:81:81:ac:41:35:3c:99:bc:f0:
         15:ed:83:b2:f6:bf:5a:c6:d4:12:be:b9:95:e1:b0:51:a9:64:
         4a:ea:47:8b:dd:7e:ef:ec:51:13:4f:3d:25:55:1d:6b:0a:17:
         66:a2:18:43:e4:8c:c6:02:61:24:d0:c5:95:a9:6b:0d:79:d8:
         d4:eb:14:a8
-----BEGIN CERTIFICATE-----
MIIDlTCCAn2gAwIBAgIUa7eeCoNVg3cb2xAYlBI/xGduZuEwDQYJKoZIhvcNAQEL
BQAwDzENMAsGA1UEAwwEUm9vdDAeFw0yMDExMDMxMjAwMDBaFw0yMTExMDMxMjAw
MDBaMBcxFTATBgNVBAMMDEludGVybWVkaWF0ZTCCASIwDQYJKoZIhvcNAQEBBQAD
ggEPADCCAQoCggEBAL2aCGdypU26OcQK1alCRnqg8/IrH4ORWKcAO7MXUeUfgxNE
EBR/hG2XV94yAL0VGOTHiYtuW0FRrdPJ9z51UXRccUAum5W+jzsXM6U6MxeXBdcw
DECUwY3ngF/z1D7kRozjgOyVkYfgoKMyc2xEwpwSpdNrkeBgPaFhnQlvX3uxxZhq
OsyFdkXyRA4/z7lWWiNVaDFLFzCtoOKxhT9uLn6nOLndzT37dBqDh8Ls7GpjC17I
dQe1Tz+TWKX+PnYY7hbfsVK4GvB3ZaO3LRaj5sgRZ+Eg6i/tC5PmyCqg/DS3+ksh
M2AChs+0vfDH7PV6tP+EGPRzoSh6Md4Itv2+Cn0CAwEAAaOB4DCB3TAdBgNVHQ4E
FgQUOrlMltc9FKgkyN5VClQFXVyiyZkwHwYDVR0jBBgwFoAUrokBlEF3Z73vf5hP
KecbOhi53VEwNwYIKwYBBQUHAQEEKzApMCcGCCsGAQUFBzAChhtodHRwOi8vdXJs
LWZvci1haWEvUm9vdC5jZXIwLAYDVR0fBCUwIzAhoB+gHYYbaHR0cDovL3VybC1m
b3ItY3JsL1Jvb3QuY3JsMA4GA1UdDwEB/wQEAwIBBjAPBgNVHRMBAf8EBTADAQH/
MBMGA1UdJQQMMAoGCCsGAQUFBwMCMA0GCSqGSIb3DQEBCwUAA4IBAQBW4o1Rnjju
IC94U5jz/IUOlT6UcCfKHxBrfGQCusg9kQXTFPYkyLv+LUCDFGgpuZH2ThoGG4+F
QcFjOKQ01m3U7H3F+N11zRWEC3RT4DwQxigIfx/0sggOcdBqXHmM+F8q85/ghlqT
JaB1LeLFoURqIqTH8TaQ3iuq7dFuqyABl+r4rrnFFGIbCUOZ6kGpcwGO48FxF7kK
UfUkfOjWIMT8h8kQdCfDD1bjUcEOJJYFOxPoFcgb+tP2ygCIx9qBgaxBNTyZvPAV
7YOy9r9axtQSvrmV4bBRqWRK6keL3X7v7FETTz0lVR1rChdmohhD5IzGAmEk0MWV
qWsNedjU6xSo
-----END CERTIFICATE-----

Certificate:
    Data:
        Version: 3 (0x2)
        Serial Number:
            6b:b7:9e:0a:83:55:83:77:1b:db:10:18:94:12:3f:c4:67:6e:66:e0
        Signature Algorithm: sha256WithRSAEncryption
        Issuer: CN=Root
        Validity
            Not Before: Nov  3 12:00:00 2020 GMT
            Not After : Nov  3 12:00:00 2021 GMT
        Subject: CN=Root
        Subject Public Key Info:
            Public Key Algorithm: rsaEncryption
                RSA Public-Key: (2048 bit)
                Modulus:
                    00:b6:30:63:d8:b0:11:71:5f:03:38:e5:24:a7:88:
                    9c:fe:f5:a6:2a:59:63:7b:18:39:d5:34:2f:27:4c:
                    fe:18:27:eb:7e:71:25:4d:af:71:97:7f:f0:18:b0:
                    19:a7:fd:ab:52:d9:01:aa:13:ff:3f:c9:c8:d4:87:
                    fa:69:53:28:b7:52:4f:91:ac:55:cb:38:7f:61:32:
                    b6:d9:20:f4:58:6f:c3:4c:4f:64:d7:14:34:8c:d3:
                    ac:f5:97:8a:9d:f6:d0:0b:64:b4:3a:55:71:0b:92:
                    b1:8e:df:2e:77:8a:fe:36:f6:0f:be:49:03:3d:42:
                    fc:4c:e4:50:f6:3e:86:d0:e4:0b:15:cd:27:49:ae:
                    7a:be:d7:05:28:68:f7:e7:35:1b:fc:2a:50:c1:66:
                    f3:31:11:f3:f9:40:80:51:3a:60:9a:87:47:fc:46:
                    99:e3:1a:c9:5c:76:d9:34:45:b0:82:d6:06:d7:ea:
                    5d:13:ce:ca:4e:9d:2e:80:cd:b3:5c:47:11:dd:f1:
                    8a:97:c7:8d:37:6a:1a:c7:97:13:ad:bf:9c:85:32:
                    df:20:0a:a9:27:3b:e6:26:c6:9d:98:d3:d1:d7:a0:
                    16:4d:b1:a3:3b:1f:19:c3:c5:81:dd:35:25:3c:86:
                    8e:8b:76:69:f2:e5:35:5e:3c:6c:3f:7e:47:57:7f:
                    eb:0d
                Exponent: 65537 (0x10001)
        X509v3 extensions:
            X509v3 Subject Key Identifier: 
                AE:89:01:94:41:77:67:BD:EF:7F:98:4F:29:E7:1B:3A:18:B9:DD:51
            X509v3 Authority Key Identifier: 
                keyid:AE:89:01:94:41:77:67:BD:EF:7F:98:4F:29:E7:1B:3A:18:B9:DD:51

            Authority Information Access: 
                CA Issuers - URI:http://url-for-aia/Root.cer

            X509v3 CRL Distribution Points: 

                Full Name:
                  URI:http://url-for-crl/Root.crl

            X509v3 Key Usage: critical
                Certificate Sign, CRL Sign
            X509v3 Basic Constraints: critical
                CA:TRUE
    Signature Algorithm: sha256WithRSAEncryption
         5b:4c:ff:b1:b8:fb:c5:77:3f:ae:91:16:40:7c:87:61:57:cd:
         be:0a:93:48:1f:c5:a3:02:8f:26:8c:5f:7d:d6:98:9b:1c:fb:
         81:c9:78:90:d6:a1:6f:2a:8b:90:fe:84:68:a9:2c:8d:4a:c6:
         94:ef:87:20:64:6b:d5:71:fc:da:08:82:82:e0:ac:15:0e:7b:
         e2:76:0b:77:70:1f:5f:33:0c:1f:c9:51:6b:55:30:4b:15:07:
         05:3f:e2:3c:10:0d:bd:cc:1f:4d:4a:62:49:d0:01:66:c1:c5:
         d4:1c:f8:20:8c:e0:cf:35:b3:b6:da:27:bb:ae:ea:7a:af:8a:
         35:19:f2:12:ab:6e:0f:d3:05:26:f6:c7:b0:5b:9a:95:d0:f0:
         51:0d:d7:3d:57:25:b5:a0:f7:77:95:8c:11:88:e9:94:f2:97:
         91:1e:31:e5:c8:f5:55:ed:52:eb:0c:97:16:41:ad:02:d3:bc:
         13:b5:73:d5:ab:7f:08:72:32:22:ff:1d:b6:ea:21:27:6d:e3:
         59:31:e9:d6:18:8b:c9:1d:6f:57:07:58:2a:c9:4f:8e:d9:e7:
         fd:a7:17:bb:44:57:86:7c:f2:68:9c:7e:6b:36:fd:0f:d3:0b:
         65:13:35:6d:07:2e:28:e0:94:3c:2f:f6:68:9a:eb:8e:d8:b6:
         25:fc:d8:30
-----BEGIN CERTIFICATE-----
MIIDeDCCAmCgAwIBAgIUa7eeCoNVg3cb2xAYlBI/xGduZuAwDQYJKoZIhvcNAQEL
BQAwDzENMAsGA1UEAwwEUm9vdDAeFw0yMDExMDMxMjAwMDBaFw0yMTExMDMxMjAw
MDBaMA8xDTALBgNVBAMMBFJvb3QwggEiMA0GCSqGSIb3DQEBAQUAA4IBDwAwggEK
AoIBAQC2MGPYsBFxXwM45SSniJz+9aYqWWN7GDnVNC8nTP4YJ+t+cSVNr3GXf/AY
sBmn/atS2QGqE/8/ycjUh/ppUyi3Uk+RrFXLOH9hMrbZIPRYb8NMT2TXFDSM06z1
l4qd9tALZLQ6VXELkrGO3y53iv429g++SQM9QvxM5FD2PobQ5AsVzSdJrnq+1wUo
aPfnNRv8KlDBZvMxEfP5QIBROmCah0f8RpnjGslcdtk0RbCC1gbX6l0TzspOnS6A
zbNcRxHd8YqXx403ahrHlxOtv5yFMt8gCqknO+Ymxp2Y09HXoBZNsaM7HxnDxYHd
NSU8ho6Ldmny5TVePGw/fkdXf+sNAgMBAAGjgcswgcgwHQYDVR0OBBYEFK6JAZRB
d2e973+YTynnGzoYud1RMB8GA1UdIwQYMBaAFK6JAZRBd2e973+YTynnGzoYud1R
MDcGCCsGAQUFBwEBBCswKTAnBggrBgEFBQcwAoYbaHR0cDovL3VybC1mb3ItYWlh
L1Jvb3QuY2VyMCwGA1UdHwQlMCMwIaAfoB2GG2h0dHA6Ly91cmwtZm9yLWNybC9S
b290LmNybDAOBgNVHQ8BAf8EBAMCAQYwDwYDVR0TAQH/BAUwAwEB/zANBgkqhkiG
9w0BAQsFAAOCAQEAW0z/sbj7xXc/rpEWQHyHYVfNvgqTSB/FowKPJoxffdaYmxz7
gcl4kNahbyqLkP6EaKksjUrGlO+HIGRr1XH82giCguCsFQ574nYLd3AfXzMMH8lR
a1UwSxUHBT/iPBANvcwfTUpiSdABZsHF1Bz4IIzgzzWzttonu67qeq+KNRnyEqtu
D9MFJvbHsFualdDwUQ3XPVcltaD3d5WMEYjplPKXkR4x5cj1Ve1S6wyXFkGtAtO8
E7Vz1at/CHIyIv8dtuohJ23jWTHp1hiLyR1vVwdYKslPjtnn/acXu0RXhnzyaJx+
azb9D9MLZRM1bQcuKOCUPC/2aJrrjti2JfzYMA==
-----END CERTIFICATE-----
