[Created by: generate-chains.py]

Certificate chain where the intermediate restricts the extended key usage to
clientAuth, and the target asserts serverAuth + clientAuth.

Certificate:
    Data:
        Version: 3 (0x2)
        Serial Number:
            56:4a:78:5b:dc:c1:19:20:fe:f3:13:be:99:46:f9:53:d1:a4:40:a1
        Signature Algorithm: sha256WithRSAEncryption
        Issuer: CN=Intermediate
        Validity
            Not Before: Oct  5 12:00:00 2022 GMT
            Not After : Oct  5 12:00:00 2023 GMT
        Subject: CN=Target
        Subject Public Key Info:
            Public Key Algorithm: rsaEncryption
                Public-Key: (2048 bit)
                Modulus:
                    00:bb:d3:3c:f5:4c:df:73:61:c9:d0:be:56:b8:7f:
                    e6:52:56:9c:3b:84:83:23:d8:ea:30:cb:cc:01:ba:
                    1d:36:70:d3:4c:58:62:74:2f:96:57:7c:e5:b0:27:
                    6f:fa:72:c0:5b:0b:0c:f6:ec:1e:3b:c7:04:45:b8:
                    89:97:be:fa:49:27:b6:c2:0a:29:b8:98:cd:a4:a4:
                    54:29:ce:55:c5:91:ff:89:d3:51:87:88:d0:c3:ef:
                    0c:de:43:b0:e0:b9:d9:23:92:f0:04:42:b6:50:06:
                    2b:1a:7b:97:3e:67:a4:ed:77:23:e5:83:76:76:63:
                    09:6d:be:05:6e:fc:aa:a0:c8:91:97:97:2d:85:02:
                    95:c2:fc:dd:dc:f4:4b:08:c3:be:3b:43:76:96:cc:
                    ec:55:7a:0f:00:fe:29:4b:87:ca:df:50:ba:5c:60:
                    e5:6f:8c:f0:56:7b:5b:20:3d:87:fd:81:7f:61:51:
                    6c:44:61:55:3a:52:28:cf:49:4d:72:3f:34:b0:a3:
                    04:18:e6:47:50:c7:f0:e1:a5:4f:8c:59:e3:73:ca:
                    b6:a6:0d:34:a3:40:fb:41:97:8c:66:93:64:29:20:
                    13:1b:f5:ab:69:74:11:88:13:8d:dc:15:c8:22:a2:
                    2b:16:74:f2:f1:8b:27:c1:5a:9c:c5:0e:95:78:ba:
                    fe:9f
                Exponent: 65537 (0x10001)
        X509v3 extensions:
            X509v3 Subject Key Identifier: 
                6D:1B:79:D9:7C:01:F2:1D:99:D4:DD:54:90:BF:32:03:0F:28:4D:38
            X509v3 Authority Key Identifier: 
                3A:B9:4C:96:D7:3D:14:A8:24:C8:DE:55:0A:54:05:5D:5C:A2:C9:99
            Authority Information Access: 
                CA Issuers - URI:http://url-for-aia/Intermediate.cer
            X509v3 CRL Distribution Points: 
                Full Name:
                  URI:http://url-for-crl/Intermediate.crl
            X509v3 Key Usage: critical
                Digital Signature, Key Encipherment
            X509v3 Extended Key Usage: 
                TLS Web Server Authentication, TLS Web Client Authentication
    Signature Algorithm: sha256WithRSAEncryption
    Signature Value:
        84:4e:b1:35:58:45:ee:3b:6f:8d:88:7b:26:5f:93:5b:02:08:
        9b:b2:b2:f8:13:38:c2:41:68:05:7a:49:58:c8:81:56:b0:14:
        ad:16:b0:a0:32:8f:b3:01:59:6e:0d:e5:f7:f2:34:3c:fd:ba:
        ac:ac:66:40:26:60:7f:8a:94:82:bd:7c:cc:8a:06:7d:78:7c:
        51:81:0a:45:69:33:35:11:84:49:c1:cf:37:fc:47:d3:a6:1b:
        3b:64:b7:28:a0:20:de:fa:43:28:cb:4c:5e:b8:a3:0a:b5:60:
        03:ff:07:d6:1d:0f:e0:65:f3:77:1f:e5:86:38:de:b6:a4:ca:
        db:14:97:48:6c:6c:49:bb:8f:4d:1d:1a:27:03:32:70:8d:7f:
        16:f9:e8:31:ea:b2:10:8d:7f:57:48:65:8e:6e:67:04:2b:b1:
        ca:d7:9b:4f:2f:d2:d2:6c:df:10:1c:25:d4:80:2e:24:52:85:
        c7:43:8f:8b:2f:24:11:f2:fc:b9:5d:74:7d:68:8e:ad:5f:94:
        50:d5:03:66:05:9c:c5:94:d8:12:42:da:9b:74:6f:df:d7:5e:
        89:f8:2e:42:d3:84:3f:4f:77:36:34:cf:41:96:dd:7a:62:12:
        14:51:56:32:5b:96:5b:43:4d:ee:94:86:f1:c8:10:29:ad:14:
        a9:a0:35:38
-----BEGIN CERTIFICATE-----
MIIDoDCCAoigAwIBAgIUVkp4W9zBGSD+8xO+mUb5U9GkQKEwDQYJKoZIhvcNAQEL
BQAwFzEVMBMGA1UEAwwMSW50ZXJtZWRpYXRlMB4XDTIyMTAwNTEyMDAwMFoXDTIz
MTAwNTEyMDAwMFowETEPMA0GA1UEAwwGVGFyZ2V0MIIBIjANBgkqhkiG9w0BAQEF
AAOCAQ8AMIIBCgKCAQEAu9M89Uzfc2HJ0L5WuH/mUlacO4SDI9jqMMvMAbodNnDT
TFhidC+WV3zlsCdv+nLAWwsM9uweO8cERbiJl776SSe2wgopuJjNpKRUKc5VxZH/
idNRh4jQw+8M3kOw4LnZI5LwBEK2UAYrGnuXPmek7Xcj5YN2dmMJbb4FbvyqoMiR
l5cthQKVwvzd3PRLCMO+O0N2lszsVXoPAP4pS4fK31C6XGDlb4zwVntbID2H/YF/
YVFsRGFVOlIoz0lNcj80sKMEGOZHUMfw4aVPjFnjc8q2pg00o0D7QZeMZpNkKSAT
G/WraXQRiBON3BXIIqIrFnTy8YsnwVqcxQ6VeLr+nwIDAQABo4HpMIHmMB0GA1Ud
DgQWBBRtG3nZfAHyHZnU3VSQvzIDDyhNODAfBgNVHSMEGDAWgBQ6uUyW1z0UqCTI
3lUKVAVdXKLJmTA/BggrBgEFBQcBAQQzMDEwLwYIKwYBBQUHMAKGI2h0dHA6Ly91
cmwtZm9yLWFpYS9JbnRlcm1lZGlhdGUuY2VyMDQGA1UdHwQtMCswKaAnoCWGI2h0
dHA6Ly91cmwtZm9yLWNybC9JbnRlcm1lZGlhdGUuY3JsMA4GA1UdDwEB/wQEAwIF
oDAdBgNVHSUEFjAUBggrBgEFBQcDAQYIKwYBBQUHAwIwDQYJKoZIhvcNAQELBQAD
ggEBAIROsTVYRe47b42IeyZfk1sCCJuysvgTOMJBaAV6SVjIgVawFK0WsKAyj7MB
WW4N5ffyNDz9uqysZkAmYH+KlIK9fMyKBn14fFGBCkVpMzURhEnBzzf8R9OmGztk
tyigIN76QyjLTF64owq1YAP/B9YdD+Bl83cf5YY43rakytsUl0hsbEm7j00dGicD
MnCNfxb56DHqshCNf1dIZY5uZwQrscrXm08v0tJs3xAcJdSALiRShcdDj4svJBHy
/LlddH1ojq1flFDVA2YFnMWU2BJC2pt0b9/XXon4LkLThD9PdzY0z0GW3XpiEhRR
VjJblltDTe6UhvHIECmtFKmgNTg=
-----END CERTIFICATE-----

Certificate:
    Data:
        Version: 3 (0x2)
        Serial Number:
            6b:b7:9e:0a:83:55:83:77:1b:db:10:18:94:12:3f:c4:67:6e:66:e1
        Signature Algorithm: sha256WithRSAEncryption
        Issuer: CN=Root
        Validity
            Not Before: Oct  5 12:00:00 2022 GMT
            Not After : Oct  5 12:00:00 2023 GMT
        Subject: CN=Intermediate
        Subject Public Key Info:
            Public Key Algorithm: rsaEncryption
                Public-Key: (2048 bit)
                Modulus:
                    00:bd:9a:08:67:72:a5:4d:ba:39:c4:0a:d5:a9:42:
                    46:7a:a0:f3:f2:2b:1f:83:91:58:a7:00:3b:b3:17:
                    51:e5:1f:83:13:44:10:14:7f:84:6d:97:57:de:32:
                    00:bd:15:18:e4:c7:89:8b:6e:5b:41:51:ad:d3:c9:
                    f7:3e:75:51:74:5c:71:40:2e:9b:95:be:8f:3b:17:
                    33:a5:3a:33:17:97:05:d7:30:0c:40:94:c1:8d:e7:
                    80:5f:f3:d4:3e:e4:46:8c:e3:80:ec:95:91:87:e0:
                    a0:a3:32:73:6c:44:c2:9c:12:a5:d3:6b:91:e0:60:
                    3d:a1:61:9d:09:6f:5f:7b:b1:c5:98:6a:3a:cc:85:
                    76:45:f2:44:0e:3f:cf:b9:56:5a:23:55:68:31:4b:
                    17:30:ad:a0:e2:b1:85:3f:6e:2e:7e:a7:38:b9:dd:
                    cd:3d:fb:74:1a:83:87:c2:ec:ec:6a:63:0b:5e:c8:
                    75:07:b5:4f:3f:93:58:a5:fe:3e:76:18:ee:16:df:
                    b1:52:b8:1a:f0:77:65:a3:b7:2d:16:a3:e6:c8:11:
                    67:e1:20:ea:2f:ed:0b:93:e6:c8:2a:a0:fc:34:b7:
                    fa:4b:21:33:60:02:86:cf:b4:bd:f0:c7:ec:f5:7a:
                    b4:ff:84:18:f4:73:a1:28:7a:31:de:08:b6:fd:be:
                    0a:7d
                Exponent: 65537 (0x10001)
        X509v3 extensions:
            X509v3 Subject Key Identifier: 
                3A:B9:4C:96:D7:3D:14:A8:24:C8:DE:55:0A:54:05:5D:5C:A2:C9:99
            X509v3 Authority Key Identifier: 
                AE:89:01:94:41:77:67:BD:EF:7F:98:4F:29:E7:1B:3A:18:B9:DD:51
            Authority Information Access: 
                CA Issuers - URI:http://url-for-aia/Root.cer
            X509v3 CRL Distribution Points: 
                Full Name:
                  URI:http://url-for-crl/Root.crl
            X509v3 Key Usage: critical
                Certificate Sign, CRL Sign
            X509v3 Basic Constraints: critical
                CA:TRUE
            X509v3 Extended Key Usage: 
                TLS Web Client Authentication
    Signature Algorithm: sha256WithRSAEncryption
    Signature Value:
        97:b5:0f:b6:aa:11:e4:20:39:be:ed:84:69:b9:76:76:c8:d3:
        ad:0f:81:87:e3:e5:14:85:96:36:3e:86:1e:7d:8f:ce:89:58:
        7d:4c:16:65:79:11:21:f9:fe:15:96:f0:b9:6f:78:d3:94:64:
        4c:62:27:4a:1c:2b:2e:d7:45:c8:46:e6:b7:00:4d:46:54:25:
        ab:50:78:b9:ad:c1:31:37:ff:d7:b7:3e:19:79:11:ab:de:d5:
        11:81:e2:25:31:4a:71:26:02:3e:a2:06:e8:5e:0c:ab:be:1b:
        cb:5a:e7:86:7d:0a:1d:23:44:09:52:f8:4b:de:9f:be:ac:bc:
        6d:b9:d6:d1:20:5b:42:85:e4:a9:f3:1f:57:96:62:3b:69:d3:
        a7:dd:81:2b:45:ab:2b:82:a0:0f:13:33:14:60:f6:e2:62:56:
        9e:89:24:45:b0:85:86:c5:7a:45:8a:06:34:cc:ea:c0:4d:77:
        1f:d1:cc:18:0f:3a:e3:44:1c:7c:f8:e1:f2:8c:16:93:57:b2:
        a5:99:2f:ec:01:7a:1a:7a:73:51:6a:4c:25:fb:35:62:e4:97:
        5a:a5:1f:26:69:c5:22:69:e3:f8:49:99:98:e8:a1:38:1e:4e:
        c8:b5:af:c6:8f:22:57:69:9a:79:c7:e1:b5:09:43:93:c8:67:
        aa:79:ca:9f
-----BEGIN CERTIFICATE-----
MIIDlTCCAn2gAwIBAgIUa7eeCoNVg3cb2xAYlBI/xGduZuEwDQYJKoZIhvcNAQEL
BQAwDzENMAsGA1UEAwwEUm9vdDAeFw0yMjEwMDUxMjAwMDBaFw0yMzEwMDUxMjAw
MDBaMBcxFTATBgNVBAMMDEludGVybWVkaWF0ZTCCASIwDQYJKoZIhvcNAQEBBQAD
ggEPADCCAQoCggEBAL2aCGdypU26OcQK1alCRnqg8/IrH4ORWKcAO7MXUeUfgxNE
EBR/hG2XV94yAL0VGOTHiYtuW0FRrdPJ9z51UXRccUAum5W+jzsXM6U6MxeXBdcw
DECUwY3ngF/z1D7kRozjgOyVkYfgoKMyc2xEwpwSpdNrkeBgPaFhnQlvX3uxxZhq
OsyFdkXyRA4/z7lWWiNVaDFLFzCtoOKxhT9uLn6nOLndzT37dBqDh8Ls7GpjC17I
dQe1Tz+TWKX+PnYY7hbfsVK4GvB3ZaO3LRaj5sgRZ+Eg6i/tC5PmyCqg/DS3+ksh
M2AChs+0vfDH7PV6tP+EGPRzoSh6Md4Itv2+Cn0CAwEAAaOB4DCB3TAdBgNVHQ4E
FgQUOrlMltc9FKgkyN5VClQFXVyiyZkwHwYDVR0jBBgwFoAUrokBlEF3Z73vf5hP
KecbOhi53VEwNwYIKwYBBQUHAQEEKzApMCcGCCsGAQUFBzAChhtodHRwOi8vdXJs
LWZvci1haWEvUm9vdC5jZXIwLAYDVR0fBCUwIzAhoB+gHYYbaHR0cDovL3VybC1m
b3ItY3JsL1Jvb3QuY3JsMA4GA1UdDwEB/wQEAwIBBjAPBgNVHRMBAf8EBTADAQH/
MBMGA1UdJQQMMAoGCCsGAQUFBwMCMA0GCSqGSIb3DQEBCwUAA4IBAQCXtQ+2qhHk
IDm+7YRpuXZ2yNOtD4GH4+UUhZY2PoYefY/OiVh9TBZleREh+f4VlvC5b3jTlGRM
YidKHCsu10XIRua3AE1GVCWrUHi5rcExN//Xtz4ZeRGr3tURgeIlMUpxJgI+ogbo
XgyrvhvLWueGfQodI0QJUvhL3p++rLxtudbRIFtCheSp8x9XlmI7adOn3YErRasr
gqAPEzMUYPbiYlaeiSRFsIWGxXpFigY0zOrATXcf0cwYDzrjRBx8+OHyjBaTV7Kl
mS/sAXoaenNRakwl+zVi5JdapR8macUiaeP4SZmY6KE4Hk7Ita/GjyJXaZp5x+G1
CUOTyGeqecqf
-----END CERTIFICATE-----

Certificate:
    Data:
        Version: 3 (0x2)
        Serial Number:
            6b:b7:9e:0a:83:55:83:77:1b:db:10:18:94:12:3f:c4:67:6e:66:e0
        Signature Algorithm: sha256WithRSAEncryption
        Issuer: CN=Root
        Validity
            Not Before: Oct  5 12:00:00 2022 GMT
            Not After : Oct  5 12:00:00 2023 GMT
        Subject: CN=Root
        Subject Public Key Info:
            Public Key Algorithm: rsaEncryption
                Public-Key: (2048 bit)
                Modulus:
                    00:b6:30:63:d8:b0:11:71:5f:03:38:e5:24:a7:88:
                    9c:fe:f5:a6:2a:59:63:7b:18:39:d5:34:2f:27:4c:
                    fe:18:27:eb:7e:71:25:4d:af:71:97:7f:f0:18:b0:
                    19:a7:fd:ab:52:d9:01:aa:13:ff:3f:c9:c8:d4:87:
                    fa:69:53:28:b7:52:4f:91:ac:55:cb:38:7f:61:32:
                    b6:d9:20:f4:58:6f:c3:4c:4f:64:d7:14:34:8c:d3:
                    ac:f5:97:8a:9d:f6:d0:0b:64:b4:3a:55:71:0b:92:
                    b1:8e:df:2e:77:8a:fe:36:f6:0f:be:49:03:3d:42:
                    fc:4c:e4:50:f6:3e:86:d0:e4:0b:15:cd:27:49:ae:
                    7a:be:d7:05:28:68:f7:e7:35:1b:fc:2a:50:c1:66:
                    f3:31:11:f3:f9:40:80:51:3a:60:9a:87:47:fc:46:
                    99:e3:1a:c9:5c:76:d9:34:45:b0:82:d6:06:d7:ea:
                    5d:13:ce:ca:4e:9d:2e:80:cd:b3:5c:47:11:dd:f1:
                    8a:97:c7:8d:37:6a:1a:c7:97:13:ad:bf:9c:85:32:
                    df:20:0a:a9:27:3b:e6:26:c6:9d:98:d3:d1:d7:a0:
                    16:4d:b1:a3:3b:1f:19:c3:c5:81:dd:35:25:3c:86:
                    8e:8b:76:69:f2:e5:35:5e:3c:6c:3f:7e:47:57:7f:
                    eb:0d
                Exponent: 65537 (0x10001)
        X509v3 extensions:
            X509v3 Subject Key Identifier: 
                AE:89:01:94:41:77:67:BD:EF:7F:98:4F:29:E7:1B:3A:18:B9:DD:51
            X509v3 Authority Key Identifier: 
                AE:89:01:94:41:77:67:BD:EF:7F:98:4F:29:E7:1B:3A:18:B9:DD:51
            Authority Information Access: 
                CA Issuers - URI:http://url-for-aia/Root.cer
            X509v3 CRL Distribution Points: 
                Full Name:
                  URI:http://url-for-crl/Root.crl
            X509v3 Key Usage: critical
                Certificate Sign, CRL Sign
            X509v3 Basic Constraints: critical
                CA:TRUE
    Signature Algorithm: sha256WithRSAEncryption
    Signature Value:
        34:b7:e6:a2:4a:d3:a8:3b:ad:1a:03:01:81:52:08:d4:84:91:
        ef:1d:e1:a1:b7:51:a7:62:60:b1:b3:af:5b:c8:2b:c1:cc:60:
        75:97:10:c9:29:d3:82:db:41:53:e2:89:2a:bc:7a:79:c3:61:
        c2:7c:05:03:f5:21:e6:dc:94:b4:98:6f:a4:7a:fd:db:82:52:
        e5:58:98:f5:69:b7:32:bc:7b:85:56:a0:62:43:6d:b2:e8:c5:
        71:cd:27:df:7d:6f:a3:b9:db:42:fd:95:fb:3b:55:f9:15:ec:
        8f:57:68:23:e5:a7:c9:7d:f3:5d:e2:83:2b:82:b0:12:87:cc:
        79:59:ad:f9:50:21:a5:b0:11:e1:e7:13:93:32:ec:86:4c:f4:
        73:49:ba:4d:06:f4:ff:ca:6a:cc:c0:f2:90:f4:a8:ac:8e:82:
        f8:72:5a:f6:77:91:d1:dc:b1:3e:47:47:96:ee:a3:c6:81:8e:
        66:47:c3:01:21:d4:91:b7:47:77:59:31:b1:5a:d6:7a:c9:cd:
        a9:88:9f:59:e5:9a:ce:d4:d0:8e:f0:3f:8f:d1:de:57:cb:8e:
        df:de:bf:5c:2e:86:05:99:d1:a8:2b:11:ab:9e:6a:0a:f4:25:
        ec:bc:a1:32:72:23:ad:2f:a5:8f:25:31:d1:46:08:73:7d:76:
        a8:36:0b:0c
-----BEGIN CERTIFICATE-----
MIIDeDCCAmCgAwIBAgIUa7eeCoNVg3cb2xAYlBI/xGduZuAwDQYJKoZIhvcNAQEL
BQAwDzENMAsGA1UEAwwEUm9vdDAeFw0yMjEwMDUxMjAwMDBaFw0yMzEwMDUxMjAw
MDBaMA8xDTALBgNVBAMMBFJvb3QwggEiMA0GCSqGSIb3DQEBAQUAA4IBDwAwggEK
AoIBAQC2MGPYsBFxXwM45SSniJz+9aYqWWN7GDnVNC8nTP4YJ+t+cSVNr3GXf/AY
sBmn/atS2QGqE/8/ycjUh/ppUyi3Uk+RrFXLOH9hMrbZIPRYb8NMT2TXFDSM06z1
l4qd9tALZLQ6VXELkrGO3y53iv429g++SQM9QvxM5FD2PobQ5AsVzSdJrnq+1wUo
aPfnNRv8KlDBZvMxEfP5QIBROmCah0f8RpnjGslcdtk0RbCC1gbX6l0TzspOnS6A
zbNcRxHd8YqXx403ahrHlxOtv5yFMt8gCqknO+Ymxp2Y09HXoBZNsaM7HxnDxYHd
NSU8ho6Ldmny5TVePGw/fkdXf+sNAgMBAAGjgcswgcgwHQYDVR0OBBYEFK6JAZRB
d2e973+YTynnGzoYud1RMB8GA1UdIwQYMBaAFK6JAZRBd2e973+YTynnGzoYud1R
MDcGCCsGAQUFBwEBBCswKTAnBggrBgEFBQcwAoYbaHR0cDovL3VybC1mb3ItYWlh
L1Jvb3QuY2VyMCwGA1UdHwQlMCMwIaAfoB2GG2h0dHA6Ly91cmwtZm9yLWNybC9S
b290LmNybDAOBgNVHQ8BAf8EBAMCAQYwDwYDVR0TAQH/BAUwAwEB/zANBgkqhkiG
9w0BAQsFAAOCAQEANLfmokrTqDutGgMBgVII1ISR7x3hobdRp2JgsbOvW8grwcxg
dZcQySnTgttBU+KJKrx6ecNhwnwFA/Uh5tyUtJhvpHr924JS5ViY9Wm3Mrx7hVag
YkNtsujFcc0n331vo7nbQv2V+ztV+RXsj1doI+WnyX3zXeKDK4KwEofMeVmt+VAh
pbAR4ecTkzLshkz0c0m6TQb0/8pqzMDykPSorI6C+HJa9neR0dyxPkdHlu6jxoGO
ZkfDASHUkbdHd1kxsVrWesnNqYifWeWaztTQjvA/j9HeV8uO396/XC6GBZnRqCsR
q55qCvQl7LyhMnIjrS+ljyUx0UYIc312qDYLDA==
-----END CERTIFICATE-----
