[Created by: generate-chains.py]

Certificate chain where the leaf certificate lacks an extended key usage
extension.

Certificate:
    Data:
        Version: 3 (0x2)
        Serial Number:
            7f:73:f7:58:6c:9c:cb:aa:d7:aa:99:67:42:a3:18:c8:ae:3e:20:ea
        Signature Algorithm: sha256WithRSAEncryption
        Issuer: CN=Intermediate
        Validity
            Not Before: Oct  5 12:00:00 2022 GMT
            Not After : Oct  5 12:00:00 2023 GMT
        Subject: CN=Target
        Subject Public Key Info:
            Public Key Algorithm: rsaEncryption
                Public-Key: (2048 bit)
                Modulus:
                    00:c0:9e:a5:77:70:28:bc:8f:18:ce:a2:39:65:81:
                    18:d9:31:0a:ee:23:09:81:cd:82:36:98:a5:82:2e:
                    b1:fc:59:a8:46:49:06:16:60:eb:12:46:2c:85:a8:
                    c0:75:7b:2d:45:0f:09:ba:d6:a9:fd:88:0f:d6:97:
                    78:1e:5d:51:cc:1a:94:1e:2e:b8:82:4e:e3:0c:aa:
                    58:1b:c6:dd:fd:d2:a3:92:6c:0a:ae:5e:ca:56:87:
                    9a:6c:bd:89:32:99:5b:da:33:dd:7a:ed:a7:c5:e1:
                    02:de:25:5b:17:6a:f5:15:8a:31:71:c7:c0:24:7c:
                    55:c4:8e:cf:4c:03:fd:7f:f4:e1:90:cc:1a:5e:b5:
                    f1:4b:2e:7a:2f:69:06:2a:86:76:33:88:ef:b2:e0:
                    84:52:98:03:eb:98:7b:16:25:65:6a:a6:5a:fa:37:
                    b5:a1:70:74:5e:96:87:62:78:a4:d4:05:60:97:3a:
                    f9:4c:86:49:0d:54:db:79:8d:68:56:58:83:ee:8f:
                    1a:da:d7:3a:06:78:6e:75:f0:a9:99:3a:22:a3:06:
                    ee:58:a2:2b:d1:ea:4a:a7:8a:c8:bd:43:f8:b1:70:
                    4f:fb:51:b6:22:78:cf:5c:c6:dc:80:33:3d:f5:92:
                    6d:91:c9:1b:7e:87:37:28:76:b4:ff:7f:6d:52:9b:
                    c7:e5
                Exponent: 65537 (0x10001)
        X509v3 extensions:
            X509v3 Subject Key Identifier: 
                49:EA:B2:99:05:EC:D6:35:F4:11:A5:DD:F1:99:31:AE:C0:D8:B8:08
            X509v3 Authority Key Identifier: 
                7C:05:F1:0D:0B:C4:F8:8E:33:4C:F1:AE:78:6A:2C:16:AD:79:D0:A6
            Authority Information Access: 
                CA Issuers - URI:http://url-for-aia/Intermediate.cer
            X509v3 CRL Distribution Points: 
                Full Name:
                  URI:http://url-for-crl/Intermediate.crl
            X509v3 Key Usage: critical
                Digital Signature, Key Encipherment
    Signature Algorithm: sha256WithRSAEncryption
    Signature Value:
        37:9c:9d:1b:44:f1:87:e9:08:96:e9:df:30:f9:2b:0b:a5:08:
        36:1b:ad:41:8f:64:99:ea:1f:94:99:13:9f:9a:a2:f1:36:17:
        f7:b6:fa:c1:4b:80:f5:54:70:eb:4a:73:61:f6:9e:2d:68:04:
        de:ef:40:24:25:17:42:4a:6c:b5:b9:9c:5b:98:91:e1:ee:ed:
        99:f8:a6:5a:1f:a3:89:99:96:b1:43:b2:1e:b9:80:92:b1:54:
        51:73:b3:f6:27:05:f7:92:78:7d:ca:1d:91:4c:95:8b:a9:0b:
        ba:0e:18:f7:3a:ec:75:af:1d:25:d5:45:41:c0:48:9b:54:45:
        f7:11:23:a8:47:2b:4c:d5:60:be:ff:ce:41:f5:77:a8:cb:26:
        f3:d8:b8:24:4f:33:dd:93:13:ae:93:e9:3b:69:86:fc:f0:23:
        5a:a4:c0:4d:c7:72:48:e7:25:12:6c:0e:48:fa:0c:42:17:58:
        8d:43:e1:02:bf:19:e7:b7:3e:e9:bb:2a:df:d9:cd:90:b7:1c:
        67:09:e0:16:91:63:56:dd:1e:2a:0e:98:fa:04:eb:a8:cf:89:
        ca:83:59:e0:a9:f1:b9:88:e3:c9:c4:7d:77:a2:85:4a:cd:66:
        c1:80:92:ed:a8:8f:52:20:4b:84:01:60:1e:fe:19:c2:96:d1:
        1b:54:c6:4b
-----BEGIN CERTIFICATE-----
MIIDgTCCAmmgAwIBAgIUf3P3WGycy6rXqplnQqMYyK4+IOowDQYJKoZIhvcNAQEL
BQAwFzEVMBMGA1UEAwwMSW50ZXJtZWRpYXRlMB4XDTIyMTAwNTEyMDAwMFoXDTIz
MTAwNTEyMDAwMFowETEPMA0GA1UEAwwGVGFyZ2V0MIIBIjANBgkqhkiG9w0BAQEF
AAOCAQ8AMIIBCgKCAQEAwJ6ld3AovI8YzqI5ZYEY2TEK7iMJgc2CNpilgi6x/Fmo
RkkGFmDrEkYshajAdXstRQ8Jutap/YgP1pd4Hl1RzBqUHi64gk7jDKpYG8bd/dKj
kmwKrl7KVoeabL2JMplb2jPdeu2nxeEC3iVbF2r1FYoxccfAJHxVxI7PTAP9f/Th
kMwaXrXxSy56L2kGKoZ2M4jvsuCEUpgD65h7FiVlaqZa+je1oXB0XpaHYnik1AVg
lzr5TIZJDVTbeY1oVliD7o8a2tc6BnhudfCpmToiowbuWKIr0epKp4rIvUP4sXBP
+1G2InjPXMbcgDM99ZJtkckbfoc3KHa0/39tUpvH5QIDAQABo4HKMIHHMB0GA1Ud
DgQWBBRJ6rKZBezWNfQRpd3xmTGuwNi4CDAfBgNVHSMEGDAWgBR8BfENC8T4jjNM
8a54aiwWrXnQpjA/BggrBgEFBQcBAQQzMDEwLwYIKwYBBQUHMAKGI2h0dHA6Ly91
cmwtZm9yLWFpYS9JbnRlcm1lZGlhdGUuY2VyMDQGA1UdHwQtMCswKaAnoCWGI2h0
dHA6Ly91cmwtZm9yLWNybC9JbnRlcm1lZGlhdGUuY3JsMA4GA1UdDwEB/wQEAwIF
oDANBgkqhkiG9w0BAQsFAAOCAQEAN5ydG0Txh+kIlunfMPkrC6UINhutQY9kmeof
lJkTn5qi8TYX97b6wUuA9VRw60pzYfaeLWgE3u9AJCUXQkpstbmcW5iR4e7tmfim
Wh+jiZmWsUOyHrmAkrFUUXOz9icF95J4fcodkUyVi6kLug4Y9zrsda8dJdVFQcBI
m1RF9xEjqEcrTNVgvv/OQfV3qMsm89i4JE8z3ZMTrpPpO2mG/PAjWqTATcdySOcl
EmwOSPoMQhdYjUPhAr8Z57c+6bsq39nNkLccZwngFpFjVt0eKg6Y+gTrqM+JyoNZ
4KnxuYjjycR9d6KFSs1mwYCS7aiPUiBLhAFgHv4ZwpbRG1TGSw==
-----END CERTIFICATE-----

Certificate:
    Data:
        Version: 3 (0x2)
        Serial Number:
            09:de:a4:e8:b3:85:c2:b7:74:4d:d4:dd:42:5f:7f:11:3b:90:4f:38
        Signature Algorithm: sha256WithRSAEncryption
        Issuer: CN=Root
        Validity
            Not Before: Oct  5 12:00:00 2022 GMT
            Not After : Oct  5 12:00:00 2023 GMT
        Subject: CN=Intermediate
        Subject Public Key Info:
            Public Key Algorithm: rsaEncryption
                Public-Key: (2048 bit)
                Modulus:
                    00:96:3d:06:43:c1:e6:7e:de:e8:e7:d0:e0:3e:d5:
                    a8:1f:08:fe:98:ef:b9:a3:3d:0f:14:a5:3e:85:27:
                    6a:a2:aa:8c:3b:f6:21:43:12:2d:c8:9c:b3:cf:a8:
                    ee:4f:8c:b7:3f:7f:49:49:a3:dc:17:3b:4b:28:2a:
                    93:ae:e1:df:7e:22:b2:1d:9c:5f:43:59:a5:4e:55:
                    dd:db:55:46:55:83:6d:48:76:ef:3f:77:24:58:d3:
                    7b:78:28:05:7c:66:7c:79:90:99:61:b6:cc:2d:b6:
                    ef:36:ca:11:3b:b5:65:c8:73:91:b0:10:12:17:a3:
                    e1:1c:ea:c7:dc:9c:b3:66:3d:ec:bb:a3:3e:99:e0:
                    04:98:4d:9c:b5:62:ad:16:71:22:00:68:ef:e6:42:
                    f6:05:28:4d:88:16:05:51:82:f6:d8:83:91:0c:13:
                    4c:3c:6e:d6:22:2a:52:da:37:56:a9:24:18:ba:8f:
                    2e:65:d9:3a:4b:e0:a3:69:94:3b:16:5e:4a:cc:a8:
                    6e:32:6d:f8:74:15:32:c8:9f:af:06:11:81:db:9a:
                    65:cf:01:05:2f:65:4b:71:4e:92:1c:06:51:7f:29:
                    57:e9:24:9f:89:f9:80:63:25:97:90:42:56:f8:e1:
                    26:61:b2:48:b3:20:9b:9a:9b:34:4e:2f:03:06:a7:
                    dc:11
                Exponent: 65537 (0x10001)
        X509v3 extensions:
            X509v3 Subject Key Identifier: 
                7C:05:F1:0D:0B:C4:F8:8E:33:4C:F1:AE:78:6A:2C:16:AD:79:D0:A6
            X509v3 Authority Key Identifier: 
                F2:26:B1:CF:39:F4:1E:77:A5:A1:DA:65:4B:C4:D0:12:C9:53:25:AE
            Authority Information Access: 
                CA Issuers - URI:http://url-for-aia/Root.cer
            X509v3 CRL Distribution Points: 
                Full Name:
                  URI:http://url-for-crl/Root.crl
            X509v3 Key Usage: critical
                Certificate Sign, CRL Sign
            X509v3 Basic Constraints: critical
                CA:TRUE
    Signature Algorithm: sha256WithRSAEncryption
    Signature Value:
        25:4a:d3:6b:1c:ab:62:f7:0b:1a:1a:1a:95:2f:ac:2c:a8:10:
        74:77:fb:7c:15:7c:b2:f7:88:4b:99:3b:7b:e4:74:b1:be:e7:
        16:bb:14:bc:b3:1e:0b:d5:2f:79:a4:82:f4:bf:3d:47:ef:d2:
        2e:1c:d5:58:bb:e8:cb:13:aa:d2:6d:1a:fb:7d:e2:5a:49:67:
        2c:69:c5:47:5e:c6:6b:2f:cd:5c:2b:a2:4c:fa:07:39:c2:12:
        80:8f:91:74:ae:7f:95:23:64:85:72:25:b6:f3:c7:17:6b:75:
        52:29:06:08:77:e7:0a:fe:c8:a2:32:20:2c:fe:3e:a7:e3:48:
        fa:31:ab:57:e2:f2:93:02:2a:3b:a5:9b:16:4d:04:88:1f:9d:
        20:64:75:7c:fb:3b:04:03:e9:17:93:e7:d0:e3:fd:09:c5:98:
        c5:2a:7b:1b:ef:9b:be:98:5c:b6:f7:bc:81:2e:8d:55:c2:f6:
        9c:63:6e:98:bc:56:9e:35:18:0c:1d:49:08:db:d2:bf:38:ab:
        3c:77:dc:e9:a7:b6:50:e5:2c:2f:dd:86:90:10:1a:7a:9b:aa:
        83:71:82:61:c0:ce:43:ea:e0:83:e4:05:b2:5e:7d:43:11:5a:
        af:82:de:b9:66:2f:49:69:12:2a:b9:14:45:bc:4e:29:65:10:
        d2:b8:39:4d
-----BEGIN CERTIFICATE-----
MIIDgDCCAmigAwIBAgIUCd6k6LOFwrd0TdTdQl9/ETuQTzgwDQYJKoZIhvcNAQEL
BQAwDzENMAsGA1UEAwwEUm9vdDAeFw0yMjEwMDUxMjAwMDBaFw0yMzEwMDUxMjAw
MDBaMBcxFTATBgNVBAMMDEludGVybWVkaWF0ZTCCASIwDQYJKoZIhvcNAQEBBQAD
ggEPADCCAQoCggEBAJY9BkPB5n7e6OfQ4D7VqB8I/pjvuaM9DxSlPoUnaqKqjDv2
IUMSLcics8+o7k+Mtz9/SUmj3Bc7Sygqk67h334ish2cX0NZpU5V3dtVRlWDbUh2
7z93JFjTe3goBXxmfHmQmWG2zC227zbKETu1ZchzkbAQEhej4Rzqx9ycs2Y97Luj
PpngBJhNnLVirRZxIgBo7+ZC9gUoTYgWBVGC9tiDkQwTTDxu1iIqUto3VqkkGLqP
LmXZOkvgo2mUOxZeSsyobjJt+HQVMsifrwYRgduaZc8BBS9lS3FOkhwGUX8pV+kk
n4n5gGMll5BCVvjhJmGySLMgm5qbNE4vAwan3BECAwEAAaOByzCByDAdBgNVHQ4E
FgQUfAXxDQvE+I4zTPGueGosFq150KYwHwYDVR0jBBgwFoAU8iaxzzn0Hnelodpl
S8TQEslTJa4wNwYIKwYBBQUHAQEEKzApMCcGCCsGAQUFBzAChhtodHRwOi8vdXJs
LWZvci1haWEvUm9vdC5jZXIwLAYDVR0fBCUwIzAhoB+gHYYbaHR0cDovL3VybC1m
b3ItY3JsL1Jvb3QuY3JsMA4GA1UdDwEB/wQEAwIBBjAPBgNVHRMBAf8EBTADAQH/
MA0GCSqGSIb3DQEBCwUAA4IBAQAlStNrHKti9wsaGhqVL6wsqBB0d/t8FXyy94hL
mTt75HSxvucWuxS8sx4L1S95pIL0vz1H79IuHNVYu+jLE6rSbRr7feJaSWcsacVH
XsZrL81cK6JM+gc5whKAj5F0rn+VI2SFciW288cXa3VSKQYId+cK/siiMiAs/j6n
40j6MatX4vKTAio7pZsWTQSIH50gZHV8+zsEA+kXk+fQ4/0JxZjFKnsb75u+mFy2
97yBLo1VwvacY26YvFaeNRgMHUkI29K/OKs8d9zpp7ZQ5Swv3YaQEBp6m6qDcYJh
wM5D6uCD5AWyXn1DEVqvgt65Zi9JaRIquRRFvE4pZRDSuDlN
-----END CERTIFICATE-----

Certificate:
    Data:
        Version: 3 (0x2)
        Serial Number:
            09:de:a4:e8:b3:85:c2:b7:74:4d:d4:dd:42:5f:7f:11:3b:90:4f:37
        Signature Algorithm: sha256WithRSAEncryption
        Issuer: CN=Root
        Validity
            Not Before: Oct  5 12:00:00 2022 GMT
            Not After : Oct  5 12:00:00 2023 GMT
        Subject: CN=Root
        Subject Public Key Info:
            Public Key Algorithm: rsaEncryption
                Public-Key: (2048 bit)
                Modulus:
                    00:cd:e5:09:a9:89:90:93:c8:33:6e:5b:db:e8:8e:
                    12:b1:4a:dd:a2:3a:60:ad:e7:26:98:bc:5f:63:12:
                    8d:39:97:38:53:96:ef:65:d9:43:06:fb:e7:1f:8d:
                    ac:32:87:84:ae:50:cc:8f:48:fa:b2:e2:7e:58:32:
                    2c:78:a0:c6:82:41:3c:4d:a1:01:43:0f:c4:a7:9d:
                    5d:24:16:39:b4:13:7b:09:b1:dc:3f:e5:ac:3b:d7:
                    53:b6:59:52:80:87:b2:12:65:6c:9c:fe:24:92:88:
                    ca:5a:ec:e4:04:81:a4:88:b2:3f:39:e1:4d:6b:91:
                    db:17:76:c3:0e:67:a4:5d:c8:e4:76:16:44:f7:76:
                    ae:db:63:7f:37:70:d0:e5:fc:df:08:0f:2e:f9:08:
                    72:f6:65:4f:af:15:97:a3:4c:03:f9:8f:5f:69:f8:
                    97:d8:dd:fe:e7:2c:1d:a3:d8:53:46:df:5c:c5:8e:
                    d8:38:41:ce:d7:ea:7f:f1:3b:0c:dd:13:dd:e7:2f:
                    44:24:aa:25:e3:eb:a1:8e:43:b1:5b:e3:b8:ad:aa:
                    1e:49:f0:77:40:64:ef:90:ad:72:a4:a0:d3:95:69:
                    96:4b:6d:08:34:97:cc:5e:5c:a5:08:c9:fa:66:60:
                    ec:f9:aa:86:d8:bc:21:b7:78:bf:f2:28:01:41:3d:
                    a4:9d
                Exponent: 65537 (0x10001)
        X509v3 extensions:
            X509v3 Subject Key Identifier: 
                F2:26:B1:CF:39:F4:1E:77:A5:A1:DA:65:4B:C4:D0:12:C9:53:25:AE
            X509v3 Authority Key Identifier: 
                F2:26:B1:CF:39:F4:1E:77:A5:A1:DA:65:4B:C4:D0:12:C9:53:25:AE
            Authority Information Access: 
                CA Issuers - URI:http://url-for-aia/Root.cer
            X509v3 CRL Distribution Points: 
                Full Name:
                  URI:http://url-for-crl/Root.crl
            X509v3 Key Usage: critical
                Certificate Sign, CRL Sign
            X509v3 Basic Constraints: critical
                CA:TRUE
    Signature Algorithm: sha256WithRSAEncryption
    Signature Value:
        08:b0:54:b7:1c:c7:b1:28:c5:b7:63:46:77:39:82:f5:09:24:
        c1:b3:f2:05:fd:2e:52:a2:5f:08:92:c2:5f:6b:f2:57:88:a9:
        09:84:23:4d:22:42:5c:fe:4b:df:ae:fa:d6:0c:86:7a:06:11:
        d3:27:1b:60:7b:c1:61:ae:17:ea:ec:94:3b:53:67:02:94:7a:
        a5:53:b2:89:32:cd:a0:95:06:6c:f0:20:f7:c4:40:b1:1c:ca:
        37:04:67:82:18:e1:d1:60:d4:76:db:fe:25:59:28:49:1b:24:
        7c:83:52:58:c8:d9:ea:cf:78:66:2c:44:47:9b:8b:24:01:30:
        76:29:2e:28:c5:57:f8:2e:f6:73:f8:18:e2:e7:a2:3a:e2:ab:
        e1:d1:da:1e:c8:c7:5c:bc:d8:70:11:46:6f:99:a0:62:58:8d:
        ea:50:c0:5f:36:a1:85:5d:98:75:d5:bc:57:97:f9:db:bd:a5:
        81:8e:ef:f6:c8:d8:53:60:43:45:c5:fc:f9:d4:65:3b:43:a8:
        e1:ca:a8:43:91:c9:cd:fb:2e:a0:8c:8c:eb:c1:a4:cd:71:c0:
        67:8a:89:f8:fc:79:0c:4a:46:7b:60:ac:5f:57:b8:73:ff:09:
        ef:7b:f7:8c:c3:4e:62:d6:05:74:5f:5e:16:66:60:0f:22:a2:
        4a:2a:56:d8
-----BEGIN CERTIFICATE-----
MIIDeDCCAmCgAwIBAgIUCd6k6LOFwrd0TdTdQl9/ETuQTzcwDQYJKoZIhvcNAQEL
BQAwDzENMAsGA1UEAwwEUm9vdDAeFw0yMjEwMDUxMjAwMDBaFw0yMzEwMDUxMjAw
MDBaMA8xDTALBgNVBAMMBFJvb3QwggEiMA0GCSqGSIb3DQEBAQUAA4IBDwAwggEK
AoIBAQDN5QmpiZCTyDNuW9vojhKxSt2iOmCt5yaYvF9jEo05lzhTlu9l2UMG++cf
jawyh4SuUMyPSPqy4n5YMix4oMaCQTxNoQFDD8SnnV0kFjm0E3sJsdw/5aw711O2
WVKAh7ISZWyc/iSSiMpa7OQEgaSIsj854U1rkdsXdsMOZ6RdyOR2FkT3dq7bY383
cNDl/N8IDy75CHL2ZU+vFZejTAP5j19p+JfY3f7nLB2j2FNG31zFjtg4Qc7X6n/x
OwzdE93nL0QkqiXj66GOQ7Fb47itqh5J8HdAZO+QrXKkoNOVaZZLbQg0l8xeXKUI
yfpmYOz5qobYvCG3eL/yKAFBPaSdAgMBAAGjgcswgcgwHQYDVR0OBBYEFPImsc85
9B53paHaZUvE0BLJUyWuMB8GA1UdIwQYMBaAFPImsc859B53paHaZUvE0BLJUyWu
MDcGCCsGAQUFBwEBBCswKTAnBggrBgEFBQcwAoYbaHR0cDovL3VybC1mb3ItYWlh
L1Jvb3QuY2VyMCwGA1UdHwQlMCMwIaAfoB2GG2h0dHA6Ly91cmwtZm9yLWNybC9S
b290LmNybDAOBgNVHQ8BAf8EBAMCAQYwDwYDVR0TAQH/BAUwAwEB/zANBgkqhkiG
9w0BAQsFAAOCAQEACLBUtxzHsSjFt2NGdzmC9QkkwbPyBf0uUqJfCJLCX2vyV4ip
CYQjTSJCXP5L36761gyGegYR0ycbYHvBYa4X6uyUO1NnApR6pVOyiTLNoJUGbPAg
98RAsRzKNwRnghjh0WDUdtv+JVkoSRskfINSWMjZ6s94ZixER5uLJAEwdikuKMVX
+C72c/gY4ueiOuKr4dHaHsjHXLzYcBFGb5mgYliN6lDAXzahhV2YddW8V5f5272l
gY7v9sjYU2BDRcX8+dRlO0Oo4cqoQ5HJzfsuoIyM68GkzXHAZ4qJ+Px5DEpGe2Cs
X1e4c/8J73v3jMNOYtYFdF9eFmZgDyKiSipW2A==
-----END CERTIFICATE-----
