[Created by: generate-chains.py]

Certificate chain where the leaf certificate lacks an extended key usage
extension.

Certificate:
    Data:
        Version: 3 (0x2)
        Serial Number:
            7f:73:f7:58:6c:9c:cb:aa:d7:aa:99:67:42:a3:18:c8:ae:3e:20:ea
        Signature Algorithm: sha256WithRSAEncryption
        Issuer: CN=Intermediate
        Validity
            Not Before: Nov  3 12:00:00 2020 GMT
            Not After : Nov  3 12:00:00 2021 GMT
        Subject: CN=Target
        Subject Public Key Info:
            Public Key Algorithm: rsaEncryption
                RSA Public-Key: (2048 bit)
                Modulus:
                    00:c0:9e:a5:77:70:28:bc:8f:18:ce:a2:39:65:81:
                    18:d9:31:0a:ee:23:09:81:cd:82:36:98:a5:82:2e:
                    b1:fc:59:a8:46:49:06:16:60:eb:12:46:2c:85:a8:
                    c0:75:7b:2d:45:0f:09:ba:d6:a9:fd:88:0f:d6:97:
                    78:1e:5d:51:cc:1a:94:1e:2e:b8:82:4e:e3:0c:aa:
                    58:1b:c6:dd:fd:d2:a3:92:6c:0a:ae:5e:ca:56:87:
                    9a:6c:bd:89:32:99:5b:da:33:dd:7a:ed:a7:c5:e1:
                    02:de:25:5b:17:6a:f5:15:8a:31:71:c7:c0:24:7c:
                    55:c4:8e:cf:4c:03:fd:7f:f4:e1:90:cc:1a:5e:b5:
                    f1:4b:2e:7a:2f:69:06:2a:86:76:33:88:ef:b2:e0:
                    84:52:98:03:eb:98:7b:16:25:65:6a:a6:5a:fa:37:
                    b5:a1:70:74:5e:96:87:62:78:a4:d4:05:60:97:3a:
                    f9:4c:86:49:0d:54:db:79:8d:68:56:58:83:ee:8f:
                    1a:da:d7:3a:06:78:6e:75:f0:a9:99:3a:22:a3:06:
                    ee:58:a2:2b:d1:ea:4a:a7:8a:c8:bd:43:f8:b1:70:
                    4f:fb:51:b6:22:78:cf:5c:c6:dc:80:33:3d:f5:92:
                    6d:91:c9:1b:7e:87:37:28:76:b4:ff:7f:6d:52:9b:
                    c7:e5
                Exponent: 65537 (0x10001)
        X509v3 extensions:
            X509v3 Subject Key Identifier: 
                49:EA:B2:99:05:EC:D6:35:F4:11:A5:DD:F1:99:31:AE:C0:D8:B8:08
            X509v3 Authority Key Identifier: 
                keyid:7C:05:F1:0D:0B:C4:F8:8E:33:4C:F1:AE:78:6A:2C:16:AD:79:D0:A6

            Authority Information Access: 
                CA Issuers - URI:http://url-for-aia/Intermediate.cer

            X509v3 CRL Distribution Points: 

                Full Name:
                  URI:http://url-for-crl/Intermediate.crl

            X509v3 Key Usage: critical
                Digital Signature, Key Encipherment
    Signature Algorithm: sha256WithRSAEncryption
         7e:9e:23:c9:b4:5b:2b:07:29:ce:ea:4c:b0:49:9d:10:6a:d8:
         6c:d0:13:cc:66:98:65:ad:77:9c:3e:11:82:8c:91:83:03:5e:
         d0:07:4a:e2:08:ea:44:29:bc:75:70:3e:e4:19:21:6b:83:6e:
         39:81:2d:d1:25:f6:86:bd:e2:47:db:92:12:c0:b9:09:aa:ff:
         23:ec:31:84:ac:32:3e:5e:7b:c3:cc:96:d7:2b:79:09:20:ba:
         b9:f0:54:9a:86:f9:1c:32:f7:37:7c:59:51:d0:aa:3f:0a:09:
         39:72:cf:fc:4f:64:ae:58:ba:fc:ce:37:f5:98:ef:b4:83:d2:
         0a:c3:eb:60:87:84:a4:72:a3:31:cc:cc:06:83:b2:f1:f8:d2:
         9e:9b:5d:47:7d:a6:05:3b:4e:0c:7c:a2:cb:74:11:4f:50:71:
         a4:16:b6:00:e2:37:58:b6:68:2f:e0:ac:c6:7b:14:b3:e0:48:
         b3:a4:2c:0a:22:44:17:02:21:91:7a:d7:a4:8e:27:69:e8:ac:
         60:bb:f2:1b:64:d1:45:56:f9:fb:79:6a:5b:7b:2a:d9:1d:7b:
         34:35:ca:8d:6e:85:f8:6e:05:4a:f2:9b:db:ee:d5:9e:8e:ac:
         13:b0:b7:6f:b8:d0:c8:a0:95:18:90:14:5b:f3:9e:22:d9:dd:
         e9:4b:99:0c
-----BEGIN CERTIFICATE-----
MIIDgTCCAmmgAwIBAgIUf3P3WGycy6rXqplnQqMYyK4+IOowDQYJKoZIhvcNAQEL
BQAwFzEVMBMGA1UEAwwMSW50ZXJtZWRpYXRlMB4XDTIwMTEwMzEyMDAwMFoXDTIx
MTEwMzEyMDAwMFowETEPMA0GA1UEAwwGVGFyZ2V0MIIBIjANBgkqhkiG9w0BAQEF
AAOCAQ8AMIIBCgKCAQEAwJ6ld3AovI8YzqI5ZYEY2TEK7iMJgc2CNpilgi6x/Fmo
RkkGFmDrEkYshajAdXstRQ8Jutap/YgP1pd4Hl1RzBqUHi64gk7jDKpYG8bd/dKj
kmwKrl7KVoeabL2JMplb2jPdeu2nxeEC3iVbF2r1FYoxccfAJHxVxI7PTAP9f/Th
kMwaXrXxSy56L2kGKoZ2M4jvsuCEUpgD65h7FiVlaqZa+je1oXB0XpaHYnik1AVg
lzr5TIZJDVTbeY1oVliD7o8a2tc6BnhudfCpmToiowbuWKIr0epKp4rIvUP4sXBP
+1G2InjPXMbcgDM99ZJtkckbfoc3KHa0/39tUpvH5QIDAQABo4HKMIHHMB0GA1Ud
DgQWBBRJ6rKZBezWNfQRpd3xmTGuwNi4CDAfBgNVHSMEGDAWgBR8BfENC8T4jjNM
8a54aiwWrXnQpjA/BggrBgEFBQcBAQQzMDEwLwYIKwYBBQUHMAKGI2h0dHA6Ly91
cmwtZm9yLWFpYS9JbnRlcm1lZGlhdGUuY2VyMDQGA1UdHwQtMCswKaAnoCWGI2h0
dHA6Ly91cmwtZm9yLWNybC9JbnRlcm1lZGlhdGUuY3JsMA4GA1UdDwEB/wQEAwIF
oDANBgkqhkiG9w0BAQsFAAOCAQEAfp4jybRbKwcpzupMsEmdEGrYbNATzGaYZa13
nD4RgoyRgwNe0AdK4gjqRCm8dXA+5Bkha4NuOYEt0SX2hr3iR9uSEsC5Car/I+wx
hKwyPl57w8yW1yt5CSC6ufBUmob5HDL3N3xZUdCqPwoJOXLP/E9krli6/M439Zjv
tIPSCsPrYIeEpHKjMczMBoOy8fjSnptdR32mBTtODHyiy3QRT1BxpBa2AOI3WLZo
L+CsxnsUs+BIs6QsCiJEFwIhkXrXpI4naeisYLvyG2TRRVb5+3lqW3sq2R17NDXK
jW6F+G4FSvKb2+7Vno6sE7C3b7jQyKCVGJAUW/OeItnd6UuZDA==
-----END CERTIFICATE-----

Certificate:
    Data:
        Version: 3 (0x2)
        Serial Number:
            09:de:a4:e8:b3:85:c2:b7:74:4d:d4:dd:42:5f:7f:11:3b:90:4f:38
        Signature Algorithm: sha256WithRSAEncryption
        Issuer: CN=Root
        Validity
            Not Before: Nov  3 12:00:00 2020 GMT
            Not After : Nov  3 12:00:00 2021 GMT
        Subject: CN=Intermediate
        Subject Public Key Info:
            Public Key Algorithm: rsaEncryption
                RSA Public-Key: (2048 bit)
                Modulus:
                    00:96:3d:06:43:c1:e6:7e:de:e8:e7:d0:e0:3e:d5:
                    a8:1f:08:fe:98:ef:b9:a3:3d:0f:14:a5:3e:85:27:
                    6a:a2:aa:8c:3b:f6:21:43:12:2d:c8:9c:b3:cf:a8:
                    ee:4f:8c:b7:3f:7f:49:49:a3:dc:17:3b:4b:28:2a:
                    93:ae:e1:df:7e:22:b2:1d:9c:5f:43:59:a5:4e:55:
                    dd:db:55:46:55:83:6d:48:76:ef:3f:77:24:58:d3:
                    7b:78:28:05:7c:66:7c:79:90:99:61:b6:cc:2d:b6:
                    ef:36:ca:11:3b:b5:65:c8:73:91:b0:10:12:17:a3:
                    e1:1c:ea:c7:dc:9c:b3:66:3d:ec:bb:a3:3e:99:e0:
                    04:98:4d:9c:b5:62:ad:16:71:22:00:68:ef:e6:42:
                    f6:05:28:4d:88:16:05:51:82:f6:d8:83:91:0c:13:
                    4c:3c:6e:d6:22:2a:52:da:37:56:a9:24:18:ba:8f:
                    2e:65:d9:3a:4b:e0:a3:69:94:3b:16:5e:4a:cc:a8:
                    6e:32:6d:f8:74:15:32:c8:9f:af:06:11:81:db:9a:
                    65:cf:01:05:2f:65:4b:71:4e:92:1c:06:51:7f:29:
                    57:e9:24:9f:89:f9:80:63:25:97:90:42:56:f8:e1:
                    26:61:b2:48:b3:20:9b:9a:9b:34:4e:2f:03:06:a7:
                    dc:11
                Exponent: 65537 (0x10001)
        X509v3 extensions:
            X509v3 Subject Key Identifier: 
                7C:05:F1:0D:0B:C4:F8:8E:33:4C:F1:AE:78:6A:2C:16:AD:79:D0:A6
            X509v3 Authority Key Identifier: 
                keyid:F2:26:B1:CF:39:F4:1E:77:A5:A1:DA:65:4B:C4:D0:12:C9:53:25:AE

            Authority Information Access: 
                CA Issuers - URI:http://url-for-aia/Root.cer

            X509v3 CRL Distribution Points: 

                Full Name:
                  URI:http://url-for-crl/Root.crl

            X509v3 Key Usage: critical
                Certificate Sign, CRL Sign
            X509v3 Basic Constraints: critical
                CA:TRUE
    Signature Algorithm: sha256WithRSAEncryption
         4a:c2:19:34:9e:da:56:71:c9:3d:31:e6:8d:08:80:89:08:f0:
         fe:0c:51:0e:be:68:8b:8f:af:99:59:f9:7e:f2:c8:d2:52:c1:
         b3:73:9a:ae:80:0d:c7:86:38:ad:25:aa:44:84:1e:ab:04:d1:
         f6:ae:fd:0c:e4:74:ec:6a:db:71:04:e2:9e:7b:a5:70:75:78:
         85:3c:6f:e5:85:94:98:84:fb:49:c6:f3:db:d8:9c:48:db:6b:
         25:2f:de:8d:81:98:5b:3f:d0:44:bb:2c:97:f4:f6:49:88:e0:
         8f:98:9c:35:55:80:16:06:5a:ed:b5:be:bf:8b:90:3b:e0:fd:
         63:a5:c2:4b:66:65:93:35:b6:99:7f:62:27:bc:49:ea:0b:a5:
         06:0e:fb:0f:44:90:e9:18:b1:dc:96:c2:fb:af:01:8c:11:a7:
         0c:cd:be:60:4c:92:5f:17:99:8a:aa:76:7d:bd:49:4c:5c:f7:
         8f:8c:65:bf:b4:de:3e:0d:f6:3f:6e:fb:34:c7:a1:35:47:2c:
         16:ef:92:6c:c5:b9:6a:a9:f0:73:e8:a2:81:be:59:94:45:91:
         a0:65:57:cf:14:16:27:b0:3d:90:cd:83:8d:99:04:ec:07:84:
         82:d1:0c:df:11:24:f9:36:69:6d:cc:7a:8e:aa:5b:01:e8:82:
         51:bf:32:46
-----BEGIN CERTIFICATE-----
MIIDgDCCAmigAwIBAgIUCd6k6LOFwrd0TdTdQl9/ETuQTzgwDQYJKoZIhvcNAQEL
BQAwDzENMAsGA1UEAwwEUm9vdDAeFw0yMDExMDMxMjAwMDBaFw0yMTExMDMxMjAw
MDBaMBcxFTATBgNVBAMMDEludGVybWVkaWF0ZTCCASIwDQYJKoZIhvcNAQEBBQAD
ggEPADCCAQoCggEBAJY9BkPB5n7e6OfQ4D7VqB8I/pjvuaM9DxSlPoUnaqKqjDv2
IUMSLcics8+o7k+Mtz9/SUmj3Bc7Sygqk67h334ish2cX0NZpU5V3dtVRlWDbUh2
7z93JFjTe3goBXxmfHmQmWG2zC227zbKETu1ZchzkbAQEhej4Rzqx9ycs2Y97Luj
PpngBJhNnLVirRZxIgBo7+ZC9gUoTYgWBVGC9tiDkQwTTDxu1iIqUto3VqkkGLqP
LmXZOkvgo2mUOxZeSsyobjJt+HQVMsifrwYRgduaZc8BBS9lS3FOkhwGUX8pV+kk
n4n5gGMll5BCVvjhJmGySLMgm5qbNE4vAwan3BECAwEAAaOByzCByDAdBgNVHQ4E
FgQUfAXxDQvE+I4zTPGueGosFq150KYwHwYDVR0jBBgwFoAU8iaxzzn0Hnelodpl
S8TQEslTJa4wNwYIKwYBBQUHAQEEKzApMCcGCCsGAQUFBzAChhtodHRwOi8vdXJs
LWZvci1haWEvUm9vdC5jZXIwLAYDVR0fBCUwIzAhoB+gHYYbaHR0cDovL3VybC1m
b3ItY3JsL1Jvb3QuY3JsMA4GA1UdDwEB/wQEAwIBBjAPBgNVHRMBAf8EBTADAQH/
MA0GCSqGSIb3DQEBCwUAA4IBAQBKwhk0ntpWcck9MeaNCICJCPD+DFEOvmiLj6+Z
Wfl+8sjSUsGzc5qugA3HhjitJapEhB6rBNH2rv0M5HTsattxBOKee6VwdXiFPG/l
hZSYhPtJxvPb2JxI22slL96NgZhbP9BEuyyX9PZJiOCPmJw1VYAWBlrttb6/i5A7
4P1jpcJLZmWTNbaZf2InvEnqC6UGDvsPRJDpGLHclsL7rwGMEacMzb5gTJJfF5mK
qnZ9vUlMXPePjGW/tN4+DfY/bvs0x6E1RywW75JsxblqqfBz6KKBvlmURZGgZVfP
FBYnsD2QzYONmQTsB4SC0QzfEST5NmltzHqOqlsB6IJRvzJG
-----END CERTIFICATE-----

Certificate:
    Data:
        Version: 3 (0x2)
        Serial Number:
            09:de:a4:e8:b3:85:c2:b7:74:4d:d4:dd:42:5f:7f:11:3b:90:4f:37
        Signature Algorithm: sha256WithRSAEncryption
        Issuer: CN=Root
        Validity
            Not Before: Nov  3 12:00:00 2020 GMT
            Not After : Nov  3 12:00:00 2021 GMT
        Subject: CN=Root
        Subject Public Key Info:
            Public Key Algorithm: rsaEncryption
                RSA Public-Key: (2048 bit)
                Modulus:
                    00:cd:e5:09:a9:89:90:93:c8:33:6e:5b:db:e8:8e:
                    12:b1:4a:dd:a2:3a:60:ad:e7:26:98:bc:5f:63:12:
                    8d:39:97:38:53:96:ef:65:d9:43:06:fb:e7:1f:8d:
                    ac:32:87:84:ae:50:cc:8f:48:fa:b2:e2:7e:58:32:
                    2c:78:a0:c6:82:41:3c:4d:a1:01:43:0f:c4:a7:9d:
                    5d:24:16:39:b4:13:7b:09:b1:dc:3f:e5:ac:3b:d7:
                    53:b6:59:52:80:87:b2:12:65:6c:9c:fe:24:92:88:
                    ca:5a:ec:e4:04:81:a4:88:b2:3f:39:e1:4d:6b:91:
                    db:17:76:c3:0e:67:a4:5d:c8:e4:76:16:44:f7:76:
                    ae:db:63:7f:37:70:d0:e5:fc:df:08:0f:2e:f9:08:
                    72:f6:65:4f:af:15:97:a3:4c:03:f9:8f:5f:69:f8:
                    97:d8:dd:fe:e7:2c:1d:a3:d8:53:46:df:5c:c5:8e:
                    d8:38:41:ce:d7:ea:7f:f1:3b:0c:dd:13:dd:e7:2f:
                    44:24:aa:25:e3:eb:a1:8e:43:b1:5b:e3:b8:ad:aa:
                    1e:49:f0:77:40:64:ef:90:ad:72:a4:a0:d3:95:69:
                    96:4b:6d:08:34:97:cc:5e:5c:a5:08:c9:fa:66:60:
                    ec:f9:aa:86:d8:bc:21:b7:78:bf:f2:28:01:41:3d:
                    a4:9d
                Exponent: 65537 (0x10001)
        X509v3 extensions:
            X509v3 Subject Key Identifier: 
                F2:26:B1:CF:39:F4:1E:77:A5:A1:DA:65:4B:C4:D0:12:C9:53:25:AE
            X509v3 Authority Key Identifier: 
                keyid:F2:26:B1:CF:39:F4:1E:77:A5:A1:DA:65:4B:C4:D0:12:C9:53:25:AE

            Authority Information Access: 
                CA Issuers - URI:http://url-for-aia/Root.cer

            X509v3 CRL Distribution Points: 

                Full Name:
                  URI:http://url-for-crl/Root.crl

            X509v3 Key Usage: critical
                Certificate Sign, CRL Sign
            X509v3 Basic Constraints: critical
                CA:TRUE
    Signature Algorithm: sha256WithRSAEncryption
         ab:63:89:16:bf:73:b5:ba:4f:5e:e1:e1:21:6a:82:74:2d:e6:
         f6:9a:78:6d:72:4c:59:c8:7e:8d:35:8d:40:52:3a:36:85:78:
         9d:fb:cc:ae:d4:92:34:4b:e7:a2:cc:e8:49:f1:d6:00:8d:20:
         83:19:0d:38:6b:3f:b8:6a:e4:82:c3:80:33:c7:89:9e:48:76:
         d2:35:99:0a:0b:66:8d:5f:9a:6e:2b:28:d0:5f:c1:8f:cc:f8:
         08:e0:17:84:e8:a4:68:33:42:d0:55:69:68:d4:d1:f0:db:8e:
         d3:e1:ca:ef:87:40:02:08:1c:ed:0f:ae:fa:d7:44:8b:1f:a4:
         1e:b9:36:b4:e9:99:24:a7:e3:a9:97:4b:e7:c1:b6:0f:d8:b1:
         03:cc:ed:eb:bc:04:20:11:83:67:fd:af:da:4c:e7:6b:49:30:
         79:fb:a5:05:8f:aa:3d:39:d5:47:fc:d7:6d:77:06:fb:88:38:
         78:ad:0c:b5:73:04:03:7a:9c:63:ea:a4:a0:48:d2:4c:19:ce:
         da:45:16:f4:5d:9e:46:01:a2:fb:a7:6f:d2:1e:cb:2d:32:46:
         05:54:38:2a:d1:7e:9d:f1:dc:4d:71:f3:a3:19:64:6c:fe:15:
         70:29:fd:34:10:b8:c4:8c:8b:58:ff:7d:00:fb:e3:3c:03:9d:
         69:1e:f6:08
-----BEGIN CERTIFICATE-----
MIIDeDCCAmCgAwIBAgIUCd6k6LOFwrd0TdTdQl9/ETuQTzcwDQYJKoZIhvcNAQEL
BQAwDzENMAsGA1UEAwwEUm9vdDAeFw0yMDExMDMxMjAwMDBaFw0yMTExMDMxMjAw
MDBaMA8xDTALBgNVBAMMBFJvb3QwggEiMA0GCSqGSIb3DQEBAQUAA4IBDwAwggEK
AoIBAQDN5QmpiZCTyDNuW9vojhKxSt2iOmCt5yaYvF9jEo05lzhTlu9l2UMG++cf
jawyh4SuUMyPSPqy4n5YMix4oMaCQTxNoQFDD8SnnV0kFjm0E3sJsdw/5aw711O2
WVKAh7ISZWyc/iSSiMpa7OQEgaSIsj854U1rkdsXdsMOZ6RdyOR2FkT3dq7bY383
cNDl/N8IDy75CHL2ZU+vFZejTAP5j19p+JfY3f7nLB2j2FNG31zFjtg4Qc7X6n/x
OwzdE93nL0QkqiXj66GOQ7Fb47itqh5J8HdAZO+QrXKkoNOVaZZLbQg0l8xeXKUI
yfpmYOz5qobYvCG3eL/yKAFBPaSdAgMBAAGjgcswgcgwHQYDVR0OBBYEFPImsc85
9B53paHaZUvE0BLJUyWuMB8GA1UdIwQYMBaAFPImsc859B53paHaZUvE0BLJUyWu
MDcGCCsGAQUFBwEBBCswKTAnBggrBgEFBQcwAoYbaHR0cDovL3VybC1mb3ItYWlh
L1Jvb3QuY2VyMCwGA1UdHwQlMCMwIaAfoB2GG2h0dHA6Ly91cmwtZm9yLWNybC9S
b290LmNybDAOBgNVHQ8BAf8EBAMCAQYwDwYDVR0TAQH/BAUwAwEB/zANBgkqhkiG
9w0BAQsFAAOCAQEAq2OJFr9ztbpPXuHhIWqCdC3m9pp4bXJMWch+jTWNQFI6NoV4
nfvMrtSSNEvnoszoSfHWAI0ggxkNOGs/uGrkgsOAM8eJnkh20jWZCgtmjV+abiso
0F/Bj8z4COAXhOikaDNC0FVpaNTR8NuO0+HK74dAAggc7Q+u+tdEix+kHrk2tOmZ
JKfjqZdL58G2D9ixA8zt67wEIBGDZ/2v2kzna0kwefulBY+qPTnVR/zXbXcG+4g4
eK0MtXMEA3qcY+qkoEjSTBnO2kUW9F2eRgGi+6dv0h7LLTJGBVQ4KtF+nfHcTXHz
oxlkbP4VcCn9NBC4xIyLWP99APvjPAOdaR72CA==
-----END CERTIFICATE-----
