Certificate:
    Data:
        Version: 3 (0x2)
        Serial Number: 2524629941048074238 (0x2309498e297c5ffe)
    Signature Algorithm: sha256WithRSAEncryption
        Issuer: C=KZ, ST=Nur-Sultan, L=Nur-Sultan, O=ISCA, CN=Information Security Certification Authority
        Validity
            Not Before: Apr 28 13:18:00 2021 GMT
            Not After : Apr 28 13:18:00 2031 GMT
        Subject: C=KZ, ST=Nur-Sultan, L=Nur-Sultan, O=ISCA, CN=Information Security Certification Authority
        Subject Public Key Info:
            Public Key Algorithm: rsaEncryption
                Public-Key: (4096 bit)
                Modulus:
                    00:c9:ec:d8:99:2c:25:5c:63:8a:a2:e9:4d:9b:d0:
                    36:77:34:8f:ed:84:60:31:47:63:b7:94:97:8e:e0:
                    63:ea:a6:46:f4:9c:35:39:62:6a:4b:2e:6a:0c:ba:
                    4e:5d:41:29:0b:a0:ab:d4:41:f9:7f:ea:09:30:f1:
                    0b:48:e0:24:bc:db:3d:2b:77:c3:b7:d1:63:65:40:
                    77:3d:f6:0a:83:2f:13:44:42:de:4a:92:22:8a:58:
                    8c:16:7c:a1:41:60:af:f6:f7:c4:b3:3d:62:11:0a:
                    86:37:15:64:8b:46:69:f5:5b:3d:28:e9:1c:94:6d:
                    c3:13:15:4d:7f:32:e9:ad:95:ea:c5:4e:75:b7:a2:
                    6e:e7:12:a3:81:21:af:84:38:d6:2e:17:c4:ab:7c:
                    a6:c4:b7:7f:cd:73:e0:54:68:31:b7:2b:bd:a4:03:
                    29:3d:fb:b1:f8:e1:b9:3f:94:1e:bf:8e:da:32:97:
                    86:95:e5:10:f6:7e:e7:32:09:c1:b1:07:d9:d7:b6:
                    83:20:42:d6:d2:41:90:72:cd:86:0a:48:20:4c:19:
                    78:9a:fd:92:dc:3e:cf:84:4a:61:88:95:dc:ee:3c:
                    66:dd:89:e7:a4:1c:16:a8:ff:43:72:83:ec:43:a1:
                    4e:97:2a:fa:76:38:2f:f4:dc:89:ff:fa:f9:ec:f3:
                    bd:3a:f7:79:a9:1a:0a:9f:ef:10:ec:a6:42:5a:6d:
                    dd:79:3e:eb:0b:95:ab:12:52:f8:54:3d:0b:f2:d9:
                    a5:df:ae:35:a3:1a:09:5f:0e:b7:57:d8:63:6c:5e:
                    98:98:1c:dc:9c:7a:79:95:e4:05:8c:a9:4a:cc:c4:
                    e5:9a:51:37:af:02:44:2e:9e:68:3c:13:6d:46:df:
                    57:fa:08:a3:fc:ad:e5:41:b9:4b:65:07:20:3b:85:
                    3c:6f:f8:ae:89:1d:d3:f3:73:5a:79:52:b6:86:ec:
                    8a:21:cf:2b:ca:41:70:9f:96:f0:ae:4d:18:aa:e8:
                    7f:b5:8a:5a:75:4e:c4:9c:14:01:4d:e5:ef:e3:4a:
                    52:55:e6:53:36:3b:9d:5a:fe:5c:59:86:f9:f2:af:
                    b7:2b:6d:e8:7c:15:4e:82:5e:56:bf:df:36:d2:3f:
                    9a:c3:fc:02:cb:f9:81:eb:28:78:92:27:49:a1:9a:
                    05:f6:19:d7:79:7d:c7:0c:8d:79:74:46:b8:55:e0:
                    b3:36:a1:2b:9a:a1:37:d4:2d:a7:1a:46:5e:f0:97:
                    9f:8f:3e:89:4b:38:00:4e:dd:27:f2:51:46:4e:d6:
                    55:a2:b7:45:62:07:94:4d:d0:1b:4d:d7:18:b9:e7:
                    60:ee:fa:94:68:9f:b1:86:e7:54:85:2b:7e:2f:ed:
                    2e:78:8d
                Exponent: 65537 (0x10001)
        X509v3 extensions:
            X509v3 Basic Constraints: critical
                CA:TRUE
            X509v3 Subject Key Identifier: 
                26:7E:99:7C:CD:7B:8E:88:AC:3D:A9:72:CB:D4:B5:62:5D:2B:0D:6A
            X509v3 Key Usage: critical
                Certificate Sign, CRL Sign
    Signature Algorithm: sha256WithRSAEncryption
         80:d5:ef:93:7f:b6:bb:5f:7d:34:19:21:f3:70:90:d6:c0:f0:
         94:de:35:36:d9:f4:fe:6a:2f:f7:c4:64:02:b6:1f:27:fc:d3:
         6e:19:e7:cb:8c:18:b9:53:0d:e7:84:1b:a7:f0:4e:8f:7f:e4:
         15:61:a7:ad:7d:11:fa:5b:60:f7:c4:53:08:9f:01:43:65:43:
         ce:ee:5a:30:cb:2e:c1:06:a8:e6:69:b8:06:fe:27:90:0e:a0:
         6a:da:da:a5:d6:80:c2:3f:e8:22:3b:5d:de:b4:c1:8a:89:bb:
         95:1b:db:77:b8:c6:f6:a8:38:dd:80:e0:2c:90:4c:e0:e2:20:
         8c:08:00:6f:4e:6e:87:89:a2:69:88:8c:23:ea:e0:2a:33:7d:
         f8:c5:58:20:d9:68:8e:30:2b:f3:34:59:25:29:d4:f2:35:d6:
         56:fc:99:4f:61:16:d3:1d:2a:18:4f:33:fa:5a:9b:69:72:c2:
         82:51:a8:a5:69:c3:ca:47:40:6b:80:85:f0:a9:98:6a:4c:b5:
         86:83:10:47:6a:de:19:13:d4:ff:bb:42:25:7b:c4:34:f1:4d:
         ae:71:e5:59:77:41:a8:28:3a:5c:e4:28:b1:4b:b2:4c:8b:50:
         6d:c2:2a:b5:88:19:ef:3a:ba:45:8a:d8:5c:bd:22:5b:50:39:
         cf:57:c5:52:b7:cc:34:c2:39:3e:df:60:ff:fa:f0:5c:02:ac:
         08:36:43:ac:2f:61:f1:d1:b8:6e:f0:54:04:ae:b0:0d:b2:bd:
         e8:ca:ab:d0:c8:f7:31:1e:24:41:82:7d:cc:67:de:96:be:85:
         64:c4:4d:72:65:10:15:b3:2b:4b:d8:a3:95:e7:3c:12:42:b1:
         cc:b6:09:5b:12:dc:43:74:1c:e9:4b:03:7b:d1:98:3b:af:0e:
         7b:08:9f:45:85:b5:4a:d6:89:6d:c7:be:7d:9a:75:fc:5c:6d:
         ea:22:0e:3e:8e:ff:1f:d1:14:ec:47:a7:aa:78:b4:d8:45:cb:
         89:0a:df:56:78:84:f3:78:f1:4a:d4:be:60:03:fb:6a:1c:c8:
         4e:aa:bc:84:ee:bd:4c:78:ac:2e:da:e1:16:aa:d5:0b:5a:89:
         26:3f:b7:54:a4:0a:a2:0a:bf:2b:b0:41:0b:fa:8b:4c:6e:f3:
         40:8a:e2:f2:8d:b6:2d:74:f6:d9:36:5e:42:68:eb:16:54:f2:
         5e:a4:28:93:ae:1e:88:6c:40:e4:15:64:b7:70:8e:cd:16:02:
         52:eb:d5:01:34:27:5d:81:ff:fb:40:cd:f4:90:06:68:98:57:
         24:a8:59:15:b9:16:2a:cc:9f:96:83:61:a2:e0:75:09:2d:06:
         cf:71:66:a9:78:bb:c5:b1
-----BEGIN CERTIFICATE-----
MIIFvjCCA6agAwIBAgIIIwlJjil8X/4wDQYJKoZIhvcNAQELBQAwfTELMAkGA1UE
BhMCS1oxEzARBgNVBAgTCk51ci1TdWx0YW4xEzARBgNVBAcTCk51ci1TdWx0YW4x
DTALBgNVBAoTBElTQ0ExNTAzBgNVBAMTLEluZm9ybWF0aW9uIFNlY3VyaXR5IENl
cnRpZmljYXRpb24gQXV0aG9yaXR5MB4XDTIxMDQyODEzMTgwMFoXDTMxMDQyODEz
MTgwMFowfTELMAkGA1UEBhMCS1oxEzARBgNVBAgTCk51ci1TdWx0YW4xEzARBgNV
BAcTCk51ci1TdWx0YW4xDTALBgNVBAoTBElTQ0ExNTAzBgNVBAMTLEluZm9ybWF0
aW9uIFNlY3VyaXR5IENlcnRpZmljYXRpb24gQXV0aG9yaXR5MIICIjANBgkqhkiG
9w0BAQEFAAOCAg8AMIICCgKCAgEAyezYmSwlXGOKoulNm9A2dzSP7YRgMUdjt5SX
juBj6qZG9Jw1OWJqSy5qDLpOXUEpC6Cr1EH5f+oJMPELSOAkvNs9K3fDt9FjZUB3
PfYKgy8TRELeSpIiiliMFnyhQWCv9vfEsz1iEQqGNxVki0Zp9Vs9KOkclG3DExVN
fzLprZXqxU51t6Ju5xKjgSGvhDjWLhfEq3ymxLd/zXPgVGgxtyu9pAMpPfux+OG5
P5Qev47aMpeGleUQ9n7nMgnBsQfZ17aDIELW0kGQcs2GCkggTBl4mv2S3D7PhEph
iJXc7jxm3YnnpBwWqP9DcoPsQ6FOlyr6djgv9NyJ//r57PO9Ovd5qRoKn+8Q7KZC
Wm3deT7rC5WrElL4VD0L8tml3641oxoJXw63V9hjbF6YmBzcnHp5leQFjKlKzMTl
mlE3rwJELp5oPBNtRt9X+gij/K3lQblLZQcgO4U8b/iuiR3T83NaeVK2huyKIc8r
ykFwn5bwrk0Yquh/tYpadU7EnBQBTeXv40pSVeZTNjudWv5cWYb58q+3K23ofBVO
gl5Wv9820j+aw/wCy/mB6yh4kidJoZoF9hnXeX3HDI15dEa4VeCzNqErmqE31C2n
GkZe8Jefjz6JSzgATt0n8lFGTtZVordFYgeUTdAbTdcYuedg7vqUaJ+xhudUhSt+
L+0ueI0CAwEAAaNCMEAwDwYDVR0TAQH/BAUwAwEB/zAdBgNVHQ4EFgQUJn6ZfM17
joisPalyy9S1Yl0rDWowDgYDVR0PAQH/BAQDAgEGMA0GCSqGSIb3DQEBCwUAA4IC
AQCA1e+Tf7a7X300GSHzcJDWwPCU3jU22fT+ai/3xGQCth8n/NNuGefLjBi5Uw3n
hBun8E6Pf+QVYaetfRH6W2D3xFMInwFDZUPO7lowyy7BBqjmabgG/ieQDqBq2tql
1oDCP+giO13etMGKibuVG9t3uMb2qDjdgOAskEzg4iCMCABvTm6HiaJpiIwj6uAq
M334xVgg2WiOMCvzNFklKdTyNdZW/JlPYRbTHSoYTzP6WptpcsKCUailacPKR0Br
gIXwqZhqTLWGgxBHat4ZE9T/u0Ile8Q08U2uceVZd0GoKDpc5CixS7JMi1Btwiq1
iBnvOrpFithcvSJbUDnPV8VSt8w0wjk+32D/+vBcAqwINkOsL2Hx0bhu8FQErrAN
sr3oyqvQyPcxHiRBgn3MZ96WvoVkxE1yZRAVsytL2KOV5zwSQrHMtglbEtxDdBzp
SwN70Zg7rw57CJ9FhbVK1oltx759mnX8XG3qIg4+jv8f0RTsR6eqeLTYRcuJCt9W
eITzePFK1L5gA/tqHMhOqryE7r1MeKwu2uEWqtULWokmP7dUpAqiCr8rsEEL+otM
bvNAiuLyjbYtdPbZNl5CaOsWVPJepCiTrh6IbEDkFWS3cI7NFgJS69UBNCddgf/7
QM30kAZomFckqFkVuRYqzJ+Wg2Gi4HUJLQbPcWapeLvFsQ==
-----END CERTIFICATE-----
