Certificate:
    Data:
        Version: 3 (0x2)
        Serial Number: 3790392208080155315 (0x349a2da18206b2b3)
        Signature Algorithm: sha256WithRSAEncryption
        Issuer: C = ES, ST = MADRID, L = MADRID, OU = see current address at www.camerfirma.com/address, OU = CHAMBERS OF COMMERCE ROOT - 2016, serialNumber = A82743287, organizationIdentifier = VATES-A82743287, O = AC CAMERFIRMA S.A., CN = CHAMBERS OF COMMERCE ROOT - 2016
        Validity
            Not Before: Apr 14 07:35:48 2016 GMT
            Not After : Apr  8 07:35:48 2040 GMT
        Subject: C = ES, ST = MADRID, L = MADRID, OU = see current address at www.camerfirma.com/address, OU = CHAMBERS OF COMMERCE ROOT - 2016, serialNumber = A82743287, organizationIdentifier = VATES-A82743287, O = AC CAMERFIRMA S.A., CN = CHAMBERS OF COMMERCE ROOT - 2016
        Subject Public Key Info:
            Public Key Algorithm: rsaEncryption
                RSA Public-Key: (4096 bit)
                Modulus:
                    00:ea:c6:a4:a1:d4:ad:99:96:c9:9f:f5:bc:50:00:
                    f4:2c:cf:f2:78:e8:f2:2c:02:27:d6:83:8c:04:ab:
                    d3:0e:7b:57:20:c9:d4:af:65:f4:87:dd:30:08:d7:
                    ce:41:a3:76:0a:db:8a:46:e4:a6:fd:ed:08:ce:70:
                    3f:fa:10:60:79:4c:6b:81:54:80:55:e4:e7:7a:21:
                    b6:75:9a:dc:5e:f6:0e:99:fc:f8:c2:df:41:8e:2f:
                    ab:c7:5b:6d:1c:50:59:c0:ed:e8:ac:82:42:fe:b9:
                    af:2f:0c:41:51:9c:bd:00:6e:64:51:b2:3b:e5:36:
                    ab:95:91:12:fb:31:c7:73:ac:1c:d8:65:76:3b:ce:
                    1b:4c:4e:b0:1f:20:06:fb:50:b4:fb:9b:a1:79:8e:
                    16:95:e3:9f:eb:18:4b:84:ab:39:93:cd:37:83:d0:
                    e9:7c:0b:27:8f:ed:42:08:e9:86:46:32:ac:9a:26:
                    69:70:61:2d:18:bd:3f:50:f0:9e:f6:68:50:4e:69:
                    95:70:c1:ed:93:a9:97:4e:29:a2:ba:dd:c2:9f:6e:
                    49:08:2b:a3:fa:23:f1:29:5e:b0:7d:31:59:9b:ed:
                    8c:cd:a6:6e:f8:f8:f7:d8:18:e8:da:56:e9:48:f2:
                    40:74:7e:9e:cd:20:af:14:24:59:ee:77:35:85:bf:
                    4a:99:4a:a9:75:dd:b3:26:e3:06:ce:7d:6f:4b:64:
                    a3:76:34:19:3e:14:6f:85:54:38:e2:8b:2d:40:b5:
                    64:66:1f:57:33:1c:70:cd:c3:b4:28:5a:14:23:5c:
                    fc:b8:bd:b3:fe:3b:12:5f:f6:b9:8c:1d:c8:94:0a:
                    56:db:72:7e:ef:27:07:0d:00:b4:bf:7d:99:3f:4d:
                    45:b3:9b:f7:1d:19:d0:4f:04:fa:c7:73:94:88:7d:
                    8b:14:2a:99:e0:e9:99:92:09:c6:d6:01:6b:b7:f0:
                    db:43:57:62:1b:c7:44:52:e2:97:63:ba:cf:ea:ce:
                    60:e6:0a:e5:18:68:2d:33:80:75:a0:30:07:68:f6:
                    d5:f7:13:2c:3a:b0:9e:e8:58:55:6e:8c:56:44:4d:
                    43:17:41:02:cc:77:dc:5f:45:05:59:cf:cd:60:d3:
                    bf:d2:f6:e2:f4:d5:dc:87:71:33:07:1a:f5:6f:b4:
                    7f:3d:97:fb:5f:64:f4:4e:0e:00:44:09:e9:eb:ec:
                    3e:71:19:04:17:39:48:60:b8:4b:ff:5e:c8:65:99:
                    2b:a6:32:f2:5b:86:a8:9d:e8:23:74:10:78:ef:cb:
                    27:9d:31:ba:60:8b:4e:06:50:e2:50:1d:07:60:c2:
                    41:8c:15:b4:5b:37:1c:0a:e5:09:19:72:04:8a:3c:
                    e3:01:db
                Exponent: 65537 (0x10001)
        X509v3 extensions:
            X509v3 Basic Constraints: critical
                CA:TRUE
            X509v3 Subject Key Identifier: 
                9E:2E:65:4F:3E:57:F5:AB:7D:96:C6:8B:DF:B3:35:6D:4A:E8:9E:8B
            X509v3 Key Usage: critical
                Certificate Sign, CRL Sign
    Signature Algorithm: sha256WithRSAEncryption
         05:69:2a:85:97:26:50:ba:42:39:1c:93:2c:d2:4f:5b:d1:5d:
         44:26:da:6f:69:2b:b5:7b:9e:d0:f4:4a:2e:48:c7:ec:7f:9f:
         ca:59:7a:b9:44:f7:3e:bd:f7:50:6b:51:9f:74:ff:90:1a:40:
         d0:93:79:92:0f:8a:23:5e:8b:af:81:0b:d0:8b:ad:66:e0:2a:
         dc:9a:29:bd:35:d8:6c:40:14:49:42:3d:89:2f:ba:9b:2b:38:
         bc:1a:a3:0b:b7:88:d7:ad:c6:14:0c:ee:7c:49:ac:ae:ec:f2:
         3d:18:4f:8c:6d:14:5d:0e:aa:b7:df:77:ab:3b:8f:62:4e:8b:
         0c:65:c6:19:8e:cd:c0:0c:a1:77:aa:b4:dd:7a:a7:13:05:e6:
         39:18:c7:95:64:7e:03:b6:8b:90:c1:e5:5f:00:23:98:e6:73:
         da:11:d2:10:ff:1e:53:22:27:c7:d3:01:c9:2f:c5:3b:32:6e:
         f0:c3:38:ca:12:67:bc:ba:23:29:bb:c4:95:49:5a:06:dd:d4:
         5a:90:d4:13:6d:e7:d5:c2:7c:e2:58:04:c0:ec:c4:bd:a2:3c:
         7e:c6:23:81:75:7c:ab:70:5f:34:84:95:f7:b3:d5:47:96:4f:
         71:ca:78:32:08:20:b4:42:a4:42:6b:d5:25:9c:b2:27:eb:c1:
         0e:47:44:09:e1:2b:0f:d0:23:36:6e:1c:b9:ba:4e:ac:cc:f0:
         0c:94:ce:41:0f:6b:dd:0f:d5:c8:e0:17:8b:de:3a:5d:52:be:
         e9:75:25:1d:ba:05:07:da:56:19:3c:8d:d1:d7:f1:51:36:d9:
         92:ef:a2:78:51:05:58:bd:52:cc:0a:5e:6f:af:da:d0:e5:0c:
         db:6c:c1:23:ef:39:31:77:17:07:00:8c:f6:ba:0f:70:f9:bc:
         be:e1:e4:7d:e1:cc:44:7a:a4:21:ec:47:3f:a8:d6:15:a5:ec:
         01:a9:c8:70:e8:98:67:1d:bd:59:54:7e:a1:57:15:35:07:c5:
         72:c9:3e:b7:29:86:8d:9f:da:32:79:32:dc:db:a8:e5:09:ff:
         ef:56:2a:fe:93:b1:8e:2a:13:ed:ad:a2:2b:6b:2f:04:de:cd:
         2f:92:92:d6:3e:60:b5:78:01:95:07:08:a9:6c:e3:1c:da:fb:
         e5:9b:23:56:20:5b:e9:d0:5c:c6:4a:24:3b:bc:e3:b6:22:16:
         2a:84:92:ff:a8:fe:97:bf:a3:9d:db:61:5e:ee:19:2a:2c:d7:
         eb:0d:76:56:38:75:7e:49:00:93:57:c9:fc:23:5a:fc:f4:f1:
         df:2a:9d:b0:8c:69:f4:10:a3:55:9d:70:3c:22:ff:07:d6:2b:
         b6:99:c0:97:d0:f4:2a:a0
-----BEGIN CERTIFICATE-----
MIIG4DCCBMigAwIBAgIINJotoYIGsrMwDQYJKoZIhvcNAQELBQAwggEMMQswCQYD
VQQGEwJFUzEPMA0GA1UECAwGTUFEUklEMQ8wDQYDVQQHDAZNQURSSUQxOjA4BgNV
BAsMMXNlZSBjdXJyZW50IGFkZHJlc3MgYXQgd3d3LmNhbWVyZmlybWEuY29tL2Fk
ZHJlc3MxKTAnBgNVBAsMIENIQU1CRVJTIE9GIENPTU1FUkNFIFJPT1QgLSAyMDE2
MRIwEAYDVQQFEwlBODI3NDMyODcxGDAWBgNVBGEMD1ZBVEVTLUE4Mjc0MzI4NzEb
MBkGA1UECgwSQUMgQ0FNRVJGSVJNQSBTLkEuMSkwJwYDVQQDDCBDSEFNQkVSUyBP
RiBDT01NRVJDRSBST09UIC0gMjAxNjAeFw0xNjA0MTQwNzM1NDhaFw00MDA0MDgw
NzM1NDhaMIIBDDELMAkGA1UEBhMCRVMxDzANBgNVBAgMBk1BRFJJRDEPMA0GA1UE
BwwGTUFEUklEMTowOAYDVQQLDDFzZWUgY3VycmVudCBhZGRyZXNzIGF0IHd3dy5j
YW1lcmZpcm1hLmNvbS9hZGRyZXNzMSkwJwYDVQQLDCBDSEFNQkVSUyBPRiBDT01N
RVJDRSBST09UIC0gMjAxNjESMBAGA1UEBRMJQTgyNzQzMjg3MRgwFgYDVQRhDA9W
QVRFUy1BODI3NDMyODcxGzAZBgNVBAoMEkFDIENBTUVSRklSTUEgUy5BLjEpMCcG
A1UEAwwgQ0hBTUJFUlMgT0YgQ09NTUVSQ0UgUk9PVCAtIDIwMTYwggIiMA0GCSqG
SIb3DQEBAQUAA4ICDwAwggIKAoICAQDqxqSh1K2Zlsmf9bxQAPQsz/J46PIsAifW
g4wEq9MOe1cgydSvZfSH3TAI185Bo3YK24pG5Kb97QjOcD/6EGB5TGuBVIBV5Od6
IbZ1mtxe9g6Z/PjC30GOL6vHW20cUFnA7eisgkL+ua8vDEFRnL0AbmRRsjvlNquV
kRL7McdzrBzYZXY7zhtMTrAfIAb7ULT7m6F5jhaV45/rGEuEqzmTzTeD0Ol8CyeP
7UII6YZGMqyaJmlwYS0YvT9Q8J72aFBOaZVwwe2TqZdOKaK63cKfbkkIK6P6I/Ep
XrB9MVmb7YzNpm74+PfYGOjaVulI8kB0fp7NIK8UJFnudzWFv0qZSql13bMm4wbO
fW9LZKN2NBk+FG+FVDjiiy1AtWRmH1czHHDNw7QoWhQjXPy4vbP+OxJf9rmMHciU
Clbbcn7vJwcNALS/fZk/TUWzm/cdGdBPBPrHc5SIfYsUKpng6ZmSCcbWAWu38NtD
V2Ibx0RS4pdjus/qzmDmCuUYaC0zgHWgMAdo9tX3Eyw6sJ7oWFVujFZETUMXQQLM
d9xfRQVZz81g07/S9uL01dyHcTMHGvVvtH89l/tfZPRODgBECenr7D5xGQQXOUhg
uEv/XshlmSumMvJbhqid6CN0EHjvyyedMbpgi04GUOJQHQdgwkGMFbRbNxwK5QkZ
cgSKPOMB2wIDAQABo0IwQDAPBgNVHRMBAf8EBTADAQH/MB0GA1UdDgQWBBSeLmVP
Plf1q32WxovfszVtSuieizAOBgNVHQ8BAf8EBAMCAQYwDQYJKoZIhvcNAQELBQAD
ggIBAAVpKoWXJlC6QjkckyzST1vRXUQm2m9pK7V7ntD0Si5Ix+x/n8pZerlE9z69
91BrUZ90/5AaQNCTeZIPiiNei6+BC9CLrWbgKtyaKb012GxAFElCPYkvupsrOLwa
owu3iNetxhQM7nxJrK7s8j0YT4xtFF0Oqrffd6s7j2JOiwxlxhmOzcAMoXeqtN16
pxMF5jkYx5VkfgO2i5DB5V8AI5jmc9oR0hD/HlMiJ8fTAckvxTsybvDDOMoSZ7y6
Iym7xJVJWgbd1FqQ1BNt59XCfOJYBMDsxL2iPH7GI4F1fKtwXzSElfez1UeWT3HK
eDIIILRCpEJr1SWcsifrwQ5HRAnhKw/QIzZuHLm6TqzM8AyUzkEPa90P1cjgF4ve
Ol1Svul1JR26BQfaVhk8jdHX8VE22ZLvonhRBVi9UswKXm+v2tDlDNtswSPvOTF3
FwcAjPa6D3D5vL7h5H3hzER6pCHsRz+o1hWl7AGpyHDomGcdvVlUfqFXFTUHxXLJ
Prcpho2f2jJ5MtzbqOUJ/+9WKv6TsY4qE+2toitrLwTezS+SktY+YLV4AZUHCKls
4xza++WbI1YgW+nQXMZKJDu847YiFiqEkv+o/pe/o53bYV7uGSos1+sNdlY4dX5J
AJNXyfwjWvz08d8qnbCMafQQo1WdcDwi/wfWK7aZwJfQ9Cqg
-----END CERTIFICATE-----
