Certificate:
    Data:
        Version: 3 (0x2)
        Serial Number:
            58:77:d3:0c:6f:0f:3c:36:7f:8c:34:f2:86:fd:a5:28:43:bb:b9:f3
        Signature Algorithm: sha256WithRSAEncryption
        Issuer: CN = Information Security Certification Authority, O = ISCA, C = KZ
        Validity
            Not Before: Feb 28 06:30:37 2020 GMT
            Not After : Feb 28 06:30:37 2040 GMT
        Subject: CN = Information Security Certification Authority, O = ISCA, C = KZ
        Subject Public Key Info:
            Public Key Algorithm: rsaEncryption
                RSA Public-Key: (4096 bit)
                Modulus:
                    00:e4:7b:b0:35:11:f4:da:c7:02:ab:9f:ca:bb:51:
                    bf:c4:69:85:fb:de:c2:60:45:f3:c9:ba:cf:51:bc:
                    8b:75:b3:7a:98:99:a8:28:4b:00:dd:2c:4a:80:04:
                    61:22:37:06:28:2b:d0:9a:b9:1b:47:48:9a:47:fd:
                    97:12:da:07:a4:d2:26:56:f9:8c:50:a1:d4:8d:86:
                    43:26:88:be:6f:f3:bf:51:71:d2:0b:86:5c:a8:05:
                    cb:ad:31:52:a5:62:f0:2b:9b:7a:f4:27:59:9e:3c:
                    98:7c:28:bf:ca:c1:89:77:41:e9:03:c4:3c:3d:b3:
                    3c:23:0f:2c:e2:10:c3:ac:9d:a8:0e:e9:47:ee:48:
                    08:a9:91:a6:0f:08:b9:22:47:6e:57:47:a8:c3:66:
                    18:d9:7b:e7:f8:86:dc:61:85:59:5e:94:2a:7a:1c:
                    37:39:84:a3:94:81:f5:2a:83:b7:be:81:b8:39:4e:
                    cb:ae:9f:63:66:d3:9a:89:94:36:c7:c5:b1:50:cc:
                    eb:7e:4e:31:2c:48:bd:f6:53:d3:f5:27:3f:4d:4f:
                    17:c4:58:34:13:c0:f4:7b:a4:5c:c9:33:aa:ed:ec:
                    0e:e0:60:e6:23:38:22:03:56:e6:c5:70:91:63:01:
                    2a:2d:b6:5c:3d:38:41:e9:a8:e9:af:2c:f2:aa:ba:
                    01:47:f8:85:ed:26:ae:35:db:8f:83:b2:cf:1d:29:
                    34:61:10:6e:8e:ed:d2:da:8a:9e:72:68:c5:b1:79:
                    9c:67:71:ef:30:fb:d7:b9:af:0d:3f:af:9d:be:a4:
                    ab:e9:66:38:ed:9a:c8:e5:cb:c3:8c:dd:a2:58:97:
                    b0:35:6d:e6:b7:b9:e4:b6:68:a5:85:2d:5d:52:a7:
                    0b:00:b1:af:eb:38:53:88:8b:33:0a:d0:75:a6:06:
                    84:fa:b7:3e:9d:dc:4c:0e:c9:0d:a0:45:41:ed:e3:
                    78:fa:88:83:f3:7a:2c:a3:a4:17:d5:f8:3c:49:81:
                    22:d3:9a:49:a6:0c:a6:de:f2:37:0a:df:dd:28:c5:
                    d9:c4:5a:ab:75:de:28:a6:a3:e5:57:26:c9:2a:0b:
                    d9:c5:79:85:12:14:f9:a5:1f:84:f1:e3:f6:8f:f3:
                    bd:df:e0:32:08:b6:9a:5e:42:8b:81:d1:ae:06:2e:
                    ea:39:aa:b4:cc:4a:57:0b:72:e9:aa:0c:b7:ec:e4:
                    c1:31:57:89:0f:59:e4:10:e7:cf:3b:0e:ba:81:8e:
                    6b:91:41:96:97:ad:40:3a:57:d2:5b:44:49:9a:96:
                    85:14:93:c9:e0:09:7a:47:5e:71:f8:39:ff:8d:6d:
                    a1:55:b6:c5:c2:bc:ec:03:70:51:ca:35:7a:c6:80:
                    63:18:c1
                Exponent: 65537 (0x10001)
        X509v3 extensions:
            X509v3 Basic Constraints: critical
                CA:TRUE
            X509v3 Key Usage: critical
                Certificate Sign, CRL Sign
            X509v3 Subject Key Identifier: 
                D8:77:D3:0C:6F:0F:3C:36:7F:8C:34:F2:86:FD:A5:28:43:BB:B9:F3
            X509v3 Authority Key Identifier: 
                keyid:D8:77:D3:0C:6F:0F:3C:36:7F:8C:34:F2:86:FD:A5:28:43:BB:B9:F3
                DirName:/CN=Information Security Certification Authority/O=ISCA/C=KZ
                serial:58:77:D3:0C:6F:0F:3C:36:7F:8C:34:F2:86:FD:A5:28:43:BB:B9:F3

    Signature Algorithm: sha256WithRSAEncryption
         47:00:fe:22:9e:43:ec:8e:0b:9c:8c:63:ad:98:8f:1e:e5:bd:
         fd:35:dd:d4:5b:5c:fe:25:cb:bd:73:14:3a:53:21:e2:0e:14:
         ed:d2:4b:81:6a:ca:29:82:92:6b:a9:76:1e:32:bc:e5:57:7b:
         f2:b4:7d:1d:d4:15:2b:5a:e8:77:a0:5c:1e:49:9a:62:f4:b6:
         15:19:dc:90:97:81:1e:1f:f5:0c:f9:05:9a:ab:24:a1:1a:53:
         17:88:43:39:54:e6:34:c6:61:70:fb:ee:eb:cb:fc:5d:55:37:
         54:14:3e:03:14:94:73:49:18:4f:29:3d:f4:ae:08:8c:37:7e:
         ad:fb:d1:7c:0e:6d:81:cc:ed:61:cd:81:08:ea:58:1c:51:d2:
         dd:f6:d0:81:76:a3:aa:ac:4e:16:4c:15:09:35:18:c5:02:78:
         d6:43:55:b8:c3:4a:f1:60:eb:21:64:96:db:51:4a:58:82:ae:
         38:41:84:a2:ce:60:1c:82:a7:4b:2d:29:cb:7b:91:de:5f:7c:
         ad:1a:30:81:81:0b:3f:85:eb:83:2b:bf:f8:f5:37:cd:87:f9:
         45:62:4c:79:ca:eb:39:a5:0d:23:7e:a3:95:0c:2f:de:68:f8:
         bf:7d:93:e8:1a:62:f3:78:84:d9:e9:f4:28:fe:02:01:4f:f4:
         eb:39:a4:1b:e3:c4:2b:29:de:e9:ef:03:01:23:f7:1e:6f:0d:
         6b:9b:82:72:9c:0a:02:c1:a8:ac:54:87:4d:6e:81:59:58:aa:
         01:66:c0:73:58:e4:5f:84:cb:48:8e:69:6f:51:eb:ef:b2:76:
         6f:65:d8:cb:cb:b6:77:8e:a5:5f:c0:2a:85:79:75:0e:47:83:
         4c:ba:05:e1:3c:19:16:fb:fe:e6:11:2f:06:88:ad:eb:10:a7:
         f2:ab:5f:89:f1:5c:1b:4c:52:34:dc:fc:b1:58:80:6e:1d:03:
         cc:34:29:c9:f8:20:00:41:49:69:c4:c7:b1:fe:7f:4b:d3:f4:
         ea:b4:b4:39:e9:f6:a2:e2:ea:ef:eb:0e:02:d8:a7:53:7b:34:
         bc:15:8f:8e:43:2b:62:5b:8c:45:c6:11:78:08:b1:d9:1d:7d:
         cb:52:32:2c:fe:0e:7d:0b:3c:9f:09:5e:b3:40:54:d2:e5:8d:
         10:d1:33:75:1a:e5:d9:a9:e7:98:aa:5c:88:61:2c:d4:4f:f4:
         8f:3a:f8:1c:38:80:df:c9:01:c6:02:24:c4:54:5d:2e:3c:99:
         e2:31:ec:c6:e5:fa:7e:c6:5a:5e:7f:7c:35:7b:32:1a:0e:be:
         fb:aa:60:65:8b:7c:33:25:cc:bc:1d:44:de:f2:85:08:58:d5:
         49:81:82:4a:b3:88:82:03
-----BEGIN CERTIFICATE-----
MIIGCzCCA/OgAwIBAgIUWHfTDG8PPDZ/jDTyhv2lKEO7ufMwDQYJKoZIhvcNAQEL
BQAwUzE1MDMGA1UEAxMsSW5mb3JtYXRpb24gU2VjdXJpdHkgQ2VydGlmaWNhdGlv
biBBdXRob3JpdHkxDTALBgNVBAoTBElTQ0ExCzAJBgNVBAYTAktaMB4XDTIwMDIy
ODA2MzAzN1oXDTQwMDIyODA2MzAzN1owUzE1MDMGA1UEAxMsSW5mb3JtYXRpb24g
U2VjdXJpdHkgQ2VydGlmaWNhdGlvbiBBdXRob3JpdHkxDTALBgNVBAoTBElTQ0Ex
CzAJBgNVBAYTAktaMIICIjANBgkqhkiG9w0BAQEFAAOCAg8AMIICCgKCAgEA5Huw
NRH02scCq5/Ku1G/xGmF+97CYEXzybrPUbyLdbN6mJmoKEsA3SxKgARhIjcGKCvQ
mrkbR0iaR/2XEtoHpNImVvmMUKHUjYZDJoi+b/O/UXHSC4ZcqAXLrTFSpWLwK5t6
9CdZnjyYfCi/ysGJd0HpA8Q8PbM8Iw8s4hDDrJ2oDulH7kgIqZGmDwi5IkduV0eo
w2YY2Xvn+IbcYYVZXpQqehw3OYSjlIH1KoO3voG4OU7Lrp9jZtOaiZQ2x8WxUMzr
fk4xLEi99lPT9Sc/TU8XxFg0E8D0e6RcyTOq7ewO4GDmIzgiA1bmxXCRYwEqLbZc
PThB6ajpryzyqroBR/iF7SauNduPg7LPHSk0YRBuju3S2oqecmjFsXmcZ3HvMPvX
ua8NP6+dvqSr6WY47ZrI5cvDjN2iWJewNW3mt7nktmilhS1dUqcLALGv6zhTiIsz
CtB1pgaE+rc+ndxMDskNoEVB7eN4+oiD83oso6QX1fg8SYEi05pJpgym3vI3Ct/d
KMXZxFqrdd4opqPlVybJKgvZxXmFEhT5pR+E8eP2j/O93+AyCLaaXkKLgdGuBi7q
Oaq0zEpXC3Lpqgy37OTBMVeJD1nkEOfPOw66gY5rkUGWl61AOlfSW0RJmpaFFJPJ
4Al6R15x+Dn/jW2hVbbFwrzsA3BRyjV6xoBjGMECAwEAAaOB1jCB0zAPBgNVHRMB
Af8EBTADAQH/MA4GA1UdDwEB/wQEAwIBBjAdBgNVHQ4EFgQU2HfTDG8PPDZ/jDTy
hv2lKEO7ufMwgZAGA1UdIwSBiDCBhYAU2HfTDG8PPDZ/jDTyhv2lKEO7ufOhV6RV
MFMxNTAzBgNVBAMTLEluZm9ybWF0aW9uIFNlY3VyaXR5IENlcnRpZmljYXRpb24g
QXV0aG9yaXR5MQ0wCwYDVQQKEwRJU0NBMQswCQYDVQQGEwJLWoIUWHfTDG8PPDZ/
jDTyhv2lKEO7ufMwDQYJKoZIhvcNAQELBQADggIBAEcA/iKeQ+yOC5yMY62Yjx7l
vf013dRbXP4ly71zFDpTIeIOFO3SS4FqyimCkmupdh4yvOVXe/K0fR3UFSta6Heg
XB5JmmL0thUZ3JCXgR4f9Qz5BZqrJKEaUxeIQzlU5jTGYXD77uvL/F1VN1QUPgMU
lHNJGE8pPfSuCIw3fq370XwObYHM7WHNgQjqWBxR0t320IF2o6qsThZMFQk1GMUC
eNZDVbjDSvFg6yFklttRSliCrjhBhKLOYByCp0stKct7kd5ffK0aMIGBCz+F64Mr
v/j1N82H+UViTHnK6zmlDSN+o5UML95o+L99k+gaYvN4hNnp9Cj+AgFP9Os5pBvj
xCsp3unvAwEj9x5vDWubgnKcCgLBqKxUh01ugVlYqgFmwHNY5F+Ey0iOaW9R6++y
dm9l2MvLtneOpV/AKoV5dQ5Hg0y6BeE8GRb7/uYRLwaIresQp/KrX4nxXBtMUjTc
/LFYgG4dA8w0Kcn4IABBSWnEx7H+f0vT9Oq0tDnp9qLi6u/rDgLYp1N7NLwVj45D
K2JbjEXGEXgIsdkdfctSMiz+Dn0LPJ8JXrNAVNLljRDRM3Ua5dmp55iqXIhhLNRP
9I86+Bw4gN/JAcYCJMRUXS48meIx7Mbl+n7GWl5/fDV7MhoOvvuqYGWLfDMlzLwd
RN7yhQhY1UmBgkqziIID
-----END CERTIFICATE-----
