Certificate:
    Data:
        Version: 3 (0x2)
        Serial Number: 2711694510199101698 (0x25a1dfca33cb5902)
        Signature Algorithm: sha256WithRSAEncryption
        Issuer: C = PA, ST = Panama, L = Panama City, O = TrustCor Systems S. de R.L., OU = TrustCor Certificate Authority, CN = TrustCor RootCert CA-2
        Validity
            Not Before: Feb  4 12:32:23 2016 GMT
            Not After : Dec 31 17:26:39 2034 GMT
        Subject: C = PA, ST = Panama, L = Panama City, O = TrustCor Systems S. de R.L., OU = TrustCor Certificate Authority, CN = TrustCor RootCert CA-2
        Subject Public Key Info:
            Public Key Algorithm: rsaEncryption
                Public-Key: (4096 bit)
                Modulus:
                    00:a7:20:6e:c2:2a:a2:62:24:95:90:76:c8:38:7e:
                    80:d2:ab:c1:9b:65:05:94:f4:c1:0a:10:d5:02:ac:
                    ed:9f:93:c7:87:c8:b0:27:2b:42:0c:3d:0a:3e:41:
                    5a:9e:75:dd:8d:ca:e0:9b:ec:68:32:a4:69:92:68:
                    8c:0b:81:0e:56:a0:3e:1a:dd:2c:25:14:82:2f:97:
                    d3:64:46:f4:54:a9:dc:3a:54:2d:31:2b:99:82:f2:
                    d9:2a:d7:ef:71:00:b8:31:a4:be:7a:24:07:c3:42:
                    20:f2:8a:d4:92:04:1b:65:56:4c:6c:d4:fb:b6:61:
                    5a:47:23:b4:d8:69:b4:b7:3a:d0:74:3c:0c:75:a1:
                    8c:4e:76:a1:e9:db:2a:a5:3b:fa:ce:b0:ff:7e:6a:
                    28:fd:27:1c:c8:b1:e9:29:f1:57:6e:64:b4:d0:c1:
                    15:6d:0e:be:2e:0e:46:c8:5e:f4:51:fe:ef:0e:63:
                    3a:3b:71:ba:cf:6f:59:ca:0c:e3:9b:5d:49:b8:4c:
                    e2:57:b1:98:8a:42:57:9c:76:ef:ef:bd:d1:68:a8:
                    d2:f4:09:bb:77:35:be:25:82:08:c4:16:2c:44:20:
                    56:a9:44:11:77:ef:5d:b4:1d:aa:5e:6b:3e:8b:32:
                    f6:07:2f:57:04:92:ca:f5:fe:9d:c2:e9:e8:b3:8e:
                    4c:4b:02:31:d9:e4:3c:48:82:27:f7:18:82:76:48:
                    3a:71:b1:13:a1:39:d5:2e:c5:34:c2:1d:62:85:df:
                    03:fe:4d:f4:af:3d:df:5c:5b:8d:fa:70:e1:a5:7e:
                    27:c7:86:2e:6a:8f:12:c6:84:5e:43:51:50:9c:19:
                    9b:78:e6:fc:f6:ed:47:7e:7b:3d:66:ef:13:13:88:
                    5f:3c:a1:63:fb:f9:ac:87:35:9f:f3:82:9e:a4:3f:
                    0a:9c:31:69:8b:99:a4:88:4a:8e:6e:66:4d:ef:16:
                    c4:0f:79:28:21:60:0d:85:16:7d:d7:54:38:f1:92:
                    56:fd:b5:33:4c:83:dc:d7:10:9f:4b:fd:c6:f8:42:
                    bd:ba:7c:73:02:e0:ff:7d:cd:5b:e1:d4:ac:61:7b:
                    57:d5:4a:7b:5b:d4:85:58:27:5d:bf:f8:2b:60:ac:
                    a0:26:ae:14:21:27:c6:77:9a:33:80:3c:5e:46:3f:
                    f7:c3:b1:a3:86:33:c6:e8:5e:0d:b9:35:2c:aa:46:
                    c1:85:02:75:80:a0:eb:24:fb:15:aa:e4:67:7f:6e:
                    77:3f:f4:04:8a:2f:7c:7b:e3:17:61:f0:dd:09:a9:
                    20:c8:be:09:a4:d0:7e:44:c3:b2:30:4a:38:aa:a9:
                    ec:18:9a:07:82:2b:db:b8:9c:18:ad:da:e0:46:17:
                    ac:cf:5d
                Exponent: 65537 (0x10001)
        X509v3 extensions:
            X509v3 Subject Key Identifier: 
                D9:FE:21:40:6E:94:9E:BC:9B:3D:9C:7D:98:20:19:E5:8C:30:62:B2
            X509v3 Authority Key Identifier: 
                D9:FE:21:40:6E:94:9E:BC:9B:3D:9C:7D:98:20:19:E5:8C:30:62:B2
            X509v3 Basic Constraints: critical
                CA:TRUE
            X509v3 Key Usage: critical
                Digital Signature, Certificate Sign, CRL Sign
    Signature Algorithm: sha256WithRSAEncryption
    Signature Value:
        9e:45:9e:0c:3b:b6:ef:e1:3a:c8:7c:d1:00:3d:cf:e2:ea:06:
        b5:b2:3a:bb:06:4b:68:7a:d0:23:97:74:a7:2c:f0:08:d8:79:
        5a:d7:5a:84:8a:d8:12:9a:1b:d9:7d:5c:4d:70:c5:a5:f9:ab:
        e5:a3:89:89:dd:01:fa:ec:dd:f9:e9:92:97:db:b0:46:42:f3:
        d3:62:aa:95:fe:31:67:14:69:58:90:0a:aa:0b:ee:37:23:c7:
        50:51:b4:f5:7e:9e:e3:7b:f7:e4:cc:42:32:2d:49:0c:cb:ff:
        49:0c:9b:1e:34:fd:6e:6e:96:8a:79:03:b6:6f:db:09:cb:fd:
        5f:65:14:37:e1:38:f5:f3:61:16:58:e4:b5:6d:0d:0b:04:1b:
        3f:50:2d:7f:b3:c7:7a:1a:16:80:60:f8:8a:1f:e9:1b:2a:c6:
        f9:ba:01:1a:69:bf:d2:58:c7:54:57:08:8f:e1:39:60:77:4b:
        ac:59:84:1a:88:f1:dd:cb:4f:78:d7:e7:e1:33:2d:fc:ee:41:
        fa:20:b0:be:cb:f7:38:94:c0:e1:d0:85:0f:bb:ed:2c:73:ab:
        ed:fe:92:76:1a:64:7f:5b:0d:33:09:07:33:7b:06:3f:11:a4:
        5c:70:3c:85:c0:cf:e3:90:a8:83:77:fa:db:e6:c5:8c:68:67:
        10:67:a5:52:2d:f0:c4:99:8f:7f:bf:d1:6b:e2:b5:47:d6:d9:
        d0:85:99:4d:94:9b:0f:4b:8d:ee:00:5a:47:1d:11:03:ac:41:
        18:af:87:b7:6f:0c:3a:8f:ca:cf:dc:03:c1:a2:09:c8:e5:fd:
        80:5e:c8:60:42:01:1b:1a:53:5a:bb:37:a6:b7:bc:ba:84:e9:
        1e:6c:1a:d4:64:da:d4:43:fe:93:8b:4b:f2:2c:79:16:10:d4:
        93:0b:88:8f:a1:d8:86:14:46:91:47:9b:28:24:ef:57:52:4e:
        5c:42:9c:aa:f7:49:ec:27:e8:40:1e:b3:a6:89:22:72:9c:f5:
        0d:33:b4:58:a3:30:3b:dd:d4:6a:54:93:be:1a:4d:f3:93:94:
        f7:fc:84:0b:3f:84:20:5c:34:03:44:c5:da:ad:bc:0a:c1:02:
        cf:1e:e5:94:d9:f3:8e:5b:d8:4c:f0:9d:ec:61:17:bb:14:32:
        54:0c:02:29:93:1e:92:86:f6:7f:ef:e7:92:05:0e:59:dd:99:
        08:2e:2e:fa:9c:00:52:d3:c5:66:29:e4:a7:97:44:a4:0e:28:
        81:13:35:c5:f6:6f:64:e6:41:c4:d5:2f:cc:34:45:25:cf:41:
        00:96:3d:4a:2e:c2:96:98:4f:4e:4a:9c:97:b7:db:1f:92:32:
        c8:ff:0f:51:6e:d6:ec:09
-----BEGIN CERTIFICATE-----
MIIGLzCCBBegAwIBAgIIJaHfyjPLWQIwDQYJKoZIhvcNAQELBQAwgaQxCzAJBgNV
BAYTAlBBMQ8wDQYDVQQIDAZQYW5hbWExFDASBgNVBAcMC1BhbmFtYSBDaXR5MSQw
IgYDVQQKDBtUcnVzdENvciBTeXN0ZW1zIFMuIGRlIFIuTC4xJzAlBgNVBAsMHlRy
dXN0Q29yIENlcnRpZmljYXRlIEF1dGhvcml0eTEfMB0GA1UEAwwWVHJ1c3RDb3Ig
Um9vdENlcnQgQ0EtMjAeFw0xNjAyMDQxMjMyMjNaFw0zNDEyMzExNzI2MzlaMIGk
MQswCQYDVQQGEwJQQTEPMA0GA1UECAwGUGFuYW1hMRQwEgYDVQQHDAtQYW5hbWEg
Q2l0eTEkMCIGA1UECgwbVHJ1c3RDb3IgU3lzdGVtcyBTLiBkZSBSLkwuMScwJQYD
VQQLDB5UcnVzdENvciBDZXJ0aWZpY2F0ZSBBdXRob3JpdHkxHzAdBgNVBAMMFlRy
dXN0Q29yIFJvb3RDZXJ0IENBLTIwggIiMA0GCSqGSIb3DQEBAQUAA4ICDwAwggIK
AoICAQCnIG7CKqJiJJWQdsg4foDSq8GbZQWU9MEKENUCrO2fk8eHyLAnK0IMPQo+
QVqedd2NyuCb7GgypGmSaIwLgQ5WoD4a3SwlFIIvl9NkRvRUqdw6VC0xK5mC8tkq
1+9xALgxpL56JAfDQiDyitSSBBtlVkxs1Pu2YVpHI7TYabS3OtB0PAx1oYxOdqHp
2yqlO/rOsP9+aij9JxzIsekp8VduZLTQwRVtDr4uDkbIXvRR/u8OYzo7cbrPb1nK
DOObXUm4TOJXsZiKQlecdu/vvdFoqNL0Cbt3Nb4lggjEFixEIFapRBF37120Hape
az6LMvYHL1cEksr1/p3C6eizjkxLAjHZ5DxIgif3GIJ2SDpxsROhOdUuxTTCHWKF
3wP+TfSvPd9cW436cOGlfifHhi5qjxLGhF5DUVCcGZt45vz27Ud+ez1m7xMTiF88
oWP7+ayHNZ/zgp6kPwqcMWmLmaSISo5uZk3vFsQPeSghYA2FFn3XVDjxklb9tTNM
g9zXEJ9L/cb4Qr26fHMC4P99zVvh1Kxhe1fVSntb1IVYJ12/+CtgrKAmrhQhJ8Z3
mjOAPF5GP/fDsaOGM8boXg25NSyqRsGFAnWAoOsk+xWq5Gd/bnc/9ASKL3x74xdh
8N0JqSDIvgmk0H5Ew7IwSjiqqewYmgeCK9u4nBit2uBGF6zPXQIDAQABo2MwYTAd
BgNVHQ4EFgQU2f4hQG6UnrybPZx9mCAZ5YwwYrIwHwYDVR0jBBgwFoAU2f4hQG6U
nrybPZx9mCAZ5YwwYrIwDwYDVR0TAQH/BAUwAwEB/zAOBgNVHQ8BAf8EBAMCAYYw
DQYJKoZIhvcNAQELBQADggIBAJ5Fngw7tu/hOsh80QA9z+LqBrWyOrsGS2h60COX
dKcs8AjYeVrXWoSK2BKaG9l9XE1wxaX5q+WjiYndAfrs3fnpkpfbsEZC89NiqpX+
MWcUaViQCqoL7jcjx1BRtPV+nuN79+TMQjItSQzL/0kMmx40/W5ulop5A7Zv2wnL
/V9lFDfhOPXzYRZY5LVtDQsEGz9QLX+zx3oaFoBg+Iof6Rsqxvm6ARppv9JYx1RX
CI/hOWB3S6xZhBqI8d3LT3jX5+EzLfzuQfogsL7L9ziUwOHQhQ+77Sxzq+3+knYa
ZH9bDTMJBzN7Bj8RpFxwPIXAz+OQqIN3+tvmxYxoZxBnpVIt8MSZj3+/0WvitUfW
2dCFmU2Umw9Lje4AWkcdEQOsQRivh7dvDDqPys/cA8GiCcjl/YBeyGBCARsaU1q7
N6a3vLqE6R5sGtRk2tRD/pOLS/IseRYQ1JMLiI+h2IYURpFHmygk71dSTlxCnKr3
Sewn6EAes6aJInKc9Q0ztFijMDvd1GpUk74aTfOTlPf8hAs/hCBcNANExdqtvArB
As8e5ZTZ845b2EzwnexhF7sUMlQMAimTHpKG9n/v55IFDlndmQguLvqcAFLTxWYp
5KeXRKQOKIETNcX2b2TmQcTVL8w0RSXPQQCWPUouwpaYT05KnJe32x+SMsj/D1Fu
1uwJ
-----END CERTIFICATE-----
