Certificate:
    Data:
        Version: 3 (0x2)
        Serial Number:
            25:44:98:fc:aa:dd:96:de:51:81:47:2e:d0:7b:16:3f:f7:9e:6a:d3
        Signature Algorithm: sha256WithRSAEncryption
        Issuer: CN = Information Security Certification Authority, O = ISCA, C = KZ
        Validity
            Not Before: Feb 28 06:46:02 2020 GMT
            Not After : Feb 28 06:46:02 2040 GMT
        Subject: CN = Information Security Certification Authority, O = ISCA, C = KZ
        Subject Public Key Info:
            Public Key Algorithm: rsaEncryption
                RSA Public-Key: (4096 bit)
                Modulus:
                    00:b0:cc:d3:38:fa:7d:9d:ad:22:e9:6a:a3:13:b2:
                    fd:5d:fa:cd:86:8d:7e:db:ae:0f:3c:26:74:9d:b2:
                    46:dd:b7:e5:ab:96:1e:af:72:52:80:36:c7:e9:22:
                    16:d4:3c:a7:b6:9c:f9:26:b8:43:37:71:bd:65:59:
                    cf:76:89:e1:bf:8c:a0:87:15:a3:bd:03:f6:c9:f3:
                    e7:ca:d1:9e:ec:ae:9d:81:a5:34:c4:fc:e9:56:2a:
                    d3:01:a1:ea:38:be:ea:06:94:eb:24:c9:00:3e:e9:
                    54:9c:5d:55:73:6b:2f:d1:f6:83:ed:76:81:6c:a8:
                    c2:93:76:c2:35:12:79:0b:1f:91:11:61:c7:fc:0d:
                    66:a2:28:1d:81:d7:3d:7d:d8:ab:3a:92:62:42:bc:
                    e5:b4:02:c8:74:71:3d:93:a1:54:e2:6a:0a:32:30:
                    05:a0:bf:52:d4:5b:85:d9:21:94:11:dc:ac:92:f9:
                    7f:65:7f:fc:6e:09:ba:97:d9:ec:8e:bf:85:25:5c:
                    3f:71:f0:d7:41:31:6e:f8:fb:8e:8f:41:c5:41:55:
                    1d:de:f0:af:0a:0e:86:7a:eb:7f:97:5a:7d:60:64:
                    b7:15:f3:f9:57:5f:20:d0:4a:12:a8:87:6f:d1:eb:
                    e5:c9:50:e8:3f:7e:dd:eb:eb:24:7e:ea:f6:7e:af:
                    8f:aa:91:1d:7c:af:20:1e:7b:e3:9a:72:09:bb:10:
                    2c:b4:cb:a7:f2:c7:d2:3d:0b:d4:de:d0:d7:b0:6a:
                    d7:94:1c:f1:85:ea:2d:6e:4f:e0:bd:38:2b:1d:43:
                    3b:b5:d2:e8:d5:9a:f2:ae:67:ac:d5:70:53:d3:df:
                    4f:e8:80:64:f3:a9:02:d1:74:3c:8d:f4:1c:1b:88:
                    cc:dd:73:8c:2c:8d:33:6b:ce:3a:e3:4f:26:dd:3c:
                    45:1a:e4:f0:ee:2c:04:c0:32:a0:5a:70:f5:24:17:
                    92:08:87:e6:e2:ef:fd:2a:bc:c4:bd:b3:6b:81:23:
                    da:7e:82:84:9d:99:ee:35:87:3e:66:37:94:db:37:
                    64:e2:63:c6:d6:f4:e4:d8:b2:11:e0:a1:81:77:94:
                    60:38:8b:ba:92:40:b4:13:a0:79:a0:6a:65:e1:3b:
                    d2:09:a0:34:2d:42:e4:21:62:da:3b:25:90:60:99:
                    81:85:f9:65:c7:67:ce:af:02:e7:10:d2:b9:46:a6:
                    bb:da:0f:88:ee:04:d7:4b:1d:6c:df:9c:f0:7c:de:
                    eb:a4:c1:e7:59:bd:04:de:3a:ab:7f:45:85:e5:80:
                    98:fa:a2:95:04:20:f1:71:1c:d4:9d:c5:a5:fb:28:
                    3f:b4:13:f6:d1:24:55:bf:89:fb:8d:88:97:cb:db:
                    96:22:b5
                Exponent: 65537 (0x10001)
        X509v3 extensions:
            X509v3 Basic Constraints: critical
                CA:TRUE
            X509v3 Key Usage: critical
                Certificate Sign, CRL Sign
            X509v3 Subject Key Identifier: 
                25:44:98:FC:AA:DD:96:DE:51:81:47:2E:D0:7B:16:3F:F7:9E:6A:D3
            X509v3 Authority Key Identifier: 
                keyid:25:44:98:FC:AA:DD:96:DE:51:81:47:2E:D0:7B:16:3F:F7:9E:6A:D3
                DirName:/CN=Information Security Certification Authority/O=ISCA/C=KZ
                serial:25:44:98:FC:AA:DD:96:DE:51:81:47:2E:D0:7B:16:3F:F7:9E:6A:D3

    Signature Algorithm: sha256WithRSAEncryption
         95:30:a3:c5:1f:0c:b2:dd:73:d3:7e:9f:da:81:d9:8f:d2:a0:
         bc:d2:15:66:dd:db:f1:62:fd:c8:15:52:8c:2f:3d:24:82:41:
         9b:e5:98:6b:89:12:63:f2:d2:2f:61:4a:42:f9:31:51:19:d2:
         f5:10:ae:cf:bd:ba:a1:41:6e:b1:6f:92:16:5d:4b:8c:85:f5:
         f2:c1:d7:13:10:04:a6:cb:26:b6:b6:f1:ae:2e:92:4b:a1:5f:
         ef:43:8f:57:77:9f:47:25:b4:a6:c3:b2:d3:fe:f9:a8:a4:ea:
         9d:29:d4:37:68:2c:22:58:df:80:ef:7c:b4:d0:4f:58:94:45:
         6d:56:30:b6:65:7a:c1:77:3e:e6:f3:9e:d6:a3:d9:16:a3:4d:
         04:d3:4c:ff:11:66:ed:1d:e3:db:8f:7d:97:9c:71:dc:ce:e9:
         48:e0:a8:69:0c:31:e8:20:ee:2c:49:80:c1:9e:cd:88:7b:90:
         7b:b9:a8:f5:81:11:d2:59:10:42:64:2b:9c:02:7a:91:46:b5:
         2d:9a:1a:00:fb:62:d2:b2:fd:84:d9:30:d8:df:25:16:72:e6:
         98:a7:b5:b8:cb:9f:ae:90:e0:91:b6:76:86:87:5a:dc:f0:1f:
         bb:4c:43:05:28:df:f3:03:ac:8e:ef:11:b3:ab:d7:1d:4a:ee:
         ad:23:65:04:8f:63:df:5b:d4:87:97:94:85:22:1f:80:66:01:
         ea:79:c8:27:7b:fd:20:36:da:e7:60:19:d0:27:09:3f:93:cd:
         ee:d9:3f:52:c3:3e:ba:7c:02:54:c6:6e:57:82:6f:3b:0c:25:
         c2:c4:da:fd:d2:29:07:c5:10:36:9d:22:ea:1b:d8:78:4a:49:
         f9:d9:19:fb:ea:ad:6f:43:1a:0f:4f:30:cb:87:19:d7:ab:90:
         fe:4c:b9:cc:f7:a5:2b:23:90:2a:a9:10:e2:91:db:f5:45:0c:
         eb:7c:58:1d:3c:e0:9c:86:8f:c7:45:70:09:37:c8:f1:c1:80:
         5e:e4:91:a5:8f:bc:7e:11:98:b3:ea:60:65:4d:09:50:d0:8b:
         7c:52:e6:a7:a2:8c:c9:98:7e:91:d3:11:b3:85:1c:a6:bf:7a:
         3b:b1:b2:c1:55:08:87:2b:40:8d:51:21:7d:1e:3e:96:16:2d:
         d2:c0:17:0e:b7:1c:8a:54:5c:82:49:cf:68:ac:7c:2c:64:bf:
         2a:10:5e:36:0d:f0:45:90:12:15:53:4a:b5:37:d3:a8:06:54:
         0e:f4:f0:dc:1d:b5:33:09:ed:f4:d8:09:67:11:36:1e:2d:0a:
         c2:d6:0b:01:0e:06:af:c8:98:ed:11:68:2c:90:16:96:73:e8:
         87:be:4c:14:48:10:ba:5f
-----BEGIN CERTIFICATE-----
MIIGCzCCA/OgAwIBAgIUJUSY/Krdlt5RgUcu0HsWP/eeatMwDQYJKoZIhvcNAQEL
BQAwUzE1MDMGA1UEAxMsSW5mb3JtYXRpb24gU2VjdXJpdHkgQ2VydGlmaWNhdGlv
biBBdXRob3JpdHkxDTALBgNVBAoTBElTQ0ExCzAJBgNVBAYTAktaMB4XDTIwMDIy
ODA2NDYwMloXDTQwMDIyODA2NDYwMlowUzE1MDMGA1UEAxMsSW5mb3JtYXRpb24g
U2VjdXJpdHkgQ2VydGlmaWNhdGlvbiBBdXRob3JpdHkxDTALBgNVBAoTBElTQ0Ex
CzAJBgNVBAYTAktaMIICIjANBgkqhkiG9w0BAQEFAAOCAg8AMIICCgKCAgEAsMzT
OPp9na0i6WqjE7L9XfrNho1+264PPCZ0nbJG3bflq5Yer3JSgDbH6SIW1Dyntpz5
JrhDN3G9ZVnPdonhv4yghxWjvQP2yfPnytGe7K6dgaU0xPzpVirTAaHqOL7qBpTr
JMkAPulUnF1Vc2sv0faD7XaBbKjCk3bCNRJ5Cx+REWHH/A1moigdgdc9fdirOpJi
QrzltALIdHE9k6FU4moKMjAFoL9S1FuF2SGUEdyskvl/ZX/8bgm6l9nsjr+FJVw/
cfDXQTFu+PuOj0HFQVUd3vCvCg6Geut/l1p9YGS3FfP5V18g0EoSqIdv0evlyVDo
P37d6+skfur2fq+PqpEdfK8gHnvjmnIJuxAstMun8sfSPQvU3tDXsGrXlBzxheot
bk/gvTgrHUM7tdLo1Zryrmes1XBT099P6IBk86kC0XQ8jfQcG4jM3XOMLI0za846
408m3TxFGuTw7iwEwDKgWnD1JBeSCIfm4u/9KrzEvbNrgSPafoKEnZnuNYc+ZjeU
2zdk4mPG1vTk2LIR4KGBd5RgOIu6kkC0E6B5oGpl4TvSCaA0LULkIWLaOyWQYJmB
hfllx2fOrwLnENK5Rqa72g+I7gTXSx1s35zwfN7rpMHnWb0E3jqrf0WF5YCY+qKV
BCDxcRzUncWl+yg/tBP20SRVv4n7jYiXy9uWIrUCAwEAAaOB1jCB0zAPBgNVHRMB
Af8EBTADAQH/MA4GA1UdDwEB/wQEAwIBBjAdBgNVHQ4EFgQUJUSY/Krdlt5RgUcu
0HsWP/eeatMwgZAGA1UdIwSBiDCBhYAUJUSY/Krdlt5RgUcu0HsWP/eeatOhV6RV
MFMxNTAzBgNVBAMTLEluZm9ybWF0aW9uIFNlY3VyaXR5IENlcnRpZmljYXRpb24g
QXV0aG9yaXR5MQ0wCwYDVQQKEwRJU0NBMQswCQYDVQQGEwJLWoIUJUSY/Krdlt5R
gUcu0HsWP/eeatMwDQYJKoZIhvcNAQELBQADggIBAJUwo8UfDLLdc9N+n9qB2Y/S
oLzSFWbd2/Fi/cgVUowvPSSCQZvlmGuJEmPy0i9hSkL5MVEZ0vUQrs+9uqFBbrFv
khZdS4yF9fLB1xMQBKbLJra28a4ukkuhX+9Dj1d3n0cltKbDstP++aik6p0p1Ddo
LCJY34DvfLTQT1iURW1WMLZlesF3Pubzntaj2RajTQTTTP8RZu0d49uPfZeccdzO
6UjgqGkMMegg7ixJgMGezYh7kHu5qPWBEdJZEEJkK5wCepFGtS2aGgD7YtKy/YTZ
MNjfJRZy5pintbjLn66Q4JG2doaHWtzwH7tMQwUo3/MDrI7vEbOr1x1K7q0jZQSP
Y99b1IeXlIUiH4BmAep5yCd7/SA22udgGdAnCT+Tze7ZP1LDPrp8AlTGbleCbzsM
JcLE2v3SKQfFEDadIuob2HhKSfnZGfvqrW9DGg9PMMuHGderkP5Mucz3pSsjkCqp
EOKR2/VFDOt8WB084JyGj8dFcAk3yPHBgF7kkaWPvH4RmLPqYGVNCVDQi3xS5qei
jMmYfpHTEbOFHKa/ejuxssFVCIcrQI1RIX0ePpYWLdLAFw63HIpUXIJJz2isfCxk
vyoQXjYN8EWQEhVTSrU306gGVA708NwdtTMJ7fTYCWcRNh4tCsLWCwEOBq/ImO0R
aCyQFpZz6Ie+TBRIELpf
-----END CERTIFICATE-----
