Certificate:
    Data:
        Version: 3 (0x2)
        Serial Number: 0 (0x0)
        Signature Algorithm: sha1WithRSAEncryption
        Issuer: C = EU, O = AC Camerfirma SA CIF A82743287, OU = http://www.chambersign.org, CN = Chambers of Commerce Root
        Validity
            Not Before: Sep 30 16:13:43 2003 GMT
            Not After : Sep 30 16:13:44 2037 GMT
        Subject: C = EU, O = AC Camerfirma SA CIF A82743287, OU = http://www.chambersign.org, CN = Chambers of Commerce Root
        Subject Public Key Info:
            Public Key Algorithm: rsaEncryption
                RSA Public-Key: (2048 bit)
                Modulus:
                    00:b7:36:55:e5:a5:5d:18:30:e0:da:89:54:91:fc:
                    c8:c7:52:f8:2f:50:d9:ef:b1:75:73:65:47:7d:1b:
                    5b:ba:75:c5:fc:a1:88:24:fa:2f:ed:ca:08:4a:39:
                    54:c4:51:7a:b5:da:60:ea:38:3c:81:b2:cb:f1:bb:
                    d9:91:23:3f:48:01:70:75:a9:05:2a:ad:1f:71:f3:
                    c9:54:3d:1d:06:6a:40:3e:b3:0c:85:ee:5c:1b:79:
                    c2:62:c4:b8:36:8e:35:5d:01:0c:23:04:47:35:aa:
                    9b:60:4e:a0:66:3d:cb:26:0a:9c:40:a1:f4:5d:98:
                    bf:71:ab:a5:00:68:2a:ed:83:7a:0f:a2:14:b5:d4:
                    22:b3:80:b0:3c:0c:5a:51:69:2d:58:18:8f:ed:99:
                    9e:f1:ae:e2:95:e6:f6:47:a8:d6:0c:0f:b0:58:58:
                    db:c3:66:37:9e:9b:91:54:33:37:d2:94:1c:6a:48:
                    c9:c9:f2:a5:da:a5:0c:23:f7:23:0e:9c:32:55:5e:
                    71:9c:84:05:51:9a:2d:fd:e6:4e:2a:34:5a:de:ca:
                    40:37:67:0c:54:21:55:77:da:0a:0c:cc:97:ae:80:
                    dc:94:36:4a:f4:3e:ce:36:13:1e:53:e4:ac:4e:3a:
                    05:ec:db:ae:72:9c:38:8b:d0:39:3b:89:0a:3e:77:
                    fe:75
                Exponent: 3 (0x3)
        X509v3 extensions:
            X509v3 Basic Constraints: critical
                CA:TRUE, pathlen:12
            X509v3 CRL Distribution Points: 

                Full Name:
                  URI:http://crl.chambersign.org/chambersroot.crl

            X509v3 Subject Key Identifier: 
                E3:94:F5:B1:4D:E9:DB:A1:29:5B:57:8B:4D:76:06:76:E1:D1:A2:8A
            X509v3 Key Usage: critical
                Certificate Sign, CRL Sign
            Netscape Cert Type: 
                SSL CA, S/MIME CA, Object Signing CA
            X509v3 Subject Alternative Name: 
                email:chambersroot@chambersign.org
            X509v3 Issuer Alternative Name: 
                email:chambersroot@chambersign.org
            X509v3 Certificate Policies: 
                Policy: 1.3.6.1.4.1.17326.10.3.1
                  CPS: http://cps.chambersign.org/cps/chambersroot.html

    Signature Algorithm: sha1WithRSAEncryption
         0c:41:97:c2:1a:86:c0:22:7c:9f:fb:90:f3:1a:d1:03:b1:ef:
         13:f9:21:5f:04:9c:da:c9:a5:8d:27:6c:96:87:91:be:41:90:
         01:72:93:e7:1e:7d:5f:f6:89:c6:5d:a7:40:09:3d:ac:49:45:
         45:dc:2e:8d:30:68:b2:09:ba:fb:c3:2f:cc:ba:0b:df:3f:77:
         7b:46:7d:3a:12:24:8e:96:8f:3c:05:0a:6f:d2:94:28:1d:6d:
         0c:c0:2e:88:22:d5:d8:cf:1d:13:c7:f0:48:d7:d7:05:a7:cf:
         c7:47:9e:3b:3c:34:c8:80:4f:d4:14:bb:fc:0d:50:f7:fa:b3:
         ec:42:5f:a9:dd:6d:c8:f4:75:cf:7b:c1:72:26:b1:01:1c:5c:
         2c:fd:7a:4e:b4:01:c5:05:57:b9:e7:3c:aa:05:d9:88:e9:07:
         46:41:ce:ef:41:81:ae:58:df:83:a2:ae:ca:d7:77:1f:e7:00:
         3c:9d:6f:8e:e4:32:09:1d:4d:78:34:78:34:3c:94:9b:26:ed:
         4f:71:c6:19:7a:bd:20:22:48:5a:fe:4b:7d:03:b7:e7:58:be:
         c6:32:4e:74:1e:68:dd:a8:68:5b:b3:3e:ee:62:7d:d9:80:e8:
         0a:75:7a:b7:ee:b4:65:9a:21:90:e0:aa:d0:98:bc:38:b5:73:
         3c:8b:f8:dc
-----BEGIN CERTIFICATE-----
MIIEvTCCA6WgAwIBAgIBADANBgkqhkiG9w0BAQUFADB/MQswCQYDVQQGEwJFVTEn
MCUGA1UEChMeQUMgQ2FtZXJmaXJtYSBTQSBDSUYgQTgyNzQzMjg3MSMwIQYDVQQL
ExpodHRwOi8vd3d3LmNoYW1iZXJzaWduLm9yZzEiMCAGA1UEAxMZQ2hhbWJlcnMg
b2YgQ29tbWVyY2UgUm9vdDAeFw0wMzA5MzAxNjEzNDNaFw0zNzA5MzAxNjEzNDRa
MH8xCzAJBgNVBAYTAkVVMScwJQYDVQQKEx5BQyBDYW1lcmZpcm1hIFNBIENJRiBB
ODI3NDMyODcxIzAhBgNVBAsTGmh0dHA6Ly93d3cuY2hhbWJlcnNpZ24ub3JnMSIw
IAYDVQQDExlDaGFtYmVycyBvZiBDb21tZXJjZSBSb290MIIBIDANBgkqhkiG9w0B
AQEFAAOCAQ0AMIIBCAKCAQEAtzZV5aVdGDDg2olUkfzIx1L4L1DZ77F1c2VHfRtb
unXF/KGIJPov7coISjlUxFF6tdpg6jg8gbLL8bvZkSM/SAFwdakFKq0fcfPJVD0d
BmpAPrMMhe5cG3nCYsS4No41XQEMIwRHNaqbYE6gZj3LJgqcQKH0XZi/caulAGgq
7YN6D6IUtdQis4CwPAxaUWktWBiP7Zme8a7ileb2R6jWDA+wWFjbw2Y3npuRVDM3
0pQcakjJyfKl2qUMI/cjDpwyVV5xnIQFUZot/eZOKjRa3spAN2cMVCFVd9oKDMyX
roDclDZK9D7ONhMeU+SsTjoF7Nuucpw4i9A5O4kKPnf+dQIBA6OCAUQwggFAMBIG
A1UdEwEB/wQIMAYBAf8CAQwwPAYDVR0fBDUwMzAxoC+gLYYraHR0cDovL2NybC5j
aGFtYmVyc2lnbi5vcmcvY2hhbWJlcnNyb290LmNybDAdBgNVHQ4EFgQU45T1sU3p
26EpW1eLTXYGduHRooowDgYDVR0PAQH/BAQDAgEGMBEGCWCGSAGG+EIBAQQEAwIA
BzAnBgNVHREEIDAegRxjaGFtYmVyc3Jvb3RAY2hhbWJlcnNpZ24ub3JnMCcGA1Ud
EgQgMB6BHGNoYW1iZXJzcm9vdEBjaGFtYmVyc2lnbi5vcmcwWAYDVR0gBFEwTzBN
BgsrBgEEAYGHLgoDATA+MDwGCCsGAQUFBwIBFjBodHRwOi8vY3BzLmNoYW1iZXJz
aWduLm9yZy9jcHMvY2hhbWJlcnNyb290Lmh0bWwwDQYJKoZIhvcNAQEFBQADggEB
AAxBl8IahsAifJ/7kPMa0QOx7xP5IV8EnNrJpY0nbJaHkb5BkAFyk+cefV/2icZd
p0AJPaxJRUXcLo0waLIJuvvDL8y6C98/d3tGfToSJI6WjzwFCm/SlCgdbQzALogi
1djPHRPH8EjX1wWnz8dHnjs8NMiAT9QUu/wNUPf6s+xCX6ndbcj0dc97wXImsQEc
XCz9ek60AcUFV7nnPKoF2YjpB0ZBzu9Bga5Y34OirsrXdx/nADydb47kMgkdTXg0
eDQ8lJsm7U9xxhl6vSAiSFr+S30Dt+dYvsYyTnQeaN2oaFuzPu5ifdmA6Ap1erfu
tGWaIZDgqtCYvDi1czyL+Nw=
-----END CERTIFICATE-----
