Certificate:
    Data:
        Version: 3 (0x2)
        Serial Number:
            0c:76:da:9c:91:0c:4e:2c:9e:fe:15:d0:58:93:3c:4c
    Signature Algorithm: sha1WithRSAEncryption
        Issuer: C=NL, O=DigiNotar, CN=DigiNotar Root CA/emailAddress=info@diginotar.nl
        Validity
            Not Before: May 16 17:19:36 2007 GMT
            Not After : Mar 31 18:19:21 2025 GMT
        Subject: C=NL, O=DigiNotar, CN=DigiNotar Root CA/emailAddress=info@diginotar.nl
        Subject Public Key Info:
            Public Key Algorithm: rsaEncryption
                Public-Key: (4096 bit)
                Modulus:
                    00:ac:b0:58:c1:00:bd:d8:21:08:0b:2b:9a:fe:6e:
                    56:30:05:9f:1b:77:90:10:41:5c:c3:0d:87:11:77:
                    8e:81:f1:ca:7c:e9:8c:6a:ed:38:74:35:bb:da:df:
                    f9:bb:c0:09:37:b4:96:73:81:7d:33:1a:98:39:f7:
                    93:6f:95:7f:3d:b9:b1:75:87:ba:51:48:e8:8b:70:
                    3e:95:04:c5:d8:b6:c3:16:d9:88:b0:b1:87:1d:70:
                    da:86:b4:0f:14:8b:7a:cf:10:d1:74:36:a2:12:7b:
                    77:86:4a:79:e6:7b:df:02:11:68:a5:4e:86:ae:34:
                    58:9b:24:13:78:56:22:25:1e:01:8b:4b:51:71:fb:
                    82:cc:59:96:69:88:5a:68:53:c5:b9:0d:02:37:cb:
                    4b:bc:66:4a:90:7e:2a:0b:05:07:ed:16:5f:55:90:
                    75:d8:46:c9:1b:83:e2:08:be:f1:23:cc:99:1d:d6:
                    2a:0f:83:20:15:58:27:82:2e:fa:e2:22:c2:49:b1:
                    b9:01:81:6a:9d:6d:9d:40:77:68:76:4e:21:2a:6d:
                    84:40:85:4e:76:99:7c:82:f3:f3:b7:02:59:d4:26:
                    01:1b:8e:df:ad:53:06:d1:ae:18:dd:e2:b2:3a:cb:
                    d7:88:38:8e:ac:5b:29:b9:19:d3:98:f9:18:03:cf:
                    48:82:86:66:0b:1b:69:0f:c9:eb:38:88:7a:26:1a:
                    05:4c:92:d7:24:d4:96:f2:ac:52:2d:a3:47:d5:52:
                    f6:3f:fe:ce:84:06:70:a6:aa:3e:a2:f2:b6:56:34:
                    18:57:a2:e4:81:6d:e7:ca:f0:6a:d3:c7:91:6b:02:
                    83:41:7c:15:ef:6b:9a:64:5e:e3:d0:3c:e5:b1:eb:
                    7b:5d:86:fb:cb:e6:77:49:cd:a3:65:dc:f7:b9:9c:
                    b8:e4:0b:5f:93:cf:cc:30:1a:32:1c:ce:1c:63:95:
                    a5:f9:ea:e1:74:8b:9e:e9:2b:a9:30:7b:a0:18:1f:
                    0e:18:0b:e5:5b:a9:d3:d1:6c:1e:07:67:8f:91:4b:
                    a9:8a:bc:d2:66:aa:93:01:88:b2:91:fa:31:5c:d5:
                    a6:c1:52:08:09:cd:0a:63:a2:d3:22:a6:e8:a1:d9:
                    39:06:97:f5:6e:8d:02:90:8c:14:7b:3f:80:cd:1b:
                    9c:ba:c4:58:72:23:af:b6:56:9f:c6:7a:42:33:29:
                    07:3f:82:c9:e6:1f:05:0d:cd:4c:28:36:8b:d3:c8:
                    3e:1c:c6:88:ef:5e:ee:89:64:e9:1d:eb:da:89:7e:
                    32:a6:69:d1:dd:cc:88:9f:d1:d0:c9:66:21:dc:06:
                    67:c5:94:7a:9a:6d:62:4c:7d:cc:e0:64:80:b2:9e:
                    47:8e:a3
                Exponent: 65537 (0x10001)
        X509v3 extensions:
            X509v3 Basic Constraints: critical
                CA:TRUE
            X509v3 Key Usage: critical
                Certificate Sign, CRL Sign
            X509v3 Subject Key Identifier: 
                88:68:BF:E0:8E:35:C4:3B:38:6B:62:F7:28:3B:84:81:C8:0C:D7:4D
    Signature Algorithm: sha1WithRSAEncryption
         3b:02:8d:cb:3c:30:e8:6e:a0:ad:f2:73:b3:5f:9e:25:13:04:
         05:d3:f6:e3:8b:bb:0b:79:ce:53:de:e4:96:c5:d1:af:73:bc:
         d5:c3:d0:40:55:7c:40:7f:cd:1b:5f:09:d5:f2:7c:9f:68:1d:
         bb:5d:ce:7a:39:c2:8c:d6:98:7b:c5:83:55:a8:d5:7d:40:ca:
         e0:1e:f7:89:5e:63:5d:a1:13:c2:5d:8a:b6:8a:7c:00:f3:23:
         c3:ed:85:5f:71:76:f0:68:63:aa:45:21:39:48:61:78:36:dc:
         f1:43:93:d4:25:c7:f2:80:65:e1:53:02:75:51:fc:7a:3a:ef:
         37:ab:84:28:57:0c:d8:d4:d4:99:56:6c:e3:a2:fe:59:84:b4:
         31:e8:33:f8:64:94:94:51:97:ab:39:c5:4b:ed:da:dd:80:0b:
         6f:7c:29:0d:c4:8e:8a:72:0d:e7:53:14:b2:60:41:3d:84:91:
         31:68:3d:27:44:db:e5:de:f4:fa:63:45:c8:4c:3e:98:f5:3f:
         41:ba:4e:cb:37:0d:ba:66:98:f1:dd:cb:9f:5c:f7:54:36:82:
         6b:2c:bc:13:61:97:42:f8:78:bb:cc:c8:a2:9f:ca:f0:68:bd:
         6b:1d:b2:df:8d:6f:07:9d:da:8e:67:c7:47:1e:ca:b9:bf:2a:
         42:91:b7:63:53:66:f1:42:a3:e1:f4:5a:4d:58:6b:b5:e4:a4:
         33:ad:5c:70:1d:dc:e0:f2:eb:73:14:91:9a:03:c1:ea:00:65:
         bc:07:fc:cf:12:11:22:2c:ae:a0:bd:3a:e0:a2:2a:d8:59:e9:
         29:d3:18:35:a4:ac:11:5f:19:b5:b5:1b:ff:22:4a:5c:c6:7a:
         e4:17:ef:20:a9:a7:f4:3f:ad:8a:a7:9a:04:25:9d:0e:ca:37:
         e6:50:fd:8c:42:29:04:9a:ec:b9:cf:4b:72:bd:e2:08:36:af:
         23:2f:62:e5:ca:01:d3:70:db:7c:82:23:2c:16:31:0c:c6:36:
         07:90:7a:b1:1f:67:58:c4:3b:58:59:89:b0:8c:8c:50:b3:d8:
         86:cb:68:a3:c4:0a:e7:69:4b:20:ce:c1:1e:56:4b:95:a9:23:
         68:d8:30:d8:c3:eb:b0:55:51:cd:e5:fd:2b:b8:f5:bb:11:9f:
         53:54:f6:34:19:8c:79:09:36:ca:61:17:25:17:0b:82:98:73:
         0c:77:74:c3:d5:0d:c7:a8:12:4c:c7:a7:54:71:47:2e:2c:1a:
         7d:c9:e3:2b:3b:48:de:27:84:a7:63:36:b3:7d:8f:a0:64:39:
         24:0d:3d:7b:87:af:66:5c:74:1b:4b:73:b2:e5:8c:f0:86:99:
         b8:e5:c5:df:84:c1:b7:eb
-----BEGIN CERTIFICATE-----
MIIFijCCA3KgAwIBAgIQDHbanJEMTiye/hXQWJM8TDANBgkqhkiG9w0BAQUFADBf
MQswCQYDVQQGEwJOTDESMBAGA1UEChMJRGlnaU5vdGFyMRowGAYDVQQDExFEaWdp
Tm90YXIgUm9vdCBDQTEgMB4GCSqGSIb3DQEJARYRaW5mb0BkaWdpbm90YXIubmww
HhcNMDcwNTE2MTcxOTM2WhcNMjUwMzMxMTgxOTIxWjBfMQswCQYDVQQGEwJOTDES
MBAGA1UEChMJRGlnaU5vdGFyMRowGAYDVQQDExFEaWdpTm90YXIgUm9vdCBDQTEg
MB4GCSqGSIb3DQEJARYRaW5mb0BkaWdpbm90YXIubmwwggIiMA0GCSqGSIb3DQEB
AQUAA4ICDwAwggIKAoICAQCssFjBAL3YIQgLK5r+blYwBZ8bd5AQQVzDDYcRd46B
8cp86Yxq7Th0Nbva3/m7wAk3tJZzgX0zGpg595NvlX89ubF1h7pRSOiLcD6VBMXY
tsMW2YiwsYcdcNqGtA8Ui3rPENF0NqISe3eGSnnme98CEWilToauNFibJBN4ViIl
HgGLS1Fx+4LMWZZpiFpoU8W5DQI3y0u8ZkqQfioLBQftFl9VkHXYRskbg+IIvvEj
zJkd1ioPgyAVWCeCLvriIsJJsbkBgWqdbZ1Ad2h2TiEqbYRAhU52mXyC8/O3AlnU
JgEbjt+tUwbRrhjd4rI6y9eIOI6sWym5GdOY+RgDz0iChmYLG2kPyes4iHomGgVM
ktck1JbyrFIto0fVUvY//s6EBnCmqj6i8rZWNBhXouSBbefK8GrTx5FrAoNBfBXv
a5pkXuPQPOWx63tdhvvL5ndJzaNl3Pe5nLjkC1+Tz8wwGjIczhxjlaX56uF0i57p
K6kwe6AYHw4YC+VbqdPRbB4HZ4+RS6mKvNJmqpMBiLKR+jFc1abBUggJzQpjotMi
puih2TkGl/VujQKQjBR7P4DNG5y6xFhyI6+2Vp/GekIzKQc/gsnmHwUNzUwoNovT
yD4cxojvXu6JZOkd69qJfjKmadHdzIif0dDJZiHcBmfFlHqabWJMfczgZICynkeO
owIDAQABo0IwQDAPBgNVHRMBAf8EBTADAQH/MA4GA1UdDwEB/wQEAwIBBjAdBgNV
HQ4EFgQUiGi/4I41xDs4a2L3KDuEgcgM100wDQYJKoZIhvcNAQEFBQADggIBADsC
jcs8MOhuoK3yc7NfniUTBAXT9uOLuwt5zlPe5JbF0a9zvNXD0EBVfEB/zRtfCdXy
fJ9oHbtdzno5wozWmHvFg1Wo1X1AyuAe94leY12hE8JdiraKfADzI8PthV9xdvBo
Y6pFITlIYXg23PFDk9Qlx/KAZeFTAnVR/Ho67zerhChXDNjU1JlWbOOi/lmEtDHo
M/hklJRRl6s5xUvt2t2AC298KQ3EjopyDedTFLJgQT2EkTFoPSdE2+Xe9PpjRchM
Ppj1P0G6Tss3DbpmmPHdy59c91Q2gmssvBNhl0L4eLvMyKKfyvBovWsdst+Nbwed
2o5nx0ceyrm/KkKRt2NTZvFCo+H0Wk1Ya7XkpDOtXHAd3ODy63MUkZoDweoAZbwH
/M8SESIsrqC9OuCiKthZ6SnTGDWkrBFfGbW1G/8iSlzGeuQX7yCpp/Q/rYqnmgQl
nQ7KN+ZQ/YxCKQSa7LnPS3K94gg2ryMvYuXKAdNw23yCIywWMQzGNgeQerEfZ1jE
O1hZibCMjFCz2IbLaKPECudpSyDOwR5WS5WpI2jYMNjD67BVUc3l/Su49bsRn1NU
9jQZjHkJNsphFyUXC4KYcwx3dMPVDceoEkzHp1RxRy4sGn3J4ys7SN4nhKdjNrN9
j6BkOSQNPXuHr2ZcdBtLc7LljPCGmbjlxd+Ewbfr
-----END CERTIFICATE-----
