Certificate:
    Data:
        Version: 3 (0x2)
        Serial Number:
            0a:b4:c7:3c:41:3a:01:94:9f:23:78:f2:b2:29:f6:6c
    Signature Algorithm: sha256WithRSAEncryption
        Issuer: C = US, O = "thawte, Inc.", CN = thawte EV SSL CA - G3
        Validity
            Not Before: Sep 14 00:00:00 2015 GMT
            Not After : Sep 15 23:59:59 2015 GMT
        Subject: jurisdictionC = US, jurisdictionST = Delaware, O = Symantec Corp, businessCategory = Private Organization, serialNumber = 2158113, C = US, ST = California, L = Mountain view, CN = www.google.com
        Subject Public Key Info:
            Public Key Algorithm: rsaEncryption
                Public-Key: (2048 bit)
                Modulus:
                    00:8e:d9:6a:64:8f:6b:e8:d8:71:bf:fd:da:e3:58:
                    62:35:8c:e0:31:0c:b8:65:27:48:7f:a3:f6:54:04:
                    3f:4d:23:5c:dc:46:18:eb:5c:1a:f8:e7:99:9e:f9:
                    20:e4:5f:61:bb:bb:35:28:5b:eb:f9:57:a7:1c:56:
                    48:fe:74:b3:27:fe:5a:dd:79:36:cb:dc:fa:a0:8b:
                    14:52:8d:e0:3a:7a:24:77:8e:4c:f8:dd:e9:34:35:
                    f8:8b:b0:30:3c:f1:dc:78:6e:e7:39:e2:4a:4d:6e:
                    49:5e:32:a7:25:14:c6:5a:85:f8:28:a8:1f:f5:00:
                    bb:ac:c9:31:d0:fa:cc:70:80:9d:95:86:df:84:0e:
                    11:16:36:1d:b4:47:d6:aa:9a:a3:49:cf:af:f5:80:
                    b6:48:6e:8f:c1:df:a5:aa:38:0a:1f:ed:97:77:7f:
                    c1:46:f8:3c:a4:67:71:2d:ba:3d:45:fa:64:67:fa:
                    5e:fd:33:0e:5a:0c:b5:13:bd:fa:66:c9:ab:aa:2d:
                    29:5a:5b:c1:d4:eb:b6:db:88:f6:fc:dd:89:5f:22:
                    30:40:65:18:72:59:69:ec:a2:89:35:58:0b:40:ad:
                    bd:d7:44:ea:8a:91:cc:a0:8a:e9:7f:14:09:1c:41:
                    2d:b5:2b:f6:2e:c9:28:f6:8b:d4:69:31:0b:b2:4c:
                    e1:bf
                Exponent: 65537 (0x10001)
        X509v3 extensions:
            X509v3 Subject Alternative Name: 
                DNS:www.google.com, DNS:google.com
            X509v3 Basic Constraints: 
                CA:FALSE
            X509v3 Key Usage: critical
                Digital Signature, Key Encipherment
            X509v3 CRL Distribution Points: 

                Full Name:
                  URI:http://ti.symcb.com/ti.crl

            X509v3 Certificate Policies: 
                Policy: 2.16.840.1.113733.1.7.48.1
                  CPS: https://www.thawte.com/cps
                  User Notice:
                    Explicit Text: https://www.thawte.com/repository

            X509v3 Extended Key Usage: 
                TLS Web Server Authentication, TLS Web Client Authentication
            X509v3 Authority Key Identifier: 
                keyid:F0:70:51:DA:D3:2A:91:4F:52:77:D7:86:77:74:0F:CE:71:1A:6C:22

            Authority Information Access: 
                OCSP - URI:http://ti.symcd.com
                CA Issuers - URI:http://ti.symcb.com/ti.crt

            CT Precertificate Poison: critical
                NULL
    Signature Algorithm: sha256WithRSAEncryption
         8b:08:d4:31:46:6a:cc:14:77:a2:f1:57:3d:de:18:75:ec:dd:
         8a:99:f3:fe:e0:da:95:01:f3:94:0f:65:57:73:0a:bf:4e:63:
         3e:41:c2:2b:b9:89:7a:c1:b4:d6:05:77:85:52:db:fa:46:a2:
         1d:d0:29:01:23:18:d4:c4:a8:98:cf:85:04:e5:31:be:ca:91:
         67:24:55:63:77:31:52:4a:09:92:12:72:b2:32:55:ee:c1:57:
         e1:c0:7d:bd:78:7c:7d:db:10:11:f6:56:3c:fd:5f:94:9b:df:
         fe:ce:54:5c:b3:7b:65:ae:6e:c2:bb:ea:c5:2a:6e:a4:5f:cc:
         69:f4:65:d5:b4:e5:4d:e2:a0:b0:25:e3:90:2b:51:21:89:8c:
         a7:87:17:2e:07:d0:bb:5c:cd:88:d1:2b:34:3a:6c:25:2e:a0:
         4c:b9:ae:1e:61:8d:f2:11:c4:25:59:38:11:9e:58:db:0c:5b:
         d1:7c:47:f7:c3:39:fb:a2:24:52:f4:90:8b:24:bb:94:2e:44:
         57:cd:55:58:4d:cf:45:c5:9a:b2:58:8a:63:36:57:c1:3c:e4:
         08:ec:c9:61:c2:77:3f:d3:14:e5:f9:cc:00:1a:41:64:bb:cc:
         c5:49:a6:cc:bc:27:07:1d:e4:81:c9:79:40:07:55:c0:4e:6f:
         c0:1f:59:a4
-----BEGIN CERTIFICATE-----
MIIFMzCCBBugAwIBAgIQCrTHPEE6AZSfI3jysin2bDANBgkqhkiG9w0BAQsFADBE
MQswCQYDVQQGEwJVUzEVMBMGA1UEChMMdGhhd3RlLCBJbmMuMR4wHAYDVQQDExV0
aGF3dGUgRVYgU1NMIENBIC0gRzMwHhcNMTUwOTE0MDAwMDAwWhcNMTUwOTE1MjM1
OTU5WjCBzDETMBEGCysGAQQBgjc8AgEDEwJVUzEZMBcGCysGAQQBgjc8AgECDAhE
ZWxhd2FyZTEWMBQGA1UECgwNU3ltYW50ZWMgQ29ycDEdMBsGA1UEDxMUUHJpdmF0
ZSBPcmdhbml6YXRpb24xEDAOBgNVBAUTBzIxNTgxMTMxCzAJBgNVBAYTAlVTMRMw
EQYDVQQIDApDYWxpZm9ybmlhMRYwFAYDVQQHDA1Nb3VudGFpbiB2aWV3MRcwFQYD
VQQDDA53d3cuZ29vZ2xlLmNvbTCCASIwDQYJKoZIhvcNAQEBBQADggEPADCCAQoC
ggEBAI7ZamSPa+jYcb/92uNYYjWM4DEMuGUnSH+j9lQEP00jXNxGGOtcGvjnmZ75
IORfYbu7NShb6/lXpxxWSP50syf+Wt15Nsvc+qCLFFKN4Dp6JHeOTPjd6TQ1+Iuw
MDzx3Hhu5zniSk1uSV4ypyUUxlqF+CioH/UAu6zJMdD6zHCAnZWG34QOERY2HbRH
1qqao0nPr/WAtkhuj8Hfpao4Ch/tl3d/wUb4PKRncS26PUX6ZGf6Xv0zDloMtRO9
+mbJq6otKVpbwdTrttuI9vzdiV8iMEBlGHJZaeyiiTVYC0CtvddE6oqRzKCK6X8U
CRxBLbUr9i7JKPaL1GkxC7JM4b8CAwEAAaOCAZYwggGSMCUGA1UdEQQeMByCDnd3
dy5nb29nbGUuY29tggpnb29nbGUuY29tMAkGA1UdEwQCMAAwDgYDVR0PAQH/BAQD
AgWgMCsGA1UdHwQkMCIwIKAeoByGGmh0dHA6Ly90aS5zeW1jYi5jb20vdGkuY3Js
MHMGA1UdIARsMGowaAYLYIZIAYb4RQEHMAEwWTAmBggrBgEFBQcCARYaaHR0cHM6
Ly93d3cudGhhd3RlLmNvbS9jcHMwLwYIKwYBBQUHAgIwIwwhaHR0cHM6Ly93d3cu
dGhhd3RlLmNvbS9yZXBvc2l0b3J5MB0GA1UdJQQWMBQGCCsGAQUFBwMBBggrBgEF
BQcDAjAfBgNVHSMEGDAWgBTwcFHa0yqRT1J314Z3dA/OcRpsIjBXBggrBgEFBQcB
AQRLMEkwHwYIKwYBBQUHMAGGE2h0dHA6Ly90aS5zeW1jZC5jb20wJgYIKwYBBQUH
MAKGGmh0dHA6Ly90aS5zeW1jYi5jb20vdGkuY3J0MBMGCisGAQQB1nkCBAMBAf8E
AgUAMA0GCSqGSIb3DQEBCwUAA4IBAQCLCNQxRmrMFHei8Vc93hh17N2KmfP+4NqV
AfOUD2VXcwq/TmM+QcIruYl6wbTWBXeFUtv6RqId0CkBIxjUxKiYz4UE5TG+ypFn
JFVjdzFSSgmSEnKyMlXuwVfhwH29eHx92xAR9lY8/V+Um9/+zlRcs3tlrm7Cu+rF
Km6kX8xp9GXVtOVN4qCwJeOQK1EhiYynhxcuB9C7XM2I0Ss0OmwlLqBMua4eYY3y
EcQlWTgRnljbDFvRfEf3wzn7oiRS9JCLJLuULkRXzVVYTc9FxZqyWIpjNlfBPOQI
7Mlhwnc/0xTl+cwAGkFku8zFSabMvCcHHeSByXlAB1XATm/AH1mk
-----END CERTIFICATE-----
