Certificate:
    Data:
        Version: 3 (0x2)
        Serial Number:
            03:28:cd:43:87:67:18:3d:c5:0f:a5:8b:e6:06:2b:62:bb:bb
    Signature Algorithm: sha256WithRSAEncryption
        Issuer: C = US, O = Let's Encrypt, CN = Let's Encrypt Authority X3
        Validity
            Not Before: Nov  1 12:36:35 2017 GMT
            Not After : Jan 30 12:36:35 2018 GMT
        Subject: CN = youtube.tg
        Subject Public Key Info:
            Public Key Algorithm: rsaEncryption
                Public-Key: (2048 bit)
                Modulus:
                    00:c7:ed:b4:18:06:59:3d:1b:ff:e0:76:20:ea:49:
                    21:68:5a:cc:ea:90:83:be:33:cb:d3:c8:c7:91:0b:
                    91:b8:57:48:e8:f4:b2:4f:95:a1:5e:9d:fe:b1:74:
                    28:45:5f:cf:8d:29:b9:87:df:53:a3:35:a2:57:4b:
                    8b:fa:22:11:be:8d:06:27:66:1c:ff:63:80:80:62:
                    c8:62:cc:f4:34:14:64:b9:5d:aa:57:44:68:98:48:
                    48:5a:88:bd:16:9f:ba:05:16:13:75:31:68:6a:00:
                    bf:c4:f6:df:fc:49:2a:47:03:4e:20:ed:e3:59:8e:
                    61:d3:f3:3f:a0:85:98:4a:5b:b3:75:7d:d8:cf:32:
                    e7:2c:4e:af:81:3e:6b:10:aa:b5:ac:ae:52:d5:92:
                    57:be:f6:d9:35:69:44:7b:d6:01:60:33:a7:93:92:
                    9b:75:22:36:0e:5c:22:bf:01:8c:d6:a6:11:15:38:
                    b9:42:52:e9:d5:25:5a:d0:65:e8:88:f0:59:f4:0e:
                    22:54:65:c6:36:7a:0e:09:1b:ee:ac:a9:c1:e1:51:
                    ed:e1:f0:20:f3:a9:6a:04:4c:26:1d:b8:16:a2:61:
                    7e:13:5e:bc:a1:12:6d:a4:0d:ca:18:0d:50:62:e4:
                    ef:1e:8e:d5:1a:b4:1e:76:7e:79:2b:66:aa:4b:86:
                    29:31
                Exponent: 65537 (0x10001)
        X509v3 extensions:
            X509v3 Key Usage: critical
                Digital Signature, Key Encipherment
            X509v3 Extended Key Usage: 
                TLS Web Server Authentication, TLS Web Client Authentication
            X509v3 Basic Constraints: critical
                CA:FALSE
            X509v3 Subject Key Identifier: 
                1B:BC:2B:E0:3D:5B:74:8A:E0:52:12:A5:A7:11:1C:86:02:B7:A6:F9
            X509v3 Authority Key Identifier: 
                keyid:A8:4A:6A:63:04:7D:DD:BA:E6:D1:39:B7:A6:45:65:EF:F3:A8:EC:A1

            Authority Information Access: 
                OCSP - URI:http://ocsp.int-x3.letsencrypt.org
                CA Issuers - URI:http://cert.int-x3.letsencrypt.org/

            X509v3 Subject Alternative Name: 
                DNS:cpanel.youtube.tg, DNS:mail.youtube.tg, DNS:webdisk.youtube.tg, DNS:webmail.youtube.tg, DNS:www.youtube.tg, DNS:youtube.tg
            X509v3 Certificate Policies: 
                Policy: 2.23.140.1.2.1
                Policy: 1.3.6.1.4.1.44947.1.1.1
                  CPS: http://cps.letsencrypt.org
                  User Notice:
                    Explicit Text: This Certificate may only be relied upon by Relying Parties and only in accordance with the Certificate Policy found at https://letsencrypt.org/repository/

    Signature Algorithm: sha256WithRSAEncryption
         7c:86:f3:c4:57:78:b5:54:6a:5c:88:00:e1:b6:c1:33:34:33:
         34:56:9b:d1:86:88:34:c3:09:eb:37:a4:08:bb:4b:ad:4c:4f:
         f1:44:84:eb:cd:64:77:71:4b:1f:81:b4:1b:6b:7e:08:bb:ee:
         74:ad:17:b5:11:a2:ba:20:b5:8a:ce:76:9e:76:12:0e:af:5a:
         d8:f8:d7:08:2d:ae:9a:53:6b:f3:2e:44:6e:0b:a9:c9:2a:e1:
         30:28:7f:bd:3c:de:cd:47:8b:98:22:d3:5c:32:ab:f1:fd:66:
         9b:0f:e6:3e:97:90:35:c4:40:13:73:98:ad:ee:20:a7:2e:84:
         0a:92:d5:2b:70:f0:3a:a5:47:ac:d3:48:85:8e:50:d4:22:71:
         1e:08:13:89:dc:05:6a:d7:e9:a7:3d:f8:50:dd:09:ea:80:f8:
         ac:2e:f7:e0:f0:ef:a9:2f:ee:31:dc:f9:4b:67:ff:16:49:91:
         f7:71:cc:3b:3a:b6:55:54:0b:1e:fc:4d:38:ad:19:c9:73:e5:
         45:0a:1f:16:b9:fb:7d:3a:6d:95:c5:75:3b:8f:63:46:37:1f:
         8e:31:97:41:d6:bc:3c:89:06:d6:d2:c2:5f:8d:3b:bc:8a:72:
         6c:8d:1f:22:ae:ad:5e:c8:e9:2f:f8:09:4a:d8:ff:a9:14:41:
         30:ab:08:41
-----BEGIN CERTIFICATE-----
MIIFUzCCBDugAwIBAgISAyjNQ4dnGD3FD6WL5gYrYru7MA0GCSqGSIb3DQEBCwUA
MEoxCzAJBgNVBAYTAlVTMRYwFAYDVQQKEw1MZXQncyBFbmNyeXB0MSMwIQYDVQQD
ExpMZXQncyBFbmNyeXB0IEF1dGhvcml0eSBYMzAeFw0xNzExMDExMjM2MzVaFw0x
ODAxMzAxMjM2MzVaMBUxEzARBgNVBAMTCnlvdXR1YmUudGcwggEiMA0GCSqGSIb3
DQEBAQUAA4IBDwAwggEKAoIBAQDH7bQYBlk9G//gdiDqSSFoWszqkIO+M8vTyMeR
C5G4V0jo9LJPlaFenf6xdChFX8+NKbmH31OjNaJXS4v6IhG+jQYnZhz/Y4CAYshi
zPQ0FGS5XapXRGiYSEhaiL0Wn7oFFhN1MWhqAL/E9t/8SSpHA04g7eNZjmHT8z+g
hZhKW7N1fdjPMucsTq+BPmsQqrWsrlLVkle+9tk1aUR71gFgM6eTkpt1IjYOXCK/
AYzWphEVOLlCUunVJVrQZeiI8Fn0DiJUZcY2eg4JG+6sqcHhUe3h8CDzqWoETCYd
uBaiYX4TXryhEm2kDcoYDVBi5O8ejtUatB52fnkrZqpLhikxAgMBAAGjggJmMIIC
YjAOBgNVHQ8BAf8EBAMCBaAwHQYDVR0lBBYwFAYIKwYBBQUHAwEGCCsGAQUFBwMC
MAwGA1UdEwEB/wQCMAAwHQYDVR0OBBYEFBu8K+A9W3SK4FISpacRHIYCt6b5MB8G
A1UdIwQYMBaAFKhKamMEfd265tE5t6ZFZe/zqOyhMG8GCCsGAQUFBwEBBGMwYTAu
BggrBgEFBQcwAYYiaHR0cDovL29jc3AuaW50LXgzLmxldHNlbmNyeXB0Lm9yZzAv
BggrBgEFBQcwAoYjaHR0cDovL2NlcnQuaW50LXgzLmxldHNlbmNyeXB0Lm9yZy8w
cQYDVR0RBGowaIIRY3BhbmVsLnlvdXR1YmUudGeCD21haWwueW91dHViZS50Z4IS
d2ViZGlzay55b3V0dWJlLnRnghJ3ZWJtYWlsLnlvdXR1YmUudGeCDnd3dy55b3V0
dWJlLnRnggp5b3V0dWJlLnRnMIH+BgNVHSAEgfYwgfMwCAYGZ4EMAQIBMIHmBgsr
BgEEAYLfEwEBATCB1jAmBggrBgEFBQcCARYaaHR0cDovL2Nwcy5sZXRzZW5jcnlw
dC5vcmcwgasGCCsGAQUFBwICMIGeDIGbVGhpcyBDZXJ0aWZpY2F0ZSBtYXkgb25s
eSBiZSByZWxpZWQgdXBvbiBieSBSZWx5aW5nIFBhcnRpZXMgYW5kIG9ubHkgaW4g
YWNjb3JkYW5jZSB3aXRoIHRoZSBDZXJ0aWZpY2F0ZSBQb2xpY3kgZm91bmQgYXQg
aHR0cHM6Ly9sZXRzZW5jcnlwdC5vcmcvcmVwb3NpdG9yeS8wDQYJKoZIhvcNAQEL
BQADggEBAHyG88RXeLVUalyIAOG2wTM0MzRWm9GGiDTDCes3pAi7S61MT/FEhOvN
ZHdxSx+BtBtrfgi77nStF7URorogtYrOdp52Eg6vWtj41wgtrppTa/MuRG4Lqckq
4TAof7083s1Hi5gi01wyq/H9ZpsP5j6XkDXEQBNzmK3uIKcuhAqS1Stw8DqlR6zT
SIWOUNQicR4IE4ncBWrX6ac9+FDdCeqA+Kwu9+Dw76kv7jHc+Utn/xZJkfdxzDs6
tlVUCx78TTitGclz5UUKHxa5+306bZXFdTuPY0Y3H44xl0HWvDyJBtbSwl+NO7yK
cmyNHyKurV7I6S/4CUrY/6kUQTCrCEE=
-----END CERTIFICATE-----
