Certificate:
    Data:
        Version: 3 (0x2)
        Serial Number:
             (Negative)5b:b3:c7:b8:07:11:8e:7f:bc:b2:4e:7f:46:58:16:9e
    Signature Algorithm: sha512WithRSAEncryption
        Issuer: OU=DSDTestProvider, O=DSDTestProvider, CN=DSDTestProvider
        Validity
            Not Before: May 27 13:36:18 2015 GMT
            Not After : Dec 31 23:59:59 2039 GMT
        Subject: OU=DSDTestProvider, O=DSDTestProvider, CN=DSDTestProvider
        Subject Public Key Info:
            Public Key Algorithm: rsaEncryption
                Public-Key: (4096 bit)
                Modulus:
                    00:dd:26:a5:82:03:0b:93:1d:31:2c:7f:65:f8:31:
                    51:f2:72:e0:48:e9:b8:7b:b1:72:46:44:ca:01:30:
                    72:e8:18:46:39:04:5b:8f:d4:df:c8:83:d8:8f:74:
                    2b:99:ba:21:5b:f5:e8:ce:d3:d5:a2:06:6f:29:fe:
                    08:8a:85:07:41:99:8f:f5:23:1a:23:9e:82:39:82:
                    73:02:e0:b9:77:c5:4e:ec:e3:94:6c:1a:37:79:fd:
                    82:71:94:22:b0:78:17:dd:54:9c:01:52:71:d2:f5:
                    4a:2b:a6:99:ca:35:8f:9e:c4:28:a8:ef:fd:b6:1a:
                    e5:50:a4:81:37:f0:96:ec:f7:40:b7:36:43:bf:66:
                    e9:2f:1b:d7:bc:a2:06:4e:3d:56:eb:68:64:5d:51:
                    ec:e4:8f:88:b9:d1:28:a6:9c:92:a4:84:8d:a8:9f:
                    bd:c0:19:3d:ed:e4:9e:02:95:e5:d0:bd:58:dc:ea:
                    9c:7e:3e:f9:b4:96:66:d4:ed:3d:95:ef:1f:06:0a:
                    10:31:e2:c7:40:e2:e9:68:b6:a9:bf:3d:e1:b3:57:
                    27:2c:2a:a9:1e:d2:89:bd:57:66:3f:f3:15:76:5f:
                    85:d4:84:a7:27:08:4f:d3:32:d1:09:7a:af:ca:58:
                    57:7f:6d:06:31:bd:1e:0f:14:70:4d:e7:83:c8:de:
                    e8:77:b5:54:15:9d:76:e0:18:88:4f:99:4e:4f:88:
                    e7:86:c6:e5:71:e1:42:49:53:da:a7:80:01:2f:7e:
                    34:f2:65:78:29:9f:9e:16:20:6f:ac:21:e7:7b:16:
                    13:4c:06:e8:eb:46:4e:24:89:f9:32:c4:9f:d0:28:
                    45:3d:1c:b6:b3:cb:44:49:26:0d:b5:d7:ad:d3:af:
                    54:cd:d8:ec:a8:e1:5b:39:9e:4b:6f:1c:1b:6b:81:
                    8a:39:b2:a6:7c:ba:66:b5:b0:82:70:66:e7:7a:f7:
                    1a:f5:fc:35:c6:46:97:10:09:b3:7e:c9:42:8d:c4:
                    b4:ad:a4:ff:e8:2f:69:3c:9c:08:4c:d9:48:81:7a:
                    9b:d7:6e:6f:46:52:dc:42:dc:98:9b:05:92:c3:9e:
                    1e:3a:6a:b0:c0:91:0c:ec:c7:68:07:33:7f:76:22:
                    57:ee:3e:db:a1:7e:3c:95:04:4a:6f:b9:b7:66:32:
                    c8:bf:f9:d2:62:54:96:92:ce:bb:44:c9:bb:4f:59:
                    a5:a3:f5:29:35:28:b4:c4:9d:20:1e:ca:3d:cd:34:
                    4e:ba:24:c7:dc:b9:89:29:d4:99:fc:57:18:49:9f:
                    81:70:44:50:03:5d:d4:a4:08:a6:54:3f:9a:3b:d7:
                    5f:79:97:56:d4:76:e0:5f:3b:78:fe:35:50:0c:0c:
                    c6:78:e3
                Exponent: 65537 (0x10001)
        X509v3 extensions:
            X509v3 Basic Constraints: critical
                CA:TRUE
            2.5.29.1: 
                0v.....O.}...dr..n$..P0N1.0...U....DSDTestProvider1.0...U.
..DSDTestProvider1.0...U....DSDTestProvider...L8G..q.CM.....b
    Signature Algorithm: sha512WithRSAEncryption
         4a:17:5c:46:bc:5a:a4:c1:86:ca:77:04:c1:74:45:45:42:00:
         e9:17:3a:17:05:41:42:65:79:e7:b0:23:48:b2:20:fb:6e:e0:
         4f:63:44:79:88:b8:b0:0b:41:5a:bb:a5:39:0f:9c:a9:b0:40:
         e2:84:bc:86:ff:86:94:1f:52:a1:8f:9e:9d:08:e8:7a:4a:e4:
         d5:bf:81:49:4f:b7:78:5e:10:73:d1:a9:17:02:53:55:96:ed:
         bd:f6:82:d1:50:32:97:23:b9:da:d4:e6:8d:07:ec:57:21:66:
         94:9b:3b:0f:a1:6c:b3:14:db:c5:84:0f:82:c6:b4:88:1b:24:
         6e:a8:ef:56:38:1a:7d:99:66:e0:cc:30:eb:2b:e6:0f:27:2d:
         f4:0b:28:cd:98:76:fe:54:f7:fc:5e:72:19:e5:b7:94:ac:5d:
         5c:a9:50:ea:8a:8a:08:28:2d:df:9a:86:bf:ac:54:a0:5c:c5:
         9d:b7:42:32:ab:f7:20:f0:a6:d5:f1:cd:34:bb:bc:a1:3b:62:
         64:d3:1c:df:f9:f4:9b:9c:25:15:09:31:a0:3b:b0:e9:bc:33:
         6f:23:f0:fa:95:8e:b4:8f:c4:70:b9:5f:0d:db:9a:aa:93:09:
         9a:2c:63:84:22:01:52:35:18:5f:a2:ac:3e:13:7e:61:03:3c:
         01:3a:2b:22:a0:53:9c:4e:35:42:b5:c7:76:d4:0c:58:1d:aa:
         c8:b5:7b:34:8d:9c:c2:a4:20:f6:0d:23:fe:67:a9:bd:28:41:
         7f:be:19:50:b7:2b:3d:c1:18:95:3d:65:5a:7c:88:63:13:e8:
         34:fd:f9:09:ec:2f:05:08:84:8e:8b:38:01:3d:9b:bd:08:0e:
         b9:b7:82:7c:86:13:76:dd:5c:1c:99:13:71:b8:b1:7b:4a:9f:
         86:8d:a9:1d:86:a9:0b:97:38:f8:9e:36:e6:c2:42:38:3a:52:
         bd:ee:f7:e7:19:d4:69:56:d7:f4:c1:f5:22:2c:71:ae:87:03:
         aa:7d:ef:e1:e3:5b:47:8d:72:c1:01:b0:9a:1a:57:a9:ab:7f:
         5d:9d:35:27:d1:03:55:e5:57:f4:9a:40:36:fd:77:a1:36:0f:
         65:1a:d2:48:4a:c0:c9:a0:7b:8b:52:f5:77:2b:d1:53:ec:04:
         50:e4:ff:cb:83:14:0b:1f:a3:43:32:71:fc:97:ab:9b:b5:73:
         53:cd:82:f6:4e:17:be:ef:ac:a7:ce:e5:6d:a2:00:18:24:e6:
         e3:d2:e2:04:da:a1:20:20:87:bf:1e:7e:64:c1:27:1c:5c:ff:
         5d:83:ef:42:8a:61:86:b4:73:21:6c:38:af:d3:f9:2f:9a:76:
         e9:bc:bd:5d:c1:7a:d0:7a
-----BEGIN CERTIFICATE-----
MIIFvDCCA6SgAwIBAgIQpEw4R/jucYBDTbGAuafpYjANBgkqhkiG9w0BAQ0FADBO
MRgwFgYDVQQLEw9EU0RUZXN0UHJvdmlkZXIxGDAWBgNVBAoTD0RTRFRlc3RQcm92
aWRlcjEYMBYGA1UEAxMPRFNEVGVzdFByb3ZpZGVyMB4XDTE1MDUyNzEzMzYxOFoX
DTM5MTIzMTIzNTk1OVowTjEYMBYGA1UECxMPRFNEVGVzdFByb3ZpZGVyMRgwFgYD
VQQKEw9EU0RUZXN0UHJvdmlkZXIxGDAWBgNVBAMTD0RTRFRlc3RQcm92aWRlcjCC
AiIwDQYJKoZIhvcNAQEBBQADggIPADCCAgoCggIBAN0mpYIDC5MdMSx/ZfgxUfJy
4EjpuHuxckZEygEwcugYRjkEW4/U38iD2I90K5m6IVv16M7T1aIGbyn+CIqFB0GZ
j/UjGiOegjmCcwLguXfFTuzjlGwaN3n9gnGUIrB4F91UnAFScdL1Siummco1j57E
KKjv/bYa5VCkgTfwluz3QLc2Q79m6S8b17yiBk49VutoZF1R7OSPiLnRKKackqSE
jaifvcAZPe3kngKV5dC9WNzqnH4++bSWZtTtPZXvHwYKEDHix0Di6Wi2qb894bNX
JywqqR7Sib1XZj/zFXZfhdSEpycIT9My0Ql6r8pYV39tBjG9Hg8UcE3ng8je6He1
VBWdduAYiE+ZTk+I54bG5XHhQklT2qeAAS9+NPJleCmfnhYgb6wh53sWE0wG6OtG
TiSJ+TLEn9AoRT0ctrPLREkmDbXXrdOvVM3Y7KjhWzmeS28cG2uBijmypny6ZrWw
gnBm53r3GvX8NcZGlxAJs37JQo3EtK2k/+gvaTycCEzZSIF6m9dub0ZS3ELcmJsF
ksOeHjpqsMCRDOzHaAczf3YiV+4+26F+PJUESm+5t2YyyL/50mJUlpLOu0TJu09Z
paP1KTUotMSdIB7KPc00Trokx9y5iSnUmfxXGEmfgXBEUANd1KQIplQ/mjvXX3mX
VtR24F87eP41UAwMxnjjAgMBAAGjgZUwgZIwDwYDVR0TAQH/BAUwAwEB/zB/BgNV
HQEEeDB2gBDitI1Pkn2AA6NkchDgbiTQoVAwTjEYMBYGA1UECxMPRFNEVGVzdFBy
b3ZpZGVyMRgwFgYDVQQKEw9EU0RUZXN0UHJvdmlkZXIxGDAWBgNVBAMTD0RTRFRl
c3RQcm92aWRlcoIQpEw4R/jucYBDTbGAuafpYjANBgkqhkiG9w0BAQ0FAAOCAgEA
ShdcRrxapMGGyncEwXRFRUIA6Rc6FwVBQmV557AjSLIg+27gT2NEeYi4sAtBWrul
OQ+cqbBA4oS8hv+GlB9SoY+enQjoekrk1b+BSU+3eF4Qc9GpFwJTVZbtvfaC0VAy
lyO52tTmjQfsVyFmlJs7D6FssxTbxYQPgsa0iBskbqjvVjgafZlm4Mww6yvmDyct
9AsozZh2/lT3/F5yGeW3lKxdXKlQ6oqKCCgt35qGv6xUoFzFnbdCMqv3IPCm1fHN
NLu8oTtiZNMc3/n0m5wlFQkxoDuw6bwzbyPw+pWOtI/EcLlfDduaqpMJmixjhCIB
UjUYX6KsPhN+YQM8ATorIqBTnE41QrXHdtQMWB2qyLV7NI2cwqQg9g0j/mepvShB
f74ZULcrPcEYlT1lWnyIYxPoNP35CewvBQiEjos4AT2bvQgOubeCfIYTdt1cHJkT
cbixe0qfho2pHYapC5c4+J425sJCODpSve735xnUaVbX9MH1IixxrocDqn3v4eNb
R41ywQGwmhpXqat/XZ01J9EDVeVX9JpANv13oTYPZRrSSErAyaB7i1L1dyvRU+wE
UOT/y4MUCx+jQzJx/Jerm7VzU82C9k4Xvu+sp87lbaIAGCTm49LiBNqhICCHvx5+
ZMEnHFz/XYPvQophhrRzIWw4r9P5L5p26by9XcF60Ho=
-----END CERTIFICATE-----
