Certificate:
    Data:
        Version: 3 (0x2)
        Serial Number: 120025506 (0x72771a2)
        Signature Algorithm: sha1WithRSAEncryption
        Issuer: C = IE, O = Baltimore, OU = CyberTrust, CN = Baltimore CyberTrust Root
        Validity
            Not Before: Jun 20 18:35:13 2012 GMT
            Not After : Sep 14 18:34:00 2019 GMT
        Subject: C = JP, O = Keio University, CN = KEIO UNIV.CA 2
        Subject Public Key Info:
            Public Key Algorithm: rsaEncryption
                Public-Key: (2048 bit)
                Modulus:
                    00:b6:f5:24:3e:10:43:5a:80:f2:1a:94:0d:1b:61:
                    26:50:7b:58:26:da:b7:89:b6:e2:ff:56:08:22:56:
                    fb:ad:0d:78:65:6d:0f:13:c0:96:89:a7:08:a4:19:
                    11:cf:96:a7:54:1b:9c:c4:3c:84:78:3b:d3:cb:7a:
                    2b:ba:b6:cc:05:98:0d:b6:6b:67:8a:a8:77:79:44:
                    59:75:93:5d:d6:81:cf:88:fa:8b:e9:29:2d:5d:14:
                    d0:ab:fd:6c:5d:a8:14:b0:41:dc:2b:30:66:9c:59:
                    8b:55:73:cc:1c:59:90:32:06:a3:c7:58:d3:af:81:
                    b8:ba:8a:47:83:3d:d0:3d:02:3c:03:e7:9d:d6:5d:
                    95:35:ce:1f:38:4a:0c:f7:87:f3:51:d7:20:86:ad:
                    7d:fd:a9:6f:29:ee:69:62:6f:84:20:f0:25:a7:b7:
                    27:bd:ec:d8:b7:3a:19:6a:9b:f9:ba:b6:17:e9:22:
                    9b:63:c2:bf:31:ab:af:cb:26:33:9c:07:f7:fd:6b:
                    40:aa:36:e8:99:05:53:32:22:9f:66:de:d3:65:4a:
                    27:c2:9d:e5:97:d9:7f:fe:1b:51:9d:38:af:34:a6:
                    59:6d:1d:ac:ba:5b:4d:bd:41:05:7a:ec:f6:d6:e2:
                    5a:b2:9a:7e:5c:8e:d4:ae:9c:c2:4b:6c:eb:7a:36:
                    1b:ff
                Exponent: 65537 (0x10001)
        X509v3 extensions:
            X509v3 Basic Constraints: critical
                CA:TRUE, pathlen:0
            X509v3 Certificate Policies: 
                Policy: 1.3.6.1.4.1.6334.1.0
                  CPS: http://cybertrust.omniroot.com/repository.cfm
            X509v3 Key Usage: critical
                Certificate Sign, CRL Sign
            X509v3 Authority Key Identifier: 
                DirName:/C=IE/O=Baltimore/OU=CyberTrust/CN=Baltimore CyberTrust Root
                serial:02:00:00:B9
            X509v3 CRL Distribution Points: 
                Full Name:
                  URI:http://cdp1.public-trust.com/CRL/Omniroot2025.crl
            X509v3 Subject Key Identifier: 
                A4:CE:95:2E:07:AD:C7:B0:54:3A:3A:88:AB:EB:8F:21:DF:80:F5:AB
    Signature Algorithm: sha1WithRSAEncryption
    Signature Value:
        29:c4:0b:2c:c0:c5:86:7a:11:d7:70:59:33:ff:33:6d:05:ce:
        da:04:eb:8c:e5:97:8b:3d:6e:d2:dc:a9:9f:c1:be:c0:8e:a7:
        cd:be:f1:a2:a3:44:52:c1:cb:a8:7c:cc:cc:32:f0:73:b1:58:
        43:e3:cb:a1:12:e2:28:a6:1c:43:1d:9f:6b:17:ec:98:e0:27:
        92:07:40:f7:3a:f7:8d:cc:c2:12:4d:74:98:42:3f:89:78:bf:
        ee:29:6b:87:9a:91:c4:8f:d2:6a:b5:ea:2e:52:ef:e4:b1:47:
        0a:d1:e0:e4:91:9a:ff:be:24:b6:c1:1a:f1:27:94:96:52:84:
        da:d4:d7:9e:c7:dc:97:78:12:63:91:fd:73:77:6e:49:90:cb:
        45:25:6b:95:ab:1a:af:a0:bb:4c:93:99:15:68:54:0f:ad:7a:
        8d:cb:0c:c9:37:29:1e:f4:ba:b9:e7:5f:d1:b1:8f:96:65:5c:
        c2:64:67:e5:26:d9:43:8b:c4:fb:a5:0f:2c:ee:67:a6:ff:90:
        1a:69:98:24:98:ab:26:67:47:20:7a:1e:90:80:06:2b:5f:44:
        d5:0e:5e:75:be:dd:b8:ec:5a:f6:cf:fd:36:35:71:85:6b:0a:
        35:37:15:87:55:22:07:dd:65:39:cc:67:26:b4:b5:18:99:af:
        4f:48:08:a6
-----BEGIN CERTIFICATE-----
MIIEazCCA1OgAwIBAgIEBydxojANBgkqhkiG9w0BAQUFADBaMQswCQYDVQQGEwJJ
RTESMBAGA1UEChMJQmFsdGltb3JlMRMwEQYDVQQLEwpDeWJlclRydXN0MSIwIAYD
VQQDExlCYWx0aW1vcmUgQ3liZXJUcnVzdCBSb290MB4XDTEyMDYyMDE4MzUxM1oX
DTE5MDkxNDE4MzQwMFowQDELMAkGA1UEBhMCSlAxGDAWBgNVBAoTD0tlaW8gVW5p
dmVyc2l0eTEXMBUGA1UEAxMOS0VJTyBVTklWLkNBIDIwggEiMA0GCSqGSIb3DQEB
AQUAA4IBDwAwggEKAoIBAQC29SQ+EENagPIalA0bYSZQe1gm2reJtuL/VggiVvut
DXhlbQ8TwJaJpwikGRHPlqdUG5zEPIR4O9PLeiu6tswFmA22a2eKqHd5RFl1k13W
gc+I+ovpKS1dFNCr/WxdqBSwQdwrMGacWYtVc8wcWZAyBqPHWNOvgbi6ikeDPdA9
AjwD553WXZU1zh84Sgz3h/NR1yCGrX39qW8p7mlib4Qg8CWntye97Ni3Ohlqm/m6
thfpIptjwr8xq6/LJjOcB/f9a0CqNuiZBVMyIp9m3tNlSifCneWX2X/+G1GdOK80
plltHay6W029QQV67PbW4lqymn5cjtSunMJLbOt6Nhv/AgMBAAGjggFRMIIBTTAS
BgNVHRMBAf8ECDAGAQH/AgEAMFMGA1UdIARMMEowSAYJKwYBBAGxPgEAMDswOQYI
KwYBBQUHAgEWLWh0dHA6Ly9jeWJlcnRydXN0Lm9tbmlyb290LmNvbS9yZXBvc2l0
b3J5LmNmbTAOBgNVHQ8BAf8EBAMCAQYwbwYDVR0jBGgwZqFepFwwWjELMAkGA1UE
BhMCSUUxEjAQBgNVBAoTCUJhbHRpbW9yZTETMBEGA1UECxMKQ3liZXJUcnVzdDEi
MCAGA1UEAxMZQmFsdGltb3JlIEN5YmVyVHJ1c3QgUm9vdIIEAgAAuTBCBgNVHR8E
OzA5MDegNaAzhjFodHRwOi8vY2RwMS5wdWJsaWMtdHJ1c3QuY29tL0NSTC9PbW5p
cm9vdDIwMjUuY3JsMB0GA1UdDgQWBBSkzpUuB63HsFQ6Ooir648h34D1qzANBgkq
hkiG9w0BAQUFAAOCAQEAKcQLLMDFhnoR13BZM/8zbQXO2gTrjOWXiz1u0typn8G+
wI6nzb7xoqNEUsHLqHzMzDLwc7FYQ+PLoRLiKKYcQx2faxfsmOAnkgdA9zr3jczC
Ek10mEI/iXi/7ilrh5qRxI/SarXqLlLv5LFHCtHg5JGa/74ktsEa8SeUllKE2tTX
nsfcl3gSY5H9c3duSZDLRSVrlasar6C7TJOZFWhUD616jcsMyTcpHvS6uedf0bGP
lmVcwmRn5SbZQ4vE+6UPLO5npv+QGmmYJJirJmdHIHoekIAGK19E1Q5edb7duOxa
9s/9NjVxhWsKNTcVh1UiB91lOcxnJrS1GJmvT0gIpg==
-----END CERTIFICATE-----
