Certificate:
    Data:
        Version: 3 (0x2)
        Serial Number: 1218379777 (0x489f0001)
        Signature Algorithm: sha1WithRSAEncryption
        Issuer: C = CN, O = China Internet Network Information Center, CN = China Internet Network Information Center EV Certificates Root
        Validity
            Not Before: Aug 31 07:11:25 2010 GMT
            Not After : Aug 31 07:11:25 2030 GMT
        Subject: C = CN, O = China Internet Network Information Center, CN = China Internet Network Information Center EV Certificates Root
        Subject Public Key Info:
            Public Key Algorithm: rsaEncryption
                Public-Key: (2048 bit)
                Modulus:
                    00:9b:7e:73:ee:bd:3b:78:aa:64:43:41:f5:50:df:
                    94:f2:2e:b2:8d:4a:8e:46:54:d2:21:12:c8:39:32:
                    42:06:e9:83:d5:9f:52:ed:e5:67:03:3b:54:c1:8c:
                    99:99:cc:e9:c0:0f:ff:0d:d9:84:11:b2:b8:d1:cb:
                    5b:dc:1e:f9:68:31:64:e1:9b:fa:74:eb:68:b9:20:
                    95:f7:c6:0f:8d:47:ac:5a:06:dd:61:ab:e2:ec:d8:
                    9f:17:2d:9c:ca:3c:35:97:55:71:cd:43:85:b1:47:
                    16:f5:2c:53:80:76:cf:d3:00:64:bd:40:99:dd:cc:
                    d8:db:c4:9f:d6:13:5f:41:83:8b:f9:0d:87:92:56:
                    34:6c:1a:10:0b:17:d5:5a:1c:97:58:84:3c:84:1a:
                    2e:5c:91:34:6e:19:5f:7f:17:69:c5:65:ef:6b:21:
                    c6:d5:50:3a:bf:61:b9:05:8d:ef:6f:34:3a:b2:6f:
                    14:63:bf:16:3b:9b:a9:2a:fd:b7:2b:38:66:06:c5:
                    2c:e2:aa:67:1e:45:a7:8d:04:66:42:f6:8f:2b:ef:
                    88:20:69:8f:32:8c:14:73:da:2b:86:91:63:22:9a:
                    f2:a7:db:ce:89:8b:ab:5d:c7:14:c1:5b:30:6a:1f:
                    b1:b7:9e:2e:81:01:02:ed:cf:96:5e:63:db:a8:e6:
                    38:b7
                Exponent: 65537 (0x10001)
        X509v3 extensions:
            X509v3 Authority Key Identifier: 
                7C:72:4B:39:C7:C0:DB:62:A5:4F:9B:AA:18:34:92:A2:CA:83:82:59
            X509v3 Basic Constraints: critical
                CA:TRUE
            X509v3 Key Usage: critical
                Certificate Sign, CRL Sign
            X509v3 Subject Key Identifier: 
                7C:72:4B:39:C7:C0:DB:62:A5:4F:9B:AA:18:34:92:A2:CA:83:82:59
    Signature Algorithm: sha1WithRSAEncryption
    Signature Value:
        2a:c3:c7:43:37:8f:dd:ad:a4:b2:0c:ee:dc:14:6d:8f:28:a4:
        98:49:cb:0c:80:ea:f3:ed:23:66:75:7d:c5:d3:21:67:79:d1:
        73:c5:b5:03:b7:58:ac:0c:54:2f:c6:56:13:0f:31:da:06:e7:
        65:3b:1d:6f:36:db:c8:1d:f9:fd:80:06:ca:a3:3d:66:16:a8:
        9d:4c:16:7d:c0:95:46:b5:51:e4:e2:1f:d7:ea:06:4d:63:8d:
        96:8c:ef:e7:33:57:42:3a:eb:8c:c1:79:c8:4d:76:7d:de:f6:
        b1:b7:81:e0:a0:f9:a1:78:46:17:1a:56:98:f0:4e:3d:ab:1c:
        ed:ec:39:dc:07:48:f7:63:fe:06:ae:c2:a4:5c:6a:5b:32:88:
        c5:c7:33:85:ac:66:42:47:c2:58:24:99:e1:e5:3e:e5:75:2c:
        8e:43:d6:5d:3c:78:1e:a8:95:82:29:50:d1:d1:16:ba:ef:c1:
        be:7a:d9:b4:d8:cc:1e:4c:46:e1:77:b1:31:ab:bd:2a:c8:ce:
        8f:6e:a1:5d:7f:03:75:34:e4:ad:89:45:54:5e:be:ae:28:a5:
        bb:3f:78:79:eb:73:b3:0a:0d:fd:be:c9:f7:56:ac:f6:b7:ed:
        2f:9b:21:29:c7:38:b6:95:c4:04:f2:c3:2d:fd:14:2a:90:99:
        b9:07:cc:9f
-----BEGIN CERTIFICATE-----
MIID9zCCAt+gAwIBAgIESJ8AATANBgkqhkiG9w0BAQUFADCBijELMAkGA1UEBhMC
Q04xMjAwBgNVBAoMKUNoaW5hIEludGVybmV0IE5ldHdvcmsgSW5mb3JtYXRpb24g
Q2VudGVyMUcwRQYDVQQDDD5DaGluYSBJbnRlcm5ldCBOZXR3b3JrIEluZm9ybWF0
aW9uIENlbnRlciBFViBDZXJ0aWZpY2F0ZXMgUm9vdDAeFw0xMDA4MzEwNzExMjVa
Fw0zMDA4MzEwNzExMjVaMIGKMQswCQYDVQQGEwJDTjEyMDAGA1UECgwpQ2hpbmEg
SW50ZXJuZXQgTmV0d29yayBJbmZvcm1hdGlvbiBDZW50ZXIxRzBFBgNVBAMMPkNo
aW5hIEludGVybmV0IE5ldHdvcmsgSW5mb3JtYXRpb24gQ2VudGVyIEVWIENlcnRp
ZmljYXRlcyBSb290MIIBIjANBgkqhkiG9w0BAQEFAAOCAQ8AMIIBCgKCAQEAm35z
7r07eKpkQ0H1UN+U8i6yjUqORlTSIRLIOTJCBumD1Z9S7eVnAztUwYyZmczpwA//
DdmEEbK40ctb3B75aDFk4Zv6dOtouSCV98YPjUesWgbdYavi7NifFy2cyjw1l1Vx
zUOFsUcW9SxTgHbP0wBkvUCZ3czY28Sf1hNfQYOL+Q2HklY0bBoQCxfVWhyXWIQ8
hBouXJE0bhlffxdpxWXvayHG1VA6v2G5BY3vbzQ6sm8UY78WO5upKv23KzhmBsUs
4qpnHkWnjQRmQvaPK++IIGmPMowUc9orhpFjIpryp9vOiYurXccUwVswah+xt54u
gQEC7c+WXmPbqOY4twIDAQABo2MwYTAfBgNVHSMEGDAWgBR8cks5x8DbYqVPm6oY
NJKiyoOCWTAPBgNVHRMBAf8EBTADAQH/MA4GA1UdDwEB/wQEAwIBBjAdBgNVHQ4E
FgQUfHJLOcfA22KlT5uqGDSSosqDglkwDQYJKoZIhvcNAQEFBQADggEBACrDx0M3
j92tpLIM7twUbY8opJhJywyA6vPtI2Z1fcXTIWd50XPFtQO3WKwMVC/GVhMPMdoG
52U7HW8228gd+f2ABsqjPWYWqJ1MFn3AlUa1UeTiH9fqBk1jjZaM7+czV0I664zB
echNdn3e9rG3geCg+aF4RhcaVpjwTj2rHO3sOdwHSPdj/gauwqRcalsyiMXHM4Ws
ZkJHwlgkmeHlPuV1LI5D1l08eB6olYIpUNHRFrrvwb562bTYzB5MRuF3sTGrvSrI
zo9uoV1/A3U05K2JRVRevq4opbs/eHnrc7MKDf2+yfdWrPa37S+bISnHOLaVxATy
wy39FCqQmbkHzJ8=
-----END CERTIFICATE-----
