Certificate:
    Data:
        Version: 3 (0x2)
        Serial Number:
            7b:c4:b8:32:f3:a5:c2:23:ea:b0:91:b6:da:6b:f8:4f:71:0b:42:40
        Signature Algorithm: sha256WithRSAEncryption
        Issuer: CN = Information Security Certification Authority, O = ISCA, C = KZ
        Validity
            Not Before: Feb 28 06:43:38 2020 GMT
            Not After : Feb 28 06:43:38 2040 GMT
        Subject: CN = Information Security Certification Authority, O = ISCA, C = KZ
        Subject Public Key Info:
            Public Key Algorithm: rsaEncryption
                Public-Key: (4096 bit)
                Modulus:
                    00:ba:4d:dc:ea:28:48:76:f9:c0:8a:2a:e6:be:95:
                    ac:bf:cd:eb:b5:70:6f:24:d5:ef:cc:16:bb:65:b1:
                    01:8d:e7:54:ff:62:72:b1:7a:0a:34:f6:26:29:84:
                    40:07:64:ca:30:75:66:f0:b7:e2:2c:ae:d2:8f:4e:
                    1c:ad:05:7e:d2:87:39:89:64:01:8b:0b:fa:1b:94:
                    45:24:37:58:6a:90:29:d2:e4:01:9e:69:99:10:3e:
                    67:9d:77:39:d7:f7:ee:bc:36:60:1c:0a:85:5a:04:
                    ee:51:36:82:0b:00:c9:6e:d7:71:ef:12:f8:4d:87:
                    88:7e:31:2b:2a:9c:c0:09:59:ae:c6:ac:63:c5:96:
                    ae:34:9a:f3:ba:de:43:57:8a:16:05:ac:69:b5:af:
                    6c:7e:5a:ba:81:b6:6e:e4:b5:ed:6c:fe:05:89:8a:
                    62:fa:51:de:5f:54:b0:26:95:6c:70:06:44:a8:65:
                    65:4a:16:81:14:97:42:fc:71:c1:0d:b9:e0:a3:b1:
                    3a:a0:43:de:62:ef:25:68:f6:b1:86:85:e5:69:8a:
                    3e:c3:f0:c5:8c:0f:8a:3c:5d:e0:2a:09:29:e5:48:
                    5a:9d:e1:d5:c8:03:a0:9a:b7:f6:54:1c:b1:8e:17:
                    bc:e9:90:f9:1d:b5:4c:d9:aa:fc:b2:b3:0c:7c:d9:
                    70:42:63:d8:cf:2e:32:7f:fc:8a:3c:97:94:6e:c5:
                    8d:31:d6:b9:a6:0b:4d:78:0c:6c:b3:81:ee:39:4f:
                    e8:e5:e8:d6:a0:3e:05:2b:23:21:52:37:99:c8:34:
                    ef:59:9d:d3:99:0d:18:a8:91:9d:d9:fa:db:8d:ea:
                    93:89:4f:90:9c:08:c9:8b:49:aa:dd:5e:ef:e4:aa:
                    fa:b8:c7:c5:38:bc:99:e8:4f:83:10:92:15:80:63:
                    4c:2e:f2:0f:e2:fe:72:82:31:89:4c:68:e1:7a:c1:
                    76:11:e3:48:dc:41:b8:a9:01:14:8f:a6:f1:19:14:
                    90:3a:fd:56:d8:37:ee:9b:f1:9c:93:60:11:3c:55:
                    0b:d2:6b:33:f7:ed:b4:3a:1e:31:d3:f8:e9:0b:1b:
                    cf:80:7c:89:2b:88:2f:6c:8c:6c:ef:3f:ac:e1:93:
                    2e:2d:55:42:1d:be:a0:8c:b1:0c:63:d3:78:ac:21:
                    a6:4f:58:2c:ba:90:fd:95:86:32:bf:07:6a:6e:db:
                    41:67:c2:39:16:07:6a:5b:3a:88:93:d3:c8:69:54:
                    23:27:4e:ae:e7:36:9c:f4:d6:a8:d8:9a:eb:01:b6:
                    c6:2a:06:e2:46:4e:5d:c3:38:e9:65:91:45:95:5b:
                    3f:ad:dd:6b:71:b8:55:43:da:f9:06:36:a3:87:9a:
                    37:b1:9f
                Exponent: 65537 (0x10001)
        X509v3 extensions:
            X509v3 Basic Constraints: critical
                CA:TRUE
            X509v3 Key Usage: critical
                Certificate Sign, CRL Sign
            X509v3 Subject Key Identifier: 
                7B:C4:B8:32:F3:A5:C2:23:EA:B0:91:B6:DA:6B:F8:4F:71:0B:42:40
            X509v3 Authority Key Identifier: 
                keyid:7B:C4:B8:32:F3:A5:C2:23:EA:B0:91:B6:DA:6B:F8:4F:71:0B:42:40
                DirName:/CN=Information Security Certification Authority/O=ISCA/C=KZ
                serial:7B:C4:B8:32:F3:A5:C2:23:EA:B0:91:B6:DA:6B:F8:4F:71:0B:42:40
    Signature Algorithm: sha256WithRSAEncryption
    Signature Value:
        43:cc:db:37:de:fc:7f:ca:a7:96:8a:ea:6a:36:37:d3:b3:2f:
        68:4d:da:0b:34:58:aa:57:09:08:ff:0b:16:3d:a5:a5:fb:ef:
        66:3d:f5:e7:46:0f:c3:5e:d8:d8:dd:2a:9e:35:d3:0e:65:56:
        a1:8d:d6:c2:89:18:18:86:59:e7:8f:3b:46:64:dc:f5:22:c0:
        f7:bb:84:78:c9:cf:25:47:74:bc:6e:f0:7d:73:c5:7a:b6:fa:
        ed:2e:07:07:80:6c:ea:97:27:5b:23:df:2a:f9:36:80:ca:30:
        63:ac:e3:7b:e0:bc:21:cb:57:1e:1b:fc:a3:e9:0d:f5:9c:7b:
        79:4f:3a:e2:52:1a:92:34:44:1a:28:1c:23:ac:07:03:98:31:
        0b:87:f7:f8:98:59:ef:54:5c:1a:18:01:09:a5:33:90:fe:50:
        e7:a1:d1:8c:37:2c:bf:48:d5:73:61:65:d1:b8:01:2e:0f:ad:
        77:59:19:90:f3:47:08:3a:68:e5:28:ea:1e:b0:9e:db:95:cb:
        37:00:41:d5:4f:a3:16:94:21:4c:63:7f:81:6e:f3:72:fe:49:
        0a:12:8d:14:b4:37:32:1a:0c:1e:98:28:ba:ad:f5:56:e1:72:
        d7:75:50:28:00:26:38:68:f3:b6:f5:5c:36:31:e6:1f:69:f4:
        bd:08:03:ae:56:8d:c7:e3:ea:76:c9:ec:8b:40:91:1d:0b:6f:
        fe:04:2e:ee:c9:31:d7:98:a8:6d:a6:ba:ae:38:80:f7:90:08:
        b9:2b:df:09:e4:7a:1f:74:fc:5d:81:11:5e:2d:ab:0a:23:d0:
        dc:31:c4:b1:46:b2:89:4f:6e:c8:90:98:63:e7:43:ac:07:a0:
        46:0d:05:27:d8:06:a9:83:48:a2:55:5f:4f:86:ac:40:52:ee:
        cb:ef:4d:4e:59:1a:d1:5f:ed:96:b3:18:5a:60:d1:0c:c9:27:
        d9:6f:d5:b0:0e:9d:b6:73:35:d2:01:11:46:ae:f2:8d:d9:1b:
        bd:dd:b8:dc:9c:ae:d1:28:7d:df:cf:6a:82:d5:ba:2b:d9:c3:
        6d:d0:95:28:e8:ea:de:95:6e:cd:cb:2f:b5:12:c8:0b:8a:cd:
        82:d4:42:29:67:dd:62:11:a8:38:cc:24:ae:15:c3:ac:41:8f:
        38:d6:45:65:00:0b:1e:d7:37:f0:6a:01:57:5a:36:8f:7a:b8:
        76:f4:3c:8b:88:1a:a8:ed:e4:71:10:95:25:d3:50:13:2c:84:
        c7:a2:23:93:b7:83:a5:01:d6:98:10:aa:d5:e2:a7:d2:67:40:
        a4:2e:aa:bd:5e:37:df:f8:bd:7b:cb:ac:56:c8:1a:b2:05:75:
        62:5d:18:00:4b:c6:d9:42
-----BEGIN CERTIFICATE-----
MIIGCzCCA/OgAwIBAgIUe8S4MvOlwiPqsJG22mv4T3ELQkAwDQYJKoZIhvcNAQEL
BQAwUzE1MDMGA1UEAxMsSW5mb3JtYXRpb24gU2VjdXJpdHkgQ2VydGlmaWNhdGlv
biBBdXRob3JpdHkxDTALBgNVBAoTBElTQ0ExCzAJBgNVBAYTAktaMB4XDTIwMDIy
ODA2NDMzOFoXDTQwMDIyODA2NDMzOFowUzE1MDMGA1UEAxMsSW5mb3JtYXRpb24g
U2VjdXJpdHkgQ2VydGlmaWNhdGlvbiBBdXRob3JpdHkxDTALBgNVBAoTBElTQ0Ex
CzAJBgNVBAYTAktaMIICIjANBgkqhkiG9w0BAQEFAAOCAg8AMIICCgKCAgEAuk3c
6ihIdvnAiirmvpWsv83rtXBvJNXvzBa7ZbEBjedU/2JysXoKNPYmKYRAB2TKMHVm
8LfiLK7Sj04crQV+0oc5iWQBiwv6G5RFJDdYapAp0uQBnmmZED5nnXc51/fuvDZg
HAqFWgTuUTaCCwDJbtdx7xL4TYeIfjErKpzACVmuxqxjxZauNJrzut5DV4oWBaxp
ta9sflq6gbZu5LXtbP4FiYpi+lHeX1SwJpVscAZEqGVlShaBFJdC/HHBDbngo7E6
oEPeYu8laPaxhoXlaYo+w/DFjA+KPF3gKgkp5UhaneHVyAOgmrf2VByxjhe86ZD5
HbVM2ar8srMMfNlwQmPYzy4yf/yKPJeUbsWNMda5pgtNeAxss4HuOU/o5ejWoD4F
KyMhUjeZyDTvWZ3TmQ0YqJGd2frbjeqTiU+QnAjJi0mq3V7v5Kr6uMfFOLyZ6E+D
EJIVgGNMLvIP4v5ygjGJTGjhesF2EeNI3EG4qQEUj6bxGRSQOv1W2Dfum/Gck2AR
PFUL0msz9+20Oh4x0/jpCxvPgHyJK4gvbIxs7z+s4ZMuLVVCHb6gjLEMY9N4rCGm
T1gsupD9lYYyvwdqbttBZ8I5FgdqWzqIk9PIaVQjJ06u5zac9Nao2JrrAbbGKgbi
Rk5dwzjpZZFFlVs/rd1rcbhVQ9r5Bjajh5o3sZ8CAwEAAaOB1jCB0zAPBgNVHRMB
Af8EBTADAQH/MA4GA1UdDwEB/wQEAwIBBjAdBgNVHQ4EFgQUe8S4MvOlwiPqsJG2
2mv4T3ELQkAwgZAGA1UdIwSBiDCBhYAUe8S4MvOlwiPqsJG22mv4T3ELQkChV6RV
MFMxNTAzBgNVBAMTLEluZm9ybWF0aW9uIFNlY3VyaXR5IENlcnRpZmljYXRpb24g
QXV0aG9yaXR5MQ0wCwYDVQQKEwRJU0NBMQswCQYDVQQGEwJLWoIUe8S4MvOlwiPq
sJG22mv4T3ELQkAwDQYJKoZIhvcNAQELBQADggIBAEPM2zfe/H/Kp5aK6mo2N9Oz
L2hN2gs0WKpXCQj/CxY9paX772Y99edGD8Ne2NjdKp410w5lVqGN1sKJGBiGWeeP
O0Zk3PUiwPe7hHjJzyVHdLxu8H1zxXq2+u0uBweAbOqXJ1sj3yr5NoDKMGOs43vg
vCHLVx4b/KPpDfWce3lPOuJSGpI0RBooHCOsBwOYMQuH9/iYWe9UXBoYAQmlM5D+
UOeh0Yw3LL9I1XNhZdG4AS4PrXdZGZDzRwg6aOUo6h6wntuVyzcAQdVPoxaUIUxj
f4Fu83L+SQoSjRS0NzIaDB6YKLqt9Vbhctd1UCgAJjho87b1XDYx5h9p9L0IA65W
jcfj6nbJ7ItAkR0Lb/4ELu7JMdeYqG2muq44gPeQCLkr3wnkeh90/F2BEV4tqwoj
0NwxxLFGsolPbsiQmGPnQ6wHoEYNBSfYBqmDSKJVX0+GrEBS7svvTU5ZGtFf7Zaz
GFpg0QzJJ9lv1bAOnbZzNdIBEUau8o3ZG73duNycrtEofd/PaoLVuivZw23QlSjo
6t6Vbs3LL7USyAuKzYLUQiln3WIRqDjMJK4Vw6xBjzjWRWUACx7XN/BqAVdaNo96
uHb0PIuIGqjt5HEQlSXTUBMshMeiI5O3g6UB1pgQqtXip9JnQKQuqr1eN9/4vXvL
rFbIGrIFdWJdGABLxtlC
-----END CERTIFICATE-----
