Certificate:
    Data:
        Version: 3 (0x2)
        Serial Number: 1228079246 (0x4933008e)
    Signature Algorithm: sha256WithRSAEncryption
        Issuer: C = CN, O = CNNIC, CN = CNNIC ROOT
        Validity
            Not Before: Mar 19 06:20:09 2015 GMT
            Not After : Apr  3 06:20:09 2015 GMT
        Subject: C = EG, O = MCSHOLDING, CN = MCSHOLDING TEST
        Subject Public Key Info:
            Public Key Algorithm: rsaEncryption
                Public-Key: (2048 bit)
                Modulus:
                    00:a5:f9:75:0c:06:ae:ee:0c:11:cd:96:33:4d:6b:
                    ce:c0:4a:0c:3d:5d:eb:d2:4b:09:7f:e7:47:2c:ac:
                    71:00:f9:08:af:34:f1:a3:6a:c7:fc:e6:ab:ce:d0:
                    be:ca:cd:2a:98:98:b9:d0:8e:33:49:07:61:20:d1:
                    5a:34:ce:83:14:06:79:8e:1a:bf:db:e4:a0:38:3a:
                    ee:94:b9:a3:a0:58:3a:89:14:ac:60:3e:03:d4:c7:
                    cd:3b:1c:b0:9a:88:1a:49:10:a9:b0:b2:fd:e5:e8:
                    e1:04:e2:ea:82:6d:fe:0c:51:45:91:ad:75:22:ae:
                    ff:4f:90:0b:c0:53:65:77:3e:1e:c2:56:b5:36:c6:
                    d6:85:cc:0e:83:1a:33:1f:76:99:5b:2b:97:2b:8b:
                    d7:d1:14:15:4c:9d:59:d7:80:2f:a4:a2:85:d5:88:
                    36:02:60:55:ca:58:df:93:fc:4a:62:07:96:d3:c4:
                    fa:bf:8d:01:27:97:2f:a6:5c:74:f1:3a:42:6e:5d:
                    79:14:30:31:1a:3c:d9:b2:57:4d:e0:b8:3f:0f:69:
                    31:a2:9d:65:99:d9:d6:31:87:b5:98:26:df:f0:cb:
                    bb:15:c0:24:13:62:52:1a:6b:cb:45:07:97:e3:c4:
                    94:5e:c9:0d:47:2c:e9:cf:e9:f4:8f:fe:35:e1:32:
                    e7:31
                Exponent: 65537 (0x10001)
        X509v3 extensions:
            Authority Information Access: 
                OCSP - URI:http://ocspcnnicroot.cnnic.cn
                CA Issuers - URI:http://www.cnnic.cn/download/cert/CNNICROOT.cer

            X509v3 Authority Key Identifier: 
                keyid:65:F2:31:AD:2A:F7:F7:DD:52:96:0A:C7:02:C1:0E:EF:A6:D5:3B:11

            X509v3 Basic Constraints: critical
                CA:TRUE
            X509v3 Certificate Policies: 
                Policy: 1.3.6.1.4.1.29836.1.6
                  CPS: http://www.cnnic.cn/cps/

            X509v3 CRL Distribution Points: 

                Full Name:
                  DirName:C = CN, O = CNNIC, OU = crl, CN = crl1

                Full Name:
                  URI:http://crl.cnnic.cn/download/rootsha2crl/CRL1.crl

            X509v3 Key Usage: 
                Certificate Sign, CRL Sign
            X509v3 Subject Key Identifier: 
                44:A4:89:AB:14:5F:3D:6F:20:3C:AA:7C:FA:19:AE:F4:48:60:05:B5
    Signature Algorithm: sha256WithRSAEncryption
         5c:b4:f5:53:9b:4f:b9:e0:84:89:31:be:9e:2e:ea:9e:21:4b:
         a5:8f:6d:a1:a6:f3:2f:48:eb:e9:db:ad:1e:31:80:d0:79:3b:
         10:ef:9a:24:f7:93:1b:35:f3:1a:c2:c7:c2:2c:0a:7f:6f:5b:
         f1:5f:73:91:04:fb:0d:79:0d:e9:1a:06:d6:83:fd:4e:60:9d:
         6c:92:43:4c:ea:64:98:44:ab:d7:fb:47:d0:af:1f:64:4c:e2:
         dd:77:68:16:c2:2c:a1:a0:81:97:00:42:1f:7e:20:78:e8:c6:
         50:1d:0b:7f:15:93:59:58:40:14:84:f0:a7:90:6b:36:05:67:
         ea:7f:22:6d:bb:d1:a5:26:4d:b3:30:a4:58:d4:5b:b5:1a:8c:
         50:8c:b8:0d:e1:a0:07:b3:0f:58:ce:d7:05:b5:7d:35:79:6f:
         a2:db:0c:00:2a:68:24:8c:7e:9c:c1:76:49:ba:7c:66:11:de:
         f2:47:ce:fe:d0:ce:55:be:08:da:f2:79:26:2a:15:39:ce:6b:
         18:a6:df:d8:87:28:99:94:0e:2d:68:a1:9a:ce:52:36:9c:2b:
         ec:b4:68:b3:6c:15:ac:cb:70:42:f2:c4:41:a5:c8:fc:21:78:
         53:77:32:20:a9:21:4c:72:e2:d3:b2:c9:76:1b:18:58:42:0b:
         42:92:b3:e4
-----BEGIN CERTIFICATE-----
MIIEkjCCA3qgAwIBAgIESTMAjjANBgkqhkiG9w0BAQsFADAyMQswCQYDVQQGEwJD
TjEOMAwGA1UEChMFQ05OSUMxEzARBgNVBAMTCkNOTklDIFJPT1QwHhcNMTUwMzE5
MDYyMDA5WhcNMTUwNDAzMDYyMDA5WjA8MQswCQYDVQQGEwJFRzETMBEGA1UECgwK
TUNTSE9MRElORzEYMBYGA1UEAwwPTUNTSE9MRElORyBURVNUMIIBIjANBgkqhkiG
9w0BAQEFAAOCAQ8AMIIBCgKCAQEApfl1DAau7gwRzZYzTWvOwEoMPV3r0ksJf+dH
LKxxAPkIrzTxo2rH/OarztC+ys0qmJi50I4zSQdhINFaNM6DFAZ5jhq/2+SgODru
lLmjoFg6iRSsYD4D1MfNOxywmogaSRCpsLL95ejhBOLqgm3+DFFFka11Iq7/T5AL
wFNldz4ewla1NsbWhcwOgxozH3aZWyuXK4vX0RQVTJ1Z14AvpKKF1Yg2AmBVyljf
k/xKYgeW08T6v40BJ5cvplx08TpCbl15FDAxGjzZsldN4Lg/D2kxop1lmdnWMYe1
mCbf8Mu7FcAkE2JSGmvLRQeX48SUXskNRyzpz+n0j/414TLnMQIDAQABo4IBpDCC
AaAwdgYIKwYBBQUHAQEEajBoMCkGCCsGAQUFBzABhh1odHRwOi8vb2NzcGNubmlj
cm9vdC5jbm5pYy5jbjA7BggrBgEFBQcwAoYvaHR0cDovL3d3dy5jbm5pYy5jbi9k
b3dubG9hZC9jZXJ0L0NOTklDUk9PVC5jZXIwHwYDVR0jBBgwFoAUZfIxrSr3991S
lgrHAsEO76bVOxEwDwYDVR0TAQH/BAUwAwEB/zA/BgNVHSAEODA2MDQGCisGAQQB
gekMAQYwJjAkBggrBgEFBQcCARYYaHR0cDovL3d3dy5jbm5pYy5jbi9jcHMvMIGG
BgNVHR8EfzB9MEKgQKA+pDwwOjELMAkGA1UEBhMCQ04xDjAMBgNVBAoMBUNOTklD
MQwwCgYDVQQLDANjcmwxDTALBgNVBAMMBGNybDEwN6A1oDOGMWh0dHA6Ly9jcmwu
Y25uaWMuY24vZG93bmxvYWQvcm9vdHNoYTJjcmwvQ1JMMS5jcmwwCwYDVR0PBAQD
AgEGMB0GA1UdDgQWBBREpImrFF89byA8qnz6Ga70SGAFtTANBgkqhkiG9w0BAQsF
AAOCAQEAXLT1U5tPueCEiTG+ni7qniFLpY9toabzL0jr6dutHjGA0Hk7EO+aJPeT
GzXzGsLHwiwKf29b8V9zkQT7DXkN6RoG1oP9TmCdbJJDTOpkmESr1/tH0K8fZEzi
3XdoFsIsoaCBlwBCH34geOjGUB0LfxWTWVhAFITwp5BrNgVn6n8ibbvRpSZNszCk
WNRbtRqMUIy4DeGgB7MPWM7XBbV9NXlvotsMACpoJIx+nMF2Sbp8ZhHe8kfO/tDO
Vb4I2vJ5JioVOc5rGKbf2IcomZQOLWihms5SNpwr7LRos2wVrMtwQvLEQaXI/CF4
U3cyIKkhTHLi07LJdhsYWEILQpKz5A==
-----END CERTIFICATE-----
