Certificate:
    Data:
        Version: 3 (0x2)
        Serial Number:
            05:74:ba:21:44:74:c2:52:62:ea:40:86:18:12:55:4e:42:f1
        Signature Algorithm: sha256WithRSAEncryption
        Issuer: C=US, O=Let's Encrypt, CN=R13
        Validity
            Not Before: May 17 20:12:13 2026 GMT
            Not After : Aug 15 20:12:12 2026 GMT
        Subject: CN=google.ug
        Subject Public Key Info:
            Public Key Algorithm: rsaEncryption
                Public-Key: (2048 bit)
                Modulus:
                    00:cb:04:d6:cf:76:e7:fa:61:67:75:20:8d:1e:81:
                    19:bf:64:07:70:ea:bb:e0:c0:90:6d:70:e6:84:27:
                    8c:c3:5a:d8:58:62:cf:8d:97:ce:52:5d:99:d2:2a:
                    81:cd:a0:e6:aa:7a:d9:89:28:66:b1:b1:9b:ca:3c:
                    ef:20:ca:5f:80:04:b4:c3:96:0e:b3:e7:09:8f:9f:
                    90:cb:0e:2d:f0:eb:f5:38:e0:08:87:94:52:bb:8a:
                    d7:44:3d:bc:38:2a:4a:23:e3:8f:4c:25:ef:04:db:
                    30:a9:d3:46:0d:ec:f4:00:da:69:05:ff:91:4c:de:
                    c4:3a:09:9b:d2:f8:a1:11:5a:81:6a:1d:99:ca:42:
                    be:c2:f0:ff:0c:2e:64:42:a6:29:85:4d:55:78:50:
                    a7:6b:cf:ea:df:71:f2:6d:24:53:1f:61:71:c4:42:
                    19:e8:45:e6:e1:c5:78:cc:29:2b:1e:ac:f9:71:0c:
                    91:70:1d:dd:a9:a5:4a:3d:0e:79:f5:56:6e:ab:f3:
                    ac:0d:df:e7:bd:cb:05:c1:f6:c9:b1:72:f3:cf:f2:
                    5a:86:80:64:05:15:38:ff:6e:0f:5d:4a:11:64:df:
                    fc:33:44:b7:75:12:05:d3:d7:9d:8d:ce:47:1d:c1:
                    9f:64:b3:fd:8b:45:39:9a:94:63:ac:c6:7d:5d:e1:
                    88:6d
                Exponent: 65537 (0x10001)
        X509v3 extensions:
            X509v3 Key Usage: critical
                Digital Signature, Key Encipherment
            X509v3 Extended Key Usage: 
                TLS Web Server Authentication
            X509v3 Basic Constraints: critical
                CA:FALSE
            X509v3 Subject Key Identifier: 
                EC:1A:7F:67:31:54:06:32:3A:CB:DE:C1:9E:7A:81:1D:4E:74:6C:3A
            X509v3 Authority Key Identifier: 
                E7:AB:9F:0F:2C:33:A0:53:D3:5E:4F:78:C8:B2:84:0E:3B:D6:92:33
            Authority Information Access: 
                CA Issuers - URI:http://r13.i.lencr.org/
            X509v3 Subject Alternative Name: 
                DNS:*.google.ug, DNS:google.ug
            X509v3 Certificate Policies: 
                Policy: 2.23.140.1.2.1
            X509v3 CRL Distribution Points: 
                Full Name:
                  URI:http://r13.c.lencr.org/114.crl

            CT Precertificate SCTs: 
                Signed Certificate Timestamp:
                    Version   : v1 (0x0)
                    Log ID    : A8:26:CB:E3:0A:C6:35:12:46:53:3F:E0:65:F1:4F:19:
                                D9:6E:19:08:13:C4:1D:D9:6D:79:00:B3:12:3C:55:27
                    Timestamp : May 17 21:10:43.981 2026 GMT
                    Extensions: 00:00:05:00:0B:56:1C:05
                    Signature : ecdsa-with-SHA256
                                30:46:02:21:00:F7:C5:C6:12:61:29:86:8B:F5:29:06:
                                A8:64:8C:CC:46:03:A3:8E:91:D1:E5:92:52:64:0B:94:
                                A5:1C:9D:47:FE:02:21:00:AB:D1:6E:EB:78:73:61:75:
                                A8:F1:48:2C:D7:60:82:9A:CA:B4:C5:49:E5:B2:7E:4A:
                                98:AF:60:5C:6F:6D:44:C2
                Signed Certificate Timestamp:
                    Version   : v1 (0x0)
                    Log ID    : CB:38:F7:15:89:7C:84:A1:44:5F:5B:C1:DD:FB:C9:6E:
                                F2:9A:59:CD:47:0A:69:05:85:B0:CB:14:C3:14:58:E7
                    Timestamp : May 17 21:10:45.100 2026 GMT
                    Extensions: none
                    Signature : ecdsa-with-SHA256
                                30:45:02:21:00:A5:83:E7:B5:3D:B7:E5:D7:E4:46:B6:
                                DB:71:94:1D:A1:E7:ED:43:C3:3B:6F:AB:2B:6A:79:48:
                                0F:EC:69:54:2A:02:20:0D:20:36:B6:28:59:B5:04:74:
                                3E:E9:AB:F5:28:26:A6:FF:9C:70:86:80:3F:4C:E2:32:
                                30:9E:8A:3E:27:91:F4
    Signature Algorithm: sha256WithRSAEncryption
    Signature Value:
        57:05:a1:e0:7d:45:1b:3a:95:51:c6:7b:e6:5f:b7:67:94:66:
        80:ee:87:8a:be:79:36:21:17:2b:c9:ec:3d:b1:99:89:ab:27:
        23:2d:6c:d2:5f:e8:26:54:81:5d:95:17:0c:61:40:91:ae:c7:
        a2:98:b7:6b:4c:49:68:da:28:d1:34:29:a6:c5:9b:e1:8f:91:
        f0:84:7a:69:b4:c4:5d:35:21:29:21:36:8e:92:a3:0c:75:08:
        bf:2b:cf:81:69:93:9b:9f:d8:5b:62:d1:a6:53:ff:e2:d0:b0:
        9b:c7:01:1e:40:a1:d7:3d:81:60:c5:65:69:fe:39:0c:ae:ec:
        c0:77:85:fe:00:c4:6e:06:45:d4:8a:56:21:90:1e:d4:2e:8f:
        dd:55:21:fb:e7:93:ea:78:3f:cb:01:a6:37:f5:71:ab:07:8e:
        ec:59:41:58:52:15:96:f2:cf:e7:cb:e4:18:e2:af:b1:8d:04:
        94:a5:4f:bc:fb:ad:65:e1:11:96:3e:5e:0a:05:b8:9b:b9:dd:
        f3:3e:87:af:b1:46:95:82:5e:95:bb:25:5a:10:9d:3a:06:f9:
        9d:31:18:7e:a3:f5:b4:4d:f2:c6:4b:56:af:12:34:12:de:84:
        02:7e:93:78:d1:6c:0d:2b:1f:fc:6b:24:e2:8e:ef:b5:45:97:
        1f:26:2c:a9
-----BEGIN CERTIFICATE-----
MIIE+zCCA+OgAwIBAgISBXS6IUR0wlJi6kCGGBJVTkLxMA0GCSqGSIb3DQEBCwUA
MDMxCzAJBgNVBAYTAlVTMRYwFAYDVQQKEw1MZXQncyBFbmNyeXB0MQwwCgYDVQQD
EwNSMTMwHhcNMjYwNTE3MjAxMjEzWhcNMjYwODE1MjAxMjEyWjAUMRIwEAYDVQQD
Ewlnb29nbGUudWcwggEiMA0GCSqGSIb3DQEBAQUAA4IBDwAwggEKAoIBAQDLBNbP
duf6YWd1II0egRm/ZAdw6rvgwJBtcOaEJ4zDWthYYs+Nl85SXZnSKoHNoOaqetmJ
KGaxsZvKPO8gyl+ABLTDlg6z5wmPn5DLDi3w6/U44AiHlFK7itdEPbw4Kkoj449M
Je8E2zCp00YN7PQA2mkF/5FM3sQ6CZvS+KERWoFqHZnKQr7C8P8MLmRCpimFTVV4
UKdrz+rfcfJtJFMfYXHEQhnoRebhxXjMKSserPlxDJFwHd2ppUo9Dnn1Vm6r86wN
3+e9ywXB9smxcvPP8lqGgGQFFTj/bg9dShFk3/wzRLd1EgXT152NzkcdwZ9ks/2L
RTmalGOsxn1d4YhtAgMBAAGjggImMIICIjAOBgNVHQ8BAf8EBAMCBaAwEwYDVR0l
BAwwCgYIKwYBBQUHAwEwDAYDVR0TAQH/BAIwADAdBgNVHQ4EFgQU7Bp/ZzFUBjI6
y97BnnqBHU50bDowHwYDVR0jBBgwFoAU56ufDywzoFPTXk94yLKEDjvWkjMwMwYI
KwYBBQUHAQEEJzAlMCMGCCsGAQUFBzAChhdodHRwOi8vcjEzLmkubGVuY3Iub3Jn
LzAhBgNVHREEGjAYggsqLmdvb2dsZS51Z4IJZ29vZ2xlLnVnMBMGA1UdIAQMMAow
CAYGZ4EMAQIBMC8GA1UdHwQoMCYwJKAioCCGHmh0dHA6Ly9yMTMuYy5sZW5jci5v
cmcvMTE0LmNybDCCAQ0GCisGAQQB1nkCBAIEgf4EgfsA+QB/AKgmy+MKxjUSRlM/
4GXxTxnZbhkIE8Qd2W15ALMSPFUnAAABnjfG7A0ACAAABQALVhwFBAMASDBGAiEA
98XGEmEphov1KQaoZIzMRgOjjpHR5ZJSZAuUpRydR/4CIQCr0W7reHNhdajxSCzX
YIKayrTFSeWyfkqYr2Bcb21EwgB2AMs49xWJfIShRF9bwd37yW7ymlnNRwppBYWw
yxTDFFjnAAABnjfG8GwAAAQDAEcwRQIhAKWD57U9t+XX5Ea223GUHaHn7UPDO2+r
K2p5SA/saVQqAiANIDa2KFm1BHQ+6av1KCam/5xwhoA/TOIyMJ6KPieR9DANBgkq
hkiG9w0BAQsFAAOCAQEAVwWh4H1FGzqVUcZ75l+3Z5RmgO6Hir55NiEXK8nsPbGZ
iasnIy1s0l/oJlSBXZUXDGFAka7Hopi3a0xJaNoo0TQppsWb4Y+R8IR6abTEXTUh
KSE2jpKjDHUIvyvPgWmTm5/YW2LRplP/4tCwm8cBHkCh1z2BYMVlaf45DK7swHeF
/gDEbgZF1IpWIZAe1C6P3VUh++eT6ng/ywGmN/VxqweO7FlBWFIVlvLP58vkGOKv
sY0ElKVPvPutZeERlj5eCgW4m7nd8z6Hr7FGlYJelbslWhCdOgb5nTEYfqP1tE3y
xktWrxI0Et6EAn6TeNFsDSsf/Gsk4o7vtUWXHyYsqQ==
-----END CERTIFICATE-----
