Certificate:
    Data:
        Version: 3 (0x2)
        Serial Number:
            0a:82:bd:1e:14:4e:88:14:d7:5b:1a:55:27:be:bf:3e
    Signature Algorithm: sha256WithRSAEncryption
        Issuer: C=NL, O=DigiNotar, CN=DigiNotar Root CA G2/emailAddress=info@diginotar.nl
        Validity
            Not Before: Jul  3 13:59:02 2009 GMT
            Not After : Jul  3 13:59:02 2029 GMT
        Subject: C=NL, O=DigiNotar, CN=DigiNotar Root CA G2/emailAddress=info@diginotar.nl
        Subject Public Key Info:
            Public Key Algorithm: rsaEncryption
                Public-Key: (4096 bit)
                Modulus:
                    00:bf:ae:10:01:fb:4c:3e:b6:ac:03:f5:98:cf:23:
                    92:28:a4:13:3d:1a:da:a0:4f:8b:65:e5:2e:e4:e0:
                    a6:8e:38:75:3b:e5:b3:58:15:dc:32:65:fe:7e:76:
                    18:05:d9:82:a9:b6:a1:f6:fd:c4:bb:6b:6c:7b:24:
                    b4:81:f5:2c:3d:87:a9:c0:43:d7:dc:38:2c:e0:4d:
                    12:84:17:bc:0d:4c:d3:71:4b:33:b8:42:04:31:71:
                    c7:24:1e:45:17:d0:fc:69:2a:5a:21:95:8d:04:87:
                    8c:c0:77:13:62:8d:bd:e4:c8:8f:8a:10:15:7d:75:
                    c5:a0:76:65:b0:8e:01:36:0e:88:09:7c:a0:a3:39:
                    25:ab:68:92:ad:e6:34:79:ef:94:17:d2:6b:2f:20:
                    30:05:a9:91:39:ac:0c:5c:01:c7:a5:72:b0:8f:0f:
                    18:8d:a2:39:da:dc:34:94:44:a5:90:40:45:b8:ee:
                    e7:e4:6b:f4:69:37:d8:d5:a2:80:2f:d5:f9:f6:4d:
                    26:eb:53:a0:a1:85:5f:d0:bd:ca:2d:1c:26:ae:70:
                    98:3d:1a:bc:71:63:23:99:43:89:ae:3c:3b:59:67:
                    53:36:36:42:0d:e1:65:10:08:9a:53:b9:e8:7e:e1:
                    b0:ba:23:da:9b:22:47:2d:b3:5b:7d:c4:7f:02:fa:
                    32:4e:16:fe:fa:8a:ab:59:1a:b6:62:3a:bd:c8:a0:
                    5b:af:e3:93:b9:5c:86:b4:8d:e7:20:0b:6e:04:04:
                    fd:d2:a5:a6:ee:fd:b4:29:19:21:ef:42:91:23:84:
                    4a:2b:fa:0e:4a:34:cd:b0:b0:95:7a:04:0d:a8:30:
                    5e:3d:20:7b:3f:6a:03:45:db:05:05:94:90:c7:d6:
                    4e:66:84:02:3b:80:cc:df:e2:87:6c:64:d2:70:5f:
                    4f:70:bb:6c:43:18:1a:e9:6c:e0:80:56:c5:c5:e6:
                    00:ad:df:4d:ed:51:8d:c6:ea:09:f1:09:0a:a2:da:
                    53:47:4f:9b:98:d3:e0:c9:be:d8:87:5c:a5:53:a3:
                    8d:ab:d3:bc:2e:0b:7a:bf:46:11:63:a4:58:15:aa:
                    1c:6e:fe:49:06:53:02:4a:f3:d3:f2:41:cd:57:5f:
                    95:25:b8:e1:87:f3:60:97:7f:ec:21:89:ca:d3:76:
                    6c:dd:51:91:46:33:40:d8:48:94:2d:ea:05:72:bb:
                    b4:1c:a1:54:b7:c7:e6:e9:4a:7e:2b:b2:d7:21:19:
                    5f:00:e4:9a:5c:8d:a1:38:af:39:2a:ec:60:35:48:
                    58:2f:79:a2:ca:4c:2a:e4:7e:a8:11:88:51:ed:bf:
                    0f:3b:6e:05:b1:80:47:39:e4:67:e2:87:61:c4:8e:
                    ac:87:c9
                Exponent: 65537 (0x10001)
        X509v3 extensions:
            X509v3 Basic Constraints: critical
                CA:TRUE
            X509v3 Key Usage: critical
                Certificate Sign, CRL Sign
            X509v3 Subject Key Identifier: 
                29:0D:DB:3F:07:52:E5:0B:D4:21:68:2E:24:4A:DE:5B:5A:96:F2:21
    Signature Algorithm: sha256WithRSAEncryption
         22:ef:ee:c0:53:e3:a4:65:e3:cf:20:ae:13:e2:a2:de:d7:37:
         2b:54:0f:0e:9b:8d:5f:98:e7:69:2a:1e:3b:a5:b5:59:bc:ac:
         7e:6a:e6:96:30:de:97:01:fd:74:f6:5f:25:00:f7:a3:63:8a:
         b4:b1:0d:c2:19:18:03:ce:e5:30:21:12:91:30:71:e2:91:8b:
         f3:dc:6b:c3:05:ad:cc:2d:62:98:36:27:5d:a3:e0:15:9b:82:
         3d:1a:68:75:95:dd:7a:68:2a:0f:22:69:36:33:b7:6b:a2:28:
         86:50:91:55:11:5a:12:00:8c:9d:51:dc:e0:b2:56:bd:50:45:
         74:ff:94:7b:d1:d7:f0:3b:e4:4d:e1:44:e9:df:6b:84:e2:22:
         4c:95:78:b4:94:cc:57:09:9e:21:87:ac:96:a1:13:1b:0b:c5:
         99:67:5c:1d:f1:15:b5:34:dc:bc:f8:1e:ec:ab:3f:94:27:b2:
         89:99:fc:d5:58:3e:a5:a4:06:d3:43:f9:1c:36:0d:8f:02:10:
         5c:f5:05:00:77:fa:a7:ec:99:56:ce:98:05:f8:72:a6:b9:05:
         1b:23:0e:0e:40:67:b5:79:4a:64:3b:81:b5:a1:8a:11:5b:9f:
         87:19:7c:f0:94:4e:33:a3:51:10:d5:bb:bd:51:8b:68:18:07:
         ae:1a:57:ff:44:1b:c7:df:5b:d3:b3:cd:f9:b0:6f:4d:c2:cb:
         82:e5:8b:6e:29:d0:59:81:9c:6c:4e:fd:7b:10:d7:76:10:9f:
         2c:45:81:fe:5d:70:ac:bc:80:cb:f2:21:c2:c3:62:22:db:18:
         4e:10:8f:45:b0:1b:9a:22:23:a4:d4:1c:f7:6a:a2:33:df:f9:
         cc:05:a8:55:e8:bd:97:85:a8:de:b3:65:dd:4e:04:12:78:9d:
         e9:ca:93:36:2a:01:4a:7c:cd:e0:10:c3:94:48:90:a1:9d:87:
         e8:75:d4:20:cf:87:11:35:ea:f0:c0:77:27:c2:52:f6:2d:6f:
         87:99:27:b5:f9:80:fe:ee:46:aa:ff:f6:3d:c5:bf:60:aa:34:
         61:35:2b:f3:02:01:8a:4a:9c:0a:22:61:fe:99:0b:05:59:f2:
         84:85:aa:ac:90:37:1f:f7:9f:14:e8:d3:7e:bd:04:46:3f:6d:
         f6:e0:dc:42:4e:81:fc:5d:e0:9a:56:71:98:62:4f:e3:5e:fc:
         79:f9:cb:cc:c5:b8:5c:05:31:c8:62:f6:a9:6f:ff:6b:e3:f0:
         76:d3:ea:be:e7:41:01:f7:0c:a7:44:53:29:e0:dd:ef:d9:6b:
         2c:58:c8:d7:98:e2:1d:e4:29:b3:8b:e5:6c:76:c9:63:83:6d:
         1a:79:6e:73:4c:e0:c0:cb
-----BEGIN CERTIFICATE-----
MIIFkDCCA3igAwIBAgIQCoK9HhROiBTXWxpVJ76/PjANBgkqhkiG9w0BAQsFADBi
MQswCQYDVQQGEwJOTDESMBAGA1UEChMJRGlnaU5vdGFyMR0wGwYDVQQDExREaWdp
Tm90YXIgUm9vdCBDQSBHMjEgMB4GCSqGSIb3DQEJARYRaW5mb0BkaWdpbm90YXIu
bmwwHhcNMDkwNzAzMTM1OTAyWhcNMjkwNzAzMTM1OTAyWjBiMQswCQYDVQQGEwJO
TDESMBAGA1UEChMJRGlnaU5vdGFyMR0wGwYDVQQDExREaWdpTm90YXIgUm9vdCBD
QSBHMjEgMB4GCSqGSIb3DQEJARYRaW5mb0BkaWdpbm90YXIubmwwggIiMA0GCSqG
SIb3DQEBAQUAA4ICDwAwggIKAoICAQC/rhAB+0w+tqwD9ZjPI5IopBM9GtqgT4tl
5S7k4KaOOHU75bNYFdwyZf5+dhgF2YKptqH2/cS7a2x7JLSB9Sw9h6nAQ9fcOCzg
TRKEF7wNTNNxSzO4QgQxccckHkUX0PxpKlohlY0Eh4zAdxNijb3kyI+KEBV9dcWg
dmWwjgE2DogJfKCjOSWraJKt5jR575QX0msvIDAFqZE5rAxcAcelcrCPDxiNojna
3DSURKWQQEW47ufka/RpN9jVooAv1fn2TSbrU6ChhV/QvcotHCaucJg9GrxxYyOZ
Q4muPDtZZ1M2NkIN4WUQCJpTueh+4bC6I9qbIkcts1t9xH8C+jJOFv76iqtZGrZi
Or3IoFuv45O5XIa0jecgC24EBP3Spabu/bQpGSHvQpEjhEor+g5KNM2wsJV6BA2o
MF49IHs/agNF2wUFlJDH1k5mhAI7gMzf4odsZNJwX09wu2xDGBrpbOCAVsXF5gCt
303tUY3G6gnxCQqi2lNHT5uY0+DJvtiHXKVTo42r07wuC3q/RhFjpFgVqhxu/kkG
UwJK89PyQc1XX5UluOGH82CXf+whicrTdmzdUZFGM0DYSJQt6gVyu7QcoVS3x+bp
Sn4rstchGV8A5JpcjaE4rzkq7GA1SFgveaLKTCrkfqgRiFHtvw87bgWxgEc55Gfi
h2HEjqyHyQIDAQABo0IwQDAPBgNVHRMBAf8EBTADAQH/MA4GA1UdDwEB/wQEAwIB
BjAdBgNVHQ4EFgQUKQ3bPwdS5QvUIWguJEreW1qW8iEwDQYJKoZIhvcNAQELBQAD
ggIBACLv7sBT46Rl488grhPiot7XNytUDw6bjV+Y52kqHjultVm8rH5q5pYw3pcB
/XT2XyUA96NjirSxDcIZGAPO5TAhEpEwceKRi/Pca8MFrcwtYpg2J12j4BWbgj0a
aHWV3XpoKg8iaTYzt2uiKIZQkVURWhIAjJ1R3OCyVr1QRXT/lHvR1/A75E3hROnf
a4TiIkyVeLSUzFcJniGHrJahExsLxZlnXB3xFbU03Lz4HuyrP5QnsomZ/NVYPqWk
BtND+Rw2DY8CEFz1BQB3+qfsmVbOmAX4cqa5BRsjDg5AZ7V5SmQ7gbWhihFbn4cZ
fPCUTjOjURDVu71Ri2gYB64aV/9EG8ffW9Ozzfmwb03Cy4Lli24p0FmBnGxO/XsQ
13YQnyxFgf5dcKy8gMvyIcLDYiLbGE4Qj0WwG5oiI6TUHPdqojPf+cwFqFXovZeF
qN6zZd1OBBJ4nenKkzYqAUp8zeAQw5RIkKGdh+h11CDPhxE16vDAdyfCUvYtb4eZ
J7X5gP7uRqr/9j3Fv2CqNGE1K/MCAYpKnAoiYf6ZCwVZ8oSFqqyQNx/3nxTo0369
BEY/bfbg3EJOgfxd4JpWcZhiT+Ne/Hn5y8zFuFwFMchi9qlv/2vj8HbT6r7nQQH3
DKdEUyng3e/ZayxYyNeY4h3kKbOL5Wx2yWODbRp5bnNM4MDL
-----END CERTIFICATE-----
