Certificate:
    Data:
        Version: 3 (0x2)
        Serial Number:
            0d:2e:67:a2:98:85:3b:9a:54:52:e3:a2:85:a4:57:2f
        Signature Algorithm: sha256WithRSAEncryption
        Issuer: C = US, O = DigiCert Inc, CN = RapidSSL TLS DV RSA Mixed SHA256 2020 CA-1
        Validity
            Not Before: Oct 27 00:00:00 2021 GMT
            Not After : Oct 27 23:59:59 2022 GMT
        Subject: CN = revoked.badssl.com
        Subject Public Key Info:
            Public Key Algorithm: rsaEncryption
                RSA Public-Key: (2048 bit)
                Modulus:
                    00:b0:76:2d:55:66:dc:72:8a:a0:9e:85:92:38:7f:
                    5b:e1:93:8d:ad:06:c8:ad:e9:89:b4:ef:1e:77:5b:
                    33:45:16:60:7d:33:38:68:04:d7:c9:83:42:83:d9:
                    30:4b:54:49:14:ca:ed:be:0c:76:ba:5f:a6:5c:33:
                    78:3f:39:f2:49:a8:88:32:ee:53:21:14:d3:aa:5c:
                    58:3c:39:cc:f7:80:b1:27:1f:54:79:7b:6c:8b:ff:
                    41:aa:39:24:95:5f:71:bc:49:bf:39:3b:a5:d5:e1:
                    a5:de:1d:40:81:25:dc:8a:47:82:fe:cd:7c:4b:2c:
                    04:bb:d3:27:56:51:a0:61:f2:d2:cb:55:08:25:2a:
                    85:db:2c:06:8d:0d:61:c2:5b:3e:9b:46:dc:58:ff:
                    13:27:be:0a:44:1e:68:fe:e1:f6:b7:de:9f:8e:6c:
                    c4:b5:19:fa:d7:d3:4f:55:a8:61:79:db:61:2f:6a:
                    9c:2c:f1:c4:81:bb:9e:d2:02:05:ba:9c:14:a0:f9:
                    f3:54:79:7d:69:d9:ba:66:1c:87:95:41:50:0e:f9:
                    5e:e1:b7:bd:f5:31:24:c5:21:21:03:8a:cf:6d:78:
                    58:de:d9:30:7d:03:42:52:d6:b0:1b:b9:c9:54:1b:
                    5a:e8:c8:53:f0:ac:2b:82:10:27:a6:a9:70:25:ae:
                    f8:a7
                Exponent: 65537 (0x10001)
        X509v3 extensions:
            X509v3 Authority Key Identifier:
                keyid:A4:8D:E5:BE:7C:79:E4:70:23:6D:2E:29:34:AD:23:58:DC:F5:31:7F

            X509v3 Subject Key Identifier:
                B0:C8:CE:20:B2:78:CC:1D:23:EF:F0:FE:D6:0E:29:4B:AC:15:72:3C
            X509v3 Subject Alternative Name:
                DNS:revoked.badssl.com
            X509v3 Key Usage: critical
                Digital Signature, Key Encipherment
            X509v3 Extended Key Usage:
                TLS Web Server Authentication, TLS Web Client Authentication
            X509v3 CRL Distribution Points:

                Full Name:
                  URI:http://crl3.digicert.com/RapidSSLTLSDVRSAMixedSHA2562020CA-1.crl

                Full Name:
                  URI:http://crl4.digicert.com/RapidSSLTLSDVRSAMixedSHA2562020CA-1.crl

            X509v3 Certificate Policies:
                Policy: 2.23.140.1.2.1
                  CPS: http://www.digicert.com/CPS

            Authority Information Access:
                OCSP - URI:http://ocsp.digicert.com
                CA Issuers - URI:http://cacerts.digicert.com/RapidSSLTLSDVRSAMixedSHA2562020CA-1.crt

            X509v3 Basic Constraints:
                CA:FALSE
            CT Precertificate SCTs:
                Signed Certificate Timestamp:
                    Version   : v1 (0x0)
                    Log ID    : 29:79:BE:F0:9E:39:39:21:F0:56:73:9F:63:A5:77:E5:
                                BE:57:7D:9C:60:0A:F8:F9:4D:5D:26:5C:25:5D:C7:84
                    Timestamp : Oct 27 21:25:40.791 2021 GMT
                    Extensions: none
                    Signature : ecdsa-with-SHA256
                                30:45:02:20:77:B0:79:18:F3:DE:34:70:FA:F2:1B:C2:
                                32:39:C8:C8:95:B0:C8:7A:8F:62:23:58:DD:AD:F9:1B:
                                BE:84:95:ED:02:21:00:DD:25:68:47:A3:84:5F:95:B1:
                                EA:E7:BC:0A:09:92:F9:5A:56:72:31:EC:07:D6:C6:97:
                                4D:4C:7B:90:75:64:AE
                Signed Certificate Timestamp:
                    Version   : v1 (0x0)
                    Log ID    : 51:A3:B0:F5:FD:01:79:9C:56:6D:B8:37:78:8F:0C:A4:
                                7A:CC:1B:27:CB:F7:9E:88:42:9A:0D:FE:D4:8B:05:E5
                    Timestamp : Oct 27 21:25:40.836 2021 GMT
                    Extensions: none
                    Signature : ecdsa-with-SHA256
                                30:45:02:20:4C:22:FF:65:39:6B:7E:7B:15:21:79:44:
                                C2:EB:B8:4C:2A:C9:A5:C7:AC:CE:5F:6A:5D:E8:B7:24:
                                C5:76:EC:19:02:21:00:94:5E:02:EE:14:60:80:96:BC:
                                0E:39:16:01:A8:37:9F:15:B9:B9:BA:0F:A2:0C:5A:17:
                                90:A5:E1:33:36:45:F2
                Signed Certificate Timestamp:
                    Version   : v1 (0x0)
                    Log ID    : 41:C8:CA:B1:DF:22:46:4A:10:C6:A1:3A:09:42:87:5E:
                                4E:31:8B:1B:03:EB:EB:4B:C7:68:F0:90:62:96:06:F6
                    Timestamp : Oct 27 21:25:40.703 2021 GMT
                    Extensions: none
                    Signature : ecdsa-with-SHA256
                                30:44:02:20:68:8A:5F:50:B7:76:DA:7E:34:32:A5:77:
                                02:A6:FA:A7:87:BB:DB:41:5C:80:40:2C:05:E5:09:DD:
                                3F:CC:6D:9F:02:20:7B:1D:64:48:61:19:75:B6:37:D1:
                                3C:1E:38:78:86:7A:F2:79:14:08:42:E8:DD:0F:FF:38:
                                3A:3C:36:D9:BF:D9
    Signature Algorithm: sha256WithRSAEncryption
         d5:8c:bd:be:e4:dc:94:a4:b7:f3:49:af:c4:99:26:da:27:68:
         da:e8:b8:c1:ba:c6:30:b6:16:aa:50:fe:f4:77:07:eb:99:f2:
         da:dd:77:1d:19:82:f7:24:2a:3b:a0:63:e0:db:09:be:10:7f:
         c5:1f:81:ba:af:9e:49:ce:32:30:49:17:8f:74:c6:d6:cd:6a:
         d8:3b:47:7b:f0:e0:0c:bb:c0:8e:3a:1d:a3:7f:92:ac:7e:8d:
         dc:a4:b5:30:2a:57:13:23:a7:ee:25:c6:37:ed:48:b2:4a:d0:
         01:fc:85:e5:c1:e2:e0:dc:8c:61:74:aa:af:68:28:26:45:94:
         a3:b1:4c:c9:5c:c7:92:a2:6c:4a:80:6f:dd:48:fa:4f:04:b2:
         4a:73:17:f2:f9:1e:8e:5c:e9:23:ec:53:ff:3e:c7:8a:b6:18:
         89:bc:77:45:67:4b:9a:73:75:6b:57:c8:c0:6a:cb:84:1d:f4:
         ed:ef:70:16:77:8e:f3:1a:8e:bb:95:f3:eb:f8:5a:e4:a9:b1:
         df:1d:36:ab:0a:dd:91:af:2d:71:3c:ab:97:18:03:dc:5c:1a:
         a9:b1:db:b6:48:40:c7:19:a7:81:14:0b:0d:ce:38:6f:da:cf:
         ce:0f:64:13:28:f3:4d:67:1b:2c:d1:16:54:19:6f:aa:08:54:
         a3:4d:67:64
-----BEGIN CERTIFICATE-----
MIIGhjCCBW6gAwIBAgIQDS5nopiFO5pUUuOihaRXLzANBgkqhkiG9w0BAQsFADBZ
MQswCQYDVQQGEwJVUzEVMBMGA1UEChMMRGlnaUNlcnQgSW5jMTMwMQYDVQQDEypS
YXBpZFNTTCBUTFMgRFYgUlNBIE1peGVkIFNIQTI1NiAyMDIwIENBLTEwHhcNMjEx
MDI3MDAwMDAwWhcNMjIxMDI3MjM1OTU5WjAdMRswGQYDVQQDExJyZXZva2VkLmJh
ZHNzbC5jb20wggEiMA0GCSqGSIb3DQEBAQUAA4IBDwAwggEKAoIBAQCwdi1VZtxy
iqCehZI4f1vhk42tBsit6Ym07x53WzNFFmB9MzhoBNfJg0KD2TBLVEkUyu2+DHa6
X6ZcM3g/OfJJqIgy7lMhFNOqXFg8Ocz3gLEnH1R5e2yL/0GqOSSVX3G8Sb85O6XV
4aXeHUCBJdyKR4L+zXxLLAS70ydWUaBh8tLLVQglKoXbLAaNDWHCWz6bRtxY/xMn
vgpEHmj+4fa33p+ObMS1GfrX009VqGF522Evapws8cSBu57SAgW6nBSg+fNUeX1p
2bpmHIeVQVAO+V7ht731MSTFISEDis9teFje2TB9A0JS1rAbuclUG1royFPwrCuC
ECemqXAlrvinAgMBAAGjggOEMIIDgDAfBgNVHSMEGDAWgBSkjeW+fHnkcCNtLik0
rSNY3PUxfzAdBgNVHQ4EFgQUsMjOILJ4zB0j7/D+1g4pS6wVcjwwHQYDVR0RBBYw
FIIScmV2b2tlZC5iYWRzc2wuY29tMA4GA1UdDwEB/wQEAwIFoDAdBgNVHSUEFjAU
BggrBgEFBQcDAQYIKwYBBQUHAwIwgZsGA1UdHwSBkzCBkDBGoESgQoZAaHR0cDov
L2NybDMuZGlnaWNlcnQuY29tL1JhcGlkU1NMVExTRFZSU0FNaXhlZFNIQTI1NjIw
MjBDQS0xLmNybDBGoESgQoZAaHR0cDovL2NybDQuZGlnaWNlcnQuY29tL1JhcGlk
U1NMVExTRFZSU0FNaXhlZFNIQTI1NjIwMjBDQS0xLmNybDA+BgNVHSAENzA1MDMG
BmeBDAECATApMCcGCCsGAQUFBwIBFhtodHRwOi8vd3d3LmRpZ2ljZXJ0LmNvbS9D
UFMwgYUGCCsGAQUFBwEBBHkwdzAkBggrBgEFBQcwAYYYaHR0cDovL29jc3AuZGln
aWNlcnQuY29tME8GCCsGAQUFBzAChkNodHRwOi8vY2FjZXJ0cy5kaWdpY2VydC5j
b20vUmFwaWRTU0xUTFNEVlJTQU1peGVkU0hBMjU2MjAyMENBLTEuY3J0MAkGA1Ud
EwQCMAAwggF9BgorBgEEAdZ5AgQCBIIBbQSCAWkBZwB2ACl5vvCeOTkh8FZzn2Ol
d+W+V32cYAr4+U1dJlwlXceEAAABfMOk9zcAAAQDAEcwRQIgd7B5GPPeNHD68hvC
MjnIyJWwyHqPYiNY3a35G76Ele0CIQDdJWhHo4RflbHq57wKCZL5WlZyMewH1saX
TUx7kHVkrgB2AFGjsPX9AXmcVm24N3iPDKR6zBsny/eeiEKaDf7UiwXlAAABfMOk
92QAAAQDAEcwRQIgTCL/ZTlrfnsVIXlEwuu4TCrJpceszl9qXei3JMV27BkCIQCU
XgLuFGCAlrwOORYBqDefFbm5ug+iDFoXkKXhMzZF8gB1AEHIyrHfIkZKEMahOglC
h15OMYsbA+vrS8do8JBilgb2AAABfMOk9t8AAAQDAEYwRAIgaIpfULd22n40MqV3
Aqb6p4e720FcgEAsBeUJ3T/MbZ8CIHsdZEhhGXW2N9E8Hjh4hnryeRQIQujdD/84
Ojw22b/ZMA0GCSqGSIb3DQEBCwUAA4IBAQDVjL2+5NyUpLfzSa/EmSbaJ2ja6LjB
usYwthaqUP70dwfrmfLa3XcdGYL3JCo7oGPg2wm+EH/FH4G6r55JzjIwSRePdMbW
zWrYO0d78OAMu8COOh2jf5Ksfo3cpLUwKlcTI6fuJcY37UiyStAB/IXlweLg3Ixh
dKqvaCgmRZSjsUzJXMeSomxKgG/dSPpPBLJKcxfy+R6OXOkj7FP/PseKthiJvHdF
Z0uac3VrV8jAasuEHfTt73AWd47zGo67lfPr+FrkqbHfHTarCt2Rry1xPKuXGAPc
XBqpsdu2SEDHGaeBFAsNzjhv2s/OD2QTKPNNZxss0RZUGW+qCFSjTWdk
-----END CERTIFICATE-----
