Certificate:
    Data:
        Version: 1 (0x0)
        Serial Number: 0 (0x0)
    Signature Algorithm: md5WithRSAEncryption
        Issuer: C=FR, ST=IDF, L=GUY, O=Aastra, OU=Aastra, CN=Aastra
        Validity
            Not Before: Sep 23 10:01:14 2008 GMT
            Not After : Sep 21 10:01:14 2018 GMT
        Subject: C=FR, ST=IDF, L=GUY, O=Aastra, OU=Aastra, CN=Aastra
        Subject Public Key Info:
            Public Key Algorithm: rsaEncryption
                Public-Key: (1024 bit)
                Modulus:
                    00:b9:54:78:1e:d7:97:97:08:f4:80:4b:30:84:f9:
                    ff:20:20:f8:4c:57:fd:9d:e7:01:68:2d:fe:11:33:
                    6f:db:6f:af:b6:5a:51:c6:5b:7c:e2:24:0f:f9:4d:
                    3c:35:bf:16:78:a5:45:57:c6:8d:d7:80:91:53:0f:
                    74:34:36:19:dc:a1:b6:2e:13:15:3a:04:65:7f:fd:
                    51:34:1d:62:8c:e8:28:10:25:57:e2:9e:c1:fe:7a:
                    82:f3:2d:ce:cc:cb:40:d5:c3:9d:fc:58:19:ba:86:
                    64:16:15:30:87:54:82:8b:4f:68:93:ca:80:4b:7c:
                    a2:3f:5a:70:e7:b7:4a:a6:27
                Exponent: 65537 (0x10001)
    Signature Algorithm: md5WithRSAEncryption
         20:66:bf:a8:40:01:8d:4f:4b:e8:07:67:7f:c3:0d:42:87:c8:
         a0:b8:60:7a:ac:40:3d:1a:9b:60:59:90:7f:7e:f3:e1:e6:2f:
         8a:2f:30:e5:46:e7:f1:51:82:d1:e6:d2:87:aa:87:d3:a8:c9:
         ec:04:f7:9a:bd:e7:b3:47:59:c2:17:0c:6a:aa:50:a7:f2:06:
         a6:e2:8d:99:0e:8b:aa:fb:69:d6:95:6a:ec:19:99:29:a1:82:
         02:f7:85:9a:5d:8f:c0:a3:94:56:6f:78:5e:15:59:9e:81:29:
         93:89:3d:0a:b3:07:cb:59:07:d3:b4:70:2b:d7:9c:ba:67:ca:
         10:a7
-----BEGIN CERTIFICATE-----
MIICJzCCAZACAQAwDQYJKoZIhvcNAQEEBQAwXDELMAkGA1UEBhMCRlIxDDAKBgNV
BAgTA0lERjEMMAoGA1UEBxMDR1VZMQ8wDQYDVQQKEwZBYXN0cmExDzANBgNVBAsT
BkFhc3RyYTEPMA0GA1UEAxMGQWFzdHJhMB4XDTA4MDkyMzEwMDExNFoXDTE4MDky
MTEwMDExNFowXDELMAkGA1UEBhMCRlIxDDAKBgNVBAgTA0lERjEMMAoGA1UEBxMD
R1VZMQ8wDQYDVQQKEwZBYXN0cmExDzANBgNVBAsTBkFhc3RyYTEPMA0GA1UEAxMG
QWFzdHJhMIGfMA0GCSqGSIb3DQEBAQUAA4GNADCBiQKBgQC5VHge15eXCPSASzCE
+f8gIPhMV/2d5wFoLf4RM2/bb6+2WlHGW3ziJA/5TTw1vxZ4pUVXxo3XgJFTD3Q0
NhncobYuExU6BGV//VE0HWKM6CgQJVfinsH+eoLzLc7My0DVw538WBm6hmQWFTCH
VIKLT2iTyoBLfKI/WnDnt0qmJwIDAQABMA0GCSqGSIb3DQEBBAUAA4GBACBmv6hA
AY1PS+gHZ3/DDUKHyKC4YHqsQD0am2BZkH9+8+HmL4ovMOVG5/FRgtHm0oeqh9Oo
yewE95q957NHWcIXDGqqUKfyBqbijZkOi6r7adaVauwZmSmhggL3hZpdj8CjlFZv
eF4VWZ6BKZOJPQqzB8tZB9O0cCvXnLpnyhCn
-----END CERTIFICATE-----
