Certificate:
    Data:
        Version: 3 (0x2)
        Serial Number:
            b0:b7:13:3e:d0:96:f9:b5:6f:ae:91:c8:74:bd:3a:c0
    Signature Algorithm: sha1WithRSAEncryption
        Issuer: C=US, ST=UT, L=Salt Lake City, O=The USERTRUST Network, OU=http://www.usertrust.com, CN=UTN-USERFirst-Hardware
        Validity
            Not Before: Mar 15 00:00:00 2011 GMT
            Not After : Mar 14 23:59:59 2014 GMT
        Subject: C=US/postalCode=38477, ST=Florida, L=English/street=Sea Village 10, O=Google Ltd., OU=Tech Dept., OU=Hosted by GTI Group Corporation, OU=PlatinumSSL, CN=login.live.com
        Subject Public Key Info:
            Public Key Algorithm: rsaEncryption
                Public-Key: (2048 bit)
                Modulus:
                    00:f3:fc:2b:2f:ef:e1:ad:59:f0:42:3c:c2:f1:82:
                    bf:2c:41:93:d1:f6:98:33:95:4c:bc:62:f1:95:58:
                    08:b6:e9:7b:77:48:b0:d3:dc:17:3f:bc:6e:e6:ec:
                    1e:ec:8d:17:fe:1c:24:c6:3e:67:3d:92:95:a2:30:
                    c0:a7:57:20:cf:70:88:97:4a:05:93:79:93:42:97:
                    2f:3e:ff:c4:14:14:28:a2:13:36:b4:f8:ee:be:1d:
                    bc:78:5d:61:93:5f:eb:88:d7:d1:e4:2b:9a:cd:58:
                    e2:07:45:9f:4f:b8:b9:40:6a:33:2c:5b:21:03:5a:
                    4a:94:f2:7a:97:59:1b:a8:b5:42:d8:83:00:aa:34:
                    cc:a7:76:d0:47:03:5f:05:af:3b:e1:b9:a1:34:25:
                    b7:6c:5f:9a:30:84:98:c2:c2:d7:f2:b8:42:4a:10:
                    55:bd:fa:53:81:5d:8d:68:66:45:2c:52:7e:e5:c4:
                    04:c3:54:e7:c3:39:da:7a:4a:c5:b9:98:82:20:e1:
                    2c:60:57:bf:ba:f2:46:00:bc:5f:3a:dc:e3:33:97:
                    f8:4a:98:b9:ec:33:4f:2d:60:6c:15:92:a6:81:4a:
                    0b:e9:ec:76:70:34:31:17:70:e6:70:4b:8e:8b:d3:
                    75:cb:78:49:ab:66:9b:86:9f:8f:a9:c4:01:e8:ca:
                    1b:e7
                Exponent: 65537 (0x10001)
        X509v3 extensions:
            X509v3 Authority Key Identifier: 
                keyid:A1:72:5F:26:1B:28:98:43:95:5D:07:37:D5:85:96:9D:4B:D2:C3:45

            X509v3 Subject Key Identifier: 
                D4:64:F6:A9:E8:A5:7E:D7:BF:63:52:03:83:53:DB:C5:41:8D:EA:80
            X509v3 Key Usage: critical
                Digital Signature, Key Encipherment
            X509v3 Basic Constraints: critical
                CA:FALSE
            X509v3 Extended Key Usage: 
                TLS Web Server Authentication, TLS Web Client Authentication
            X509v3 Certificate Policies: 
                Policy: 1.3.6.1.4.1.6449.1.2.1.3.4
                  CPS: https://secure.comodo.com/CPS

            X509v3 CRL Distribution Points: 

                Full Name:
                  URI:http://crl.comodoca.com/UTN-USERFirst-Hardware.crl

                Full Name:
                  URI:http://crl.comodo.net/UTN-USERFirst-Hardware.crl

            Authority Information Access: 
                CA Issuers - URI:http://crt.comodoca.com/UTNAddTrustServerCA.crt
                OCSP - URI:http://ocsp.comodoca.com

            X509v3 Subject Alternative Name: 
                DNS:login.live.com, DNS:www.login.live.com
    Signature Algorithm: sha1WithRSAEncryption
         54:e3:a4:9a:24:d2:f3:1d:42:ad:1b:f0:1e:ab:fb:da:d5:aa:
         e9:cf:5a:b3:1e:57:7b:31:f2:6e:57:4b:31:af:33:bb:b6:0d:
         15:c7:5e:59:01:ce:44:b5:b7:bf:09:c9:d5:dc:69:84:e9:c5:
         1a:b7:f0:3e:d4:c0:24:bd:29:5f:b4:e9:d6:58:eb:45:11:89:
         34:34:d3:11:eb:34:ce:2a:4f:00:3d:f6:72:ef:69:66:c0:9f:
         9a:ac:7e:70:50:ac:55:47:da:be:43:5b:ec:8b:c8:c5:23:84:
         c9:9f:b6:52:08:cf:91:1b:2f:80:69:e6:34:33:e6:b3:9f:a4:
         e5:0d:9a:15:f9:57:fc:0b:a9:41:0b:f5:ff:58:41:92:22:27:
         66:12:06:c7:2a:d8:59:a7:c6:df:44:12:4f:c0:a8:7f:a7:41:
         c8:c8:69:ff:ba:05:2e:97:ad:3b:d0:eb:f3:15:6d:7e:1b:e5:
         ba:dd:34:be:22:11:ec:68:98:33:81:02:6a:0b:13:55:79:31:
         75:4e:3a:c8:b6:13:bd:97:6f:37:0a:0b:2d:88:0e:de:67:90:
         c2:b3:ca:20:ca:9a:51:f4:64:3e:db:f4:2e:45:f2:c7:47:17:
         a8:f4:fa:90:5a:7f:80:a6:82:ac:e4:6c:81:46:bb:52:85:20:
         24:f8:80:ea
-----BEGIN CERTIFICATE-----
MIIF7DCCBNSgAwIBAgIRALC3Ez7Qlvm1b66RyHS9OsAwDQYJKoZIhvcNAQEFBQAw
gZcxCzAJBgNVBAYTAlVTMQswCQYDVQQIEwJVVDEXMBUGA1UEBxMOU2FsdCBMYWtl
IENpdHkxHjAcBgNVBAoTFVRoZSBVU0VSVFJVU1QgTmV0d29yazEhMB8GA1UECxMY
aHR0cDovL3d3dy51c2VydHJ1c3QuY29tMR8wHQYDVQQDExZVVE4tVVNFUkZpcnN0
LUhhcmR3YXJlMB4XDTExMDMxNTAwMDAwMFoXDTE0MDMxNDIzNTk1OVowgd4xCzAJ
BgNVBAYTAlVTMQ4wDAYDVQQREwUzODQ3NzEQMA4GA1UECBMHRmxvcmlkYTEQMA4G
A1UEBxMHRW5nbGlzaDEXMBUGA1UECRMOU2VhIFZpbGxhZ2UgMTAxFDASBgNVBAoT
C0dvb2dsZSBMdGQuMRMwEQYDVQQLEwpUZWNoIERlcHQuMSgwJgYDVQQLEx9Ib3N0
ZWQgYnkgR1RJIEdyb3VwIENvcnBvcmF0aW9uMRQwEgYDVQQLEwtQbGF0aW51bVNT
TDEXMBUGA1UEAxMObG9naW4ubGl2ZS5jb20wggEiMA0GCSqGSIb3DQEBAQUAA4IB
DwAwggEKAoIBAQDz/Csv7+GtWfBCPMLxgr8sQZPR9pgzlUy8YvGVWAi26Xt3SLDT
3Bc/vG7m7B7sjRf+HCTGPmc9kpWiMMCnVyDPcIiXSgWTeZNCly8+/8QUFCiiEza0
+O6+Hbx4XWGTX+uI19HkK5rNWOIHRZ9PuLlAajMsWyEDWkqU8nqXWRuotULYgwCq
NMyndtBHA18FrzvhuaE0JbdsX5owhJjCwtfyuEJKEFW9+lOBXY1oZkUsUn7lxATD
VOfDOdp6SsW5mIIg4SxgV7+68kYAvF863OMzl/hKmLnsM08tYGwVkqaBSgvp7HZw
NDEXcOZwS46L03XLeEmrZpuGn4+pxAHoyhvnAgMBAAGjggHoMIIB5DAfBgNVHSME
GDAWgBShcl8mGyiYQ5VdBzfVhZadS9LDRTAdBgNVHQ4EFgQU1GT2qeilfte/Y1ID
g1PbxUGN6oAwDgYDVR0PAQH/BAQDAgWgMAwGA1UdEwEB/wQCMAAwHQYDVR0lBBYw
FAYIKwYBBQUHAwEGCCsGAQUFBwMCMEYGA1UdIAQ/MD0wOwYMKwYBBAGyMQECAQME
MCswKQYIKwYBBQUHAgEWHWh0dHBzOi8vc2VjdXJlLmNvbW9kby5jb20vQ1BTMHsG
A1UdHwR0MHIwOKA2oDSGMmh0dHA6Ly9jcmwuY29tb2RvY2EuY29tL1VUTi1VU0VS
Rmlyc3QtSGFyZHdhcmUuY3JsMDagNKAyhjBodHRwOi8vY3JsLmNvbW9kby5uZXQv
VVROLVVTRVJGaXJzdC1IYXJkd2FyZS5jcmwwcQYIKwYBBQUHAQEEZTBjMDsGCCsG
AQUFBzAChi9odHRwOi8vY3J0LmNvbW9kb2NhLmNvbS9VVE5BZGRUcnVzdFNlcnZl
ckNBLmNydDAkBggrBgEFBQcwAYYYaHR0cDovL29jc3AuY29tb2RvY2EuY29tMC0G
A1UdEQQmMCSCDmxvZ2luLmxpdmUuY29tghJ3d3cubG9naW4ubGl2ZS5jb20wDQYJ
KoZIhvcNAQEFBQADggEBAFTjpJok0vMdQq0b8B6r+9rVqunPWrMeV3sx8m5XSzGv
M7u2DRXHXlkBzkS1t78JydXcaYTpxRq38D7UwCS9KV+06dZY60URiTQ00xHrNM4q
TwA99nLvaWbAn5qsfnBQrFVH2r5DW+yLyMUjhMmftlIIz5EbL4Bp5jQz5rOfpOUN
mhX5V/wLqUEL9f9YQZIiJ2YSBscq2Fmnxt9EEk/AqH+nQcjIaf+6BS6XrTvQ6/MV
bX4b5brdNL4iEexomDOBAmoLE1V5MXVOOsi2E72XbzcKCy2IDt5nkMKzyiDKmlH0
ZD7b9C5F8sdHF6j0+pBaf4CmgqzkbIFGu1KFICT4gOo=
-----END CERTIFICATE-----
