Certificate:
    Data:
        Version: 3 (0x2)
        Serial Number:
            03:74:d6:03:90:32:97:1c:34:c7:c6:d5:be:b9:94:48:d2:5d
    Signature Algorithm: sha256WithRSAEncryption
        Issuer: C = US, O = Let's Encrypt, CN = Let's Encrypt Authority X3
        Validity
            Not Before: Nov  1 12:27:08 2017 GMT
            Not After : Jan 30 12:27:08 2018 GMT
        Subject: CN = youtube.tg
        Subject Public Key Info:
            Public Key Algorithm: rsaEncryption
                Public-Key: (2048 bit)
                Modulus:
                    00:bf:26:b2:11:c8:9e:97:23:2e:a3:08:02:87:ea:
                    7b:97:66:f2:9e:72:8f:a3:12:19:14:1c:20:51:5b:
                    7b:a3:34:1f:af:22:f6:33:b8:83:ba:98:4a:d9:01:
                    a7:a5:2e:d2:cf:eb:da:8a:46:cf:da:3f:a6:19:65:
                    2c:fe:6c:6c:e0:0d:66:01:8f:3d:de:11:3f:d5:7e:
                    c8:ce:a6:f8:4d:6e:3e:9a:88:b3:ed:3d:e9:1e:13:
                    9e:39:e5:6c:64:10:eb:83:01:33:d5:4f:20:48:65:
                    0d:a5:ba:dc:f4:48:8a:66:e7:97:f7:9d:2d:be:15:
                    79:58:08:b6:de:3e:a8:86:8e:0c:81:9d:4b:09:04:
                    81:ec:bf:34:dc:48:a1:a4:3f:94:18:b2:7e:91:5e:
                    55:30:81:9a:24:1f:98:fd:e3:15:d3:e8:4a:31:8c:
                    0d:52:85:95:3e:0e:89:51:82:d9:23:5a:75:07:39:
                    ce:22:1a:88:c6:1c:ef:05:b0:c6:23:5e:de:b6:c7:
                    86:03:8e:b1:34:24:8f:79:dd:a3:0d:9b:51:36:7b:
                    7a:3c:93:43:4d:16:c5:dd:79:51:8e:be:f7:64:e9:
                    d6:fe:5c:b2:83:58:9f:a6:a7:a6:73:5b:5d:16:47:
                    e4:e4:fa:48:03:4c:3a:ef:cc:1e:18:aa:34:25:30:
                    1a:9f
                Exponent: 65537 (0x10001)
        X509v3 extensions:
            X509v3 Key Usage: critical
                Digital Signature, Key Encipherment
            X509v3 Extended Key Usage: 
                TLS Web Server Authentication, TLS Web Client Authentication
            X509v3 Basic Constraints: critical
                CA:FALSE
            X509v3 Subject Key Identifier: 
                E8:85:84:9C:8D:5B:AE:2A:5F:FA:42:AA:8D:A7:FB:F6:13:7C:84:C7
            X509v3 Authority Key Identifier: 
                keyid:A8:4A:6A:63:04:7D:DD:BA:E6:D1:39:B7:A6:45:65:EF:F3:A8:EC:A1

            Authority Information Access: 
                OCSP - URI:http://ocsp.int-x3.letsencrypt.org
                CA Issuers - URI:http://cert.int-x3.letsencrypt.org/

            X509v3 Subject Alternative Name: 
                DNS:cpanel.youtube.tg, DNS:mail.youtube.tg, DNS:webmail.youtube.tg, DNS:www.youtube.tg, DNS:youtube.tg
            X509v3 Certificate Policies: 
                Policy: 2.23.140.1.2.1
                Policy: 1.3.6.1.4.1.44947.1.1.1
                  CPS: http://cps.letsencrypt.org
                  User Notice:
                    Explicit Text: This Certificate may only be relied upon by Relying Parties and only in accordance with the Certificate Policy found at https://letsencrypt.org/repository/

    Signature Algorithm: sha256WithRSAEncryption
         14:fd:1f:03:07:4e:a8:33:4d:e2:bf:36:43:3a:20:f5:22:54:
         ff:3a:2b:17:70:9b:d2:b3:ea:0e:6f:c1:e8:93:a5:0d:4e:5d:
         ae:6a:08:3b:cd:70:b4:9b:ab:b4:fd:c8:eb:38:58:52:da:d8:
         52:5a:ad:f5:49:af:8f:8b:ac:ff:c3:c6:e1:29:f9:f3:fd:6e:
         71:40:28:bd:cf:94:9e:d8:c2:6c:67:2f:7e:d6:54:22:5b:62:
         07:7a:21:bc:06:ac:93:82:2a:1c:d5:92:25:b9:86:75:6d:4f:
         8b:fc:e1:fa:e4:84:fa:6a:5e:22:eb:7e:91:88:74:0e:47:7d:
         ee:c0:05:b4:39:65:2a:03:4c:66:1a:5e:ef:9a:88:cd:72:69:
         71:87:b7:57:f3:05:af:90:87:60:89:1e:30:a2:9b:04:47:a6:
         bf:a7:f5:d0:bf:21:7c:74:fd:50:0d:2d:7c:e0:2d:04:1d:20:
         f6:7f:96:79:7e:02:e5:5f:28:29:2d:a0:15:eb:50:4b:5e:56:
         0f:34:f9:3d:9e:00:5c:59:49:62:7d:ba:ed:b3:84:0c:8d:99:
         62:08:fe:5a:42:b1:21:c8:e1:8f:98:5b:2f:6e:da:ff:c4:f6:
         a6:e8:7c:67:9c:e9:0f:7f:46:e5:3a:4e:57:9e:c5:2d:a0:96:
         25:98:82:00
-----BEGIN CERTIFICATE-----
MIIFPzCCBCegAwIBAgISA3TWA5Aylxw0x8bVvrmUSNJdMA0GCSqGSIb3DQEBCwUA
MEoxCzAJBgNVBAYTAlVTMRYwFAYDVQQKEw1MZXQncyBFbmNyeXB0MSMwIQYDVQQD
ExpMZXQncyBFbmNyeXB0IEF1dGhvcml0eSBYMzAeFw0xNzExMDExMjI3MDhaFw0x
ODAxMzAxMjI3MDhaMBUxEzARBgNVBAMTCnlvdXR1YmUudGcwggEiMA0GCSqGSIb3
DQEBAQUAA4IBDwAwggEKAoIBAQC/JrIRyJ6XIy6jCAKH6nuXZvKeco+jEhkUHCBR
W3ujNB+vIvYzuIO6mErZAaelLtLP69qKRs/aP6YZZSz+bGzgDWYBjz3eET/VfsjO
pvhNbj6aiLPtPekeE5455WxkEOuDATPVTyBIZQ2lutz0SIpm55f3nS2+FXlYCLbe
PqiGjgyBnUsJBIHsvzTcSKGkP5QYsn6RXlUwgZokH5j94xXT6EoxjA1ShZU+DolR
gtkjWnUHOc4iGojGHO8FsMYjXt62x4YDjrE0JI953aMNm1E2e3o8k0NNFsXdeVGO
vvdk6db+XLKDWJ+mp6ZzW10WR+Tk+kgDTDrvzB4YqjQlMBqfAgMBAAGjggJSMIIC
TjAOBgNVHQ8BAf8EBAMCBaAwHQYDVR0lBBYwFAYIKwYBBQUHAwEGCCsGAQUFBwMC
MAwGA1UdEwEB/wQCMAAwHQYDVR0OBBYEFOiFhJyNW64qX/pCqo2n+/YTfITHMB8G
A1UdIwQYMBaAFKhKamMEfd265tE5t6ZFZe/zqOyhMG8GCCsGAQUFBwEBBGMwYTAu
BggrBgEFBQcwAYYiaHR0cDovL29jc3AuaW50LXgzLmxldHNlbmNyeXB0Lm9yZzAv
BggrBgEFBQcwAoYjaHR0cDovL2NlcnQuaW50LXgzLmxldHNlbmNyeXB0Lm9yZy8w
XQYDVR0RBFYwVIIRY3BhbmVsLnlvdXR1YmUudGeCD21haWwueW91dHViZS50Z4IS
d2VibWFpbC55b3V0dWJlLnRngg53d3cueW91dHViZS50Z4IKeW91dHViZS50ZzCB
/gYDVR0gBIH2MIHzMAgGBmeBDAECATCB5gYLKwYBBAGC3xMBAQEwgdYwJgYIKwYB
BQUHAgEWGmh0dHA6Ly9jcHMubGV0c2VuY3J5cHQub3JnMIGrBggrBgEFBQcCAjCB
ngyBm1RoaXMgQ2VydGlmaWNhdGUgbWF5IG9ubHkgYmUgcmVsaWVkIHVwb24gYnkg
UmVseWluZyBQYXJ0aWVzIGFuZCBvbmx5IGluIGFjY29yZGFuY2Ugd2l0aCB0aGUg
Q2VydGlmaWNhdGUgUG9saWN5IGZvdW5kIGF0IGh0dHBzOi8vbGV0c2VuY3J5cHQu
b3JnL3JlcG9zaXRvcnkvMA0GCSqGSIb3DQEBCwUAA4IBAQAU/R8DB06oM03ivzZD
OiD1IlT/OisXcJvSs+oOb8Hok6UNTl2uagg7zXC0m6u0/cjrOFhS2thSWq31Sa+P
i6z/w8bhKfnz/W5xQCi9z5Se2MJsZy9+1lQiW2IHeiG8BqyTgioc1ZIluYZ1bU+L
/OH65IT6al4i636RiHQOR33uwAW0OWUqA0xmGl7vmojNcmlxh7dX8wWvkIdgiR4w
opsER6a/p/XQvyF8dP1QDS184C0EHSD2f5Z5fgLlXygpLaAV61BLXlYPNPk9ngBc
WUlifbrts4QMjZliCP5aQrEhyOGPmFsvbtr/xPam6HxnnOkPf0blOk5XnsUtoJYl
mIIA
-----END CERTIFICATE-----
