Certificate:
    Data:
        Version: 3 (0x2)
        Serial Number: 12725199854837502752 (0xb098fdd8d3711320)
    Signature Algorithm: sha256WithRSAEncryption
        Issuer: C=CA, ST=Ontario, L=Ottawa, O=Mitel Networks, OU=VoIP Platforms, CN=Mitel Networks Root CA/emailAddress=sslsecurity@mitel.com
        Validity
            Not Before: Jul  8 13:40:51 2015 GMT
            Not After : Jul  5 13:40:51 2027 GMT
        Subject: C=CA, ST=Ontario, L=Ottawa, O=Mitel Networks, OU=VoIP Platforms, CN=Mitel Networks ICP CA/emailAddress=sslsecurity@mitel.com
        Subject Public Key Info:
            Public Key Algorithm: rsaEncryption
                Public-Key: (2048 bit)
                Modulus:
                    00:c3:bb:30:13:8c:87:ce:c0:a9:75:6f:20:15:33:
                    6e:df:cc:ae:c3:ae:dc:1a:dc:f7:3d:17:2a:9a:cf:
                    fe:0b:95:d3:9c:df:fe:e5:2e:b3:2e:e6:ed:e9:21:
                    e4:59:f2:c3:22:ea:53:a9:4d:6e:ff:2f:0c:3f:c7:
                    b1:c4:83:85:aa:a3:87:96:b2:49:91:ee:e6:c2:a1:
                    f0:13:6c:fe:77:6d:a0:b0:35:18:ff:1e:84:f2:f7:
                    70:00:24:d4:c8:bd:82:52:ca:c7:4b:82:af:ca:c5:
                    0a:56:08:1f:59:b4:c8:77:5c:12:75:28:e4:02:87:
                    6e:51:8c:fc:e9:13:4e:62:00:db:59:6f:d8:18:43:
                    c2:0a:3c:52:9a:fd:80:16:0d:a9:be:93:04:61:8e:
                    ab:79:e5:c5:74:aa:18:a8:b2:4d:66:14:01:c0:a2:
                    ff:ef:f2:fa:e3:15:24:46:ac:e8:2b:4f:54:3d:d2:
                    58:0e:11:ad:c1:b2:c4:bf:89:29:e8:9f:a8:c1:e2:
                    65:82:57:ea:e2:89:6d:56:44:da:cd:bd:b2:dc:90:
                    5e:ac:c6:74:b2:fb:83:70:21:ac:1e:f4:48:93:09:
                    cf:25:17:3d:ef:d3:48:28:b7:d1:8d:3e:aa:01:a4:
                    94:22:65:19:9a:ee:61:25:4b:93:fe:97:bc:a2:cd:
                    d9:71
                Exponent: 65537 (0x10001)
        X509v3 extensions:
            X509v3 Subject Key Identifier: 
                70:87:52:6E:59:87:43:AD:14:0B:BE:95:64:4C:73:30:11:53:D1:72
            X509v3 Authority Key Identifier: 
                keyid:7E:AD:DA:3D:2C:6D:90:C3:E1:F2:DE:4D:66:6A:89:41:D1:3E:35:C9

            X509v3 Basic Constraints: 
                CA:TRUE
            X509v3 Key Usage: 
                Certificate Sign, CRL Sign
    Signature Algorithm: sha256WithRSAEncryption
         57:6e:3a:2d:55:99:ce:29:e2:9f:65:67:43:36:60:d6:5f:92:
         aa:94:a4:7c:fd:79:c8:c4:b4:c4:58:a8:8d:92:22:92:25:39:
         6e:11:46:50:65:a9:75:c9:16:07:ca:47:f5:2c:77:47:4f:af:
         dc:5a:ef:64:b6:04:96:85:27:82:7b:dc:34:06:c9:48:a9:b7:
         68:52:e9:cb:c0:58:8e:38:d4:e7:bd:8c:8b:0f:ce:ee:47:5c:
         50:ac:79:04:40:1c:18:4a:a7:09:32:8a:ae:6e:35:12:e7:8e:
         41:ae:f9:f7:df:b8:33:67:b5:3a:c2:c0:b3:37:86:ae:41:86:
         d6:e9:bb:f9:6f:dc:57:1f:a8:ac:4b:87:ed:d5:74:74:6e:7e:
         a0:40:c6:2c:27:f5:39:14:59:fd:30:46:a4:3b:b6:6a:4e:5d:
         1d:16:5c:15:69:35:4b:70:df:96:d4:72:f0:86:1a:6f:59:b4:
         89:67:d8:b7:85:42:aa:bf:e1:03:49:fb:79:3a:e7:44:3f:3f:
         e9:f4:d3:06:01:93:1b:b5:7b:3c:f3:ac:34:53:12:fc:6d:1d:
         80:36:c0:46:e4:46:3f:4b:33:a3:d5:b5:e1:4a:7d:e7:20:e5:
         65:a5:ad:2f:ec:f2:a1:62:41:35:aa:0b:1a:9d:d4:90:76:30:
         b1:62:e0:75
-----BEGIN CERTIFICATE-----
MIIEMzCCAxugAwIBAgIJALCY/djTcRMgMA0GCSqGSIb3DQEBCwUAMIGpMQswCQYD
VQQGEwJDQTEQMA4GA1UECAwHT250YXJpbzEPMA0GA1UEBwwGT3R0YXdhMRcwFQYD
VQQKDA5NaXRlbCBOZXR3b3JrczEXMBUGA1UECwwOVm9JUCBQbGF0Zm9ybXMxHzAd
BgNVBAMMFk1pdGVsIE5ldHdvcmtzIFJvb3QgQ0ExJDAiBgkqhkiG9w0BCQEWFXNz
bHNlY3VyaXR5QG1pdGVsLmNvbTAeFw0xNTA3MDgxMzQwNTFaFw0yNzA3MDUxMzQw
NTFaMIGoMQswCQYDVQQGEwJDQTEQMA4GA1UECAwHT250YXJpbzEPMA0GA1UEBwwG
T3R0YXdhMRcwFQYDVQQKDA5NaXRlbCBOZXR3b3JrczEXMBUGA1UECwwOVm9JUCBQ
bGF0Zm9ybXMxHjAcBgNVBAMMFU1pdGVsIE5ldHdvcmtzIElDUCBDQTEkMCIGCSqG
SIb3DQEJARYVc3Nsc2VjdXJpdHlAbWl0ZWwuY29tMIIBIjANBgkqhkiG9w0BAQEF
AAOCAQ8AMIIBCgKCAQEAw7swE4yHzsCpdW8gFTNu38yuw67cGtz3PRcqms/+C5XT
nN/+5S6zLubt6SHkWfLDIupTqU1u/y8MP8exxIOFqqOHlrJJke7mwqHwE2z+d22g
sDUY/x6E8vdwACTUyL2CUsrHS4KvysUKVggfWbTId1wSdSjkAoduUYz86RNOYgDb
WW/YGEPCCjxSmv2AFg2pvpMEYY6reeXFdKoYqLJNZhQBwKL/7/L64xUkRqzoK09U
PdJYDhGtwbLEv4kp6J+oweJlglfq4oltVkTazb2y3JBerMZ0svuDcCGsHvRIkwnP
JRc979NIKLfRjT6qAaSUImUZmu5hJUuT/pe8os3ZcQIDAQABo10wWzAdBgNVHQ4E
FgQUcIdSblmHQ60UC76VZExzMBFT0XIwHwYDVR0jBBgwFoAUfq3aPSxtkMPh8t5N
ZmqJQdE+NckwDAYDVR0TBAUwAwEB/zALBgNVHQ8EBAMCAQYwDQYJKoZIhvcNAQEL
BQADggEBAFduOi1Vmc4p4p9lZ0M2YNZfkqqUpHz9ecjEtMRYqI2SIpIlOW4RRlBl
qXXJFgfKR/Usd0dPr9xa72S2BJaFJ4J73DQGyUipt2hS6cvAWI441Oe9jIsPzu5H
XFCseQRAHBhKpwkyiq5uNRLnjkGu+fffuDNntTrCwLM3hq5Bhtbpu/lv3FcfqKxL
h+3VdHRufqBAxiwn9TkUWf0wRqQ7tmpOXR0WXBVpNUtw35bUcvCGGm9ZtIln2LeF
Qqq/4QNJ+3k650Q/P+n00wYBkxu1ezzzrDRTEvxtHYA2wEbkRj9LM6PVteFKfecg
5WWlrS/s8qFiQTWqCxqd1JB2MLFi4HU=
-----END CERTIFICATE-----
