Certificate:
    Data:
        Version: 3 (0x2)
        Serial Number: 20006006 (0x1314476)
    Signature Algorithm: sha1WithRSAEncryption
        Issuer: C=NL, O=Staat der Nederlanden, CN=Staat der Nederlanden Overheid CA
        Validity
            Not Before: Jun 24 08:19:32 2004 GMT
            Not After : Jun 23 08:17:36 2010 GMT
        Subject: C=NL, O=DigiNotar B.V., CN=DigiNotar PKIoverheid CA Overheid
        Subject Public Key Info:
            Public Key Algorithm: rsaEncryption
                Public-Key: (2048 bit)
                Modulus:
                    00:d4:a5:ae:e6:ed:6b:9b:65:3a:35:42:8b:f8:1b:
                    c8:b0:af:46:a7:c1:8f:11:bc:1f:9f:78:55:c2:87:
                    bb:45:80:61:cf:7d:48:f6:45:f5:cc:9c:8f:99:b0:
                    d8:6c:9f:42:fc:bf:58:8a:c6:ac:be:22:c8:da:b5:
                    81:2a:91:d1:00:3f:99:35:ca:64:86:8f:ab:3a:43:
                    85:d9:be:56:fa:ca:92:68:eb:6d:97:da:43:18:0c:
                    4a:cd:c2:86:d0:6c:8d:c3:fd:2d:cd:17:d7:35:d9:
                    e1:0f:27:05:ed:e4:05:3a:7e:cd:e8:48:35:f9:9b:
                    8e:81:20:5c:bc:6c:31:1e:51:43:a1:b1:cc:a8:ee:
                    0b:4e:0f:42:96:c9:42:04:c8:6a:48:25:29:aa:98:
                    70:30:d9:6c:4b:1c:5a:03:d5:1e:08:ff:d9:aa:07:
                    96:3e:a5:79:6f:d3:84:76:7e:3b:8d:63:52:0b:84:
                    98:12:d9:03:79:ae:dc:7a:c2:7e:b1:e7:b5:be:5d:
                    3e:dd:22:87:34:b1:ec:6b:43:fd:26:97:e4:70:4b:
                    c6:73:f5:f3:d6:2e:a8:c9:39:89:10:3d:e4:2b:62:
                    49:d2:9a:ba:fa:27:ff:14:4a:44:b3:60:1b:a5:c0:
                    cf:47:2d:4a:86:3b:c4:b0:dd:88:15:54:e6:42:5d:
                    15:27
                Exponent: 65537 (0x10001)
        X509v3 extensions:
            X509v3 Certificate Policies: 
                Policy: X509v3 Any Policy
                  CPS: http://www.diginotar.nl/cps/pkioverheid

            X509v3 Basic Constraints: critical
                CA:TRUE
            X509v3 Key Usage: critical
                Certificate Sign, CRL Sign
            X509v3 Authority Key Identifier: 
                keyid:0B:86:D6:0F:77:A3:68:B1:FB:64:09:C3:88:6E:5C:04:1C:57:E9:3D
                DirName:/C=NL/O=Staat der Nederlanden/CN=Staat der Nederlanden Root CA
                serial:98:9A:79

            X509v3 CRL Distribution Points: 

                Full Name:
                  URI:http://crl.pkioverheid.nl/DomOvLatestCRL.crl

            X509v3 Subject Key Identifier: 
                BD:16:98:42:1D:BE:91:D1:3D:C2:97:25:E0:28:D7:58:E0:B5:7F:E2
    Signature Algorithm: sha1WithRSAEncryption
         68:50:b0:25:8b:89:a3:76:10:e8:4f:01:6f:89:40:fe:a8:5c:
         13:ab:2e:fe:70:ea:3a:1a:87:30:45:56:7d:41:89:e7:f3:9a:
         53:0a:8e:26:ea:29:8c:54:45:1b:cc:02:c3:24:87:cd:bf:31:
         f2:fc:57:4c:3a:ba:0c:65:f3:59:6e:8b:8d:9d:73:19:7d:70:
         a4:95:5c:a3:30:e1:b6:c1:cc:9d:95:40:8e:47:4c:80:01:c1:
         e7:de:36:ec:bf:79:7e:a2:75:5c:18:76:dd:da:8c:01:fb:7d:
         40:3c:43:d0:aa:be:be:87:f0:1f:bc:9b:0a:04:a9:35:53:11:
         59:42:4a:c0:bf:11:7b:28:91:81:14:af:4e:8f:3f:34:6e:74:
         a8:c3:9a:28:e0:8f:bc:c5:68:88:a8:64:d7:3c:86:4e:e0:b9:
         f1:20:ae:cf:ed:99:c3:46:ca:5a:f0:44:78:02:5e:30:91:06:
         dd:8d:1e:56:74:f2:5e:c0:d4:01:94:f0:77:07:95:26:c6:f5:
         49:ff:da:af:64:54:75:24:a6:cd:03:82:d5:1a:10:af:b1:ea:
         3a:40:bb:f4:7c:3a:37:b3:bb:ff:99:11:cc:30:8c:8f:ca:3a:
         11:be:f3:8f:9e:8c:59:ad:c8:49:2b:51:db:00:74:47:4b:7f:
         fd:9d:2a:cc
-----BEGIN CERTIFICATE-----
MIIEezCCA2OgAwIBAgIEATFEdjANBgkqhkiG9w0BAQUFADBZMQswCQYDVQQGEwJO
TDEeMBwGA1UEChMVU3RhYXQgZGVyIE5lZGVybGFuZGVuMSowKAYDVQQDEyFTdGFh
dCBkZXIgTmVkZXJsYW5kZW4gT3ZlcmhlaWQgQ0EwHhcNMDQwNjI0MDgxOTMyWhcN
MTAwNjIzMDgxNzM2WjBSMQswCQYDVQQGEwJOTDEXMBUGA1UEChMORGlnaU5vdGFy
IEIuVi4xKjAoBgNVBAMTIURpZ2lOb3RhciBQS0lvdmVyaGVpZCBDQSBPdmVyaGVp
ZDCCASIwDQYJKoZIhvcNAQEBBQADggEPADCCAQoCggEBANSlrubta5tlOjVCi/gb
yLCvRqfBjxG8H594VcKHu0WAYc99SPZF9cycj5mw2GyfQvy/WIrGrL4iyNq1gSqR
0QA/mTXKZIaPqzpDhdm+VvrKkmjrbZfaQxgMSs3ChtBsjcP9Lc0X1zXZ4Q8nBe3k
BTp+zehINfmbjoEgXLxsMR5RQ6GxzKjuC04PQpbJQgTIakglKaqYcDDZbEscWgPV
Hgj/2aoHlj6leW/ThHZ+O41jUguEmBLZA3mu3HrCfrHntb5dPt0ihzSx7GtD/SaX
5HBLxnP189YuqMk5iRA95CtiSdKauvon/xRKRLNgG6XAz0ctSoY7xLDdiBVU5kJd
FScCAwEAAaOCAVAwggFMMEgGA1UdIARBMD8wPQYEVR0gADA1MDMGCCsGAQUFBwIB
FidodHRwOi8vd3d3LmRpZ2lub3Rhci5ubC9jcHMvcGtpb3ZlcmhlaWQwDwYDVR0T
AQH/BAUwAwEB/zAOBgNVHQ8BAf8EBAMCAQYwgYAGA1UdIwR5MHeAFAuG1g93o2ix
+2QJw4huXAQcV+k9oVmkVzBVMQswCQYDVQQGEwJOTDEeMBwGA1UEChMVU3RhYXQg
ZGVyIE5lZGVybGFuZGVuMSYwJAYDVQQDEx1TdGFhdCBkZXIgTmVkZXJsYW5kZW4g
Um9vdCBDQYIEAJiaeTA9BgNVHR8ENjA0MDKgMKAuhixodHRwOi8vY3JsLnBraW92
ZXJoZWlkLm5sL0RvbU92TGF0ZXN0Q1JMLmNybDAdBgNVHQ4EFgQUvRaYQh2+kdE9
wpcl4CjXWOC1f+IwDQYJKoZIhvcNAQEFBQADggEBAGhQsCWLiaN2EOhPAW+JQP6o
XBOrLv5w6joahzBFVn1BiefzmlMKjibqKYxURRvMAsMkh82/MfL8V0w6ugxl81lu
i42dcxl9cKSVXKMw4bbBzJ2VQI5HTIABwefeNuy/eX6idVwYdt3ajAH7fUA8Q9Cq
vr6H8B+8mwoEqTVTEVlCSsC/EXsokYEUr06PPzRudKjDmijgj7zFaIioZNc8hk7g
ufEgrs/tmcNGylrwRHgCXjCRBt2NHlZ08l7A1AGU8HcHlSbG9Un/2q9kVHUkps0D
gtUaEK+x6jpAu/R8Ojezu/+ZEcwwjI/KOhG+84+ejFmtyEkrUdsAdEdLf/2dKsw=
-----END CERTIFICATE-----
