Certificate:
    Data:
        Version: 3 (0x2)
        Serial Number:
            6c:47:08:9c:34:a8:8e:43:dd:e0:de:e3:06:61:55:8d:a9:cb:2e:70
        Signature Algorithm: sha256WithRSAEncryption
        Issuer: CN=Information Security Certification Authority, O=ISCA, C=KZ
        Validity
            Not Before: Feb 28 07:04:41 2020 GMT
            Not After : Feb 28 07:04:41 2050 GMT
        Subject: CN=Information Security Certification Authority, O=ISCA, C=KZ
        Subject Public Key Info:
            Public Key Algorithm: rsaEncryption
                Public-Key: (4096 bit)
                Modulus:
                    00:ab:4c:ef:c7:9b:30:ec:ea:35:62:e2:b6:0a:69:
                    c0:52:20:e8:7f:2d:12:dd:b7:b7:24:16:3e:d3:88:
                    9c:50:f2:92:1e:84:45:b3:9b:d0:29:b4:f3:4a:5f:
                    84:1b:32:d0:a0:82:a1:5b:2a:f3:b6:f2:20:09:7e:
                    9c:6c:e9:b9:19:7b:6a:1d:62:df:d0:5a:bc:63:e6:
                    51:07:6b:4f:db:b7:ca:3d:93:cd:b5:47:30:3e:da:
                    78:df:ad:ab:99:0a:54:32:c2:58:6c:8a:d4:3a:04:
                    84:47:71:d9:fb:6b:fe:b7:ea:55:95:16:5a:87:2b:
                    5c:f4:d6:48:a3:43:7e:f7:f2:8b:89:56:6c:c9:ec:
                    90:74:13:0b:69:2c:d3:48:4d:84:54:95:20:03:af:
                    b0:a3:f9:3b:4a:fb:5e:46:1a:e8:ff:be:c0:65:27:
                    f9:23:b0:6b:f0:87:46:41:5f:f1:df:df:f8:71:ed:
                    45:dd:0b:41:76:c7:cd:a0:45:a0:96:b5:6c:14:24:
                    f4:09:dc:ee:25:de:e6:b9:db:2d:da:f6:05:19:60:
                    f4:90:6b:b9:02:13:c4:ff:47:97:78:db:64:c3:65:
                    e1:97:a2:15:d6:41:c0:98:1e:41:9f:ce:7e:71:79:
                    5d:87:2f:4e:08:92:b0:55:6b:90:46:37:ca:f9:0b:
                    43:3d:65:fc:be:01:88:4e:92:1c:49:1e:66:8b:c4:
                    92:4b:a7:f8:0a:b2:15:d9:1f:02:ff:88:c9:25:5b:
                    d6:39:0f:e5:e3:53:02:53:87:b0:13:56:da:0c:91:
                    62:da:50:43:99:3f:c5:20:0f:03:62:f0:ce:d3:1c:
                    7a:10:2a:45:e0:73:12:a0:b0:ec:de:e5:c9:49:c5:
                    77:a8:74:dc:7e:eb:df:1a:c5:23:61:5e:8b:78:2a:
                    1e:61:a4:cc:78:c8:96:a8:5c:30:ff:06:6b:22:43:
                    a2:11:b8:61:09:bf:16:3f:6e:49:bc:ca:ce:14:8c:
                    ed:34:67:31:3e:83:bf:ff:bd:c1:9f:23:e8:9f:70:
                    f2:b0:d2:16:05:94:4f:d7:43:63:22:60:36:2c:f7:
                    57:3f:4c:f4:13:7d:99:e6:08:68:7f:44:68:1b:94:
                    81:34:d5:79:4e:bc:82:b5:9c:0e:03:a8:ee:af:0a:
                    1a:41:d6:8d:58:47:e8:a8:70:b5:fe:ba:a4:0d:79:
                    13:12:c0:be:e8:83:ee:e5:de:69:26:35:c3:fa:b6:
                    c3:9c:5e:b9:f3:5c:b0:e9:b8:38:0e:26:b4:93:0d:
                    23:9f:b2:b2:cb:3b:81:f0:cc:5e:e0:b6:06:82:83:
                    1b:31:1a:b6:ac:b8:67:71:cf:b3:56:90:21:95:ff:
                    c3:fe:e5
                Exponent: 65537 (0x10001)
        X509v3 extensions:
            X509v3 Basic Constraints: critical
                CA:TRUE
            X509v3 Key Usage: critical
                Certificate Sign, CRL Sign
            X509v3 Subject Key Identifier: 
                EC:47:08:9C:34:A8:8E:43:DD:E0:DE:E3:06:61:55:8D:A9:CB:2E:70
            X509v3 Authority Key Identifier: 
                keyid:EC:47:08:9C:34:A8:8E:43:DD:E0:DE:E3:06:61:55:8D:A9:CB:2E:70
                DirName:/CN=Information Security Certification Authority/O=ISCA/C=KZ
                serial:6C:47:08:9C:34:A8:8E:43:DD:E0:DE:E3:06:61:55:8D:A9:CB:2E:70
    Signature Algorithm: sha256WithRSAEncryption
    Signature Value:
        28:97:d3:4a:95:d1:7e:41:cb:71:40:bc:0d:0c:cb:58:96:df:
        cf:02:d4:c1:c9:78:34:23:84:a3:9e:85:03:46:b0:fa:87:07:
        cd:8d:8b:c7:c2:11:bf:8c:16:2e:5c:3f:18:ff:10:0f:8d:28:
        4f:34:e9:ce:34:b2:67:0b:fd:90:96:e9:b2:76:fd:9e:2b:86:
        92:b0:7d:30:ba:f9:6a:f8:5e:e8:84:bd:a4:44:1a:71:2a:d3:
        49:b1:27:de:53:52:9a:f2:ae:d3:63:f5:08:da:a0:f8:e9:75:
        ee:a6:18:5b:f0:32:21:84:4f:d7:b5:0c:f1:a2:fc:8c:95:fe:
        4e:7f:3a:6d:37:a1:3d:34:92:ab:ba:94:dc:79:16:51:6e:90:
        45:39:31:48:9f:3e:58:ad:59:c9:91:8c:da:1f:2a:59:ee:34:
        fb:ad:1c:61:03:9d:86:e3:22:73:d7:8a:d7:34:83:ed:a7:73:
        df:83:24:a1:2c:5d:8f:0e:57:64:fe:2c:b9:88:5e:71:90:33:
        82:92:00:66:e5:c2:1b:15:13:7f:69:87:7c:56:ce:dd:80:52:
        3f:00:27:ca:c8:a4:e0:97:8e:61:a3:74:47:3f:3d:64:0a:81:
        ea:87:58:cf:f9:ae:f3:f9:c5:e2:0b:98:c9:ee:b7:5e:fd:c0:
        33:d6:d1:92:15:5d:d6:d2:89:cc:8f:2e:3a:f2:02:54:e0:37:
        ef:dd:b8:98:8c:e4:16:60:2d:e8:a4:99:06:c7:14:92:c8:6d:
        49:60:39:54:ee:f8:f5:75:5c:d4:51:48:20:f8:1d:96:3a:17:
        26:7b:eb:1d:85:a4:8a:7b:49:62:0d:82:4d:12:81:77:6a:4a:
        ab:24:40:ac:7e:34:a0:e4:8b:01:9e:73:0a:c8:45:3e:28:f0:
        62:cf:04:aa:94:50:20:c7:9e:a5:21:38:fe:65:44:e8:0a:58:
        e5:22:8e:ed:e2:f1:f8:62:b0:8a:4a:95:70:83:40:69:c8:21:
        ac:12:cb:31:b7:90:94:83:9c:31:79:d8:2c:99:4d:04:60:de:
        db:a2:a4:dd:6e:3d:5d:60:9d:f9:85:bd:3b:11:20:93:c2:e9:
        59:d4:13:18:66:94:5f:aa:06:60:f2:db:f1:47:91:1b:e4:01:
        3b:93:ca:8a:2e:e0:b1:b4:83:53:6f:e4:70:b7:77:a1:5d:48:
        fb:0e:ee:c1:08:cf:4c:34:d2:5b:cc:a5:61:c6:47:1a:83:81:
        b8:9e:b7:ab:7b:59:45:77:3f:02:50:ab:f3:4d:73:56:96:0f:
        cb:84:8f:04:ef:1b:57:c1:ba:94:e1:24:53:fd:b1:e5:de:b9:
        7c:1e:ba:05:61:eb:9c:63
-----BEGIN CERTIFICATE-----
MIIGDTCCA/WgAwIBAgIUbEcInDSojkPd4N7jBmFVjanLLnAwDQYJKoZIhvcNAQEL
BQAwUzE1MDMGA1UEAxMsSW5mb3JtYXRpb24gU2VjdXJpdHkgQ2VydGlmaWNhdGlv
biBBdXRob3JpdHkxDTALBgNVBAoTBElTQ0ExCzAJBgNVBAYTAktaMCAXDTIwMDIy
ODA3MDQ0MVoYDzIwNTAwMjI4MDcwNDQxWjBTMTUwMwYDVQQDEyxJbmZvcm1hdGlv
biBTZWN1cml0eSBDZXJ0aWZpY2F0aW9uIEF1dGhvcml0eTENMAsGA1UEChMESVND
QTELMAkGA1UEBhMCS1owggIiMA0GCSqGSIb3DQEBAQUAA4ICDwAwggIKAoICAQCr
TO/HmzDs6jVi4rYKacBSIOh/LRLdt7ckFj7TiJxQ8pIehEWzm9AptPNKX4QbMtCg
gqFbKvO28iAJfpxs6bkZe2odYt/QWrxj5lEHa0/bt8o9k821RzA+2njfrauZClQy
wlhsitQ6BIRHcdn7a/636lWVFlqHK1z01kijQ3738ouJVmzJ7JB0EwtpLNNITYRU
lSADr7Cj+TtK+15GGuj/vsBlJ/kjsGvwh0ZBX/Hf3/hx7UXdC0F2x82gRaCWtWwU
JPQJ3O4l3ua52y3a9gUZYPSQa7kCE8T/R5d422TDZeGXohXWQcCYHkGfzn5xeV2H
L04IkrBVa5BGN8r5C0M9Zfy+AYhOkhxJHmaLxJJLp/gKshXZHwL/iMklW9Y5D+Xj
UwJTh7ATVtoMkWLaUEOZP8UgDwNi8M7THHoQKkXgcxKgsOze5clJxXeodNx+698a
xSNhXot4Kh5hpMx4yJaoXDD/BmsiQ6IRuGEJvxY/bkm8ys4UjO00ZzE+g7//vcGf
I+ifcPKw0hYFlE/XQ2MiYDYs91c/TPQTfZnmCGh/RGgblIE01XlOvIK1nA4DqO6v
ChpB1o1YR+iocLX+uqQNeRMSwL7og+7l3mkmNcP6tsOcXrnzXLDpuDgOJrSTDSOf
srLLO4HwzF7gtgaCgxsxGrasuGdxz7NWkCGV/8P+5QIDAQABo4HWMIHTMA8GA1Ud
EwEB/wQFMAMBAf8wDgYDVR0PAQH/BAQDAgEGMB0GA1UdDgQWBBTsRwicNKiOQ93g
3uMGYVWNqcsucDCBkAYDVR0jBIGIMIGFgBTsRwicNKiOQ93g3uMGYVWNqcsucKFX
pFUwUzE1MDMGA1UEAxMsSW5mb3JtYXRpb24gU2VjdXJpdHkgQ2VydGlmaWNhdGlv
biBBdXRob3JpdHkxDTALBgNVBAoTBElTQ0ExCzAJBgNVBAYTAktaghRsRwicNKiO
Q93g3uMGYVWNqcsucDANBgkqhkiG9w0BAQsFAAOCAgEAKJfTSpXRfkHLcUC8DQzL
WJbfzwLUwcl4NCOEo56FA0aw+ocHzY2Lx8IRv4wWLlw/GP8QD40oTzTpzjSyZwv9
kJbpsnb9niuGkrB9MLr5avhe6IS9pEQacSrTSbEn3lNSmvKu02P1CNqg+Ol17qYY
W/AyIYRP17UM8aL8jJX+Tn86bTehPTSSq7qU3HkWUW6QRTkxSJ8+WK1ZyZGM2h8q
We40+60cYQOdhuMic9eK1zSD7adz34MkoSxdjw5XZP4suYhecZAzgpIAZuXCGxUT
f2mHfFbO3YBSPwAnysik4JeOYaN0Rz89ZAqB6odYz/mu8/nF4guYye63Xv3AM9bR
khVd1tKJzI8uOvICVOA37924mIzkFmAt6KSZBscUkshtSWA5VO749XVc1FFIIPgd
ljoXJnvrHYWkintJYg2CTRKBd2pKqyRArH40oOSLAZ5zCshFPijwYs8EqpRQIMee
pSE4/mVE6ApY5SKO7eLx+GKwikqVcINAacghrBLLMbeQlIOcMXnYLJlNBGDe26Kk
3W49XWCd+YW9OxEgk8LpWdQTGGaUX6oGYPLb8UeRG+QBO5PKii7gsbSDU2/kcLd3
oV1I+w7uwQjPTDTSW8ylYcZHGoOBuJ63q3tZRXc/AlCr801zVpYPy4SPBO8bV8G6
lOEkU/2x5d65fB66BWHrnGM=
-----END CERTIFICATE-----
