Certificate:
    Data:
        Version: 3 (0x2)
        Serial Number: 2148 (0x864)
    Signature Algorithm: sha1WithRSAEncryption
        Issuer: CN=T\xC3\x9CRKTRUST Elektronik Sunucu Sertifikas\xC4\xB1 Hizmetleri, C=TR, O=T\xC3\x9CRKTRUST Bilgi \xC4\xB0leti\xC5\x9Fim ve Bili\xC5\x9Fim G\xC3\xBCvenli\xC4\x9Fi Hizmetleri A.\xC5\x9E. (c) Kas\xC4\xB1m  2005
        Validity
            Not Before: Aug  8 07:07:51 2011 GMT
            Not After : Aug  5 07:07:51 2021 GMT
        Subject: C=TR, ST=Lefkosa, L=Lefkosa, O=KKTC Merkez Bankasi, CN=e-islem.kktcmerkezbankasi.org/emailAddress=ileti@kktcmerkezbankasi.org
        Subject Public Key Info:
            Public Key Algorithm: rsaEncryption
                Public-Key: (2048 bit)
                Modulus:
                    00:c3:58:54:a6:e4:45:63:ae:cd:b1:9e:82:f6:bc:
                    d1:00:f0:9b:f5:15:69:8b:89:d9:cc:92:00:d5:3b:
                    c8:7e:be:21:30:f3:34:5f:98:ec:78:c7:f9:1a:f8:
                    09:43:e7:01:31:9b:68:a0:37:7b:05:b6:4d:cb:6c:
                    fb:3b:90:3e:f0:f6:05:68:c0:dd:a2:40:84:37:1d:
                    9e:3c:8a:80:56:e3:ba:0b:95:00:a8:ce:c9:de:7e:
                    91:ae:18:ce:be:a8:b0:e9:d4:d0:31:bb:57:86:31:
                    5a:a3:e6:0c:b8:15:6f:46:eb:a1:18:70:43:2b:72:
                    5e:eb:84:ff:28:bc:dc:98:05:25:44:91:2e:cb:e6:
                    4c:7b:b0:1a:b5:46:92:0e:bf:e3:cb:90:cc:03:9c:
                    44:60:e7:6c:9d:2e:59:a3:7d:25:44:6f:bd:be:a6:
                    f1:6f:c0:90:8b:e1:3d:ee:c3:63:63:e5:b8:94:48:
                    09:29:05:8c:36:1e:6b:0b:1a:38:1e:29:e4:9b:70:
                    8a:c8:a5:f7:3c:04:be:0c:35:48:dc:b4:22:0a:22:
                    10:50:e3:00:db:ed:4f:e5:a4:cf:4e:4a:6a:95:b8:
                    ea:85:b5:93:58:03:d6:38:a0:85:f5:df:37:a7:74:
                    4c:5c:e6:2d:e4:66:a1:4b:ca:e0:e6:ee:be:b6:81:
                    02:d5
                Exponent: 65537 (0x10001)
        X509v3 extensions:
            X509v3 Key Usage: critical
                Certificate Sign, CRL Sign
            X509v3 Basic Constraints: critical
                CA:TRUE
    Signature Algorithm: sha1WithRSAEncryption
         c2:35:b3:e6:db:14:bd:83:91:55:6f:0a:25:22:bf:6e:21:c5:
         ac:09:c5:a2:d3:2d:a1:32:84:7b:04:66:9d:86:98:8f:05:c8:
         af:52:0f:68:1a:a1:8e:41:86:be:22:cd:d9:e3:87:fe:ff:7b:
         52:58:ba:1c:2e:25:ce:12:87:7c:c4:14:4b:d2:85:fd:fe:67:
         19:c1:fc:89:00:72:fe:09:85:b1:f2:50:d4:a0:c2:e8:63:4c:
         e0:27:cc:18:8c:f2:c6:36:21:3f:45:73:75:4b:4a:5f:73:c0:
         97:91:2a:80:c5:1c:76:a4:43:cb:a4:6e:cf:9e:7e:26:47:6f:
         08:bd:67:00:2e:f1:1f:e7:33:25:c6:55:c3:2b:13:74:67:cb:
         4c:28:7a:56:d6:0f:80:89:1e:2f:a5:3c:df:14:00:c8:cb:8e:
         1e:6e:f6:7b:12:65:8d:81:6a:22:c8:8d:bc:61:34:2a:e7:c2:
         a8:2b:87:d4:f0:fd:ec:85:cc:ac:b9:70:1a:62:8a:83:98:cf:
         df:8f:65:c9:20:69:26:39:ba:44:3a:82:4d:3f:ba:75:49:76:
         8e:45:5b:78:d9:9c:a3:df:58:ec:03:9d:b4:bb:0e:75:70:4c:
         0a:8e:71:f2:52:bc:cf:04:16:16:bc:c4:9a:cd:23:a0:75:c2:
         a5:67:c6:58
-----BEGIN CERTIFICATE-----
MIID8DCCAtigAwIBAgICCGQwDQYJKoZIhvcNAQEFBQAwgawxPTA7BgNVBAMMNFTD
nFJLVFJVU1QgRWxla3Ryb25payBTdW51Y3UgU2VydGlmaWthc8SxIEhpem1ldGxl
cmkxCzAJBgNVBAYTAlRSMV4wXAYDVQQKDFVUw5xSS1RSVVNUIEJpbGdpIMSwbGV0
acWfaW0gdmUgQmlsacWfaW0gR8O8dmVubGnEn2kgSGl6bWV0bGVyaSBBLsWeLiAo
YykgS2FzxLFtICAyMDA1MB4XDTExMDgwODA3MDc1MVoXDTIxMDgwNTA3MDc1MVow
gaMxCzAJBgNVBAYTAlRSMRAwDgYDVQQIEwdMZWZrb3NhMRAwDgYDVQQHEwdMZWZr
b3NhMRwwGgYDVQQKExNLS1RDIE1lcmtleiBCYW5rYXNpMSYwJAYDVQQDEx1lLWlz
bGVtLmtrdGNtZXJrZXpiYW5rYXNpLm9yZzEqMCgGCSqGSIb3DQEJARYbaWxldGlA
a2t0Y21lcmtlemJhbmthc2kub3JnMIIBIjANBgkqhkiG9w0BAQEFAAOCAQ8AMIIB
CgKCAQEAw1hUpuRFY67NsZ6C9rzRAPCb9RVpi4nZzJIA1TvIfr4hMPM0X5jseMf5
GvgJQ+cBMZtooDd7BbZNy2z7O5A+8PYFaMDdokCENx2ePIqAVuO6C5UAqM7J3n6R
rhjOvqiw6dTQMbtXhjFao+YMuBVvRuuhGHBDK3Je64T/KLzcmAUlRJEuy+ZMe7Aa
tUaSDr/jy5DMA5xEYOdsnS5Zo30lRG+9vqbxb8CQi+E97sNjY+W4lEgJKQWMNh5r
Cxo4Hinkm3CKyKX3PAS+DDVI3LQiCiIQUOMA2+1P5aTPTkpqlbjqhbWTWAPWOKCF
9d83p3RMXOYt5GahS8rg5u6+toEC1QIDAQABoyMwITAOBgNVHQ8BAf8EBAMCAQYw
DwYDVR0TAQH/BAUwAwEB/zANBgkqhkiG9w0BAQUFAAOCAQEAwjWz5tsUvYORVW8K
JSK/biHFrAnFotMtoTKEewRmnYaYjwXIr1IPaBqhjkGGviLN2eOH/v97Uli6HC4l
zhKHfMQUS9KF/f5nGcH8iQBy/gmFsfJQ1KDC6GNM4CfMGIzyxjYhP0VzdUtKX3PA
l5EqgMUcdqRDy6Ruz55+JkdvCL1nAC7xH+czJcZVwysTdGfLTCh6VtYPgIkeL6U8
3xQAyMuOHm72exJljYFqIsiNvGE0KufCqCuH1PD97IXMrLlwGmKKg5jP349lySBp
Jjm6RDqCTT+6dUl2jkVbeNmco99Y7AOdtLsOdXBMCo5x8lK8zwQWFrzEms0joHXC
pWfGWA==
-----END CERTIFICATE-----
