Certificate:
    Data:
        Version: 3 (0x2)
        Serial Number: 20015536 (0x13169b0)
    Signature Algorithm: sha1WithRSAEncryption
        Issuer: C=NL, O=Staat der Nederlanden, CN=Staat der Nederlanden Overheid CA
        Validity
            Not Before: Jul  5 08:42:07 2007 GMT
            Not After : Jul 27 08:39:46 2015 GMT
        Subject: C=NL, O=DigiNotar B.V., CN=DigiNotar PKIoverheid CA Overheid en Bedrijven
        Subject Public Key Info:
            Public Key Algorithm: rsaEncryption
                Public-Key: (2048 bit)
                Modulus:
                    00:dc:bd:d2:a7:4e:6a:0a:bb:3b:a2:85:e1:7f:00:
                    ad:be:b4:30:68:98:07:cd:a0:7a:c4:94:cf:71:f9:
                    8a:37:e4:53:eb:57:76:cc:8b:e6:6c:fe:ee:87:55:
                    c8:3e:bb:04:39:00:a7:80:78:ac:5b:4f:7e:f4:bd:
                    b8:54:b8:71:3b:07:31:49:39:93:54:7c:20:3b:79:
                    2b:8f:bb:61:90:7d:b1:ac:e6:1f:90:2e:9d:45:01:
                    a9:64:2d:4d:c3:2f:b9:e7:50:d5:4e:2a:5c:ab:76:
                    76:37:46:d7:79:ec:42:99:f7:a2:ec:a4:89:70:dc:
                    38:2b:87:a6:aa:24:e6:9d:92:24:1b:be:f6:fd:d4:
                    2f:19:17:7a:e6:32:07:94:54:05:53:43:e9:6c:bc:
                    af:47:cb:bc:cb:fd:bd:3b:44:12:81:f1:6b:4b:bb:
                    ed:b4:cf:ab:25:4f:18:d2:cc:02:fc:a3:4f:b5:42:
                    33:cb:59:cd:09:dc:d3:50:fd:a0:76:8c:ac:7e:66:
                    8a:42:f6:ad:1c:92:f3:b6:fb:14:46:eb:4d:d7:2f:
                    30:e0:6d:ee:5b:36:be:44:74:b7:20:05:57:85:4d:
                    e8:00:19:a2:f6:0c:e6:ae:a1:c0:42:df:a7:ac:82:
                    5d:c7:68:b7:18:e6:89:4b:9a:6b:fa:ce:79:f9:f3:
                    2c:a7
                Exponent: 65537 (0x10001)
        X509v3 extensions:
            X509v3 Certificate Policies: 
                Policy: X509v3 Any Policy
                  CPS: http://www.diginotar.nl/cps/pkioverheid

            X509v3 Basic Constraints: critical
                CA:TRUE
            X509v3 Key Usage: critical
                Certificate Sign, CRL Sign
            X509v3 Authority Key Identifier: 
                keyid:0B:86:D6:0F:77:A3:68:B1:FB:64:09:C3:88:6E:5C:04:1C:57:E9:3D
                DirName:/C=NL/O=Staat der Nederlanden/CN=Staat der Nederlanden Root CA
                serial:98:9A:79

            X509v3 CRL Distribution Points: 

                Full Name:
                  URI:http://crl.pkioverheid.nl/DomOvLatestCRL.crl

            X509v3 Subject Key Identifier: 
                4C:08:C9:8D:76:F1:98:C7:3E:DF:3C:D7:2F:75:0D:B1:76:79:97:CC
    Signature Algorithm: sha1WithRSAEncryption
         0c:94:87:1a:bf:4d:e3:85:e2:ee:d7:d8:63:79:0e:50:df:c6:
         84:5b:d2:bb:d9:f5:31:0a:1a:35:97:74:df:14:fa:2a:0f:3e:
         ed:a0:e3:08:f6:d5:4e:5b:af:a6:ae:25:e2:45:6b:22:0f:b7:
         54:28:7e:92:de:8d:14:6c:d1:1c:e5:6e:74:04:9c:b7:ef:34:
         44:45:df:c9:83:1d:19:1f:c0:29:69:df:89:d5:3f:c2:b0:53:
         6d:e5:4e:17:e4:73:61:23:13:26:71:43:fd:4c:59:cb:c3:df:
         22:aa:21:2b:d9:bf:95:11:1a:8a:a4:e2:ab:a7:5d:4b:6f:29:
         f5:52:d1:e4:d2:15:b1:8b:fe:f0:03:cf:a7:7d:e9:99:87:38:
         b3:0d:73:14:e4:72:2c:e1:ce:f5:ad:06:48:64:fa:d3:29:b9:
         a2:d8:bb:f4:d5:0b:a5:40:44:43:8e:a0:bf:ce:5a:a5:52:4c:
         64:d3:17:31:61:cc:e8:a4:8a:e8:e4:88:fb:e9:e5:2f:06:33:
         33:9b:94:66:66:b1:ab:50:3a:a1:09:81:74:53:5a:27:b9:a6:
         d2:25:cf:d3:c3:a7:ff:96:d0:2f:ea:e0:1e:8d:52:e9:18:1c:
         20:0a:47:a0:96:56:0e:40:90:51:44:ac:1a:fd:f1:ee:85:1f:
         f7:42:5a:65
-----BEGIN CERTIFICATE-----
MIIEiDCCA3CgAwIBAgIEATFpsDANBgkqhkiG9w0BAQUFADBZMQswCQYDVQQGEwJO
TDEeMBwGA1UEChMVU3RhYXQgZGVyIE5lZGVybGFuZGVuMSowKAYDVQQDEyFTdGFh
dCBkZXIgTmVkZXJsYW5kZW4gT3ZlcmhlaWQgQ0EwHhcNMDcwNzA1MDg0MjA3WhcN
MTUwNzI3MDgzOTQ2WjBfMQswCQYDVQQGEwJOTDEXMBUGA1UEChMORGlnaU5vdGFy
IEIuVi4xNzA1BgNVBAMTLkRpZ2lOb3RhciBQS0lvdmVyaGVpZCBDQSBPdmVyaGVp
ZCBlbiBCZWRyaWp2ZW4wggEiMA0GCSqGSIb3DQEBAQUAA4IBDwAwggEKAoIBAQDc
vdKnTmoKuzuiheF/AK2+tDBomAfNoHrElM9x+Yo35FPrV3bMi+Zs/u6HVcg+uwQ5
AKeAeKxbT370vbhUuHE7BzFJOZNUfCA7eSuPu2GQfbGs5h+QLp1FAalkLU3DL7nn
UNVOKlyrdnY3Rtd57EKZ96LspIlw3Dgrh6aqJOadkiQbvvb91C8ZF3rmMgeUVAVT
Q+lsvK9Hy7zL/b07RBKB8WtLu+20z6slTxjSzAL8o0+1QjPLWc0J3NNQ/aB2jKx+
ZopC9q0ckvO2+xRG603XLzDgbe5bNr5EdLcgBVeFTegAGaL2DOauocBC36esgl3H
aLcY5olLmmv6znn58yynAgMBAAGjggFQMIIBTDBIBgNVHSAEQTA/MD0GBFUdIAAw
NTAzBggrBgEFBQcCARYnaHR0cDovL3d3dy5kaWdpbm90YXIubmwvY3BzL3BraW92
ZXJoZWlkMA8GA1UdEwEB/wQFMAMBAf8wDgYDVR0PAQH/BAQDAgEGMIGABgNVHSME
eTB3gBQLhtYPd6NosftkCcOIblwEHFfpPaFZpFcwVTELMAkGA1UEBhMCTkwxHjAc
BgNVBAoTFVN0YWF0IGRlciBOZWRlcmxhbmRlbjEmMCQGA1UEAxMdU3RhYXQgZGVy
IE5lZGVybGFuZGVuIFJvb3QgQ0GCBACYmnkwPQYDVR0fBDYwNDAyoDCgLoYsaHR0
cDovL2NybC5wa2lvdmVyaGVpZC5ubC9Eb21PdkxhdGVzdENSTC5jcmwwHQYDVR0O
BBYEFEwIyY128ZjHPt881y91DbF2eZfMMA0GCSqGSIb3DQEBBQUAA4IBAQAMlIca
v03jheLu19hjeQ5Q38aEW9K72fUxCho1l3TfFPoqDz7toOMI9tVOW6+mriXiRWsi
D7dUKH6S3o0UbNEc5W50BJy37zRERd/Jgx0ZH8Apad+J1T/CsFNt5U4X5HNhIxMm
cUP9TFnLw98iqiEr2b+VERqKpOKrp11Lbyn1UtHk0hWxi/7wA8+nfemZhzizDXMU
5HIs4c71rQZIZPrTKbmi2Lv01QulQERDjqC/zlqlUkxk0xcxYczopIro5Ij76eUv
BjMzm5RmZrGrUDqhCYF0U1onuabSJc/Tw6f/ltAv6uAejVLpGBwgCkegllYOQJBR
RKwa/fHuhR/3Qlpl
-----END CERTIFICATE-----
