Certificate:
    Data:
        Version: 3 (0x2)
        Serial Number:
            05:64:36:4b:35:94:bb:a4:b2:68:b5:60:31:05:29:3c:dc:d6
        Signature Algorithm: sha256WithRSAEncryption
        Issuer: C=US, O=Let's Encrypt, CN=R12
        Validity
            Not Before: May 17 20:32:22 2026 GMT
            Not After : Aug 15 20:32:21 2026 GMT
        Subject: CN=*.youtube.ug
        Subject Public Key Info:
            Public Key Algorithm: rsaEncryption
                Public-Key: (2048 bit)
                Modulus:
                    00:c0:52:cb:80:85:6b:d9:d9:4c:a3:f7:6d:d1:2f:
                    48:c1:6f:65:54:e4:33:32:19:83:03:0a:77:e7:59:
                    a4:86:e9:35:6a:3e:e1:4d:a0:47:b1:40:0d:5c:48:
                    00:fa:65:f6:04:da:87:91:a6:25:89:bf:4e:39:32:
                    f2:1e:b4:2b:fc:77:78:62:2f:bf:4e:50:d9:75:ab:
                    89:2f:c5:66:a1:66:0e:0a:44:fa:cf:90:77:b6:09:
                    8a:4f:90:d7:23:f2:fb:22:e9:68:4a:d4:e6:d3:54:
                    65:0d:6e:6b:b7:c8:0f:bc:a3:b9:7d:6a:7a:fa:fc:
                    5f:3b:6b:ae:28:9c:01:a5:79:dd:76:a2:34:07:1a:
                    7f:ef:5a:c9:ba:81:38:03:ba:cd:c2:1c:bb:26:d6:
                    22:16:4c:9e:b7:96:db:7f:a8:8c:cf:fd:25:e2:45:
                    da:8d:f1:f1:76:44:ef:45:59:2c:9a:2b:7d:5f:31:
                    bc:c6:b4:b4:bc:b9:dd:5a:9a:fe:b9:b4:3b:15:33:
                    63:77:8e:1a:66:fa:25:3c:3d:53:d4:79:d5:77:fd:
                    63:fc:b5:63:2e:ce:7c:06:20:67:b0:df:07:f6:d7:
                    ab:c7:44:85:8f:a1:c2:62:2d:e9:47:78:e4:2b:96:
                    7d:e7:e4:be:dd:99:cf:2c:1e:82:0e:65:fe:17:3d:
                    0d:55
                Exponent: 65537 (0x10001)
        X509v3 extensions:
            X509v3 Key Usage: critical
                Digital Signature, Key Encipherment
            X509v3 Extended Key Usage: 
                TLS Web Server Authentication
            X509v3 Basic Constraints: critical
                CA:FALSE
            X509v3 Subject Key Identifier: 
                3C:76:F2:7C:58:66:4A:10:AA:39:79:CF:AE:D8:BE:93:F4:96:CD:43
            X509v3 Authority Key Identifier: 
                00:B5:29:F2:2D:8E:6F:31:E8:9B:4C:AD:78:3E:FA:DC:E9:0C:D1:D2
            Authority Information Access: 
                CA Issuers - URI:http://r12.i.lencr.org/
            X509v3 Subject Alternative Name: 
                DNS:*.youtube.ug, DNS:youtube.ug
            X509v3 Certificate Policies: 
                Policy: 2.23.140.1.2.1
            X509v3 CRL Distribution Points: 
                Full Name:
                  URI:http://r12.c.lencr.org/87.crl

            CT Precertificate Poison: critical
                NULL
    Signature Algorithm: sha256WithRSAEncryption
    Signature Value:
        ce:dc:61:e6:95:f9:10:0e:2b:fb:9f:40:94:c7:7f:d8:2a:64:
        b7:26:f4:e6:e7:45:24:43:d5:6e:9d:f3:51:17:84:03:16:c9:
        40:72:b1:de:0a:7a:46:75:32:1f:29:4f:46:99:26:77:8c:b4:
        62:67:3f:90:a0:bd:d3:ff:99:9f:a2:88:aa:b5:de:cc:02:b8:
        b5:b8:fa:26:45:d5:83:e6:f3:f4:84:b7:81:47:09:ed:24:b4:
        3d:3d:c7:79:02:68:74:10:3b:50:cf:6f:b3:f4:a7:de:24:0f:
        bf:16:4c:90:68:80:a7:d6:b4:42:89:47:37:e5:9f:0c:f3:ed:
        44:e2:08:50:f5:58:87:a9:8c:d4:46:df:94:32:8d:03:04:bf:
        b5:b9:54:40:b2:b5:c0:89:b8:60:75:54:1e:72:c6:1b:eb:f1:
        9e:e9:1b:84:47:68:5a:95:33:fd:2c:e8:e9:9f:7e:bc:3c:e2:
        0d:f5:93:a8:5c:72:8f:1d:c8:c5:78:02:e0:4e:96:4d:8e:a2:
        dd:11:1e:52:6a:ed:9f:a3:5a:17:19:06:bd:9a:56:45:42:73:
        34:e6:24:93:83:5f:a1:fa:7b:84:4c:6c:78:aa:46:66:19:8a:
        e9:6a:f7:ad:1d:ca:0e:f4:b5:6e:9f:bf:44:ea:6a:91:96:87:
        9d:c2:e5:b3
-----BEGIN CERTIFICATE-----
MIIEAzCCAuugAwIBAgISBWQ2SzWUu6SyaLVgMQUpPNzWMA0GCSqGSIb3DQEBCwUA
MDMxCzAJBgNVBAYTAlVTMRYwFAYDVQQKEw1MZXQncyBFbmNyeXB0MQwwCgYDVQQD
EwNSMTIwHhcNMjYwNTE3MjAzMjIyWhcNMjYwODE1MjAzMjIxWjAXMRUwEwYDVQQD
DAwqLnlvdXR1YmUudWcwggEiMA0GCSqGSIb3DQEBAQUAA4IBDwAwggEKAoIBAQDA
UsuAhWvZ2Uyj923RL0jBb2VU5DMyGYMDCnfnWaSG6TVqPuFNoEexQA1cSAD6ZfYE
2oeRpiWJv045MvIetCv8d3hiL79OUNl1q4kvxWahZg4KRPrPkHe2CYpPkNcj8vsi
6WhK1ObTVGUNbmu3yA+8o7l9anr6/F87a64onAGled12ojQHGn/vWsm6gTgDus3C
HLsm1iIWTJ63ltt/qIzP/SXiRdqN8fF2RO9FWSyaK31fMbzGtLS8ud1amv65tDsV
M2N3jhpm+iU8PVPUedV3/WP8tWMuznwGIGew3wf216vHRIWPocJiLelHeOQrln3n
5L7dmc8sHoIOZf4XPQ1VAgMBAAGjggErMIIBJzAOBgNVHQ8BAf8EBAMCBaAwEwYD
VR0lBAwwCgYIKwYBBQUHAwEwDAYDVR0TAQH/BAIwADAdBgNVHQ4EFgQUPHbyfFhm
ShCqOXnPrti+k/SWzUMwHwYDVR0jBBgwFoAUALUp8i2ObzHom0yteD763OkM0dIw
MwYIKwYBBQUHAQEEJzAlMCMGCCsGAQUFBzAChhdodHRwOi8vcjEyLmkubGVuY3Iu
b3JnLzAjBgNVHREEHDAaggwqLnlvdXR1YmUudWeCCnlvdXR1YmUudWcwEwYDVR0g
BAwwCjAIBgZngQwBAgEwLgYDVR0fBCcwJTAjoCGgH4YdaHR0cDovL3IxMi5jLmxl
bmNyLm9yZy84Ny5jcmwwEwYKKwYBBAHWeQIEAwEB/wQCBQAwDQYJKoZIhvcNAQEL
BQADggEBAM7cYeaV+RAOK/ufQJTHf9gqZLcm9ObnRSRD1W6d81EXhAMWyUBysd4K
ekZ1Mh8pT0aZJneMtGJnP5CgvdP/mZ+iiKq13swCuLW4+iZF1YPm8/SEt4FHCe0k
tD09x3kCaHQQO1DPb7P0p94kD78WTJBogKfWtEKJRzflnwzz7UTiCFD1WIepjNRG
35QyjQMEv7W5VECytcCJuGB1VB5yxhvr8Z7pG4RHaFqVM/0s6Omffrw84g31k6hc
co8dyMV4AuBOlk2Oot0RHlJq7Z+jWhcZBr2aVkVCczTmJJODX6H6e4RMbHiqRmYZ
iulq960dyg70tW6fv0TqapGWh53C5bM=
-----END CERTIFICATE-----
