Certificate:
    Data:
        Version: 3 (0x2)
        Serial Number: 0 (0x0)
    Signature Algorithm: sha256WithRSAEncryption
        Issuer: C=FR, ST=IDF, L=GUY, O=Aastra, OU=Aastra, CN=Aastra
        Validity
            Not Before: Jun  6 09:32:48 2016 GMT
            Not After : Jun  4 09:32:48 2026 GMT
        Subject: C=FR, ST=IDF, L=GUY, O=Aastra, OU=Aastra, CN=Aastra
        Subject Public Key Info:
            Public Key Algorithm: rsaEncryption
                Public-Key: (1024 bit)
                Modulus:
                    00:ba:85:59:f9:97:e7:f7:b0:b3:21:f6:5f:15:54:
                    e7:ae:d1:03:f3:03:21:e4:4a:cc:a4:2b:21:db:36:
                    11:93:6a:ee:fd:29:b5:a4:f0:90:da:13:65:6c:a8:
                    e9:82:84:07:8c:04:88:19:b1:ab:01:5e:3f:82:c3:
                    e2:ba:dc:6a:f1:2d:dd:58:a4:f3:66:f9:89:3a:4b:
                    28:8d:cd:88:e9:63:18:5c:1a:9e:eb:a6:58:eb:c6:
                    94:b1:99:e3:34:9d:d5:5f:a7:a0:28:5f:3d:cf:84:
                    f6:18:8f:72:8f:50:66:f4:94:f1:2d:2f:66:92:b8:
                    93:f1:41:7a:f5:fb:10:a0:85
                Exponent: 65537 (0x10001)
        X509v3 extensions:
            X509v3 Subject Key Identifier: 
                77:63:16:DA:A4:70:7D:47:85:84:61:00:90:22:88:5D:D4:CB:65:08
            X509v3 Authority Key Identifier: 
                keyid:77:63:16:DA:A4:70:7D:47:85:84:61:00:90:22:88:5D:D4:CB:65:08

            X509v3 Basic Constraints: 
                CA:TRUE
    Signature Algorithm: sha256WithRSAEncryption
         20:f4:98:d8:ea:3d:36:09:ac:aa:30:bb:2f:d6:85:de:74:30:
         47:bb:89:11:35:02:5e:18:cb:49:76:ee:eb:f3:63:36:96:db:
         1e:96:16:26:eb:68:20:a5:85:b5:a3:18:6a:c2:c5:52:16:99:
         6c:ab:a1:e5:75:5a:8a:dd:55:67:43:f0:4c:47:29:e8:3a:25:
         dd:35:08:48:19:09:79:c4:7b:d3:3c:81:96:ba:b8:11:4e:74:
         d7:ad:54:af:e2:e7:b6:25:77:b8:78:da:36:91:c3:8b:14:85:
         a0:60:54:26:33:33:c2:1d:b2:1e:a0:ca:7f:a9:ff:ac:be:14:
         16:b4
-----BEGIN CERTIFICATE-----
MIICfjCCAeegAwIBAgIBADANBgkqhkiG9w0BAQsFADBcMQswCQYDVQQGEwJGUjEM
MAoGA1UECAwDSURGMQwwCgYDVQQHDANHVVkxDzANBgNVBAoMBkFhc3RyYTEPMA0G
A1UECwwGQWFzdHJhMQ8wDQYDVQQDDAZBYXN0cmEwHhcNMTYwNjA2MDkzMjQ4WhcN
MjYwNjA0MDkzMjQ4WjBcMQswCQYDVQQGEwJGUjEMMAoGA1UECAwDSURGMQwwCgYD
VQQHDANHVVkxDzANBgNVBAoMBkFhc3RyYTEPMA0GA1UECwwGQWFzdHJhMQ8wDQYD
VQQDDAZBYXN0cmEwgZ8wDQYJKoZIhvcNAQEBBQADgY0AMIGJAoGBALqFWfmX5/ew
syH2XxVU567RA/MDIeRKzKQrIds2EZNq7v0ptaTwkNoTZWyo6YKEB4wEiBmxqwFe
P4LD4rrcavEt3Vik82b5iTpLKI3NiOljGFwanuumWOvGlLGZ4zSd1V+noChfPc+E
9hiPco9QZvSU8S0vZpK4k/FBevX7EKCFAgMBAAGjUDBOMB0GA1UdDgQWBBR3Yxba
pHB9R4WEYQCQIohd1MtlCDAfBgNVHSMEGDAWgBR3YxbapHB9R4WEYQCQIohd1Mtl
CDAMBgNVHRMEBTADAQH/MA0GCSqGSIb3DQEBCwUAA4GBACD0mNjqPTYJrKowuy/W
hd50MEe7iRE1Al4Yy0l27uvzYzaW2x6WFibraCClhbWjGGrCxVIWmWyroeV1Word
VWdD8ExHKeg6Jd01CEgZCXnEe9M8gZa6uBFOdNetVK/i57Yld7h42jaRw4sUhaBg
VCYzM8Idsh6gyn+p/6y+FBa0
-----END CERTIFICATE-----
