Certificate:
    Data:
        Version: 3 (0x2)
        Serial Number:
            14:ed:7e:90:75:b6:ae:86:8e:1a:3b:02:4f:8a:94:af:c8:f5:db:ba
        Signature Algorithm: sha384WithRSAEncryption
        Issuer: C = BM, O = QuoVadis Limited, CN = QuoVadis Root CA 2 G3
        Validity
            Not Before: Apr 19 18:20:31 2017 GMT
            Not After : Apr 19 18:20:31 2025 GMT
        Subject: C = AE, O = DarkMatter LLC, CN = DarkMatter High Assurance CA
        Subject Public Key Info:
            Public Key Algorithm: rsaEncryption
                RSA Public-Key: (4096 bit)
                Modulus:
                    00:84:e0:4e:84:58:b4:e5:9a:f5:a9:2f:d3:34:10:
                    72:47:7e:d8:6c:7a:ef:74:3d:04:6d:c8:25:fc:7e:
                    21:c4:9d:77:17:f0:3d:68:5c:93:3d:f9:8c:15:cd:
                    44:22:fb:ca:44:9e:35:37:6d:a4:ed:92:c0:0b:48:
                    50:0e:48:c0:6c:90:50:eb:d3:54:6b:21:97:1f:04:
                    44:c8:fb:f8:fc:71:1c:e4:58:90:74:0c:48:c6:33:
                    94:78:9e:61:3b:f7:25:9e:2a:a3:96:1f:93:6b:60:
                    04:c9:aa:13:70:95:fa:76:2a:00:fd:9c:d3:75:ac:
                    01:1a:b4:5e:43:f2:10:ec:70:b7:a1:03:fa:3c:b9:
                    5a:45:64:e4:a4:3d:25:2d:96:85:2d:49:ce:74:39:
                    39:3b:28:0a:12:a0:16:6d:92:dd:85:da:e5:1d:ec:
                    3e:69:fc:8a:2a:83:3a:ad:60:b8:08:d1:6b:69:c8:
                    c0:85:4c:a0:6e:6d:83:a5:36:df:fd:ff:86:7b:e3:
                    7b:63:da:55:a7:45:96:05:0a:93:39:41:03:53:37:
                    52:83:36:92:e2:d4:f0:7e:b9:4c:5e:b3:db:0e:4d:
                    2c:66:f9:98:b6:6d:d9:5e:a1:bd:f8:de:b2:9f:f9:
                    95:94:a8:35:29:30:bd:63:c7:b4:2f:18:d7:02:ee:
                    09:03:c7:e8:85:68:03:57:ae:2a:fc:04:7c:2c:e5:
                    35:98:a5:78:fe:a0:94:da:6c:0e:a0:93:e6:f1:5e:
                    5e:25:8d:eb:9c:db:bf:96:4b:bf:ae:19:02:7c:7f:
                    d2:27:8d:ba:a0:f7:7b:c8:98:d6:39:23:bb:8f:7e:
                    33:2c:7e:62:60:55:7f:89:54:a1:9b:3e:00:a0:6e:
                    fc:36:c1:bd:e0:5f:f3:77:3f:22:6e:32:d3:f2:38:
                    ee:f5:fb:13:de:5e:91:b4:d1:66:cf:5c:71:7d:28:
                    94:ee:2a:59:89:fb:54:75:6b:08:7c:8c:c1:b2:db:
                    dc:53:17:0a:ed:1f:07:26:fe:24:0d:1e:45:49:24:
                    58:13:ee:df:02:6c:5d:e4:bc:32:b5:65:20:4a:4b:
                    84:53:86:ba:ed:76:94:a9:87:13:cb:ce:cd:b5:83:
                    3e:9b:ac:2a:53:6b:c0:6a:34:cb:13:4e:8b:cb:8c:
                    d3:11:86:d4:bd:7d:58:54:aa:05:a9:95:b0:8c:0e:
                    70:f2:45:bb:39:ee:cf:26:74:f8:4c:0d:70:9f:92:
                    63:e7:10:6b:05:41:8f:3a:3a:7d:73:ea:18:1a:06:
                    fc:92:b6:c3:f1:e7:6d:a9:d4:d9:90:a4:e9:ed:e7:
                    8d:9d:d4:25:f2:4e:30:b1:91:63:19:2c:a8:52:9c:
                    09:3e:9b
                Exponent: 65537 (0x10001)
        X509v3 extensions:
            X509v3 Basic Constraints: critical
                CA:TRUE, pathlen:0
            X509v3 Certificate Policies: 
                Policy: 1.3.6.1.4.1.8024.0.2.100.1.2
                  CPS: https://ca.darkmatter.ae/iCPS
                Policy: 2.23.140.1.1
                Policy: 2.16.784.1.1.7.35.2.2.1.1

            Authority Information Access: 
                OCSP - URI:http://ocsp.quovadisglobal.com
                CA Issuers - URI:http://cacerts.darkmatter.ae/qvrca2g3.crt

            X509v3 Key Usage: critical
                Digital Signature, Certificate Sign, CRL Sign
            X509v3 Extended Key Usage: 
                TLS Web Server Authentication, TLS Web Client Authentication, OCSP Signing
            X509v3 Authority Key Identifier: 
                keyid:ED:E7:6F:76:5A:BF:60:EC:49:5B:C6:A5:77:BB:72:16:71:9B:C4:3D

            X509v3 CRL Distribution Points: 

                Full Name:
                  URI:http://crl1.darkmatter.ae/qvrca2g3.crl

                Full Name:
                  URI:http://crl2.darkmatter.ae/qvrca2g3.crl

            X509v3 Subject Key Identifier: 
                5D:F1:FB:6A:67:81:E6:84:5B:57:37:5C:0F:99:B5:DC:9D:44:3B:55
    Signature Algorithm: sha384WithRSAEncryption
         7a:e5:0b:18:d1:70:38:9b:26:5e:a0:ad:4b:ce:9d:d0:7e:83:
         30:e4:0f:af:88:01:51:cd:ed:bc:b8:f6:e0:5c:5b:6c:81:19:
         76:86:1e:9b:fe:04:d4:85:47:07:6b:7e:5b:af:b0:88:b6:aa:
         9a:11:d6:f1:c2:f6:fb:0e:70:3e:fa:79:b3:ab:d2:c8:23:a9:
         5d:24:0b:22:27:25:a2:05:a0:7e:b3:0e:9b:40:dd:84:85:6d:
         0f:f1:6e:7e:a9:25:aa:04:16:3f:04:77:0c:f3:2c:e2:c3:f4:
         d0:72:71:69:83:f0:42:70:86:35:51:02:50:42:ea:f8:bc:c2:
         3b:fd:ea:52:57:6a:bd:bf:0c:16:7b:1b:c1:3d:91:c1:cf:b9:
         b5:b1:18:13:4a:9f:88:b3:37:79:49:cf:91:95:c4:5f:3d:db:
         82:a0:83:d9:75:0b:da:d9:7d:76:bc:5b:c7:f1:7a:bd:9f:b5:
         f6:0a:fd:fd:8a:e6:1c:7e:d4:9b:c9:95:50:30:73:f3:50:dd:
         b2:2e:e4:57:c1:02:4f:8f:e4:fd:13:0a:ab:8c:e4:ca:5d:e6:
         8b:ca:63:21:f4:d0:44:19:46:c4:05:db:44:37:ee:e3:d2:06:
         24:18:07:5d:7c:ee:79:c4:7f:9f:ba:de:52:92:82:76:00:e8:
         03:e2:c0:69:4f:42:1b:ca:d2:52:09:54:8e:88:c3:4a:17:66:
         65:fd:78:14:bc:ec:5c:42:88:16:89:d4:ca:05:eb:2d:a1:2c:
         52:ca:a8:86:49:ae:e0:24:1d:2f:ce:03:75:e2:54:bc:78:b6:
         c2:4b:41:1a:47:e6:3e:5f:b3:40:7a:e8:67:5f:a1:67:8d:07:
         09:53:87:35:74:f2:33:a3:0b:f8:d1:e7:6f:57:b6:da:45:2a:
         94:46:80:89:45:32:1f:11:26:2a:19:be:1f:45:ec:e2:c2:df:
         a4:5c:df:fb:9f:e9:75:18:52:dc:b9:e1:5c:b7:14:5a:62:31:
         bd:6b:37:6d:3b:06:36:1f:76:ab:ec:8f:32:25:f5:cf:2b:e2:
         12:f1:3b:3e:f5:13:16:e8:a6:cb:a7:f9:94:96:5e:88:51:fb:
         e9:4b:24:8f:8c:41:dd:b6:15:ee:44:cf:8f:b6:4e:a7:9e:77:
         ab:27:cb:14:86:61:eb:54:ab:c5:f4:16:42:47:1a:e4:9f:fb:
         35:2c:7f:38:82:c2:17:11:ed:7c:83:49:1c:ba:46:3d:28:8d:
         67:0d:79:59:fb:43:7f:4b:de:2f:f4:ea:d2:b7:49:32:fe:4b:
         73:86:de:57:5b:7a:fa:86:9e:01:01:c7:47:16:6f:d3:22:fa:
         2c:c3:51:22:e9:fa:1b:0d
-----BEGIN CERTIFICATE-----
MIIG8DCCBNigAwIBAgIUFO1+kHW2roaOGjsCT4qUr8j127owDQYJKoZIhvcNAQEM
BQAwSDELMAkGA1UEBhMCQk0xGTAXBgNVBAoTEFF1b1ZhZGlzIExpbWl0ZWQxHjAc
BgNVBAMTFVF1b1ZhZGlzIFJvb3QgQ0EgMiBHMzAeFw0xNzA0MTkxODIwMzFaFw0y
NTA0MTkxODIwMzFaME0xCzAJBgNVBAYTAkFFMRcwFQYDVQQKDA5EYXJrTWF0dGVy
IExMQzElMCMGA1UEAwwcRGFya01hdHRlciBIaWdoIEFzc3VyYW5jZSBDQTCCAiIw
DQYJKoZIhvcNAQEBBQADggIPADCCAgoCggIBAITgToRYtOWa9akv0zQQckd+2Gx6
73Q9BG3IJfx+IcSddxfwPWhckz35jBXNRCL7ykSeNTdtpO2SwAtIUA5IwGyQUOvT
VGshlx8ERMj7+PxxHORYkHQMSMYzlHieYTv3JZ4qo5Yfk2tgBMmqE3CV+nYqAP2c
03WsARq0XkPyEOxwt6ED+jy5WkVk5KQ9JS2WhS1JznQ5OTsoChKgFm2S3YXa5R3s
Pmn8iiqDOq1guAjRa2nIwIVMoG5tg6U23/3/hnvje2PaVadFlgUKkzlBA1M3UoM2
kuLU8H65TF6z2w5NLGb5mLZt2V6hvfjesp/5lZSoNSkwvWPHtC8Y1wLuCQPH6IVo
A1euKvwEfCzlNZileP6glNpsDqCT5vFeXiWN65zbv5ZLv64ZAnx/0ieNuqD3e8iY
1jkju49+Myx+YmBVf4lUoZs+AKBu/DbBveBf83c/Im4y0/I47vX7E95ekbTRZs9c
cX0olO4qWYn7VHVrCHyMwbLb3FMXCu0fByb+JA0eRUkkWBPu3wJsXeS8MrVlIEpL
hFOGuu12lKmHE8vOzbWDPpusKlNrwGo0yxNOi8uM0xGG1L19WFSqBamVsIwOcPJF
uznuzyZ0+EwNcJ+SY+cQawVBjzo6fXPqGBoG/JK2w/HnbanU2ZCk6e3njZ3UJfJO
MLGRYxksqFKcCT6bAgMBAAGjggHLMIIBxzASBgNVHRMBAf8ECDAGAQH/AgEAMF4G
A1UdIARXMFUwOwYMKwYBBAG+WAACZAECMCswKQYIKwYBBQUHAgEWHWh0dHBzOi8v
Y2EuZGFya21hdHRlci5hZS9pQ1BTMAcGBWeBDAEBMA0GC2CGEAEBByMCAgEBMHEG
CCsGAQUFBwEBBGUwYzAqBggrBgEFBQcwAYYeaHR0cDovL29jc3AucXVvdmFkaXNn
bG9iYWwuY29tMDUGCCsGAQUFBzAChilodHRwOi8vY2FjZXJ0cy5kYXJrbWF0dGVy
LmFlL3F2cmNhMmczLmNydDAOBgNVHQ8BAf8EBAMCAYYwJwYDVR0lBCAwHgYIKwYB
BQUHAwEGCCsGAQUFBwMCBggrBgEFBQcDCTAfBgNVHSMEGDAWgBTt5292Wr9g7Elb
xqV3u3IWcZvEPTBlBgNVHR8EXjBcMCygKqAohiZodHRwOi8vY3JsMS5kYXJrbWF0
dGVyLmFlL3F2cmNhMmczLmNybDAsoCqgKIYmaHR0cDovL2NybDIuZGFya21hdHRl
ci5hZS9xdnJjYTJnMy5jcmwwHQYDVR0OBBYEFF3x+2pngeaEW1c3XA+ZtdydRDtV
MA0GCSqGSIb3DQEBDAUAA4ICAQB65QsY0XA4myZeoK1Lzp3QfoMw5A+viAFRze28
uPbgXFtsgRl2hh6b/gTUhUcHa35br7CItqqaEdbxwvb7DnA++nmzq9LII6ldJAsi
JyWiBaB+sw6bQN2EhW0P8W5+qSWqBBY/BHcM8yziw/TQcnFpg/BCcIY1UQJQQur4
vMI7/epSV2q9vwwWexvBPZHBz7m1sRgTSp+Iszd5Sc+RlcRfPduCoIPZdQva2X12
vFvH8Xq9n7X2Cv39iuYcftSbyZVQMHPzUN2yLuRXwQJPj+T9EwqrjOTKXeaLymMh
9NBEGUbEBdtEN+7j0gYkGAddfO55xH+fut5SkoJ2AOgD4sBpT0IbytJSCVSOiMNK
F2Zl/XgUvOxcQogWidTKBestoSxSyqiGSa7gJB0vzgN14lS8eLbCS0EaR+Y+X7NA
euhnX6FnjQcJU4c1dPIzowv40edvV7baRSqURoCJRTIfESYqGb4fReziwt+kXN/7
n+l1GFLcueFctxRaYjG9azdtOwY2H3ar7I8yJfXPK+IS8Ts+9RMW6KbLp/mUll6I
UfvpSySPjEHdthXuRM+Ptk6nnnerJ8sUhmHrVKvF9BZCRxrkn/s1LH84gsIXEe18
g0kcukY9KI1nDXlZ+0N/S94v9OrSt0ky/ktzht5XW3r6hp4BAcdHFm/TIvosw1Ei
6fobDQ==
-----END CERTIFICATE-----
