Certificate:
    Data:
        Version: 3 (0x2)
        Serial Number:
            5a:00:05:12:57:03:c4:58:e8:b3:04:b3:8c:00:01:00:05:12:57
    Signature Algorithm: sha256WithRSAEncryption
        Issuer: C = US, ST = Washington, L = Redmond, O = Microsoft Corporation, OU = Microsoft IT, CN = Microsoft IT SSL SHA2
        Validity
            Not Before: Oct 29 20:09:06 2016 GMT
            Not After : Apr 29 20:09:06 2018 GMT
        Subject: C = US, ST = WA, L = Redmond, O = Microsoft Corporation, OU = Microsoft Corporation, CN = *.sandbox.operations.dynamics.com
        Subject Public Key Info:
            Public Key Algorithm: rsaEncryption
                Public-Key: (2048 bit)
                Modulus:
                    00:ab:37:fc:08:5c:0c:ba:bf:fa:97:a6:f6:ef:9e:
                    70:e9:14:b4:5d:e4:31:3d:13:9a:b5:fd:3a:75:99:
                    75:8d:fa:76:6f:68:09:65:82:e3:bc:25:69:17:de:
                    3a:47:68:e9:04:df:1a:94:f6:27:1e:62:82:c0:14:
                    76:70:5c:f5:80:80:e7:48:dc:45:f6:b5:4d:08:ac:
                    aa:a3:97:84:25:2c:20:09:13:0b:0e:f5:48:0d:ca:
                    77:22:d9:02:36:c0:a0:88:69:b4:7d:ce:03:92:b8:
                    7a:8b:31:88:b5:eb:2e:f5:c2:52:05:96:3c:6f:73:
                    09:9a:18:4a:5a:68:b3:65:be:42:e6:5b:21:8b:20:
                    5d:4f:88:ff:77:8d:58:0e:7e:53:60:34:f6:34:16:
                    6e:13:fb:65:83:03:b9:c4:0d:1f:28:9d:15:90:0a:
                    e8:70:37:bf:a9:b5:b5:77:7f:c2:f3:62:c8:ac:0f:
                    c9:11:3e:d9:79:70:0c:54:0b:6d:ce:08:8a:50:9f:
                    66:5b:1c:23:6d:72:d8:47:e4:84:b9:f5:cd:62:18:
                    5b:55:36:6c:3b:c4:55:be:40:b9:de:f4:44:b0:c1:
                    d4:71:9a:93:11:ea:87:74:df:51:49:8b:fe:26:de:
                    b5:62:94:41:58:3f:9a:dc:75:fa:d7:9b:e9:61:03:
                    6a:f5
                Exponent: 65537 (0x10001)
        X509v3 extensions:
            S/MIME Capabilities: 
                0i0...*.H........0...*.H........0...`.H.e...*0...`.H.e...-0...`.H.e....0...`.H.e....0...+....0
..*.H....
            X509v3 Subject Key Identifier: 
                56:1B:B7:4A:C0:FB:52:46:1F:E6:8A:12:48:E2:F4:E0:67:7A:4B:A1
            X509v3 Key Usage: 
                Digital Signature, Key Encipherment, Data Encipherment
            X509v3 Authority Key Identifier: 
                keyid:51:AF:24:26:9C:F4:68:22:57:80:26:2B:3B:46:62:15:7B:1E:CC:A5

            X509v3 CRL Distribution Points: 

                Full Name:
                  URI:http://mscrl.microsoft.com/pki/mscorp/crl/msitwww2.crl
                  URI:http://crl.microsoft.com/pki/mscorp/crl/msitwww2.crl

            Authority Information Access: 
                CA Issuers - URI:http://www.microsoft.com/pki/mscorp/msitwww2.crt
                OCSP - URI:http://ocsp.msocsp.com

            1.3.6.1.4.1.311.21.7: 
                0..&+.....7.....M..........}...t.O...|...2..d...
            X509v3 Extended Key Usage: 
                TLS Web Server Authentication, TLS Web Client Authentication
            X509v3 Certificate Policies: 
                Policy: 1.3.6.1.4.1.311.42.1
                  CPS: http://www.microsoft.com/pki/mscorp/cps

            1.3.6.1.4.1.311.21.10: 
                0.0
..+.......0
..+.......
            X509v3 Subject Alternative Name: 
                DNS:*.sandbox.operations.dynamics.com
    Signature Algorithm: sha256WithRSAEncryption
         c9:0f:b9:65:36:71:82:36:b6:2b:52:ea:65:d2:b4:3a:0d:d7:
         7b:01:16:3b:a7:65:ea:a3:b5:37:27:be:09:04:21:e3:36:57:
         5e:57:be:d4:c2:b2:09:1a:2e:bc:ed:2a:d2:6e:d4:c0:dc:ce:
         f7:f3:d0:84:3a:f5:e4:b1:cc:ff:c5:23:bf:2b:a5:2f:83:4c:
         16:d0:05:9c:6a:2c:67:70:c6:7b:52:d6:e5:d8:38:dc:13:3c:
         02:39:1b:8d:af:cc:41:1a:8a:f1:a0:37:29:04:c0:63:5d:53:
         c2:e5:2d:8d:76:c5:1a:3c:de:56:2e:ab:e3:8a:42:81:ab:4c:
         2c:03:62:27:11:5b:03:cf:b6:22:3f:7e:66:c7:ec:5c:4a:71:
         f3:f3:04:23:09:56:13:55:c7:a0:d9:1b:75:23:16:ad:86:58:
         65:54:4d:65:44:3b:52:5b:5c:4f:86:54:e8:e5:62:72:0d:52:
         66:b6:98:ce:5a:a2:40:52:ca:89:b3:37:9e:9e:e4:07:e1:b5:
         89:bd:28:a3:c0:be:0d:6e:90:5e:7b:75:9a:b7:7b:d6:dc:a2:
         f9:79:4f:a4:a7:92:99:6c:ae:d8:4c:13:70:e4:1c:ff:e4:49:
         0a:91:5b:02:54:3f:09:fc:7a:47:0c:44:8c:af:75:79:20:d5:
         0c:bc:88:fc:3d:84:a0:89:5a:ad:fc:36:f3:bf:84:f0:61:45:
         75:49:07:8d:64:fb:f5:ff:00:94:6a:a7:4a:ef:33:55:1a:c6:
         a7:fa:12:38:c3:df:bd:c9:ba:78:e6:4b:db:72:5f:3f:b6:40:
         2e:32:10:83:c1:5b:17:89:97:de:20:8d:26:6e:3f:fd:d5:e9:
         a1:6b:e0:e7:4c:23:e4:a1:76:c4:f0:d4:55:2a:2f:5a:7a:69:
         66:d0:8f:a9:eb:f4:13:1e:8b:91:ef:4a:54:9c:e4:0d:50:9d:
         ca:80:17:37:f8:07:bb:75:68:a3:8a:2b:8e:9b:b6:c7:7d:71:
         0c:0d:f6:85:1d:eb:37:75:e8:72:a4:27:94:9e:1e:07:a7:bc:
         bc:dd:96:59:c3:67:76:67:39:56:87:fd:ce:c8:49:0f:00:c8:
         b2:ea:bc:e2:17:88:1c:ee:17:62:4f:4f:01:e1:00:66:c6:9f:
         a4:1f:97:78:32:74:d9:09:40:10:ed:11:d4:b0:58:db:50:e2:
         8c:d5:5a:16:e0:e3:dd:09:30:22:fb:a1:0e:61:aa:71:94:53:
         5f:5e:7b:8a:0a:cb:87:fe:89:ce:2b:ae:f3:c7:bc:36:37:24:
         aa:ec:73:0f:9e:1e:87:e0:e4:c1:b4:60:cb:fa:61:13:f8:67:
         41:3c:52:fd:4b:9c:07:a7
-----BEGIN CERTIFICATE-----
MIIHdTCCBV2gAwIBAgITWgAFElcDxFjoswSzjAABAAUSVzANBgkqhkiG9w0BAQsF
ADCBizELMAkGA1UEBhMCVVMxEzARBgNVBAgTCldhc2hpbmd0b24xEDAOBgNVBAcT
B1JlZG1vbmQxHjAcBgNVBAoTFU1pY3Jvc29mdCBDb3Jwb3JhdGlvbjEVMBMGA1UE
CxMMTWljcm9zb2Z0IElUMR4wHAYDVQQDExVNaWNyb3NvZnQgSVQgU1NMIFNIQTIw
HhcNMTYxMDI5MjAwOTA2WhcNMTgwNDI5MjAwOTA2WjCBmDELMAkGA1UEBhMCVVMx
CzAJBgNVBAgTAldBMRAwDgYDVQQHEwdSZWRtb25kMR4wHAYDVQQKExVNaWNyb3Nv
ZnQgQ29ycG9yYXRpb24xHjAcBgNVBAsTFU1pY3Jvc29mdCBDb3Jwb3JhdGlvbjEq
MCgGA1UEAwwhKi5zYW5kYm94Lm9wZXJhdGlvbnMuZHluYW1pY3MuY29tMIIBIjAN
BgkqhkiG9w0BAQEFAAOCAQ8AMIIBCgKCAQEAqzf8CFwMur/6l6b2755w6RS0XeQx
PROatf06dZl1jfp2b2gJZYLjvCVpF946R2jpBN8alPYnHmKCwBR2cFz1gIDnSNxF
9rVNCKyqo5eEJSwgCRMLDvVIDcp3ItkCNsCgiGm0fc4Dkrh6izGItesu9cJSBZY8
b3MJmhhKWmizZb5C5lshiyBdT4j/d41YDn5TYDT2NBZuE/tlgwO5xA0fKJ0VkAro
cDe/qbW1d3/C82LIrA/JET7ZeXAMVAttzgiKUJ9mWxwjbXLYR+SEufXNYhhbVTZs
O8RVvkC53vREsMHUcZqTEeqHdN9RSYv+Jt61YpRBWD+a3HX615vpYQNq9QIDAQAB
o4ICwTCCAr0weAYJKoZIhvcNAQkPBGswaTAOBggqhkiG9w0DAgICAIAwDgYIKoZI
hvcNAwQCAgCAMAsGCWCGSAFlAwQBKjALBglghkgBZQMEAS0wCwYJYIZIAWUDBAEC
MAsGCWCGSAFlAwQBBTAHBgUrDgMCBzAKBggqhkiG9w0DBzAdBgNVHQ4EFgQUVhu3
SsD7UkYf5ooSSOL04Gd6S6EwCwYDVR0PBAQDAgSwMB8GA1UdIwQYMBaAFFGvJCac
9GgiV4AmKztGYhV7HsylMH0GA1UdHwR2MHQwcqBwoG6GNmh0dHA6Ly9tc2NybC5t
aWNyb3NvZnQuY29tL3BraS9tc2NvcnAvY3JsL21zaXR3d3cyLmNybIY0aHR0cDov
L2NybC5taWNyb3NvZnQuY29tL3BraS9tc2NvcnAvY3JsL21zaXR3d3cyLmNybDBw
BggrBgEFBQcBAQRkMGIwPAYIKwYBBQUHMAKGMGh0dHA6Ly93d3cubWljcm9zb2Z0
LmNvbS9wa2kvbXNjb3JwL21zaXR3d3cyLmNydDAiBggrBgEFBQcwAYYWaHR0cDov
L29jc3AubXNvY3NwLmNvbTA9BgkrBgEEAYI3FQcEMDAuBiYrBgEEAYI3FQiDz4lN
rfIChaGfDIL6yn2B4ft0gU+HtM98gc26MgIBZAIBGTAdBgNVHSUEFjAUBggrBgEF
BQcDAQYIKwYBBQUHAwIwTgYDVR0gBEcwRTBDBgkrBgEEAYI3KgEwNjA0BggrBgEF
BQcCARYoaHR0cDovL3d3dy5taWNyb3NvZnQuY29tL3BraS9tc2NvcnAvY3BzADAn
BgkrBgEEAYI3FQoEGjAYMAoGCCsGAQUFBwMBMAoGCCsGAQUFBwMCMCwGA1UdEQQl
MCOCISouc2FuZGJveC5vcGVyYXRpb25zLmR5bmFtaWNzLmNvbTANBgkqhkiG9w0B
AQsFAAOCAgEAyQ+5ZTZxgja2K1LqZdK0Og3XewEWO6dl6qO1Nye+CQQh4zZXXle+
1MKyCRouvO0q0m7UwNzO9/PQhDr15LHM/8UjvyulL4NMFtAFnGosZ3DGe1LW5dg4
3BM8Ajkbja/MQRqK8aA3KQTAY11TwuUtjXbFGjzeVi6r44pCgatMLANiJxFbA8+2
Ij9+ZsfsXEpx8/MEIwlWE1XHoNkbdSMWrYZYZVRNZUQ7UltcT4ZU6OVicg1SZraY
zlqiQFLKibM3np7kB+G1ib0oo8C+DW6QXnt1mrd71tyi+XlPpKeSmWyu2EwTcOQc
/+RJCpFbAlQ/Cfx6RwxEjK91eSDVDLyI/D2EoIlarfw287+E8GFFdUkHjWT79f8A
lGqnSu8zVRrGp/oSOMPfvcm6eOZL23JfP7ZALjIQg8FbF4mX3iCNJm4//dXpoWvg
50wj5KF2xPDUVSovWnppZtCPqev0Ex6Lke9KVJzkDVCdyoAXN/gHu3Voo4orjpu2
x31xDA32hR3rN3XocqQnlJ4eB6e8vN2WWcNndmc5Vof9zshJDwDIsuq84heIHO4X
Yk9PAeEAZsafpB+XeDJ02QlAEO0R1LBY21DijNVaFuDj3QkwIvuhDmGqcZRTX157
igrLh/6Jziuu88e8NjckquxzD54eh+DkwbRgy/phE/hnQTxS/UucB6c=
-----END CERTIFICATE-----
