Certificate:
    Data:
        Version: 3 (0x2)
        Serial Number:
            3e:0c:9e:87:69:aa:95:5c:ea:23:d8:45:9e:d4:5b:51
    Signature Algorithm: sha1WithRSAEncryption
        Issuer: C=US, O=VeriSign, Inc., OU=VeriSign Trust Network, OU=(c) 1999 VeriSign, Inc. - For authorized use only, CN=VeriSign Class 3 Public Primary Certification Authority - G3
        Validity
            Not Before: May 18 00:00:00 2008 GMT
            Not After : May 17 23:59:59 2018 GMT
        Subject: C=EG, O=Egypt Trust, OU=VeriSign Trust Network, OU=Terms of use at https://www.egypttrust.com/repository/rpa (c)08, CN=Egypt Trust Class 3 Managed PKI Operational Administrator CA
        Subject Public Key Info:
            Public Key Algorithm: rsaEncryption
                Public-Key: (2048 bit)
                Modulus:
                    00:c2:38:2e:af:54:92:8c:27:8b:ca:40:10:ee:01:
                    5d:a5:9c:d9:09:2a:05:e8:f7:c9:73:89:11:0f:e4:
                    6e:fb:d8:cd:3c:60:02:a4:48:9f:e2:0b:d5:c0:b5:
                    e6:a7:db:d9:3d:ec:e7:9b:2b:97:71:c3:87:9f:09:
                    01:e0:9d:e9:21:5b:29:3d:af:28:eb:a7:6c:69:db:
                    88:bf:13:eb:0d:c9:d2:32:69:06:e5:67:53:a6:4a:
                    c7:12:5d:4e:68:28:c3:6f:ac:fa:54:e6:d8:6f:dc:
                    98:bf:71:4a:34:d0:8f:aa:c1:fe:15:fb:14:3a:13:
                    8b:0e:d5:48:92:7e:77:03:d9:9a:ed:2e:9e:be:6d:
                    45:c6:f7:55:46:65:db:16:88:5c:c5:a2:1e:c0:b4:
                    ed:83:41:2b:38:8c:79:ed:ff:e8:61:c0:9d:13:e1:
                    a2:95:29:54:59:28:a3:52:24:68:b5:f9:75:91:d2:
                    6d:30:5e:97:35:87:f2:15:c4:55:d4:50:ac:e6:d5:
                    3a:a2:35:69:35:9c:2f:18:a7:a3:64:92:11:e3:af:
                    85:b0:c6:58:4e:8c:22:ac:f0:e6:be:38:e5:25:b5:
                    97:61:1f:15:39:33:60:02:cd:40:43:59:1f:bc:47:
                    c0:15:ab:bd:2e:bf:22:94:8b:91:92:2b:61:c2:48:
                    f3:6b
                Exponent: 65537 (0x10001)
        X509v3 extensions:
            X509v3 Basic Constraints: critical
                CA:TRUE, pathlen:0
            X509v3 Certificate Policies: 
                Policy: 2.16.840.1.113733.1.7.23.3
                  CPS: https://www.egypttrust.com/repository/cps
                  User Notice:
                    Explicit Text: https://www.egypttrust.com/repository/rpa

            X509v3 Key Usage: critical
                Certificate Sign, CRL Sign
            Netscape Cert Type: 
                SSL CA, S/MIME CA
            X509v3 Subject Key Identifier: 
                A7:4B:02:C9:76:5B:7E:E0:AB:4C:17:EB:5A:75:69:C6:C4:E5:05:DC
            X509v3 Authority Key Identifier: 
                DirName:/C=US/O=VeriSign, Inc./OU=VeriSign Trust Network/OU=(c) 1999 VeriSign, Inc. - For authorized use only/CN=VeriSign Class 3 Public Primary Certification Authority - G3
                serial:9B:7E:06:49:A3:3E:62:B9:D5:EE:90:48:71:29:EF:57

    Signature Algorithm: sha1WithRSAEncryption
         47:ac:be:84:8c:a7:af:63:88:d7:fc:a7:46:f5:c2:15:8e:99:
         a6:93:33:0c:d0:cf:75:91:06:41:38:8e:ac:99:6b:c0:4b:ca:
         f5:a9:7e:d6:89:11:26:f1:c6:93:f2:07:67:dc:8a:4b:89:b9:
         a4:e8:10:87:f7:7f:65:21:65:d6:cf:9b:10:c0:9d:60:4a:1f:
         57:99:ae:e3:86:53:39:c4:b4:5c:ae:3c:14:5e:90:5e:41:e9:
         ff:7b:4a:ea:b9:78:49:2c:b0:da:a1:50:67:95:7e:3b:d6:75:
         e3:64:a8:50:cc:db:ed:07:bc:86:9b:c2:b5:bd:ec:5b:ed:e1:
         c1:05:b3:f4:c3:d4:9d:33:91:37:06:5a:2f:76:9c:e8:d6:e2:
         6e:8e:77:3b:80:89:05:20:2a:11:19:e6:81:34:5e:91:d4:7d:
         fc:a4:59:1c:4a:42:42:42:73:6f:89:97:e1:09:e7:8a:91:f0:
         c0:de:4c:c2:d2:aa:76:81:e2:66:60:e2:48:08:d5:8d:a0:d6:
         f8:6a:11:4b:af:f7:56:5b:03:1b:90:68:45:eb:cc:50:85:0c:
         3e:01:dc:af:fb:07:39:54:30:56:60:36:42:13:1b:64:ae:3b:
         c7:c5:ad:24:80:70:46:d5:60:2c:d2:ed:e3:c1:2e:b5:a2:cd:
         06:8c:b0:65
-----BEGIN CERTIFICATE-----
MIIGCjCCBPKgAwIBAgIQPgyeh2mqlVzqI9hFntRbUTANBgkqhkiG9w0BAQUFADCB
yjELMAkGA1UEBhMCVVMxFzAVBgNVBAoTDlZlcmlTaWduLCBJbmMuMR8wHQYDVQQL
ExZWZXJpU2lnbiBUcnVzdCBOZXR3b3JrMTowOAYDVQQLEzEoYykgMTk5OSBWZXJp
U2lnbiwgSW5jLiAtIEZvciBhdXRob3JpemVkIHVzZSBvbmx5MUUwQwYDVQQDEzxW
ZXJpU2lnbiBDbGFzcyAzIFB1YmxpYyBQcmltYXJ5IENlcnRpZmljYXRpb24gQXV0
aG9yaXR5IC0gRzMwHhcNMDgwNTE4MDAwMDAwWhcNMTgwNTE3MjM1OTU5WjCB1TEL
MAkGA1UEBhMCRUcxFDASBgNVBAoTC0VneXB0IFRydXN0MR8wHQYDVQQLExZWZXJp
U2lnbiBUcnVzdCBOZXR3b3JrMUgwRgYDVQQLEz9UZXJtcyBvZiB1c2UgYXQgaHR0
cHM6Ly93d3cuZWd5cHR0cnVzdC5jb20vcmVwb3NpdG9yeS9ycGEgKGMpMDgxRTBD
BgNVBAMTPEVneXB0IFRydXN0IENsYXNzIDMgTWFuYWdlZCBQS0kgT3BlcmF0aW9u
YWwgQWRtaW5pc3RyYXRvciBDQTCCASIwDQYJKoZIhvcNAQEBBQADggEPADCCAQoC
ggEBAMI4Lq9Ukowni8pAEO4BXaWc2QkqBej3yXOJEQ/kbvvYzTxgAqRIn+IL1cC1
5qfb2T3s55srl3HDh58JAeCd6SFbKT2vKOunbGnbiL8T6w3J0jJpBuVnU6ZKxxJd
Tmgow2+s+lTm2G/cmL9xSjTQj6rB/hX7FDoTiw7VSJJ+dwPZmu0unr5tRcb3VUZl
2xaIXMWiHsC07YNBKziMee3/6GHAnRPhopUpVFkoo1IkaLX5dZHSbTBelzWH8hXE
VdRQrObVOqI1aTWcLxino2SSEeOvhbDGWE6MIqzw5r445SW1l2EfFTkzYALNQENZ
H7xHwBWrvS6/IpSLkZIrYcJI82sCAwEAAaOCAd0wggHZMBIGA1UdEwEB/wQIMAYB
Af8CAQAwgYwGA1UdIASBhDCBgTB/BgtghkgBhvhFAQcXAzBwMDUGCCsGAQUFBwIB
FilodHRwczovL3d3dy5lZ3lwdHRydXN0LmNvbS9yZXBvc2l0b3J5L2NwczA3Bggr
BgEFBQcCAjArGilodHRwczovL3d3dy5lZ3lwdHRydXN0LmNvbS9yZXBvc2l0b3J5
L3JwYTAOBgNVHQ8BAf8EBAMCAQYwEQYJYIZIAYb4QgEBBAQDAgEGMB0GA1UdDgQW
BBSnSwLJdlt+4KtMF+tadWnGxOUF3DCB8QYDVR0jBIHpMIHmoYHQpIHNMIHKMQsw
CQYDVQQGEwJVUzEXMBUGA1UEChMOVmVyaVNpZ24sIEluYy4xHzAdBgNVBAsTFlZl
cmlTaWduIFRydXN0IE5ldHdvcmsxOjA4BgNVBAsTMShjKSAxOTk5IFZlcmlTaWdu
LCBJbmMuIC0gRm9yIGF1dGhvcml6ZWQgdXNlIG9ubHkxRTBDBgNVBAMTPFZlcmlT
aWduIENsYXNzIDMgUHVibGljIFByaW1hcnkgQ2VydGlmaWNhdGlvbiBBdXRob3Jp
dHkgLSBHM4IRAJt+BkmjPmK51e6QSHEp71cwDQYJKoZIhvcNAQEFBQADggEBAEes
voSMp69jiNf8p0b1whWOmaaTMwzQz3WRBkE4jqyZa8BLyvWpftaJESbxxpPyB2fc
ikuJuaToEIf3f2UhZdbPmxDAnWBKH1eZruOGUznEtFyuPBRekF5B6f97Suq5eEks
sNqhUGeVfjvWdeNkqFDM2+0HvIabwrW97Fvt4cEFs/TD1J0zkTcGWi92nOjW4m6O
dzuAiQUgKhEZ5oE0XpHUffykWRxKQkJCc2+Jl+EJ54qR8MDeTMLSqnaB4mZg4kgI
1Y2g1vhqEUuv91ZbAxuQaEXrzFCFDD4B3K/7BzlUMFZgNkITG2SuO8fFrSSAcEbV
YCzS7ePBLrWizQaMsGU=
-----END CERTIFICATE-----
