Certificate:
    Data:
        Version: 3 (0x2)
        Serial Number: 2087 (0x827)
    Signature Algorithm: sha1WithRSAEncryption
        Issuer: CN=T\xC3\x9CRKTRUST Elektronik Sunucu Sertifikas\xC4\xB1 Hizmetleri, C=TR, O=T\xC3\x9CRKTRUST Bilgi \xC4\xB0leti\xC5\x9Fim ve Bili\xC5\x9Fim G\xC3\xBCvenli\xC4\x9Fi Hizmetleri A.\xC5\x9E. (c) Kas\xC4\xB1m  2005
        Validity
            Not Before: Aug  8 07:07:51 2011 GMT
            Not After : Jul  6 07:07:51 2021 GMT
        Subject: C=TR, ST=ANKARA, L=ANKARA, O=EGO, OU=EGO BILGI ISLEM, CN=*.EGO.GOV.TR
        Subject Public Key Info:
            Public Key Algorithm: rsaEncryption
                Public-Key: (2048 bit)
                Modulus:
                    00:bf:9c:e8:8f:60:69:76:5e:d1:d4:cf:f3:17:a4:
                    1f:e2:cb:b6:17:cb:c3:a8:84:8a:be:e4:ee:c8:98:
                    4d:00:78:45:18:70:ac:1e:36:a2:c4:63:07:b2:9b:
                    b3:d2:5d:d5:e7:49:2a:fc:40:96:6c:df:24:29:a7:
                    93:ac:1d:75:d9:03:ab:59:35:36:ef:a8:ae:a7:51:
                    a1:f8:e9:44:3a:24:7d:be:54:38:54:03:f4:d1:d5:
                    94:8c:3e:b3:f4:74:05:0a:2f:16:dc:4b:04:b6:28:
                    87:89:83:94:f4:17:0f:a4:f9:1a:51:b1:02:c0:fe:
                    27:19:5c:11:f1:a3:f0:84:1e:4f:18:12:5c:f7:ca:
                    e8:99:db:dc:89:89:14:a5:23:8e:c2:4b:92:46:da:
                    28:03:bb:51:94:b1:6e:ef:64:1a:36:95:cd:d4:db:
                    9e:07:7e:88:dd:a6:a3:3e:4d:18:ca:25:f2:db:0f:
                    17:96:02:bb:40:8e:0f:49:20:67:4a:af:90:6e:51:
                    68:71:65:66:2e:11:7d:e2:37:bb:a7:2e:a5:0a:79:
                    65:ac:81:57:a5:1d:c5:59:92:c3:e4:67:08:e8:72:
                    a5:05:2e:fc:01:0f:88:30:12:c5:1e:1b:04:57:0e:
                    4d:42:3f:74:72:14:99:0a:57:c1:58:16:73:21:a5:
                    7d:47
                Exponent: 65537 (0x10001)
        X509v3 extensions:
            X509v3 Authority Key Identifier: 
                keyid:AB:4E:36:03:30:D2:DB:D5:0A:68:BE:87:A5:50:6C:FC:F6:70:A5:25

            X509v3 Subject Key Identifier: 
                64:FB:1B:86:3D:B8:4A:F2:44:82:F9:56:3D:EA:26:C0:F4:E3:B3:34
            X509v3 Key Usage: critical
                Certificate Sign, CRL Sign
            X509v3 Certificate Policies: 
                Policy: 2.16.792.3.0.3.1.1.1
                  CPS: http://www.turktrust.com.tr/sue

            X509v3 Basic Constraints: critical
                CA:TRUE
            X509v3 CRL Distribution Points: 

                Full Name:
                  URI:http://www.turktrust.com.tr/sil/TURKTRUST_SSL_SIL_s2.crl

            Authority Information Access: 
                CA Issuers - URI:http://www.turktrust.com.tr/sertifikalar/TURKTRUST_Elektronik_Sunucu_Sertifikasi_Hizmetleri_s2.crt
                OCSP - URI:http://ocsp.turktrust.com.tr

    Signature Algorithm: sha1WithRSAEncryption
         8f:cf:50:08:2c:a8:5b:44:b6:d0:47:18:0d:90:27:bc:52:c5:
         9a:8b:a0:2b:de:c1:b7:af:22:57:53:8c:eb:6d:be:0b:27:b2:
         7f:84:b3:fb:52:c1:93:57:fd:9e:2d:df:19:3d:10:f9:15:99:
         25:85:aa:e5:8b:92:06:22:d5:82:4d:cd:2d:cc:67:c1:ed:f0:
         9a:7b:c4:ad:48:2a:d5:00:ed:01:a3:65:05:63:04:32:49:4e:
         95:61:9f:27:47:96:6a:29:65:52:c9:09:6c:37:78:2b:08:19:
         1c:31:23:ee:0f:e3:60:44:2a:53:5b:74:ce:82:5d:c0:cf:f3:
         36:c9:cb:1e:48:70:71:66:79:3d:09:e7:6e:97:df:d4:2b:7f:
         d4:b1:ff:f2:97:72:d9:e4:43:99:19:aa:9e:22:d4:87:ca:f6:
         95:97:c9:7a:e7:55:64:6e:b2:21:bc:6c:a8:fd:ed:d8:90:aa:
         e5:cd:8f:d6:30:e1:00:61:77:83:d0:e2:b2:41:f4:0b:3b:11:
         75:b5:69:a1:67:6b:f8:f6:35:5f:3f:f5:f4:6f:17:12:95:fd:
         af:e2:01:26:12:dd:6e:4a:55:a3:44:21:d0:0d:74:9b:31:4f:
         fc:65:24:e5:ff:fc:9e:1a:36:1e:f2:da:54:c8:56:bf:5a:8a:
         70:5f:08:85
-----BEGIN CERTIFICATE-----
MIIFPTCCBCWgAwIBAgICCCcwDQYJKoZIhvcNAQEFBQAwgawxPTA7BgNVBAMMNFTD
nFJLVFJVU1QgRWxla3Ryb25payBTdW51Y3UgU2VydGlmaWthc8SxIEhpem1ldGxl
cmkxCzAJBgNVBAYTAlRSMV4wXAYDVQQKDFVUw5xSS1RSVVNUIEJpbGdpIMSwbGV0
acWfaW0gdmUgQmlsacWfaW0gR8O8dmVubGnEn2kgSGl6bWV0bGVyaSBBLsWeLiAo
YykgS2FzxLFtICAyMDA1MB4XDTExMDgwODA3MDc1MVoXDTIxMDcwNjA3MDc1MVow
bjELMAkGA1UEBhMCVFIxDzANBgNVBAgMBkFOS0FSQTEPMA0GA1UEBwwGQU5LQVJB
MQwwCgYDVQQKDANFR08xGDAWBgNVBAsMD0VHTyBCSUxHSSBJU0xFTTEVMBMGA1UE
AwwMKi5FR08uR09WLlRSMIIBIjANBgkqhkiG9w0BAQEFAAOCAQ8AMIIBCgKCAQEA
v5zoj2Bpdl7R1M/zF6Qf4su2F8vDqISKvuTuyJhNAHhFGHCsHjaixGMHspuz0l3V
50kq/ECWbN8kKaeTrB112QOrWTU276iup1Gh+OlEOiR9vlQ4VAP00dWUjD6z9HQF
Ci8W3EsEtiiHiYOU9BcPpPkaUbECwP4nGVwR8aPwhB5PGBJc98romdvciYkUpSOO
wkuSRtooA7tRlLFu72QaNpXN1NueB36I3aajPk0YyiXy2w8XlgK7QI4PSSBnSq+Q
blFocWVmLhF94je7py6lCnllrIFXpR3FWZLD5GcI6HKlBS78AQ+IMBLFHhsEVw5N
Qj90chSZClfBWBZzIaV9RwIDAQABo4IBpDCCAaAwHwYDVR0jBBgwFoAUq042AzDS
29UKaL6HpVBs/PZwpSUwHQYDVR0OBBYEFGT7G4Y9uEryRIL5Vj3qJsD047M0MA4G
A1UdDwEB/wQEAwIBBjBFBgNVHSAEPjA8MDoGCWCGGAMAAwEBATAtMCsGCCsGAQUF
BwIBFh9odHRwOi8vd3d3LnR1cmt0cnVzdC5jb20udHIvc3VlMA8GA1UdEwEB/wQF
MAMBAf8wSQYDVR0fBEIwQDA+oDygOoY4aHR0cDovL3d3dy50dXJrdHJ1c3QuY29t
LnRyL3NpbC9UVVJLVFJVU1RfU1NMX1NJTF9zMi5jcmwwgaoGCCsGAQUFBwEBBIGd
MIGaMG4GCCsGAQUFBzAChmJodHRwOi8vd3d3LnR1cmt0cnVzdC5jb20udHIvc2Vy
dGlmaWthbGFyL1RVUktUUlVTVF9FbGVrdHJvbmlrX1N1bnVjdV9TZXJ0aWZpa2Fz
aV9IaXptZXRsZXJpX3MyLmNydDAoBggrBgEFBQcwAYYcaHR0cDovL29jc3AudHVy
a3RydXN0LmNvbS50cjANBgkqhkiG9w0BAQUFAAOCAQEAj89QCCyoW0S20EcYDZAn
vFLFmougK97Bt68iV1OM622+Cyeyf4Sz+1LBk1f9ni3fGT0Q+RWZJYWq5YuSBiLV
gk3NLcxnwe3wmnvErUgq1QDtAaNlBWMEMklOlWGfJ0eWaillUskJbDd4KwgZHDEj
7g/jYEQqU1t0zoJdwM/zNsnLHkhwcWZ5PQnnbpff1Ct/1LH/8pdy2eRDmRmqniLU
h8r2lZfJeudVZG6yIbxsqP3t2JCq5c2P1jDhAGF3g9DiskH0CzsRdbVpoWdr+PY1
Xz/19G8XEpX9r+IBJhLdbkpVo0Qh0A10mzFP/GUk5f/8nho2HvLaVMhWv1qKcF8I
hQ==
-----END CERTIFICATE-----
