Certificate:
    Data:
        Version: 3 (0x2)
        Serial Number: 1184640176 (0x469c2cb0)
    Signature Algorithm: sha1WithRSAEncryption
        Issuer: C=US, O=Entrust.net, OU=www.entrust.net/CPS incorp. by ref. (limits liab.), OU=(c) 1999 Entrust.net Limited, CN=Entrust.net Secure Server Certification Authority
        Validity
            Not Before: Jul 26 15:59:00 2007 GMT
            Not After : Aug 26 16:29:00 2013 GMT
        Subject: C=NL, O=DigiNotar, CN=DigiNotar Services 1024 CA/emailAddress=info@diginotar.nl
        Subject Public Key Info:
            Public Key Algorithm: rsaEncryption
                Public-Key: (1024 bit)
                Modulus:
                    00:da:9b:4d:5d:3c:f9:d1:e2:8b:c6:c6:08:20:c5:
                    d9:1e:48:ec:66:58:67:79:62:2b:41:63:f4:89:8d:
                    68:da:af:b8:94:36:8b:19:24:a4:a0:93:d2:99:0f:
                    b2:ad:2d:35:4d:cd:2f:6a:e1:f9:9b:19:2b:bc:04:
                    1a:7e:2d:3d:52:64:cd:f1:3e:67:0f:89:2e:e8:f2:
                    4f:ae:a6:08:a1:85:fe:a1:a9:09:e6:c6:ab:3e:43:
                    fc:af:7a:03:91:da:a6:39:a6:61:ee:98:4f:18:a8:
                    d3:b3:af:66:82:e9:9f:bc:dd:72:f9:06:04:bd:12:
                    d9:18:24:e7:ab:93:53:8b:59
                Exponent: 65537 (0x10001)
        X509v3 extensions:
            X509v3 Basic Constraints: critical
                CA:TRUE, pathlen:0
            X509v3 Extended Key Usage: 
                TLS Web Server Authentication, TLS Web Client Authentication, E-mail Protection
            X509v3 Certificate Policies: 
                Policy: X509v3 Any Policy

            Authority Information Access: 
                OCSP - URI:http://ocsp.entrust.net

            X509v3 CRL Distribution Points: 

                Full Name:
                  URI:http://crl.entrust.net/server1.crl

            X509v3 Subject Key Identifier: 
                FE:DC:94:49:0C:6F:EF:5C:7F:C6:F1:12:99:4F:16:49:AD:FB:82:65
            X509v3 Key Usage: 
                Certificate Sign, CRL Sign
            X509v3 Authority Key Identifier: 
                keyid:F0:17:62:13:55:3D:B3:FF:0A:00:6B:FB:50:84:97:F3:ED:62:D0:1A

            1.2.840.113533.7.65.0: 
                0
..V7.1....
    Signature Algorithm: sha1WithRSAEncryption
         63:74:6a:37:a9:3f:96:9c:66:c8:58:ac:09:c9:ef:f5:65:94:
         7f:a3:02:c4:38:31:bd:5d:23:87:ec:d4:56:b2:c9:b2:6e:e4:
         05:06:fc:ec:f5:fa:88:70:59:d4:ee:e6:dd:b5:7a:a0:a3:60:
         2f:02:0c:ab:de:12:5d:af:f0:35:4b:aa:8a:47:91:1a:f5:85:
         2c:42:c7:1d:ef:95:43:b3:5e:b8:95:93:a5:da:c5:28:aa:ad:
         72:2d:31:ad:99:6b:6c:ff:8c:21:27:af:ad:9a:91:2b:c7:dd:
         58:c3:6e:07:c5:9f:79:d2:c7:8c:55:bf:4c:c7:27:5e:51:16:
         2b:3e
-----BEGIN CERTIFICATE-----
MIIDzTCCAzagAwIBAgIERpwssDANBgkqhkiG9w0BAQUFADCBwzELMAkGA1UEBhMC
VVMxFDASBgNVBAoTC0VudHJ1c3QubmV0MTswOQYDVQQLEzJ3d3cuZW50cnVzdC5u
ZXQvQ1BTIGluY29ycC4gYnkgcmVmLiAobGltaXRzIGxpYWIuKTElMCMGA1UECxMc
KGMpIDE5OTkgRW50cnVzdC5uZXQgTGltaXRlZDE6MDgGA1UEAxMxRW50cnVzdC5u
ZXQgU2VjdXJlIFNlcnZlciBDZXJ0aWZpY2F0aW9uIEF1dGhvcml0eTAeFw0wNzA3
MjYxNTU5MDBaFw0xMzA4MjYxNjI5MDBaMGgxCzAJBgNVBAYTAk5MMRIwEAYDVQQK
EwlEaWdpTm90YXIxIzAhBgNVBAMTGkRpZ2lOb3RhciBTZXJ2aWNlcyAxMDI0IENB
MSAwHgYJKoZIhvcNAQkBFhFpbmZvQGRpZ2lub3Rhci5ubDCBnzANBgkqhkiG9w0B
AQEFAAOBjQAwgYkCgYEA2ptNXTz50eKLxsYIIMXZHkjsZlhneWIrQWP0iY1o2q+4
lDaLGSSkoJPSmQ+yrS01Tc0vauH5mxkrvAQafi09UmTN8T5nD4ku6PJPrqYIoYX+
oakJ5sarPkP8r3oDkdqmOaZh7phPGKjTs69mgumfvN1y+QYEvRLZGCTnq5NTi1kC
AwEAAaOCASYwggEiMBIGA1UdEwEB/wQIMAYBAf8CAQAwJwYDVR0lBCAwHgYIKwYB
BQUHAwEGCCsGAQUFBwMCBggrBgEFBQcDBDARBgNVHSAECjAIMAYGBFUdIAAwMwYI
KwYBBQUHAQEEJzAlMCMGCCsGAQUFBzABhhdodHRwOi8vb2NzcC5lbnRydXN0Lm5l
dDAzBgNVHR8ELDAqMCigJqAkhiJodHRwOi8vY3JsLmVudHJ1c3QubmV0L3NlcnZl
cjEuY3JsMB0GA1UdDgQWBBT+3JRJDG/vXH/G8RKZTxZJrfuCZTALBgNVHQ8EBAMC
AQYwHwYDVR0jBBgwFoAU8BdiE1U9s/8KAGv7UISX8+1i0BowGQYJKoZIhvZ9B0EA
BAwwChsEVjcuMQMCAIEwDQYJKoZIhvcNAQEFBQADgYEAY3RqN6k/lpxmyFisCcnv
9WWUf6MCxDgxvV0jh+zUVrLJsm7kBQb87PX6iHBZ1O7m3bV6oKNgLwIMq94SXa/w
NUuqikeRGvWFLELHHe+VQ7NeuJWTpdrFKKqtci0xrZlrbP+MISevrZqRK8fdWMNu
B8WfedLHjFW/TMcnXlEWKz4=
-----END CERTIFICATE-----
