Certificate:
    Data:
        Version: 3 (0x2)
        Serial Number:
            36:52:d1:64:91:4b:72:8f:c0:9f:77:0b:00:68:c6:81
    Signature Algorithm: sha256WithRSAEncryption
        Issuer: C = US, ST = TX, L = Houston, O = "cPanel, Inc.", CN = "cPanel, Inc. Certification Authority"
        Validity
            Not Before: Jan 14 00:00:00 2018 GMT
            Not After : Apr 14 23:59:59 2018 GMT
        Subject: CN = google.com.bd
        Subject Public Key Info:
            Public Key Algorithm: rsaEncryption
                Public-Key: (2048 bit)
                Modulus:
                    00:c5:c8:af:b7:38:55:ef:c6:c6:31:40:da:2f:90:
                    b7:57:b4:cf:a3:4b:32:8a:1b:c2:2d:4b:bf:a1:92:
                    78:8e:f5:b1:eb:4f:fc:d8:86:6e:37:71:4a:b9:f2:
                    8d:ae:1f:8b:f5:fa:ed:1c:a0:36:78:e6:97:2f:6c:
                    5c:a7:93:cb:4d:a7:e4:93:c7:a5:91:f4:6f:ba:2a:
                    97:42:63:1b:b0:c7:ae:a0:41:05:f4:bf:5e:a9:5e:
                    54:a9:e3:d9:5b:4a:e3:74:01:9a:1d:8f:5e:88:2f:
                    83:3a:df:e1:b8:fd:cf:df:a3:e5:b5:69:05:12:41:
                    4c:d9:50:39:36:3c:8e:5b:68:47:65:a3:c5:a7:fb:
                    6f:bd:20:ee:7d:94:72:9c:3a:a8:ce:a7:40:00:ec:
                    8a:62:9c:98:d5:c1:6c:f6:9e:fc:26:6c:50:99:36:
                    3d:ad:20:b3:c6:85:8e:f2:9e:f0:fc:c5:54:ab:05:
                    3d:ad:a7:06:5e:17:bf:27:bc:3c:9d:06:81:f3:0b:
                    10:fd:2e:39:f6:bb:a6:ed:94:cc:b8:67:ee:87:5d:
                    b1:6d:79:ff:c5:a3:1b:19:29:5b:33:c9:60:bb:31:
                    4b:75:8a:b3:88:19:2d:60:f9:f9:0b:95:48:41:fd:
                    d9:85:dd:5e:1a:e1:8c:bd:b6:bd:d7:9f:7a:18:c0:
                    69:05
                Exponent: 65537 (0x10001)
        X509v3 extensions:
            X509v3 Authority Key Identifier: 
                keyid:7E:03:5A:65:41:6B:A7:7E:0A:E1:B8:9D:08:EA:1D:8E:1D:6A:C7:65

            X509v3 Subject Key Identifier: 
                4C:62:65:25:4F:EE:DD:23:5E:DB:91:A2:36:EA:87:BA:C4:05:02:38
            X509v3 Key Usage: critical
                Digital Signature, Key Encipherment
            X509v3 Basic Constraints: critical
                CA:FALSE
            X509v3 Extended Key Usage: 
                TLS Web Server Authentication, TLS Web Client Authentication
            X509v3 Certificate Policies: 
                Policy: 1.3.6.1.4.1.6449.1.2.2.52
                  CPS: https://secure.comodo.com/CPS
                Policy: 2.23.140.1.2.1

            X509v3 CRL Distribution Points: 

                Full Name:
                  URI:http://crl.comodoca.com/cPanelIncCertificationAuthority.crl

            Authority Information Access: 
                CA Issuers - URI:http://crt.comodoca.com/cPanelIncCertificationAuthority.crt
                OCSP - URI:http://ocsp.comodoca.com

            X509v3 Subject Alternative Name: 
                DNS:google.com.bd, DNS:cpanel.google.com.bd, DNS:mail.google.com.bd, DNS:webdisk.google.com.bd, DNS:webmail.google.com.bd, DNS:www.google.com.bd
    Signature Algorithm: sha256WithRSAEncryption
         0d:46:2d:00:09:c5:59:51:a9:2a:e0:fd:38:5e:5f:b6:6a:92:
         59:ed:db:f7:47:be:d6:da:1c:a9:e8:f5:ab:eb:d4:43:46:7b:
         2f:26:a2:c3:36:a8:37:0b:18:7b:f5:ab:84:d4:11:3d:50:98:
         70:55:ce:93:f9:8e:73:35:31:a0:c7:f0:f1:9e:ac:f4:e3:03:
         cd:df:49:10:b3:4b:15:2c:8c:de:4e:44:44:94:91:97:61:37:
         02:b3:49:3b:dd:dc:be:75:b3:c9:f3:2a:d7:bc:a1:ad:dc:4a:
         dc:08:16:39:44:58:a5:03:01:26:d6:d3:01:e9:6b:3b:33:ea:
         35:71:88:e0:c3:d0:cb:df:b3:f4:7d:91:f1:75:e0:e4:54:49:
         e7:4a:c5:af:8f:5e:a3:25:1c:63:29:ef:76:72:b6:7f:c4:5c:
         d1:ad:c2:8e:89:79:e6:7a:7b:ea:3d:92:4d:dc:18:e4:23:4f:
         d6:b4:be:4f:2f:71:ed:69:dd:0c:c4:2d:43:f3:be:05:3b:01:
         ba:a0:c7:0c:3c:84:69:c2:1e:58:47:43:b7:e7:7d:7a:24:a2:
         51:57:e9:be:11:0b:4f:b7:e6:0a:81:0e:6b:07:be:f0:3d:ac:
         03:5e:5a:89:49:e7:ea:5e:47:61:c7:05:10:f0:4e:64:f6:99:
         bd:27:d7:f2
-----BEGIN CERTIFICATE-----
MIIFOzCCBCOgAwIBAgIQNlLRZJFLco/An3cLAGjGgTANBgkqhkiG9w0BAQsFADBy
MQswCQYDVQQGEwJVUzELMAkGA1UECBMCVFgxEDAOBgNVBAcTB0hvdXN0b24xFTAT
BgNVBAoTDGNQYW5lbCwgSW5jLjEtMCsGA1UEAxMkY1BhbmVsLCBJbmMuIENlcnRp
ZmljYXRpb24gQXV0aG9yaXR5MB4XDTE4MDExNDAwMDAwMFoXDTE4MDQxNDIzNTk1
OVowGDEWMBQGA1UEAxMNZ29vZ2xlLmNvbS5iZDCCASIwDQYJKoZIhvcNAQEBBQAD
ggEPADCCAQoCggEBAMXIr7c4Ve/GxjFA2i+Qt1e0z6NLMoobwi1Lv6GSeI71setP
/NiGbjdxSrnyja4fi/X67RygNnjmly9sXKeTy02n5JPHpZH0b7oql0JjG7DHrqBB
BfS/XqleVKnj2VtK43QBmh2PXogvgzrf4bj9z9+j5bVpBRJBTNlQOTY8jltoR2Wj
xaf7b70g7n2Ucpw6qM6nQADsimKcmNXBbPae/CZsUJk2Pa0gs8aFjvKe8PzFVKsF
Pa2nBl4Xvye8PJ0GgfMLEP0uOfa7pu2UzLhn7oddsW15/8WjGxkpWzPJYLsxS3WK
s4gZLWD5+QuVSEH92YXdXhrhjL22vdefehjAaQUCAwEAAaOCAiUwggIhMB8GA1Ud
IwQYMBaAFH4DWmVBa6d+CuG4nQjqHY4dasdlMB0GA1UdDgQWBBRMYmUlT+7dI17b
kaI26oe6xAUCODAOBgNVHQ8BAf8EBAMCBaAwDAYDVR0TAQH/BAIwADAdBgNVHSUE
FjAUBggrBgEFBQcDAQYIKwYBBQUHAwIwTwYDVR0gBEgwRjA6BgsrBgEEAbIxAQIC
NDArMCkGCCsGAQUFBwIBFh1odHRwczovL3NlY3VyZS5jb21vZG8uY29tL0NQUzAI
BgZngQwBAgEwTAYDVR0fBEUwQzBBoD+gPYY7aHR0cDovL2NybC5jb21vZG9jYS5j
b20vY1BhbmVsSW5jQ2VydGlmaWNhdGlvbkF1dGhvcml0eS5jcmwwfQYIKwYBBQUH
AQEEcTBvMEcGCCsGAQUFBzAChjtodHRwOi8vY3J0LmNvbW9kb2NhLmNvbS9jUGFu
ZWxJbmNDZXJ0aWZpY2F0aW9uQXV0aG9yaXR5LmNydDAkBggrBgEFBQcwAYYYaHR0
cDovL29jc3AuY29tb2RvY2EuY29tMIGDBgNVHREEfDB6gg1nb29nbGUuY29tLmJk
ghRjcGFuZWwuZ29vZ2xlLmNvbS5iZIISbWFpbC5nb29nbGUuY29tLmJkghV3ZWJk
aXNrLmdvb2dsZS5jb20uYmSCFXdlYm1haWwuZ29vZ2xlLmNvbS5iZIIRd3d3Lmdv
b2dsZS5jb20uYmQwDQYJKoZIhvcNAQELBQADggEBAA1GLQAJxVlRqSrg/TheX7Zq
klnt2/dHvtbaHKno9avr1ENGey8mosM2qDcLGHv1q4TUET1QmHBVzpP5jnM1MaDH
8PGerPTjA83fSRCzSxUsjN5ORESUkZdhNwKzSTvd3L51s8nzKte8oa3cStwIFjlE
WKUDASbW0wHpazsz6jVxiODD0Mvfs/R9kfF14ORUSedKxa+PXqMlHGMp73Zytn/E
XNGtwo6JeeZ6e+o9kk3cGOQjT9a0vk8vce1p3QzELUPzvgU7Abqgxww8hGnCHlhH
Q7fnfXokolFX6b4RC0+35gqBDmsHvvA9rANeWolJ5+peR2HHBRDwTmT2mb0n1/I=
-----END CERTIFICATE-----
