Certificate:
    Data:
        Version: 3 (0x2)
        Serial Number:
            36:69:5a:c1:30:2e:5c:d2:d0:13:ef:29:a2:68:e6:de
    Signature Algorithm: sha256WithRSAEncryption
        Issuer: C = CN, O = WoSign CA Limited, CN = WoSign CA Free SSL Certificate G2
        Validity
            Not Before: Jun  9 23:38:37 2015 GMT
            Not After : Jun 10 00:03:27 2018 GMT
        Subject: CN = med.ucf.edu
        Subject Public Key Info:
            Public Key Algorithm: rsaEncryption
                Public-Key: (2048 bit)
                Modulus:
                    00:a2:42:a9:12:83:85:b1:38:00:c1:67:6e:94:e7:
                    f2:d8:bd:29:89:17:b4:c9:3b:c0:17:1f:c8:d1:bd:
                    32:9c:b2:ff:54:1d:f8:cb:cb:06:78:52:75:f7:c4:
                    17:03:79:32:ab:16:69:7b:30:f8:95:aa:22:5b:21:
                    5a:95:de:03:b6:ac:29:4f:51:63:39:93:4e:01:a0:
                    14:a8:8e:3b:0f:93:2f:a7:63:7b:89:25:26:ab:06:
                    b0:f4:93:ed:7c:8d:19:6d:df:96:79:0e:b7:c9:d0:
                    aa:c5:92:4f:4b:4a:7e:77:c7:f8:f0:e3:cb:ea:47:
                    a7:00:37:b5:6b:e9:a6:f6:cd:ed:50:68:93:7d:c7:
                    90:89:98:24:49:ff:a6:03:fa:6c:c9:75:96:ad:e7:
                    e6:e4:10:d8:ea:38:bb:a8:e0:2c:d3:19:4b:1d:72:
                    ad:36:f8:47:13:6a:3b:d1:23:b9:0d:ab:4d:14:d0:
                    26:14:88:b2:95:91:53:68:72:44:b8:c2:93:f1:15:
                    d4:93:59:c5:09:fc:71:cb:73:f2:0a:04:46:84:db:
                    7c:20:7d:71:b7:a6:81:73:45:51:59:92:ec:c3:8c:
                    5c:97:6d:ba:ee:6b:d2:7b:3f:4f:08:82:aa:b5:95:
                    ab:68:6d:98:b7:f5:28:d9:3f:a5:6d:38:76:27:e6:
                    9e:4f
                Exponent: 65537 (0x10001)
        X509v3 extensions:
            X509v3 Key Usage: 
                Digital Signature, Key Encipherment
            X509v3 Extended Key Usage: 
                TLS Web Client Authentication, TLS Web Server Authentication
            X509v3 Basic Constraints: 
                CA:FALSE
            X509v3 Subject Key Identifier: 
                23:E0:10:00:B1:41:D4:33:7B:02:D3:9E:C0:3C:13:9A:C3:59:41:45
            X509v3 Authority Key Identifier: 
                keyid:D2:A7:16:20:7C:AF:D9:95:9E:EB:43:0A:19:F2:E0:B9:74:0E:A8:C7

            Authority Information Access: 
                OCSP - URI:http://ocsp6.wosign.com/ca6/server1/free
                CA Issuers - URI:http://aia6.wosign.com/ca6.server1.free.cer

            X509v3 CRL Distribution Points: 

                Full Name:
                  URI:http://crls6.wosign.com/ca6-server1-free.crl

            X509v3 Subject Alternative Name: 
                DNS:med.ucf.edu, DNS:www.ucf.edu
            X509v3 Certificate Policies: 
                Policy: 2.23.140.1.2.1
                Policy: 1.3.6.1.4.1.36305.6.1.2.2.1
                  CPS: http://www.wosign.com/policy/

    Signature Algorithm: sha256WithRSAEncryption
         24:c9:93:fe:14:af:53:57:49:c2:df:be:1f:9a:89:1e:9c:d5:
         04:7f:7b:dd:60:47:8f:ae:b4:52:4b:c9:46:32:f0:98:48:02:
         73:61:23:68:bc:29:c6:f9:af:33:43:f4:3d:93:b4:ce:03:8b:
         85:60:81:55:aa:7d:c2:75:8b:8e:2a:bc:a3:13:b1:b4:b2:d5:
         f4:44:23:ae:42:49:85:f1:8f:c8:99:a2:57:c7:ab:60:72:df:
         22:91:26:95:86:b8:f2:f6:3c:2b:7a:53:8c:8e:9f:f7:45:28:
         44:61:b4:3e:3e:84:54:d5:9c:63:69:6b:74:f2:24:ba:62:47:
         f8:cf:57:c8:1f:a4:d0:8e:d4:b4:d1:43:3c:0e:29:91:dc:b1:
         a2:ec:09:f0:ba:e5:b3:e4:5d:1f:34:00:09:85:01:c7:6b:fc:
         1d:8b:a9:a1:46:20:aa:b8:18:a7:b8:78:cd:c3:91:87:a4:82:
         16:2a:96:6f:50:87:00:3c:89:d5:a3:90:af:66:63:aa:2f:c0:
         95:3f:b3:2e:16:b7:7a:84:68:4a:66:af:28:fa:2a:ec:a4:c2:
         c3:bc:32:55:ac:7b:a7:21:2d:8b:8b:c0:5e:27:a7:0b:af:94:
         79:d7:7c:65:33:de:48:76:56:3d:9e:1a:62:f2:ec:d5:ff:a3:
         a7:65:d1:ff
-----BEGIN CERTIFICATE-----
MIIEqDCCA5CgAwIBAgIQNmlawTAuXNLQE+8pomjm3jANBgkqhkiG9w0BAQsFADBV
MQswCQYDVQQGEwJDTjEaMBgGA1UEChMRV29TaWduIENBIExpbWl0ZWQxKjAoBgNV
BAMTIVdvU2lnbiBDQSBGcmVlIFNTTCBDZXJ0aWZpY2F0ZSBHMjAeFw0xNTA2MDky
MzM4MzdaFw0xODA2MTAwMDAzMjdaMBYxFDASBgNVBAMMC21lZC51Y2YuZWR1MIIB
IjANBgkqhkiG9w0BAQEFAAOCAQ8AMIIBCgKCAQEAokKpEoOFsTgAwWdulOfy2L0p
iRe0yTvAFx/I0b0ynLL/VB34y8sGeFJ198QXA3kyqxZpezD4laoiWyFald4Dtqwp
T1FjOZNOAaAUqI47D5Mvp2N7iSUmqwaw9JPtfI0Zbd+WeQ63ydCqxZJPS0p+d8f4
8OPL6kenADe1a+mm9s3tUGiTfceQiZgkSf+mA/psyXWWrefm5BDY6ji7qOAs0xlL
HXKtNvhHE2o70SO5DatNFNAmFIiylZFTaHJEuMKT8RXUk1nFCfxxy3PyCgRGhNt8
IH1xt6aBc0VRWZLsw4xcl2267mvSez9PCIKqtZWraG2Yt/Uo2T+lbTh2J+aeTwID
AQABo4IBsTCCAa0wCwYDVR0PBAQDAgWgMB0GA1UdJQQWMBQGCCsGAQUFBwMCBggr
BgEFBQcDATAJBgNVHRMEAjAAMB0GA1UdDgQWBBQj4BAAsUHUM3sC057APBOaw1lB
RTAfBgNVHSMEGDAWgBTSpxYgfK/ZlZ7rQwoZ8uC5dA6oxzB9BggrBgEFBQcBAQRx
MG8wNAYIKwYBBQUHMAGGKGh0dHA6Ly9vY3NwNi53b3NpZ24uY29tL2NhNi9zZXJ2
ZXIxL2ZyZWUwNwYIKwYBBQUHMAKGK2h0dHA6Ly9haWE2Lndvc2lnbi5jb20vY2E2
LnNlcnZlcjEuZnJlZS5jZXIwPQYDVR0fBDYwNDAyoDCgLoYsaHR0cDovL2NybHM2
Lndvc2lnbi5jb20vY2E2LXNlcnZlcjEtZnJlZS5jcmwwIwYDVR0RBBwwGoILbWVk
LnVjZi5lZHWCC3d3dy51Y2YuZWR1MFEGA1UdIARKMEgwCAYGZ4EMAQIBMDwGDSsG
AQQBgptRBgECAgEwKzApBggrBgEFBQcCARYdaHR0cDovL3d3dy53b3NpZ24uY29t
L3BvbGljeS8wDQYJKoZIhvcNAQELBQADggEBACTJk/4Ur1NXScLfvh+aiR6c1QR/
e91gR4+utFJLyUYy8JhIAnNhI2i8Kcb5rzND9D2TtM4Di4VggVWqfcJ1i44qvKMT
sbSy1fREI65CSYXxj8iZolfHq2By3yKRJpWGuPL2PCt6U4yOn/dFKERhtD4+hFTV
nGNpa3TyJLpiR/jPV8gfpNCO1LTRQzwOKZHcsaLsCfC65bPkXR80AAmFAcdr/B2L
qaFGIKq4GKe4eM3DkYekghYqlm9QhwA8idWjkK9mY6ovwJU/sy4Wt3qEaEpmryj6
KuykwsO8MlWse6chLYuLwF4npwuvlHnXfGUz3kh2Vj2eGmLy7NX/o6dl0f8=
-----END CERTIFICATE-----
