Certificate:
    Data:
        Version: 3 (0x2)
        Serial Number:
            92:39:d5:34:8f:40:d1:69:5a:74:54:70:e1:f2:3f:43
    Signature Algorithm: sha1WithRSAEncryption
        Issuer: C=US, ST=UT, L=Salt Lake City, O=The USERTRUST Network, OU=http://www.usertrust.com, CN=UTN-USERFirst-Hardware
        Validity
            Not Before: Mar 15 00:00:00 2011 GMT
            Not After : Mar 14 23:59:59 2014 GMT
        Subject: C=US/postalCode=38477, ST=Florida, L=English/street=Sea Village 10, O=Google Ltd., OU=Tech Dept., OU=Hosted by GTI Group Corporation, OU=PlatinumSSL, CN=addons.mozilla.org
        Subject Public Key Info:
            Public Key Algorithm: rsaEncryption
                Public-Key: (2048 bit)
                Modulus:
                    00:ab:c6:6d:36:f3:15:73:78:83:73:ce:74:85:d5:
                    ae:ec:b2:f0:e0:24:1f:13:83:b8:20:ac:bb:9a:fe:
                    88:bb:ab:a1:1d:0b:1f:45:00:aa:49:b7:35:37:0c:
                    6a:ef:47:4c:b9:d1:be:e3:57:12:04:8d:92:c7:b6:
                    ec:01:bc:b6:da:c7:81:38:20:ad:72:85:e6:0e:fc:
                    81:6c:07:ad:68:76:38:c5:44:d7:cc:c6:4a:c5:97:
                    3e:64:f4:51:e6:f0:7e:b2:ec:56:f7:25:82:4d:49:
                    98:cb:16:98:dd:23:f1:89:91:d1:17:97:40:99:26:
                    d6:e2:a2:2b:5e:df:bd:89:f2:1b:1a:53:2d:cc:50:
                    41:7a:d0:3d:2a:0c:55:70:14:01:e9:58:49:10:7a:
                    0b:93:82:8b:e1:1e:ed:3a:80:10:82:ce:96:8a:34:
                    f0:cc:d7:d3:b9:b4:50:87:55:54:09:b8:9d:42:28:
                    55:00:e5:8c:35:54:bf:dd:25:91:46:b7:0d:e5:5d:
                    83:a8:e5:8b:fb:84:e4:3c:ae:76:da:c4:43:2b:5b:
                    74:0b:f8:be:5d:68:f1:78:5b:b5:ce:7d:f1:5d:99:
                    40:da:ca:ee:38:81:50:be:98:a1:6c:b8:24:ad:f3:
                    af:8c:0f:d7:11:28:2c:84:18:4c:7d:b5:d9:8f:30:
                    b5:1b
                Exponent: 65537 (0x10001)
        X509v3 extensions:
            X509v3 Authority Key Identifier: 
                keyid:A1:72:5F:26:1B:28:98:43:95:5D:07:37:D5:85:96:9D:4B:D2:C3:45

            X509v3 Subject Key Identifier: 
                DD:80:D2:54:3D:F7:4C:70:CA:A3:B0:DD:34:7A:32:E4:E8:3B:5A:3B
            X509v3 Key Usage: critical
                Digital Signature, Key Encipherment
            X509v3 Basic Constraints: critical
                CA:FALSE
            X509v3 Extended Key Usage: 
                TLS Web Server Authentication, TLS Web Client Authentication
            X509v3 Certificate Policies: 
                Policy: 1.3.6.1.4.1.6449.1.2.1.3.4
                  CPS: https://secure.comodo.com/CPS

            X509v3 CRL Distribution Points: 

                Full Name:
                  URI:http://crl.comodoca.com/UTN-USERFirst-Hardware.crl

                Full Name:
                  URI:http://crl.comodo.net/UTN-USERFirst-Hardware.crl

            Authority Information Access: 
                CA Issuers - URI:http://crt.comodoca.com/UTNAddTrustServerCA.crt
                OCSP - URI:http://ocsp.comodoca.com

            X509v3 Subject Alternative Name: 
                DNS:addons.mozilla.org, DNS:www.addons.mozilla.org
    Signature Algorithm: sha1WithRSAEncryption
         33:3b:63:15:fc:b1:ec:14:2c:93:dd:75:94:de:81:5a:d9:4e:
         99:be:fb:4a:a4:39:55:4d:a1:40:7a:de:13:2a:87:a9:37:cf:
         e8:d5:fb:ad:d1:7b:6d:6f:8c:20:87:82:54:e6:57:49:bc:20:
         28:84:cd:d6:01:d9:93:8b:17:6e:23:66:e5:84:c8:80:3f:c6:
         a1:70:80:e4:ec:4d:1d:f9:fc:91:5a:73:62:29:9a:f7:20:1c:
         61:e0:8b:39:9f:ca:bc:7e:8d:dd:bc:d9:b1:e3:9f:9e:df:15:
         53:91:21:52:0b:d9:1a:23:0f:66:36:db:ac:93:96:4a:a3:a5:
         22:cf:29:f7:a2:99:a8:f6:b6:d9:40:ae:d9:7e:b6:f6:58:2e:
         9b:ac:36:ca:64:8f:65:52:dc:86:9c:82:ab:6e:50:4b:da:5f:
         fa:05:00:88:30:0e:de:8d:56:bf:81:47:8d:3d:06:e2:b2:62:
         92:67:8f:9e:c8:9a:b2:e5:06:b8:70:24:b8:77:7c:23:0a:38:
         c3:79:08:d8:b1:51:9d:ac:95:11:c7:40:17:9e:a3:1c:8f:f2:
         11:a7:68:27:da:49:05:84:18:7c:58:2d:01:67:5c:e5:9f:a1:
         29:bb:4a:39:45:2f:bf:11:aa:79:a2:ed:b4:d4:b5:65:43:b7:
         93:46:8a:d3
-----BEGIN CERTIFICATE-----
MIIF+DCCBOCgAwIBAgIRAJI51TSPQNFpWnRUcOHyP0MwDQYJKoZIhvcNAQEFBQAw
gZcxCzAJBgNVBAYTAlVTMQswCQYDVQQIEwJVVDEXMBUGA1UEBxMOU2FsdCBMYWtl
IENpdHkxHjAcBgNVBAoTFVRoZSBVU0VSVFJVU1QgTmV0d29yazEhMB8GA1UECxMY
aHR0cDovL3d3dy51c2VydHJ1c3QuY29tMR8wHQYDVQQDExZVVE4tVVNFUkZpcnN0
LUhhcmR3YXJlMB4XDTExMDMxNTAwMDAwMFoXDTE0MDMxNDIzNTk1OVowgeIxCzAJ
BgNVBAYTAlVTMQ4wDAYDVQQREwUzODQ3NzEQMA4GA1UECBMHRmxvcmlkYTEQMA4G
A1UEBxMHRW5nbGlzaDEXMBUGA1UECRMOU2VhIFZpbGxhZ2UgMTAxFDASBgNVBAoT
C0dvb2dsZSBMdGQuMRMwEQYDVQQLEwpUZWNoIERlcHQuMSgwJgYDVQQLEx9Ib3N0
ZWQgYnkgR1RJIEdyb3VwIENvcnBvcmF0aW9uMRQwEgYDVQQLEwtQbGF0aW51bVNT
TDEbMBkGA1UEAxMSYWRkb25zLm1vemlsbGEub3JnMIIBIjANBgkqhkiG9w0BAQEF
AAOCAQ8AMIIBCgKCAQEAq8ZtNvMVc3iDc850hdWu7LLw4CQfE4O4IKy7mv6Iu6uh
HQsfRQCqSbc1Nwxq70dMudG+41cSBI2Sx7bsAby22seBOCCtcoXmDvyBbAetaHY4
xUTXzMZKxZc+ZPRR5vB+suxW9yWCTUmYyxaY3SPxiZHRF5dAmSbW4qIrXt+9ifIb
GlMtzFBBetA9KgxVcBQB6VhJEHoLk4KL4R7tOoAQgs6WijTwzNfTubRQh1VUCbid
QihVAOWMNVS/3SWRRrcN5V2DqOWL+4TkPK522sRDK1t0C/i+XWjxeFu1zn3xXZlA
2sruOIFQvpihbLgkrfOvjA/XESgshBhMfbXZjzC1GwIDAQABo4IB8DCCAewwHwYD
VR0jBBgwFoAUoXJfJhsomEOVXQc31YWWnUvSw0UwHQYDVR0OBBYEFN2A0lQ990xw
yqOw3TR6MuToO1o7MA4GA1UdDwEB/wQEAwIFoDAMBgNVHRMBAf8EAjAAMB0GA1Ud
JQQWMBQGCCsGAQUFBwMBBggrBgEFBQcDAjBGBgNVHSAEPzA9MDsGDCsGAQQBsjEB
AgEDBDArMCkGCCsGAQUFBwIBFh1odHRwczovL3NlY3VyZS5jb21vZG8uY29tL0NQ
UzB7BgNVHR8EdDByMDigNqA0hjJodHRwOi8vY3JsLmNvbW9kb2NhLmNvbS9VVE4t
VVNFUkZpcnN0LUhhcmR3YXJlLmNybDA2oDSgMoYwaHR0cDovL2NybC5jb21vZG8u
bmV0L1VUTi1VU0VSRmlyc3QtSGFyZHdhcmUuY3JsMHEGCCsGAQUFBwEBBGUwYzA7
BggrBgEFBQcwAoYvaHR0cDovL2NydC5jb21vZG9jYS5jb20vVVROQWRkVHJ1c3RT
ZXJ2ZXJDQS5jcnQwJAYIKwYBBQUHMAGGGGh0dHA6Ly9vY3NwLmNvbW9kb2NhLmNv
bTA1BgNVHREELjAsghJhZGRvbnMubW96aWxsYS5vcmeCFnd3dy5hZGRvbnMubW96
aWxsYS5vcmcwDQYJKoZIhvcNAQEFBQADggEBADM7YxX8sewULJPddZTegVrZTpm+
+0qkOVVNoUB63hMqh6k3z+jV+63Re21vjCCHglTmV0m8ICiEzdYB2ZOLF24jZuWE
yIA/xqFwgOTsTR35/JFac2IpmvcgHGHgizmfyrx+jd282bHjn57fFVORIVIL2Roj
D2Y226yTlkqjpSLPKfeimaj2ttlArtl+tvZYLpusNspkj2VS3IacgqtuUEvaX/oF
AIgwDt6NVr+BR409BuKyYpJnj57ImrLlBrhwJLh3fCMKOMN5CNixUZ2slRHHQBee
oxyP8hGnaCfaSQWEGHxYLQFnXOWfoSm7SjlFL78Rqnmi7bTUtWVDt5NGitM=
-----END CERTIFICATE-----
