Certificate:
    Data:
        Version: 3 (0x2)
        Serial Number:
            05:19:bb:07:ad:6f:78:21:6b:1a:00:1f:a7:22:23:af
    Signature Algorithm: sha1WithRSAEncryption
        Issuer: C = US, O = DigiCert Inc, OU = www.digicert.com, CN = DigiCert High Assurance CA-3
        Validity
            Not Before: Apr  9 00:00:00 2014 GMT
            Not After : Dec 29 12:00:00 2016 GMT
        Subject: C = US, ST = California, L = Laguna Niguel, O = Gibson Research Corporation, OU = Web Services, CN = revoked.grc.com
        Subject Public Key Info:
            Public Key Algorithm: rsaEncryption
                Public-Key: (2048 bit)
                Modulus:
                    00:ba:d7:a0:0c:dd:d9:43:38:ce:1d:63:07:fe:df:
                    ac:33:95:74:7a:3a:85:b9:05:d2:39:94:8b:05:89:
                    92:b4:22:9d:29:ce:5d:5d:c6:10:74:1a:59:3d:4e:
                    2c:76:9f:eb:35:d3:05:a1:12:9f:e2:c7:f6:53:64:
                    44:09:61:ba:b9:d5:57:e0:99:7a:09:0e:32:f2:ec:
                    34:64:ba:12:90:e3:9a:97:74:df:dc:61:b2:6f:ee:
                    f5:50:76:71:6d:b5:c3:bc:a7:ab:f7:f1:8b:da:7d:
                    33:b2:1f:40:1f:15:16:59:35:a4:9f:13:d6:7d:15:
                    15:79:21:3b:07:94:3e:f1:1b:59:81:c7:ad:79:ae:
                    cf:4d:2e:ff:20:c0:c8:40:be:fd:a0:46:05:99:f0:
                    f8:29:af:12:ec:a3:04:3d:14:4d:bb:04:47:57:4a:
                    32:bd:b8:c3:96:ef:81:3d:ee:bc:61:5c:e9:46:5b:
                    c3:70:f0:b1:71:c9:81:5c:da:d6:67:8b:92:02:e1:
                    e9:71:02:aa:e0:ba:0b:15:cd:a8:8b:47:3b:72:b4:
                    fa:eb:38:10:09:4d:b0:8b:a3:e2:61:49:59:99:f5:
                    50:c8:4c:ac:c1:7a:d5:9d:e6:8c:7a:f7:e0:a0:02:
                    0a:6d:f5:cc:b0:50:27:aa:a7:57:0a:fd:fb:6c:d1:
                    0e:33
                Exponent: 65537 (0x10001)
        X509v3 extensions:
            X509v3 Authority Key Identifier: 
                keyid:50:EA:73:89:DB:29:FB:10:8F:9E:E5:01:20:D4:DE:79:99:48:83:F7

            X509v3 Subject Key Identifier: 
                E2:61:A1:5C:D1:BE:8E:4A:D2:D7:0A:9C:83:DB:99:C8:DB:8D:CC:8A
            X509v3 Subject Alternative Name: 
                DNS:revoked.grc.com
            X509v3 Key Usage: critical
                Digital Signature, Key Encipherment
            X509v3 Extended Key Usage: 
                TLS Web Server Authentication, TLS Web Client Authentication
            X509v3 CRL Distribution Points: 

                Full Name:
                  URI:http://crl3.digicert.com/ca3-g27.crl

                Full Name:
                  URI:http://crl4.digicert.com/ca3-g27.crl

            X509v3 Certificate Policies: 
                Policy: 2.16.840.1.114412.1.1
                  CPS: https://www.digicert.com/CPS

            Authority Information Access: 
                OCSP - URI:http://ocsp.digicert.com
                CA Issuers - URI:http://cacerts.digicert.com/DigiCertHighAssuranceCA-3.crt

            X509v3 Basic Constraints: critical
                CA:FALSE
    Signature Algorithm: sha1WithRSAEncryption
         bb:dd:a9:e2:60:71:70:79:df:ad:73:7c:66:6f:f3:20:bf:82:
         96:7e:a5:79:18:55:c9:df:b3:ad:e8:0b:36:3e:17:cf:85:9d:
         af:30:d3:1e:be:0d:ad:52:c9:68:12:3c:a4:0a:14:e7:57:de:
         1b:d2:b8:ed:e8:ae:ff:bc:58:bd:31:cf:00:88:5b:0a:16:8e:
         a9:4d:93:cd:3d:3d:35:60:b6:e3:e9:c7:bd:f8:11:13:b2:1c:
         5f:37:95:29:d0:70:84:c5:f1:27:95:13:69:91:b6:d8:37:da:
         3a:8e:4b:80:48:39:87:42:6b:96:c8:45:80:6a:fd:56:88:bb:
         80:81:e6:05:be:25:78:f9:fa:0f:ae:1a:84:a6:90:e1:5f:56:
         f1:53:df:78:f5:ba:40:77:db:61:a3:bb:7e:d5:83:46:50:13:
         8c:07:ad:7e:59:8e:48:c6:dd:5c:6d:8f:91:22:30:7f:13:6a:
         a6:7b:fd:bf:15:16:1e:9a:2c:f3:48:d4:ad:d2:66:2f:9a:99:
         68:1d:19:ef:a8:4f:1d:fd:c6:92:4a:20:71:76:f6:fb:89:fe:
         a9:d5:5f:58:4d:be:a0:e5:cd:82:43:0a:86:9b:c1:37:6c:2a:
         d5:5d:e7:8e:b6:20:31:80:48:54:74:7c:ad:69:26:50:81:04:
         38:c2:bd:ac
-----BEGIN CERTIFICATE-----
MIIFRTCCBC2gAwIBAgIQBRm7B61veCFrGgAfpyIjrzANBgkqhkiG9w0BAQUFADBm
MQswCQYDVQQGEwJVUzEVMBMGA1UEChMMRGlnaUNlcnQgSW5jMRkwFwYDVQQLExB3
d3cuZGlnaWNlcnQuY29tMSUwIwYDVQQDExxEaWdpQ2VydCBIaWdoIEFzc3VyYW5j
ZSBDQS0zMB4XDTE0MDQwOTAwMDAwMFoXDTE2MTIyOTEyMDAwMFowgZExCzAJBgNV
BAYTAlVTMRMwEQYDVQQIEwpDYWxpZm9ybmlhMRYwFAYDVQQHEw1MYWd1bmEgTmln
dWVsMSQwIgYDVQQKExtHaWJzb24gUmVzZWFyY2ggQ29ycG9yYXRpb24xFTATBgNV
BAsTDFdlYiBTZXJ2aWNlczEYMBYGA1UEAxMPcmV2b2tlZC5ncmMuY29tMIIBIjAN
BgkqhkiG9w0BAQEFAAOCAQ8AMIIBCgKCAQEAutegDN3ZQzjOHWMH/t+sM5V0ejqF
uQXSOZSLBYmStCKdKc5dXcYQdBpZPU4sdp/rNdMFoRKf4sf2U2RECWG6udVX4Jl6
CQ4y8uw0ZLoSkOOal3Tf3GGyb+71UHZxbbXDvKer9/GL2n0zsh9AHxUWWTWknxPW
fRUVeSE7B5Q+8RtZgcetea7PTS7/IMDIQL79oEYFmfD4Ka8S7KMEPRRNuwRHV0oy
vbjDlu+BPe68YVzpRlvDcPCxccmBXNrWZ4uSAuHpcQKq4LoLFc2oi0c7crT66zgQ
CU2wi6PiYUlZmfVQyEyswXrVneaMevfgoAIKbfXMsFAnqqdXCv37bNEOMwIDAQAB
o4IBwTCCAb0wHwYDVR0jBBgwFoAUUOpzidsp+xCPnuUBINTeeZlIg/cwHQYDVR0O
BBYEFOJhoVzRvo5K0tcKnIPbmcjbjcyKMBoGA1UdEQQTMBGCD3Jldm9rZWQuZ3Jj
LmNvbTAOBgNVHQ8BAf8EBAMCBaAwHQYDVR0lBBYwFAYIKwYBBQUHAwEGCCsGAQUF
BwMCMGEGA1UdHwRaMFgwKqAooCaGJGh0dHA6Ly9jcmwzLmRpZ2ljZXJ0LmNvbS9j
YTMtZzI3LmNybDAqoCigJoYkaHR0cDovL2NybDQuZGlnaWNlcnQuY29tL2NhMy1n
MjcuY3JsMEIGA1UdIAQ7MDkwNwYJYIZIAYb9bAEBMCowKAYIKwYBBQUHAgEWHGh0
dHBzOi8vd3d3LmRpZ2ljZXJ0LmNvbS9DUFMwewYIKwYBBQUHAQEEbzBtMCQGCCsG
AQUFBzABhhhodHRwOi8vb2NzcC5kaWdpY2VydC5jb20wRQYIKwYBBQUHMAKGOWh0
dHA6Ly9jYWNlcnRzLmRpZ2ljZXJ0LmNvbS9EaWdpQ2VydEhpZ2hBc3N1cmFuY2VD
QS0zLmNydDAMBgNVHRMBAf8EAjAAMA0GCSqGSIb3DQEBBQUAA4IBAQC73aniYHFw
ed+tc3xmb/Mgv4KWfqV5GFXJ37Ot6As2PhfPhZ2vMNMevg2tUsloEjykChTnV94b
0rjt6K7/vFi9Mc8AiFsKFo6pTZPNPT01YLbj6ce9+BETshxfN5Up0HCExfEnlRNp
kbbYN9o6jkuASDmHQmuWyEWAav1WiLuAgeYFviV4+foPrhqEppDhX1bxU9949bpA
d9tho7t+1YNGUBOMB61+WY5Ixt1cbY+RIjB/E2qme/2/FRYemizzSNSt0mYvmplo
HRnvqE8d/caSSiBxdvb7if6p1V9YTb6g5c2CQwqGm8E3bCrVXeeOtiAxgEhUdHyt
aSZQgQQ4wr2s
-----END CERTIFICATE-----
