Certificate:
    Data:
        Version: 3 (0x2)
        Serial Number:
            03:13:e5:32:ac:64:07:20:a7:dd:73:6e:60:c8:58:34:c7:29
    Signature Algorithm: sha256WithRSAEncryption
        Issuer: C = US, O = Let's Encrypt, CN = Let's Encrypt Authority X3
        Validity
            Not Before: Nov  1 12:36:33 2017 GMT
            Not After : Jan 30 12:36:33 2018 GMT
        Subject: CN = google.tg
        Subject Public Key Info:
            Public Key Algorithm: rsaEncryption
                Public-Key: (2048 bit)
                Modulus:
                    00:c5:ca:e1:37:15:af:d8:a4:ff:f4:5b:66:d4:83:
                    8a:ef:3b:08:5e:38:82:ba:09:d6:65:91:37:e1:d2:
                    46:d6:eb:3b:92:53:a5:3a:ea:5f:7b:19:30:70:14:
                    4b:4b:e9:00:c0:7c:b1:b1:41:7b:e5:e0:4f:ce:cc:
                    10:ff:39:4a:d9:0f:82:f9:79:a6:88:fa:c9:2f:71:
                    91:bd:96:7b:8b:e3:cf:f6:ce:1c:44:67:17:be:de:
                    50:01:ec:20:4b:67:23:28:b5:9b:d6:af:71:33:ee:
                    bb:5b:9a:ff:fc:5b:cf:5b:c7:c3:78:92:62:27:1d:
                    a2:19:79:38:37:8b:b0:8b:ff:d9:b6:61:06:11:34:
                    da:bd:5c:1a:38:7d:8e:fc:1c:cb:73:f2:98:b8:64:
                    3d:d9:c1:9e:28:6b:f7:00:32:58:d0:61:44:26:bd:
                    d1:02:ff:4b:53:0b:97:d1:91:4c:32:4a:d0:98:0b:
                    59:d0:5d:7d:22:d3:da:a7:00:5b:32:0e:e2:aa:f5:
                    87:0b:15:45:90:4e:fd:07:a9:20:b4:83:dc:c7:57:
                    93:b0:4e:6b:29:e8:f9:ed:1e:f3:ef:61:3d:7e:06:
                    54:78:74:da:fa:e1:e8:0f:b3:d5:fc:20:e9:8f:be:
                    fb:c6:74:c3:6e:0b:8f:a4:81:5b:71:86:8d:d3:e5:
                    83:e7
                Exponent: 65537 (0x10001)
        X509v3 extensions:
            X509v3 Key Usage: critical
                Digital Signature, Key Encipherment
            X509v3 Extended Key Usage: 
                TLS Web Server Authentication, TLS Web Client Authentication
            X509v3 Basic Constraints: critical
                CA:FALSE
            X509v3 Subject Key Identifier: 
                BB:8B:1D:2F:66:CA:57:95:97:17:E3:DD:09:5F:53:E0:4E:EB:49:2D
            X509v3 Authority Key Identifier: 
                keyid:A8:4A:6A:63:04:7D:DD:BA:E6:D1:39:B7:A6:45:65:EF:F3:A8:EC:A1

            Authority Information Access: 
                OCSP - URI:http://ocsp.int-x3.letsencrypt.org
                CA Issuers - URI:http://cert.int-x3.letsencrypt.org/

            X509v3 Subject Alternative Name: 
                DNS:cpanel.google.tg, DNS:google.tg, DNS:mail.google.tg, DNS:webdisk.google.tg, DNS:webmail.google.tg, DNS:www.google.tg
            X509v3 Certificate Policies: 
                Policy: 2.23.140.1.2.1
                Policy: 1.3.6.1.4.1.44947.1.1.1
                  CPS: http://cps.letsencrypt.org
                  User Notice:
                    Explicit Text: This Certificate may only be relied upon by Relying Parties and only in accordance with the Certificate Policy found at https://letsencrypt.org/repository/

    Signature Algorithm: sha256WithRSAEncryption
         1f:10:a1:3a:0a:68:c2:f0:5d:d5:d4:e8:0a:c5:3e:50:c6:56:
         dd:ce:d5:58:f9:60:16:55:a8:1c:2b:33:f0:22:14:aa:4b:ad:
         bd:c3:bb:ff:84:c6:2e:b7:19:9e:ea:bc:60:29:f9:8c:87:9d:
         21:2b:8b:02:1f:78:23:99:f1:b7:ac:97:34:de:04:66:47:30:
         53:bd:e3:bf:5e:52:1b:a1:be:a9:bb:e7:fb:ca:85:38:9d:bd:
         db:cd:fc:45:7a:7b:74:87:c6:5c:a4:31:e7:89:2b:c9:fb:bf:
         1e:bc:e8:7e:5b:df:84:0c:7b:bd:99:22:8d:75:ea:96:6a:42:
         1c:10:86:d1:27:f9:72:8e:5c:18:a0:0a:18:12:3d:37:a3:d5:
         06:9b:c0:68:a7:7d:d3:48:0b:f5:4f:fb:74:c4:31:e4:b6:59:
         ed:ff:5a:fa:2a:30:da:bd:20:78:a2:c6:85:1a:ce:6d:96:02:
         29:5e:ad:67:c0:7c:52:75:4f:8d:09:8a:dd:a8:55:73:6c:cf:
         b9:28:a9:f5:f1:86:95:1c:65:a4:60:9d:9f:43:a7:5e:0d:7d:
         1b:44:6d:ae:0f:35:54:d6:23:5a:5e:6a:ee:4a:cc:6b:5c:ea:
         cb:f8:36:be:46:89:03:60:48:31:98:13:a6:95:d9:54:3e:6d:
         82:a0:8c:46
-----BEGIN CERTIFICATE-----
MIIFTDCCBDSgAwIBAgISAxPlMqxkByCn3XNuYMhYNMcpMA0GCSqGSIb3DQEBCwUA
MEoxCzAJBgNVBAYTAlVTMRYwFAYDVQQKEw1MZXQncyBFbmNyeXB0MSMwIQYDVQQD
ExpMZXQncyBFbmNyeXB0IEF1dGhvcml0eSBYMzAeFw0xNzExMDExMjM2MzNaFw0x
ODAxMzAxMjM2MzNaMBQxEjAQBgNVBAMTCWdvb2dsZS50ZzCCASIwDQYJKoZIhvcN
AQEBBQADggEPADCCAQoCggEBAMXK4TcVr9ik//RbZtSDiu87CF44groJ1mWRN+HS
RtbrO5JTpTrqX3sZMHAUS0vpAMB8sbFBe+XgT87MEP85StkPgvl5poj6yS9xkb2W
e4vjz/bOHERnF77eUAHsIEtnIyi1m9avcTPuu1ua//xbz1vHw3iSYicdohl5ODeL
sIv/2bZhBhE02r1cGjh9jvwcy3PymLhkPdnBnihr9wAyWNBhRCa90QL/S1MLl9GR
TDJK0JgLWdBdfSLT2qcAWzIO4qr1hwsVRZBO/QepILSD3MdXk7BOayno+e0e8+9h
PX4GVHh02vrh6A+z1fwg6Y+++8Z0w24Lj6SBW3GGjdPlg+cCAwEAAaOCAmAwggJc
MA4GA1UdDwEB/wQEAwIFoDAdBgNVHSUEFjAUBggrBgEFBQcDAQYIKwYBBQUHAwIw
DAYDVR0TAQH/BAIwADAdBgNVHQ4EFgQUu4sdL2bKV5WXF+PdCV9T4E7rSS0wHwYD
VR0jBBgwFoAUqEpqYwR93brm0Tm3pkVl7/Oo7KEwbwYIKwYBBQUHAQEEYzBhMC4G
CCsGAQUFBzABhiJodHRwOi8vb2NzcC5pbnQteDMubGV0c2VuY3J5cHQub3JnMC8G
CCsGAQUFBzAChiNodHRwOi8vY2VydC5pbnQteDMubGV0c2VuY3J5cHQub3JnLzBr
BgNVHREEZDBighBjcGFuZWwuZ29vZ2xlLnRngglnb29nbGUudGeCDm1haWwuZ29v
Z2xlLnRnghF3ZWJkaXNrLmdvb2dsZS50Z4IRd2VibWFpbC5nb29nbGUudGeCDXd3
dy5nb29nbGUudGcwgf4GA1UdIASB9jCB8zAIBgZngQwBAgEwgeYGCysGAQQBgt8T
AQEBMIHWMCYGCCsGAQUFBwIBFhpodHRwOi8vY3BzLmxldHNlbmNyeXB0Lm9yZzCB
qwYIKwYBBQUHAgIwgZ4MgZtUaGlzIENlcnRpZmljYXRlIG1heSBvbmx5IGJlIHJl
bGllZCB1cG9uIGJ5IFJlbHlpbmcgUGFydGllcyBhbmQgb25seSBpbiBhY2NvcmRh
bmNlIHdpdGggdGhlIENlcnRpZmljYXRlIFBvbGljeSBmb3VuZCBhdCBodHRwczov
L2xldHNlbmNyeXB0Lm9yZy9yZXBvc2l0b3J5LzANBgkqhkiG9w0BAQsFAAOCAQEA
HxChOgpowvBd1dToCsU+UMZW3c7VWPlgFlWoHCsz8CIUqkutvcO7/4TGLrcZnuq8
YCn5jIedISuLAh94I5nxt6yXNN4EZkcwU73jv15SG6G+qbvn+8qFOJ292838RXp7
dIfGXKQx54kryfu/HrzoflvfhAx7vZkijXXqlmpCHBCG0Sf5co5cGKAKGBI9N6PV
BpvAaKd900gL9U/7dMQx5LZZ7f9a+iow2r0geKLGhRrObZYCKV6tZ8B8UnVPjQmK
3ahVc2zPuSip9fGGlRxlpGCdn0OnXg19G0Rtrg81VNYjWl5q7krMa1zqy/g2vkaJ
A2BIMZgTppXZVD5tgqCMRg==
-----END CERTIFICATE-----
