Certificate:
    Data:
        Version: 3 (0x2)
        Serial Number:
            03:fe:c3:1c:27:33:06:73:f9:a9:45:61:d2:31:76:a6:fc:01
    Signature Algorithm: sha256WithRSAEncryption
        Issuer: C = US, O = Let's Encrypt, CN = Let's Encrypt Authority X3
        Validity
            Not Before: Nov  1 12:51:13 2017 GMT
            Not After : Jan 30 12:51:13 2018 GMT
        Subject: CN = gmail.tg
        Subject Public Key Info:
            Public Key Algorithm: rsaEncryption
                Public-Key: (2048 bit)
                Modulus:
                    00:c2:3a:0e:66:79:21:60:64:1b:61:e1:80:58:39:
                    4a:61:f5:c7:60:af:3a:90:0c:cc:7d:d6:02:08:c7:
                    db:76:d0:10:aa:11:8b:1a:b7:0b:b4:aa:d3:14:5f:
                    9d:4d:57:12:b9:b5:a8:06:56:83:d4:c9:0b:30:8f:
                    36:6c:e3:98:6a:1c:94:fe:49:24:5a:6a:08:d2:23:
                    7f:8b:e2:3a:0a:ba:21:b4:2d:b5:af:be:7a:9a:45:
                    9f:59:e7:b1:6f:0e:2d:50:ae:aa:2d:3a:7d:75:b5:
                    da:5d:74:22:74:41:d8:bf:b2:2b:e9:a2:fe:1d:ed:
                    94:4f:ba:48:2d:c6:29:a8:70:08:ce:4e:fc:bd:1b:
                    63:bd:cc:26:14:5d:11:c3:1c:ec:af:9b:88:69:ac:
                    18:6c:a5:04:c3:20:3c:0b:bf:ef:a1:c0:57:e7:59:
                    3c:87:aa:7c:59:9b:8d:24:a0:2a:9e:86:8a:2f:f4:
                    5d:7e:16:44:8c:fc:fd:e6:e1:82:67:f8:1a:3f:e1:
                    e1:3a:9c:b0:92:53:85:9f:83:2e:d1:31:cd:29:12:
                    d5:c4:aa:17:08:27:92:b7:29:6a:38:1e:37:e0:cd:
                    f0:1b:46:67:10:f7:69:8f:af:e2:d6:44:b2:0b:13:
                    4f:5d:a0:22:25:94:50:8f:bb:55:a3:e6:86:fe:32:
                    9f:b9
                Exponent: 65537 (0x10001)
        X509v3 extensions:
            X509v3 Key Usage: critical
                Digital Signature, Key Encipherment
            X509v3 Extended Key Usage: 
                TLS Web Server Authentication, TLS Web Client Authentication
            X509v3 Basic Constraints: critical
                CA:FALSE
            X509v3 Subject Key Identifier: 
                E5:F2:83:ED:40:64:BD:6C:EF:15:DA:87:77:98:49:62:4B:87:D6:F8
            X509v3 Authority Key Identifier: 
                keyid:A8:4A:6A:63:04:7D:DD:BA:E6:D1:39:B7:A6:45:65:EF:F3:A8:EC:A1

            Authority Information Access: 
                OCSP - URI:http://ocsp.int-x3.letsencrypt.org
                CA Issuers - URI:http://cert.int-x3.letsencrypt.org/

            X509v3 Subject Alternative Name: 
                DNS:cpanel.gmail.tg, DNS:gmail.tg, DNS:mail.gmail.tg, DNS:webdisk.gmail.tg, DNS:webmail.gmail.tg, DNS:www.gmail.tg
            X509v3 Certificate Policies: 
                Policy: 2.23.140.1.2.1
                Policy: 1.3.6.1.4.1.44947.1.1.1
                  CPS: http://cps.letsencrypt.org
                  User Notice:
                    Explicit Text: This Certificate may only be relied upon by Relying Parties and only in accordance with the Certificate Policy found at https://letsencrypt.org/repository/

    Signature Algorithm: sha256WithRSAEncryption
         48:69:f2:3c:c9:e1:3f:c7:6d:00:40:0c:54:a1:7a:32:04:57:
         04:da:fa:9c:3b:b0:1e:9a:d7:63:93:5f:73:a5:d4:fc:4f:29:
         b3:63:d3:71:d8:1b:ca:47:69:61:84:fe:92:c7:97:a5:8d:f6:
         b5:5a:4b:2b:cf:2e:f2:3e:44:1f:6e:4a:8a:fa:4b:ff:e4:75:
         99:96:30:66:cb:98:1a:4b:86:cf:8c:7d:60:b4:00:53:e1:08:
         9d:c2:7c:9f:3f:ac:3f:bb:1e:9a:26:f7:18:75:07:f0:21:bc:
         c3:a6:e6:64:5f:e2:6c:e4:b3:ab:1a:04:ba:50:dd:35:41:96:
         a5:e4:f4:cb:ca:89:84:78:00:ed:9e:57:f3:dd:e4:b9:87:90:
         c3:51:66:6e:f3:49:e2:23:1b:48:07:15:de:f3:93:4f:d6:7e:
         a9:1e:4f:00:7e:bf:10:49:4a:d1:00:3b:2a:78:04:5a:58:5c:
         79:4e:94:b2:d2:16:82:92:46:72:b9:d2:fc:4c:d6:7b:9d:ae:
         2e:49:f3:0a:34:0c:bd:c7:66:8f:2c:7f:14:13:8d:77:d3:03:
         7f:8a:a5:4d:28:b9:a5:3c:09:42:f3:fe:a9:f2:86:65:8b:8b:
         85:54:33:93:e9:28:9f:ec:bd:10:f0:2e:79:5a:4c:0b:75:55:
         dd:a2:5f:e3
-----BEGIN CERTIFICATE-----
MIIFRTCCBC2gAwIBAgISA/7DHCczBnP5qUVh0jF2pvwBMA0GCSqGSIb3DQEBCwUA
MEoxCzAJBgNVBAYTAlVTMRYwFAYDVQQKEw1MZXQncyBFbmNyeXB0MSMwIQYDVQQD
ExpMZXQncyBFbmNyeXB0IEF1dGhvcml0eSBYMzAeFw0xNzExMDExMjUxMTNaFw0x
ODAxMzAxMjUxMTNaMBMxETAPBgNVBAMTCGdtYWlsLnRnMIIBIjANBgkqhkiG9w0B
AQEFAAOCAQ8AMIIBCgKCAQEAwjoOZnkhYGQbYeGAWDlKYfXHYK86kAzMfdYCCMfb
dtAQqhGLGrcLtKrTFF+dTVcSubWoBlaD1MkLMI82bOOYahyU/kkkWmoI0iN/i+I6
CrohtC21r756mkWfWeexbw4tUK6qLTp9dbXaXXQidEHYv7Ir6aL+He2UT7pILcYp
qHAIzk78vRtjvcwmFF0Rwxzsr5uIaawYbKUEwyA8C7/vocBX51k8h6p8WZuNJKAq
noaKL/RdfhZEjPz95uGCZ/gaP+HhOpywklOFn4Mu0THNKRLVxKoXCCeStylqOB43
4M3wG0ZnEPdpj6/i1kSyCxNPXaAiJZRQj7tVo+aG/jKfuQIDAQABo4ICWjCCAlYw
DgYDVR0PAQH/BAQDAgWgMB0GA1UdJQQWMBQGCCsGAQUFBwMBBggrBgEFBQcDAjAM
BgNVHRMBAf8EAjAAMB0GA1UdDgQWBBTl8oPtQGS9bO8V2od3mEliS4fW+DAfBgNV
HSMEGDAWgBSoSmpjBH3duubRObemRWXv86jsoTBvBggrBgEFBQcBAQRjMGEwLgYI
KwYBBQUHMAGGImh0dHA6Ly9vY3NwLmludC14My5sZXRzZW5jcnlwdC5vcmcwLwYI
KwYBBQUHMAKGI2h0dHA6Ly9jZXJ0LmludC14My5sZXRzZW5jcnlwdC5vcmcvMGUG
A1UdEQReMFyCD2NwYW5lbC5nbWFpbC50Z4IIZ21haWwudGeCDW1haWwuZ21haWwu
dGeCEHdlYmRpc2suZ21haWwudGeCEHdlYm1haWwuZ21haWwudGeCDHd3dy5nbWFp
bC50ZzCB/gYDVR0gBIH2MIHzMAgGBmeBDAECATCB5gYLKwYBBAGC3xMBAQEwgdYw
JgYIKwYBBQUHAgEWGmh0dHA6Ly9jcHMubGV0c2VuY3J5cHQub3JnMIGrBggrBgEF
BQcCAjCBngyBm1RoaXMgQ2VydGlmaWNhdGUgbWF5IG9ubHkgYmUgcmVsaWVkIHVw
b24gYnkgUmVseWluZyBQYXJ0aWVzIGFuZCBvbmx5IGluIGFjY29yZGFuY2Ugd2l0
aCB0aGUgQ2VydGlmaWNhdGUgUG9saWN5IGZvdW5kIGF0IGh0dHBzOi8vbGV0c2Vu
Y3J5cHQub3JnL3JlcG9zaXRvcnkvMA0GCSqGSIb3DQEBCwUAA4IBAQBIafI8yeE/
x20AQAxUoXoyBFcE2vqcO7Aemtdjk19zpdT8TymzY9Nx2BvKR2lhhP6Sx5eljfa1
Wksrzy7yPkQfbkqK+kv/5HWZljBmy5gaS4bPjH1gtABT4QidwnyfP6w/ux6aJvcY
dQfwIbzDpuZkX+Js5LOrGgS6UN01QZal5PTLyomEeADtnlfz3eS5h5DDUWZu80ni
IxtIBxXe85NP1n6pHk8Afr8QSUrRADsqeARaWFx5TpSy0haCkkZyudL8TNZ7na4u
SfMKNAy9x2aPLH8UE4130wN/iqVNKLmlPAlC8/6p8oZli4uFVDOT6Sif7L0Q8C55
WkwLdVXdol/j
-----END CERTIFICATE-----
