Certificate:
    Data:
        Version: 3 (0x2)
        Serial Number:
            03:9a:04:4f:a5:81:5b:1e:f6:0a:89:4a:7f:4b:71:a1:6c:91
    Signature Algorithm: sha256WithRSAEncryption
        Issuer: C = US, O = Let's Encrypt, CN = Let's Encrypt Authority X3
        Validity
            Not Before: Nov  1 13:19:28 2017 GMT
            Not After : Jan 30 13:19:28 2018 GMT
        Subject: CN = blogspot.tg
        Subject Public Key Info:
            Public Key Algorithm: rsaEncryption
                Public-Key: (2048 bit)
                Modulus:
                    00:b3:af:54:ea:cb:63:5b:29:02:49:f7:e7:74:dd:
                    8a:45:56:e2:e8:ea:06:2f:e6:55:53:af:cd:c6:6f:
                    71:37:8e:c0:60:bf:c8:fb:70:cc:a6:9f:66:6c:30:
                    50:92:0e:ca:29:5b:75:77:79:c3:72:66:0b:c3:39:
                    36:dc:ad:96:61:fc:17:98:b0:7c:0f:70:72:64:9f:
                    d7:27:10:40:b1:67:ab:b8:f8:b3:cd:e4:68:33:98:
                    01:bc:e8:51:38:52:b1:a5:eb:f9:41:1f:2b:4c:36:
                    2d:8d:fa:e7:5f:27:61:2a:ac:93:8c:95:f2:5f:09:
                    dd:2d:52:0d:1f:92:fb:01:50:c2:00:4a:d1:3f:e5:
                    4a:58:ec:ba:a8:a4:b3:5d:5c:ff:b9:7f:52:d4:cd:
                    fb:79:4f:ff:49:6d:e9:9a:c3:de:f6:ef:50:11:b2:
                    03:5e:d4:3e:4d:2b:46:88:b1:98:f9:36:b8:c8:b0:
                    81:02:8f:ff:19:50:b5:34:dd:1e:16:35:a0:3a:35:
                    c5:d7:08:93:34:aa:46:e7:0e:39:79:d1:eb:01:fb:
                    6a:8e:c1:73:49:cf:03:b4:ed:cf:c7:75:f5:a6:d0:
                    1c:ae:cf:9c:60:95:a5:91:35:a7:94:b8:90:93:be:
                    92:a4:0f:9e:56:d3:32:8c:b9:1e:b9:95:1a:8e:69:
                    ab:fb
                Exponent: 65537 (0x10001)
        X509v3 extensions:
            X509v3 Key Usage: critical
                Digital Signature, Key Encipherment
            X509v3 Extended Key Usage: 
                TLS Web Server Authentication, TLS Web Client Authentication
            X509v3 Basic Constraints: critical
                CA:FALSE
            X509v3 Subject Key Identifier: 
                9B:80:36:19:83:01:A4:8B:02:05:9C:27:00:D9:0B:66:24:8F:5D:5A
            X509v3 Authority Key Identifier: 
                keyid:A8:4A:6A:63:04:7D:DD:BA:E6:D1:39:B7:A6:45:65:EF:F3:A8:EC:A1

            Authority Information Access: 
                OCSP - URI:http://ocsp.int-x3.letsencrypt.org
                CA Issuers - URI:http://cert.int-x3.letsencrypt.org/

            X509v3 Subject Alternative Name: 
                DNS:blogspot.tg, DNS:cpanel.blogspot.tg, DNS:mail.blogspot.tg, DNS:webdisk.blogspot.tg, DNS:webmail.blogspot.tg, DNS:www.blogspot.tg
            X509v3 Certificate Policies: 
                Policy: 2.23.140.1.2.1
                Policy: 1.3.6.1.4.1.44947.1.1.1
                  CPS: http://cps.letsencrypt.org
                  User Notice:
                    Explicit Text: This Certificate may only be relied upon by Relying Parties and only in accordance with the Certificate Policy found at https://letsencrypt.org/repository/

    Signature Algorithm: sha256WithRSAEncryption
         85:25:f3:9f:7c:a3:84:5c:59:94:d0:d6:0b:21:28:9c:0a:ec:
         6b:17:0d:b0:3d:8c:46:91:8c:d6:0d:60:74:ec:54:db:4d:27:
         0d:5b:8e:26:94:ff:0a:0a:59:b0:9e:8e:6b:2f:11:ba:6e:20:
         00:3d:49:2c:03:2d:c0:5b:d8:18:c4:cc:97:dc:0f:ec:d5:f3:
         5d:7b:3a:bc:10:86:8a:3c:ed:1d:6e:19:2c:de:4b:0a:5a:83:
         90:3b:fe:58:90:a4:f3:83:66:b9:71:10:2f:fd:60:87:d4:43:
         af:5b:4b:87:26:ee:f5:03:72:cc:7e:99:db:c8:d6:02:01:a1:
         d2:a5:5a:15:eb:1a:9d:e5:5c:73:19:1d:fc:ee:15:59:0f:4a:
         45:e2:09:12:5f:bc:d6:89:f2:f3:bd:83:01:dc:80:29:3c:b4:
         7d:bf:a5:c5:19:d5:b0:67:92:cc:88:57:2a:4a:86:94:7a:d1:
         83:b8:3d:f3:fb:8c:62:86:18:a1:69:f4:ec:42:34:11:e7:0f:
         1e:02:d5:53:89:56:ba:e3:f6:06:50:45:7f:f6:c5:f1:4c:61:
         11:c3:07:c1:fa:9d:88:7f:1c:47:c7:79:98:27:05:bf:34:c9:
         52:ff:72:33:04:1f:52:92:f0:38:a0:97:5b:27:c9:d4:77:b7:
         1f:5b:19:e0
-----BEGIN CERTIFICATE-----
MIIFWjCCBEKgAwIBAgISA5oET6WBWx72ColKf0txoWyRMA0GCSqGSIb3DQEBCwUA
MEoxCzAJBgNVBAYTAlVTMRYwFAYDVQQKEw1MZXQncyBFbmNyeXB0MSMwIQYDVQQD
ExpMZXQncyBFbmNyeXB0IEF1dGhvcml0eSBYMzAeFw0xNzExMDExMzE5MjhaFw0x
ODAxMzAxMzE5MjhaMBYxFDASBgNVBAMTC2Jsb2dzcG90LnRnMIIBIjANBgkqhkiG
9w0BAQEFAAOCAQ8AMIIBCgKCAQEAs69U6stjWykCSffndN2KRVbi6OoGL+ZVU6/N
xm9xN47AYL/I+3DMpp9mbDBQkg7KKVt1d3nDcmYLwzk23K2WYfwXmLB8D3ByZJ/X
JxBAsWeruPizzeRoM5gBvOhROFKxpev5QR8rTDYtjfrnXydhKqyTjJXyXwndLVIN
H5L7AVDCAErRP+VKWOy6qKSzXVz/uX9S1M37eU//SW3pmsPe9u9QEbIDXtQ+TStG
iLGY+Ta4yLCBAo//GVC1NN0eFjWgOjXF1wiTNKpG5w45edHrAftqjsFzSc8DtO3P
x3X1ptAcrs+cYJWlkTWnlLiQk76SpA+eVtMyjLkeuZUajmmr+wIDAQABo4ICbDCC
AmgwDgYDVR0PAQH/BAQDAgWgMB0GA1UdJQQWMBQGCCsGAQUFBwMBBggrBgEFBQcD
AjAMBgNVHRMBAf8EAjAAMB0GA1UdDgQWBBSbgDYZgwGkiwIFnCcA2QtmJI9dWjAf
BgNVHSMEGDAWgBSoSmpjBH3duubRObemRWXv86jsoTBvBggrBgEFBQcBAQRjMGEw
LgYIKwYBBQUHMAGGImh0dHA6Ly9vY3NwLmludC14My5sZXRzZW5jcnlwdC5vcmcw
LwYIKwYBBQUHMAKGI2h0dHA6Ly9jZXJ0LmludC14My5sZXRzZW5jcnlwdC5vcmcv
MHcGA1UdEQRwMG6CC2Jsb2dzcG90LnRnghJjcGFuZWwuYmxvZ3Nwb3QudGeCEG1h
aWwuYmxvZ3Nwb3QudGeCE3dlYmRpc2suYmxvZ3Nwb3QudGeCE3dlYm1haWwuYmxv
Z3Nwb3QudGeCD3d3dy5ibG9nc3BvdC50ZzCB/gYDVR0gBIH2MIHzMAgGBmeBDAEC
ATCB5gYLKwYBBAGC3xMBAQEwgdYwJgYIKwYBBQUHAgEWGmh0dHA6Ly9jcHMubGV0
c2VuY3J5cHQub3JnMIGrBggrBgEFBQcCAjCBngyBm1RoaXMgQ2VydGlmaWNhdGUg
bWF5IG9ubHkgYmUgcmVsaWVkIHVwb24gYnkgUmVseWluZyBQYXJ0aWVzIGFuZCBv
bmx5IGluIGFjY29yZGFuY2Ugd2l0aCB0aGUgQ2VydGlmaWNhdGUgUG9saWN5IGZv
dW5kIGF0IGh0dHBzOi8vbGV0c2VuY3J5cHQub3JnL3JlcG9zaXRvcnkvMA0GCSqG
SIb3DQEBCwUAA4IBAQCFJfOffKOEXFmU0NYLISicCuxrFw2wPYxGkYzWDWB07FTb
TScNW44mlP8KClmwno5rLxG6biAAPUksAy3AW9gYxMyX3A/s1fNdezq8EIaKPO0d
bhks3ksKWoOQO/5YkKTzg2a5cRAv/WCH1EOvW0uHJu71A3LMfpnbyNYCAaHSpVoV
6xqd5VxzGR387hVZD0pF4gkSX7zWifLzvYMB3IApPLR9v6XFGdWwZ5LMiFcqSoaU
etGDuD3z+4xihhihafTsQjQR5w8eAtVTiVa64/YGUEV/9sXxTGERwwfB+p2IfxxH
x3mYJwW/NMlS/3IzBB9SkvA4oJdbJ8nUd7cfWxng
-----END CERTIFICATE-----
