Certificate:
    Data:
        Version: 3 (0x2)
        Serial Number: 2 (0x2)
    Signature Algorithm: sha1WithRSAEncryption
        Issuer: C=CA, ST=ON, L=Ottawa, O=Mitel Networks, OU=VoIP Platforms, CN=Mitel Networks Root CA/emailAddress=Lee_Dilkie@Mitel.com
        Validity
            Not Before: Jan 24 21:25:44 2002 GMT
            Not After : Jun 11 21:25:44 2029 GMT
        Subject: C=CA, ST=ON, O=Mitel Networks, OU=VoIP Platforms, CN=Mitel Networks ICP CA/emailAddress=Lee_Dilkie@Mitel.com
        Subject Public Key Info:
            Public Key Algorithm: rsaEncryption
                Public-Key: (1024 bit)
                Modulus:
                    00:b3:fe:d8:49:63:4a:a4:3a:01:3d:8f:11:31:1f:
                    55:8d:43:94:91:39:48:3f:1e:c0:a6:06:55:54:33:
                    7c:89:d8:b6:0e:3f:6b:37:63:02:0c:ac:7d:8e:34:
                    57:1f:67:78:05:16:ab:29:0f:69:81:b4:39:3f:1a:
                    b4:a0:ab:96:c8:db:25:c9:44:2a:aa:ba:38:43:cc:
                    82:bf:d4:6f:f2:71:c0:7d:08:ae:2c:9d:0f:d5:76:
                    d1:92:38:57:fb:56:af:1c:22:71:2b:ab:00:59:22:
                    50:8d:2b:d9:6a:98:6b:a2:31:80:83:e3:32:e9:68:
                    1f:9f:58:a2:91:20:bd:4b:e7
                Exponent: 65537 (0x10001)
        X509v3 extensions:
            X509v3 Basic Constraints: 
                CA:TRUE
            Netscape Comment: 
                OpenSSL Generated Certificate
            X509v3 Subject Key Identifier: 
                75:E9:50:52:78:06:5B:0E:5A:A2:39:1C:AD:8D:3E:6E:91:65:AC:C0
            X509v3 Authority Key Identifier: 
                keyid:8D:75:06:FA:DB:5F:6E:B8:73:D4:67:C5:FF:DF:43:F8:9D:52:71:3A
                DirName:/C=CA/ST=ON/L=Ottawa/O=Mitel Networks/OU=VoIP Platforms/CN=Mitel Networks Root CA/emailAddress=Lee_Dilkie@Mitel.com
                serial:00

    Signature Algorithm: sha1WithRSAEncryption
         5b:38:fe:e7:c7:b0:66:01:88:08:24:c6:f8:de:28:54:c2:ac:
         62:5a:48:33:00:65:fa:47:98:33:b0:b5:7f:fb:65:7e:9f:68:
         49:9f:95:76:59:ce:62:d1:35:e1:8b:36:05:44:04:f4:19:b0:
         67:19:74:af:22:03:74:01:0b:fc:fe:c3:3f:2a:a4:a9:16:d1:
         82:44:a5:2b:90:e7:21:d4:b2:9d:a6:db:9c:e8:62:f1:f8:63:
         f5:4e:06:fe:5f:f2:c7:71:08:e2:50:76:a0:73:9a:1a:29:0d:
         ee:90:bb:8a:ea:fa:37:63:e9:b0:fb:a8:e9:c9:19:e9:cb:a6:
         7a:60
-----BEGIN CERTIFICATE-----
MIID4DCCA0mgAwIBAgIBAjANBgkqhkiG9w0BAQUFADCBozELMAkGA1UEBhMCQ0Ex
CzAJBgNVBAgTAk9OMQ8wDQYDVQQHEwZPdHRhd2ExFzAVBgNVBAoTDk1pdGVsIE5l
dHdvcmtzMRcwFQYDVQQLEw5Wb0lQIFBsYXRmb3JtczEfMB0GA1UEAxMWTWl0ZWwg
TmV0d29ya3MgUm9vdCBDQTEjMCEGCSqGSIb3DQEJARYUTGVlX0RpbGtpZUBNaXRl
bC5jb20wHhcNMDIwMTI0MjEyNTQ0WhcNMjkwNjExMjEyNTQ0WjCBkTELMAkGA1UE
BhMCQ0ExCzAJBgNVBAgTAk9OMRcwFQYDVQQKEw5NaXRlbCBOZXR3b3JrczEXMBUG
A1UECxMOVm9JUCBQbGF0Zm9ybXMxHjAcBgNVBAMTFU1pdGVsIE5ldHdvcmtzIElD
UCBDQTEjMCEGCSqGSIb3DQEJARYUTGVlX0RpbGtpZUBNaXRlbC5jb20wgZ8wDQYJ
KoZIhvcNAQEBBQADgY0AMIGJAoGBALP+2EljSqQ6AT2PETEfVY1DlJE5SD8ewKYG
VVQzfInYtg4/azdjAgysfY40Vx9neAUWqykPaYG0OT8atKCrlsjbJclEKqq6OEPM
gr/Ub/JxwH0IriydD9V20ZI4V/tWrxwicSurAFkiUI0r2WqYa6IxgIPjMuloH59Y
opEgvUvnAgMBAAGjggEyMIIBLjAMBgNVHRMEBTADAQH/MCwGCWCGSAGG+EIBDQQf
Fh1PcGVuU1NMIEdlbmVyYXRlZCBDZXJ0aWZpY2F0ZTAdBgNVHQ4EFgQUdelQUngG
Ww5aojkcrY0+bpFlrMAwgdAGA1UdIwSByDCBxYAUjXUG+ttfbrhz1GfF/99D+J1S
cTqhgamkgaYwgaMxCzAJBgNVBAYTAkNBMQswCQYDVQQIEwJPTjEPMA0GA1UEBxMG
T3R0YXdhMRcwFQYDVQQKEw5NaXRlbCBOZXR3b3JrczEXMBUGA1UECxMOVm9JUCBQ
bGF0Zm9ybXMxHzAdBgNVBAMTFk1pdGVsIE5ldHdvcmtzIFJvb3QgQ0ExIzAhBgkq
hkiG9w0BCQEWFExlZV9EaWxraWVATWl0ZWwuY29tggEAMA0GCSqGSIb3DQEBBQUA
A4GBAFs4/ufHsGYBiAgkxvjeKFTCrGJaSDMAZfpHmDOwtX/7ZX6faEmflXZZzmLR
NeGLNgVEBPQZsGcZdK8iA3QBC/z+wz8qpKkW0YJEpSuQ5yHUsp2m25zoYvH4Y/VO
Bv5f8sdxCOJQdqBzmhopDe6Qu4rq+jdj6bD7qOnJGenLpnpg
-----END CERTIFICATE-----
