Certificate:
    Data:
        Version: 3 (0x2)
        Serial Number:
            05:a0:47:08:55:12:64:63:d1:f2:92:32:cf:62:d7:d9:e4:9f
        Signature Algorithm: sha256WithRSAEncryption
        Issuer: C=US, O=Let's Encrypt, CN=R12
        Validity
            Not Before: May 17 20:13:54 2026 GMT
            Not After : Aug 15 20:13:53 2026 GMT
        Subject: CN=webmail.gmail.co.ug
        Subject Public Key Info:
            Public Key Algorithm: rsaEncryption
                Public-Key: (2048 bit)
                Modulus:
                    00:bd:dc:d8:68:96:66:01:11:dd:71:f5:9e:cb:7d:
                    18:8a:11:09:f4:0a:37:a3:f6:30:d5:29:9d:07:89:
                    64:3a:1d:2f:03:1f:4d:33:10:67:e4:10:fa:ca:ba:
                    29:27:36:91:17:23:25:e8:b5:6c:79:4c:ea:a1:46:
                    03:fc:0b:07:b3:b2:2e:54:0d:1b:36:58:76:82:16:
                    8b:86:d6:0a:a1:a9:70:0f:af:f9:49:e2:0f:5c:a0:
                    2d:4a:59:ed:29:81:18:6f:44:3d:a7:ff:87:3a:2e:
                    96:1c:39:c7:09:d6:59:aa:9b:b3:cf:5c:2a:65:a0:
                    3d:68:ae:95:84:1c:33:3b:56:4f:05:0f:36:87:99:
                    91:dc:22:f2:52:0b:53:63:dd:84:17:99:d9:9b:6b:
                    16:bf:85:a9:ab:c9:b0:2c:a7:45:6f:9a:d5:db:e0:
                    ac:3b:bc:2f:25:cb:d9:9a:ed:a9:c9:39:b3:38:4a:
                    3c:47:2d:f4:4f:d4:f2:33:ac:d4:cc:75:30:38:ca:
                    b3:94:29:4e:6e:f6:b5:58:66:76:9b:a1:ad:6a:46:
                    28:f6:7d:ce:06:5e:47:f9:dc:bd:49:a4:aa:f9:b7:
                    85:20:44:87:d1:ae:a1:be:57:12:8e:59:08:0c:e5:
                    aa:0e:1d:5c:73:81:d3:05:eb:ea:0c:8f:9c:41:cd:
                    73:0d
                Exponent: 65537 (0x10001)
        X509v3 extensions:
            X509v3 Key Usage: critical
                Digital Signature, Key Encipherment
            X509v3 Extended Key Usage: 
                TLS Web Server Authentication
            X509v3 Basic Constraints: critical
                CA:FALSE
            X509v3 Subject Key Identifier: 
                BA:A9:A7:D8:FF:96:D4:F4:63:DF:F8:AA:E1:23:23:41:57:00:61:48
            X509v3 Authority Key Identifier: 
                00:B5:29:F2:2D:8E:6F:31:E8:9B:4C:AD:78:3E:FA:DC:E9:0C:D1:D2
            Authority Information Access: 
                CA Issuers - URI:http://r12.i.lencr.org/
            X509v3 Subject Alternative Name: 
                DNS:autodiscover.gmail.co.ug, DNS:cpanel.gmail.co.ug, DNS:cpcalendars.gmail.co.ug, DNS:cpcontacts.gmail.co.ug, DNS:gmail.co.ug, DNS:mail.gmail.co.ug, DNS:webdisk.gmail.co.ug, DNS:webmail.gmail.co.ug, DNS:www.gmail.co.ug
            X509v3 Certificate Policies: 
                Policy: 2.23.140.1.2.1
            X509v3 CRL Distribution Points: 
                Full Name:
                  URI:http://r12.c.lencr.org/32.crl

            CT Precertificate Poison: critical
                NULL
    Signature Algorithm: sha256WithRSAEncryption
    Signature Value:
        5e:32:8a:7e:1a:fc:61:9f:47:41:60:ce:bd:72:05:14:aa:97:
        d8:16:ca:f3:15:3d:6d:65:27:93:81:cb:1f:f5:13:55:8c:09:
        dd:e5:13:6d:0f:e7:a8:25:3c:ac:9b:81:1f:c8:01:91:73:36:
        69:3b:e8:83:b3:4d:0b:b3:1e:57:80:cc:b3:8b:0e:30:9a:7f:
        97:4d:87:8a:28:77:7d:77:a9:c8:41:7a:17:56:f2:3c:47:fe:
        1c:f1:6b:57:a1:1f:a3:63:2b:58:70:8e:bb:32:c6:e8:0c:91:
        df:36:39:21:8d:4c:c4:13:99:02:e8:c6:67:4d:84:8f:db:e5:
        fe:f2:93:4e:dc:97:05:31:ca:1d:7d:e2:2e:58:6d:c2:a1:81:
        1d:3b:ef:d5:1e:49:36:72:12:a2:dd:a4:bc:9f:34:aa:2e:b4:
        8a:67:7d:4a:19:0d:36:a7:30:0b:41:4d:12:92:f6:64:3f:37:
        ff:24:c7:c0:32:b0:f8:bb:e4:1c:ad:47:90:85:83:bd:d2:dd:
        31:80:cf:56:a0:88:22:df:8c:1a:64:60:cb:a0:31:14:99:4b:
        04:6d:8f:12:f2:0e:f7:47:52:25:85:be:35:37:be:59:cb:49:
        d4:28:52:68:72:60:de:2e:c7:27:f3:7b:12:6c:15:47:94:44:
        4c:ea:59:30
-----BEGIN CERTIFICATE-----
MIIErDCCA5SgAwIBAgISBaBHCFUSZGPR8pIyz2LX2eSfMA0GCSqGSIb3DQEBCwUA
MDMxCzAJBgNVBAYTAlVTMRYwFAYDVQQKEw1MZXQncyBFbmNyeXB0MQwwCgYDVQQD
EwNSMTIwHhcNMjYwNTE3MjAxMzU0WhcNMjYwODE1MjAxMzUzWjAeMRwwGgYDVQQD
ExN3ZWJtYWlsLmdtYWlsLmNvLnVnMIIBIjANBgkqhkiG9w0BAQEFAAOCAQ8AMIIB
CgKCAQEAvdzYaJZmARHdcfWey30YihEJ9Ao3o/Yw1SmdB4lkOh0vAx9NMxBn5BD6
yropJzaRFyMl6LVseUzqoUYD/AsHs7IuVA0bNlh2ghaLhtYKoalwD6/5SeIPXKAt
SlntKYEYb0Q9p/+HOi6WHDnHCdZZqpuzz1wqZaA9aK6VhBwzO1ZPBQ82h5mR3CLy
UgtTY92EF5nZm2sWv4Wpq8mwLKdFb5rV2+CsO7wvJcvZmu2pyTmzOEo8Ry30T9Ty
M6zUzHUwOMqzlClObva1WGZ2m6GtakYo9n3OBl5H+dy9SaSq+beFIESH0a6hvlcS
jlkIDOWqDh1cc4HTBevqDI+cQc1zDQIDAQABo4IBzTCCAckwDgYDVR0PAQH/BAQD
AgWgMBMGA1UdJQQMMAoGCCsGAQUFBwMBMAwGA1UdEwEB/wQCMAAwHQYDVR0OBBYE
FLqpp9j/ltT0Y9/4quEjI0FXAGFIMB8GA1UdIwQYMBaAFAC1KfItjm8x6JtMrXg+
+tzpDNHSMDMGCCsGAQUFBwEBBCcwJTAjBggrBgEFBQcwAoYXaHR0cDovL3IxMi5p
LmxlbmNyLm9yZy8wgcQGA1UdEQSBvDCBuYIYYXV0b2Rpc2NvdmVyLmdtYWlsLmNv
LnVnghJjcGFuZWwuZ21haWwuY28udWeCF2NwY2FsZW5kYXJzLmdtYWlsLmNvLnVn
ghZjcGNvbnRhY3RzLmdtYWlsLmNvLnVnggtnbWFpbC5jby51Z4IQbWFpbC5nbWFp
bC5jby51Z4ITd2ViZGlzay5nbWFpbC5jby51Z4ITd2VibWFpbC5nbWFpbC5jby51
Z4IPd3d3LmdtYWlsLmNvLnVnMBMGA1UdIAQMMAowCAYGZ4EMAQIBMC4GA1UdHwQn
MCUwI6AhoB+GHWh0dHA6Ly9yMTIuYy5sZW5jci5vcmcvMzIuY3JsMBMGCisGAQQB
1nkCBAMBAf8EAgUAMA0GCSqGSIb3DQEBCwUAA4IBAQBeMop+Gvxhn0dBYM69cgUU
qpfYFsrzFT1tZSeTgcsf9RNVjAnd5RNtD+eoJTysm4EfyAGRczZpO+iDs00Lsx5X
gMyziw4wmn+XTYeKKHd9d6nIQXoXVvI8R/4c8WtXoR+jYytYcI67MsboDJHfNjkh
jUzEE5kC6MZnTYSP2+X+8pNO3JcFMcodfeIuWG3CoYEdO+/VHkk2chKi3aS8nzSq
LrSKZ31KGQ02pzALQU0SkvZkPzf/JMfAMrD4u+QcrUeQhYO90t0xgM9WoIgi34wa
ZGDLoDEUmUsEbY8S8g73R1Ilhb41N75Zy0nUKFJocmDeLscn83sSbBVHlERM6lkw
-----END CERTIFICATE-----
