Certificate:
    Data:
        Version: 3 (0x2)
        Serial Number: 10130 (0x2792)
    Signature Algorithm: sha256WithRSAEncryption
        Issuer: C=IN, O=India PKI, CN=CCA India 2011
        Validity
            Not Before: Mar 11 08:15:11 2011 GMT
            Not After : Mar 11 06:30:00 2016 GMT
        Subject: C=IN, O=National Informatics Centre, OU=Certifying Authority/postalCode=110003, ST=Delhi/street=Lodhi Road, New Delhi/houseIdentifier=A-Block, CGO Complex, CN=NIC CA 2011
        Subject Public Key Info:
            Public Key Algorithm: rsaEncryption
                Public-Key: (2048 bit)
                Modulus:
                    00:ec:9f:cd:f3:c3:28:5d:c0:87:4f:3e:00:e4:32:
                    85:e7:df:bc:92:f4:a7:ae:21:ab:4c:4a:30:2d:26:
                    b9:34:2b:c7:fa:8f:3d:f8:c7:fb:57:6e:b4:90:a6:
                    49:fe:14:28:c7:94:46:fc:5f:3f:81:8e:ee:f7:38:
                    8b:7b:2a:5b:79:d7:86:f0:42:25:f3:c1:c2:e3:1f:
                    61:4f:44:8d:2e:ca:e3:f6:aa:3d:d3:06:83:b8:66:
                    01:e3:f2:90:f2:ae:44:ea:2b:d5:c7:15:74:7a:9c:
                    d0:7c:50:39:03:96:e2:2a:5b:4f:05:b9:2e:fc:ce:
                    03:89:9f:93:a8:16:c7:c6:8e:a7:45:41:19:a2:e9:
                    09:8b:4f:89:2f:29:06:23:85:69:26:54:01:ce:8c:
                    34:e2:89:b1:41:46:47:ce:f0:9f:7e:8e:90:bc:de:
                    85:77:36:74:32:8a:70:a9:a8:20:c9:f1:c3:16:ef:
                    68:e1:e9:42:47:d2:9d:fe:86:d8:96:05:c0:1c:b6:
                    30:26:53:74:a7:26:db:7b:65:a9:2a:3f:35:fe:9c:
                    43:84:a8:31:ad:53:7e:39:96:88:e4:e3:01:06:48:
                    c3:45:01:be:67:21:27:41:bf:17:60:c3:4f:25:b3:
                    a0:40:66:20:b1:17:4f:3e:32:27:ee:9a:13:cf:17:
                    bb:49
                Exponent: 65537 (0x10001)
        X509v3 extensions:
            X509v3 Basic Constraints: critical
                CA:TRUE, pathlen:1
            X509v3 Subject Key Identifier: 
                4E:55:4F:AE:B3:DF:A1:66
            X509v3 Certificate Policies: 
                Policy: 2.16.356.100.2

            X509v3 Authority Key Identifier: 
                keyid:4D:07:A8:63:F2:DB:1C:DF

            Authority Information Access: 
                OCSP - URI:http://ocvs.gov.in

            X509v3 Key Usage: critical
                Certificate Sign, CRL Sign
            X509v3 CRL Distribution Points: 

                Full Name:
                  URI:http://cca.gov.in/rw/resources/CCAIndia2011Latest.crl

    Signature Algorithm: sha256WithRSAEncryption
         79:2c:2a:ad:1d:bc:5f:3b:bd:8a:45:62:5b:5b:d7:40:1c:d8:
         76:c6:1f:27:ef:0b:2d:36:04:8f:1c:b6:e3:2f:90:74:97:b4:
         59:94:21:5a:bb:2e:1f:8d:cd:9f:68:c8:81:c6:73:aa:e6:81:
         17:78:86:41:ad:3d:8d:92:e1:32:99:0f:1f:d0:fc:e6:de:97:
         17:ac:c9:05:ae:3e:fc:4a:20:34:ef:f7:0f:41:28:41:28:aa:
         70:df:db:7a:a6:e2:55:f3:29:22:55:93:19:bd:20:a3:0b:3c:
         d9:66:55:4e:d7:66:f6:0a:10:03:91:fe:b0:b6:c7:9f:b7:1e:
         4e:ff:30:6c:a8:fd:d8:db:ed:fe:2a:f1:1e:0d:5b:6e:b1:e2:
         ae:15:5d:8e:c5:2b:2a:49:f7:df:26:ae:c8:61:3c:29:44:f3:
         95:cc:71:89:9e:35:77:22:0b:63:df:30:33:66:6f:02:5b:14:
         4c:ff:28:67:90:6c:95:73:ec:73:fd:3e:e8:59:8d:3c:ef:47:
         9c:89:1f:9b:98:b8:d9:f6:3d:28:a6:e7:59:47:a7:be:94:2b:
         0c:1c:7d:8b:c5:cf:02:ff:45:d1:70:2c:dc:81:a9:f1:7d:60:
         9b:fd:f6:f4:83:1e:38:89:8d:1a:fb:05:82:55:e6:e3:bb:22:
         94:fc:15:e4
-----BEGIN CERTIFICATE-----
MIIEWzCCA0OgAwIBAgICJ5IwDQYJKoZIhvcNAQELBQAwOjELMAkGA1UEBhMCSU4x
EjAQBgNVBAoTCUluZGlhIFBLSTEXMBUGA1UEAxMOQ0NBIEluZGlhIDIwMTEwHhcN
MTEwMzExMDgxNTExWhcNMTYwMzExMDYzMDAwWjCByDELMAkGA1UEBhMCSU4xJDAi
BgNVBAoTG05hdGlvbmFsIEluZm9ybWF0aWNzIENlbnRyZTEdMBsGA1UECxMUQ2Vy
dGlmeWluZyBBdXRob3JpdHkxDzANBgNVBBETBjExMDAwMzEOMAwGA1UECBMFRGVs
aGkxHjAcBgNVBAkTFUxvZGhpIFJvYWQsIE5ldyBEZWxoaTEdMBsGA1UEMwwUQS1C
bG9jaywgQ0dPIENvbXBsZXgxFDASBgNVBAMTC05JQyBDQSAyMDExMIIBIjANBgkq
hkiG9w0BAQEFAAOCAQ8AMIIBCgKCAQEA7J/N88MoXcCHTz4A5DKF59+8kvSnriGr
TEowLSa5NCvH+o89+Mf7V260kKZJ/hQox5RG/F8/gY7u9ziLeypbedeG8EIl88HC
4x9hT0SNLsrj9qo90waDuGYB4/KQ8q5E6ivVxxV0epzQfFA5A5biKltPBbku/M4D
iZ+TqBbHxo6nRUEZoukJi0+JLykGI4VpJlQBzow04omxQUZHzvCffo6QvN6FdzZ0
MopwqaggyfHDFu9o4elCR9Kd/obYlgXAHLYwJlN0pybbe2WpKj81/pxDhKgxrVN+
OZaI5OMBBkjDRQG+ZyEnQb8XYMNPJbOgQGYgsRdPPjIn7poTzxe7SQIDAQABo4Hb
MIHYMBIGA1UdEwEB/wQIMAYBAf8CAQEwEQYDVR0OBAoECE5VT66z36FmMBIGA1Ud
IAQLMAkwBwYFYIJkZAIwEwYDVR0jBAwwCoAITQeoY/LbHN8wLgYIKwYBBQUHAQEE
IjAgMB4GCCsGAQUFBzABhhJodHRwOi8vb2N2cy5nb3YuaW4wDgYDVR0PAQH/BAQD
AgEGMEYGA1UdHwQ/MD0wO6A5oDeGNWh0dHA6Ly9jY2EuZ292LmluL3J3L3Jlc291
cmNlcy9DQ0FJbmRpYTIwMTFMYXRlc3QuY3JsMA0GCSqGSIb3DQEBCwUAA4IBAQB5
LCqtHbxfO72KRWJbW9dAHNh2xh8n7wstNgSPHLbjL5B0l7RZlCFauy4fjc2faMiB
xnOq5oEXeIZBrT2NkuEymQ8f0Pzm3pcXrMkFrj78SiA07/cPQShBKKpw39t6puJV
8ykiVZMZvSCjCzzZZlVO12b2ChADkf6wtseftx5O/zBsqP3Y2+3+KvEeDVtuseKu
FV2OxSsqSfffJq7IYTwpRPOVzHGJnjV3Igtj3zAzZm8CWxRM/yhnkGyVc+xz/T7o
WY0870eciR+bmLjZ9j0opudZR6e+lCsMHH2Lxc8C/0XRcCzcganxfWCb/fb0gx44
iY0a+wWCVebjuyKU/BXk
-----END CERTIFICATE-----
