Certificate:
    Data:
        Version: 3 (0x2)
        Serial Number:
            3e:75:ce:d4:6b:69:30:21:21:88:30:ae:86:a8:2a:71
    Signature Algorithm: sha1WithRSAEncryption
        Issuer: C=US, ST=UT, L=Salt Lake City, O=The USERTRUST Network, OU=http://www.usertrust.com, CN=UTN-USERFirst-Hardware
        Validity
            Not Before: Mar 15 00:00:00 2011 GMT
            Not After : Mar 14 23:59:59 2014 GMT
        Subject: C=US/postalCode=38477, ST=Florida, L=English/street=Sea Village 10, O=Google Ltd., OU=Tech Dept., OU=Hosted by GTI Group Corporation, OU=PlatinumSSL, CN=login.yahoo.com
        Subject Public Key Info:
            Public Key Algorithm: rsaEncryption
                Public-Key: (2048 bit)
                Modulus:
                    00:a1:a4:05:3d:ed:85:45:93:8a:18:4d:c6:03:00:
                    57:e2:40:77:f0:1c:eb:d0:19:df:22:5d:08:7f:d1:
                    07:3c:41:89:46:17:a3:09:fa:fc:f8:a9:04:d1:96:
                    8f:ab:d7:4f:3c:f9:ad:18:a9:74:81:c4:57:0a:3a:
                    26:16:ce:62:3e:bc:3f:6c:21:ee:93:8d:cb:0d:a0:
                    1f:9a:96:d0:8f:ad:f5:93:93:82:ee:72:0c:a1:75:
                    15:a3:7b:84:56:b8:ad:ff:52:11:71:84:bc:3a:30:
                    0b:7e:98:a8:e1:a8:3f:37:52:d0:f1:7c:6f:90:d8:
                    45:0a:ac:39:72:6a:61:d5:bb:c3:8c:f9:c2:cc:df:
                    fd:3a:71:b9:af:bc:dc:3a:dc:0c:b6:b1:d2:d1:89:
                    bb:41:b6:f2:de:57:d5:15:df:fc:fd:e2:31:c5:df:
                    ca:c1:d8:8f:2c:bf:f0:0e:5b:71:e0:34:71:c3:c5:
                    4d:7d:7a:d4:fa:ed:30:4b:2f:ea:b6:2e:9e:93:3c:
                    e2:3a:f8:42:a2:1a:ee:dc:df:cd:0f:a9:f6:79:84:
                    1a:8e:6c:02:b6:86:e5:bf:51:6a:66:f8:f3:9c:d3:
                    59:0c:7b:a5:99:78:cd:7c:99:fa:c6:96:47:d8:32:
                    d4:74:76:0e:77:4b:20:74:a4:b7:89:75:92:4a:b4:
                    5b:55
                Exponent: 65537 (0x10001)
        X509v3 extensions:
            X509v3 Authority Key Identifier: 
                keyid:A1:72:5F:26:1B:28:98:43:95:5D:07:37:D5:85:96:9D:4B:D2:C3:45

            X509v3 Subject Key Identifier: 
                86:49:45:FC:33:19:33:D4:04:ED:27:61:EE:E8:01:C9:0C:7F:2F:7E
            X509v3 Key Usage: critical
                Digital Signature, Key Encipherment
            X509v3 Basic Constraints: critical
                CA:FALSE
            X509v3 Extended Key Usage: 
                TLS Web Server Authentication, TLS Web Client Authentication
            X509v3 Certificate Policies: 
                Policy: 1.3.6.1.4.1.6449.1.2.1.3.4
                  CPS: https://secure.comodo.com/CPS

            X509v3 CRL Distribution Points: 

                Full Name:
                  URI:http://crl.comodoca.com/UTN-USERFirst-Hardware.crl

                Full Name:
                  URI:http://crl.comodo.net/UTN-USERFirst-Hardware.crl

            Authority Information Access: 
                CA Issuers - URI:http://crt.comodoca.com/UTNAddTrustServerCA.crt
                OCSP - URI:http://ocsp.comodoca.com

            X509v3 Subject Alternative Name: 
                DNS:login.yahoo.com
    Signature Algorithm: sha1WithRSAEncryption
         53:69:98:8e:28:4e:9c:2b:5b:1d:cc:6b:77:28:3d:bb:fa:a5:
         4e:7e:56:29:a4:ea:10:e2:f4:e6:2d:06:d1:84:db:23:ce:97:
         f3:68:b6:0f:3a:de:15:0b:24:1d:91:e3:6c:2e:30:b7:e9:70:
         b0:c3:46:80:f0:d3:b1:51:bf:4f:d6:78:a0:fc:ac:c6:cf:31:
         04:63:e2:34:55:05:4a:3d:f6:30:ba:f3:33:e5:ba:d2:96:f3:
         d5:b1:b6:93:89:1a:a4:68:be:7e:ed:63:b4:1a:48:c0:53:e4:
         a3:f0:39:0c:32:92:c7:43:0d:1a:71:ed:d0:46:93:bf:93:62:
         6c:33:4b:cd:36:0d:69:5e:bb:6c:96:99:21:69:c4:4b:67:72:
         db:6c:6a:b8:f7:68:ed:c5:8f:ad:63:65:95:0a:4c:e0:f9:0f:
         7e:37:3d:aa:d4:93:ba:67:09:c3:a5:a4:0d:03:5a:6d:d5:0b:
         fe:f0:40:14:b4:f6:b8:69:7c:6d:c2:32:4b:9f:b5:1a:e7:46:
         ae:4c:5a:2b:aa:7a:5e:90:57:95:fa:db:66:02:20:1e:6a:69:
         66:15:9c:c2:b6:f5:bc:50:b5:fd:45:c7:1f:68:b4:47:59:ac:
         c4:1b:28:93:4e:52:53:12:03:58:4b:71:83:9f:66:e6:ac:79:
         48:fe:fe:47
-----BEGIN CERTIFICATE-----
MIIF2TCCBMGgAwIBAgIQPnXO1GtpMCEhiDCuhqgqcTANBgkqhkiG9w0BAQUFADCB
lzELMAkGA1UEBhMCVVMxCzAJBgNVBAgTAlVUMRcwFQYDVQQHEw5TYWx0IExha2Ug
Q2l0eTEeMBwGA1UEChMVVGhlIFVTRVJUUlVTVCBOZXR3b3JrMSEwHwYDVQQLExho
dHRwOi8vd3d3LnVzZXJ0cnVzdC5jb20xHzAdBgNVBAMTFlVUTi1VU0VSRmlyc3Qt
SGFyZHdhcmUwHhcNMTEwMzE1MDAwMDAwWhcNMTQwMzE0MjM1OTU5WjCB3zELMAkG
A1UEBhMCVVMxDjAMBgNVBBETBTM4NDc3MRAwDgYDVQQIEwdGbG9yaWRhMRAwDgYD
VQQHEwdFbmdsaXNoMRcwFQYDVQQJEw5TZWEgVmlsbGFnZSAxMDEUMBIGA1UEChML
R29vZ2xlIEx0ZC4xEzARBgNVBAsTClRlY2ggRGVwdC4xKDAmBgNVBAsTH0hvc3Rl
ZCBieSBHVEkgR3JvdXAgQ29ycG9yYXRpb24xFDASBgNVBAsTC1BsYXRpbnVtU1NM
MRgwFgYDVQQDEw9sb2dpbi55YWhvby5jb20wggEiMA0GCSqGSIb3DQEBAQUAA4IB
DwAwggEKAoIBAQChpAU97YVFk4oYTcYDAFfiQHfwHOvQGd8iXQh/0Qc8QYlGF6MJ
+vz4qQTRlo+r1088+a0YqXSBxFcKOiYWzmI+vD9sIe6TjcsNoB+altCPrfWTk4Lu
cgyhdRWje4RWuK3/UhFxhLw6MAt+mKjhqD83UtDxfG+Q2EUKrDlyamHVu8OM+cLM
3/06cbmvvNw63Ay2sdLRibtBtvLeV9UV3/z94jHF38rB2I8sv/AOW3HgNHHDxU19
etT67TBLL+q2Lp6TPOI6+EKiGu7c380PqfZ5hBqObAK2huW/UWpm+POc01kMe6WZ
eM18mfrGlkfYMtR0dg53SyB0pLeJdZJKtFtVAgMBAAGjggHVMIIB0TAfBgNVHSME
GDAWgBShcl8mGyiYQ5VdBzfVhZadS9LDRTAdBgNVHQ4EFgQUhklF/DMZM9QE7Sdh
7ugByQx/L34wDgYDVR0PAQH/BAQDAgWgMAwGA1UdEwEB/wQCMAAwHQYDVR0lBBYw
FAYIKwYBBQUHAwEGCCsGAQUFBwMCMEYGA1UdIAQ/MD0wOwYMKwYBBAGyMQECAQME
MCswKQYIKwYBBQUHAgEWHWh0dHBzOi8vc2VjdXJlLmNvbW9kby5jb20vQ1BTMHsG
A1UdHwR0MHIwOKA2oDSGMmh0dHA6Ly9jcmwuY29tb2RvY2EuY29tL1VUTi1VU0VS
Rmlyc3QtSGFyZHdhcmUuY3JsMDagNKAyhjBodHRwOi8vY3JsLmNvbW9kby5uZXQv
VVROLVVTRVJGaXJzdC1IYXJkd2FyZS5jcmwwcQYIKwYBBQUHAQEEZTBjMDsGCCsG
AQUFBzAChi9odHRwOi8vY3J0LmNvbW9kb2NhLmNvbS9VVE5BZGRUcnVzdFNlcnZl
ckNBLmNydDAkBggrBgEFBQcwAYYYaHR0cDovL29jc3AuY29tb2RvY2EuY29tMBoG
A1UdEQQTMBGCD2xvZ2luLnlhaG9vLmNvbTANBgkqhkiG9w0BAQUFAAOCAQEAU2mY
jihOnCtbHcxrdyg9u/qlTn5WKaTqEOL05i0G0YTbI86X82i2DzreFQskHZHjbC4w
t+lwsMNGgPDTsVG/T9Z4oPysxs8xBGPiNFUFSj32MLrzM+W60pbz1bG2k4kapGi+
fu1jtBpIwFPko/A5DDKSx0MNGnHt0EaTv5NibDNLzTYNaV67bJaZIWnES2dy22xq
uPdo7cWPrWNllQpM4PkPfjc9qtSTumcJw6WkDQNabdUL/vBAFLT2uGl8bcIyS5+1
GudGrkxaK6p6XpBXlfrbZgIgHmppZhWcwrb1vFC1/UXHH2i0R1msxBsok05SUxID
WEtxg59m5qx5SP7+Rw==
-----END CERTIFICATE-----
