Certificate:
    Data:
        Version: 3 (0x2)
        Serial Number:
            12:bd:26:a2:ae:33:c0:7f:24:7b:6a:58:69:f2:0a:76
    Signature Algorithm: sha1WithRSAEncryption
        Issuer: C=US, O=VeriSign, Inc., OU=VeriSign Trust Network, OU=(c) 1999 VeriSign, Inc. - For authorized use only, CN=VeriSign Class 3 Public Primary Certification Authority - G3
        Validity
            Not Before: May 18 00:00:00 2008 GMT
            Not After : May 17 23:59:59 2018 GMT
        Subject: C=EG, O=Egypt Trust, OU=VeriSign Trust Network, OU=Terms of use at https://www.egypttrust.com/repository/rpa (c)08, CN=Egypt Trust Class 3 Managed PKI SCO Administrator CA
        Subject Public Key Info:
            Public Key Algorithm: rsaEncryption
                Public-Key: (2048 bit)
                Modulus:
                    00:ab:64:26:78:d0:0e:07:c2:d6:de:98:1f:19:ed:
                    b9:90:18:ae:d2:93:d9:39:44:bf:50:7a:88:dd:86:
                    e1:96:75:dd:2f:a2:a8:f9:86:c7:c2:2b:64:b4:a1:
                    3a:cd:e4:17:4c:be:a8:8f:53:93:7b:af:9d:53:23:
                    db:cb:61:6a:84:d6:be:9e:03:74:35:ae:ee:fe:b2:
                    7b:6f:4a:87:25:4c:59:df:0a:76:9e:00:43:6c:c6:
                    30:72:ff:6a:4a:50:09:cd:ce:0c:bd:b7:6f:11:32:
                    c4:c0:1e:fc:85:9f:4e:34:d1:9e:5c:b6:ab:7f:c3:
                    1f:5b:db:06:6b:4d:fe:ce:b1:b8:13:76:1b:21:2b:
                    65:9a:1a:b1:33:5b:f2:29:a4:db:db:63:00:84:19:
                    52:a3:a2:16:5f:ca:f7:ff:ed:42:7c:b1:2f:e5:cd:
                    2c:6d:44:ab:ef:04:14:e2:f8:2d:cb:65:24:f4:46:
                    8d:2c:ea:6f:51:68:04:7f:c7:b2:d2:5e:2a:2b:41:
                    fb:2c:d7:98:a1:11:78:f0:0d:be:96:16:73:7a:3a:
                    e6:11:d7:29:17:b0:41:23:93:6f:85:68:c4:67:7d:
                    d2:db:b4:fe:60:b7:02:26:4e:20:bc:99:f0:e7:73:
                    d2:67:a6:36:77:40:d8:26:d6:2f:86:be:00:5e:18:
                    de:cf
                Exponent: 65537 (0x10001)
        X509v3 extensions:
            X509v3 Basic Constraints: critical
                CA:TRUE, pathlen:0
            X509v3 Certificate Policies: 
                Policy: 2.16.840.1.113733.1.7.23.3
                  CPS: https://www.egypttrust.com/repository/cps
                  User Notice:
                    Explicit Text: https://www.egypttrust.com/repository/rpa

            X509v3 Key Usage: critical
                Certificate Sign, CRL Sign
            Netscape Cert Type: 
                SSL CA, S/MIME CA
            X509v3 Subject Key Identifier: 
                C7:00:13:EE:74:84:14:F8:B8:7C:8B:67:8A:FF:75:DD:DD:A7:CA:E6
            X509v3 Authority Key Identifier: 
                DirName:/C=US/O=VeriSign, Inc./OU=VeriSign Trust Network/OU=(c) 1999 VeriSign, Inc. - For authorized use only/CN=VeriSign Class 3 Public Primary Certification Authority - G3
                serial:9B:7E:06:49:A3:3E:62:B9:D5:EE:90:48:71:29:EF:57

    Signature Algorithm: sha1WithRSAEncryption
         97:15:d9:0b:5e:00:ad:e1:02:c1:4b:16:83:4d:b1:14:af:19:
         0d:80:71:5f:51:a2:d7:37:49:47:84:f1:14:6e:52:89:24:44:
         d7:dc:8e:62:11:be:b1:6a:b0:ec:a2:b3:46:83:47:ae:30:8f:
         d4:7c:78:e0:f9:2e:82:b0:7e:2b:e6:b6:c1:7f:2c:26:a9:76:
         d9:2a:f6:c0:cd:6c:19:d0:1e:03:59:7f:e5:08:ee:e3:68:ea:
         c9:45:a6:be:8f:de:94:e0:2a:ca:0d:ee:64:43:74:53:e3:44:
         fe:37:6e:07:c3:85:eb:1d:4f:a7:6d:bc:a2:f0:be:73:13:dc:
         92:98:df:6a:80:ce:49:73:e7:28:9f:ca:b6:ad:37:c3:74:5a:
         f8:af:82:0b:2a:cf:ae:4d:01:87:2e:ba:d2:00:df:b8:bf:88:
         73:ef:95:83:78:33:9d:11:57:8a:c4:92:46:e9:e2:3e:64:ef:
         d4:bb:e8:4a:0b:dd:8a:8a:9e:bd:64:4e:56:46:07:9e:7d:bc:
         b0:6e:2e:d7:d2:9a:0c:22:ee:2c:7f:ac:5a:40:64:a8:2b:c6:
         b0:ce:55:9e:de:17:81:d2:8e:c2:e8:3b:ae:5e:14:25:ea:29:
         87:2e:a2:4c:90:f2:3c:8a:0e:be:a4:f1:ac:e6:1f:e3:7a:d6:
         72:c2:94:97
-----BEGIN CERTIFICATE-----
MIIGAjCCBOqgAwIBAgIQEr0moq4zwH8ke2pYafIKdjANBgkqhkiG9w0BAQUFADCB
yjELMAkGA1UEBhMCVVMxFzAVBgNVBAoTDlZlcmlTaWduLCBJbmMuMR8wHQYDVQQL
ExZWZXJpU2lnbiBUcnVzdCBOZXR3b3JrMTowOAYDVQQLEzEoYykgMTk5OSBWZXJp
U2lnbiwgSW5jLiAtIEZvciBhdXRob3JpemVkIHVzZSBvbmx5MUUwQwYDVQQDEzxW
ZXJpU2lnbiBDbGFzcyAzIFB1YmxpYyBQcmltYXJ5IENlcnRpZmljYXRpb24gQXV0
aG9yaXR5IC0gRzMwHhcNMDgwNTE4MDAwMDAwWhcNMTgwNTE3MjM1OTU5WjCBzTEL
MAkGA1UEBhMCRUcxFDASBgNVBAoTC0VneXB0IFRydXN0MR8wHQYDVQQLExZWZXJp
U2lnbiBUcnVzdCBOZXR3b3JrMUgwRgYDVQQLEz9UZXJtcyBvZiB1c2UgYXQgaHR0
cHM6Ly93d3cuZWd5cHR0cnVzdC5jb20vcmVwb3NpdG9yeS9ycGEgKGMpMDgxPTA7
BgNVBAMTNEVneXB0IFRydXN0IENsYXNzIDMgTWFuYWdlZCBQS0kgU0NPIEFkbWlu
aXN0cmF0b3IgQ0EwggEiMA0GCSqGSIb3DQEBAQUAA4IBDwAwggEKAoIBAQCrZCZ4
0A4HwtbemB8Z7bmQGK7Sk9k5RL9QeojdhuGWdd0voqj5hsfCK2S0oTrN5BdMvqiP
U5N7r51TI9vLYWqE1r6eA3Q1ru7+sntvSoclTFnfCnaeAENsxjBy/2pKUAnNzgy9
t28RMsTAHvyFn0400Z5ctqt/wx9b2wZrTf7OsbgTdhshK2WaGrEzW/IppNvbYwCE
GVKjohZfyvf/7UJ8sS/lzSxtRKvvBBTi+C3LZST0Ro0s6m9RaAR/x7LSXiorQfss
15ihEXjwDb6WFnN6OuYR1ykXsEEjk2+FaMRnfdLbtP5gtwImTiC8mfDnc9JnpjZ3
QNgm1i+GvgBeGN7PAgMBAAGjggHdMIIB2TASBgNVHRMBAf8ECDAGAQH/AgEAMIGM
BgNVHSAEgYQwgYEwfwYLYIZIAYb4RQEHFwMwcDA1BggrBgEFBQcCARYpaHR0cHM6
Ly93d3cuZWd5cHR0cnVzdC5jb20vcmVwb3NpdG9yeS9jcHMwNwYIKwYBBQUHAgIw
KxopaHR0cHM6Ly93d3cuZWd5cHR0cnVzdC5jb20vcmVwb3NpdG9yeS9ycGEwDgYD
VR0PAQH/BAQDAgEGMBEGCWCGSAGG+EIBAQQEAwIBBjAdBgNVHQ4EFgQUxwAT7nSE
FPi4fItniv913d2nyuYwgfEGA1UdIwSB6TCB5qGB0KSBzTCByjELMAkGA1UEBhMC
VVMxFzAVBgNVBAoTDlZlcmlTaWduLCBJbmMuMR8wHQYDVQQLExZWZXJpU2lnbiBU
cnVzdCBOZXR3b3JrMTowOAYDVQQLEzEoYykgMTk5OSBWZXJpU2lnbiwgSW5jLiAt
IEZvciBhdXRob3JpemVkIHVzZSBvbmx5MUUwQwYDVQQDEzxWZXJpU2lnbiBDbGFz
cyAzIFB1YmxpYyBQcmltYXJ5IENlcnRpZmljYXRpb24gQXV0aG9yaXR5IC0gRzOC
EQCbfgZJoz5iudXukEhxKe9XMA0GCSqGSIb3DQEBBQUAA4IBAQCXFdkLXgCt4QLB
SxaDTbEUrxkNgHFfUaLXN0lHhPEUblKJJETX3I5iEb6xarDsorNGg0euMI/UfHjg
+S6CsH4r5rbBfywmqXbZKvbAzWwZ0B4DWX/lCO7jaOrJRaa+j96U4CrKDe5kQ3RT
40T+N24Hw4XrHU+nbbyi8L5zE9ySmN9qgM5Jc+con8q2rTfDdFr4r4ILKs+uTQGH
LrrSAN+4v4hz75WDeDOdEVeKxJJG6eI+ZO/Uu+hKC92Kip69ZE5WRgeefbywbi7X
0poMIu4sf6xaQGSoK8awzlWe3heB0o7C6DuuXhQl6imHLqJMkPI8ig6+pPGs5h/j
etZywpSX
-----END CERTIFICATE-----
