Certificate:
    Data:
        Version: 3 (0x2)
        Serial Number:
            86:fe:1d:5f:c3:81:f8:47:d7:33:2c:73:94:75:7b:37
        Signature Algorithm: sha1WithRSAEncryption
        Issuer: C=FR, O=Certplus, CN=Class 1 Primary CA
        Validity
            Not Before: Jul  7 17:01:00 1999 GMT
            Not After : Jul  6 23:59:59 2020 GMT
        Subject: C=FR, O=Certplus, CN=Class 1 Primary CA
        Subject Public Key Info:
            Public Key Algorithm: rsaEncryption
            RSA Public Key: (2048 bit)
                Modulus (2048 bit):
                    00:c3:6b:29:c8:2e:c7:ae:7c:52:05:e9:93:89:56:
                    0a:5a:79:c9:cc:dc:25:ef:87:8a:2d:05:d8:81:17:
                    04:1b:3a:45:f8:79:0e:0d:49:d4:81:41:c8:ab:45:
                    fb:75:c8:15:f2:e2:d0:bc:d9:61:6c:84:a4:13:19:
                    a7:d9:f9:f2:49:dc:4c:0f:c6:7d:57:b4:13:dc:1e:
                    09:71:29:36:9d:80:58:f4:1b:d8:89:14:eb:d3:d2:
                    93:4b:2a:f1:77:e7:6a:65:bd:19:e5:aa:fd:0c:4a:
                    63:e1:c2:99:b4:0f:04:b6:5a:1b:36:3c:37:3c:bf:
                    c5:e5:5e:f1:5f:57:0e:1f:c7:fd:2c:e7:e4:6f:6a:
                    9b:62:96:39:11:9b:66:f0:2c:b6:52:dc:e1:27:ff:
                    db:6d:fe:eb:ab:63:14:1d:63:88:63:e2:16:0c:f9:
                    20:54:0f:9b:dd:15:6a:76:83:4f:bd:27:8b:53:a6:
                    37:d2:87:f2:47:50:52:3b:66:e9:d1:78:1a:1b:b2:
                    3b:69:f0:59:3c:38:5b:d1:2a:4c:33:5e:0e:ca:56:
                    a5:ed:2d:5b:82:83:4d:d6:38:4e:8a:56:b6:6a:2f:
                    24:6b:12:30:a6:2a:de:af:0c:bb:aa:44:12:1c:13:
                    c5:65:0f:e3:fd:d8:1a:31:4b:e4:3f:0c:7c:45:e8:
                    16:33
                Exponent: 65537 (0x10001)
        X509v3 extensions:
            X509v3 Basic Constraints: 
                CA:TRUE, pathlen:10
            X509v3 Key Usage: 
                Certificate Sign, CRL Sign
            X509v3 Subject Key Identifier: 
                23:2E:DF:E9:81:B4:D0:84:FD:8E:BB:A9:DD:F9:0C:A3:E3:F3:49:53
            Netscape Cert Type: 
                SSL CA, S/MIME CA
            X509v3 CRL Distribution Points: 
                URI:http://www.certplus.com/CRL/class1.crl

    Signature Algorithm: sha1WithRSAEncryption
        be:26:53:d6:5e:9f:90:3f:01:94:02:ec:08:c1:88:9a:d0:a7:
        fa:50:0d:da:fc:94:1d:a8:d4:50:23:d0:9f:1c:8b:61:b1:b2:
        aa:44:0f:ac:d8:13:0d:d5:d6:a1:e8:31:78:d0:ef:1e:83:40:
        9a:e5:fd:41:e9:92:fd:ee:a3:95:90:f3:c0:b8:6f:7e:f7:34:
        a5:a1:df:3c:f3:de:56:b2:c7:df:87:26:44:c7:e2:83:b9:13:
        6f:30:45:71:29:22:15:ab:c4:db:3f:4f:f3:77:f9:99:18:34:
        f5:73:92:7d:37:66:67:49:6e:33:9a:4d:29:94:8b:bd:50:39:
        63:65:0f:10:e7:7b:10:6a:d1:47:f9:9e:25:0c:27:29:c2:db:
        08:88:e7:aa:89:3a:45:aa:9f:49:b2:7d:ea:68:8a:40:fe:91:
        c1:c2:49:ff:21:d1:67:0e:1a:12:1d:4a:2e:1c:fb:94:f9:6d:
        3b:79:32:f9:1e:29:91:0a:42:96:45:f1:ef:ca:58:0f:72:9d:
        0c:a9:83:bc:32:dd:98:04:d1:59:e1:64:17:bd:cc:81:a3:03:
        5e:96:60:e5:7f:16:38:0a:6b:d1:fa:b3:84:9d:2a:ca:3e:fb:
        42:f8:4f:e8:a7:5b:28:19:18:ad:e0:a6:66:1e:b0:29:21:f2:
        b8:99:8f:ff
-----BEGIN CERTIFICATE-----
MIIDkjCCAnqgAwIBAgIRAIb+HV/DgfhH1zMsc5R1ezcwDQYJKoZIhvcNAQEFBQAw
PTELMAkGA1UEBhMCRlIxETAPBgNVBAoTCENlcnRwbHVzMRswGQYDVQQDExJDbGFz
cyAxIFByaW1hcnkgQ0EwHhcNOTkwNzA3MTcwMTAwWhcNMjAwNzA2MjM1OTU5WjA9
MQswCQYDVQQGEwJGUjERMA8GA1UEChMIQ2VydHBsdXMxGzAZBgNVBAMTEkNsYXNz
IDEgUHJpbWFyeSBDQTCCASIwDQYJKoZIhvcNAQEBBQADggEPADCCAQoCggEBAMNr
Kcgux658UgXpk4lWClp5yczcJe+Hii0F2IEXBBs6Rfh5Dg1J1IFByKtF+3XIFfLi
0LzZYWyEpBMZp9n58kncTA/GfVe0E9weCXEpNp2AWPQb2IkU69PSk0sq8XfnamW9
GeWq/QxKY+HCmbQPBLZaGzY8Nzy/xeVe8V9XDh/H/Szn5G9qm2KWORGbZvAstlLc
4Sf/223+66tjFB1jiGPiFgz5IFQPm90VanaDT70ni1OmN9KH8kdQUjtm6dF4Ghuy
O2nwWTw4W9EqTDNeDspWpe0tW4KDTdY4TopWtmovJGsSMKYq3q8Mu6pEEhwTxWUP
4/3YGjFL5D8MfEXoFjMCAwEAAaOBjDCBiTAPBgNVHRMECDAGAQH/AgEKMAsGA1Ud
DwQEAwIBBjAdBgNVHQ4EFgQUIy7f6YG00IT9jrup3fkMo+PzSVMwEQYJYIZIAYb4
QgEBBAQDAgEGMDcGA1UdHwQwMC4wLKAqoCiGJmh0dHA6Ly93d3cuY2VydHBsdXMu
Y29tL0NSTC9jbGFzczEuY3JsMA0GCSqGSIb3DQEBBQUAA4IBAQC+JlPWXp+QPwGU
AuwIwYia0Kf6UA3a/JQdqNRQI9CfHIthsbKqRA+s2BMN1dah6DF40O8eg0Ca5f1B
6ZL97qOVkPPAuG9+9zSlod88895WssffhyZEx+KDuRNvMEVxKSIVq8TbP0/zd/mZ
GDT1c5J9N2ZnSW4zmk0plIu9UDljZQ8Q53sQatFH+Z4lDCcpwtsIiOeqiTpFqp9J
sn3qaIpA/pHBwkn/IdFnDhoSHUouHPuU+W07eTL5HimRCkKWRfHvylgPcp0MqYO8
Mt2YBNFZ4WQXvcyBowNelmDlfxY4CmvR+rOEnSrKPvtC+E/op1soGRit4KZmHrAp
IfK4mY//
-----END CERTIFICATE-----
