Certificate:
    Data:
        Version: 3 (0x2)
        Serial Number: 314159303 (0x12b9b0c7)
    Signature Algorithm: sha1WithRSAEncryption
        Issuer: C=JP, O=SECOM Trust.net, OU=Security Communication RootCA1
        Validity
            Not Before: Mar 27 03:13:51 2009 GMT
            Not After : Mar 27 03:13:51 2019 GMT
        Subject: C=JP, L=Academe2, O=National Institute of Informatics, OU=UPKI, OU=NII Open Domain CA - G2
        Subject Public Key Info:
            Public Key Algorithm: rsaEncryption
                Public-Key: (2048 bit)
                Modulus:
                    00:e0:14:6d:09:18:48:e7:31:b2:60:d7:88:b4:38:
                    a2:b8:a8:f3:6b:d6:0c:0e:21:9c:09:44:87:61:e0:
                    bd:dc:62:1e:be:b0:a8:67:fe:54:af:96:20:9c:6c:
                    a1:6c:19:ab:3d:6e:3d:bb:77:d3:78:76:7c:e1:c9:
                    06:9a:ba:b5:66:2c:5c:85:62:d6:1d:bf:c7:de:c8:
                    a7:26:48:de:d4:61:43:38:4a:87:80:7a:ae:bd:f4:
                    e0:8f:4c:b2:10:c3:66:9e:86:43:d2:18:7c:bb:79:
                    c1:f5:25:7e:94:63:0f:f8:d2:99:85:35:cf:88:4c:
                    80:e3:a9:fd:3e:9b:02:53:44:cf:02:b5:3c:2f:7a:
                    02:fb:93:97:d9:62:29:d7:5e:d5:e7:87:46:a2:86:
                    8f:75:fe:6a:83:12:b5:8e:c3:e0:08:a4:f4:c2:0e:
                    84:01:9e:ad:41:27:34:89:87:ef:5e:30:1a:a3:d4:
                    1a:e3:71:75:0b:d2:9a:81:bf:35:73:e6:50:57:82:
                    b5:2a:df:39:95:83:7c:a3:4c:63:44:ac:b9:c1:83:
                    7c:46:c5:1c:31:81:f0:92:a3:ab:d9:7b:a3:29:51:
                    e3:db:ed:86:ab:08:62:7d:f4:bd:84:34:67:74:a7:
                    9d:c0:3a:6f:2b:5f:25:b4:2b:d5:92:2d:d6:d0:f6:
                    1e:23
                Exponent: 65537 (0x10001)
        X509v3 extensions:
            X509v3 Subject Key Identifier: 
                7B:0A:07:F7:18:CA:8C:0E:D6:DA:BC:50:80:6C:2C:47:02:D1:0D:FB
            X509v3 Authority Key Identifier: 
                keyid:A0:73:49:99:68:DC:85:5B:65:E3:9B:28:2F:57:9F:BD:33:BC:07:48

            X509v3 Basic Constraints: critical
                CA:TRUE, pathlen:0
            X509v3 Key Usage: critical
                Certificate Sign, CRL Sign
            X509v3 CRL Distribution Points: 

                Full Name:
                  URI:http://repository.secomtrust.net/SC-Root1/SCRoot1CRL.crl

            X509v3 Certificate Policies: 
                Policy: 1.2.392.200091.100.901.1
                  CPS: https://repository.secomtrust.net/SC-Root1/

    Signature Algorithm: sha1WithRSAEncryption
         aa:2a:a2:07:06:2c:77:43:96:45:e6:36:30:a4:23:d9:17:9f:
         d2:3c:cc:73:67:ef:13:b7:61:d3:18:92:0b:08:91:84:80:89:
         cf:7e:1f:05:87:24:f5:75:db:f6:da:3b:18:a0:a4:62:a4:63:
         6b:dc:48:40:f0:02:21:ea:4a:c5:53:1e:bc:d8:e9:0c:84:45:
         54:9a:6a:59:3e:0b:be:3e:b3:18:f1:c3:52:46:e4:b7:07:fb:
         08:2d:f8:4c:40:e2:66:4f:01:2e:ef:39:f8:03:92:78:be:ee:
         53:fd:62:b9:4b:47:5f:44:e8:ad:80:41:6e:86:dc:37:fc:ce:
         19:e4:39:fd:be:92:5f:a5:6a:f0:ef:4f:be:0a:ae:13:85:a2:
         36:19:4c:61:7a:0c:52:28:90:11:5f:bc:d0:5d:ae:ec:78:0a:
         42:2c:2a:1a:58:41:70:80:20:4b:b2:d7:60:85:65:45:c4:b4:
         70:79:5f:17:81:92:7b:5b:b3:69:5f:3f:fa:d6:6e:0d:89:d4:
         88:1e:cd:97:3a:b2:10:a7:dd:57:6b:2f:67:68:b9:51:63:68:
         05:e5:73:cc:f0:ca:cf:ca:22:92:f3:35:2c:4e:38:6c:09:74:
         ac:45:4d:a2:33:1f:f7:a6:72:a2:a3:f7:72:5d:0c:2d:6b:ac:
         53:21:a0:f1
-----BEGIN CERTIFICATE-----
MIIEVDCCAzygAwIBAgIEErmwxzANBgkqhkiG9w0BAQUFADBQMQswCQYDVQQGEwJK
UDEYMBYGA1UEChMPU0VDT00gVHJ1c3QubmV0MScwJQYDVQQLEx5TZWN1cml0eSBD
b21tdW5pY2F0aW9uIFJvb3RDQTEwHhcNMDkwMzI3MDMxMzUxWhcNMTkwMzI3MDMx
MzUxWjB9MQswCQYDVQQGEwJKUDERMA8GA1UEBxMIQWNhZGVtZTIxKjAoBgNVBAoT
IU5hdGlvbmFsIEluc3RpdHV0ZSBvZiBJbmZvcm1hdGljczENMAsGA1UECxMEVVBL
STEgMB4GA1UECxMXTklJIE9wZW4gRG9tYWluIENBIC0gRzIwggEiMA0GCSqGSIb3
DQEBAQUAA4IBDwAwggEKAoIBAQDgFG0JGEjnMbJg14i0OKK4qPNr1gwOIZwJRIdh
4L3cYh6+sKhn/lSvliCcbKFsGas9bj27d9N4dnzhyQaaurVmLFyFYtYdv8feyKcm
SN7UYUM4SoeAeq699OCPTLIQw2aehkPSGHy7ecH1JX6UYw/40pmFNc+ITIDjqf0+
mwJTRM8CtTwvegL7k5fZYinXXtXnh0aiho91/mqDErWOw+AIpPTCDoQBnq1BJzSJ
h+9eMBqj1BrjcXUL0pqBvzVz5lBXgrUq3zmVg3yjTGNErLnBg3xGxRwxgfCSo6vZ
e6MpUePb7YarCGJ99L2ENGd0p53AOm8rXyW0K9WSLdbQ9h4jAgMBAAGjggEHMIIB
AzAdBgNVHQ4EFgQUewoH9xjKjA7W2rxQgGwsRwLRDfswHwYDVR0jBBgwFoAUoHNJ
mWjchVtl45soL1efvTO8B0gwEgYDVR0TAQH/BAgwBgEB/wIBADAOBgNVHQ8BAf8E
BAMCAQYwSQYDVR0fBEIwQDA+oDygOoY4aHR0cDovL3JlcG9zaXRvcnkuc2Vjb210
cnVzdC5uZXQvU0MtUm9vdDEvU0NSb290MUNSTC5jcmwwUgYDVR0gBEswSTBHBgoq
gwiMmxtkhwUBMDkwNwYIKwYBBQUHAgEWK2h0dHBzOi8vcmVwb3NpdG9yeS5zZWNv
bXRydXN0Lm5ldC9TQy1Sb290MS8wDQYJKoZIhvcNAQEFBQADggEBAKoqogcGLHdD
lkXmNjCkI9kXn9I8zHNn7xO3YdMYkgsIkYSAic9+HwWHJPV12/baOxigpGKkY2vc
SEDwAiHqSsVTHrzY6QyERVSaalk+C74+sxjxw1JG5LcH+wgt+ExA4mZPAS7vOfgD
kni+7lP9YrlLR19E6K2AQW6G3Df8zhnkOf2+kl+lavDvT74KrhOFojYZTGF6DFIo
kBFfvNBdrux4CkIsKhpYQXCAIEuy12CFZUXEtHB5XxeBkntbs2lfP/rWbg2J1Ige
zZc6shCn3VdrL2douVFjaAXlc8zwys/KIpLzNSxOOGwJdKxFTaIzH/emcqKj93Jd
DC1rrFMhoPE=
-----END CERTIFICATE-----
