Certificate:
    Data:
        Version: 1 (0x0)
        Serial Number:
            34:fb:f0:8b:fe:6d:4d:eb:a5:2a:67:9b:30:da:28:68
    Signature Algorithm: sha256WithRSAEncryption
        Issuer: C = TR, O = Elektronik Bilgi Guvenligi A.S., CN = E-GUVEN Kok Elektronik Sertifika Hizmet Saglayicisi S3
        Validity
            Not Before: Apr 14 13:01:28 2016 GMT
            Not After : Apr 14 13:01:29 2017 GMT
        Subject: C = TR, ST = Rize, L = Rize, O = ogr.rize.edu.tr, OU = \C3\96\C4\9ERENC\C4\B0 \C4\B0\C5\9ELER\C4\B0 DA\C4\B0RE BA\C5\9EKANLI\C4\9EI, CN = ogr.rize.edu.tr
        Subject Public Key Info:
            Public Key Algorithm: rsaEncryption
                Public-Key: (2048 bit)
                Modulus:
                    00:c8:0f:73:da:b2:3c:8b:c7:3a:9b:e3:08:83:3f:
                    dd:66:f4:e8:f7:16:4f:a1:ec:e5:6a:7b:00:e4:20:
                    6d:ab:da:96:32:b4:32:0e:27:35:de:48:cf:f2:cf:
                    07:f9:12:4c:a7:ea:58:a2:e8:59:ea:a5:cb:34:64:
                    f4:b0:79:9e:ad:a0:6a:79:eb:a6:89:7a:d0:b7:d2:
                    8c:e3:ca:82:f7:0e:c6:43:bc:69:3f:12:f4:1b:55:
                    66:39:96:6b:1b:93:a2:0f:ff:36:54:a3:60:c9:2b:
                    76:ba:2c:e8:73:81:dd:17:d2:1c:d6:02:f8:5d:a9:
                    f5:53:ab:4f:74:38:bb:0e:0e:5f:16:47:79:27:c9:
                    1f:fd:80:13:59:c5:7e:5a:00:33:83:bc:66:96:e7:
                    9c:63:ca:b2:ba:5c:b9:75:a2:3a:f2:76:b3:e9:1d:
                    c5:34:0e:fa:42:c6:33:e6:e2:fb:78:3a:5b:f6:b6:
                    fc:3c:15:53:18:0a:1b:64:26:0b:7b:66:71:c6:bb:
                    68:5f:08:8b:ce:63:3f:77:9e:f8:27:b0:58:95:fe:
                    67:46:06:28:e8:f5:b7:7b:15:5d:0a:1e:aa:73:c1:
                    f1:c6:f6:4f:c0:ea:9f:2f:5f:10:7a:ac:04:79:6a:
                    fc:cb:d9:43:1b:73:7c:73:78:d1:6d:91:0a:82:d1:
                    95:79
                Exponent: 65537 (0x10001)
    Signature Algorithm: sha256WithRSAEncryption
         78:4b:e6:a4:92:2e:1e:25:83:b7:b0:3d:16:24:66:86:c2:a6:
         2f:7e:5a:94:ab:d1:68:a8:0e:5a:c9:13:35:e9:c0:36:24:36:
         50:91:51:b5:9d:9a:96:84:29:1f:72:39:d7:3f:fa:4c:cc:b3:
         70:00:34:ba:a9:f7:1b:e2:3d:a8:7d:5a:5e:d0:cf:ce:2e:c6:
         0d:31:9e:7e:0e:45:17:c1:44:e2:eb:7b:4b:86:99:b5:a5:bb:
         15:ea:8e:ee:58:19:61:ad:fc:5b:77:71:50:f6:a4:0d:47:21:
         c8:27:78:f4:05:b7:0a:44:70:7d:9f:94:41:c7:80:f1:b9:8f:
         d1:3f:05:ab:92:db:e0:00:bf:1d:b3:e6:aa:cb:62:8b:65:18:
         83:66:3a:f1:34:ba:81:0c:f0:a6:c7:60:30:07:5d:37:f5:5f:
         4a:f1:bf:3d:ed:df:dd:40:32:63:01:1e:96:49:1e:16:83:d1:
         75:a7:bc:cd:80:aa:d7:47:56:88:4b:5a:bb:53:b7:9b:3b:75:
         a6:49:9b:b3:c2:5e:66:6b:51:46:d3:22:1a:cb:35:74:36:1d:
         4b:c3:8f:5e:f6:29:0f:98:cb:a2:ca:2f:ec:56:67:cb:ce:5b:
         2d:d0:a6:7a:d9:43:a8:ac:cd:ec:ec:94:c9:f6:29:af:f4:20:
         57:3f:af:c9
-----BEGIN CERTIFICATE-----
MIIDjjCCAnYCEDT78Iv+bU3rpSpnmzDaKGgwDQYJKoZIhvcNAQELBQAweDELMAkG
A1UEBhMCVFIxKDAmBgNVBAoMH0VsZWt0cm9uaWsgQmlsZ2kgR3V2ZW5saWdpIEEu
Uy4xPzA9BgNVBAMMNkUtR1VWRU4gS29rIEVsZWt0cm9uaWsgU2VydGlmaWthIEhp
em1ldCBTYWdsYXlpY2lzaSBTMzAeFw0xNjA0MTQxMzAxMjhaFw0xNzA0MTQxMzAx
MjlaMIGSMQswCQYDVQQGEwJUUjENMAsGA1UECBMEUml6ZTENMAsGA1UEBxMEUml6
ZTEYMBYGA1UEChMPb2dyLnJpemUuZWR1LnRyMTEwLwYDVQQLDCjDlsSeUkVOQ8Sw
IMSwxZ5MRVLEsCBEQcSwUkUgQkHFnktBTkxJxJ5JMRgwFgYDVQQDEw9vZ3Iucml6
ZS5lZHUudHIwggEiMA0GCSqGSIb3DQEBAQUAA4IBDwAwggEKAoIBAQDID3PasjyL
xzqb4wiDP91m9Oj3Fk+h7OVqewDkIG2r2pYytDIOJzXeSM/yzwf5Ekyn6lii6Fnq
pcs0ZPSweZ6toGp566aJetC30ozjyoL3DsZDvGk/EvQbVWY5lmsbk6IP/zZUo2DJ
K3a6LOhzgd0X0hzWAvhdqfVTq090OLsODl8WR3knyR/9gBNZxX5aADODvGaW55xj
yrK6XLl1ojrydrPpHcU0DvpCxjPm4vt4Olv2tvw8FVMYChtkJgt7ZnHGu2hfCIvO
Yz93nvgnsFiV/mdGBijo9bd7FV0KHqpzwfHG9k/A6p8vXxB6rAR5avzL2UMbc3xz
eNFtkQqC0ZV5AgMBAAEwDQYJKoZIhvcNAQELBQADggEBAHhL5qSSLh4lg7ewPRYk
ZobCpi9+WpSr0WioDlrJEzXpwDYkNlCRUbWdmpaEKR9yOdc/+kzMs3AANLqp9xvi
Pah9Wl7Qz84uxg0xnn4ORRfBROLre0uGmbWluxXqju5YGWGt/Ft3cVD2pA1HIcgn
ePQFtwpEcH2flEHHgPG5j9E/BauS2+AAvx2z5qrLYotlGINmOvE0uoEM8KbHYDAH
XTf1X0rxvz3t391AMmMBHpZJHhaD0XWnvM2AqtdHVohLWrtTt5s7daZJm7PCXmZr
UUbTIhrLNXQ2HUvDj172KQ+Yy6LKL+xWZ8vOWy3QpnrZQ6iszezslMn2Ka/0IFc/
r8k=
-----END CERTIFICATE-----
