Certificate:
    Data:
        Version: 3 (0x2)
        Serial Number:
            04:7e:cb:e9:fc:a5:5f:7b:d0:9e:ae:36:e1:0c:ae:1e
    Signature Algorithm: sha1WithRSAEncryption
        Issuer: C=US, ST=UT, L=Salt Lake City, O=The USERTRUST Network, OU=http://www.usertrust.com, CN=UTN-USERFirst-Hardware
        Validity
            Not Before: Mar 15 00:00:00 2011 GMT
            Not After : Mar 14 23:59:59 2014 GMT
        Subject: C=US/postalCode=38477, ST=Florida, L=English/street=Sea Village 10, O=Google Ltd., OU=Tech Dept., OU=Hosted by GTI Group Corporation, OU=PlatinumSSL, CN=mail.google.com
        Subject Public Key Info:
            Public Key Algorithm: rsaEncryption
                Public-Key: (2048 bit)
                Modulus:
                    00:b0:73:f0:f2:04:ee:c2:a2:46:ca:34:2a:aa:bb:
                    60:23:d1:11:76:1f:1f:3a:d0:65:83:4e:9a:45:a8:
                    43:70:85:76:f0:1f:87:00:02:1f:6e:3b:17:17:c4:
                    b5:e9:19:46:a2:92:25:8d:62:2a:b4:63:30:1f:b9:
                    85:f8:35:e1:16:5a:76:49:cc:50:48:53:39:59:89:
                    d6:84:02:fb:9a:ec:1b:c7:51:d5:76:95:90:d4:3a:
                    2a:b8:a6:de:02:4d:06:fb:cd:ed:a5:46:41:5f:55:
                    74:e5:ec:7e:40:dc:50:9c:b5:e4:35:5d:1e:68:20:
                    f8:e9:de:a3:6a:28:bf:41:d2:a1:b3:e2:25:8d:0c:
                    1b:ca:3d:93:0c:18:ae:df:c5:bc:fd:bc:82:ba:68:
                    00:d7:16:32:71:9f:65:b5:11:da:68:59:d0:a6:57:
                    64:1b:c9:fe:98:e5:f5:a5:65:ea:e1:db:ee:f4:b3:
                    9d:b3:8e:ea:87:ae:16:d2:1e:a0:7c:7c:69:3f:29:
                    16:85:01:53:a7:6c:f1:60:ab:dd:a2:fc:25:47:d4:
                    32:d1:12:dd:f7:48:12:e0:fc:9c:a2:77:98:e9:89:
                    99:b8:f8:38:f1:8c:06:c2:7a:23:36:6d:9b:9d:cd:
                    30:c8:c7:34:17:1e:bb:7d:42:c8:ab:e7:15:16:f6:
                    73:b5
                Exponent: 65537 (0x10001)
        X509v3 extensions:
            X509v3 Authority Key Identifier: 
                keyid:A1:72:5F:26:1B:28:98:43:95:5D:07:37:D5:85:96:9D:4B:D2:C3:45

            X509v3 Subject Key Identifier: 
                18:2A:A2:C8:D4:7A:3F:7B:AD:04:8B:BD:6F:9E:10:46:13:78:71:9D
            X509v3 Key Usage: critical
                Digital Signature, Key Encipherment
            X509v3 Basic Constraints: critical
                CA:FALSE
            X509v3 Extended Key Usage: 
                TLS Web Server Authentication, TLS Web Client Authentication
            X509v3 Certificate Policies: 
                Policy: 1.3.6.1.4.1.6449.1.2.1.3.4
                  CPS: https://secure.comodo.com/CPS

            X509v3 CRL Distribution Points: 

                Full Name:
                  URI:http://crl.comodoca.com/UTN-USERFirst-Hardware.crl

                Full Name:
                  URI:http://crl.comodo.net/UTN-USERFirst-Hardware.crl

            Authority Information Access: 
                CA Issuers - URI:http://crt.comodoca.com/UTNAddTrustServerCA.crt
                OCSP - URI:http://ocsp.comodoca.com

            X509v3 Subject Alternative Name: 
                DNS:mail.google.com, DNS:www.mail.google.com
    Signature Algorithm: sha1WithRSAEncryption
         67:06:08:0a:27:c5:93:6e:02:f2:de:17:3f:d0:d3:1b:7c:ff:
         b5:cd:7a:c7:77:c7:be:df:12:ca:19:de:b0:13:57:0c:03:91:
         c4:79:52:cf:7f:b7:5e:55:20:84:49:dd:f5:d0:29:2f:0e:04:
         da:59:9e:0e:13:9f:f4:c0:32:9b:ff:a1:11:24:2a:97:a3:f2:
         3f:3d:2a:6b:a8:ad:8c:19:75:95:0e:1d:25:fd:4f:c4:7a:15:
         c3:1d:c7:13:40:c8:0d:be:97:60:72:a6:fe:25:be:8f:ec:d5:
         a6:86:c3:21:5c:59:52:d9:6a:0b:5c:9f:4b:de:b5:f9:ec:e2:
         f4:c5:cc:62:53:76:89:65:e4:29:da:b7:bf:96:e0:60:8d:0d:
         b7:09:55:d6:40:55:1d:c1:f2:96:21:75:af:89:86:1f:5d:81:
         97:29:28:1e:29:d7:96:c1:20:03:32:7b:00:3b:6a:37:17:5a:
         a3:b3:1a:6f:32:3b:6e:f1:a3:5d:ab:ab:cc:2a:cb:30:0c:1f:
         35:23:8b:69:44:5c:ea:ac:28:60:ed:ab:6b:63:9e:f6:92:bc:
         bd:9a:5a:26:4c:c5:98:b8:0e:19:3e:fc:05:31:e3:16:d9:fd:
         90:05:03:86:c6:57:01:1f:7f:78:a0:cf:33:6a:aa:66:6b:22:
         d0:a7:49:23
-----BEGIN CERTIFICATE-----
MIIF7jCCBNagAwIBAgIQBH7L6fylX3vQnq424QyuHjANBgkqhkiG9w0BAQUFADCB
lzELMAkGA1UEBhMCVVMxCzAJBgNVBAgTAlVUMRcwFQYDVQQHEw5TYWx0IExha2Ug
Q2l0eTEeMBwGA1UEChMVVGhlIFVTRVJUUlVTVCBOZXR3b3JrMSEwHwYDVQQLExho
dHRwOi8vd3d3LnVzZXJ0cnVzdC5jb20xHzAdBgNVBAMTFlVUTi1VU0VSRmlyc3Qt
SGFyZHdhcmUwHhcNMTEwMzE1MDAwMDAwWhcNMTQwMzE0MjM1OTU5WjCB3zELMAkG
A1UEBhMCVVMxDjAMBgNVBBETBTM4NDc3MRAwDgYDVQQIEwdGbG9yaWRhMRAwDgYD
VQQHEwdFbmdsaXNoMRcwFQYDVQQJEw5TZWEgVmlsbGFnZSAxMDEUMBIGA1UEChML
R29vZ2xlIEx0ZC4xEzARBgNVBAsTClRlY2ggRGVwdC4xKDAmBgNVBAsTH0hvc3Rl
ZCBieSBHVEkgR3JvdXAgQ29ycG9yYXRpb24xFDASBgNVBAsTC1BsYXRpbnVtU1NM
MRgwFgYDVQQDEw9tYWlsLmdvb2dsZS5jb20wggEiMA0GCSqGSIb3DQEBAQUAA4IB
DwAwggEKAoIBAQCwc/DyBO7CokbKNCqqu2Aj0RF2Hx860GWDTppFqENwhXbwH4cA
Ah9uOxcXxLXpGUaikiWNYiq0YzAfuYX4NeEWWnZJzFBIUzlZidaEAvua7BvHUdV2
lZDUOiq4pt4CTQb7ze2lRkFfVXTl7H5A3FCcteQ1XR5oIPjp3qNqKL9B0qGz4iWN
DBvKPZMMGK7fxbz9vIK6aADXFjJxn2W1EdpoWdCmV2Qbyf6Y5fWlZerh2+70s52z
juqHrhbSHqB8fGk/KRaFAVOnbPFgq92i/CVH1DLREt33SBLg/Jyid5jpiZm4+Djx
jAbCeiM2bZudzTDIxzQXHrt9Qsir5xUW9nO1AgMBAAGjggHqMIIB5jAfBgNVHSME
GDAWgBShcl8mGyiYQ5VdBzfVhZadS9LDRTAdBgNVHQ4EFgQUGCqiyNR6P3utBIu9
b54QRhN4cZ0wDgYDVR0PAQH/BAQDAgWgMAwGA1UdEwEB/wQCMAAwHQYDVR0lBBYw
FAYIKwYBBQUHAwEGCCsGAQUFBwMCMEYGA1UdIAQ/MD0wOwYMKwYBBAGyMQECAQME
MCswKQYIKwYBBQUHAgEWHWh0dHBzOi8vc2VjdXJlLmNvbW9kby5jb20vQ1BTMHsG
A1UdHwR0MHIwOKA2oDSGMmh0dHA6Ly9jcmwuY29tb2RvY2EuY29tL1VUTi1VU0VS
Rmlyc3QtSGFyZHdhcmUuY3JsMDagNKAyhjBodHRwOi8vY3JsLmNvbW9kby5uZXQv
VVROLVVTRVJGaXJzdC1IYXJkd2FyZS5jcmwwcQYIKwYBBQUHAQEEZTBjMDsGCCsG
AQUFBzAChi9odHRwOi8vY3J0LmNvbW9kb2NhLmNvbS9VVE5BZGRUcnVzdFNlcnZl
ckNBLmNydDAkBggrBgEFBQcwAYYYaHR0cDovL29jc3AuY29tb2RvY2EuY29tMC8G
A1UdEQQoMCaCD21haWwuZ29vZ2xlLmNvbYITd3d3Lm1haWwuZ29vZ2xlLmNvbTAN
BgkqhkiG9w0BAQUFAAOCAQEAZwYICifFk24C8t4XP9DTG3z/tc16x3fHvt8Syhne
sBNXDAORxHlSz3+3XlUghEnd9dApLw4E2lmeDhOf9MAym/+hESQql6PyPz0qa6it
jBl1lQ4dJf1PxHoVwx3HE0DIDb6XYHKm/iW+j+zVpobDIVxZUtlqC1yfS961+ezi
9MXMYlN2iWXkKdq3v5bgYI0NtwlV1kBVHcHyliF1r4mGH12BlykoHinXlsEgAzJ7
ADtqNxdao7MabzI7bvGjXaurzCrLMAwfNSOLaURc6qwoYO2ra2Oe9pK8vZpaJkzF
mLgOGT78BTHjFtn9kAUDhsZXAR9/eKDPM2qqZmsi0KdJIw==
-----END CERTIFICATE-----
