Certificate:
    Data:
        Version: 3 (0x2)
        Serial Number:
            fa:0c:43:ad:50:ca:d5:3d:88:c3:f0:4a:f7:7b:65:c6
    Signature Algorithm: sha256WithRSAEncryption
        Issuer: C=US, ST=TX, L=Houston, O=cPanel, Inc., CN=cPanel, Inc. Certification Authority
        Validity
            Not Before: Aug  5 00:00:00 2019 GMT
            Not After : Nov  3 23:59:59 2019 GMT
        Subject: CN=google.tg
        Subject Public Key Info:
            Public Key Algorithm: rsaEncryption
                Public-Key: (2048 bit)
                Modulus:
                    00:df:f3:e5:4e:70:8c:0f:fb:ab:25:a7:c0:ee:a9:
                    c1:be:b4:56:01:06:b7:83:83:64:d9:6b:92:61:3c:
                    9a:94:d2:b9:0a:66:82:2d:78:62:38:21:39:f5:5f:
                    be:04:52:d5:73:e6:32:32:8d:4d:94:44:19:bb:b2:
                    92:07:32:4f:26:0c:53:5b:ad:af:cb:70:82:3a:ab:
                    d0:3d:5d:42:d3:b3:74:7c:41:64:b1:0f:02:a8:dd:
                    d4:73:63:87:aa:c3:de:6b:f5:1e:f1:9d:e8:8d:2c:
                    e0:8e:74:24:b0:87:cb:7b:8d:ff:e7:a8:c9:d0:d1:
                    06:59:67:f3:c0:20:42:16:41:08:55:fe:9d:f0:71:
                    2b:29:aa:d3:b9:98:b5:b6:19:db:dc:7d:7f:68:ac:
                    8f:f9:f7:dc:64:de:fd:01:b1:c5:b8:47:97:6d:5f:
                    a3:3d:a0:df:cb:37:bd:b0:b0:d2:7a:84:0a:70:eb:
                    bb:60:34:4d:1b:ef:6f:2b:4c:f1:13:51:b7:c3:d2:
                    e4:d7:45:53:95:ae:cb:dc:b4:d3:82:e2:ea:91:60:
                    1a:5c:e7:5b:ff:1b:5b:45:4c:d4:64:a4:8e:cf:5e:
                    17:9e:0d:75:57:62:be:c4:0a:09:81:3b:24:c7:56:
                    36:46:a6:2e:c1:1e:bc:cb:dc:1a:6f:a7:05:a9:b4:
                    66:bf
                Exponent: 65537 (0x10001)
        X509v3 extensions:
            X509v3 Authority Key Identifier: 
                keyid:7E:03:5A:65:41:6B:A7:7E:0A:E1:B8:9D:08:EA:1D:8E:1D:6A:C7:65

            X509v3 Subject Key Identifier: 
                38:BD:A3:F5:4D:B6:57:5F:11:16:B8:DD:54:8B:1D:0D:EF:08:D0:9C
            X509v3 Key Usage: critical
                Digital Signature, Key Encipherment
            X509v3 Basic Constraints: critical
                CA:FALSE
            X509v3 Extended Key Usage: 
                TLS Web Server Authentication, TLS Web Client Authentication
            X509v3 Certificate Policies: 
                Policy: 1.3.6.1.4.1.6449.1.2.2.52
                  CPS: https://secure.comodo.com/CPS
                Policy: 2.23.140.1.2.1

            X509v3 CRL Distribution Points: 

                Full Name:
                  URI:http://crl.comodoca.com/cPanelIncCertificationAuthority.crl

            Authority Information Access: 
                CA Issuers - URI:http://crt.comodoca.com/cPanelIncCertificationAuthority.crt
                OCSP - URI:http://ocsp.comodoca.com

            X509v3 Subject Alternative Name: 
                DNS:google.tg, DNS:autodiscover.google.tg, DNS:cpanel.google.tg, DNS:google.leftyslivemusic.com, DNS:mail.google.tg, DNS:webdisk.google.tg, DNS:webmail.google.tg, DNS:www.google.leftyslivemusic.com, DNS:www.google.tg
            CT Precertificate SCTs: 
                Signed Certificate Timestamp:
                    Version   : v1(0)
                    Log ID    : 63:F2:DB:CD:E8:3B:CC:2C:CF:0B:72:84:27:57:6B:33:
                                A4:8D:61:77:8F:BD:75:A6:38:B1:C7:68:54:4B:D8:8D
                    Timestamp : Aug  5 16:03:54.628 2019 GMT
                    Extensions: none
                    Signature : ecdsa-with-SHA256
                                30:44:02:20:11:15:25:95:E0:87:EE:1C:7F:22:EA:36:
                                B8:57:DE:C5:6A:DE:0A:50:DB:FF:BC:04:04:9B:01:24:
                                E0:BE:CC:84:02:20:72:3D:F2:10:8A:D5:F6:CF:31:17:
                                BA:E6:FF:30:CC:3E:C5:6D:BE:DE:DA:4C:16:AC:67:4B:
                                A0:DF:CC:CA:F6:C6
                Signed Certificate Timestamp:
                    Version   : v1(0)
                    Log ID    : 74:7E:DA:83:31:AD:33:10:91:21:9C:CE:25:4F:42:70:
                                C2:BF:FD:5E:42:20:08:C6:37:35:79:E6:10:7B:CC:56
                    Timestamp : Aug  5 16:03:54.703 2019 GMT
                    Extensions: none
                    Signature : ecdsa-with-SHA256
                                30:46:02:21:00:FA:33:5E:17:CE:54:E0:31:9B:53:68:
                                53:9F:17:C2:02:04:A6:2C:74:AD:F6:4F:4F:C7:87:14:
                                63:3B:CB:3D:16:02:21:00:90:FA:4D:D9:0B:90:65:36:
                                A2:75:38:D6:17:06:F0:39:43:68:8A:21:F4:3E:F2:33:
                                62:A1:55:DD:45:95:36:41
    Signature Algorithm: sha256WithRSAEncryption
         2b:33:7c:7f:68:fc:09:aa:b9:0b:89:e1:35:03:ae:b9:0e:c9:
         fa:07:8b:59:c6:ab:dd:72:d1:dc:1b:0d:59:f5:a4:0c:be:92:
         cd:d8:65:84:3c:68:8a:3d:2b:43:b7:8c:91:91:0e:93:05:a4:
         34:21:59:28:ba:33:ac:cb:bf:a1:e4:4f:a9:24:19:1b:63:80:
         4e:87:ba:ef:d4:f1:62:ad:da:cb:84:18:13:7a:70:81:e5:89:
         57:d4:aa:7b:cf:e2:a8:8b:53:0b:7b:56:ec:50:f4:72:ff:48:
         a3:88:79:99:c2:4a:1f:ea:22:da:3b:79:b5:b0:3a:75:a6:a9:
         17:d8:67:ed:c8:45:74:47:9a:49:d0:14:be:9e:7b:e3:c3:df:
         71:6a:a4:18:ba:3e:f5:f5:69:d0:36:ac:ca:58:6d:c9:51:01:
         a4:45:dc:34:11:d4:88:c3:5f:db:ea:a0:ec:88:ae:44:05:58:
         a8:4e:b7:6b:33:8d:5f:8d:6a:f4:8d:39:bf:84:2b:4d:2b:3f:
         94:b5:d6:a2:fc:e7:2c:e4:26:77:6c:c5:84:3f:ba:2b:e4:ad:
         4f:4e:c6:a4:30:11:06:e4:53:71:3c:10:67:03:8f:52:f8:6c:
         c6:b2:36:e2:5d:c2:d7:c8:4f:5f:36:dd:64:cc:5a:f7:42:b9:
         db:f5:85:95
-----BEGIN CERTIFICATE-----
MIIGfjCCBWagAwIBAgIRAPoMQ61QytU9iMPwSvd7ZcYwDQYJKoZIhvcNAQELBQAw
cjELMAkGA1UEBhMCVVMxCzAJBgNVBAgTAlRYMRAwDgYDVQQHEwdIb3VzdG9uMRUw
EwYDVQQKEwxjUGFuZWwsIEluYy4xLTArBgNVBAMTJGNQYW5lbCwgSW5jLiBDZXJ0
aWZpY2F0aW9uIEF1dGhvcml0eTAeFw0xOTA4MDUwMDAwMDBaFw0xOTExMDMyMzU5
NTlaMBQxEjAQBgNVBAMTCWdvb2dsZS50ZzCCASIwDQYJKoZIhvcNAQEBBQADggEP
ADCCAQoCggEBAN/z5U5wjA/7qyWnwO6pwb60VgEGt4ODZNlrkmE8mpTSuQpmgi14
YjghOfVfvgRS1XPmMjKNTZREGbuykgcyTyYMU1utr8twgjqr0D1dQtOzdHxBZLEP
Aqjd1HNjh6rD3mv1HvGd6I0s4I50JLCHy3uN/+eoydDRBlln88AgQhZBCFX+nfBx
Kymq07mYtbYZ29x9f2isj/n33GTe/QGxxbhHl21foz2g38s3vbCw0nqECnDru2A0
TRvvbytM8RNRt8PS5NdFU5Wuy9y004Li6pFgGlznW/8bW0VM1GSkjs9eF54NdVdi
vsQKCYE7JMdWNkamLsEevMvcGm+nBam0Zr8CAwEAAaOCA2swggNnMB8GA1UdIwQY
MBaAFH4DWmVBa6d+CuG4nQjqHY4dasdlMB0GA1UdDgQWBBQ4vaP1TbZXXxEWuN1U
ix0N7wjQnDAOBgNVHQ8BAf8EBAMCBaAwDAYDVR0TAQH/BAIwADAdBgNVHSUEFjAU
BggrBgEFBQcDAQYIKwYBBQUHAwIwTwYDVR0gBEgwRjA6BgsrBgEEAbIxAQICNDAr
MCkGCCsGAQUFBwIBFh1odHRwczovL3NlY3VyZS5jb21vZG8uY29tL0NQUzAIBgZn
gQwBAgEwTAYDVR0fBEUwQzBBoD+gPYY7aHR0cDovL2NybC5jb21vZG9jYS5jb20v
Y1BhbmVsSW5jQ2VydGlmaWNhdGlvbkF1dGhvcml0eS5jcmwwfQYIKwYBBQUHAQEE
cTBvMEcGCCsGAQUFBzAChjtodHRwOi8vY3J0LmNvbW9kb2NhLmNvbS9jUGFuZWxJ
bmNDZXJ0aWZpY2F0aW9uQXV0aG9yaXR5LmNydDAkBggrBgEFBQcwAYYYaHR0cDov
L29jc3AuY29tb2RvY2EuY29tMIHBBgNVHREEgbkwgbaCCWdvb2dsZS50Z4IWYXV0
b2Rpc2NvdmVyLmdvb2dsZS50Z4IQY3BhbmVsLmdvb2dsZS50Z4IaZ29vZ2xlLmxl
ZnR5c2xpdmVtdXNpYy5jb22CDm1haWwuZ29vZ2xlLnRnghF3ZWJkaXNrLmdvb2ds
ZS50Z4IRd2VibWFpbC5nb29nbGUudGeCHnd3dy5nb29nbGUubGVmdHlzbGl2ZW11
c2ljLmNvbYINd3d3Lmdvb2dsZS50ZzCCAQQGCisGAQQB1nkCBAIEgfUEgfIA8AB1
AGPy283oO8wszwtyhCdXazOkjWF3j711pjixx2hUS9iNAAABbGKF2IQAAAQDAEYw
RAIgERUlleCH7hx/Iuo2uFfexWreClDb/7wEBJsBJOC+zIQCIHI98hCK1fbPMRe6
5v8wzD7Fbb7e2kwWrGdLoN/MyvbGAHcAdH7agzGtMxCRIZzOJU9CcMK//V5CIAjG
NzV55hB7zFYAAAFsYoXYzwAABAMASDBGAiEA+jNeF85U4DGbU2hTnxfCAgSmLHSt
9k9Px4cUYzvLPRYCIQCQ+k3ZC5BlNqJ1ONYXBvA5Q2iKIfQ+8jNioVXdRZU2QTAN
BgkqhkiG9w0BAQsFAAOCAQEAKzN8f2j8Caq5C4nhNQOuuQ7J+geLWcar3XLR3BsN
WfWkDL6SzdhlhDxoij0rQ7eMkZEOkwWkNCFZKLozrMu/oeRPqSQZG2OAToe679Tx
Yq3ay4QYE3pwgeWJV9Sqe8/iqItTC3tW7FD0cv9Io4h5mcJKH+oi2jt5tbA6daap
F9hn7chFdEeaSdAUvp5748PfcWqkGLo+9fVp0DasylhtyVEBpEXcNBHUiMNf2+qg
7IiuRAVYqE63azONX41q9I05v4QrTSs/lLXWovznLOQmd2zFhD+6K+StT07GpDAR
BuRTcTwQZwOPUvhsxrI24l3C18hPXzbdZMxa90K52/WFlQ==
-----END CERTIFICATE-----
