Certificate:
    Data:
        Version: 3 (0x2)
        Serial Number:
            52:84:46:9d:bf:7a:09:40:d3:c4:8a:95:af:2e:8b:06
    Signature Algorithm: sha256WithRSAEncryption
        Issuer: C=GB, ST=Greater Manchester, L=Salford, O=COMODO CA Limited, CN=COMODO RSA Domain Validation Secure Server CA
        Validity
            Not Before: Mar 20 00:00:00 2015 GMT
            Not After : Mar 19 23:59:59 2016 GMT
        Subject: OU=Domain Control Validated, OU=PositiveSSL, CN=xs4all.nl
        Subject Public Key Info:
            Public Key Algorithm: rsaEncryption
                Public-Key: (4096 bit)
                Modulus:
                    00:e3:d4:a4:89:c0:58:6c:ef:f0:0b:b3:97:03:c5:
                    f2:37:b3:b4:8c:59:2d:9c:50:04:37:04:2f:b0:31:
                    df:a1:e7:fa:6d:78:25:3d:1a:e1:0c:48:7d:4e:af:
                    3b:ff:57:d7:e5:19:85:fe:7d:f8:fe:90:33:a0:b0:
                    4b:8e:1b:a9:86:4b:6a:70:70:f7:b4:22:de:90:62:
                    99:8f:ba:42:8c:20:63:74:16:5d:29:23:4f:08:e1:
                    e2:0f:73:17:0f:f4:23:f3:86:6b:4c:24:0a:c1:28:
                    9d:cf:82:73:9f:50:59:12:cc:15:60:bb:57:64:71:
                    13:6f:b3:04:38:33:59:d3:9f:67:ce:07:0e:85:22:
                    a2:19:53:51:1b:76:3c:40:c9:4b:a2:0c:14:05:10:
                    6f:f2:b3:6e:6c:b6:95:a6:60:17:d1:2f:bc:b7:19:
                    b0:5a:19:b2:98:a4:e9:10:b6:6e:64:68:f4:42:9d:
                    e3:b2:7a:17:e9:4b:cd:99:8d:ab:01:58:8f:69:ba:
                    a2:2e:e2:54:06:99:a8:72:14:71:a5:f3:25:9b:81:
                    92:7a:0c:67:9b:73:5c:11:a8:69:96:1b:99:65:5f:
                    64:96:41:f4:91:75:b7:26:cf:a8:2b:a0:28:dc:33:
                    90:20:7a:7e:97:72:e0:7c:93:e9:22:a3:b8:28:84:
                    58:08:fa:3b:17:08:e8:c4:ce:67:d4:50:23:5c:0e:
                    7e:9d:0c:3f:f1:8c:41:53:83:7c:6e:b2:c4:7d:c5:
                    fb:68:cb:a5:06:9c:91:8d:3c:9d:2e:20:96:3b:c4:
                    b1:fa:ed:58:c2:37:fe:1e:a8:8a:c9:ea:a3:49:5d:
                    8d:60:be:88:68:27:2a:cc:6e:e3:ef:55:23:85:7a:
                    fc:ad:ed:2f:0e:31:03:c7:10:ba:dd:12:9a:88:5d:
                    ef:58:2e:54:e7:78:6a:58:68:3b:e3:78:bc:0f:88:
                    3e:b3:3c:2e:05:9e:54:6c:a1:db:e2:9b:01:be:e6:
                    92:9d:a7:22:4d:49:17:e1:78:ba:ca:6a:fe:9e:ff:
                    d2:80:80:af:7b:a0:10:17:2a:57:f1:31:e4:f0:38:
                    88:4b:0c:62:08:18:c5:8a:2a:18:ac:0c:b5:d2:b3:
                    4a:e2:d4:de:5c:ba:77:d4:5e:99:a1:19:ab:0b:e7:
                    82:a6:69:eb:eb:e2:99:20:9b:bc:84:6a:f4:bc:b0:
                    87:78:9c:b2:12:0f:36:57:fa:73:ec:e2:64:90:5b:
                    6a:c8:32:69:3b:b6:4e:f8:7d:c5:36:08:13:8b:b0:
                    60:0f:90:07:99:c4:a0:fe:a2:b9:d2:e3:30:6b:4d:
                    9c:ed:7e:2e:a2:d7:c4:52:01:0e:dd:69:87:12:22:
                    8d:f0:87
                Exponent: 65537 (0x10001)
        X509v3 extensions:
            X509v3 Authority Key Identifier: 
                keyid:90:AF:6A:3A:94:5A:0B:D8:90:EA:12:56:73:DF:43:B4:3A:28:DA:E7

            X509v3 Subject Key Identifier: 
                2A:53:FE:18:5C:23:C9:91:A4:71:6A:69:FE:B0:DB:6F:79:2B:43:D8
            X509v3 Key Usage: critical
                Digital Signature, Key Encipherment
            X509v3 Basic Constraints: critical
                CA:FALSE
            X509v3 Extended Key Usage: 
                TLS Web Server Authentication, TLS Web Client Authentication
            X509v3 Certificate Policies: 
                Policy: 1.3.6.1.4.1.6449.1.2.2.7
                  CPS: https://secure.comodo.com/CPS
                Policy: 2.23.140.1.2.1

            X509v3 CRL Distribution Points: 

                Full Name:
                  URI:http://crl.comodoca.com/COMODORSADomainValidationSecureServerCA.crl

            Authority Information Access: 
                CA Issuers - URI:http://crt.comodoca.com/COMODORSADomainValidationSecureServerCA.crt
                OCSP - URI:http://ocsp.comodoca.com

            X509v3 Subject Alternative Name: 
                DNS:xs4all.nl, DNS:www.xs4all.nl
    Signature Algorithm: sha256WithRSAEncryption
         33:d6:51:87:3c:b5:7f:29:a7:58:49:54:45:73:c8:de:ab:41:
         cd:6c:13:6d:c4:e7:c8:b4:85:dd:b2:6d:91:34:7b:75:d9:71:
         16:8a:e7:79:1a:b2:16:7f:ae:d5:2a:61:1d:6c:be:0b:10:af:
         1b:cf:a7:b6:7e:51:7c:49:20:07:da:2b:aa:2c:72:1b:70:ab:
         6a:ca:ad:8e:ba:7b:98:fa:5e:12:40:b4:cb:8f:dd:35:16:3b:
         8b:b4:14:59:56:8c:32:bc:5b:34:36:d4:fc:3a:d6:87:73:70:
         ef:e5:fe:43:cf:55:3d:53:d8:ec:2b:ca:06:1b:72:8d:6a:c2:
         5f:4c:46:a6:b4:12:1a:0b:ff:f8:40:a1:21:63:31:a6:40:c6:
         9d:c3:67:c6:3f:28:6e:16:b6:39:ca:84:64:0d:b7:f3:dc:2f:
         76:ca:5a:63:0c:23:2b:5a:d2:7d:13:d5:77:8d:24:38:fe:ac:
         73:96:5e:fa:91:df:36:6e:be:4e:9c:52:c6:92:f3:f4:a6:fe:
         45:47:3b:e4:52:6d:df:09:76:58:50:29:0f:b9:00:80:bf:37:
         30:6e:32:b0:80:d6:97:ba:28:77:70:f0:2f:a0:66:ff:93:a8:
         74:89:b4:5d:39:57:3e:da:28:4e:06:48:a1:6c:81:fd:e1:f0:
         5a:cb:54:5d
-----BEGIN CERTIFICATE-----
MIIGPzCCBSegAwIBAgIQUoRGnb96CUDTxIqVry6LBjANBgkqhkiG9w0BAQsFADCB
kDELMAkGA1UEBhMCR0IxGzAZBgNVBAgTEkdyZWF0ZXIgTWFuY2hlc3RlcjEQMA4G
A1UEBxMHU2FsZm9yZDEaMBgGA1UEChMRQ09NT0RPIENBIExpbWl0ZWQxNjA0BgNV
BAMTLUNPTU9ETyBSU0EgRG9tYWluIFZhbGlkYXRpb24gU2VjdXJlIFNlcnZlciBD
QTAeFw0xNTAzMjAwMDAwMDBaFw0xNjAzMTkyMzU5NTlaME0xITAfBgNVBAsTGERv
bWFpbiBDb250cm9sIFZhbGlkYXRlZDEUMBIGA1UECxMLUG9zaXRpdmVTU0wxEjAQ
BgNVBAMTCXhzNGFsbC5ubDCCAiIwDQYJKoZIhvcNAQEBBQADggIPADCCAgoCggIB
AOPUpInAWGzv8AuzlwPF8jeztIxZLZxQBDcEL7Ax36Hn+m14JT0a4QxIfU6vO/9X
1+UZhf59+P6QM6CwS44bqYZLanBw97Qi3pBimY+6QowgY3QWXSkjTwjh4g9zFw/0
I/OGa0wkCsEonc+Cc59QWRLMFWC7V2RxE2+zBDgzWdOfZ84HDoUiohlTURt2PEDJ
S6IMFAUQb/Kzbmy2laZgF9EvvLcZsFoZspik6RC2bmRo9EKd47J6F+lLzZmNqwFY
j2m6oi7iVAaZqHIUcaXzJZuBknoMZ5tzXBGoaZYbmWVfZJZB9JF1tybPqCugKNwz
kCB6fpdy4HyT6SKjuCiEWAj6OxcI6MTOZ9RQI1wOfp0MP/GMQVODfG6yxH3F+2jL
pQackY08nS4gljvEsfrtWMI3/h6oisnqo0ldjWC+iGgnKsxu4+9VI4V6/K3tLw4x
A8cQut0Smohd71guVOd4alhoO+N4vA+IPrM8LgWeVGyh2+KbAb7mkp2nIk1JF+F4
uspq/p7/0oCAr3ugEBcqV/Ex5PA4iEsMYggYxYoqGKwMtdKzSuLU3ly6d9RemaEZ
qwvngqZp6+vimSCbvIRq9Lywh3icshIPNlf6c+ziZJBbasgyaTu2Tvh9xTYIE4uw
YA+QB5nEoP6iudLjMGtNnO1+LqLXxFIBDt1phxIijfCHAgMBAAGjggHVMIIB0TAf
BgNVHSMEGDAWgBSQr2o6lFoL2JDqElZz30O0Oija5zAdBgNVHQ4EFgQUKlP+GFwj
yZGkcWpp/rDbb3krQ9gwDgYDVR0PAQH/BAQDAgWgMAwGA1UdEwEB/wQCMAAwHQYD
VR0lBBYwFAYIKwYBBQUHAwEGCCsGAQUFBwMCME8GA1UdIARIMEYwOgYLKwYBBAGy
MQECAgcwKzApBggrBgEFBQcCARYdaHR0cHM6Ly9zZWN1cmUuY29tb2RvLmNvbS9D
UFMwCAYGZ4EMAQIBMFQGA1UdHwRNMEswSaBHoEWGQ2h0dHA6Ly9jcmwuY29tb2Rv
Y2EuY29tL0NPTU9ET1JTQURvbWFpblZhbGlkYXRpb25TZWN1cmVTZXJ2ZXJDQS5j
cmwwgYUGCCsGAQUFBwEBBHkwdzBPBggrBgEFBQcwAoZDaHR0cDovL2NydC5jb21v
ZG9jYS5jb20vQ09NT0RPUlNBRG9tYWluVmFsaWRhdGlvblNlY3VyZVNlcnZlckNB
LmNydDAkBggrBgEFBQcwAYYYaHR0cDovL29jc3AuY29tb2RvY2EuY29tMCMGA1Ud
EQQcMBqCCXhzNGFsbC5ubIINd3d3LnhzNGFsbC5ubDANBgkqhkiG9w0BAQsFAAOC
AQEAM9ZRhzy1fymnWElURXPI3qtBzWwTbcTnyLSF3bJtkTR7ddlxForneRqyFn+u
1SphHWy+CxCvG8+ntn5RfEkgB9orqixyG3Crasqtjrp7mPpeEkC0y4/dNRY7i7QU
WVaMMrxbNDbU/DrWh3Nw7+X+Q89VPVPY7CvKBhtyjWrCX0xGprQSGgv/+EChIWMx
pkDGncNnxj8obha2OcqEZA2389wvdspaYwwjK1rSfRPVd40kOP6sc5Ze+pHfNm6+
TpxSxpLz9Kb+RUc75FJt3wl2WFApD7kAgL83MG4ysIDWl7ood3DwL6Bm/5OodIm0
XTlXPtooTgZIoWyB/eHwWstUXQ==
-----END CERTIFICATE-----
