Certificate:
    Data:
        Version: 3 (0x2)
        Serial Number: 1184640175 (0x469c2caf)
    Signature Algorithm: sha1WithRSAEncryption
        Issuer: C=US, O=Entrust.net, OU=www.entrust.net/CPS incorp. by ref. (limits liab.), OU=(c) 1999 Entrust.net Limited, CN=Entrust.net Secure Server Certification Authority
        Validity
            Not Before: Jul 26 15:57:39 2007 GMT
            Not After : Aug 26 16:27:39 2013 GMT
        Subject: C=NL, O=DigiNotar, CN=DigiNotar Root CA/emailAddress=info@diginotar.nl
        Subject Public Key Info:
            Public Key Algorithm: rsaEncryption
                Public-Key: (4096 bit)
                Modulus:
                    00:ac:b0:58:c1:00:bd:d8:21:08:0b:2b:9a:fe:6e:
                    56:30:05:9f:1b:77:90:10:41:5c:c3:0d:87:11:77:
                    8e:81:f1:ca:7c:e9:8c:6a:ed:38:74:35:bb:da:df:
                    f9:bb:c0:09:37:b4:96:73:81:7d:33:1a:98:39:f7:
                    93:6f:95:7f:3d:b9:b1:75:87:ba:51:48:e8:8b:70:
                    3e:95:04:c5:d8:b6:c3:16:d9:88:b0:b1:87:1d:70:
                    da:86:b4:0f:14:8b:7a:cf:10:d1:74:36:a2:12:7b:
                    77:86:4a:79:e6:7b:df:02:11:68:a5:4e:86:ae:34:
                    58:9b:24:13:78:56:22:25:1e:01:8b:4b:51:71:fb:
                    82:cc:59:96:69:88:5a:68:53:c5:b9:0d:02:37:cb:
                    4b:bc:66:4a:90:7e:2a:0b:05:07:ed:16:5f:55:90:
                    75:d8:46:c9:1b:83:e2:08:be:f1:23:cc:99:1d:d6:
                    2a:0f:83:20:15:58:27:82:2e:fa:e2:22:c2:49:b1:
                    b9:01:81:6a:9d:6d:9d:40:77:68:76:4e:21:2a:6d:
                    84:40:85:4e:76:99:7c:82:f3:f3:b7:02:59:d4:26:
                    01:1b:8e:df:ad:53:06:d1:ae:18:dd:e2:b2:3a:cb:
                    d7:88:38:8e:ac:5b:29:b9:19:d3:98:f9:18:03:cf:
                    48:82:86:66:0b:1b:69:0f:c9:eb:38:88:7a:26:1a:
                    05:4c:92:d7:24:d4:96:f2:ac:52:2d:a3:47:d5:52:
                    f6:3f:fe:ce:84:06:70:a6:aa:3e:a2:f2:b6:56:34:
                    18:57:a2:e4:81:6d:e7:ca:f0:6a:d3:c7:91:6b:02:
                    83:41:7c:15:ef:6b:9a:64:5e:e3:d0:3c:e5:b1:eb:
                    7b:5d:86:fb:cb:e6:77:49:cd:a3:65:dc:f7:b9:9c:
                    b8:e4:0b:5f:93:cf:cc:30:1a:32:1c:ce:1c:63:95:
                    a5:f9:ea:e1:74:8b:9e:e9:2b:a9:30:7b:a0:18:1f:
                    0e:18:0b:e5:5b:a9:d3:d1:6c:1e:07:67:8f:91:4b:
                    a9:8a:bc:d2:66:aa:93:01:88:b2:91:fa:31:5c:d5:
                    a6:c1:52:08:09:cd:0a:63:a2:d3:22:a6:e8:a1:d9:
                    39:06:97:f5:6e:8d:02:90:8c:14:7b:3f:80:cd:1b:
                    9c:ba:c4:58:72:23:af:b6:56:9f:c6:7a:42:33:29:
                    07:3f:82:c9:e6:1f:05:0d:cd:4c:28:36:8b:d3:c8:
                    3e:1c:c6:88:ef:5e:ee:89:64:e9:1d:eb:da:89:7e:
                    32:a6:69:d1:dd:cc:88:9f:d1:d0:c9:66:21:dc:06:
                    67:c5:94:7a:9a:6d:62:4c:7d:cc:e0:64:80:b2:9e:
                    47:8e:a3
                Exponent: 65537 (0x10001)
        X509v3 extensions:
            X509v3 Basic Constraints: critical
                CA:TRUE, pathlen:1
            X509v3 Extended Key Usage: 
                TLS Web Server Authentication, TLS Web Client Authentication, E-mail Protection
            X509v3 Certificate Policies: 
                Policy: X509v3 Any Policy

            Authority Information Access: 
                OCSP - URI:http://ocsp.entrust.net

            X509v3 CRL Distribution Points: 

                Full Name:
                  URI:http://crl.entrust.net/server1.crl

            X509v3 Subject Key Identifier: 
                88:68:BF:E0:8E:35:C4:3B:38:6B:62:F7:28:3B:84:81:C8:0C:D7:4D
            X509v3 Key Usage: 
                Certificate Sign, CRL Sign
            X509v3 Authority Key Identifier: 
                keyid:F0:17:62:13:55:3D:B3:FF:0A:00:6B:FB:50:84:97:F3:ED:62:D0:1A

            1.2.840.113533.7.65.0: 
                0
..V7.1....
    Signature Algorithm: sha1WithRSAEncryption
         46:ba:45:c0:cd:70:42:06:52:59:03:25:46:3f:a5:64:dd:b3:
         8c:e1:c5:b5:64:a7:7c:12:9a:9c:0f:16:1c:79:7f:14:f2:17:
         81:c3:d8:be:b4:8e:5d:da:aa:34:c1:ee:03:e9:b0:bd:8f:93:
         94:19:94:db:22:de:de:14:90:25:7b:d1:43:9d:b9:e2:51:37:
         7a:3f:2c:eb:64:e3:e6:e3:5d:8d:a5:0b:4a:93:1d:b3:7c:d1:
         53:0b:a8:f8:e6:69:ff:60:85:20:3d:87:08:6c:91:db:4c:81:
         1b:20:7d:df:74:ab:94:0f:64:57:58:7f:e8:6d:85:cd:e6:e8:
         87:09
-----BEGIN CERTIFICATE-----
MIIFSDCCBLGgAwIBAgIERpwsrzANBgkqhkiG9w0BAQUFADCBwzELMAkGA1UEBhMC
VVMxFDASBgNVBAoTC0VudHJ1c3QubmV0MTswOQYDVQQLEzJ3d3cuZW50cnVzdC5u
ZXQvQ1BTIGluY29ycC4gYnkgcmVmLiAobGltaXRzIGxpYWIuKTElMCMGA1UECxMc
KGMpIDE5OTkgRW50cnVzdC5uZXQgTGltaXRlZDE6MDgGA1UEAxMxRW50cnVzdC5u
ZXQgU2VjdXJlIFNlcnZlciBDZXJ0aWZpY2F0aW9uIEF1dGhvcml0eTAeFw0wNzA3
MjYxNTU3MzlaFw0xMzA4MjYxNjI3MzlaMF8xCzAJBgNVBAYTAk5MMRIwEAYDVQQK
EwlEaWdpTm90YXIxGjAYBgNVBAMTEURpZ2lOb3RhciBSb290IENBMSAwHgYJKoZI
hvcNAQkBFhFpbmZvQGRpZ2lub3Rhci5ubDCCAiIwDQYJKoZIhvcNAQEBBQADggIP
ADCCAgoCggIBAKywWMEAvdghCAsrmv5uVjAFnxt3kBBBXMMNhxF3joHxynzpjGrt
OHQ1u9rf+bvACTe0lnOBfTMamDn3k2+Vfz25sXWHulFI6ItwPpUExdi2wxbZiLCx
hx1w2oa0DxSLes8Q0XQ2ohJ7d4ZKeeZ73wIRaKVOhq40WJskE3hWIiUeAYtLUXH7
gsxZlmmIWmhTxbkNAjfLS7xmSpB+KgsFB+0WX1WQddhGyRuD4gi+8SPMmR3WKg+D
IBVYJ4Iu+uIiwkmxuQGBap1tnUB3aHZOISpthECFTnaZfILz87cCWdQmARuO361T
BtGuGN3isjrL14g4jqxbKbkZ05j5GAPPSIKGZgsbaQ/J6ziIeiYaBUyS1yTUlvKs
Ui2jR9VS9j/+zoQGcKaqPqLytlY0GFei5IFt58rwatPHkWsCg0F8Fe9rmmRe49A8
5bHre12G+8vmd0nNo2Xc97mcuOQLX5PPzDAaMhzOHGOVpfnq4XSLnukrqTB7oBgf
DhgL5Vup09FsHgdnj5FLqYq80maqkwGIspH6MVzVpsFSCAnNCmOi0yKm6KHZOQaX
9W6NApCMFHs/gM0bnLrEWHIjr7ZWn8Z6QjMpBz+CyeYfBQ3NTCg2i9PIPhzGiO9e
7olk6R3r2ol+MqZp0d3MiJ/R0MlmIdwGZ8WUepptYkx9zOBkgLKeR46jAgMBAAGj
ggEmMIIBIjASBgNVHRMBAf8ECDAGAQH/AgEBMCcGA1UdJQQgMB4GCCsGAQUFBwMB
BggrBgEFBQcDAgYIKwYBBQUHAwQwEQYDVR0gBAowCDAGBgRVHSAAMDMGCCsGAQUF
BwEBBCcwJTAjBggrBgEFBQcwAYYXaHR0cDovL29jc3AuZW50cnVzdC5uZXQwMwYD
VR0fBCwwKjAooCagJIYiaHR0cDovL2NybC5lbnRydXN0Lm5ldC9zZXJ2ZXIxLmNy
bDAdBgNVHQ4EFgQUiGi/4I41xDs4a2L3KDuEgcgM100wCwYDVR0PBAQDAgEGMB8G
A1UdIwQYMBaAFPAXYhNVPbP/CgBr+1CEl/PtYtAaMBkGCSqGSIb2fQdBAAQMMAob
BFY3LjEDAgCBMA0GCSqGSIb3DQEBBQUAA4GBAEa6RcDNcEIGUlkDJUY/pWTds4zh
xbVkp3wSmpwPFhx5fxTyF4HD2L60jl3aqjTB7gPpsL2Pk5QZlNsi3t4UkCV70UOd
ueJRN3o/LOtk4+bjXY2lC0qTHbN80VMLqPjmaf9ghSA9hwhskdtMgRsgfd90q5QP
ZFdYf+hthc3m6IcJ
-----END CERTIFICATE-----
