Certificate:
    Data:
        Version: 3 (0x2)
        Serial Number:
            68:4a:58:70:80:6b:f0:8f:02:fa:f6:de:e8:b0:90:90
        Signature Algorithm: ecdsa-with-SHA384
        Issuer: C=CN, O=WoSign CA Limited, CN=CA WoSign ECC Root
        Validity
            Not Before: Nov  8 00:58:58 2014 GMT
            Not After : Nov  8 00:58:58 2044 GMT
        Subject: C=CN, O=WoSign CA Limited, CN=CA WoSign ECC Root
        Subject Public Key Info:
            Public Key Algorithm: id-ecPublicKey
            EC Public Key:
                pub: 
                    04:e1:fd:8e:b8:43:24:ab:96:7b:85:c2:ba:0b:ad:
                    8d:e0:3a:e3:24:b9:d2:b1:be:88:3a:ca:bf:4a:b8:
                    f9:ef:2c:2f:af:51:50:3c:47:75:6c:f8:94:b7:9b:
                    fc:28:1e:c5:54:cc:63:9d:16:4b:53:c1:e7:20:ab:
                    cd:ac:25:d2:7f:8f:c2:c1:5a:82:5e:30:8b:7a:54:
                    ce:03:b5:91:7f:aa:94:d0:d1:8a:48:cc:82:05:26:
                    a1:d5:51:12:d6:7b:36
                ASN1 OID: secp384r1
        X509v3 extensions:
            X509v3 Key Usage: critical
                Certificate Sign, CRL Sign
            X509v3 Basic Constraints: critical
                CA:TRUE
            X509v3 Subject Key Identifier: 
                AA:FD:D5:5A:A3:F6:87:8B:32:85:FD:D1:32:5B:80:45:93:F3:03:B8
    Signature Algorithm: ecdsa-with-SHA384
        30:65:02:31:00:e4:a4:84:b0:81:d5:3d:b0:74:ac:94:a4:e8:
        0e:3d:00:74:4c:a1:97:6b:f9:0d:51:3c:a1:d9:3b:f4:0d:ab:
        a9:9f:be:4e:72:ca:85:d4:d9:ec:b5:32:45:18:6f:ab:ad:02:
        30:7d:c7:f7:69:63:2f:a1:e1:98:ef:13:10:d1:79:3f:d1:fe:
        ea:3b:7f:de:56:f4:90:b1:15:11:d8:b2:22:15:d0:2f:c3:26:
        2e:6b:f1:91:b2:90:65:f4:9a:e6:90:ee:4a
-----BEGIN CERTIFICATE-----
MIICCTCCAY+gAwIBAgIQaEpYcIBr8I8C+vbe6LCQkDAKBggqhkjOPQQDAzBGMQsw
CQYDVQQGEwJDTjEaMBgGA1UEChMRV29TaWduIENBIExpbWl0ZWQxGzAZBgNVBAMT
EkNBIFdvU2lnbiBFQ0MgUm9vdDAeFw0xNDExMDgwMDU4NThaFw00NDExMDgwMDU4
NThaMEYxCzAJBgNVBAYTAkNOMRowGAYDVQQKExFXb1NpZ24gQ0EgTGltaXRlZDEb
MBkGA1UEAxMSQ0EgV29TaWduIEVDQyBSb290MHYwEAYHKoZIzj0CAQYFK4EEACID
YgAE4f2OuEMkq5Z7hcK6C62N4DrjJLnSsb6IOsq/Srj57ywvr1FQPEd1bPiUt5v8
KB7FVMxjnRZLU8HnIKvNrCXSf4/CwVqCXjCLelTOA7WRf6qU0NGKSMyCBSah1VES
1ns2o0IwQDAOBgNVHQ8BAf8EBAMCAQYwDwYDVR0TAQH/BAUwAwEB/zAdBgNVHQ4E
FgQUqv3VWqP2h4syhf3RMluARZPzA7gwCgYIKoZIzj0EAwMDaAAwZQIxAOSkhLCB
1T2wdKyUpOgOPQB0TKGXa/kNUTyh2Tv0Daupn75OcsqF1NnstTJFGG+rrQIwfcf3
aWMvoeGY7xMQ0Xk/0f7qO3/eVvSQsRUR2LIiFdAvwyYua/GRspBl9JrmkO5K
-----END CERTIFICATE-----
