Certificate:
    Data:
        Version: 3 (0x2)
        Serial Number:
            ae:b1:26:1a:4b:a9:e1:b6:e6:d1:54:0f:9c:9b:44:f6
        Signature Algorithm: sha384WithRSAEncryption
        Issuer: C = AT, O = ZeroSSL, CN = ZeroSSL RSA Domain Secure Site CA
        Validity
            Not Before: Feb  6 00:00:00 2021 GMT
            Not After : May  7 23:59:59 2021 GMT
        Subject: CN = google.lk
        Subject Public Key Info:
            Public Key Algorithm: rsaEncryption
                RSA Public-Key: (2048 bit)
                Modulus:
                    00:99:1d:2a:01:b8:d9:af:e2:5d:ce:2d:d7:ff:cc:
                    a4:1d:2b:99:75:cd:88:76:8a:b5:c3:5a:c3:e0:96:
                    ff:e0:34:7a:2f:17:3c:35:06:65:fd:35:31:e7:60:
                    86:a4:6b:af:fb:34:51:b1:b5:4b:ad:4f:f7:aa:a0:
                    74:22:ca:65:33:85:3a:cd:d0:4b:fe:c2:98:e7:70:
                    22:98:99:da:a6:d9:f6:b5:3e:21:25:48:37:38:82:
                    cb:03:14:0a:27:f2:72:b6:08:91:23:77:a5:34:5f:
                    b3:c9:dc:45:52:d9:00:5b:a6:5c:9f:2f:35:d6:74:
                    be:9f:b4:ac:6a:25:5a:e5:36:f3:08:ca:cd:c3:bf:
                    9e:53:63:f8:48:a3:1c:26:8b:1c:6f:ae:78:d4:da:
                    54:13:ee:bd:15:2a:11:9c:81:33:03:19:d4:9c:6a:
                    b2:bb:44:e5:b2:ca:32:49:b1:db:a1:a1:87:8e:1e:
                    20:2a:00:43:fa:ad:1c:73:f8:3a:66:6e:b5:46:b2:
                    43:14:8a:77:bd:95:18:bc:d6:79:8c:40:57:28:50:
                    28:32:61:2b:35:65:49:3b:45:53:f7:21:e5:45:7a:
                    12:bd:ac:9a:6a:bd:88:ef:14:99:7e:33:a7:cb:f4:
                    24:a2:a3:62:5e:c5:a0:a7:41:a4:30:53:8e:d3:b4:
                    ab:0d
                Exponent: 65537 (0x10001)
        X509v3 extensions:
            X509v3 Authority Key Identifier: 
                keyid:C8:D9:78:68:A2:D9:19:68:D5:3D:72:DE:5F:0A:3E:DC:B5:86:86:A6

            X509v3 Subject Key Identifier: 
                30:BB:9A:15:D2:66:E2:73:18:CC:34:A2:73:6D:6D:42:6B:60:16:08
            X509v3 Key Usage: critical
                Digital Signature, Key Encipherment
            X509v3 Basic Constraints: critical
                CA:FALSE
            X509v3 Extended Key Usage: 
                TLS Web Server Authentication, TLS Web Client Authentication
            X509v3 Certificate Policies: 
                Policy: 1.3.6.1.4.1.6449.1.2.2.78
                  CPS: https://sectigo.com/CPS
                Policy: 2.23.140.1.2.1

            Authority Information Access: 
                CA Issuers - URI:http://zerossl.crt.sectigo.com/ZeroSSLRSADomainSecureSiteCA.crt
                OCSP - URI:http://zerossl.ocsp.sectigo.com

            CT Precertificate SCTs: 
                Signed Certificate Timestamp:
                    Version   : v1 (0x0)
                    Log ID    : 7D:3E:F2:F8:8F:FF:88:55:68:24:C2:C0:CA:9E:52:89:
                                79:2B:C5:0E:78:09:7F:2E:6A:97:68:99:7E:22:F0:D7
                    Timestamp : Feb  6 01:37:33.314 2021 GMT
                    Extensions: none
                    Signature : ecdsa-with-SHA256
                                30:45:02:21:00:D0:CA:88:06:8A:EF:F7:E6:3B:06:0D:
                                41:81:2F:FF:6A:7D:74:A4:85:B7:F7:26:45:84:0B:BF:
                                83:80:53:44:C6:02:20:3A:87:E2:37:10:2D:C7:D3:41:
                                D5:06:F7:67:13:90:27:CA:AA:65:BD:15:23:95:0D:90:
                                8D:F9:42:7C:46:6A:FB
                Signed Certificate Timestamp:
                    Version   : v1 (0x0)
                    Log ID    : 94:20:BC:1E:8E:D5:8D:6C:88:73:1F:82:8B:22:2C:0D:
                                D1:DA:4D:5E:6C:4F:94:3D:61:DB:4E:2F:58:4D:A2:C2
                    Timestamp : Feb  6 01:37:33.383 2021 GMT
                    Extensions: none
                    Signature : ecdsa-with-SHA256
                                30:45:02:21:00:E5:11:79:7A:09:CB:E3:F6:54:69:D5:
                                C4:BA:82:A8:E0:8B:C5:1E:E3:83:70:52:72:28:49:29:
                                5F:DE:D1:7A:BF:02:20:36:58:F0:CF:9F:2C:15:BB:6A:
                                A4:98:D1:B3:20:6B:07:7C:10:A7:13:7A:83:9E:F6:7B:
                                0F:65:4B:C7:9C:1B:A9
            X509v3 Subject Alternative Name: 
                DNS:google.lk, DNS:www.google.lk
    Signature Algorithm: sha384WithRSAEncryption
         03:4d:38:6a:df:00:d9:01:e5:fa:f7:a4:94:a2:10:a4:e0:f6:
         d1:48:d0:d4:f0:30:33:f6:51:c6:a8:09:9a:3d:27:7f:01:7e:
         de:e5:6e:fd:de:1e:04:e8:69:88:31:c3:c6:35:bf:30:5b:8e:
         c4:51:42:49:d7:cf:62:62:4e:92:b0:05:f9:dc:19:d1:1c:c1:
         03:6c:dc:7b:cc:b3:40:e8:ff:50:a7:d3:48:66:fa:b7:cf:86:
         7c:3b:b9:43:45:09:d1:03:a3:3f:ad:5f:08:d4:1c:58:53:d9:
         e7:29:21:ba:5c:8c:fd:1a:c3:00:06:78:d6:d2:74:29:a2:0a:
         75:f4:34:51:8d:87:83:fc:e7:71:9e:8d:65:31:62:cc:b2:29:
         84:47:85:90:5d:dd:30:70:b2:5f:ff:c2:32:d7:cf:b7:c9:37:
         ec:d3:63:9a:f7:6a:21:1f:6a:4d:e3:7a:2c:0d:e5:24:5c:c3:
         82:3b:33:77:51:57:f6:48:6b:d2:89:f5:d7:b6:3b:04:00:cd:
         ed:db:09:7a:3a:f3:8a:c0:23:a6:3d:02:ea:f8:01:84:77:9e:
         67:5d:ec:68:36:e1:70:e2:80:01:74:8b:56:0a:f1:cc:13:fc:
         a4:a3:05:d3:e6:f9:40:2d:de:28:77:9d:b9:98:c1:35:e0:a7:
         cd:d8:f4:78:a4:44:c2:ad:79:80:c4:eb:89:41:b5:6b:b0:9a:
         b6:20:0a:1b:bb:c9:68:a5:69:11:df:05:0d:9c:c9:e1:a4:e4:
         98:31:9b:16:04:e8:c2:14:e5:ff:b4:8f:2f:84:8a:4d:fa:56:
         27:20:9e:7b:8b:53:a6:dc:dd:f8:b9:f7:9f:66:71:e5:f1:52:
         8e:4e:18:79:c0:23:05:0b:f8:3b:a0:03:b5:3a:7f:e5:87:c4:
         8c:fb:00:85:96:fb:4b:bc:d1:36:1b:ed:ef:0d:e1:68:aa:27:
         08:eb:31:98:22:19:af:d7:d1:ba:a2:68:28:53:6d:cc:ef:7a:
         76:f8:ad:3e:f1:8b:a6:32:89:53:a2:27:e9:16:d4:29:1f:94:
         29:75:e1:50:40:35:ac:ab:dd:0b:41:a2:e6:ac:53:36:17:dc:
         39:ee:c2:78:e2:da:c1:10:ec:02:58:5b:94:0a:18:34:db:50:
         96:fc:38:f4:67:af:4f:82:e4:2a:a8:f7:3d:d2:32:e0:cf:02:
         60:55:11:83:54:05:ba:16:8c:e4:94:c6:13:91:14:76:fc:8c:
         ba:15:c3:ac:cf:ea:d3:11:bb:91:31:33:15:6b:70:08:dd:c7:
         b1:d6:77:18:14:03:01:6a:f2:d0:1f:47:f2:a3:32:70:5a:83:
         3b:48:3c:d2:30:0e:56:c6
-----BEGIN CERTIFICATE-----
MIIGcDCCBFigAwIBAgIRAK6xJhpLqeG25tFUD5ybRPYwDQYJKoZIhvcNAQEMBQAw
SzELMAkGA1UEBhMCQVQxEDAOBgNVBAoTB1plcm9TU0wxKjAoBgNVBAMTIVplcm9T
U0wgUlNBIERvbWFpbiBTZWN1cmUgU2l0ZSBDQTAeFw0yMTAyMDYwMDAwMDBaFw0y
MTA1MDcyMzU5NTlaMBQxEjAQBgNVBAMTCWdvb2dsZS5sazCCASIwDQYJKoZIhvcN
AQEBBQADggEPADCCAQoCggEBAJkdKgG42a/iXc4t1//MpB0rmXXNiHaKtcNaw+CW
/+A0ei8XPDUGZf01MedghqRrr/s0UbG1S61P96qgdCLKZTOFOs3QS/7CmOdwIpiZ
2qbZ9rU+ISVINziCywMUCifycrYIkSN3pTRfs8ncRVLZAFumXJ8vNdZ0vp+0rGol
WuU28wjKzcO/nlNj+EijHCaLHG+ueNTaVBPuvRUqEZyBMwMZ1JxqsrtE5bLKMkmx
26Ghh44eICoAQ/qtHHP4OmZutUayQxSKd72VGLzWeYxAVyhQKDJhKzVlSTtFU/ch
5UV6Er2smmq9iO8UmX4zp8v0JKKjYl7FoKdBpDBTjtO0qw0CAwEAAaOCAoQwggKA
MB8GA1UdIwQYMBaAFMjZeGii2Rlo1T1y3l8KPty1hoamMB0GA1UdDgQWBBQwu5oV
0mbicxjMNKJzbW1Ca2AWCDAOBgNVHQ8BAf8EBAMCBaAwDAYDVR0TAQH/BAIwADAd
BgNVHSUEFjAUBggrBgEFBQcDAQYIKwYBBQUHAwIwSQYDVR0gBEIwQDA0BgsrBgEE
AbIxAQICTjAlMCMGCCsGAQUFBwIBFhdodHRwczovL3NlY3RpZ28uY29tL0NQUzAI
BgZngQwBAgEwgYgGCCsGAQUFBwEBBHwwejBLBggrBgEFBQcwAoY/aHR0cDovL3pl
cm9zc2wuY3J0LnNlY3RpZ28uY29tL1plcm9TU0xSU0FEb21haW5TZWN1cmVTaXRl
Q0EuY3J0MCsGCCsGAQUFBzABhh9odHRwOi8vemVyb3NzbC5vY3NwLnNlY3RpZ28u
Y29tMIIBBAYKKwYBBAHWeQIEAgSB9QSB8gDwAHYAfT7y+I//iFVoJMLAyp5SiXkr
xQ54CX8uapdomX4i8NcAAAF3dPywggAABAMARzBFAiEA0MqIBorv9+Y7Bg1BgS//
an10pIW39yZFhAu/g4BTRMYCIDqH4jcQLcfTQdUG92cTkCfKqmW9FSOVDZCN+UJ8
Rmr7AHYAlCC8Ho7VjWyIcx+CiyIsDdHaTV5sT5Q9YdtOL1hNosIAAAF3dPywxwAA
BAMARzBFAiEA5RF5egnL4/ZUadXEuoKo4IvFHuODcFJyKEkpX97Rer8CIDZY8M+f
LBW7aqSY0bMgawd8EKcTeoOe9nsPZUvHnBupMCMGA1UdEQQcMBqCCWdvb2dsZS5s
a4INd3d3Lmdvb2dsZS5sazANBgkqhkiG9w0BAQwFAAOCAgEAA004at8A2QHl+vek
lKIQpOD20UjQ1PAwM/ZRxqgJmj0nfwF+3uVu/d4eBOhpiDHDxjW/MFuOxFFCSdfP
YmJOkrAF+dwZ0RzBA2zce8yzQOj/UKfTSGb6t8+GfDu5Q0UJ0QOjP61fCNQcWFPZ
5ykhulyM/RrDAAZ41tJ0KaIKdfQ0UY2Hg/zncZ6NZTFizLIphEeFkF3dMHCyX//C
MtfPt8k37NNjmvdqIR9qTeN6LA3lJFzDgjszd1FX9khr0on117Y7BADN7dsJejrz
isAjpj0C6vgBhHeeZ13saDbhcOKAAXSLVgrxzBP8pKMF0+b5QC3eKHeduZjBNeCn
zdj0eKREwq15gMTriUG1a7CatiAKG7vJaKVpEd8FDZzJ4aTkmDGbFgTowhTl/7SP
L4SKTfpWJyCee4tTptzd+Ln3n2Zx5fFSjk4YecAjBQv4O6ADtTp/5YfEjPsAhZb7
S7zRNhvt7w3haKonCOsxmCIZr9fRuqJoKFNtzO96dvitPvGLpjKJU6In6RbUKR+U
KXXhUEA1rKvdC0Gi5qxTNhfcOe7CeOLawRDsAlhblAoYNNtQlvw49GevT4LkKqj3
PdIy4M8CYFURg1QFuhaM5JTGE5EUdvyMuhXDrM/q0xG7kTEzFWtwCN3HsdZ3GBQD
AWry0B9H8qMycFqDO0g80jAOVsY=
-----END CERTIFICATE-----
