Certificate:
    Data:
        Version: 3 (0x2)
        Serial Number:
            f4:a3:0e:d8:9f:11:07:a1
    Signature Algorithm: sha256WithRSAEncryption
        Issuer: C = DK, ST = Denmark, L = "industriparken 27, 2750 Ballerup", O = Sennheiser Communications A/S, OU = R&D, CN = SenncomRootCA, emailAddress = support@senncom.com
        Validity
            Not Before: Aug  2 05:01:29 2017 GMT
            Not After : Jul 28 05:01:29 2037 GMT
        Subject: C = DK, ST = Denmark, L = "industriparken 27, 2750 Ballerup", O = Sennheiser Communications A/S, OU = R&D, CN = SenncomRootCA, emailAddress = support@senncom.com
        Subject Public Key Info:
            Public Key Algorithm: rsaEncryption
                Public-Key: (4096 bit)
                Modulus:
                    00:c4:5d:4c:06:51:c1:27:38:af:e5:be:4d:4b:4c:
                    92:ad:c6:00:92:8e:bb:37:4e:67:60:e6:7b:66:58:
                    f4:fe:05:ab:77:54:13:8d:ee:98:57:cd:08:c9:50:
                    a1:d9:17:77:31:c5:75:3d:ad:94:6a:4f:e9:0e:e9:
                    f5:95:2d:33:e7:62:0f:f8:af:c3:64:b0:4e:de:44:
                    1b:14:18:60:f5:55:8e:fc:39:3f:73:7d:cf:09:be:
                    5f:43:71:b3:b1:43:f3:b2:eb:c4:62:8e:7c:77:b4:
                    a4:52:5f:3d:9c:dc:5b:28:6a:22:d3:52:69:fe:9e:
                    7e:7d:cc:c4:71:f7:04:8d:a1:02:ef:fc:60:cf:35:
                    2b:fc:83:d8:32:da:52:95:1b:7a:65:e0:9b:97:5e:
                    40:86:68:61:ad:30:af:0a:22:a9:64:d1:f0:3d:12:
                    5f:29:ca:02:95:b5:d0:e5:bc:95:01:d4:78:3d:43:
                    15:d5:d1:cd:52:ff:e6:24:05:5d:e6:6b:d9:98:2d:
                    60:72:e5:e8:34:33:48:a0:6e:e4:50:ae:89:58:59:
                    06:03:e4:1c:7b:36:50:60:81:16:09:91:b0:58:a7:
                    84:1b:22:0a:d4:cb:0f:13:6b:fc:53:78:76:d4:16:
                    5b:44:ab:23:64:ea:42:33:87:6c:b6:c3:1b:21:a2:
                    69:71:4f:f8:bb:77:ec:81:b3:24:20:d4:1f:4b:28:
                    4e:70:b4:92:b0:ba:94:05:bf:71:d7:d5:c7:23:7e:
                    75:8f:ab:ee:87:c8:c2:69:bb:16:57:96:ee:5a:d5:
                    4d:d0:82:4d:b1:14:33:8e:0d:1d:5b:f8:e5:0b:81:
                    f5:c9:e0:ba:59:08:77:2f:d6:8e:bd:68:5e:b6:7f:
                    d8:e7:b0:0e:ce:d7:a6:22:5c:5a:36:a1:da:87:70:
                    a2:67:b3:f4:cc:a8:5e:57:a1:2d:cb:3f:d6:a5:8d:
                    6c:0e:2b:e8:d8:8a:df:03:3c:10:b9:77:de:bd:19:
                    b5:f8:94:92:df:d1:e2:b9:f3:7e:00:5c:ca:ce:90:
                    ab:df:45:bc:bc:4d:f4:47:4d:11:a1:aa:26:32:50:
                    ac:b0:04:08:c8:50:31:80:81:8f:87:70:c8:40:2e:
                    a7:55:73:4f:7f:ab:ae:29:7e:fd:a5:06:e5:7c:c6:
                    e6:65:da:72:6f:02:bd:40:ab:08:b0:34:f3:1d:b1:
                    e1:f3:11:6b:0a:c1:be:db:ce:eb:23:18:4f:c9:b0:
                    38:2e:e5:9f:08:15:45:82:ce:f7:26:10:0f:70:2d:
                    ef:a5:d8:dd:99:19:75:dc:5c:c1:31:2c:76:6c:f2:
                    bd:ba:48:c0:87:fa:7a:f1:78:5f:2f:96:53:29:56:
                    44:24:cd
                Exponent: 65537 (0x10001)
        X509v3 extensions:
            X509v3 Subject Key Identifier: 
                FD:1E:B5:6B:5F:09:59:92:9E:81:C6:B0:A6:91:32:4C:00:9F:44:47
            X509v3 Authority Key Identifier: 
                keyid:FD:1E:B5:6B:5F:09:59:92:9E:81:C6:B0:A6:91:32:4C:00:9F:44:47

            X509v3 Basic Constraints: 
                CA:TRUE
    Signature Algorithm: sha256WithRSAEncryption
         13:86:48:92:9c:0c:b6:9d:a4:07:c3:de:fd:47:fe:bf:00:b7:
         0b:b6:86:cc:79:1e:2e:a6:bd:d0:aa:19:52:ed:1d:b2:0b:e2:
         d8:3b:64:e3:d1:86:b7:9d:39:d9:9b:df:86:18:f4:5c:65:64:
         db:37:13:bf:d7:3e:0e:42:d6:79:e3:a9:b5:a2:cc:ed:69:aa:
         27:0c:04:46:42:95:47:8f:45:9a:6e:4a:5c:54:a9:ef:2f:dc:
         33:fa:7f:0e:db:49:99:48:1b:f3:17:67:80:66:d3:c9:33:48:
         17:96:41:ee:e4:56:16:87:ce:2e:6f:78:02:4b:1e:b4:6a:1b:
         cc:87:89:e3:9f:a7:1d:9c:05:3d:3b:c7:c9:96:34:08:a0:bd:
         c2:26:cd:f2:aa:85:31:79:dd:5b:4b:63:a9:e0:83:ef:13:33:
         4a:c5:c0:36:28:37:fc:d4:89:16:cf:d7:1b:07:a8:26:04:fd:
         17:b8:85:0d:75:61:d6:71:75:6e:6e:f3:3c:34:86:1a:b4:a0:
         a3:e8:ce:d6:52:4f:11:30:51:fb:7b:bb:e4:44:ad:97:6a:e5:
         62:c0:3e:88:7e:a2:11:50:ee:2f:59:e5:f1:8f:52:e4:d1:84:
         ed:58:84:8a:bd:78:92:3d:f4:06:16:9f:37:f5:8b:f2:34:b0:
         6f:b0:c6:d3:14:e7:a5:30:c7:26:ff:6f:33:92:29:2d:a2:d0:
         ea:e1:d6:06:7a:c7:40:f3:42:44:ed:1f:8a:ec:7b:74:27:ee:
         f2:2f:7e:db:cc:01:10:66:a8:92:fe:34:2d:aa:53:40:14:a6:
         19:43:a2:0d:92:78:7a:1b:38:01:bf:9a:1b:f3:cd:ea:cd:44:
         fe:9b:b9:b5:53:45:16:8c:05:de:a9:f1:4f:20:14:cf:e0:34:
         2e:4c:24:89:67:e3:a9:3e:c8:bd:e2:6c:d8:9b:11:ed:37:e8:
         f6:6f:0e:d6:a3:0b:b7:f9:c2:2c:c8:07:e7:0e:41:43:89:f3:
         91:b5:b2:98:dd:60:47:f0:4a:de:a9:2f:c0:d2:04:7d:37:0b:
         70:79:b2:11:7a:1c:58:79:ad:97:91:a0:b7:2d:f3:cc:f8:aa:
         cc:95:09:b0:b6:39:18:1d:ed:0d:5e:56:e2:49:95:42:65:5a:
         c7:bf:f4:8f:66:78:18:53:1b:d9:27:84:50:bf:6e:2e:41:64:
         fa:35:1d:b0:73:2a:bf:6e:71:21:f7:04:9a:2b:55:87:27:da:
         4e:86:ab:8b:e5:0e:92:30:58:41:4c:da:67:99:c2:ce:03:e5:
         bb:cf:78:85:b6:5c:72:90:da:4a:26:b4:5b:cd:8c:84:0d:69:
         30:8f:c9:82:a3:b8:9e:18
-----BEGIN CERTIFICATE-----
MIIGTTCCBDWgAwIBAgIJAPSjDtifEQehMA0GCSqGSIb3DQEBCwUAMIG8MQswCQYD
VQQGEwJESzEQMA4GA1UECAwHRGVubWFyazEpMCcGA1UEBwwgaW5kdXN0cmlwYXJr
ZW4gMjcsIDI3NTAgQmFsbGVydXAxJjAkBgNVBAoMHVNlbm5oZWlzZXIgQ29tbXVu
aWNhdGlvbnMgQS9TMQwwCgYDVQQLDANSJkQxFjAUBgNVBAMMDVNlbm5jb21Sb290
Q0ExIjAgBgkqhkiG9w0BCQEWE3N1cHBvcnRAc2VubmNvbS5jb20wHhcNMTcwODAy
MDUwMTI5WhcNMzcwNzI4MDUwMTI5WjCBvDELMAkGA1UEBhMCREsxEDAOBgNVBAgM
B0Rlbm1hcmsxKTAnBgNVBAcMIGluZHVzdHJpcGFya2VuIDI3LCAyNzUwIEJhbGxl
cnVwMSYwJAYDVQQKDB1TZW5uaGVpc2VyIENvbW11bmljYXRpb25zIEEvUzEMMAoG
A1UECwwDUiZEMRYwFAYDVQQDDA1TZW5uY29tUm9vdENBMSIwIAYJKoZIhvcNAQkB
FhNzdXBwb3J0QHNlbm5jb20uY29tMIICIjANBgkqhkiG9w0BAQEFAAOCAg8AMIIC
CgKCAgEAxF1MBlHBJziv5b5NS0ySrcYAko67N05nYOZ7Zlj0/gWrd1QTje6YV80I
yVCh2Rd3McV1Pa2Uak/pDun1lS0z52IP+K/DZLBO3kQbFBhg9VWO/Dk/c33PCb5f
Q3GzsUPzsuvEYo58d7SkUl89nNxbKGoi01Jp/p5+fczEcfcEjaEC7/xgzzUr/IPY
MtpSlRt6ZeCbl15AhmhhrTCvCiKpZNHwPRJfKcoClbXQ5byVAdR4PUMV1dHNUv/m
JAVd5mvZmC1gcuXoNDNIoG7kUK6JWFkGA+QcezZQYIEWCZGwWKeEGyIK1MsPE2v8
U3h21BZbRKsjZOpCM4dstsMbIaJpcU/4u3fsgbMkINQfSyhOcLSSsLqUBb9x19XH
I351j6vuh8jCabsWV5buWtVN0IJNsRQzjg0dW/jlC4H1yeC6WQh3L9aOvWhetn/Y
57AOztemIlxaNqHah3CiZ7P0zKheV6Etyz/WpY1sDivo2IrfAzwQuXfevRm1+JSS
39HiufN+AFzKzpCr30W8vE30R00RoaomMlCssAQIyFAxgIGPh3DIQC6nVXNPf6uu
KX79pQblfMbmZdpybwK9QKsIsDTzHbHh8xFrCsG+287rIxhPybA4LuWfCBVFgs73
JhAPcC3vpdjdmRl13FzBMSx2bPK9ukjAh/p68XhfL5ZTKVZEJM0CAwEAAaNQME4w
HQYDVR0OBBYEFP0etWtfCVmSnoHGsKaRMkwAn0RHMB8GA1UdIwQYMBaAFP0etWtf
CVmSnoHGsKaRMkwAn0RHMAwGA1UdEwQFMAMBAf8wDQYJKoZIhvcNAQELBQADggIB
ABOGSJKcDLadpAfD3v1H/r8Atwu2hsx5Hi6mvdCqGVLtHbIL4tg7ZOPRhredOdmb
34YY9FxlZNs3E7/XPg5C1nnjqbWizO1pqicMBEZClUePRZpuSlxUqe8v3DP6fw7b
SZlIG/MXZ4Bm08kzSBeWQe7kVhaHzi5veAJLHrRqG8yHieOfpx2cBT07x8mWNAig
vcImzfKqhTF53VtLY6ngg+8TM0rFwDYoN/zUiRbP1xsHqCYE/Re4hQ11YdZxdW5u
8zw0hhq0oKPoztZSTxEwUft7u+RErZdq5WLAPoh+ohFQ7i9Z5fGPUuTRhO1YhIq9
eJI99AYWnzf1i/I0sG+wxtMU56Uwxyb/bzOSKS2i0Orh1gZ6x0DzQkTtH4rse3Qn
7vIvftvMARBmqJL+NC2qU0AUphlDog2SeHobOAG/mhvzzerNRP6bubVTRRaMBd6p
8U8gFM/gNC5MJIln46k+yL3ibNibEe036PZvDtajC7f5wizIB+cOQUOJ85G1spjd
YEfwSt6pL8DSBH03C3B5shF6HFh5rZeRoLct88z4qsyVCbC2ORgd7Q1eVuJJlUJl
Wse/9I9meBhTG9knhFC/bi5BZPo1HbBzKr9ucSH3BJorVYcn2k6Gq4vlDpIwWEFM
2meZws4D5bvPeIW2XHKQ2komtFvNjIQNaTCPyYKjuJ4Y
-----END CERTIFICATE-----
