Certificate:
    Data:
        Version: 3 (0x2)
        Serial Number:
            d7:55:8f:da:f5:f1:10:5b:b2:13:28:2b:70:77:29:a3
    Signature Algorithm: sha1WithRSAEncryption
        Issuer: C=US, ST=UT, L=Salt Lake City, O=The USERTRUST Network, OU=http://www.usertrust.com, CN=UTN-USERFirst-Hardware
        Validity
            Not Before: Mar 15 00:00:00 2011 GMT
            Not After : Mar 14 23:59:59 2014 GMT
        Subject: C=US/postalCode=38477, ST=Florida, L=English/street=Sea Village 10, O=Google Ltd., OU=Tech Dept., OU=Hosted by GTI Group Corporation, OU=PlatinumSSL, CN=login.yahoo.com
        Subject Public Key Info:
            Public Key Algorithm: rsaEncryption
                Public-Key: (2048 bit)
                Modulus:
                    00:a1:a4:05:3d:ed:85:45:93:8a:18:4d:c6:03:00:
                    57:e2:40:77:f0:1c:eb:d0:19:df:22:5d:08:7f:d1:
                    07:3c:41:89:46:17:a3:09:fa:fc:f8:a9:04:d1:96:
                    8f:ab:d7:4f:3c:f9:ad:18:a9:74:81:c4:57:0a:3a:
                    26:16:ce:62:3e:bc:3f:6c:21:ee:93:8d:cb:0d:a0:
                    1f:9a:96:d0:8f:ad:f5:93:93:82:ee:72:0c:a1:75:
                    15:a3:7b:84:56:b8:ad:ff:52:11:71:84:bc:3a:30:
                    0b:7e:98:a8:e1:a8:3f:37:52:d0:f1:7c:6f:90:d8:
                    45:0a:ac:39:72:6a:61:d5:bb:c3:8c:f9:c2:cc:df:
                    fd:3a:71:b9:af:bc:dc:3a:dc:0c:b6:b1:d2:d1:89:
                    bb:41:b6:f2:de:57:d5:15:df:fc:fd:e2:31:c5:df:
                    ca:c1:d8:8f:2c:bf:f0:0e:5b:71:e0:34:71:c3:c5:
                    4d:7d:7a:d4:fa:ed:30:4b:2f:ea:b6:2e:9e:93:3c:
                    e2:3a:f8:42:a2:1a:ee:dc:df:cd:0f:a9:f6:79:84:
                    1a:8e:6c:02:b6:86:e5:bf:51:6a:66:f8:f3:9c:d3:
                    59:0c:7b:a5:99:78:cd:7c:99:fa:c6:96:47:d8:32:
                    d4:74:76:0e:77:4b:20:74:a4:b7:89:75:92:4a:b4:
                    5b:55
                Exponent: 65537 (0x10001)
        X509v3 extensions:
            X509v3 Authority Key Identifier: 
                keyid:A1:72:5F:26:1B:28:98:43:95:5D:07:37:D5:85:96:9D:4B:D2:C3:45

            X509v3 Subject Key Identifier: 
                86:49:45:FC:33:19:33:D4:04:ED:27:61:EE:E8:01:C9:0C:7F:2F:7E
            X509v3 Key Usage: critical
                Digital Signature, Key Encipherment
            X509v3 Basic Constraints: critical
                CA:FALSE
            X509v3 Extended Key Usage: 
                TLS Web Server Authentication, TLS Web Client Authentication
            X509v3 Certificate Policies: 
                Policy: 1.3.6.1.4.1.6449.1.2.1.3.4
                  CPS: https://secure.comodo.com/CPS

            X509v3 CRL Distribution Points: 

                Full Name:
                  URI:http://crl.comodoca.com/UTN-USERFirst-Hardware.crl

                Full Name:
                  URI:http://crl.comodo.net/UTN-USERFirst-Hardware.crl

            Authority Information Access: 
                CA Issuers - URI:http://crt.comodoca.com/UTNAddTrustServerCA.crt
                OCSP - URI:http://ocsp.comodoca.com

            X509v3 Subject Alternative Name: 
                DNS:login.yahoo.com, DNS:www.login.yahoo.com
    Signature Algorithm: sha1WithRSAEncryption
         3d:57:c9:48:24:5c:ee:64:81:f5:ae:be:55:29:16:ff:2a:2f:
         84:ed:d9:f8:a3:03:c8:30:66:bb:c8:d4:81:2d:21:f7:08:f7:
         ac:96:42:9a:41:75:7a:ba:5d:10:23:cb:92:42:61:fa:8a:da:
         6d:65:34:19:e5:a9:d6:2d:13:78:d7:81:44:92:a9:6e:80:63:
         15:cb:fe:35:1f:02:d1:8a:14:b0:a8:cc:94:20:3b:a8:1a:f0:
         5d:36:50:db:0d:ae:e9:64:e4:f6:8d:69:7d:30:c8:14:17:00:
         4a:e5:a6:35:fb:7d:0d:22:9d:79:76:52:2c:bc:97:06:88:9a:
         15:f4:73:e6:f1:f5:98:a5:cd:07:44:91:b8:a7:68:67:45:d2:
         72:11:60:e2:71:b7:50:55:e2:8a:a9:0d:d6:92:ee:04:2a:8b:
         30:a0:a2:05:46:34:6d:92:c6:3b:aa:4d:a0:d0:ab:01:19:0a:
         32:b7:e8:e3:cf:f1:d2:97:49:7b:ac:a4:97:f7:f0:57:ae:63:
         77:9a:7f:96:da:4d:fd:be:dc:07:36:e3:25:bd:89:79:8e:29:
         12:13:8b:88:07:fb:6b:db:a4:cd:b3:2d:27:e9:d4:ca:60:d7:
         85:53:fb:74:c6:5c:35:8c:70:1f:f9:b2:b7:92:27:20:c7:94:
         d5:67:14:30
-----BEGIN CERTIFICATE-----
MIIF7zCCBNegAwIBAgIRANdVj9r18RBbshMoK3B3KaMwDQYJKoZIhvcNAQEFBQAw
gZcxCzAJBgNVBAYTAlVTMQswCQYDVQQIEwJVVDEXMBUGA1UEBxMOU2FsdCBMYWtl
IENpdHkxHjAcBgNVBAoTFVRoZSBVU0VSVFJVU1QgTmV0d29yazEhMB8GA1UECxMY
aHR0cDovL3d3dy51c2VydHJ1c3QuY29tMR8wHQYDVQQDExZVVE4tVVNFUkZpcnN0
LUhhcmR3YXJlMB4XDTExMDMxNTAwMDAwMFoXDTE0MDMxNDIzNTk1OVowgd8xCzAJ
BgNVBAYTAlVTMQ4wDAYDVQQREwUzODQ3NzEQMA4GA1UECBMHRmxvcmlkYTEQMA4G
A1UEBxMHRW5nbGlzaDEXMBUGA1UECRMOU2VhIFZpbGxhZ2UgMTAxFDASBgNVBAoT
C0dvb2dsZSBMdGQuMRMwEQYDVQQLEwpUZWNoIERlcHQuMSgwJgYDVQQLEx9Ib3N0
ZWQgYnkgR1RJIEdyb3VwIENvcnBvcmF0aW9uMRQwEgYDVQQLEwtQbGF0aW51bVNT
TDEYMBYGA1UEAxMPbG9naW4ueWFob28uY29tMIIBIjANBgkqhkiG9w0BAQEFAAOC
AQ8AMIIBCgKCAQEAoaQFPe2FRZOKGE3GAwBX4kB38Bzr0BnfIl0If9EHPEGJRhej
Cfr8+KkE0ZaPq9dPPPmtGKl0gcRXCjomFs5iPrw/bCHuk43LDaAfmpbQj631k5OC
7nIMoXUVo3uEVrit/1IRcYS8OjALfpio4ag/N1LQ8XxvkNhFCqw5cmph1bvDjPnC
zN/9OnG5r7zcOtwMtrHS0Ym7Qbby3lfVFd/8/eIxxd/KwdiPLL/wDltx4DRxw8VN
fXrU+u0wSy/qti6ekzziOvhCohru3N/ND6n2eYQajmwCtoblv1FqZvjznNNZDHul
mXjNfJn6xpZH2DLUdHYOd0sgdKS3iXWSSrRbVQIDAQABo4IB6jCCAeYwHwYDVR0j
BBgwFoAUoXJfJhsomEOVXQc31YWWnUvSw0UwHQYDVR0OBBYEFIZJRfwzGTPUBO0n
Ye7oAckMfy9+MA4GA1UdDwEB/wQEAwIFoDAMBgNVHRMBAf8EAjAAMB0GA1UdJQQW
MBQGCCsGAQUFBwMBBggrBgEFBQcDAjBGBgNVHSAEPzA9MDsGDCsGAQQBsjEBAgED
BDArMCkGCCsGAQUFBwIBFh1odHRwczovL3NlY3VyZS5jb21vZG8uY29tL0NQUzB7
BgNVHR8EdDByMDigNqA0hjJodHRwOi8vY3JsLmNvbW9kb2NhLmNvbS9VVE4tVVNF
UkZpcnN0LUhhcmR3YXJlLmNybDA2oDSgMoYwaHR0cDovL2NybC5jb21vZG8ubmV0
L1VUTi1VU0VSRmlyc3QtSGFyZHdhcmUuY3JsMHEGCCsGAQUFBwEBBGUwYzA7Bggr
BgEFBQcwAoYvaHR0cDovL2NydC5jb21vZG9jYS5jb20vVVROQWRkVHJ1c3RTZXJ2
ZXJDQS5jcnQwJAYIKwYBBQUHMAGGGGh0dHA6Ly9vY3NwLmNvbW9kb2NhLmNvbTAv
BgNVHREEKDAmgg9sb2dpbi55YWhvby5jb22CE3d3dy5sb2dpbi55YWhvby5jb20w
DQYJKoZIhvcNAQEFBQADggEBAD1XyUgkXO5kgfWuvlUpFv8qL4Tt2fijA8gwZrvI
1IEtIfcI96yWQppBdXq6XRAjy5JCYfqK2m1lNBnlqdYtE3jXgUSSqW6AYxXL/jUf
AtGKFLCozJQgO6ga8F02UNsNrulk5PaNaX0wyBQXAErlpjX7fQ0inXl2Uiy8lwaI
mhX0c+bx9ZilzQdEkbinaGdF0nIRYOJxt1BV4oqpDdaS7gQqizCgogVGNG2Sxjuq
TaDQqwEZCjK36OPP8dKXSXuspJf38FeuY3eaf5baTf2+3Ac24yW9iXmOKRITi4gH
+2vbpM2zLSfp1Mpg14VT+3TGXDWMcB/5sreSJyDHlNVnFDA=
-----END CERTIFICATE-----
