Certificate:
    Data:
        Version: 3 (0x2)
        Serial Number:
            f5:c8:6a:f3:61:62:f1:3a:64:f5:4f:6d:c9:58:7c:06
    Signature Algorithm: sha1WithRSAEncryption
        Issuer: C=US, ST=UT, L=Salt Lake City, O=The USERTRUST Network, OU=http://www.usertrust.com, CN=UTN-USERFirst-Hardware
        Validity
            Not Before: Mar 15 00:00:00 2011 GMT
            Not After : Mar 14 23:59:59 2014 GMT
        Subject: C=US/postalCode=38477, ST=Florida, L=English/street=Sea Village 10, O=Google Ltd., OU=Tech Dept., OU=Hosted by GTI Group Corporation, OU=PlatinumSSL, CN=www.google.com
        Subject Public Key Info:
            Public Key Algorithm: rsaEncryption
                Public-Key: (2048 bit)
                Modulus:
                    00:b0:73:f0:f2:04:ee:c2:a2:46:ca:34:2a:aa:bb:
                    60:23:d1:11:76:1f:1f:3a:d0:65:83:4e:9a:45:a8:
                    43:70:85:76:f0:1f:87:00:02:1f:6e:3b:17:17:c4:
                    b5:e9:19:46:a2:92:25:8d:62:2a:b4:63:30:1f:b9:
                    85:f8:35:e1:16:5a:76:49:cc:50:48:53:39:59:89:
                    d6:84:02:fb:9a:ec:1b:c7:51:d5:76:95:90:d4:3a:
                    2a:b8:a6:de:02:4d:06:fb:cd:ed:a5:46:41:5f:55:
                    74:e5:ec:7e:40:dc:50:9c:b5:e4:35:5d:1e:68:20:
                    f8:e9:de:a3:6a:28:bf:41:d2:a1:b3:e2:25:8d:0c:
                    1b:ca:3d:93:0c:18:ae:df:c5:bc:fd:bc:82:ba:68:
                    00:d7:16:32:71:9f:65:b5:11:da:68:59:d0:a6:57:
                    64:1b:c9:fe:98:e5:f5:a5:65:ea:e1:db:ee:f4:b3:
                    9d:b3:8e:ea:87:ae:16:d2:1e:a0:7c:7c:69:3f:29:
                    16:85:01:53:a7:6c:f1:60:ab:dd:a2:fc:25:47:d4:
                    32:d1:12:dd:f7:48:12:e0:fc:9c:a2:77:98:e9:89:
                    99:b8:f8:38:f1:8c:06:c2:7a:23:36:6d:9b:9d:cd:
                    30:c8:c7:34:17:1e:bb:7d:42:c8:ab:e7:15:16:f6:
                    73:b5
                Exponent: 65537 (0x10001)
        X509v3 extensions:
            X509v3 Authority Key Identifier: 
                keyid:A1:72:5F:26:1B:28:98:43:95:5D:07:37:D5:85:96:9D:4B:D2:C3:45

            X509v3 Subject Key Identifier: 
                18:2A:A2:C8:D4:7A:3F:7B:AD:04:8B:BD:6F:9E:10:46:13:78:71:9D
            X509v3 Key Usage: critical
                Digital Signature, Key Encipherment
            X509v3 Basic Constraints: critical
                CA:FALSE
            X509v3 Extended Key Usage: 
                TLS Web Server Authentication, TLS Web Client Authentication
            X509v3 Certificate Policies: 
                Policy: 1.3.6.1.4.1.6449.1.2.1.3.4
                  CPS: https://secure.comodo.com/CPS

            X509v3 CRL Distribution Points: 

                Full Name:
                  URI:http://crl.comodoca.com/UTN-USERFirst-Hardware.crl

                Full Name:
                  URI:http://crl.comodo.net/UTN-USERFirst-Hardware.crl

            Authority Information Access: 
                CA Issuers - URI:http://crt.comodoca.com/UTNAddTrustServerCA.crt
                OCSP - URI:http://ocsp.comodoca.com

            X509v3 Subject Alternative Name: 
                DNS:www.google.com, DNS:google.com
    Signature Algorithm: sha1WithRSAEncryption
         71:c0:99:3f:5e:f6:bd:33:ff:9e:16:cb:a8:bf:dd:70:f9:d2:
         53:3b:36:ae:c9:17:c8:ae:5e:4d:dd:62:f7:b7:d3:3e:77:a3:
         fe:c0:7b:32:b5:c9:94:05:52:50:f2:5f:3d:79:84:49:4f:5d:
         6c:b0:d7:59:bd:d4:6c:88:fa:fc:c5:65:86:eb:28:52:a2:42:
         f6:7c:bc:6a:c7:07:2e:25:d1:90:62:20:c6:8d:51:c2:2c:45:
         39:4e:03:da:f7:18:e8:cc:0a:3a:d9:45:d8:6c:6e:34:8b:62:
         9c:4e:15:f9:43:ee:e5:97:c0:3f:ad:35:13:c5:2b:06:c7:41:
         fd:e2:f7:7e:45:ad:9b:d1:e1:66:ed:f8:7a:4b:94:39:7a:2f:
         eb:e8:3f:43:d8:35:d6:56:fa:74:e7:6d:e6:ed:ac:65:84:fe:
         d0:4d:06:12:de:da:59:00:3c:09:5c:cf:88:4b:e8:3d:b4:15:
         21:92:cc:6d:a6:51:e2:8e:97:f1:f4:82:46:cb:c4:53:5e:da:
         5c:9d:65:92:01:65:89:00:e5:b6:99:ff:26:40:f1:2f:19:31:
         08:1a:b1:67:55:86:0d:ae:35:33:86:bc:97:48:92:d7:96:60:
         f8:ce:fc:96:eb:87:c4:73:cc:94:9b:58:5b:f3:7a:a4:27:13:
         d6:4f:f4:69
-----BEGIN CERTIFICATE-----
MIIF5DCCBMygAwIBAgIRAPXIavNhYvE6ZPVPbclYfAYwDQYJKoZIhvcNAQEFBQAw
gZcxCzAJBgNVBAYTAlVTMQswCQYDVQQIEwJVVDEXMBUGA1UEBxMOU2FsdCBMYWtl
IENpdHkxHjAcBgNVBAoTFVRoZSBVU0VSVFJVU1QgTmV0d29yazEhMB8GA1UECxMY
aHR0cDovL3d3dy51c2VydHJ1c3QuY29tMR8wHQYDVQQDExZVVE4tVVNFUkZpcnN0
LUhhcmR3YXJlMB4XDTExMDMxNTAwMDAwMFoXDTE0MDMxNDIzNTk1OVowgd4xCzAJ
BgNVBAYTAlVTMQ4wDAYDVQQREwUzODQ3NzEQMA4GA1UECBMHRmxvcmlkYTEQMA4G
A1UEBxMHRW5nbGlzaDEXMBUGA1UECRMOU2VhIFZpbGxhZ2UgMTAxFDASBgNVBAoT
C0dvb2dsZSBMdGQuMRMwEQYDVQQLEwpUZWNoIERlcHQuMSgwJgYDVQQLEx9Ib3N0
ZWQgYnkgR1RJIEdyb3VwIENvcnBvcmF0aW9uMRQwEgYDVQQLEwtQbGF0aW51bVNT
TDEXMBUGA1UEAxMOd3d3Lmdvb2dsZS5jb20wggEiMA0GCSqGSIb3DQEBAQUAA4IB
DwAwggEKAoIBAQCwc/DyBO7CokbKNCqqu2Aj0RF2Hx860GWDTppFqENwhXbwH4cA
Ah9uOxcXxLXpGUaikiWNYiq0YzAfuYX4NeEWWnZJzFBIUzlZidaEAvua7BvHUdV2
lZDUOiq4pt4CTQb7ze2lRkFfVXTl7H5A3FCcteQ1XR5oIPjp3qNqKL9B0qGz4iWN
DBvKPZMMGK7fxbz9vIK6aADXFjJxn2W1EdpoWdCmV2Qbyf6Y5fWlZerh2+70s52z
juqHrhbSHqB8fGk/KRaFAVOnbPFgq92i/CVH1DLREt33SBLg/Jyid5jpiZm4+Djx
jAbCeiM2bZudzTDIxzQXHrt9Qsir5xUW9nO1AgMBAAGjggHgMIIB3DAfBgNVHSME
GDAWgBShcl8mGyiYQ5VdBzfVhZadS9LDRTAdBgNVHQ4EFgQUGCqiyNR6P3utBIu9
b54QRhN4cZ0wDgYDVR0PAQH/BAQDAgWgMAwGA1UdEwEB/wQCMAAwHQYDVR0lBBYw
FAYIKwYBBQUHAwEGCCsGAQUFBwMCMEYGA1UdIAQ/MD0wOwYMKwYBBAGyMQECAQME
MCswKQYIKwYBBQUHAgEWHWh0dHBzOi8vc2VjdXJlLmNvbW9kby5jb20vQ1BTMHsG
A1UdHwR0MHIwOKA2oDSGMmh0dHA6Ly9jcmwuY29tb2RvY2EuY29tL1VUTi1VU0VS
Rmlyc3QtSGFyZHdhcmUuY3JsMDagNKAyhjBodHRwOi8vY3JsLmNvbW9kby5uZXQv
VVROLVVTRVJGaXJzdC1IYXJkd2FyZS5jcmwwcQYIKwYBBQUHAQEEZTBjMDsGCCsG
AQUFBzAChi9odHRwOi8vY3J0LmNvbW9kb2NhLmNvbS9VVE5BZGRUcnVzdFNlcnZl
ckNBLmNydDAkBggrBgEFBQcwAYYYaHR0cDovL29jc3AuY29tb2RvY2EuY29tMCUG
A1UdEQQeMByCDnd3dy5nb29nbGUuY29tggpnb29nbGUuY29tMA0GCSqGSIb3DQEB
BQUAA4IBAQBxwJk/Xva9M/+eFsuov91w+dJTOzauyRfIrl5N3WL3t9M+d6P+wHsy
tcmUBVJQ8l89eYRJT11ssNdZvdRsiPr8xWWG6yhSokL2fLxqxwcuJdGQYiDGjVHC
LEU5TgPa9xjozAo62UXYbG40i2KcThX5Q+7ll8A/rTUTxSsGx0H94vd+Ra2b0eFm
7fh6S5Q5ei/r6D9D2DXWVvp0523m7axlhP7QTQYS3tpZADwJXM+IS+g9tBUhksxt
plHijpfx9IJGy8RTXtpcnWWSAWWJAOW2mf8mQPEvGTEIGrFnVYYNrjUzhryXSJLX
lmD4zvyW64fEc8yUm1hb83qkJxPWT/Rp
-----END CERTIFICATE-----
