Certificate:
    Data:
        Version: 3 (0x2)
        Serial Number:
            05:48:66:a2:4e:3c:aa:d8:0f:39:73:85:23:a1:56:5c:ea:e3
        Signature Algorithm: sha256WithRSAEncryption
        Issuer: C=US, O=Let's Encrypt, CN=R12
        Validity
            Not Before: May 17 20:32:16 2026 GMT
            Not After : Aug 15 20:32:15 2026 GMT
        Subject: CN=*.google.co.ug
        Subject Public Key Info:
            Public Key Algorithm: rsaEncryption
                Public-Key: (2048 bit)
                Modulus:
                    00:ba:c0:c8:1c:5f:b9:0e:17:fd:37:37:2c:47:6e:
                    b9:fc:ed:81:3d:7d:56:90:b2:fe:32:4c:6e:f3:ec:
                    a6:87:fd:43:0e:33:13:0a:82:4f:73:f0:64:ec:57:
                    c1:ec:90:09:da:62:9c:b2:29:0f:68:cb:a5:62:da:
                    e6:27:3a:a0:09:8c:57:ba:ef:85:d9:52:5a:07:df:
                    90:31:fa:a0:2e:04:f6:80:a8:fb:06:2e:73:09:52:
                    92:82:7f:ab:f4:c0:e9:62:80:51:a5:b0:14:ed:62:
                    07:db:08:bc:f4:26:af:9d:c6:00:79:90:ed:5b:03:
                    00:91:5e:8d:57:f4:7c:d5:a5:18:43:87:0b:e0:4f:
                    59:68:85:cb:a0:f1:e8:f0:09:f3:0b:9c:e8:54:9a:
                    05:37:21:62:af:70:98:59:8c:13:90:2f:06:bb:63:
                    ec:74:a5:0f:8d:af:75:74:a3:bd:cf:e1:ee:6d:b2:
                    3d:60:61:74:b1:71:15:dd:0f:95:1e:a9:35:ad:84:
                    25:c1:66:a9:a8:1d:d9:20:77:26:a6:dc:eb:1a:b5:
                    6c:db:ed:a3:f9:ae:80:9b:f0:84:4a:79:aa:a2:12:
                    df:5b:aa:ce:8f:b5:cb:9c:89:ec:53:03:05:3f:45:
                    58:a0:24:c5:8f:0c:94:ff:10:ff:93:2c:be:0b:5f:
                    e0:2b
                Exponent: 65537 (0x10001)
        X509v3 extensions:
            X509v3 Key Usage: critical
                Digital Signature, Key Encipherment
            X509v3 Extended Key Usage: 
                TLS Web Server Authentication
            X509v3 Basic Constraints: critical
                CA:FALSE
            X509v3 Subject Key Identifier: 
                54:BA:C5:80:0F:11:2C:93:AA:BE:3B:F9:C0:4F:6C:9C:99:3C:61:8F
            X509v3 Authority Key Identifier: 
                00:B5:29:F2:2D:8E:6F:31:E8:9B:4C:AD:78:3E:FA:DC:E9:0C:D1:D2
            Authority Information Access: 
                CA Issuers - URI:http://r12.i.lencr.org/
            X509v3 Subject Alternative Name: 
                DNS:*.google.co.ug, DNS:google.co.ug
            X509v3 Certificate Policies: 
                Policy: 2.23.140.1.2.1
            X509v3 CRL Distribution Points: 
                Full Name:
                  URI:http://r12.c.lencr.org/100.crl

            CT Precertificate SCTs: 
                Signed Certificate Timestamp:
                    Version   : v1 (0x0)
                    Log ID    : CB:38:F7:15:89:7C:84:A1:44:5F:5B:C1:DD:FB:C9:6E:
                                F2:9A:59:CD:47:0A:69:05:85:B0:CB:14:C3:14:58:E7
                    Timestamp : May 17 21:30:46.494 2026 GMT
                    Extensions: none
                    Signature : ecdsa-with-SHA256
                                30:45:02:21:00:D3:D9:AF:AC:CB:2A:9C:04:C7:B5:A8:
                                26:F8:37:B0:3B:5F:8F:E8:4B:E5:80:1F:2E:99:BA:77:
                                A4:D4:04:2F:6A:02:20:36:A9:B4:15:7C:C7:3A:69:FF:
                                2D:2C:24:26:E1:DA:43:F7:92:94:9C:04:88:E4:43:8A:
                                DF:09:A6:E9:74:5F:7B
                Signed Certificate Timestamp:
                    Version   : v1 (0x0)
                    Log ID    : 46:AF:86:3D:3B:3E:E5:9F:A5:77:DE:A8:24:5D:36:B0:
                                D9:ED:22:A2:23:F4:61:77:41:22:94:52:EE:95:50:5F
                    Timestamp : May 17 21:30:46.529 2026 GMT
                    Extensions: 00:00:05:00:06:E2:EA:99
                    Signature : ecdsa-with-SHA256
                                30:44:02:20:43:CB:71:7E:64:70:39:B0:4A:26:31:A9:
                                8E:D6:2F:A7:41:D3:26:88:D2:86:2A:83:BD:46:C7:2A:
                                B6:AC:A0:2E:02:20:28:7C:44:FD:E6:35:05:40:26:84:
                                A7:8C:9B:7B:58:9B:57:25:C4:FF:56:10:BE:B7:4D:01:
                                48:48:AE:F3:C2:63
    Signature Algorithm: sha256WithRSAEncryption
    Signature Value:
        84:44:b4:39:4e:c4:95:94:4b:20:6b:01:5a:73:67:1c:0d:f1:
        2b:54:76:98:be:d7:0b:9d:94:ea:ce:63:55:24:48:6a:fb:30:
        fa:e4:25:4b:a5:a4:03:02:78:33:39:46:e6:95:d7:43:e5:2b:
        0f:f7:3e:dc:f0:bb:dc:5c:af:90:ca:94:4d:5e:90:2a:01:18:
        36:f2:70:bd:9e:78:3a:28:4d:c3:36:dc:97:1b:b2:74:7e:01:
        ef:55:33:f9:c7:73:8f:dc:63:4c:e1:ad:1a:81:2a:de:33:bb:
        f8:1f:bb:c9:8e:09:4e:be:f2:7f:91:dd:32:3a:97:fd:8c:ee:
        ca:8e:6c:a6:6d:ab:30:a4:78:5b:85:30:f1:ea:50:f7:15:f8:
        2e:f9:44:d7:1b:47:b2:41:ed:2b:85:bc:b8:94:4c:fd:03:05:
        35:35:5a:89:c3:d1:d1:70:8c:cc:f0:2d:25:3f:ab:ef:35:e1:
        9f:7c:12:73:b3:6b:83:5c:77:23:b7:dd:26:aa:d8:bd:5e:33:
        8f:e0:eb:c8:d6:ea:56:88:47:ea:b0:06:70:4f:60:78:7f:fb:
        9c:6d:7c:f6:da:c2:9d:dc:7f:cd:a7:16:44:90:62:23:fc:ad:
        5f:02:48:21:ab:64:9d:ea:f6:b5:44:a8:f4:1d:5c:d2:bb:48:
        e1:cc:72:a0
-----BEGIN CERTIFICATE-----
MIIFBDCCA+ygAwIBAgISBUhmok48qtgPOXOFI6FWXOrjMA0GCSqGSIb3DQEBCwUA
MDMxCzAJBgNVBAYTAlVTMRYwFAYDVQQKEw1MZXQncyBFbmNyeXB0MQwwCgYDVQQD
EwNSMTIwHhcNMjYwNTE3MjAzMjE2WhcNMjYwODE1MjAzMjE1WjAZMRcwFQYDVQQD
DA4qLmdvb2dsZS5jby51ZzCCASIwDQYJKoZIhvcNAQEBBQADggEPADCCAQoCggEB
ALrAyBxfuQ4X/Tc3LEduufztgT19VpCy/jJMbvPspof9Qw4zEwqCT3PwZOxXweyQ
CdpinLIpD2jLpWLa5ic6oAmMV7rvhdlSWgffkDH6oC4E9oCo+wYucwlSkoJ/q/TA
6WKAUaWwFO1iB9sIvPQmr53GAHmQ7VsDAJFejVf0fNWlGEOHC+BPWWiFy6Dx6PAJ
8wuc6FSaBTchYq9wmFmME5AvBrtj7HSlD42vdXSjvc/h7m2yPWBhdLFxFd0PlR6p
Na2EJcFmqagd2SB3Jqbc6xq1bNvto/mugJvwhEp5qqIS31uqzo+1y5yJ7FMDBT9F
WKAkxY8MlP8Q/5Msvgtf4CsCAwEAAaOCAiowggImMA4GA1UdDwEB/wQEAwIFoDAT
BgNVHSUEDDAKBggrBgEFBQcDATAMBgNVHRMBAf8EAjAAMB0GA1UdDgQWBBRUusWA
DxEsk6q+O/nAT2ycmTxhjzAfBgNVHSMEGDAWgBQAtSnyLY5vMeibTK14Pvrc6QzR
0jAzBggrBgEFBQcBAQQnMCUwIwYIKwYBBQUHMAKGF2h0dHA6Ly9yMTIuaS5sZW5j
ci5vcmcvMCcGA1UdEQQgMB6CDiouZ29vZ2xlLmNvLnVnggxnb29nbGUuY28udWcw
EwYDVR0gBAwwCjAIBgZngQwBAgEwLwYDVR0fBCgwJjAkoCKgIIYeaHR0cDovL3Ix
Mi5jLmxlbmNyLm9yZy8xMDAuY3JsMIIBCwYKKwYBBAHWeQIEAgSB/ASB+QD3AHYA
yzj3FYl8hKFEX1vB3fvJbvKaWc1HCmkFhbDLFMMUWOcAAAGeN9lFXgAABAMARzBF
AiEA09mvrMsqnATHtagm+DewO1+P6EvlgB8umbp3pNQEL2oCIDaptBV8xzpp/y0s
JCbh2kP3kpScBIjkQ4rfCabpdF97AH0ARq+GPTs+5Z+ld96oJF02sNntIqIj9GF3
QSKUUu6VUF8AAAGeN9lFgQAIAAAFAAbi6pkEAwBGMEQCIEPLcX5kcDmwSiYxqY7W
L6dB0yaI0oYqg71Gxyq2rKAuAiAofET95jUFQCaEp4ybe1ibVyXE/1YQvrdNAUhI
rvPCYzANBgkqhkiG9w0BAQsFAAOCAQEAhES0OU7ElZRLIGsBWnNnHA3xK1R2mL7X
C52U6s5jVSRIavsw+uQlS6WkAwJ4MzlG5pXXQ+UrD/c+3PC73FyvkMqUTV6QKgEY
NvJwvZ54OihNwzbclxuydH4B71Uz+cdzj9xjTOGtGoEq3jO7+B+7yY4JTr7yf5Hd
MjqX/Yzuyo5spm2rMKR4W4Uw8epQ9xX4LvlE1xtHskHtK4W8uJRM/QMFNTVaicPR
0XCMzPAtJT+r7zXhn3wSc7Nrg1x3I7fdJqrYvV4zj+DryNbqVohH6rAGcE9geH/7
nG189trCndx/zacWRJBiI/ytXwJIIatkner2tUSo9B1c0rtI4cxyoA==
-----END CERTIFICATE-----
