Certificate:
    Data:
        Version: 3 (0x2)
        Serial Number:
            05:3c:fa:74:73:55:83:b9:57:cb:4e:07:ac:2a:33:ba:0c:34
        Signature Algorithm: sha256WithRSAEncryption
        Issuer: C=US, O=Let's Encrypt, CN=R12
        Validity
            Not Before: May 17 20:32:19 2026 GMT
            Not After : Aug 15 20:32:18 2026 GMT
        Subject: CN=*.youtube.co.ug
        Subject Public Key Info:
            Public Key Algorithm: rsaEncryption
                Public-Key: (2048 bit)
                Modulus:
                    00:b5:dc:6d:2e:f0:a5:82:be:5c:b0:6b:73:e9:42:
                    8e:38:70:70:4f:75:fd:4e:8b:51:b4:d5:8e:8c:ff:
                    57:fb:dc:97:1b:9e:ca:42:2f:d8:7e:e8:1c:5b:e0:
                    70:54:ae:2d:32:a4:aa:b2:77:eb:6d:b0:dc:75:7b:
                    5c:a6:c9:3f:36:fc:7f:fd:16:37:a0:f6:f2:a1:ae:
                    01:82:c5:98:2e:86:2f:8e:1f:98:ae:8e:a1:24:b2:
                    b1:7e:b8:61:56:f1:02:61:87:6e:6b:b0:e4:c7:5c:
                    76:3e:69:89:d0:8e:94:1e:d3:b8:58:b9:88:16:6c:
                    86:a2:56:17:40:68:ed:e7:14:2b:bb:36:87:73:63:
                    29:5c:08:34:1a:9d:8e:22:46:19:c5:b5:c2:7e:0a:
                    d1:64:dd:2e:4b:a9:c0:7e:30:01:91:52:e7:92:5a:
                    ec:37:69:57:33:f0:6e:26:de:2f:3d:e7:a9:3a:1c:
                    d5:a2:64:01:73:64:71:27:e9:26:4c:9b:7e:4e:a2:
                    1a:4a:d4:cd:61:ab:a7:3f:67:36:b0:2b:61:17:c3:
                    c1:c6:17:31:bf:f4:91:5f:98:67:94:3a:5b:d9:e2:
                    7c:85:df:10:25:d8:b8:e8:d7:fb:15:75:b3:b7:f4:
                    52:25:91:ad:34:c4:06:f4:de:df:2d:aa:b9:ce:bc:
                    e8:a1
                Exponent: 65537 (0x10001)
        X509v3 extensions:
            X509v3 Key Usage: critical
                Digital Signature, Key Encipherment
            X509v3 Extended Key Usage: 
                TLS Web Server Authentication
            X509v3 Basic Constraints: critical
                CA:FALSE
            X509v3 Subject Key Identifier: 
                89:BE:16:DD:6A:86:60:AE:1E:43:B1:59:91:6B:F6:17:3C:96:0F:C6
            X509v3 Authority Key Identifier: 
                00:B5:29:F2:2D:8E:6F:31:E8:9B:4C:AD:78:3E:FA:DC:E9:0C:D1:D2
            Authority Information Access: 
                CA Issuers - URI:http://r12.i.lencr.org/
            X509v3 Subject Alternative Name: 
                DNS:*.youtube.co.ug, DNS:youtube.co.ug
            X509v3 Certificate Policies: 
                Policy: 2.23.140.1.2.1
            X509v3 CRL Distribution Points: 
                Full Name:
                  URI:http://r12.c.lencr.org/53.crl

            CT Precertificate SCTs: 
                Signed Certificate Timestamp:
                    Version   : v1 (0x0)
                    Log ID    : CB:38:F7:15:89:7C:84:A1:44:5F:5B:C1:DD:FB:C9:6E:
                                F2:9A:59:CD:47:0A:69:05:85:B0:CB:14:C3:14:58:E7
                    Timestamp : May 17 21:30:49.058 2026 GMT
                    Extensions: none
                    Signature : ecdsa-with-SHA256
                                30:45:02:20:2A:D9:C3:C0:05:D9:7D:12:0A:B1:53:02:
                                1B:48:5C:8E:05:76:6C:20:42:88:BA:7F:8A:CE:71:25:
                                B3:85:14:6A:02:21:00:EB:81:4C:78:9D:C3:1E:BE:2A:
                                77:DA:35:8F:4C:C0:6F:21:8F:4A:9D:19:6E:B7:96:26:
                                E7:BD:72:6D:75:B5:6A
                Signed Certificate Timestamp:
                    Version   : v1 (0x0)
                    Log ID    : A8:26:CB:E3:0A:C6:35:12:46:53:3F:E0:65:F1:4F:19:
                                D9:6E:19:08:13:C4:1D:D9:6D:79:00:B3:12:3C:55:27
                    Timestamp : May 17 21:30:49.981 2026 GMT
                    Extensions: 00:00:05:00:0B:56:9E:9B
                    Signature : ecdsa-with-SHA256
                                30:44:02:20:5E:15:72:2C:1D:F9:4B:BA:F9:01:3E:BA:
                                D4:66:93:EF:4E:2F:CD:C3:C9:6D:B8:BB:D2:C1:02:91:
                                26:84:74:5A:02:20:6F:BB:2E:1A:98:92:E7:3C:33:F1:
                                48:04:AE:05:BB:37:08:D4:9F:86:5A:FE:4A:5F:6C:42:
                                50:90:07:40:81:18
    Signature Algorithm: sha256WithRSAEncryption
    Signature Value:
        6c:ca:b2:bc:61:1f:46:1f:1e:fd:24:a0:0b:9f:10:0a:36:a5:
        22:1c:5d:da:07:48:65:5f:cb:10:4c:b8:c1:99:56:ab:2e:aa:
        54:80:f2:47:d0:90:c4:43:6c:f0:dd:92:65:f9:b9:b5:ba:55:
        0d:0e:30:45:e9:d0:95:fa:8a:7f:24:28:ea:65:e1:24:d9:77:
        65:c6:7d:f2:02:3f:40:53:fa:d5:dc:16:90:46:c1:e8:62:5a:
        51:66:6e:ab:4b:db:6e:30:40:85:69:53:fc:13:5d:22:fe:ae:
        f5:8f:ea:2d:8c:14:0e:0f:a7:59:f6:d8:cb:60:73:90:48:ac:
        21:a1:3f:2e:c2:23:b2:7f:fa:ec:48:84:13:1f:b0:90:3c:45:
        96:ce:c5:19:d5:f9:ef:5c:29:87:c6:cc:61:26:dc:d7:f3:9d:
        0e:3a:a6:69:4b:0c:46:ac:5e:35:aa:6d:7b:a3:0e:b4:c1:3f:
        00:11:81:ad:6f:26:57:67:e0:23:21:a8:a0:f2:c9:1b:94:d2:
        74:92:65:14:d7:bd:4a:03:19:4c:14:fc:b3:2f:34:da:ad:7b:
        ef:d5:21:00:7c:68:a2:7a:72:75:31:d2:eb:84:ec:77:72:65:
        d4:ba:ed:d4:ae:19:61:34:fd:92:3f:3d:e0:c2:bb:8b:7a:e8:
        b9:b2:94:69
-----BEGIN CERTIFICATE-----
MIIFBjCCA+6gAwIBAgISBTz6dHNVg7lXy04HrCozugw0MA0GCSqGSIb3DQEBCwUA
MDMxCzAJBgNVBAYTAlVTMRYwFAYDVQQKEw1MZXQncyBFbmNyeXB0MQwwCgYDVQQD
EwNSMTIwHhcNMjYwNTE3MjAzMjE5WhcNMjYwODE1MjAzMjE4WjAaMRgwFgYDVQQD
DA8qLnlvdXR1YmUuY28udWcwggEiMA0GCSqGSIb3DQEBAQUAA4IBDwAwggEKAoIB
AQC13G0u8KWCvlywa3PpQo44cHBPdf1Oi1G01Y6M/1f73JcbnspCL9h+6Bxb4HBU
ri0ypKqyd+ttsNx1e1ymyT82/H/9Fjeg9vKhrgGCxZguhi+OH5iujqEksrF+uGFW
8QJhh25rsOTHXHY+aYnQjpQe07hYuYgWbIaiVhdAaO3nFCu7NodzYylcCDQanY4i
RhnFtcJ+CtFk3S5LqcB+MAGRUueSWuw3aVcz8G4m3i8956k6HNWiZAFzZHEn6SZM
m35OohpK1M1hq6c/ZzawK2EXw8HGFzG/9JFfmGeUOlvZ4nyF3xAl2Ljo1/sVdbO3
9FIlka00xAb03t8tqrnOvOihAgMBAAGjggIrMIICJzAOBgNVHQ8BAf8EBAMCBaAw
EwYDVR0lBAwwCgYIKwYBBQUHAwEwDAYDVR0TAQH/BAIwADAdBgNVHQ4EFgQUib4W
3WqGYK4eQ7FZkWv2FzyWD8YwHwYDVR0jBBgwFoAUALUp8i2ObzHom0yteD763OkM
0dIwMwYIKwYBBQUHAQEEJzAlMCMGCCsGAQUFBzAChhdodHRwOi8vcjEyLmkubGVu
Y3Iub3JnLzApBgNVHREEIjAggg8qLnlvdXR1YmUuY28udWeCDXlvdXR1YmUuY28u
dWcwEwYDVR0gBAwwCjAIBgZngQwBAgEwLgYDVR0fBCcwJTAjoCGgH4YdaHR0cDov
L3IxMi5jLmxlbmNyLm9yZy81My5jcmwwggELBgorBgEEAdZ5AgQCBIH8BIH5APcA
dgDLOPcViXyEoURfW8Hd+8lu8ppZzUcKaQWFsMsUwxRY5wAAAZ432U9iAAAEAwBH
MEUCICrZw8AF2X0SCrFTAhtIXI4FdmwgQoi6f4rOcSWzhRRqAiEA64FMeJ3DHr4q
d9o1j0zAbyGPSp0ZbreWJue9cm11tWoAfQCoJsvjCsY1EkZTP+Bl8U8Z2W4ZCBPE
HdlteQCzEjxVJwAAAZ432VL9AAgAAAUAC1aemwQDAEYwRAIgXhVyLB35S7r5AT66
1GaT704vzcPJbbi70sECkSaEdFoCIG+7LhqYkuc8M/FIBK4FuzcI1J+GWv5KX2xC
UJAHQIEYMA0GCSqGSIb3DQEBCwUAA4IBAQBsyrK8YR9GHx79JKALnxAKNqUiHF3a
B0hlX8sQTLjBmVarLqpUgPJH0JDEQ2zw3ZJl+bm1ulUNDjBF6dCV+op/JCjqZeEk
2Xdlxn3yAj9AU/rV3BaQRsHoYlpRZm6rS9tuMECFaVP8E10i/q71j+otjBQOD6dZ
9tjLYHOQSKwhoT8uwiOyf/rsSIQTH7CQPEWWzsUZ1fnvXCmHxsxhJtzX850OOqZp
SwxGrF41qm17ow60wT8AEYGtbyZXZ+AjIaig8skblNJ0kmUU171KAxlMFPyzLzTa
rXvv1SEAfGiienJ1MdLrhOx3cmXUuu3UrhlhNP2SPz3gwruLeui5spRp
-----END CERTIFICATE-----
