Certificate:
    Data:
        Version: 3 (0x2)
        Serial Number: 120000525 (0x727100d)
    Signature Algorithm: sha1WithRSAEncryption
        Issuer: C=US, O=GTE Corporation, OU=GTE CyberTrust Solutions, Inc., CN=GTE CyberTrust Global Root
        Validity
            Not Before: Oct  4 10:54:11 2006 GMT
            Not After : Oct  4 10:53:11 2011 GMT
        Subject: C=NL, O=DigiNotar, CN=DigiNotar Cyber CA/emailAddress=info@diginotar.nl
        Subject Public Key Info:
            Public Key Algorithm: rsaEncryption
                Public-Key: (4096 bit)
                Modulus:
                    00:d2:ce:15:0a:2d:a8:5e:84:67:ad:fd:be:ef:46:
                    c7:c8:b9:cf:73:fc:f4:34:b9:f9:2c:43:e7:60:13:
                    3d:7a:e3:b2:cf:3b:67:6c:90:ad:c0:b9:3f:84:52:
                    f0:35:42:dc:74:dc:28:3b:bd:52:b4:a7:ac:72:45:
                    17:c6:f0:89:eb:b4:aa:25:f2:5d:4b:5e:d1:d9:87:
                    ba:d6:7d:7c:f5:ce:32:9f:10:33:c5:b1:4a:bb:5e:
                    91:31:c2:d0:e9:41:c2:91:64:7e:09:41:3b:db:8b:
                    08:37:6a:aa:ca:52:de:b5:39:1e:c0:88:03:a5:3f:
                    8b:99:13:61:43:b5:9b:82:b3:ee:20:6f:cf:a1:44:
                    a2:ea:2f:6b:40:9f:8f:2b:57:ad:a1:53:c2:85:22:
                    69:9d:a0:3f:51:df:0b:41:91:0d:a5:e1:a8:aa:5c:
                    49:08:5d:bd:de:70:41:b1:0f:c9:63:6b:d3:7f:34:
                    74:02:2f:34:5a:78:75:1c:68:7a:81:67:8a:f3:da:
                    40:f0:60:63:f4:92:20:d7:03:a6:3d:a3:1e:67:c4:
                    84:1b:41:a5:c9:8c:e6:bd:ea:48:b6:05:16:08:b3:
                    37:12:5a:f7:61:3c:f7:38:6f:2e:97:e0:6f:56:38:
                    54:d3:28:b5:ad:14:6e:2e:4b:64:b5:27:65:b7:75:
                    25:09:b6:07:3d:95:56:02:0a:82:60:b2:73:45:e0:
                    33:26:51:74:9a:b9:d4:50:1c:f6:4d:5b:5b:52:52:
                    13:5a:a6:7f:a7:0e:e1:e8:41:54:67:98:8c:87:d5:
                    c9:d3:6c:cb:d3:54:92:06:09:34:41:f7:81:6f:3f:
                    9e:c9:7c:75:55:b0:e7:c1:b3:77:e8:c3:c4:00:35:
                    95:40:70:10:4a:05:de:25:bb:9f:59:a5:64:bc:47:
                    60:bf:60:e3:76:8b:13:55:dd:e1:74:7a:b9:cf:24:
                    a6:6a:7f:de:64:22:44:58:68:82:6a:10:f9:3d:e5:
                    3e:1b:b9:bd:fc:22:f4:60:04:89:bb:55:6d:28:55:
                    fa:de:8e:8d:1b:21:14:d7:37:8b:34:7b:4d:f6:b2:
                    b2:10:cf:33:b1:7d:1c:62:99:48:cb:2b:6c:76:96:
                    55:bf:19:0d:1d:1f:bb:65:aa:1b:8e:99:b5:c6:28:
                    90:e5:82:2d:78:50:20:9a:fd:79:2f:24:7f:f0:89:
                    29:69:f4:7d:cd:73:be:b3:ed:4e:c1:d1:ed:52:5e:
                    8f:f7:b8:d7:8d:87:ad:b2:d9:1b:51:12:ff:56:b3:
                    e1:af:34:7d:5c:a4:78:88:10:9e:9d:03:c6:a5:aa:
                    a2:24:51:f7:49:14:c5:b1:ee:59:43:95:df:ab:68:
                    28:30:3f
                Exponent: 65537 (0x10001)
        X509v3 extensions:
            X509v3 Basic Constraints: critical
                CA:TRUE, pathlen:1
            X509v3 Certificate Policies: 
                Policy: 1.3.6.1.4.1.6334.1.0
                  CPS: http://www.public-trust.com/CPS/OmniRoot.html

            X509v3 Key Usage: critical
                Certificate Sign, CRL Sign
            X509v3 Authority Key Identifier: 
                keyid:A6:0C:1D:9F:61:FF:07:17:B5:BF:38:46:DB:43:30:D5:8E:B0:52:06
                DirName:/C=US/O=GTE Corporation/OU=GTE CyberTrust Solutions, Inc./CN=GTE CyberTrust Global Root
                serial:01:A5

            X509v3 CRL Distribution Points: 

                Full Name:
                  URI:http://www.public-trust.com/cgi-bin/CRL/2018/cdp.crl

            X509v3 Subject Key Identifier: 
                AB:F9:68:DF:CF:4A:37:D7:7B:45:8C:5F:72:DE:40:44:C3:65:BB:C2
    Signature Algorithm: sha1WithRSAEncryption
         8f:68:6b:a5:5b:07:ba:44:66:0e:1c:a8:5c:30:7b:33:e4:0a:
         26:04:fc:ef:9e:1a:38:d6:2e:a1:1f:d0:99:47:c2:75:64:24:
         fd:9e:3b:28:76:b9:26:28:61:91:0c:6d:2c:f8:04:9f:7c:50:
         01:d5:e3:69:af:ef:15:d2:45:9b:24:09:2a:66:05:4f:25:81:
         ca:5d:be:aa:c1:59:27:ae:33:8e:82:f7:df:74:b0:55:b3:8e:
         f8:e7:37:c8:6e:aa:56:44:f6:bd:53:81:23:96:3d:b4:fa:32:
         8a:53:66:44:25:a2:25:c6:a6:3c:25:8c:f0:e0:28:06:22:b7:
         26:41
-----BEGIN CERTIFICATE-----
MIIFWjCCBMOgAwIBAgIEBycQDTANBgkqhkiG9w0BAQUFADB1MQswCQYDVQQGEwJV
UzEYMBYGA1UEChMPR1RFIENvcnBvcmF0aW9uMScwJQYDVQQLEx5HVEUgQ3liZXJU
cnVzdCBTb2x1dGlvbnMsIEluYy4xIzAhBgNVBAMTGkdURSBDeWJlclRydXN0IEds
b2JhbCBSb290MB4XDTA2MTAwNDEwNTQxMVoXDTExMTAwNDEwNTMxMVowYDELMAkG
A1UEBhMCTkwxEjAQBgNVBAoTCURpZ2lOb3RhcjEbMBkGA1UEAxMSRGlnaU5vdGFy
IEN5YmVyIENBMSAwHgYJKoZIhvcNAQkBFhFpbmZvQGRpZ2lub3Rhci5ubDCCAiIw
DQYJKoZIhvcNAQEBBQADggIPADCCAgoCggIBANLOFQotqF6EZ639vu9Gx8i5z3P8
9DS5+SxD52ATPXrjss87Z2yQrcC5P4RS8DVC3HTcKDu9UrSnrHJFF8bwieu0qiXy
XUte0dmHutZ9fPXOMp8QM8WxSrtekTHC0OlBwpFkfglBO9uLCDdqqspS3rU5HsCI
A6U/i5kTYUO1m4Kz7iBvz6FEouova0CfjytXraFTwoUiaZ2gP1HfC0GRDaXhqKpc
SQhdvd5wQbEPyWNr0380dAIvNFp4dRxoeoFnivPaQPBgY/SSINcDpj2jHmfEhBtB
pcmM5r3qSLYFFgizNxJa92E89zhvLpfgb1Y4VNMota0Ubi5LZLUnZbd1JQm2Bz2V
VgIKgmCyc0XgMyZRdJq51FAc9k1bW1JSE1qmf6cO4ehBVGeYjIfVydNsy9NUkgYJ
NEH3gW8/nsl8dVWw58Gzd+jDxAA1lUBwEEoF3iW7n1mlZLxHYL9g43aLE1Xd4XR6
uc8kpmp/3mQiRFhogmoQ+T3lPhu5vfwi9GAEibtVbShV+t6OjRshFNc3izR7Tfay
shDPM7F9HGKZSMsrbHaWVb8ZDR0fu2WqG46ZtcYokOWCLXhQIJr9eS8kf/CJKWn0
fc1zvrPtTsHR7VJej/e4142HrbLZG1ES/1az4a80fVykeIgQnp0DxqWqoiRR90kU
xbHuWUOV36toKDA/AgMBAAGjggGGMIIBgjASBgNVHRMBAf8ECDAGAQH/AgEBMFMG
A1UdIARMMEowSAYJKwYBBAGxPgEAMDswOQYIKwYBBQUHAgEWLWh0dHA6Ly93d3cu
cHVibGljLXRydXN0LmNvbS9DUFMvT21uaVJvb3QuaHRtbDAOBgNVHQ8BAf8EBAMC
AQYwgaAGA1UdIwSBmDCBlYAUpgwdn2H/Bxe1vzhG20Mw1Y6wUgaheaR3MHUxCzAJ
BgNVBAYTAlVTMRgwFgYDVQQKEw9HVEUgQ29ycG9yYXRpb24xJzAlBgNVBAsTHkdU
RSBDeWJlclRydXN0IFNvbHV0aW9ucywgSW5jLjEjMCEGA1UEAxMaR1RFIEN5YmVy
VHJ1c3QgR2xvYmFsIFJvb3SCAgGlMEUGA1UdHwQ+MDwwOqA4oDaGNGh0dHA6Ly93
d3cucHVibGljLXRydXN0LmNvbS9jZ2ktYmluL0NSTC8yMDE4L2NkcC5jcmwwHQYD
VR0OBBYEFKv5aN/PSjfXe0WMX3LeQETDZbvCMA0GCSqGSIb3DQEBBQUAA4GBAI9o
a6VbB7pEZg4cqFwwezPkCiYE/O+eGjjWLqEf0JlHwnVkJP2eOyh2uSYoYZEMbSz4
BJ98UAHV42mv7xXSRZskCSpmBU8lgcpdvqrBWSeuM46C9990sFWzjvjnN8huqlZE
9r1TgSOWPbT6MopTZkQloiXGpjwljPDgKAYityZB
-----END CERTIFICATE-----
