Certificate:
    Data:
        Version: 3 (0x2)
        Serial Number:
            62:7a:61:b1:0e:7f:5f:27:be:3b:eb:5e:94:cf:7f:f4:48:de:e1:c5
        Signature Algorithm: sha384WithRSAEncryption
        Issuer: C = BM, O = QuoVadis Limited, CN = QuoVadis Root CA 2 G3
        Validity
            Not Before: Apr 19 18:27:31 2017 GMT
            Not After : Apr 19 18:27:31 2025 GMT
        Subject: C = AE, O = DarkMatter LLC, CN = DarkMatter Secure CA
        Subject Public Key Info:
            Public Key Algorithm: rsaEncryption
                RSA Public-Key: (4096 bit)
                Modulus:
                    00:93:2f:2e:6d:82:b3:37:53:c3:d7:80:53:bc:01:
                    ab:4c:3a:ce:a9:d9:0e:73:8e:e7:d6:8c:25:91:08:
                    49:3f:f5:c8:35:51:a0:e2:1e:62:75:da:e3:44:f5:
                    f9:e1:20:67:54:eb:20:85:b5:be:ef:f4:11:cb:0b:
                    4b:18:47:53:c6:66:fa:60:dc:74:13:dc:92:7e:4f:
                    73:d7:ec:99:f6:42:38:e9:be:1f:b7:d6:00:c4:6e:
                    8f:46:0c:4c:f8:1f:f5:d9:e7:b1:6f:10:f9:f1:e0:
                    9d:46:e5:04:e3:a0:bd:a5:84:32:dc:be:89:6e:71:
                    11:29:88:d3:24:1d:51:e0:ea:cc:e7:4b:50:5e:a7:
                    92:f8:ed:99:1b:f2:b1:28:89:19:45:79:db:2c:0b:
                    5b:3b:87:53:15:74:c4:02:16:13:7d:cd:47:29:fc:
                    b5:4a:2b:93:f9:d0:7a:92:f6:cc:da:8b:e9:95:65:
                    7d:1d:3a:15:3c:7a:ca:be:90:4a:ca:00:8f:f9:34:
                    3c:d4:ff:86:5d:4b:ac:3e:00:27:c5:94:e5:11:ad:
                    4c:e6:94:0a:83:17:89:7e:61:09:a1:55:2c:87:11:
                    4f:cf:bc:1a:ae:f3:33:3d:fb:8f:94:19:45:b1:c3:
                    33:90:22:a9:19:87:52:db:a8:60:33:72:92:d1:4e:
                    75:be:e3:c5:e8:87:73:a5:ea:dd:91:ae:63:07:a7:
                    e5:b6:df:30:51:60:bc:66:e6:50:11:2a:eb:65:b3:
                    24:33:e1:7a:7d:15:20:45:50:df:8e:ff:01:31:b2:
                    f7:86:a3:a9:ff:fa:aa:3a:d8:ea:e4:af:89:58:57:
                    6a:22:47:29:7b:68:1b:45:a1:89:db:34:ac:f9:aa:
                    31:d7:b5:3f:4a:64:77:e9:c4:0c:75:5f:92:a4:72:
                    54:3a:44:10:bc:eb:e9:e9:8a:27:33:12:cd:8f:b5:
                    9f:2a:14:4e:d4:1f:36:71:0d:e6:29:60:7e:03:32:
                    39:fd:03:0c:d2:68:c1:5b:77:84:c6:be:a2:5d:1f:
                    b0:c2:43:8e:82:fc:fd:8a:27:f2:59:dc:a3:cb:ba:
                    92:59:2f:d3:48:65:2e:c1:d5:c2:77:07:87:5e:d8:
                    b4:a4:29:c5:dd:b3:ef:f6:c5:c8:ea:36:1e:94:e5:
                    bd:08:9c:04:0e:2b:1f:f1:df:7e:68:41:c2:aa:05:
                    94:0d:d3:40:b4:a5:66:7f:b3:7b:24:fc:b2:89:e3:
                    19:83:98:d3:90:06:8d:78:10:d9:be:73:62:5e:46:
                    bb:27:dd:f2:0b:ac:db:38:b1:96:35:3f:33:ea:fb:
                    eb:25:97:ef:41:b3:c0:f9:64:9d:62:07:02:71:82:
                    88:95:29
                Exponent: 65537 (0x10001)
        X509v3 extensions:
            X509v3 Basic Constraints: critical
                CA:TRUE, pathlen:0
            X509v3 Certificate Policies: 
                Policy: 2.16.784.1.1.7.35.2.2.1.2
                  CPS: https://ca.darkmatter.ae/iCPS
                Policy: 2.23.140.1.2.2
                Policy: 2.23.140.1.2.3

            Authority Information Access: 
                OCSP - URI:http://ocsp.quovadisglobal.com
                CA Issuers - URI:http://cacerts.darkmatter.ae/qvrca2g3.crt

            X509v3 Key Usage: critical
                Digital Signature, Certificate Sign, CRL Sign
            X509v3 Extended Key Usage: 
                TLS Web Server Authentication, TLS Web Client Authentication, OCSP Signing
            X509v3 Authority Key Identifier: 
                keyid:ED:E7:6F:76:5A:BF:60:EC:49:5B:C6:A5:77:BB:72:16:71:9B:C4:3D

            X509v3 CRL Distribution Points: 

                Full Name:
                  URI:http://crl1.darkmatter.ae/qvrca2g3.crl

                Full Name:
                  URI:http://crl2.darkmatter.ae/qvrca2g3.crl

            X509v3 Subject Key Identifier: 
                A2:50:A4:70:CB:3B:B5:CA:61:94:27:13:96:3A:74:76:AA:9D:EC:34
    Signature Algorithm: sha384WithRSAEncryption
         72:e3:c5:33:02:2b:cd:b4:91:bc:65:ca:95:ad:b5:90:fe:ee:
         ac:f1:95:92:12:1e:85:fb:58:64:bf:43:a8:49:ad:56:3c:85:
         65:d5:40:7d:09:83:d5:67:bf:b4:d3:62:72:d3:7e:c7:9e:d4:
         ac:1d:62:95:c6:f2:06:5d:b9:36:2f:b5:d0:06:73:f6:78:17:
         3d:34:56:76:fa:a5:15:77:89:af:40:c5:c0:56:34:02:f9:80:
         45:e2:a5:49:40:84:6f:7e:fc:22:d7:f4:12:53:e7:1c:b2:f1:
         e0:84:92:76:0b:54:e5:1b:5c:9f:c2:54:6e:09:8c:17:b8:f1:
         14:0b:16:dc:e0:ed:17:00:66:6f:ea:26:cf:9c:07:c7:86:46:
         9a:b4:85:ca:2d:18:4f:c0:a7:81:2b:89:54:81:f3:e1:a1:7b:
         60:67:fc:8b:02:e3:2f:92:85:de:e0:c9:0e:1b:f1:4c:f0:3f:
         7b:8d:b4:f1:32:9a:2f:64:24:81:b9:46:4b:1d:da:c3:a1:ac:
         19:93:92:85:95:f8:98:88:b4:52:21:3b:f4:50:35:50:fb:86:
         81:52:9e:81:a5:43:db:a9:ac:38:53:c3:28:e0:b9:e0:6e:4c:
         49:b2:18:cf:53:44:cc:ab:10:89:7b:c6:55:55:6d:44:91:1b:
         8c:61:4b:f8:78:93:9e:7a:3d:72:e2:d2:e8:5e:2d:e5:fb:09:
         0f:a3:3b:1a:d9:22:34:75:da:1b:2e:c7:e7:44:2e:10:b7:25:
         b1:10:9a:ea:73:8b:b9:87:41:5b:3f:43:a7:e2:50:a6:28:98:
         67:92:74:f8:35:67:41:d8:b2:84:cc:72:d6:99:45:20:96:05:
         c2:8a:da:72:72:42:2f:47:e1:7f:b5:22:11:50:40:6d:d9:1b:
         c1:5a:21:67:a0:18:7a:9a:6c:72:50:42:6c:bb:f9:6f:eb:9a:
         f9:e6:b0:4c:76:6f:9f:9f:db:68:05:fc:63:95:58:ef:f4:1c:
         94:33:b1:dc:6d:73:1d:92:f3:00:19:65:36:fc:fa:69:1d:d0:
         42:98:e4:c1:3d:d9:d5:67:02:3a:99:a0:4c:52:2f:03:d6:4c:
         6b:fd:80:b3:7f:31:66:ad:50:1d:ba:fa:17:14:cf:b2:43:be:
         8d:2a:bc:74:7f:f4:9c:22:f2:a9:8b:1e:cf:07:89:df:8d:1e:
         59:28:96:25:2c:09:7c:9f:81:0e:d5:56:fa:fa:57:a8:5f:3a:
         40:e8:55:4b:31:0e:8c:37:61:17:3f:aa:62:79:5a:70:4b:9d:
         97:a1:d8:19:e3:ca:75:aa:20:c1:7c:80:b0:37:b6:8f:99:5a:
         48:97:cb:d4:d5:80:98:c7
-----BEGIN CERTIFICATE-----
MIIG4zCCBMugAwIBAgIUYnphsQ5/Xye+O+telM9/9Eje4cUwDQYJKoZIhvcNAQEM
BQAwSDELMAkGA1UEBhMCQk0xGTAXBgNVBAoTEFF1b1ZhZGlzIExpbWl0ZWQxHjAc
BgNVBAMTFVF1b1ZhZGlzIFJvb3QgQ0EgMiBHMzAeFw0xNzA0MTkxODI3MzFaFw0y
NTA0MTkxODI3MzFaMEUxCzAJBgNVBAYTAkFFMRcwFQYDVQQKDA5EYXJrTWF0dGVy
IExMQzEdMBsGA1UEAwwURGFya01hdHRlciBTZWN1cmUgQ0EwggIiMA0GCSqGSIb3
DQEBAQUAA4ICDwAwggIKAoICAQCTLy5tgrM3U8PXgFO8AatMOs6p2Q5zjufWjCWR
CEk/9cg1UaDiHmJ12uNE9fnhIGdU6yCFtb7v9BHLC0sYR1PGZvpg3HQT3JJ+T3PX
7Jn2Qjjpvh+31gDEbo9GDEz4H/XZ57FvEPnx4J1G5QTjoL2lhDLcvolucREpiNMk
HVHg6sznS1Bep5L47Zkb8rEoiRlFedssC1s7h1MVdMQCFhN9zUcp/LVKK5P50HqS
9szai+mVZX0dOhU8esq+kErKAI/5NDzU/4ZdS6w+ACfFlOURrUzmlAqDF4l+YQmh
VSyHEU/PvBqu8zM9+4+UGUWxwzOQIqkZh1LbqGAzcpLRTnW+48Xoh3Ol6t2RrmMH
p+W23zBRYLxm5lARKutlsyQz4Xp9FSBFUN+O/wExsveGo6n/+qo62Orkr4lYV2oi
Ryl7aBtFoYnbNKz5qjHXtT9KZHfpxAx1X5KkclQ6RBC86+npiiczEs2PtZ8qFE7U
HzZxDeYpYH4DMjn9AwzSaMFbd4TGvqJdH7DCQ46C/P2KJ/JZ3KPLupJZL9NIZS7B
1cJ3B4de2LSkKcXds+/2xcjqNh6U5b0InAQOKx/x335oQcKqBZQN00C0pWZ/s3sk
/LKJ4xmDmNOQBo14ENm+c2JeRrsn3fILrNs4sZY1PzPq++sll+9Bs8D5ZJ1iBwJx
goiVKQIDAQABo4IBxjCCAcIwEgYDVR0TAQH/BAgwBgEB/wIBADBZBgNVHSAEUjBQ
MDoGC2CGEAEBByMCAgECMCswKQYIKwYBBQUHAgEWHWh0dHBzOi8vY2EuZGFya21h
dHRlci5hZS9pQ1BTMAgGBmeBDAECAjAIBgZngQwBAgMwcQYIKwYBBQUHAQEEZTBj
MCoGCCsGAQUFBzABhh5odHRwOi8vb2NzcC5xdW92YWRpc2dsb2JhbC5jb20wNQYI
KwYBBQUHMAKGKWh0dHA6Ly9jYWNlcnRzLmRhcmttYXR0ZXIuYWUvcXZyY2EyZzMu
Y3J0MA4GA1UdDwEB/wQEAwIBhjAnBgNVHSUEIDAeBggrBgEFBQcDAQYIKwYBBQUH
AwIGCCsGAQUFBwMJMB8GA1UdIwQYMBaAFO3nb3Zav2DsSVvGpXe7chZxm8Q9MGUG
A1UdHwReMFwwLKAqoCiGJmh0dHA6Ly9jcmwxLmRhcmttYXR0ZXIuYWUvcXZyY2Ey
ZzMuY3JsMCygKqAohiZodHRwOi8vY3JsMi5kYXJrbWF0dGVyLmFlL3F2cmNhMmcz
LmNybDAdBgNVHQ4EFgQUolCkcMs7tcphlCcTljp0dqqd7DQwDQYJKoZIhvcNAQEM
BQADggIBAHLjxTMCK820kbxlypWttZD+7qzxlZISHoX7WGS/Q6hJrVY8hWXVQH0J
g9Vnv7TTYnLTfsee1KwdYpXG8gZduTYvtdAGc/Z4Fz00Vnb6pRV3ia9AxcBWNAL5
gEXipUlAhG9+/CLX9BJT5xyy8eCEknYLVOUbXJ/CVG4JjBe48RQLFtzg7RcAZm/q
Js+cB8eGRpq0hcotGE/Ap4EriVSB8+Ghe2Bn/IsC4y+Shd7gyQ4b8UzwP3uNtPEy
mi9kJIG5Rksd2sOhrBmTkoWV+JiItFIhO/RQNVD7hoFSnoGlQ9uprDhTwyjgueBu
TEmyGM9TRMyrEIl7xlVVbUSRG4xhS/h4k556PXLi0uheLeX7CQ+jOxrZIjR12hsu
x+dELhC3JbEQmupzi7mHQVs/Q6fiUKYomGeSdPg1Z0HYsoTMctaZRSCWBcKK2nJy
Qi9H4X+1IhFQQG3ZG8FaIWegGHqabHJQQmy7+W/rmvnmsEx2b5+f22gF/GOVWO/0
HJQzsdxtcx2S8wAZZTb8+mkd0EKY5ME92dVnAjqZoExSLwPWTGv9gLN/MWatUB26
+hcUz7JDvo0qvHR/9Jwi8qmLHs8Hid+NHlkoliUsCXyfgQ7VVvr6V6hfOkDoVUsx
Dow3YRc/qmJ5WnBLnZeh2BnjynWqIMF8gLA3to+ZWkiXy9TVgJjH
-----END CERTIFICATE-----
