Certificate:
    Data:
        Version: 3 (0x2)
        Serial Number:
            03:bb:b2:fa:b9:93:6a:fe:ad:0c:7e:1d:46:bb:27:bd:71:87
    Signature Algorithm: sha256WithRSAEncryption
        Issuer: C = US, O = Let's Encrypt, CN = Let's Encrypt Authority X3
        Validity
            Not Before: Nov  1 13:09:44 2017 GMT
            Not After : Jan 30 13:09:44 2018 GMT
        Subject: CN = igoogle.tg
        Subject Public Key Info:
            Public Key Algorithm: rsaEncryption
                Public-Key: (2048 bit)
                Modulus:
                    00:b0:75:6e:16:81:16:71:aa:e3:63:e1:50:14:f4:
                    e4:a0:09:4b:f9:d7:13:e6:8b:e1:61:21:e4:00:0e:
                    10:75:b8:d2:6f:21:73:9e:c3:28:ac:0e:1d:6a:87:
                    57:64:47:c4:12:4a:12:f2:b6:4a:ec:cc:55:d7:5d:
                    94:e2:3f:e7:b7:4e:44:bd:95:80:ff:46:a5:ac:90:
                    e3:67:17:2c:f2:d4:dc:1e:52:ad:60:7f:37:58:63:
                    5b:be:6a:66:a6:41:dd:46:f8:c5:3d:54:a1:2e:de:
                    3a:2e:45:36:03:12:dd:4f:b2:46:67:87:b0:49:08:
                    6b:de:f6:82:24:6b:07:e2:dd:10:dc:ed:18:ba:e9:
                    0c:32:49:2d:ab:cc:d1:b3:ee:41:7d:e4:50:51:1f:
                    4c:7b:35:4e:3a:93:b8:a5:6d:85:50:aa:92:3b:81:
                    de:20:34:34:30:09:d7:bd:c3:ba:39:72:1b:88:64:
                    20:c2:e5:fa:d4:5f:ef:a0:b9:80:e1:09:c4:9f:ed:
                    89:a9:fa:e1:0a:d3:d9:53:ad:2f:65:7e:9e:5b:e6:
                    98:2c:3b:1b:48:84:25:c8:90:65:59:02:76:3a:05:
                    fa:f7:1c:55:79:7d:8b:18:bc:e4:ff:ae:16:49:d0:
                    50:cd:30:c2:c8:08:08:67:ca:a6:62:04:a1:ab:d6:
                    6d:15
                Exponent: 65537 (0x10001)
        X509v3 extensions:
            X509v3 Key Usage: critical
                Digital Signature, Key Encipherment
            X509v3 Extended Key Usage: 
                TLS Web Server Authentication, TLS Web Client Authentication
            X509v3 Basic Constraints: critical
                CA:FALSE
            X509v3 Subject Key Identifier: 
                0D:B7:11:96:5F:16:25:53:88:89:E8:8C:96:E9:0A:08:BE:91:61:DC
            X509v3 Authority Key Identifier: 
                keyid:A8:4A:6A:63:04:7D:DD:BA:E6:D1:39:B7:A6:45:65:EF:F3:A8:EC:A1

            Authority Information Access: 
                OCSP - URI:http://ocsp.int-x3.letsencrypt.org
                CA Issuers - URI:http://cert.int-x3.letsencrypt.org/

            X509v3 Subject Alternative Name: 
                DNS:cpanel.igoogle.tg, DNS:igoogle.tg, DNS:mail.igoogle.tg, DNS:webdisk.igoogle.tg, DNS:webmail.igoogle.tg, DNS:www.igoogle.tg
            X509v3 Certificate Policies: 
                Policy: 2.23.140.1.2.1
                Policy: 1.3.6.1.4.1.44947.1.1.1
                  CPS: http://cps.letsencrypt.org
                  User Notice:
                    Explicit Text: This Certificate may only be relied upon by Relying Parties and only in accordance with the Certificate Policy found at https://letsencrypt.org/repository/

    Signature Algorithm: sha256WithRSAEncryption
         92:c0:bb:00:b6:64:ca:e4:73:04:36:64:d5:48:91:ac:ec:54:
         cc:d0:d8:9d:3b:5c:9e:ee:a0:2c:90:1b:fa:ba:56:56:d4:e5:
         47:f7:4b:89:97:3a:fa:32:7e:78:30:66:e3:5e:fa:41:fe:f2:
         4f:ab:a3:e8:dc:be:22:33:d8:79:45:30:f6:90:76:48:6a:7c:
         3f:78:7e:57:89:ed:fa:f8:7c:c4:8c:a3:b3:13:f0:96:7c:84:
         ef:4a:37:b8:f4:40:d3:ef:64:c0:8c:45:05:f0:44:f2:57:87:
         8f:e3:11:75:92:f3:de:89:54:8c:35:23:e1:1f:70:e7:0b:c3:
         62:fc:6d:7b:4c:c0:09:9d:a1:b8:3c:7f:a2:91:89:b2:96:5f:
         50:6d:c6:ab:63:da:df:4f:c4:7a:12:9b:bf:f1:56:9e:66:60:
         de:9a:f4:84:f7:e4:e4:79:06:d9:6e:c7:6d:36:a0:6a:d5:e3:
         10:3e:b9:8b:50:05:33:05:8e:a3:66:8f:1a:aa:e4:63:22:b9:
         c8:a0:f0:4c:f0:83:1e:56:6b:1a:9b:f7:e8:7d:c1:e8:8f:14:
         20:65:e5:34:74:d3:a0:1c:41:b5:2d:f3:ad:90:34:d7:4f:db:
         e0:b7:19:85:f0:f5:ff:79:fe:b4:36:73:b1:45:aa:99:72:7b:
         e0:6f:20:c0
-----BEGIN CERTIFICATE-----
MIIFUzCCBDugAwIBAgISA7uy+rmTav6tDH4dRrsnvXGHMA0GCSqGSIb3DQEBCwUA
MEoxCzAJBgNVBAYTAlVTMRYwFAYDVQQKEw1MZXQncyBFbmNyeXB0MSMwIQYDVQQD
ExpMZXQncyBFbmNyeXB0IEF1dGhvcml0eSBYMzAeFw0xNzExMDExMzA5NDRaFw0x
ODAxMzAxMzA5NDRaMBUxEzARBgNVBAMTCmlnb29nbGUudGcwggEiMA0GCSqGSIb3
DQEBAQUAA4IBDwAwggEKAoIBAQCwdW4WgRZxquNj4VAU9OSgCUv51xPmi+FhIeQA
DhB1uNJvIXOewyisDh1qh1dkR8QSShLytkrszFXXXZTiP+e3TkS9lYD/RqWskONn
Fyzy1NweUq1gfzdYY1u+amamQd1G+MU9VKEu3jouRTYDEt1PskZnh7BJCGve9oIk
awfi3RDc7Ri66QwySS2rzNGz7kF95FBRH0x7NU46k7ilbYVQqpI7gd4gNDQwCde9
w7o5chuIZCDC5frUX++guYDhCcSf7Ymp+uEK09lTrS9lfp5b5pgsOxtIhCXIkGVZ
AnY6Bfr3HFV5fYsYvOT/rhZJ0FDNMMLICAhnyqZiBKGr1m0VAgMBAAGjggJmMIIC
YjAOBgNVHQ8BAf8EBAMCBaAwHQYDVR0lBBYwFAYIKwYBBQUHAwEGCCsGAQUFBwMC
MAwGA1UdEwEB/wQCMAAwHQYDVR0OBBYEFA23EZZfFiVTiInojJbpCgi+kWHcMB8G
A1UdIwQYMBaAFKhKamMEfd265tE5t6ZFZe/zqOyhMG8GCCsGAQUFBwEBBGMwYTAu
BggrBgEFBQcwAYYiaHR0cDovL29jc3AuaW50LXgzLmxldHNlbmNyeXB0Lm9yZzAv
BggrBgEFBQcwAoYjaHR0cDovL2NlcnQuaW50LXgzLmxldHNlbmNyeXB0Lm9yZy8w
cQYDVR0RBGowaIIRY3BhbmVsLmlnb29nbGUudGeCCmlnb29nbGUudGeCD21haWwu
aWdvb2dsZS50Z4ISd2ViZGlzay5pZ29vZ2xlLnRnghJ3ZWJtYWlsLmlnb29nbGUu
dGeCDnd3dy5pZ29vZ2xlLnRnMIH+BgNVHSAEgfYwgfMwCAYGZ4EMAQIBMIHmBgsr
BgEEAYLfEwEBATCB1jAmBggrBgEFBQcCARYaaHR0cDovL2Nwcy5sZXRzZW5jcnlw
dC5vcmcwgasGCCsGAQUFBwICMIGeDIGbVGhpcyBDZXJ0aWZpY2F0ZSBtYXkgb25s
eSBiZSByZWxpZWQgdXBvbiBieSBSZWx5aW5nIFBhcnRpZXMgYW5kIG9ubHkgaW4g
YWNjb3JkYW5jZSB3aXRoIHRoZSBDZXJ0aWZpY2F0ZSBQb2xpY3kgZm91bmQgYXQg
aHR0cHM6Ly9sZXRzZW5jcnlwdC5vcmcvcmVwb3NpdG9yeS8wDQYJKoZIhvcNAQEL
BQADggEBAJLAuwC2ZMrkcwQ2ZNVIkazsVMzQ2J07XJ7uoCyQG/q6VlbU5Uf3S4mX
OvoyfngwZuNe+kH+8k+ro+jcviIz2HlFMPaQdkhqfD94fleJ7fr4fMSMo7MT8JZ8
hO9KN7j0QNPvZMCMRQXwRPJXh4/jEXWS896JVIw1I+EfcOcLw2L8bXtMwAmdobg8
f6KRibKWX1Btxqtj2t9PxHoSm7/xVp5mYN6a9IT35OR5Btlux202oGrV4xA+uYtQ
BTMFjqNmjxqq5GMiucig8Ezwgx5Waxqb9+h9weiPFCBl5TR006AcQbUt862QNNdP
2+C3GYXw9f95/rQ2c7FFqplye+BvIMA=
-----END CERTIFICATE-----
