Certificate:
    Data:
        Version: 3 (0x2)
        Serial Number: 10161 (0x27b1)
    Signature Algorithm: sha256WithRSAEncryption
        Issuer: C=IN, O=India PKI, CN=CCA India 2014
        Validity
            Not Before: Mar  5 11:15:24 2014 GMT
            Not After : Mar  5 06:30:00 2024 GMT
        Subject: C=IN, O=National Informatics Centre, OU=Certifying Authority/postalCode=110003, ST=Delhi/street=Lodhi Road, New Delhi/houseIdentifier=A-Block, CGO Complex, CN=NIC CA 2014
        Subject Public Key Info:
            Public Key Algorithm: rsaEncryption
                Public-Key: (2048 bit)
                Modulus:
                    00:fc:e4:39:e8:67:bd:32:12:62:07:0b:4e:94:22:
                    4f:e2:9e:60:8d:c0:ae:aa:44:36:e8:10:92:42:07:
                    c0:b3:1c:8d:c4:0c:2d:2f:57:f4:87:77:79:28:d1:
                    48:22:72:06:d9:8f:4f:c0:18:14:ae:06:af:39:6c:
                    b6:71:92:02:c6:05:c8:19:a3:b3:2b:96:c8:4f:21:
                    a1:c5:83:0f:53:39:1a:cc:6a:69:7e:3d:12:71:6e:
                    c4:77:f9:23:78:39:e2:73:75:a5:62:43:f0:b4:d6:
                    95:d6:ac:13:12:5a:fc:ce:a3:d4:b5:3d:bb:64:3a:
                    9d:ea:ea:68:af:d3:08:0a:78:17:00:2d:6d:1e:38:
                    4f:b8:6a:c6:b6:ee:22:e8:53:0f:ae:69:28:7f:07:
                    61:f1:d9:2e:47:35:3f:38:f8:df:f6:50:3e:13:d4:
                    2e:d0:db:ea:b2:82:3d:82:b2:40:d1:eb:60:45:f9:
                    fd:8e:e4:78:5f:72:93:1b:6d:6a:1e:7c:da:e7:43:
                    e9:31:80:b8:fa:f8:7c:8c:09:c8:4f:b2:9c:cf:c1:
                    a0:af:87:a0:86:4b:cf:fa:2c:f6:c8:4b:48:71:5f:
                    4c:d7:17:a8:f7:c5:d4:fe:3c:6e:61:2e:cb:79:6b:
                    4e:ef:d8:e4:8a:a0:88:aa:02:3c:4f:7c:7b:2c:7b:
                    82:69
                Exponent: 65537 (0x10001)
        X509v3 extensions:
            X509v3 Basic Constraints: critical
                CA:TRUE, pathlen:1
            X509v3 Subject Key Identifier: 
                46:70:CA:2F:25:4E:C3:47
            X509v3 Certificate Policies: 
                Policy: 2.16.356.100.2

            X509v3 Authority Key Identifier: 
                keyid:42:B8:C5:CF:6D:B3:57:E1

            Authority Information Access: 
                OCSP - URI:http://ocvs.gov.in

            X509v3 Key Usage: critical
                Certificate Sign, CRL Sign
            X509v3 CRL Distribution Points: 

                Full Name:
                  URI:http://cca.gov.in/rw/resources/CCAIndia2014Latest.crl

    Signature Algorithm: sha256WithRSAEncryption
         81:8b:78:89:79:49:64:7e:36:3d:e8:78:1f:04:85:04:b0:b8:
         be:92:73:b7:55:4a:f1:0e:6c:29:b3:56:32:86:04:52:b7:6d:
         8d:40:b6:78:8e:4b:12:58:b2:36:11:06:e7:f6:4e:6d:1f:ca:
         f0:49:bb:0e:59:ff:93:64:7e:e3:a5:a2:80:55:26:22:d4:68:
         44:6c:64:7f:0b:66:5e:16:25:80:4f:0b:4f:58:aa:15:1b:0c:
         7f:92:c5:0e:f5:83:cc:cd:fd:30:87:a7:c3:22:ec:81:24:8b:
         3f:9e:e3:7d:df:e2:f6:89:bf:93:4b:9b:e2:36:4c:be:1e:b4:
         77:5f:2a:84:d3:3e:37:5b:96:db:cc:c6:e2:76:8d:e5:6f:08:
         2b:76:b3:16:0f:a8:42:35:26:6c:f3:cf:0b:d1:27:b8:ae:7d:
         9e:8b:46:8f:98:79:b1:8c:38:db:13:11:77:34:5e:a6:da:e6:
         02:ff:00:11:e1:c5:48:cc:cb:ef:a6:d1:58:9f:e4:80:74:6f:
         e9:c2:42:87:68:c5:67:70:1f:dc:c7:11:16:88:ac:ce:c5:5a:
         63:06:c3:38:37:5f:65:a7:1a:76:45:4f:e7:fb:1e:f1:44:ad:
         d6:4d:0b:cd:01:97:54:ee:97:00:62:66:48:5c:fb:bf:11:2f:
         6a:a4:ae:1f
-----BEGIN CERTIFICATE-----
MIIEWzCCA0OgAwIBAgICJ7EwDQYJKoZIhvcNAQELBQAwOjELMAkGA1UEBhMCSU4x
EjAQBgNVBAoTCUluZGlhIFBLSTEXMBUGA1UEAxMOQ0NBIEluZGlhIDIwMTQwHhcN
MTQwMzA1MTExNTI0WhcNMjQwMzA1MDYzMDAwWjCByDELMAkGA1UEBhMCSU4xJDAi
BgNVBAoTG05hdGlvbmFsIEluZm9ybWF0aWNzIENlbnRyZTEdMBsGA1UECxMUQ2Vy
dGlmeWluZyBBdXRob3JpdHkxDzANBgNVBBETBjExMDAwMzEOMAwGA1UECBMFRGVs
aGkxHjAcBgNVBAkTFUxvZGhpIFJvYWQsIE5ldyBEZWxoaTEdMBsGA1UEMxMUQS1C
bG9jaywgQ0dPIENvbXBsZXgxFDASBgNVBAMTC05JQyBDQSAyMDE0MIIBIjANBgkq
hkiG9w0BAQEFAAOCAQ8AMIIBCgKCAQEA/OQ56Ge9MhJiBwtOlCJP4p5gjcCuqkQ2
6BCSQgfAsxyNxAwtL1f0h3d5KNFIInIG2Y9PwBgUrgavOWy2cZICxgXIGaOzK5bI
TyGhxYMPUzkazGppfj0ScW7Ed/kjeDnic3WlYkPwtNaV1qwTElr8zqPUtT27ZDqd
6upor9MICngXAC1tHjhPuGrGtu4i6FMPrmkofwdh8dkuRzU/OPjf9lA+E9Qu0Nvq
soI9grJA0etgRfn9juR4X3KTG21qHnza50PpMYC4+vh8jAnIT7Kcz8Ggr4eghkvP
+iz2yEtIcV9M1xeo98XU/jxuYS7LeWtO79jkiqCIqgI8T3x7LHuCaQIDAQABo4Hb
MIHYMBIGA1UdEwEB/wQIMAYBAf8CAQEwEQYDVR0OBAoECEZwyi8lTsNHMBIGA1Ud
IAQLMAkwBwYFYIJkZAIwEwYDVR0jBAwwCoAIQrjFz22zV+EwLgYIKwYBBQUHAQEE
IjAgMB4GCCsGAQUFBzABhhJodHRwOi8vb2N2cy5nb3YuaW4wDgYDVR0PAQH/BAQD
AgEGMEYGA1UdHwQ/MD0wO6A5oDeGNWh0dHA6Ly9jY2EuZ292LmluL3J3L3Jlc291
cmNlcy9DQ0FJbmRpYTIwMTRMYXRlc3QuY3JsMA0GCSqGSIb3DQEBCwUAA4IBAQCB
i3iJeUlkfjY96HgfBIUEsLi+knO3VUrxDmwps1YyhgRSt22NQLZ4jksSWLI2EQbn
9k5tH8rwSbsOWf+TZH7jpaKAVSYi1GhEbGR/C2ZeFiWATwtPWKoVGwx/ksUO9YPM
zf0wh6fDIuyBJIs/nuN93+L2ib+TS5viNky+HrR3XyqE0z43W5bbzMbido3lbwgr
drMWD6hCNSZs888L0Se4rn2ei0aPmHmxjDjbExF3NF6m2uYC/wAR4cVIzMvvptFY
n+SAdG/pwkKHaMVncB/cxxEWiKzOxVpjBsM4N19lpxp2RU/n+x7xRK3WTQvNAZdU
7pcAYmZIXPu/ES9qpK4f
-----END CERTIFICATE-----
