Certificate:
    Data:
        Version: 3 (0x2)
        Serial Number: 15203047915477327079 (0xd2fc1387a944dce7)
    Signature Algorithm: sha1WithRSAEncryption
        Issuer: O=Superfish, Inc., L=SF, ST=CA, C=US, CN=Superfish, Inc.
        Validity
            Not Before: May 12 16:25:26 2014 GMT
            Not After : May  7 16:25:26 2034 GMT
        Subject: O=Superfish, Inc., L=SF, ST=CA, C=US, CN=Superfish, Inc.
        Subject Public Key Info:
            Public Key Algorithm: rsaEncryption
                Public-Key: (1024 bit)
                Modulus:
                    00:e8:f3:4a:18:76:5f:19:3f:b1:cf:58:e9:7f:43:
                    07:09:95:80:35:c5:0f:fe:71:31:27:81:99:12:26:
                    20:a5:df:8f:6a:fc:42:55:39:ee:09:38:89:d9:e0:
                    36:c4:ac:01:82:5b:d5:39:e6:f9:8f:07:88:df:fe:
                    ee:f6:a1:14:ce:a9:74:45:d8:fd:f0:17:57:2a:82:
                    e1:7a:2e:12:93:5a:ac:8a:d7:15:63:d1:b7:9b:55:
                    80:0f:58:bc:1c:49:ed:20:62:dd:b6:4c:a5:3a:eb:
                    1c:3d:a0:ff:7a:71:a6:d3:10:78:33:ae:4b:c2:1c:
                    fd:92:4a:a1:c3:e7:41:a4:2d
                Exponent: 65537 (0x10001)
        X509v3 extensions:
            X509v3 Basic Constraints: 
                CA:TRUE
            X509v3 Subject Key Identifier: 
                FB:98:B3:53:7F:14:44:2E:E8:EE:D5:09:9A:5E:0E:56:86:A8:35:88
            X509v3 Authority Key Identifier: 
                keyid:FB:98:B3:53:7F:14:44:2E:E8:EE:D5:09:9A:5E:0E:56:86:A8:35:88
                DirName:/O=Superfish, Inc./L=SF/ST=CA/C=US/CN=Superfish, Inc.
                serial:D2:FC:13:87:A9:44:DC:E7

    Signature Algorithm: sha1WithRSAEncryption
         a4:7c:a0:ec:0a:4a:c7:70:c4:71:68:f3:3b:22:e2:dc:9c:8d:
         d0:92:fe:73:7e:72:2b:55:44:9b:1b:b4:42:eb:1f:af:be:ba:
         e3:93:a3:d4:8b:18:c2:94:f0:b3:a6:bd:65:34:4c:cd:24:f8:
         19:0b:c5:15:0a:da:f3:57:8b:a9:86:cf:6c:c3:ee:84:2f:85:
         0b:19:14:17:98:b4:0c:d4:96:8b:e9:1c:cc:95:c9:4e:d0:aa:
         4b:01:a5:f6:df:49:12:81:6a:be:d5:be:ce:76:7d:4e:ac:8b:
         88:e3:30:ed:31:84:50:8f:bc:f1:50:2a:5b:4a:a6:5e:7c:0f:
         71:fa
-----BEGIN CERTIFICATE-----
MIIC9TCCAl6gAwIBAgIJANL8E4epRNznMA0GCSqGSIb3DQEBBQUAMFsxGDAWBgNV
BAoTD1N1cGVyZmlzaCwgSW5jLjELMAkGA1UEBxMCU0YxCzAJBgNVBAgTAkNBMQsw
CQYDVQQGEwJVUzEYMBYGA1UEAxMPU3VwZXJmaXNoLCBJbmMuMB4XDTE0MDUxMjE2
MjUyNloXDTM0MDUwNzE2MjUyNlowWzEYMBYGA1UEChMPU3VwZXJmaXNoLCBJbmMu
MQswCQYDVQQHEwJTRjELMAkGA1UECBMCQ0ExCzAJBgNVBAYTAlVTMRgwFgYDVQQD
Ew9TdXBlcmZpc2gsIEluYy4wgZ8wDQYJKoZIhvcNAQEBBQADgY0AMIGJAoGBAOjz
Shh2Xxk/sc9Y6X9DBwmVgDXFD/5xMSeBmRImIKXfj2r8QlU57gk4idngNsSsAYJb
1Tnm+Y8HiN/+7vahFM6pdEXY/fAXVyqC4XouEpNarIrXFWPRt5tVgA9YvBxJ7SBi
3bZMpTrrHD2g/3pxptMQeDOuS8Ic/ZJKocPnQaQtAgMBAAGjgcAwgb0wDAYDVR0T
BAUwAwEB/zAdBgNVHQ4EFgQU+5izU38URC7o7tUJml4OVoaoNYgwgY0GA1UdIwSB
hTCBgoAU+5izU38URC7o7tUJml4OVoaoNYihX6RdMFsxGDAWBgNVBAoTD1N1cGVy
ZmlzaCwgSW5jLjELMAkGA1UEBxMCU0YxCzAJBgNVBAgTAkNBMQswCQYDVQQGEwJV
UzEYMBYGA1UEAxMPU3VwZXJmaXNoLCBJbmMuggkA0vwTh6lE3OcwDQYJKoZIhvcN
AQEFBQADgYEApHyg7ApKx3DEcWjzOyLi3JyN0JL+c35yK1VEmxu0Qusfr76645Oj
1IsYwpTws6a9ZTRMzST4GQvFFQra81eLqYbPbMPuhC+FCxkUF5i0DNSWi+kczJXJ
TtCqSwGl9t9JEoFqvtW+znZ9TqyLiOMw7TGEUI+88VAqW0qmXnwPcfo=
-----END CERTIFICATE-----