Certificate:
    Data:
        Version: 3 (0x2)
        Serial Number: 20001983 (0x13134bf)
    Signature Algorithm: sha256WithRSAEncryption
        Issuer: C=NL, O=Staat der Nederlanden, CN=Staat der Nederlanden Organisatie CA - G2
        Validity
            Not Before: May 12 08:51:38 2010 GMT
            Not After : Mar 23 09:50:04 2020 GMT
        Subject: C=NL, O=DigiNotar B.V., CN=DigiNotar PKIoverheid CA Organisatie - G2
        Subject Public Key Info:
            Public Key Algorithm: rsaEncryption
                Public-Key: (4096 bit)
                Modulus:
                    00:b1:13:19:0f:27:e6:6c:d4:55:86:4b:d0:ec:89:
                    8a:45:91:78:ac:47:bd:47:2b:e4:fc:45:eb:4f:b4:
                    26:73:5b:37:d3:c3:7f:f6:e3:de:d7:a3:f8:2d:68:
                    c5:08:3e:4b:94:d6:e4:87:25:36:6b:84:b5:18:74:
                    f3:28:58:73:2f:9b:6a:cf:bc:04:1e:f6:de:dd:af:
                    fc:4b:aa:f5:db:66:62:25:01:25:82:de:f2:97:5a:
                    10:6e:dd:5d:a9:22:b1:04:a9:23:73:3a:f8:71:ad:
                    1d:cf:84:44:eb:47:d1:af:6d:c8:7c:28:ab:c7:f2:
                    37:7a:74:5f:5f:c5:02:14:8a:a3:5a:e3:1b:6c:01:
                    e3:5d:8e:d9:68:d6:f4:09:1b:32:dc:91:b5:2c:f5:
                    20:eb:8c:03:6d:26:49:b8:93:c4:85:5d:d8:d2:9b:
                    af:56:6a:cc:05:33:cc:a0:42:9e:34:55:44:9c:6b:
                    a0:d4:12:d0:2b:54:cd:b7:89:0d:e5:f6:eb:e8:fb:
                    85:01:33:4f:7a:6b:f1:9d:72:33:96:0e:f7:b2:84:
                    a5:a5:27:c4:27:f1:51:73:29:77:ba:67:6e:fe:4c:
                    dc:b4:e2:a1:a1:81:2f:39:49:8d:43:38:13:ce:d0:
                    a5:5c:c2:87:3a:00:67:65:42:23:f1:36:59:0a:1d:
                    a3:51:c8:bc:a3:94:2a:31:df:e3:3c:f2:9d:1a:3c:
                    04:b0:ef:b1:0a:30:13:73:b6:d7:f3:a3:4c:01:75:
                    14:85:78:c0:d7:8a:39:58:85:50:fa:2e:e6:c5:be:
                    cf:8b:3f:af:8f:36:d4:25:09:2d:d2:0f:ac:72:93:
                    f2:bf:8b:d4:50:b3:f9:15:50:9b:99:f5:14:d9:fb:
                    8b:91:a3:32:26:26:a0:f8:df:3b:60:81:86:83:79:
                    5b:2b:eb:13:3d:29:3a:c1:6d:dd:bd:9e:8e:87:d6:
                    4a:ae:34:97:05:ee:14:a6:f6:dc:38:7e:4a:e9:24:
                    54:07:3d:97:68:37:46:6b:0d:c7:a8:21:af:13:54:
                    e4:09:6a:f1:4d:46:0a:c9:5d:fb:9b:4f:bd:de:fb:
                    b7:54:cb:b8:38:9c:a7:39:fb:6a:2d:c0:7b:8d:ab:
                    a5:a7:57:ec:4a:92:8a:33:c5:e1:20:5c:73:d8:90:
                    92:2b:80:d5:0f:86:18:69:7c:39:4f:84:86:bc:f7:
                    4c:5b:f3:d5:b4:ca:a0:c2:f0:37:22:ca:79:52:1f:
                    53:e6:aa:f3:90:b0:3b:dd:f2:28:fd:ac:eb:c5:06:
                    24:a0:c9:d4:2f:0f:58:fd:b5:9e:ec:0f:cf:b2:59:
                    d0:a2:04:7a:38:6a:ae:72:fb:bd:f0:25:62:94:09:
                    a7:05:0b
                Exponent: 65537 (0x10001)
        X509v3 extensions:
            X509v3 Certificate Policies: 
                Policy: X509v3 Any Policy
                  CPS: http://www.diginotar.nl/cps/pkioverheid

            X509v3 Basic Constraints: critical
                CA:TRUE
            X509v3 Key Usage: critical
                Certificate Sign, CRL Sign
            X509v3 Authority Key Identifier: 
                keyid:39:10:8B:49:92:5C:DB:61:12:20:CD:49:9D:1A:8E:DA:9C:67:40:B9
                DirName:/C=NL/O=Staat der Nederlanden/CN=Staat der Nederlanden Root CA - G2
                serial:98:96:F4

            X509v3 CRL Distribution Points: 

                Full Name:
                  URI:http://crl.pkioverheid.nl/DomOrganisatieLatestCRL-G2.crl

            X509v3 Subject Key Identifier: 
                BC:5D:94:3B:D9:AB:7B:03:25:73:61:C2:DB:2D:EE:FC:AB:8F:65:A1
    Signature Algorithm: sha256WithRSAEncryption
         8f:fc:2d:4c:b7:d9:2d:d5:1f:bd:ef:cb:f4:b7:68:17:75:9d:
         4e:d5:f7:dd:9c:f1:2a:26:ed:9f:a2:b6:1c:03:d5:53:b3:ec:
         08:cf:34:e2:e3:c3:f4:b5:16:2f:c8:c3:be:d7:d3:73:ab:00:
         36:f9:1a:4a:7e:d6:63:e9:5e:46:ba:a5:b6:8e:15:b7:a3:2a:
         d8:43:1d:ef:5d:c8:1f:81:85:b3:8b:f7:ff:3c:f4:d9:f4:46:
         08:3f:9c:bc:1d:a0:d9:a8:4c:cd:25:52:4e:0a:b1:20:f7:1f:
         e9:43:d9:54:46:81:13:9a:c0:5e:74:6c:2a:98:32:ea:fc:77:
         bb:0d:a5:a2:31:98:22:7e:7c:7c:e7:da:a4:ad:ec:b7:2e:1a:
         19:71:f8:48:50:da:43:8f:2c:84:dd:c1:40:27:e3:b5:f0:15:
         4e:96:d4:f8:5c:e3:86:29:46:2b:d7:3b:07:eb:38:7f:c8:86:
         57:97:d3:ef:2a:33:c4:17:50:d5:64:69:6b:2b:6b:45:5e:5d:
         2f:17:ca:5a:4e:cf:c3:d7:39:3c:f5:3b:9f:46:b9:9b:e7:0e:
         49:97:9d:d6:d5:e3:1b:0f:ea:8f:01:4e:9a:13:94:59:0a:02:
         07:48:4b:1a:60:ab:7f:4f:ed:0b:d8:55:0d:68:6f:55:9c:69:
         65:15:42:ec:c0:dc:dd:6c:ac:c3:16:ce:0b:1d:56:9b:a4:c4:
         c4:d2:2e:e0:0f:e2:44:27:2b:50:69:a4:dc:62:e8:8a:21:29:
         42:6c:cc:00:3a:96:76:9b:ef:40:c0:a4:5e:77:84:32:6c:26:
         2a:39:66:ae:5d:e3:b9:b9:b2:2c:68:1f:1e:9a:90:03:39:f0:
         aa:b3:a4:cc:49:8b:18:34:e9:37:c9:7b:29:c7:84:7c:6f:44:
         15:2f:ec:61:59:04:c9:45:cb:a2:d6:52:a2:7c:7f:29:92:d6:
         4a:c5:8b:42:a8:d4:fe:ea:d8:c7:87:23:18:e4:9d:7a:7d:73:
         40:52:98:a0:ae:6e:e3:05:3f:05:0f:e0:a5:c6:6d:4d:ed:83:
         37:88:9c:c7:f3:dc:42:9a:6a:b6:d7:21:49:36:77:f2:ef:18:
         4f:c5:70:d9:9e:e9:de:b7:2b:8b:f4:bc:7e:28:df:0d:40:c9:
         85:5c:ae:9d:c5:31:ff:d0:5c:0e:b5:a8:7e:f0:e9:2f:ba:af:
         88:ae:e5:b5:d1:58:a5:af:9c:71:a7:29:01:90:83:69:37:82:
         05:ba:fc:09:c1:08:6e:8c:78:3b:c3:33:02:80:3f:44:85:08:
         1d:df:55:56:08:ad:2c:85:2d:5d:b1:03:e1:ae:aa:74:c5:a4:
         f3:4e:ba:37:98:7b:82:b9
-----BEGIN CERTIFICATE-----
MIIGnDCCBISgAwIBAgIEATE0vzANBgkqhkiG9w0BAQsFADBhMQswCQYDVQQGEwJO
TDEeMBwGA1UECgwVU3RhYXQgZGVyIE5lZGVybGFuZGVuMTIwMAYDVQQDDClTdGFh
dCBkZXIgTmVkZXJsYW5kZW4gT3JnYW5pc2F0aWUgQ0EgLSBHMjAeFw0xMDA1MTIw
ODUxMzhaFw0yMDAzMjMwOTUwMDRaMFoxCzAJBgNVBAYTAk5MMRcwFQYDVQQKDA5E
aWdpTm90YXIgQi5WLjEyMDAGA1UEAwwpRGlnaU5vdGFyIFBLSW92ZXJoZWlkIENB
IE9yZ2FuaXNhdGllIC0gRzIwggIiMA0GCSqGSIb3DQEBAQUAA4ICDwAwggIKAoIC
AQCxExkPJ+Zs1FWGS9DsiYpFkXisR71HK+T8RetPtCZzWzfTw3/2497Xo/gtaMUI
PkuU1uSHJTZrhLUYdPMoWHMvm2rPvAQe9t7dr/xLqvXbZmIlASWC3vKXWhBu3V2p
IrEEqSNzOvhxrR3PhETrR9Gvbch8KKvH8jd6dF9fxQIUiqNa4xtsAeNdjtlo1vQJ
GzLckbUs9SDrjANtJkm4k8SFXdjSm69WaswFM8ygQp40VUSca6DUEtArVM23iQ3l
9uvo+4UBM096a/GdcjOWDveyhKWlJ8Qn8VFzKXe6Z27+TNy04qGhgS85SY1DOBPO
0KVcwoc6AGdlQiPxNlkKHaNRyLyjlCox3+M88p0aPASw77EKMBNzttfzo0wBdRSF
eMDXijlYhVD6LubFvs+LP6+PNtQlCS3SD6xyk/K/i9RQs/kVUJuZ9RTZ+4uRozIm
JqD43ztggYaDeVsr6xM9KTrBbd29no6H1kquNJcF7hSm9tw4fkrpJFQHPZdoN0Zr
DceoIa8TVOQJavFNRgrJXfubT73e+7dUy7g4nKc5+2otwHuNq6WnV+xKkoozxeEg
XHPYkJIrgNUPhhhpfDlPhIa890xb89W0yqDC8DciynlSH1PmqvOQsDvd8ij9rOvF
BiSgydQvD1j9tZ7sD8+yWdCiBHo4aq5y+73wJWKUCacFCwIDAQABo4IBYTCCAV0w
SAYDVR0gBEEwPzA9BgRVHSAAMDUwMwYIKwYBBQUHAgEWJ2h0dHA6Ly93d3cuZGln
aW5vdGFyLm5sL2Nwcy9wa2lvdmVyaGVpZDAPBgNVHRMBAf8EBTADAQH/MA4GA1Ud
DwEB/wQEAwIBBjCBhQYDVR0jBH4wfIAUORCLSZJc22ESIM1JnRqO2pxnQLmhXqRc
MFoxCzAJBgNVBAYTAk5MMR4wHAYDVQQKDBVTdGFhdCBkZXIgTmVkZXJsYW5kZW4x
KzApBgNVBAMMIlN0YWF0IGRlciBOZWRlcmxhbmRlbiBSb290IENBIC0gRzKCBACY
lvQwSQYDVR0fBEIwQDA+oDygOoY4aHR0cDovL2NybC5wa2lvdmVyaGVpZC5ubC9E
b21PcmdhbmlzYXRpZUxhdGVzdENSTC1HMi5jcmwwHQYDVR0OBBYEFLxdlDvZq3sD
JXNhwtst7vyrj2WhMA0GCSqGSIb3DQEBCwUAA4ICAQCP/C1Mt9kt1R+978v0t2gX
dZ1O1ffdnPEqJu2forYcA9VTs+wIzzTi48P0tRYvyMO+19NzqwA2+RpKftZj6V5G
uqW2jhW3oyrYQx3vXcgfgYWzi/f/PPTZ9EYIP5y8HaDZqEzNJVJOCrEg9x/pQ9lU
RoETmsBedGwqmDLq/He7DaWiMZgifnx859qkrey3LhoZcfhIUNpDjyyE3cFAJ+O1
8BVOltT4XOOGKUYr1zsH6zh/yIZXl9PvKjPEF1DVZGlrK2tFXl0vF8paTs/D1zk8
9TufRrmb5w5Jl53W1eMbD+qPAU6aE5RZCgIHSEsaYKt/T+0L2FUNaG9VnGllFULs
wNzdbKzDFs4LHVabpMTE0i7gD+JEJytQaaTcYuiKISlCbMwAOpZ2m+9AwKRed4Qy
bCYqOWauXeO5ubIsaB8empADOfCqs6TMSYsYNOk3yXspx4R8b0QVL+xhWQTJRcui
1lKifH8pktZKxYtCqNT+6tjHhyMY5J16fXNAUpigrm7jBT8FD+Clxm1N7YM3iJzH
89xCmmq21yFJNnfy7xhPxXDZnunetyuL9Lx+KN8NQMmFXK6dxTH/0FwOtah+8Okv
uq+IruW10Vilr5xxpykBkINpN4IFuvwJwQhujHg7wzMCgD9EhQgd31VWCK0shS1d
sQPhrqp0xaTzTro3mHuCuQ==
-----END CERTIFICATE-----
