Certificate:
    Data:
        Version: 3 (0x2)
        Serial Number: 120024017 (0x7276bd1)
        Signature Algorithm: sha1WithRSAEncryption
        Issuer: C = IE, O = Baltimore, OU = CyberTrust, CN = Baltimore CyberTrust Root
        Validity
            Not Before: Jan 11 22:11:50 2012 GMT
            Not After : Jan 11 22:11:31 2022 GMT
        Subject: C = BE, O = Certipost s.a./n.v., CN = Certipost E-Trust Primary Normalised CA
        Subject Public Key Info:
            Public Key Algorithm: rsaEncryption
                Public-Key: (2048 bit)
                Modulus:
                    00:d5:b3:aa:52:84:7a:17:93:22:0f:b8:04:18:ca:
                    c9:f2:82:2a:ac:15:0b:a7:50:71:b6:4c:25:6b:f7:
                    ff:01:aa:57:5a:77:4e:5e:13:14:0d:55:f2:1e:f1:
                    85:cd:85:d7:82:1c:0c:da:09:2b:bd:fd:bc:9e:fe:
                    6d:89:4d:a2:02:24:e6:51:ea:37:7f:31:46:5a:7b:
                    9a:76:b3:2e:a0:5d:5f:e4:f8:99:0a:07:be:ee:92:
                    26:12:c9:7b:e7:5d:6c:d0:83:47:0e:c0:8c:a7:d1:
                    79:57:c0:0b:19:9c:9b:9e:43:c5:4e:91:25:ce:88:
                    2b:6d:79:d9:79:8a:d6:66:4e:22:c3:1a:45:4e:ef:
                    c8:b0:62:26:4e:26:54:50:9f:0c:6f:b3:6b:cc:7c:
                    9f:7f:de:0f:0d:b5:8f:c3:6b:d4:e1:c2:fb:bb:56:
                    50:aa:8c:3d:8f:00:8b:3c:fc:48:17:6a:d2:5a:f3:
                    75:6d:65:81:bd:46:5d:9f:a2:62:53:ae:ce:f3:a9:
                    e4:91:2b:5a:26:c3:79:66:d1:a6:53:66:35:1c:06:
                    71:b1:ee:99:0e:c4:fb:58:12:ac:22:46:2d:e2:22:
                    92:db:e1:3c:bf:bb:fe:86:e7:93:34:73:cf:78:69:
                    d3:cb:de:f9:0c:b2:68:da:c9:8a:0a:60:54:c4:f3:
                    56:63
                Exponent: 65537 (0x10001)
        X509v3 extensions:
            X509v3 Basic Constraints: critical
                CA:TRUE, pathlen:1
            X509v3 Certificate Policies: 
                Policy: X509v3 Any Policy
                  CPS: https://www.certipost.com/showpolicy
            X509v3 Key Usage: critical
                Certificate Sign, CRL Sign
            X509v3 Authority Key Identifier: 
                E5:9D:59:30:82:47:58:CC:AC:FA:08:54:36:86:7B:3A:B5:04:4D:F0
            X509v3 CRL Distribution Points: 
                Full Name:
                  URI:http://cdp1.public-trust.com/CRL/Omniroot2025.crl
            X509v3 Subject Key Identifier: 
                11:F2:0B:96:D2:33:38:81:57:58:13:FD:40:A4:11:6F:4E:99:FA:67
    Signature Algorithm: sha1WithRSAEncryption
    Signature Value:
        83:4d:fc:e1:36:19:67:f9:a8:99:06:f7:43:2a:fc:5d:fb:f3:
        11:f8:7a:1f:3b:00:25:be:f5:7d:54:33:54:1f:90:7c:7d:1f:
        af:14:c1:38:3e:00:e0:eb:4c:e7:b6:06:44:62:0e:05:53:5d:
        ca:e7:7f:f6:53:d9:b8:be:f0:62:2e:94:4b:05:62:31:c9:76:
        99:f2:1c:2c:c7:ca:d1:70:a6:6f:39:16:a2:dc:13:03:39:4c:
        6a:2b:45:c0:97:97:af:6f:1c:dc:76:ba:67:d5:aa:3f:7c:95:
        11:2b:a2:01:6b:c8:db:94:1a:e1:37:29:e9:5c:28:63:e7:e7:
        67:35:28:5e:7e:53:74:9a:98:77:41:7a:8d:b3:c8:c0:17:19:
        b0:e3:93:aa:82:e3:bc:b4:47:c6:a6:0b:c6:a3:88:67:b6:c0:
        3c:95:6b:31:7a:b4:ab:b5:09:49:9d:5d:da:72:86:ae:5d:13:
        eb:a0:e7:53:53:6f:ae:2c:3e:5d:25:41:c4:5b:64:01:ff:8b:
        a6:fb:dc:53:04:3b:72:67:9e:58:81:38:36:69:a9:67:6c:f7:
        ad:d2:55:23:5b:74:91:35:80:44:68:45:83:36:c1:f4:bd:3a:
        16:ee:c8:d3:49:8d:20:11:6a:ef:04:e5:0c:f7:9b:be:6d:be:
        e6:22:9f:3c
-----BEGIN CERTIFICATE-----
MIIEKDCCAxCgAwIBAgIEBydr0TANBgkqhkiG9w0BAQUFADBaMQswCQYDVQQGEwJJ
RTESMBAGA1UEChMJQmFsdGltb3JlMRMwEQYDVQQLEwpDeWJlclRydXN0MSIwIAYD
VQQDExlCYWx0aW1vcmUgQ3liZXJUcnVzdCBSb290MB4XDTEyMDExMTIyMTE1MFoX
DTIyMDExMTIyMTEzMVowXTELMAkGA1UEBhMCQkUxHDAaBgNVBAoTE0NlcnRpcG9z
dCBzLmEuL24udi4xMDAuBgNVBAMTJ0NlcnRpcG9zdCBFLVRydXN0IFByaW1hcnkg
Tm9ybWFsaXNlZCBDQTCCASIwDQYJKoZIhvcNAQEBBQADggEPADCCAQoCggEBANWz
qlKEeheTIg+4BBjKyfKCKqwVC6dQcbZMJWv3/wGqV1p3Tl4TFA1V8h7xhc2F14Ic
DNoJK739vJ7+bYlNogIk5lHqN38xRlp7mnazLqBdX+T4mQoHvu6SJhLJe+ddbNCD
Rw7AjKfReVfACxmcm55DxU6RJc6IK2152XmK1mZOIsMaRU7vyLBiJk4mVFCfDG+z
a8x8n3/eDw21j8Nr1OHC+7tWUKqMPY8Aizz8SBdq0lrzdW1lgb1GXZ+iYlOuzvOp
5JErWibDeWbRplNmNRwGcbHumQ7E+1gSrCJGLeIiktvhPL+7/obnkzRzz3hp08ve
+QyyaNrJigpgVMTzVmMCAwEAAaOB8jCB7zASBgNVHRMBAf8ECDAGAQH/AgEBMEUG
A1UdIAQ+MDwwOgYEVR0gADAyMDAGCCsGAQUFBwIBFiRodHRwczovL3d3dy5jZXJ0
aXBvc3QuY29tL3Nob3dwb2xpY3kwDgYDVR0PAQH/BAQDAgEGMB8GA1UdIwQYMBaA
FOWdWTCCR1jMrPoIVDaGezq1BE3wMEIGA1UdHwQ7MDkwN6A1oDOGMWh0dHA6Ly9j
ZHAxLnB1YmxpYy10cnVzdC5jb20vQ1JML09tbmlyb290MjAyNS5jcmwwHQYDVR0O
BBYEFBHyC5bSMziBV1gT/UCkEW9OmfpnMA0GCSqGSIb3DQEBBQUAA4IBAQCDTfzh
Nhln+aiZBvdDKvxd+/MR+HofOwAlvvV9VDNUH5B8fR+vFME4PgDg60zntgZEYg4F
U13K53/2U9m4vvBiLpRLBWIxyXaZ8hwsx8rRcKZvORai3BMDOUxqK0XAl5evbxzc
drpn1ao/fJURK6IBa8jblBrhNynpXChj5+dnNSheflN0mph3QXqNs8jAFxmw45Oq
guO8tEfGpgvGo4hntsA8lWsxerSrtQlJnV3acoauXRProOdTU2+uLD5dJUHEW2QB
/4um+9xTBDtyZ55YgTg2aalnbPet0lUjW3SRNYBEaEWDNsH0vToW7sjTSY0gEWrv
BOUM95u+bb7mIp88
-----END CERTIFICATE-----
