Certificate:
    Data:
        Version: 3 (0x2)
        Serial Number:
            d8:f3:5f:4e:b7:87:2b:2d:ab:06:92:e3:15:38:2f:b0
    Signature Algorithm: sha1WithRSAEncryption
        Issuer: C=US, ST=UT, L=Salt Lake City, O=The USERTRUST Network, OU=http://www.usertrust.com, CN=UTN-USERFirst-Hardware
        Validity
            Not Before: Mar 15 00:00:00 2011 GMT
            Not After : Mar 14 23:59:59 2014 GMT
        Subject: C=US/postalCode=38477, ST=Florida, L=Tampa/street=Sea Village 10, O=Global Trustee, OU=Global Trustee, OU=Hosted by GTI Group Corporation, OU=PlatinumSSL, CN=global trustee
        Subject Public Key Info:
            Public Key Algorithm: rsaEncryption
                Public-Key: (4096 bit)
                Modulus:
                    00:d9:74:f2:aa:41:1d:df:f5:c2:16:43:49:5c:29:
                    bf:b6:89:74:29:bc:9c:8d:0c:46:4f:59:7e:b2:41:
                    17:66:34:0c:65:89:e1:6c:25:e3:86:0a:9e:22:45:
                    22:8c:dd:9d:e6:a3:95:de:dc:88:02:55:5c:e3:5b:
                    91:75:eb:26:69:63:b9:2e:c6:ca:2e:27:df:88:ba:
                    02:20:6e:fe:b9:0b:29:d7:a7:d6:d7:48:1a:1c:ce:
                    dd:1f:a9:27:0e:62:4f:a1:96:1e:dd:54:3a:34:63:
                    4a:76:f5:77:7d:59:67:d8:10:d4:b5:0f:3a:43:22:
                    98:db:f4:09:c4:0a:70:ce:dd:90:d4:2f:ef:74:13:
                    c3:cd:c2:89:39:62:15:9d:e6:74:a8:e8:9b:f0:63:
                    6e:9c:89:b6:0e:ad:9b:f7:cc:82:e8:e8:2d:b8:0b:
                    da:22:ec:49:85:07:88:99:98:3f:f4:74:a9:09:f7:
                    81:7c:97:0b:59:99:18:72:8b:db:94:82:2b:a7:e8:
                    aa:6b:97:bf:88:7e:75:b0:8b:45:45:0c:c7:a8:09:
                    ea:1b:41:58:30:3b:5f:78:65:15:34:d2:e4:3c:34:
                    0d:1d:d8:64:3c:8a:a5:56:49:99:28:2d:4b:f2:cf:
                    cd:d9:6e:49:64:9b:a9:79:90:77:55:a9:08:1b:ad:
                    1a:74:9e:e0:03:93:0a:09:b7:ad:a7:b4:5c:ef:83:
                    6c:b7:9a:b4:c6:68:40:80:1d:42:d1:6e:79:9b:a9:
                    19:21:9a:9c:f9:86:2d:00:d1:34:fe:e0:b6:f9:55:
                    b6:f5:26:c5:95:16:a5:7c:73:9f:0a:29:89:ac:3a:
                    98:f7:9b:74:67:b7:90:b7:5d:09:23:6a:6a:ed:2c:
                    10:ee:53:0a:10:f0:16:1f:57:b3:b1:0d:79:91:19:
                    b0:eb:cd:30:3f:a0:14:5f:b3:c6:fd:5c:33:a7:b0:
                    ff:98:b0:55:8c:b9:a5:f2:6f:47:24:49:21:69:cc:
                    42:a2:51:00:40:85:8c:82:82:ab:32:a5:cb:9a:dc:
                    d0:d9:18:0d:df:19:f4:af:83:0d:c1:3e:31:db:24:
                    48:b6:75:80:a1:e1:c9:77:64:1e:a7:e5:8b:7f:15:
                    4d:4b:a7:c2:d0:ed:79:95:5e:91:31:ec:18:ff:4e:
                    9f:48:14:ea:75:ba:21:ce:29:76:e9:1f:4e:51:87:
                    2e:b3:cc:04:60:ba:23:1f:1f:65:b2:0a:b8:d5:6e:
                    8f:4b:42:89:47:a9:81:90:5b:2b:b2:b6:ae:e6:a0:
                    70:7b:78:90:0a:7a:c5:e5:e7:c5:fb:0a:f6:2f:69:
                    8c:8c:1f:57:e0:06:99:ff:11:d5:52:32:20:97:27:
                    98:ee:65
                Exponent: 65537 (0x10001)
        X509v3 extensions:
            X509v3 Authority Key Identifier: 
                keyid:A1:72:5F:26:1B:28:98:43:95:5D:07:37:D5:85:96:9D:4B:D2:C3:45

            X509v3 Subject Key Identifier: 
                B7:C3:DE:1A:43:ED:41:97:A9:8F:29:78:9C:03:B9:AC:40:42:00:AC
            X509v3 Key Usage: critical
                Digital Signature, Key Encipherment
            X509v3 Basic Constraints: critical
                CA:FALSE
            X509v3 Extended Key Usage: 
                TLS Web Server Authentication, TLS Web Client Authentication
            X509v3 Certificate Policies: 
                Policy: 1.3.6.1.4.1.6449.1.2.1.3.4
                  CPS: https://secure.comodo.com/CPS

            X509v3 CRL Distribution Points: 

                Full Name:
                  URI:http://crl.comodoca.com/UTN-USERFirst-Hardware.crl

                Full Name:
                  URI:http://crl.comodo.net/UTN-USERFirst-Hardware.crl

            Authority Information Access: 
                CA Issuers - URI:http://crt.comodoca.com/UTNAddTrustServerCA.crt
                OCSP - URI:http://ocsp.comodoca.com

            X509v3 Subject Alternative Name: 
                DNS:global trustee
    Signature Algorithm: sha1WithRSAEncryption
         8f:ba:75:ba:39:d4:26:d3:70:0f:c4:b3:02:a7:c5:12:23:71:
         c9:fe:63:e9:a3:62:78:24:44:4f:d4:b9:11:3e:1f:c7:28:e7:
         55:6b:ee:f4:e1:00:91:86:8a:c9:09:6b:9f:2e:a4:45:39:d1:
         61:62:5e:93:a5:05:45:78:9f:60:12:2c:f4:6c:65:65:0d:cc:
         46:34:8b:28:ba:a0:c6:f4:99:71:64:f3:22:76:ac:4f:f3:62:
         c9:a7:33:5a:07:1f:3d:c9:86:80:dc:db:04:2f:87:27:e8:bf:
         48:44:81:c0:f0:49:23:6e:1f:e5:e4:03:86:24:13:a2:85:62:
         7c:58:04:ca:e6:8d:13:72:0a:ba:56:44:a2:0f:bc:fb:a0:3d:
         0d:2a:7f:fb:9e:a9:09:3d:b7:5a:d4:8a:8d:e1:25:e8:a4:09:
         84:70:ad:12:44:b9:cf:b9:33:7a:ba:5c:e6:4b:a6:bb:05:06:
         98:ff:f2:98:52:7b:77:80:27:4a:d9:e2:fa:b9:52:d4:fb:fb:
         e6:d6:2d:9e:8f:c1:15:44:8d:9b:74:2f:ee:94:5a:4e:d3:c4:
         8b:8a:ac:43:9d:73:f6:ae:0c:87:89:ad:87:c9:c9:c7:dd:ba:
         14:60:7a:f8:b5:35:9d:c2:8d:c6:96:81:0d:a9:52:8a:29:40:
         04:e9:19:b4
-----BEGIN CERTIFICATE-----
MIIG3TCCBcWgAwIBAgIRANjzX063hystqwaS4xU4L7AwDQYJKoZIhvcNAQEFBQAw
gZcxCzAJBgNVBAYTAlVTMQswCQYDVQQIEwJVVDEXMBUGA1UEBxMOU2FsdCBMYWtl
IENpdHkxHjAcBgNVBAoTFVRoZSBVU0VSVFJVU1QgTmV0d29yazEhMB8GA1UECxMY
aHR0cDovL3d3dy51c2VydHJ1c3QuY29tMR8wHQYDVQQDExZVVE4tVVNFUkZpcnN0
LUhhcmR3YXJlMB4XDTExMDMxNTAwMDAwMFoXDTE0MDMxNDIzNTk1OVowgeMxCzAJ
BgNVBAYTAlVTMQ4wDAYDVQQREwUzODQ3NzEQMA4GA1UECBMHRmxvcmlkYTEOMAwG
A1UEBxMFVGFtcGExFzAVBgNVBAkTDlNlYSBWaWxsYWdlIDEwMRcwFQYDVQQKEw5H
bG9iYWwgVHJ1c3RlZTEXMBUGA1UECxMOR2xvYmFsIFRydXN0ZWUxKDAmBgNVBAsT
H0hvc3RlZCBieSBHVEkgR3JvdXAgQ29ycG9yYXRpb24xFDASBgNVBAsTC1BsYXRp
bnVtU1NMMRcwFQYDVQQDEw5nbG9iYWwgdHJ1c3RlZTCCAiIwDQYJKoZIhvcNAQEB
BQADggIPADCCAgoCggIBANl08qpBHd/1whZDSVwpv7aJdCm8nI0MRk9ZfrJBF2Y0
DGWJ4Wwl44YKniJFIozdneajld7ciAJVXONbkXXrJmljuS7Gyi4n34i6AiBu/rkL
Kden1tdIGhzO3R+pJw5iT6GWHt1UOjRjSnb1d31ZZ9gQ1LUPOkMimNv0CcQKcM7d
kNQv73QTw83CiTliFZ3mdKjom/BjbpyJtg6tm/fMgujoLbgL2iLsSYUHiJmYP/R0
qQn3gXyXC1mZGHKL25SCK6foqmuXv4h+dbCLRUUMx6gJ6htBWDA7X3hlFTTS5Dw0
DR3YZDyKpVZJmSgtS/LPzdluSWSbqXmQd1WpCButGnSe4AOTCgm3rae0XO+DbLea
tMZoQIAdQtFueZupGSGanPmGLQDRNP7gtvlVtvUmxZUWpXxznwopiaw6mPebdGe3
kLddCSNqau0sEO5TChDwFh9Xs7ENeZEZsOvNMD+gFF+zxv1cM6ew/5iwVYy5pfJv
RyRJIWnMQqJRAECFjIKCqzKly5rc0NkYDd8Z9K+DDcE+MdskSLZ1gKHhyXdkHqfl
i38VTUunwtDteZVekTHsGP9On0gU6nW6Ic4pdukfTlGHLrPMBGC6Ix8fZbIKuNVu
j0tCiUepgZBbK7K2ruagcHt4kAp6xeXnxfsK9i9pjIwfV+AGmf8R1VIyIJcnmO5l
AgMBAAGjggHUMIIB0DAfBgNVHSMEGDAWgBShcl8mGyiYQ5VdBzfVhZadS9LDRTAd
BgNVHQ4EFgQUt8PeGkPtQZepjyl4nAO5rEBCAKwwDgYDVR0PAQH/BAQDAgWgMAwG
A1UdEwEB/wQCMAAwHQYDVR0lBBYwFAYIKwYBBQUHAwEGCCsGAQUFBwMCMEYGA1Ud
IAQ/MD0wOwYMKwYBBAGyMQECAQMEMCswKQYIKwYBBQUHAgEWHWh0dHBzOi8vc2Vj
dXJlLmNvbW9kby5jb20vQ1BTMHsGA1UdHwR0MHIwOKA2oDSGMmh0dHA6Ly9jcmwu
Y29tb2RvY2EuY29tL1VUTi1VU0VSRmlyc3QtSGFyZHdhcmUuY3JsMDagNKAyhjBo
dHRwOi8vY3JsLmNvbW9kby5uZXQvVVROLVVTRVJGaXJzdC1IYXJkd2FyZS5jcmww
cQYIKwYBBQUHAQEEZTBjMDsGCCsGAQUFBzAChi9odHRwOi8vY3J0LmNvbW9kb2Nh
LmNvbS9VVE5BZGRUcnVzdFNlcnZlckNBLmNydDAkBggrBgEFBQcwAYYYaHR0cDov
L29jc3AuY29tb2RvY2EuY29tMBkGA1UdEQQSMBCCDmdsb2JhbCB0cnVzdGVlMA0G
CSqGSIb3DQEBBQUAA4IBAQCPunW6OdQm03APxLMCp8USI3HJ/mPpo2J4JERP1LkR
Ph/HKOdVa+704QCRhorJCWufLqRFOdFhYl6TpQVFeJ9gEiz0bGVlDcxGNIsouqDG
9JlxZPMidqxP82LJpzNaBx89yYaA3NsEL4cn6L9IRIHA8Ekjbh/l5AOGJBOihWJ8
WATK5o0Tcgq6VkSiD7z7oD0NKn/7nqkJPbda1IqN4SXopAmEcK0SRLnPuTN6ulzm
S6a7BQaY//KYUnt3gCdK2eL6uVLU+/vm1i2ej8EVRI2bdC/ulFpO08SLiqxDnXP2
rgyHia2HycnH3boUYHr4tTWdwo3GloENqVKKKUAE6Rm0
-----END CERTIFICATE-----
