Certificate:
    Data:
        Version: 3 (0x2)
        Serial Number: 3301752398764465683 (0x2dd22e5030a65e13)
        Signature Algorithm: sha256WithRSAEncryption
        Issuer: C = ES, ST = MADRID, L = MADRID, OU = see current address at www.camerfirma.com/address, OU = GLOBAL CHAMBERSIGN ROOT - 2016, serialNumber = A82743287, organizationIdentifier = VATES-A82743287, O = AC CAMERFIRMA S.A., CN = GLOBAL CHAMBERSIGN ROOT - 2016
        Validity
            Not Before: Apr 14 07:50:06 2016 GMT
            Not After : Apr  8 07:50:06 2040 GMT
        Subject: C = ES, ST = MADRID, L = MADRID, OU = see current address at www.camerfirma.com/address, OU = GLOBAL CHAMBERSIGN ROOT - 2016, serialNumber = A82743287, organizationIdentifier = VATES-A82743287, O = AC CAMERFIRMA S.A., CN = GLOBAL CHAMBERSIGN ROOT - 2016
        Subject Public Key Info:
            Public Key Algorithm: rsaEncryption
                RSA Public-Key: (4096 bit)
                Modulus:
                    00:d0:6b:e7:9e:22:2b:53:76:15:55:af:4c:4a:c0:
                    6d:6b:fb:f9:84:44:05:a1:7d:60:ce:05:ec:9e:98:
                    73:fa:5b:84:07:31:f7:ff:3d:6b:c7:7e:56:06:62:
                    a5:5c:96:96:d3:f1:5e:59:7e:eb:31:1c:bf:77:57:
                    30:54:ef:1e:c5:cc:c4:b2:ea:db:e6:8a:d0:f4:28:
                    84:c8:b0:48:2d:2c:96:6d:fb:22:a8:35:8e:be:de:
                    70:15:10:f9:66:41:46:16:a0:43:64:3f:8d:4a:f3:
                    80:31:cf:93:80:7e:9a:db:a5:af:8f:6c:2c:fd:0e:
                    ef:1c:79:dc:0f:a2:6e:84:5c:22:89:0e:44:2e:48:
                    a8:94:73:ec:39:32:91:1c:e2:14:bd:7d:65:e6:72:
                    fe:5b:e7:54:75:2f:7d:0e:e2:c6:ca:69:2e:5e:a2:
                    0e:d5:e8:85:de:3f:6b:7f:a5:82:b0:46:7d:5d:9e:
                    71:ba:14:b4:eb:ed:c7:c2:14:64:0c:58:6e:4f:95:
                    36:61:36:45:60:36:66:18:4b:95:1a:3e:58:ac:8b:
                    26:1e:25:e6:fa:95:00:fb:ad:12:9e:fa:12:61:be:
                    1a:de:a6:7c:e9:ab:ff:d7:94:89:72:42:fc:bb:45:
                    11:ec:3f:70:fc:19:c4:9a:ea:97:6e:ac:e4:38:04:
                    3b:e1:3f:01:28:71:a3:e2:ae:43:64:78:16:99:02:
                    5a:bf:d7:c4:ef:b5:b7:d5:c3:58:81:41:86:e4:b2:
                    8c:00:a5:88:98:98:eb:09:e7:58:31:68:31:de:ed:
                    e2:49:35:f3:d2:b3:57:dc:c4:42:9f:fd:3c:ef:d0:
                    f5:2b:39:6e:61:ae:7a:e1:c7:7a:3d:6d:17:30:6c:
                    02:ac:89:d6:5a:84:9c:29:c0:9e:10:8e:b8:20:36:
                    33:ca:80:2b:68:7f:36:75:65:15:f8:c3:da:ff:71:
                    a2:fc:ed:9b:77:dc:19:fa:f1:c8:b6:05:f4:e5:70:
                    92:a9:c8:dd:b8:b0:1a:55:5b:91:dc:b8:e5:9a:b5:
                    03:c0:ad:b6:ae:f1:99:7b:4b:b5:89:0e:de:64:0b:
                    64:7e:54:ee:a7:c3:8a:98:19:c5:fc:3c:13:08:45:
                    3e:df:9f:fb:c7:7d:b1:a0:82:36:14:3d:c0:63:00:
                    01:66:c4:e4:f0:99:3b:1e:51:78:5d:b9:17:3c:58:
                    93:15:af:a8:f5:25:20:19:8d:23:3d:12:3c:42:eb:
                    2f:5d:42:8e:f2:30:a8:25:5a:e6:fa:f7:4f:6d:be:
                    26:58:f5:8f:7f:f7:8a:f8:b3:6e:c3:1b:f2:31:85:
                    36:71:8e:fd:3b:d6:e6:30:35:cb:25:8d:65:89:57:
                    a8:33:95
                Exponent: 65537 (0x10001)
        X509v3 extensions:
            X509v3 Basic Constraints: critical
                CA:TRUE
            X509v3 Subject Key Identifier: 
                E8:9B:CD:7E:86:62:9B:7A:4D:8C:00:97:39:85:CF:1C:78:90:70:3A
            X509v3 Key Usage: critical
                Certificate Sign, CRL Sign
    Signature Algorithm: sha256WithRSAEncryption
         7b:fd:2a:c3:cb:1b:29:02:10:09:ad:eb:2e:b3:2b:6d:d9:4b:
         a0:db:35:98:f5:8f:02:a7:d3:42:0b:43:ab:83:b5:77:47:88:
         46:85:dd:d1:b6:1e:7d:98:1b:8c:71:be:aa:c8:f0:ef:c6:6a:
         2d:56:98:52:e8:96:89:fb:d5:ea:00:df:fe:e6:22:ca:a7:b9:
         3e:65:44:75:c3:8a:bf:8b:77:89:c3:6a:57:fa:bc:c8:e1:10:
         de:f1:da:85:27:f1:ed:07:ff:d5:c2:42:d4:a2:61:2f:df:88:
         71:e3:34:e6:67:64:9b:c6:7a:19:eb:39:ef:f3:ea:04:a8:74:
         69:4c:80:b5:fc:ad:bd:0d:08:f4:c8:ef:28:27:82:ca:dd:e8:
         f3:ba:57:67:a2:ea:29:c1:99:e1:76:66:f9:f6:78:5d:9c:3e:
         f0:f6:cf:a1:19:34:d3:f1:3c:33:a1:cc:82:32:b6:48:e3:83:
         3e:0f:bf:67:95:c1:a2:99:78:42:43:f7:03:4d:13:57:6f:dd:
         71:dd:16:f3:fb:79:38:1b:62:9a:a4:cd:5e:50:de:11:20:90:
         8a:22:98:ab:da:46:7a:4c:34:d1:48:dd:d9:66:65:62:54:05:
         d9:74:99:67:74:57:b1:3a:2e:18:b0:ae:ac:9f:3f:2e:eb:1f:
         b2:9c:cd:8e:f8:db:78:8e:d4:06:cf:a3:93:31:6b:7f:ed:52:
         72:b7:8b:cf:28:6f:c9:f9:54:4f:01:d4:3a:86:e8:2e:fa:e1:
         d0:25:84:e3:16:fc:8c:8d:24:e3:64:cc:2a:8c:b2:60:53:9f:
         59:92:45:09:94:5b:a8:10:85:32:cb:77:f2:8e:95:8a:44:72:
         cf:6e:17:de:44:bd:0a:ae:fd:26:b6:3d:79:66:3d:4d:bc:7e:
         32:43:5d:db:e0:65:b5:28:69:ba:7c:9e:32:4a:8f:ea:7a:b0:
         3d:16:5d:fd:3e:fa:1b:04:f8:10:35:78:cc:ed:c1:d9:2d:bf:
         6b:d2:ef:e9:9f:c0:5b:8f:ea:be:7a:d1:31:e7:06:3d:ad:84:
         ab:ec:3b:f1:12:c7:7f:f1:f8:46:2f:09:78:97:c0:27:3d:b1:
         3f:71:23:8b:1a:a7:5c:e6:16:25:0e:26:4d:b9:0e:56:a7:52:
         a4:38:09:af:49:05:fe:7f:ce:3f:c2:fc:e6:e4:4a:94:27:e5:
         53:c4:88:34:eb:02:57:bc:ce:8e:2b:ad:77:53:72:40:bb:85:
         16:55:19:2f:83:76:95:a3:76:39:a8:b2:f4:7d:a4:db:00:42:
         7a:a0:7b:8e:19:06:e4:97:cd:5b:3d:3a:b4:5c:c0:69:1f:32:
         66:bf:08:9f:84:9b:22:65
-----BEGIN CERTIFICATE-----
MIIG2DCCBMCgAwIBAgIILdIuUDCmXhMwDQYJKoZIhvcNAQELBQAwggEIMQswCQYD
VQQGEwJFUzEPMA0GA1UECAwGTUFEUklEMQ8wDQYDVQQHDAZNQURSSUQxOjA4BgNV
BAsMMXNlZSBjdXJyZW50IGFkZHJlc3MgYXQgd3d3LmNhbWVyZmlybWEuY29tL2Fk
ZHJlc3MxJzAlBgNVBAsMHkdMT0JBTCBDSEFNQkVSU0lHTiBST09UIC0gMjAxNjES
MBAGA1UEBRMJQTgyNzQzMjg3MRgwFgYDVQRhDA9WQVRFUy1BODI3NDMyODcxGzAZ
BgNVBAoMEkFDIENBTUVSRklSTUEgUy5BLjEnMCUGA1UEAwweR0xPQkFMIENIQU1C
RVJTSUdOIFJPT1QgLSAyMDE2MB4XDTE2MDQxNDA3NTAwNloXDTQwMDQwODA3NTAw
NlowggEIMQswCQYDVQQGEwJFUzEPMA0GA1UECAwGTUFEUklEMQ8wDQYDVQQHDAZN
QURSSUQxOjA4BgNVBAsMMXNlZSBjdXJyZW50IGFkZHJlc3MgYXQgd3d3LmNhbWVy
ZmlybWEuY29tL2FkZHJlc3MxJzAlBgNVBAsMHkdMT0JBTCBDSEFNQkVSU0lHTiBS
T09UIC0gMjAxNjESMBAGA1UEBRMJQTgyNzQzMjg3MRgwFgYDVQRhDA9WQVRFUy1B
ODI3NDMyODcxGzAZBgNVBAoMEkFDIENBTUVSRklSTUEgUy5BLjEnMCUGA1UEAwwe
R0xPQkFMIENIQU1CRVJTSUdOIFJPT1QgLSAyMDE2MIICIjANBgkqhkiG9w0BAQEF
AAOCAg8AMIICCgKCAgEA0GvnniIrU3YVVa9MSsBta/v5hEQFoX1gzgXsnphz+luE
BzH3/z1rx35WBmKlXJaW0/FeWX7rMRy/d1cwVO8exczEsurb5orQ9CiEyLBILSyW
bfsiqDWOvt5wFRD5ZkFGFqBDZD+NSvOAMc+TgH6a26Wvj2ws/Q7vHHncD6JuhFwi
iQ5ELkiolHPsOTKRHOIUvX1l5nL+W+dUdS99DuLGymkuXqIO1eiF3j9rf6WCsEZ9
XZ5xuhS06+3HwhRkDFhuT5U2YTZFYDZmGEuVGj5YrIsmHiXm+pUA+60SnvoSYb4a
3qZ86av/15SJckL8u0UR7D9w/BnEmuqXbqzkOAQ74T8BKHGj4q5DZHgWmQJav9fE
77W31cNYgUGG5LKMAKWImJjrCedYMWgx3u3iSTXz0rNX3MRCn/0879D1KzluYa56
4cd6PW0XMGwCrInWWoScKcCeEI64IDYzyoAraH82dWUV+MPa/3Gi/O2bd9wZ+vHI
tgX05XCSqcjduLAaVVuR3LjlmrUDwK22rvGZe0u1iQ7eZAtkflTup8OKmBnF/DwT
CEU+35/7x32xoII2FD3AYwABZsTk8Jk7HlF4XbkXPFiTFa+o9SUgGY0jPRI8Qusv
XUKO8jCoJVrm+vdPbb4mWPWPf/eK+LNuwxvyMYU2cY79O9bmMDXLJY1liVeoM5UC
AwEAAaNCMEAwDwYDVR0TAQH/BAUwAwEB/zAdBgNVHQ4EFgQU6JvNfoZim3pNjACX
OYXPHHiQcDowDgYDVR0PAQH/BAQDAgEGMA0GCSqGSIb3DQEBCwUAA4ICAQB7/SrD
yxspAhAJresusytt2Uug2zWY9Y8Cp9NCC0Org7V3R4hGhd3Rth59mBuMcb6qyPDv
xmotVphS6JaJ+9XqAN/+5iLKp7k+ZUR1w4q/i3eJw2pX+rzI4RDe8dqFJ/HtB//V
wkLUomEv34hx4zTmZ2SbxnoZ6znv8+oEqHRpTIC1/K29DQj0yO8oJ4LK3ejzuldn
ouopwZnhdmb59nhdnD7w9s+hGTTT8TwzocyCMrZI44M+D79nlcGimXhCQ/cDTRNX
b91x3Rbz+3k4G2KapM1eUN4RIJCKIpir2kZ6TDTRSN3ZZmViVAXZdJlndFexOi4Y
sK6snz8u6x+ynM2O+Nt4jtQGz6OTMWt/7VJyt4vPKG/J+VRPAdQ6hugu+uHQJYTj
FvyMjSTjZMwqjLJgU59ZkkUJlFuoEIUyy3fyjpWKRHLPbhfeRL0Krv0mtj15Zj1N
vH4yQ13b4GW1KGm6fJ4ySo/qerA9Fl39PvobBPgQNXjM7cHZLb9r0u/pn8Bbj+q+
etEx5wY9rYSr7DvxEsd/8fhGLwl4l8AnPbE/cSOLGqdc5hYlDiZNuQ5Wp1KkOAmv
SQX+f84/wvzm5EqUJ+VTxIg06wJXvM6OK613U3JAu4UWVRkvg3aVo3Y5qLL0faTb
AEJ6oHuOGQbkl81bPTq0XMBpHzJmvwifhJsiZQ==
-----END CERTIFICATE-----
