Certificate:
    Data:
        Version: 3 (0x2)
        Serial Number:
            5a:00:05:12:56:f2:c7:13:c0:f0:17:4c:e2:00:01:00:05:12:56
    Signature Algorithm: sha256WithRSAEncryption
        Issuer: C = US, ST = Washington, L = Redmond, O = Microsoft Corporation, OU = Microsoft IT, CN = Microsoft IT SSL SHA2
        Validity
            Not Before: Oct 29 20:09:06 2016 GMT
            Not After : Apr 29 20:09:06 2018 GMT
        Subject: C = US, ST = WA, L = Redmond, O = Microsoft Corporation, OU = Microsoft Corporation, CN = *.operations.dynamics.com
        Subject Public Key Info:
            Public Key Algorithm: rsaEncryption
                Public-Key: (2048 bit)
                Modulus:
                    00:c3:4a:fa:73:0d:82:26:ae:e3:a0:01:16:64:f5:
                    0f:47:f7:0f:ae:2c:bb:82:5d:0f:81:1f:15:27:1c:
                    20:30:a3:b7:d6:bf:17:ad:61:b4:5c:63:5d:4e:2f:
                    70:5f:e1:2e:3a:63:fc:c0:00:aa:4f:78:25:11:85:
                    fc:c6:fc:7e:25:d7:4f:1a:88:32:20:ae:34:aa:0d:
                    33:db:f2:05:6d:7d:82:2c:3d:6a:bb:47:1f:e2:93:
                    a5:6b:b4:9e:5e:a0:32:98:fb:6d:78:78:c3:61:58:
                    a7:3a:17:3f:88:1d:9a:bc:14:1a:a1:06:ec:ba:de:
                    4e:67:2a:2c:3b:0f:ff:5d:59:ac:24:9c:34:c8:07:
                    3e:51:43:a8:dd:48:c2:cb:37:93:c0:34:60:1e:81:
                    a2:7d:6f:fb:ac:ec:c5:96:7f:76:7a:21:6b:be:5c:
                    d3:42:aa:db:09:b1:36:48:c6:81:7b:64:51:76:4a:
                    22:2f:72:8c:a5:4a:a0:50:e5:45:ac:fb:c4:48:4e:
                    b3:15:dc:65:05:f8:06:17:4b:e3:ee:d0:08:20:2f:
                    15:66:28:6b:8b:b3:4d:fc:ad:4c:38:75:e0:06:4e:
                    4a:0d:9e:4d:19:dd:82:f6:3d:74:f5:7b:52:10:68:
                    e8:0a:75:fc:f6:d8:83:39:28:bd:fb:d1:b2:52:3c:
                    50:25
                Exponent: 65537 (0x10001)
        X509v3 extensions:
            S/MIME Capabilities: 
                0i0...*.H........0...*.H........0...`.H.e...*0...`.H.e...-0...`.H.e....0...`.H.e....0...+....0
..*.H....
            X509v3 Subject Key Identifier: 
                89:5B:02:C7:3B:BB:84:29:18:EF:49:46:F5:9C:C0:AF:91:21:F3:AB
            X509v3 Key Usage: 
                Digital Signature, Key Encipherment, Data Encipherment
            X509v3 Authority Key Identifier: 
                keyid:51:AF:24:26:9C:F4:68:22:57:80:26:2B:3B:46:62:15:7B:1E:CC:A5

            X509v3 CRL Distribution Points: 

                Full Name:
                  URI:http://mscrl.microsoft.com/pki/mscorp/crl/msitwww2.crl
                  URI:http://crl.microsoft.com/pki/mscorp/crl/msitwww2.crl

            Authority Information Access: 
                CA Issuers - URI:http://www.microsoft.com/pki/mscorp/msitwww2.crt
                OCSP - URI:http://ocsp.msocsp.com

            1.3.6.1.4.1.311.21.7: 
                0..&+.....7.....M..........}...t.O...|...2..d...
            X509v3 Extended Key Usage: 
                TLS Web Server Authentication, TLS Web Client Authentication
            X509v3 Certificate Policies: 
                Policy: 1.3.6.1.4.1.311.42.1
                  CPS: http://www.microsoft.com/pki/mscorp/cps

            1.3.6.1.4.1.311.21.10: 
                0.0
..+.......0
..+.......
            X509v3 Subject Alternative Name: 
                DNS:*.operations.dynamics.com
    Signature Algorithm: sha256WithRSAEncryption
         19:b9:39:7c:ce:01:e2:48:b4:27:3b:bb:c5:68:ff:5a:43:77:
         68:ac:0b:e7:7d:3b:7b:4f:f9:51:01:7e:7d:4d:7c:3d:d3:a6:
         07:b6:79:12:f5:20:11:d1:ba:8e:29:7b:12:3c:04:d4:39:9f:
         85:b9:e4:93:5c:6a:88:96:e2:fd:12:8e:50:31:92:2f:85:b6:
         73:5f:df:01:1c:50:22:6d:55:25:dc:85:9f:d0:53:58:59:b7:
         a3:ca:f1:08:c2:3b:4e:d5:31:42:3a:96:69:ed:03:55:d6:a9:
         7b:e3:2e:d5:0c:51:44:c0:3d:30:a6:42:be:10:a6:aa:86:46:
         72:80:01:35:ea:cb:2c:88:3d:3a:47:0d:50:69:a2:35:5b:ba:
         c7:c2:f0:65:76:40:2b:e6:e2:84:a8:07:b7:e0:97:f5:98:23:
         a3:ac:b7:ba:51:13:6a:ec:89:b4:f7:ed:8a:03:fb:8f:75:c6:
         83:7b:fa:fd:87:0d:40:55:e9:e3:2e:03:47:9a:67:7f:0a:1d:
         07:1e:06:8b:07:e5:6a:00:44:de:e0:60:00:00:c3:f7:ed:e1:
         52:a1:86:21:85:8e:41:fd:69:42:65:b0:aa:6c:45:fe:57:d3:
         7a:6e:a9:df:3b:a3:6f:ce:c1:30:ce:0b:06:89:00:0c:b2:66:
         c8:87:ba:72:8c:2d:17:49:aa:54:4a:fa:49:b4:a8:c6:57:ed:
         4e:de:37:5e:42:a1:09:cf:93:f3:93:8d:a8:32:7e:c0:02:3c:
         7b:57:5a:92:50:24:b0:46:69:bc:ab:22:ec:57:bb:f6:10:b2:
         2b:d6:8e:ec:9f:06:bb:8e:ff:eb:62:6c:a0:6e:22:ed:8e:b2:
         49:30:84:a2:9f:e3:39:5e:e5:84:3b:20:16:16:37:72:9b:b0:
         9a:07:88:db:f0:9d:15:31:fe:3a:80:d5:01:1d:89:26:c2:32:
         bb:33:56:c3:94:46:ba:13:03:f5:0c:32:25:eb:46:31:e2:25:
         19:40:c3:f2:14:71:9e:43:5b:5d:62:2c:41:9c:c4:a7:b2:07:
         4b:32:74:8d:d1:fc:e3:1a:13:57:5b:43:ee:fc:c8:7e:86:76:
         4b:59:c1:76:c0:f9:a8:a5:d0:08:71:2e:2f:65:d0:ee:c4:1a:
         fe:4a:06:ef:9a:71:bf:1e:84:1b:1f:bc:66:d1:8e:c5:18:1a:
         bf:c6:17:f9:24:cd:61:78:84:e1:4b:a6:66:9c:fe:c6:fd:c7:
         95:c4:60:82:15:db:cb:df:18:09:90:b4:cc:b4:ff:15:d1:d6:
         54:d0:e3:0f:a4:be:98:c7:33:25:29:96:ca:8b:ab:37:c4:95:
         61:13:14:57:c0:7d:4d:41
-----BEGIN CERTIFICATE-----
MIIHZTCCBU2gAwIBAgITWgAFElbyxxPA8BdM4gABAAUSVjANBgkqhkiG9w0BAQsF
ADCBizELMAkGA1UEBhMCVVMxEzARBgNVBAgTCldhc2hpbmd0b24xEDAOBgNVBAcT
B1JlZG1vbmQxHjAcBgNVBAoTFU1pY3Jvc29mdCBDb3Jwb3JhdGlvbjEVMBMGA1UE
CxMMTWljcm9zb2Z0IElUMR4wHAYDVQQDExVNaWNyb3NvZnQgSVQgU1NMIFNIQTIw
HhcNMTYxMDI5MjAwOTA2WhcNMTgwNDI5MjAwOTA2WjCBkDELMAkGA1UEBhMCVVMx
CzAJBgNVBAgTAldBMRAwDgYDVQQHEwdSZWRtb25kMR4wHAYDVQQKExVNaWNyb3Nv
ZnQgQ29ycG9yYXRpb24xHjAcBgNVBAsTFU1pY3Jvc29mdCBDb3Jwb3JhdGlvbjEi
MCAGA1UEAwwZKi5vcGVyYXRpb25zLmR5bmFtaWNzLmNvbTCCASIwDQYJKoZIhvcN
AQEBBQADggEPADCCAQoCggEBAMNK+nMNgiau46ABFmT1D0f3D64su4JdD4EfFScc
IDCjt9a/F61htFxjXU4vcF/hLjpj/MAAqk94JRGF/Mb8fiXXTxqIMiCuNKoNM9vy
BW19giw9artHH+KTpWu0nl6gMpj7bXh4w2FYpzoXP4gdmrwUGqEG7LreTmcqLDsP
/11ZrCScNMgHPlFDqN1Iwss3k8A0YB6Bon1v+6zsxZZ/dnoha75c00Kq2wmxNkjG
gXtkUXZKIi9yjKVKoFDlRaz7xEhOsxXcZQX4BhdL4+7QCCAvFWYoa4uzTfytTDh1
4AZOSg2eTRndgvY9dPV7UhBo6Ap1/PbYgzkovfvRslI8UCUCAwEAAaOCArkwggK1
MHgGCSqGSIb3DQEJDwRrMGkwDgYIKoZIhvcNAwICAgCAMA4GCCqGSIb3DQMEAgIA
gDALBglghkgBZQMEASowCwYJYIZIAWUDBAEtMAsGCWCGSAFlAwQBAjALBglghkgB
ZQMEAQUwBwYFKw4DAgcwCgYIKoZIhvcNAwcwHQYDVR0OBBYEFIlbAsc7u4QpGO9J
RvWcwK+RIfOrMAsGA1UdDwQEAwIEsDAfBgNVHSMEGDAWgBRRryQmnPRoIleAJis7
RmIVex7MpTB9BgNVHR8EdjB0MHKgcKBuhjZodHRwOi8vbXNjcmwubWljcm9zb2Z0
LmNvbS9wa2kvbXNjb3JwL2NybC9tc2l0d3d3Mi5jcmyGNGh0dHA6Ly9jcmwubWlj
cm9zb2Z0LmNvbS9wa2kvbXNjb3JwL2NybC9tc2l0d3d3Mi5jcmwwcAYIKwYBBQUH
AQEEZDBiMDwGCCsGAQUFBzAChjBodHRwOi8vd3d3Lm1pY3Jvc29mdC5jb20vcGtp
L21zY29ycC9tc2l0d3d3Mi5jcnQwIgYIKwYBBQUHMAGGFmh0dHA6Ly9vY3NwLm1z
b2NzcC5jb20wPQYJKwYBBAGCNxUHBDAwLgYmKwYBBAGCNxUIg8+JTa3yAoWhnwyC
+sp9geH7dIFPh7TPfIHNujICAWQCARkwHQYDVR0lBBYwFAYIKwYBBQUHAwEGCCsG
AQUFBwMCME4GA1UdIARHMEUwQwYJKwYBBAGCNyoBMDYwNAYIKwYBBQUHAgEWKGh0
dHA6Ly93d3cubWljcm9zb2Z0LmNvbS9wa2kvbXNjb3JwL2NwcwAwJwYJKwYBBAGC
NxUKBBowGDAKBggrBgEFBQcDATAKBggrBgEFBQcDAjAkBgNVHREEHTAbghkqLm9w
ZXJhdGlvbnMuZHluYW1pY3MuY29tMA0GCSqGSIb3DQEBCwUAA4ICAQAZuTl8zgHi
SLQnO7vFaP9aQ3dorAvnfTt7T/lRAX59TXw906YHtnkS9SAR0bqOKXsSPATUOZ+F
ueSTXGqIluL9Eo5QMZIvhbZzX98BHFAibVUl3IWf0FNYWbejyvEIwjtO1TFCOpZp
7QNV1ql74y7VDFFEwD0wpkK+EKaqhkZygAE16sssiD06Rw1QaaI1W7rHwvBldkAr
5uKEqAe34Jf1mCOjrLe6URNq7Im09+2KA/uPdcaDe/r9hw1AVenjLgNHmmd/Ch0H
HgaLB+VqAETe4GAAAMP37eFSoYYhhY5B/WlCZbCqbEX+V9N6bqnfO6NvzsEwzgsG
iQAMsmbIh7pyjC0XSapUSvpJtKjGV+1O3jdeQqEJz5Pzk42oMn7AAjx7V1qSUCSw
Rmm8qyLsV7v2ELIr1o7snwa7jv/rYmygbiLtjrJJMISin+M5XuWEOyAWFjdym7Ca
B4jb8J0VMf46gNUBHYkmwjK7M1bDlEa6EwP1DDIl60Yx4iUZQMPyFHGeQ1tdYixB
nMSnsgdLMnSN0fzjGhNXW0Pu/Mh+hnZLWcF2wPmopdAIcS4vZdDuxBr+SgbvmnG/
HoQbH7xm0Y7FGBq/xhf5JM1heIThS6ZmnP7G/ceVxGCCFdvL3xgJkLTMtP8V0dZU
0OMPpL6YxzMlKZbKi6s3xJVhExRXwH1NQQ==
-----END CERTIFICATE-----
