Certificate:
    Data:
        Version: 3 (0x2)
        Serial Number:
            0f:d5:25:b4:33:e5:e1:75:5f:49:2a:90:3a:f7:62:c1
    Signature Algorithm: sha256WithRSAEncryption
        Issuer: C=GB, ST=Greater Manchester, L=Salford, O=COMODO CA Limited, CN=COMODO RSA Domain Validation Secure Server CA
        Validity
            Not Before: Jan 26 00:00:00 2015 GMT
            Not After : Apr 26 23:59:59 2015 GMT
        Subject: OU=Domain Control Validated, OU=Free SSL, CN=www.live.fi
        Subject Public Key Info:
            Public Key Algorithm: rsaEncryption
                Public-Key: (2048 bit)
                Modulus:
                    00:c3:b8:25:3f:1c:ef:17:74:f4:21:2d:9b:f9:c4:
                    93:cf:82:50:78:dd:d6:5d:55:3f:c0:aa:44:9e:29:
                    e9:a4:02:34:2e:10:4e:55:f9:6d:17:f0:ea:7f:c8:
                    1f:d3:28:7f:59:f9:a3:e5:a1:eb:60:dd:46:6a:66:
                    05:fd:4c:21:de:8d:2f:ed:77:87:d8:71:27:e9:f5:
                    d8:5f:08:af:40:0c:74:87:1a:d9:16:52:b4:b8:86:
                    6d:25:4f:26:95:9f:db:19:9e:16:4e:1e:b7:a1:31:
                    bd:f1:92:5a:1e:e2:63:97:9b:17:79:b7:d5:57:08:
                    5b:71:fb:9a:4e:94:33:29:c5:ae:d8:8d:9d:b3:cd:
                    5a:05:8e:d4:f2:b9:38:c9:03:ec:94:3c:1e:0a:fb:
                    51:d1:d2:5b:9b:82:d2:0b:02:ac:ba:8d:8d:d0:8c:
                    b7:b2:8c:41:de:31:d3:09:20:1d:15:f3:34:87:41:
                    6d:6a:9d:9d:02:98:c0:c3:7d:26:86:6e:57:c3:b3:
                    3a:4a:c4:00:ec:a3:ae:c5:12:ad:d9:fa:a8:8c:6a:
                    e8:ee:c9:d6:78:cd:b9:e8:f3:22:61:70:34:fd:d6:
                    7a:c7:56:b4:23:34:f4:d1:d3:36:2e:6a:5b:36:c6:
                    43:d4:ab:8b:7a:b4:49:4c:39:d7:e7:e5:c2:4b:df:
                    22:97
                Exponent: 65537 (0x10001)
        X509v3 extensions:
            X509v3 Authority Key Identifier: 
                keyid:90:AF:6A:3A:94:5A:0B:D8:90:EA:12:56:73:DF:43:B4:3A:28:DA:E7

            X509v3 Subject Key Identifier: 
                D6:BE:93:22:2B:5E:8E:50:7A:A5:11:05:5D:28:E9:2E:AA:72:E8:8B
            X509v3 Key Usage: critical
                Digital Signature, Key Encipherment
            X509v3 Basic Constraints: critical
                CA:FALSE
            X509v3 Extended Key Usage: 
                TLS Web Server Authentication, TLS Web Client Authentication
            X509v3 Certificate Policies: 
                Policy: 1.3.6.1.4.1.6449.1.2.2.7
                  CPS: https://secure.comodo.com/CPS
                Policy: 2.23.140.1.2.1

            X509v3 CRL Distribution Points: 

                Full Name:
                  URI:http://crl.comodoca.com/COMODORSADomainValidationSecureServerCA.crl

            Authority Information Access: 
                CA Issuers - URI:http://crt.comodoca.com/COMODORSADomainValidationSecureServerCA.crt
                OCSP - URI:http://ocsp.comodoca.com

            X509v3 Subject Alternative Name: 
                DNS:www.live.fi, DNS:live.fi
    Signature Algorithm: sha256WithRSAEncryption
         5c:91:36:dc:9b:a6:b4:90:51:db:6b:6d:71:26:6f:83:8c:7f:
         32:01:75:6c:3a:a6:9c:b2:34:0f:14:fe:4a:b9:98:ac:af:a0:
         b7:82:d9:82:ea:7b:0f:78:66:1a:20:74:8c:6a:cc:79:ab:a0:
         b8:05:96:64:ba:64:3c:cd:e1:77:d3:db:44:6e:e8:de:50:04:
         1d:7a:8c:ae:f9:e7:7d:40:41:0b:dc:25:84:ee:0c:a4:61:16:
         6b:63:48:32:42:7d:82:0f:94:9c:73:62:24:b5:f1:5e:7d:f6:
         c8:de:1e:73:8f:97:42:5f:f5:9b:3a:c2:02:1f:06:8a:01:15:
         9d:d5:52:f3:5e:c0:2b:dd:b7:ec:5f:fe:74:68:30:39:b1:29:
         b3:02:2d:bd:ed:a2:d0:2a:bc:86:f2:59:f9:fb:d0:6a:89:fb:
         34:eb:56:85:2e:39:8f:69:53:ae:98:64:b7:ce:d5:02:3f:d4:
         78:04:ae:73:9d:f5:3b:03:40:b5:dd:56:58:be:05:31:c1:eb:
         11:4e:78:c6:27:06:9e:47:23:3d:e9:e2:6d:b5:b3:d5:47:d1:
         88:96:51:18:26:21:ca:26:3d:7d:ea:6e:b0:83:7c:b8:1d:eb:
         d1:59:3f:6e:4a:3a:7c:05:15:76:f7:d3:59:fd:ea:8d:3d:30:
         1c:13:af:bc
-----BEGIN CERTIFICATE-----
MIIFOjCCBCKgAwIBAgIQD9UltDPl4XVfSSqQOvdiwTANBgkqhkiG9w0BAQsFADCB
kDELMAkGA1UEBhMCR0IxGzAZBgNVBAgTEkdyZWF0ZXIgTWFuY2hlc3RlcjEQMA4G
A1UEBxMHU2FsZm9yZDEaMBgGA1UEChMRQ09NT0RPIENBIExpbWl0ZWQxNjA0BgNV
BAMTLUNPTU9ETyBSU0EgRG9tYWluIFZhbGlkYXRpb24gU2VjdXJlIFNlcnZlciBD
QTAeFw0xNTAxMjYwMDAwMDBaFw0xNTA0MjYyMzU5NTlaMEwxITAfBgNVBAsTGERv
bWFpbiBDb250cm9sIFZhbGlkYXRlZDERMA8GA1UECxMIRnJlZSBTU0wxFDASBgNV
BAMTC3d3dy5saXZlLmZpMIIBIjANBgkqhkiG9w0BAQEFAAOCAQ8AMIIBCgKCAQEA
w7glPxzvF3T0IS2b+cSTz4JQeN3WXVU/wKpEninppAI0LhBOVfltF/Dqf8gf0yh/
Wfmj5aHrYN1GamYF/Uwh3o0v7XeH2HEn6fXYXwivQAx0hxrZFlK0uIZtJU8mlZ/b
GZ4WTh63oTG98ZJaHuJjl5sXebfVVwhbcfuaTpQzKcWu2I2ds81aBY7U8rk4yQPs
lDweCvtR0dJbm4LSCwKsuo2N0Iy3soxB3jHTCSAdFfM0h0Ftap2dApjAw30mhm5X
w7M6SsQA7KOuxRKt2fqojGro7snWeM256PMiYXA0/dZ6x1a0IzT00dM2LmpbNsZD
1KuLerRJTDnX5+XCS98ilwIDAQABo4IB0TCCAc0wHwYDVR0jBBgwFoAUkK9qOpRa
C9iQ6hJWc99DtDoo2ucwHQYDVR0OBBYEFNa+kyIrXo5QeqURBV0o6S6qcuiLMA4G
A1UdDwEB/wQEAwIFoDAMBgNVHRMBAf8EAjAAMB0GA1UdJQQWMBQGCCsGAQUFBwMB
BggrBgEFBQcDAjBPBgNVHSAESDBGMDoGCysGAQQBsjEBAgIHMCswKQYIKwYBBQUH
AgEWHWh0dHBzOi8vc2VjdXJlLmNvbW9kby5jb20vQ1BTMAgGBmeBDAECATBUBgNV
HR8ETTBLMEmgR6BFhkNodHRwOi8vY3JsLmNvbW9kb2NhLmNvbS9DT01PRE9SU0FE
b21haW5WYWxpZGF0aW9uU2VjdXJlU2VydmVyQ0EuY3JsMIGFBggrBgEFBQcBAQR5
MHcwTwYIKwYBBQUHMAKGQ2h0dHA6Ly9jcnQuY29tb2RvY2EuY29tL0NPTU9ET1JT
QURvbWFpblZhbGlkYXRpb25TZWN1cmVTZXJ2ZXJDQS5jcnQwJAYIKwYBBQUHMAGG
GGh0dHA6Ly9vY3NwLmNvbW9kb2NhLmNvbTAfBgNVHREEGDAWggt3d3cubGl2ZS5m
aYIHbGl2ZS5maTANBgkqhkiG9w0BAQsFAAOCAQEAXJE23JumtJBR22ttcSZvg4x/
MgF1bDqmnLI0DxT+SrmYrK+gt4LZgup7D3hmGiB0jGrMeauguAWWZLpkPM3hd9Pb
RG7o3lAEHXqMrvnnfUBBC9wlhO4MpGEWa2NIMkJ9gg+UnHNiJLXxXn32yN4ec4+X
Ql/1mzrCAh8GigEVndVS817AK9237F/+dGgwObEpswItve2i0Cq8hvJZ+fvQaon7
NOtWhS45j2lTrphkt87VAj/UeASuc531OwNAtd1WWL4FMcHrEU54xicGnkcjPeni
bbWz1UfRiJZRGCYhyiY9fepusIN8uB3r0Vk/bko6fAUVdvfTWf3qjT0wHBOvvA==
-----END CERTIFICATE-----
