Certificate:
    Data:
        Version: 3 (0x2)
        Serial Number:
            03:71:b5:8a:86:f6:ce:9c:3e:cb:7b:f4:2f:92:08:fc
        Signature Algorithm: sha256WithRSAEncryption
        Issuer: C = US, O = DigiCert Inc, CN = DigiCert SHA2 Secure Server CA
        Validity
            Not Before: Oct  4 00:00:00 2019 GMT
            Not After : Oct  8 12:00:00 2021 GMT
        Subject: C = US, ST = California, L = Walnut Creek, O = Lucas Garron Torres, CN = revoked.badssl.com
        Subject Public Key Info:
            Public Key Algorithm: rsaEncryption
                RSA Public-Key: (2048 bit)
                Modulus:
                    00:b4:2e:39:27:f6:76:56:fa:f9:82:2f:a0:2d:f2:
                    d0:32:19:99:55:dc:89:44:96:f7:73:23:af:f7:a4:
                    5e:3e:74:bf:59:79:cd:5f:0b:e7:8f:fb:03:19:bf:
                    8f:9e:63:d2:ff:02:7c:76:fe:16:e9:02:fc:86:90:
                    5f:98:5c:d6:9a:ba:2e:95:e8:d8:a5:c5:f4:9c:9d:
                    a7:b9:de:b8:4a:71:62:fd:2a:28:7d:02:af:46:d6:
                    0d:1d:71:61:d9:4c:db:97:15:00:34:f4:53:81:bc:
                    8e:94:39:de:d8:be:42:7f:24:ea:02:53:c6:5b:80:
                    3e:11:2e:d2:d9:0b:6d:18:86:ac:21:d6:77:d9:48:
                    a9:4f:a3:5b:1d:f3:a5:36:64:d6:4d:1f:46:b7:f3:
                    35:10:f5:7b:45:3a:dd:a4:18:db:bd:a3:4e:c3:10:
                    9b:19:84:e5:96:95:9b:5d:e7:56:72:ab:27:85:69:
                    14:dc:e1:5e:36:cd:69:ca:73:c0:82:07:7d:fc:7e:
                    8d:2e:fb:cb:c9:79:2e:97:36:43:0f:16:94:45:0e:
                    bd:d3:09:6b:d9:e0:03:fe:2a:00:10:9b:97:38:f0:
                    53:11:5e:8d:7a:e6:a1:be:2e:32:a9:ff:63:4f:a0:
                    c6:ea:35:b8:59:e4:ab:43:a2:48:c0:1a:08:11:be:
                    6c:c3
                Exponent: 65537 (0x10001)
        X509v3 extensions:
            X509v3 Authority Key Identifier:
                keyid:0F:80:61:1C:82:31:61:D5:2F:28:E7:8D:46:38:B4:2C:E1:C6:D9:E2

            X509v3 Subject Key Identifier:
                38:4D:B9:C6:AD:7D:6C:68:C2:5F:75:D7:1B:6E:CB:A6:E9:9E:3A:AD
            X509v3 Subject Alternative Name:
                DNS:revoked.badssl.com, DNS:www.revoked.badssl.com
            X509v3 Key Usage: critical
                Digital Signature, Key Encipherment
            X509v3 Extended Key Usage:
                TLS Web Server Authentication, TLS Web Client Authentication
            X509v3 CRL Distribution Points:

                Full Name:
                  URI:http://crl3.digicert.com/ssca-sha2-g6.crl

                Full Name:
                  URI:http://crl4.digicert.com/ssca-sha2-g6.crl

            X509v3 Certificate Policies:
                Policy: 2.16.840.1.114412.1.1
                  CPS: https://www.digicert.com/CPS
                Policy: 2.23.140.1.2.3

            Authority Information Access:
                OCSP - URI:http://ocsp.digicert.com
                CA Issuers - URI:http://cacerts.digicert.com/DigiCertSHA2SecureServerCA.crt

            X509v3 Basic Constraints: critical
                CA:FALSE
            CT Precertificate SCTs:
                Signed Certificate Timestamp:
                    Version   : v1 (0x0)
                    Log ID    : A4:B9:09:90:B4:18:58:14:87:BB:13:A2:CC:67:70:0A:
                                3C:35:98:04:F9:1B:DF:B8:E3:77:CD:0E:C8:0D:DC:10
                    Timestamp : Oct  4 22:42:58.127 2019 GMT
                    Extensions: none
                    Signature : ecdsa-with-SHA256
                                30:44:02:20:58:F8:BC:EE:DE:4C:CC:99:EF:2C:32:46:
                                98:2A:69:79:0C:32:1D:AD:55:92:F0:06:F3:5D:4C:83:
                                5F:4A:6D:CB:02:20:3A:5B:B1:E8:E7:F0:57:A8:FE:90:
                                F5:83:7C:54:1E:6F:72:D9:AE:4A:DD:94:F6:A8:E2:3E:
                                15:FC:1A:35:C9:BB
                Signed Certificate Timestamp:
                    Version   : v1 (0x0)
                    Log ID    : 87:75:BF:E7:59:7C:F8:8C:43:99:5F:BD:F3:6E:FF:56:
                                8D:47:56:36:FF:4A:B5:60:C1:B4:EA:FF:5E:A0:83:0F
                    Timestamp : Oct  4 22:42:58.234 2019 GMT
                    Extensions: none
                    Signature : ecdsa-with-SHA256
                                30:45:02:21:00:99:C8:8D:4E:62:B7:C7:D1:79:D9:BF:
                                A3:C9:0A:27:A2:38:F9:3D:1D:D4:4D:7E:C8:D4:46:36:
                                CA:B6:F2:0D:5B:02:20:38:6B:50:2B:B0:82:98:CA:CD:
                                D1:24:29:70:BC:A5:3A:CF:4F:BE:74:6B:0B:56:DB:C9:
                                C2:4D:92:DA:09:56:F5
                Signed Certificate Timestamp:
                    Version   : v1 (0x0)
                    Log ID    : 44:94:65:2E:B0:EE:CE:AF:C4:40:07:D8:A8:FE:28:C0:
                                DA:E6:82:BE:D8:CB:31:B5:3F:D3:33:96:B5:B6:81:A8
                    Timestamp : Oct  4 22:42:57.985 2019 GMT
                    Extensions: none
                    Signature : ecdsa-with-SHA256
                                30:45:02:21:00:C1:79:D5:93:06:D6:2F:3B:A4:12:63:
                                95:6E:CF:08:40:78:90:68:44:5C:0B:74:43:EC:8A:CA:
                                1E:DE:1D:52:F3:02:20:57:D4:BF:A2:0B:D7:C1:3F:44:
                                EB:AE:15:06:03:C1:9A:EF:0E:96:C2:8C:97:6F:17:0F:
                                42:6F:EF:86:87:3C:C1
    Signature Algorithm: sha256WithRSAEncryption
         17:ce:77:03:d2:a3:25:b8:c1:59:0c:b3:b1:3f:37:af:e0:1e:
         7a:6b:41:16:ed:7e:58:26:7c:b2:df:65:15:9a:cf:95:02:9e:
         53:0c:33:75:90:0c:66:a6:17:9c:55:64:5c:e4:3a:44:9f:e6:
         9c:5c:cd:e1:1f:3c:74:84:17:db:61:8a:40:00:dc:bd:e8:c4:
         60:1a:0d:ea:60:83:75:e0:e5:7c:43:31:88:23:10:91:54:3c:
         c7:dd:fe:e4:41:1d:5b:81:9b:c2:40:2e:9f:b3:72:67:44:9f:
         25:3a:10:85:36:79:2d:ca:5a:f0:57:5a:78:f0:3c:71:05:42:
         e3:23:5a:18:b5:72:a2:90:47:71:b3:b6:60:ba:53:88:a1:51:
         42:48:fb:73:17:e3:1e:4b:0c:aa:62:ff:08:38:23:00:bd:b7:
         2d:82:7b:2e:a3:47:9e:90:bc:95:94:93:93:7b:b0:b0:fa:18:
         f3:e6:76:17:e7:20:9c:db:01:6e:d2:f9:4b:d2:4c:3c:77:a0:
         da:4b:58:ac:64:16:79:a7:b7:c2:7d:56:5f:5b:85:8b:25:d8:
         31:62:00:13:2a:84:e4:c5:51:69:71:33:ab:e1:3a:1d:18:4d:
         c6:f1:f3:ae:e8:6f:c1:92:74:bd:af:78:39:a4:ba:56:68:d7:
         3a:36:da:8a
-----BEGIN CERTIFICATE-----
MIIGvzCCBaegAwIBAgIQA3G1iob2zpw+y3v0L5II/DANBgkqhkiG9w0BAQsFADBN
MQswCQYDVQQGEwJVUzEVMBMGA1UEChMMRGlnaUNlcnQgSW5jMScwJQYDVQQDEx5E
aWdpQ2VydCBTSEEyIFNlY3VyZSBTZXJ2ZXIgQ0EwHhcNMTkxMDA0MDAwMDAwWhcN
MjExMDA4MTIwMDAwWjB0MQswCQYDVQQGEwJVUzETMBEGA1UECBMKQ2FsaWZvcm5p
YTEVMBMGA1UEBxMMV2FsbnV0IENyZWVrMRwwGgYDVQQKExNMdWNhcyBHYXJyb24g
VG9ycmVzMRswGQYDVQQDExJyZXZva2VkLmJhZHNzbC5jb20wggEiMA0GCSqGSIb3
DQEBAQUAA4IBDwAwggEKAoIBAQC0Ljkn9nZW+vmCL6At8tAyGZlV3IlElvdzI6/3
pF4+dL9Zec1fC+eP+wMZv4+eY9L/Anx2/hbpAvyGkF+YXNaaui6V6NilxfScnae5
3rhKcWL9Kih9Aq9G1g0dcWHZTNuXFQA09FOBvI6UOd7YvkJ/JOoCU8ZbgD4RLtLZ
C20Yhqwh1nfZSKlPo1sd86U2ZNZNH0a38zUQ9XtFOt2kGNu9o07DEJsZhOWWlZtd
51ZyqyeFaRTc4V42zWnKc8CCB338fo0u+8vJeS6XNkMPFpRFDr3TCWvZ4AP+KgAQ
m5c48FMRXo165qG+LjKp/2NPoMbqNbhZ5KtDokjAGggRvmzDAgMBAAGjggNyMIID
bjAfBgNVHSMEGDAWgBQPgGEcgjFh1S8o541GOLQs4cbZ4jAdBgNVHQ4EFgQUOE25
xq19bGjCX3XXG27LpumeOq0wNQYDVR0RBC4wLIIScmV2b2tlZC5iYWRzc2wuY29t
ghZ3d3cucmV2b2tlZC5iYWRzc2wuY29tMA4GA1UdDwEB/wQEAwIFoDAdBgNVHSUE
FjAUBggrBgEFBQcDAQYIKwYBBQUHAwIwawYDVR0fBGQwYjAvoC2gK4YpaHR0cDov
L2NybDMuZGlnaWNlcnQuY29tL3NzY2Etc2hhMi1nNi5jcmwwL6AtoCuGKWh0dHA6
Ly9jcmw0LmRpZ2ljZXJ0LmNvbS9zc2NhLXNoYTItZzYuY3JsMEwGA1UdIARFMEMw
NwYJYIZIAYb9bAEBMCowKAYIKwYBBQUHAgEWHGh0dHBzOi8vd3d3LmRpZ2ljZXJ0
LmNvbS9DUFMwCAYGZ4EMAQIDMHwGCCsGAQUFBwEBBHAwbjAkBggrBgEFBQcwAYYY
aHR0cDovL29jc3AuZGlnaWNlcnQuY29tMEYGCCsGAQUFBzAChjpodHRwOi8vY2Fj
ZXJ0cy5kaWdpY2VydC5jb20vRGlnaUNlcnRTSEEyU2VjdXJlU2VydmVyQ0EuY3J0
MAwGA1UdEwEB/wQCMAAwggF9BgorBgEEAdZ5AgQCBIIBbQSCAWkBZwB1AKS5CZC0
GFgUh7sTosxncAo8NZgE+RvfuON3zQ7IDdwQAAABbZjwwc8AAAQDAEYwRAIgWPi8
7t5MzJnvLDJGmCppeQwyHa1VkvAG811Mg19KbcsCIDpbsejn8Feo/pD1g3xUHm9y
2a5K3ZT2qOI+FfwaNcm7AHYAh3W/51l8+IxDmV+9827/Vo1HVjb/SrVgwbTq/16g
gw8AAAFtmPDCOgAABAMARzBFAiEAmciNTmK3x9F52b+jyQonojj5PR3UTX7I1EY2
yrbyDVsCIDhrUCuwgpjKzdEkKXC8pTrPT750awtW28nCTZLaCVb1AHYARJRlLrDu
zq/EQAfYqP4owNrmgr7YyzG1P9MzlrW2gagAAAFtmPDBQQAABAMARzBFAiEAwXnV
kwbWLzukEmOVbs8IQHiQaERcC3RD7IrKHt4dUvMCIFfUv6IL18E/ROuuFQYDwZrv
DpbCjJdvFw9Cb++GhzzBMA0GCSqGSIb3DQEBCwUAA4IBAQAXzncD0qMluMFZDLOx
Pzev4B56a0EW7X5YJnyy32UVms+VAp5TDDN1kAxmphecVWRc5DpEn+acXM3hHzx0
hBfbYYpAANy96MRgGg3qYIN14OV8QzGIIxCRVDzH3f7kQR1bgZvCQC6fs3JnRJ8l
OhCFNnktylrwV1p48DxxBULjI1oYtXKikEdxs7ZgulOIoVFCSPtzF+MeSwyqYv8I
OCMAvbctgnsuo0eekLyVlJOTe7Cw+hjz5nYX5yCc2wFu0vlL0kw8d6DaS1isZBZ5
p7fCfVZfW4WLJdgxYgATKoTkxVFpcTOr4TodGE3G8fOu6G/BknS9r3g5pLpWaNc6
NtqK
-----END CERTIFICATE-----
