Certificate:
    Data:
        Version: 3 (0x2)
        Serial Number:
            03:1e:89:9b:b6:a3:57:8f:6d:a8:78:1f:f6:76:27:cd:10:88
    Signature Algorithm: sha256WithRSAEncryption
        Issuer: C = US, O = Let's Encrypt, CN = Let's Encrypt Authority X3
        Validity
            Not Before: Nov  1 13:11:37 2017 GMT
            Not After : Jan 30 13:11:37 2018 GMT
        Subject: CN = blogger.tg
        Subject Public Key Info:
            Public Key Algorithm: rsaEncryption
                Public-Key: (2048 bit)
                Modulus:
                    00:f2:9a:15:5f:4c:5b:35:83:62:a5:b5:b7:0c:c1:
                    30:35:4b:b9:7d:54:a0:6f:07:ce:8e:55:5c:14:26:
                    30:cd:a4:59:16:09:2e:7a:c0:f4:e5:19:80:a3:16:
                    2b:eb:f8:0c:48:f9:b2:52:7c:83:30:56:7a:21:27:
                    aa:47:39:23:e1:19:27:ce:10:75:f4:a4:80:f7:43:
                    10:de:da:a7:f1:53:7b:e8:4b:09:3d:d7:8c:a4:45:
                    28:cf:d0:3f:84:37:1e:eb:15:79:16:be:cd:86:b8:
                    c1:7b:ec:d4:42:af:bf:0c:80:70:17:d3:02:33:e9:
                    60:41:6b:b5:41:95:9d:de:2a:07:7c:c3:7d:b5:93:
                    30:9c:32:31:69:30:bc:e6:ca:a1:6f:f0:68:8e:3f:
                    8a:67:f5:1a:24:74:8c:99:03:b4:d6:fa:dd:dd:44:
                    c6:48:49:bf:06:ec:66:ee:9f:92:7f:a3:d4:44:bb:
                    94:ed:57:28:bd:ae:76:25:29:7a:ef:ed:d0:cf:b3:
                    48:c9:a8:e8:09:da:83:af:d5:98:5a:f3:13:61:af:
                    0f:de:42:a7:3d:2a:2d:78:1c:55:e8:2c:4e:60:ad:
                    dd:f1:69:0b:d4:75:79:d1:5b:79:20:4d:85:6b:4f:
                    ef:8c:12:0b:5a:5e:ab:eb:2b:ce:b0:3e:2c:e4:e1:
                    dc:63
                Exponent: 65537 (0x10001)
        X509v3 extensions:
            X509v3 Key Usage: critical
                Digital Signature, Key Encipherment
            X509v3 Extended Key Usage: 
                TLS Web Server Authentication, TLS Web Client Authentication
            X509v3 Basic Constraints: critical
                CA:FALSE
            X509v3 Subject Key Identifier: 
                49:A6:7F:93:AC:61:EB:CC:C7:FC:B6:EE:C2:49:77:2B:D9:D7:EF:4B
            X509v3 Authority Key Identifier: 
                keyid:A8:4A:6A:63:04:7D:DD:BA:E6:D1:39:B7:A6:45:65:EF:F3:A8:EC:A1

            Authority Information Access: 
                OCSP - URI:http://ocsp.int-x3.letsencrypt.org
                CA Issuers - URI:http://cert.int-x3.letsencrypt.org/

            X509v3 Subject Alternative Name: 
                DNS:blogger.tg, DNS:cpanel.blogger.tg, DNS:mail.blogger.tg, DNS:webdisk.blogger.tg, DNS:webmail.blogger.tg, DNS:www.blogger.tg
            X509v3 Certificate Policies: 
                Policy: 2.23.140.1.2.1
                Policy: 1.3.6.1.4.1.44947.1.1.1
                  CPS: http://cps.letsencrypt.org
                  User Notice:
                    Explicit Text: This Certificate may only be relied upon by Relying Parties and only in accordance with the Certificate Policy found at https://letsencrypt.org/repository/

    Signature Algorithm: sha256WithRSAEncryption
         7a:04:0a:a7:6e:cc:ef:17:02:d0:96:ce:5d:8c:7a:0d:c0:3e:
         ed:83:80:31:9f:58:7d:b7:2f:3c:59:06:54:49:dd:56:4e:1c:
         32:58:61:15:7b:bd:09:30:9d:15:3f:0e:9a:4d:d7:dd:1e:8c:
         b7:bc:08:09:1b:17:68:5e:de:d0:e1:d0:cd:0d:01:a7:ca:8f:
         f3:0a:c9:d1:c8:8a:40:51:66:bc:7a:86:2c:5e:55:0a:72:8d:
         e7:d7:fc:31:b3:89:c3:50:39:47:74:4d:2f:7b:c7:32:fe:17:
         d3:3a:67:d9:11:3e:50:15:06:39:1d:fd:e7:f0:66:40:1c:e2:
         68:be:6a:8e:53:7c:bd:e3:11:12:1b:6a:a6:8f:67:4a:2c:a2:
         ef:2b:75:43:91:79:ce:0a:07:1f:9d:90:fa:ed:bf:75:c1:f4:
         fb:38:64:5e:f0:7c:69:d0:06:94:d5:20:e4:b9:8a:a5:fe:90:
         53:11:dd:be:fb:23:52:bc:85:ef:bc:dc:bf:27:b9:72:62:d8:
         80:30:dc:5a:83:15:8a:24:7e:36:fa:3f:0c:bd:2f:74:25:00:
         9a:60:66:fb:6a:d4:8b:51:81:e8:68:8f:93:80:0b:52:4d:64:
         e8:c5:a2:a9:01:8b:03:e6:b6:89:76:14:a7:1f:34:4f:50:ad:
         c6:76:a1:83
-----BEGIN CERTIFICATE-----
MIIFUzCCBDugAwIBAgISAx6Jm7ajV49tqHgf9nYnzRCIMA0GCSqGSIb3DQEBCwUA
MEoxCzAJBgNVBAYTAlVTMRYwFAYDVQQKEw1MZXQncyBFbmNyeXB0MSMwIQYDVQQD
ExpMZXQncyBFbmNyeXB0IEF1dGhvcml0eSBYMzAeFw0xNzExMDExMzExMzdaFw0x
ODAxMzAxMzExMzdaMBUxEzARBgNVBAMTCmJsb2dnZXIudGcwggEiMA0GCSqGSIb3
DQEBAQUAA4IBDwAwggEKAoIBAQDymhVfTFs1g2KltbcMwTA1S7l9VKBvB86OVVwU
JjDNpFkWCS56wPTlGYCjFivr+AxI+bJSfIMwVnohJ6pHOSPhGSfOEHX0pID3QxDe
2qfxU3voSwk914ykRSjP0D+ENx7rFXkWvs2GuMF77NRCr78MgHAX0wIz6WBBa7VB
lZ3eKgd8w321kzCcMjFpMLzmyqFv8GiOP4pn9RokdIyZA7TW+t3dRMZISb8G7Gbu
n5J/o9REu5TtVyi9rnYlKXrv7dDPs0jJqOgJ2oOv1Zha8xNhrw/eQqc9Ki14HFXo
LE5grd3xaQvUdXnRW3kgTYVrT++MEgtaXqvrK86wPizk4dxjAgMBAAGjggJmMIIC
YjAOBgNVHQ8BAf8EBAMCBaAwHQYDVR0lBBYwFAYIKwYBBQUHAwEGCCsGAQUFBwMC
MAwGA1UdEwEB/wQCMAAwHQYDVR0OBBYEFEmmf5OsYevMx/y27sJJdyvZ1+9LMB8G
A1UdIwQYMBaAFKhKamMEfd265tE5t6ZFZe/zqOyhMG8GCCsGAQUFBwEBBGMwYTAu
BggrBgEFBQcwAYYiaHR0cDovL29jc3AuaW50LXgzLmxldHNlbmNyeXB0Lm9yZzAv
BggrBgEFBQcwAoYjaHR0cDovL2NlcnQuaW50LXgzLmxldHNlbmNyeXB0Lm9yZy8w
cQYDVR0RBGowaIIKYmxvZ2dlci50Z4IRY3BhbmVsLmJsb2dnZXIudGeCD21haWwu
YmxvZ2dlci50Z4ISd2ViZGlzay5ibG9nZ2VyLnRnghJ3ZWJtYWlsLmJsb2dnZXIu
dGeCDnd3dy5ibG9nZ2VyLnRnMIH+BgNVHSAEgfYwgfMwCAYGZ4EMAQIBMIHmBgsr
BgEEAYLfEwEBATCB1jAmBggrBgEFBQcCARYaaHR0cDovL2Nwcy5sZXRzZW5jcnlw
dC5vcmcwgasGCCsGAQUFBwICMIGeDIGbVGhpcyBDZXJ0aWZpY2F0ZSBtYXkgb25s
eSBiZSByZWxpZWQgdXBvbiBieSBSZWx5aW5nIFBhcnRpZXMgYW5kIG9ubHkgaW4g
YWNjb3JkYW5jZSB3aXRoIHRoZSBDZXJ0aWZpY2F0ZSBQb2xpY3kgZm91bmQgYXQg
aHR0cHM6Ly9sZXRzZW5jcnlwdC5vcmcvcmVwb3NpdG9yeS8wDQYJKoZIhvcNAQEL
BQADggEBAHoECqduzO8XAtCWzl2Meg3APu2DgDGfWH23LzxZBlRJ3VZOHDJYYRV7
vQkwnRU/DppN190ejLe8CAkbF2he3tDh0M0NAafKj/MKydHIikBRZrx6hixeVQpy
jefX/DGzicNQOUd0TS97xzL+F9M6Z9kRPlAVBjkd/efwZkAc4mi+ao5TfL3jERIb
aqaPZ0osou8rdUORec4KBx+dkPrtv3XB9Ps4ZF7wfGnQBpTVIOS5iqX+kFMR3b77
I1K8he+83L8nuXJi2IAw3FqDFYokfjb6Pwy9L3QlAJpgZvtq1ItRgehoj5OAC1JN
ZOjFoqkBiwPmtol2FKcfNE9QrcZ2oYM=
-----END CERTIFICATE-----
