Certificate:
    Data:
        Version: 3 (0x2)
        Serial Number: 59 (0x3b)
        Signature Algorithm: sha256WithRSAEncryption
        Issuer: C=IL, O=StartCom Ltd., CN=StartCom Certification Authority G2
        Validity
            Not Before: Jan  1 01:00:01 2010 GMT
            Not After : Dec 31 23:59:01 2039 GMT
        Subject: C=IL, O=StartCom Ltd., CN=StartCom Certification Authority G2
        Subject Public Key Info:
            Public Key Algorithm: rsaEncryption
            RSA Public Key: (4096 bit)
                Modulus (4096 bit):
                    00:b6:89:36:5b:07:b7:20:36:bd:82:bb:e1:16:20:
                    03:95:7a:af:0e:a3:55:c9:25:99:4a:c5:d0:56:41:
                    87:90:4d:21:60:a4:14:87:3b:cd:fd:b2:3e:b4:67:
                    03:6a:ed:e1:0f:4b:c0:91:85:70:45:e0:42:9e:de:
                    29:23:d4:01:0d:a0:10:79:b8:db:03:bd:f3:a9:2f:
                    d1:c6:e0:0f:cb:9e:8a:14:0a:b8:bd:f6:56:62:f1:
                    c5:72:b6:32:25:d9:b2:f3:bd:65:c5:0d:2c:6e:d5:
                    92:6f:18:8b:00:41:14:82:6f:40:20:26:7a:28:0f:
                    f5:1e:7f:27:f7:94:b1:37:3d:b7:c7:91:f7:e2:01:
                    ec:fd:94:89:e1:cc:6e:d3:36:d6:0a:19:79:ae:d7:
                    34:82:65:ff:7c:42:bb:b6:dd:0b:a6:34:af:4b:60:
                    fe:7f:43:49:06:8b:8c:43:b8:56:f2:d9:7f:21:43:
                    17:ea:a7:48:95:01:75:75:ea:2b:a5:43:95:ea:15:
                    84:9d:08:8d:26:6e:55:9b:ab:dc:d2:39:d2:31:1d:
                    60:e2:ac:cc:56:45:24:f5:1c:54:ab:ee:86:dd:96:
                    32:85:f8:4c:4f:e8:95:76:b6:05:dd:36:23:67:bc:
                    ff:15:e2:ca:3b:e6:a6:ec:3b:ec:26:11:34:48:8d:
                    f6:80:2b:1a:23:02:eb:8a:1c:3a:76:2a:7b:56:16:
                    1c:72:2a:b3:aa:e3:60:a5:00:9f:04:9b:e2:6f:1e:
                    14:58:5b:a5:6c:8b:58:3c:c3:ba:4e:3a:5c:f7:e1:
                    96:2b:3e:ef:07:bc:a4:e5:5d:cc:4d:9f:0d:e1:dc:
                    aa:bb:e1:6e:1a:ec:8f:e1:b6:4c:4d:79:72:5d:17:
                    35:0b:1d:d7:c1:47:da:96:24:e0:d0:72:a8:5a:5f:
                    66:2d:10:dc:2f:2a:13:ae:26:fe:0a:1c:19:cc:d0:
                    3e:0b:9c:c8:09:2e:f9:5b:96:7a:47:9c:e9:7a:f3:
                    05:50:74:95:73:9e:30:09:f3:97:82:5e:e6:8f:39:
                    08:1e:59:e5:35:14:42:13:ff:00:9c:f7:be:aa:50:
                    cf:e2:51:48:d7:b8:6f:af:f8:4e:7e:33:98:92:14:
                    62:3a:75:63:cf:7b:fa:de:82:3b:a9:bb:39:e2:c4:
                    bd:2c:00:0e:c8:17:ac:13:ef:4d:25:8e:d8:b3:90:
                    2f:a9:da:29:7d:1d:af:74:3a:b2:27:c0:c1:1e:3e:
                    75:a3:16:a9:af:7a:22:5d:9f:13:1a:cf:a7:a0:eb:
                    e3:86:0a:d3:fd:e6:96:95:d7:23:c8:37:dd:c4:7c:
                    aa:36:ac:98:1a:12:b1:e0:4e:e8:b1:3b:f5:d6:6f:
                    f1:30:d7
                Exponent: 65537 (0x10001)
        X509v3 extensions:
            X509v3 Basic Constraints: critical
                CA:TRUE
            X509v3 Key Usage: critical
                Certificate Sign, CRL Sign
            X509v3 Subject Key Identifier: 
                4B:C5:B4:40:6B:AD:1C:B3:A5:1C:65:6E:46:36:89:87:05:0C:0E:B6
    Signature Algorithm: sha256WithRSAEncryption
        73:57:3f:2c:d5:95:32:7e:37:db:96:92:eb:19:5e:7e:53:e7:
        41:ec:11:b6:47:ef:b5:de:ed:74:5c:c5:f1:8e:49:e0:fc:6e:
        99:13:cd:9f:8a:da:cd:3a:0a:d8:3a:5a:09:3f:5f:34:d0:2f:
        03:d2:66:1d:1a:bd:9c:90:37:c8:0c:8e:07:5a:94:45:46:2a:
        e6:be:7a:da:a1:a9:a4:69:12:92:b0:7d:36:d4:44:87:d7:51:
        f1:29:63:d6:75:cd:16:e4:27:89:1d:f8:c2:32:48:fd:db:99:
        d0:8f:5f:54:74:cc:ac:67:34:11:62:d9:0c:0a:37:87:d1:a3:
        17:48:8e:d2:17:1d:f6:d7:fd:db:65:eb:fd:a8:d4:f5:d6:4f:
        a4:5b:75:e8:c5:d2:60:b2:db:09:7e:25:8b:7b:ba:52:92:9e:
        3e:e8:c5:77:a1:3c:e0:4a:73:6b:61:cf:86:dc:43:ff:ff:21:
        fe:23:5d:24:4a:f5:d3:6d:0f:62:04:05:57:82:da:6e:a4:33:
        25:79:4b:2e:54:19:8b:cc:2c:3d:30:e9:d1:06:ff:e8:32:46:
        be:b5:33:76:77:a8:01:5d:96:c1:c1:d5:be:ae:25:c0:c9:1e:
        0a:09:20:88:a1:0e:c9:f3:6f:4d:82:54:00:20:a7:d2:8f:e4:
        39:54:17:2e:8d:1e:b8:1b:bb:1b:bd:9a:4e:3b:10:34:dc:9c:
        88:53:ef:a2:31:5b:58:4f:91:62:c8:c2:9a:9a:cd:15:5d:38:
        a9:d6:be:f8:13:b5:9f:12:69:f2:50:62:ac:fb:17:37:f4:ee:
        b8:75:67:60:10:fb:83:50:f9:44:b5:75:9c:40:17:b2:fe:fd:
        79:5d:6e:58:58:5f:30:fc:00:ae:af:33:c1:0e:4e:6c:ba:a7:
        a6:a1:7f:32:db:38:e0:b1:72:17:0a:2b:91:ec:6a:63:26:ed:
        89:d4:78:cc:74:1e:05:f8:6b:fe:8c:6a:76:39:29:ae:65:23:
        12:95:08:22:1c:97:ce:5b:06:ee:0c:e2:bb:bc:1f:44:93:f6:
        d8:38:45:05:21:ed:e4:ad:ab:12:b6:03:a4:42:2e:2d:c4:09:
        3a:03:67:69:84:9a:e1:59:90:8a:28:85:d5:5d:74:b1:d1:0e:
        20:58:9b:13:a5:b0:63:a6:ed:7b:47:fd:45:55:30:a4:ee:9a:
        d4:e6:e2:87:ef:98:c9:32:82:11:29:22:bc:00:0a:31:5e:2d:
        0f:c0:8e:e9:6b:b2:8f:2e:06:d8:d1:91:c7:c6:12:f4:4c:fd:
        30:17:c3:c1:da:38:5b:e3:a9:ea:e6:a1:ba:79:ef:73:d8:b6:
        53:57:2d:f6:d0:e1:d7:48
-----BEGIN CERTIFICATE-----
MIIFYzCCA0ugAwIBAgIBOzANBgkqhkiG9w0BAQsFADBTMQswCQYDVQQGEwJJTDEW
MBQGA1UEChMNU3RhcnRDb20gTHRkLjEsMCoGA1UEAxMjU3RhcnRDb20gQ2VydGlm
aWNhdGlvbiBBdXRob3JpdHkgRzIwHhcNMTAwMTAxMDEwMDAxWhcNMzkxMjMxMjM1
OTAxWjBTMQswCQYDVQQGEwJJTDEWMBQGA1UEChMNU3RhcnRDb20gTHRkLjEsMCoG
A1UEAxMjU3RhcnRDb20gQ2VydGlmaWNhdGlvbiBBdXRob3JpdHkgRzIwggIiMA0G
CSqGSIb3DQEBAQUAA4ICDwAwggIKAoICAQC2iTZbB7cgNr2Cu+EWIAOVeq8Oo1XJ
JZlKxdBWQYeQTSFgpBSHO839sj60ZwNq7eEPS8CRhXBF4EKe3ikj1AENoBB5uNsD
vfOpL9HG4A/LnooUCri99lZi8cVytjIl2bLzvWXFDSxu1ZJvGIsAQRSCb0AgJnoo
D/Uefyf3lLE3PbfHkffiAez9lInhzG7TNtYKGXmu1zSCZf98Qru23QumNK9LYP5/
Q0kGi4xDuFby2X8hQxfqp0iVAXV16iulQ5XqFYSdCI0mblWbq9zSOdIxHWDirMxW
RST1HFSr7obdljKF+ExP6JV2tgXdNiNnvP8V4so75qbsO+wmETRIjfaAKxojAuuK
HDp2KntWFhxyKrOq42ClAJ8Em+JvHhRYW6Vsi1g8w7pOOlz34ZYrPu8HvKTlXcxN
nw3h3Kq74W4a7I/htkxNeXJdFzULHdfBR9qWJODQcqhaX2YtENwvKhOuJv4KHBnM
0D4LnMgJLvlblnpHnOl68wVQdJVznjAJ85eCXuaPOQgeWeU1FEIT/wCc976qUM/i
UUjXuG+v+E5+M5iSFGI6dWPPe/regjupuznixL0sAA7IF6wT700ljtizkC+p2il9
Ha90OrInwMEePnWjFqmveiJdnxMaz6eg6+OGCtP95paV1yPIN93EfKo2rJgaErHg
TuixO/XWb/Ew1wIDAQABo0IwQDAPBgNVHRMBAf8EBTADAQH/MA4GA1UdDwEB/wQE
AwIBBjAdBgNVHQ4EFgQUS8W0QGutHLOlHGVuRjaJhwUMDrYwDQYJKoZIhvcNAQEL
BQADggIBAHNXPyzVlTJ+N9uWkusZXn5T50HsEbZH77Xe7XRcxfGOSeD8bpkTzZ+K
2s06Ctg6Wgk/XzTQLwPSZh0avZyQN8gMjgdalEVGKua+etqhqaRpEpKwfTbURIfX
UfEpY9Z1zRbkJ4kd+MIySP3bmdCPX1R0zKxnNBFi2QwKN4fRoxdIjtIXHfbX/dtl
6/2o1PXWT6RbdejF0mCy2wl+JYt7ulKSnj7oxXehPOBKc2thz4bcQ///If4jXSRK
9dNtD2IEBVeC2m6kMyV5Sy5UGYvMLD0w6dEG/+gyRr61M3Z3qAFdlsHB1b6uJcDJ
HgoJIIihDsnzb02CVAAgp9KP5DlUFy6NHrgbuxu9mk47EDTcnIhT76IxW1hPkWLI
wpqazRVdOKnWvvgTtZ8SafJQYqz7Fzf07rh1Z2AQ+4NQ+US1dZxAF7L+/XldblhY
XzD8AK6vM8EOTmy6p6ahfzLbOOCxchcKK5HsamMm7YnUeMx0HgX4a/6ManY5Ka5l
IxKVCCIcl85bBu4M4ru8H0ST9tg4RQUh7eStqxK2A6RCLi3ECToDZ2mEmuFZkIoo
hdVddLHRDiBYmxOlsGOm7XtH/UVVMKTumtTm4ofvmMkyghEpIrwACjFeLQ/Ajulr
so8uBtjRkcfGEvRM/TAXw8HaOFvjqermobp573PYtlNXLfbQ4ddI
-----END CERTIFICATE-----
