Certificate:
    Data:
        Version: 3 (0x2)
        Serial Number:
            10:89:fc:3f:19:c9:03:f3:83:9b:cf:70:b9:7d:c7:cf:aa:d3:d4:dd
        Signature Algorithm: sha256WithRSAEncryption
        Issuer: CN = Information Security Certification Authority, O = ISCA, C = KZ
        Validity
            Not Before: Feb 28 06:48:23 2020 GMT
            Not After : Feb 28 06:48:23 2040 GMT
        Subject: CN = Information Security Certification Authority, O = ISCA, C = KZ
        Subject Public Key Info:
            Public Key Algorithm: rsaEncryption
                RSA Public-Key: (4096 bit)
                Modulus:
                    00:d2:91:1b:e3:25:24:6a:31:8b:64:d7:29:52:e7:
                    fd:07:42:8a:da:c1:51:5b:69:9e:40:34:96:0a:96:
                    8d:80:77:7e:6a:ae:48:e7:51:03:8a:22:c3:13:a9:
                    98:cf:47:de:45:d0:61:b7:41:90:b8:d2:45:27:09:
                    4a:5f:71:9c:e8:ab:2a:b2:74:85:27:6a:e9:c3:eb:
                    5c:a3:b3:3c:0a:0f:55:aa:de:30:a4:72:65:de:a7:
                    44:1b:04:5a:19:41:a4:6c:8d:4b:8b:81:88:99:73:
                    4e:48:a6:2b:c4:13:62:c6:07:74:b8:6a:9e:09:29:
                    a7:bf:87:f5:e6:97:7f:74:5b:40:f1:75:33:2f:39:
                    7b:bf:81:c5:9d:2f:bb:99:f4:a0:4f:9f:87:c2:3e:
                    b4:73:8f:01:e8:05:5a:86:0f:fa:f1:40:17:c0:eb:
                    d5:32:8d:9f:05:52:52:8b:6c:d6:62:b1:9a:67:a5:
                    fc:a9:24:a0:08:ee:cb:c7:12:c8:57:09:72:8c:57:
                    25:31:32:81:4c:35:d6:3d:0f:18:e6:d8:d9:6f:c7:
                    d6:42:41:78:54:16:f1:69:af:7f:d1:d2:8d:2c:62:
                    36:7c:0d:08:d5:30:ce:20:43:86:cf:3d:c7:44:99:
                    7f:0e:c8:81:71:d3:0c:03:b6:9a:f6:fc:2b:34:7c:
                    f4:7f:a5:88:97:1a:3e:32:a6:f2:de:20:6a:20:ff:
                    ef:e4:db:b7:0a:3e:2f:29:b9:b0:b1:cf:c5:6c:4c:
                    e1:59:5c:d7:6b:05:75:89:9a:37:d4:01:86:1b:5c:
                    37:97:4f:34:48:a6:1f:78:d9:29:4f:0c:c5:d0:81:
                    d2:23:4a:5f:dd:f4:0a:2a:de:57:b6:14:89:f2:e8:
                    45:db:4d:e5:5b:c3:8c:1c:5d:5b:ef:24:7f:5d:3b:
                    05:90:1d:79:49:dc:8a:ac:c5:a1:cd:ce:ac:55:8a:
                    15:1d:85:f4:bf:a7:15:d4:59:53:7a:35:85:35:df:
                    0c:5b:67:17:54:d3:94:c6:df:f3:86:b3:91:22:09:
                    2c:c0:e2:cd:dd:11:48:c2:5a:1b:5d:bb:5d:ba:c2:
                    84:af:c8:3c:55:33:ab:a9:19:c2:ad:f1:9c:75:c4:
                    2d:88:db:91:72:23:3a:1b:4e:af:01:76:a2:9b:93:
                    56:cd:50:cd:5d:df:5f:67:54:7c:ae:9b:0c:b0:ef:
                    14:71:17:35:a4:f1:3d:5a:84:22:7f:ce:89:72:80:
                    84:51:eb:b3:49:b5:e9:15:08:b4:1c:36:50:6f:40:
                    59:ee:ad:9f:25:bb:ee:59:f2:6d:9a:03:b2:11:4f:
                    f7:57:de:59:79:ac:37:e9:4c:93:38:de:86:b2:36:
                    e6:d8:e9
                Exponent: 65537 (0x10001)
        X509v3 extensions:
            X509v3 Basic Constraints: critical
                CA:TRUE
            X509v3 Key Usage: critical
                Certificate Sign, CRL Sign
            X509v3 Subject Key Identifier:
                90:89:FC:3F:19:C9:03:F3:83:9B:CF:70:B9:7D:C7:CF:AA:D3:D4:DD
            X509v3 Authority Key Identifier:
                keyid:90:89:FC:3F:19:C9:03:F3:83:9B:CF:70:B9:7D:C7:CF:AA:D3:D4:DD
                DirName:/CN=Information Security Certification Authority/O=ISCA/C=KZ
                serial:10:89:FC:3F:19:C9:03:F3:83:9B:CF:70:B9:7D:C7:CF:AA:D3:D4:DD

    Signature Algorithm: sha256WithRSAEncryption
         5e:88:9d:cc:e9:04:bc:4b:6c:03:6a:73:3b:48:a8:d4:bf:54:
         1e:68:43:dc:2e:cd:fe:07:51:9a:bb:bd:fb:ba:59:ce:c3:fd:
         f9:dd:39:9f:52:59:e4:fa:2f:af:5b:4c:a1:4a:b8:c4:08:68:
         f3:68:3c:44:eb:c4:18:90:05:5f:b5:37:5f:c3:8a:cd:6c:12:
         59:13:27:ca:3d:bf:ec:3c:18:92:2b:f6:32:34:6b:4f:7a:76:
         c2:37:27:f4:4a:33:21:74:07:de:72:67:6e:52:e1:71:89:ab:
         74:15:94:b3:28:05:9d:8a:c2:0f:0f:c8:e6:3d:f5:68:e5:36:
         64:ca:c2:0d:e7:25:a9:b7:9e:cc:89:54:3b:7d:23:1c:d6:8e:
         79:b6:19:25:cb:65:a6:fc:fd:48:0d:dd:c0:f8:2e:ce:b8:c7:
         41:68:fe:4f:a5:31:4a:61:73:34:37:5d:71:46:8a:3d:be:15:
         18:cd:9b:29:10:80:30:35:a1:0a:df:35:ff:b4:ae:7f:5f:19:
         3f:93:f6:31:76:7b:e3:e7:5c:ee:7c:3f:ed:9b:37:d3:eb:94:
         59:ac:25:9b:2e:f3:e0:f5:45:5f:72:d9:67:bf:f8:a4:5b:b0:
         a8:7c:17:dc:f2:b0:58:24:28:6d:47:cc:f9:8c:56:89:95:bc:
         b7:5a:e3:15:e6:84:d6:28:9e:69:3f:e9:ee:6c:b2:9b:45:8f:
         3c:2a:33:8d:5e:9e:44:3a:c2:ea:6b:29:d2:b4:92:e3:0d:3c:
         68:c1:7c:1e:15:12:80:f5:85:fa:46:3d:e5:ed:43:4c:1e:85:
         39:78:01:a3:0f:ea:bd:de:7d:61:cb:7c:65:02:6e:72:d8:ba:
         f6:b1:c9:49:4a:65:54:99:d3:76:01:bf:a9:bd:40:ac:7e:13:
         b4:7d:97:a3:30:63:d3:7b:ab:7d:35:c3:52:a7:c2:9d:af:73:
         f6:9c:4d:cf:ea:ee:66:28:45:a6:b5:59:c6:cf:fb:06:25:50:
         d7:b2:fb:6d:1a:6c:5e:68:43:b4:ad:a8:38:05:00:c0:73:4d:
         c5:9b:da:7b:a5:cf:17:f6:3c:81:13:83:ad:c3:7b:24:71:1a:
         a9:88:fc:6c:5f:10:52:64:75:ed:c1:05:09:76:f8:b9:ac:32:
         bc:61:37:df:2c:67:1b:8e:f3:d7:ae:af:19:7b:47:03:e1:c6:
         5e:c5:a7:e0:41:bf:e3:9f:5e:14:41:13:71:3f:1e:60:db:07:
         bf:b7:a9:04:d7:57:32:a4:0e:ad:80:37:a9:e4:43:8d:89:5a:
         bc:0d:ee:47:b0:38:72:c5:b5:fb:2f:b2:bc:f9:76:67:51:06:
         f6:25:bb:03:7b:6d:74:02
-----BEGIN CERTIFICATE-----
MIIGCzCCA/OgAwIBAgIUEIn8PxnJA/ODm89wuX3Hz6rT1N0wDQYJKoZIhvcNAQEL
BQAwUzE1MDMGA1UEAxMsSW5mb3JtYXRpb24gU2VjdXJpdHkgQ2VydGlmaWNhdGlv
biBBdXRob3JpdHkxDTALBgNVBAoTBElTQ0ExCzAJBgNVBAYTAktaMB4XDTIwMDIy
ODA2NDgyM1oXDTQwMDIyODA2NDgyM1owUzE1MDMGA1UEAxMsSW5mb3JtYXRpb24g
U2VjdXJpdHkgQ2VydGlmaWNhdGlvbiBBdXRob3JpdHkxDTALBgNVBAoTBElTQ0Ex
CzAJBgNVBAYTAktaMIICIjANBgkqhkiG9w0BAQEFAAOCAg8AMIICCgKCAgEA0pEb
4yUkajGLZNcpUuf9B0KK2sFRW2meQDSWCpaNgHd+aq5I51EDiiLDE6mYz0feRdBh
t0GQuNJFJwlKX3Gc6KsqsnSFJ2rpw+tco7M8Cg9Vqt4wpHJl3qdEGwRaGUGkbI1L
i4GImXNOSKYrxBNixgd0uGqeCSmnv4f15pd/dFtA8XUzLzl7v4HFnS+7mfSgT5+H
wj60c48B6AVahg/68UAXwOvVMo2fBVJSi2zWYrGaZ6X8qSSgCO7LxxLIVwlyjFcl
MTKBTDXWPQ8Y5tjZb8fWQkF4VBbxaa9/0dKNLGI2fA0I1TDOIEOGzz3HRJl/DsiB
cdMMA7aa9vwrNHz0f6WIlxo+Mqby3iBqIP/v5Nu3Cj4vKbmwsc/FbEzhWVzXawV1
iZo31AGGG1w3l080SKYfeNkpTwzF0IHSI0pf3fQKKt5XthSJ8uhF203lW8OMHF1b
7yR/XTsFkB15SdyKrMWhzc6sVYoVHYX0v6cV1FlTejWFNd8MW2cXVNOUxt/zhrOR
IgkswOLN3RFIwlobXbtdusKEr8g8VTOrqRnCrfGcdcQtiNuRciM6G06vAXaim5NW
zVDNXd9fZ1R8rpsMsO8UcRc1pPE9WoQif86JcoCEUeuzSbXpFQi0HDZQb0BZ7q2f
JbvuWfJtmgOyEU/3V95Zeaw36UyTON6Gsjbm2OkCAwEAAaOB1jCB0zAPBgNVHRMB
Af8EBTADAQH/MA4GA1UdDwEB/wQEAwIBBjAdBgNVHQ4EFgQUkIn8PxnJA/ODm89w
uX3Hz6rT1N0wgZAGA1UdIwSBiDCBhYAUkIn8PxnJA/ODm89wuX3Hz6rT1N2hV6RV
MFMxNTAzBgNVBAMTLEluZm9ybWF0aW9uIFNlY3VyaXR5IENlcnRpZmljYXRpb24g
QXV0aG9yaXR5MQ0wCwYDVQQKEwRJU0NBMQswCQYDVQQGEwJLWoIUEIn8PxnJA/OD
m89wuX3Hz6rT1N0wDQYJKoZIhvcNAQELBQADggIBAF6InczpBLxLbANqcztIqNS/
VB5oQ9wuzf4HUZq7vfu6Wc7D/fndOZ9SWeT6L69bTKFKuMQIaPNoPETrxBiQBV+1
N1/Dis1sElkTJ8o9v+w8GJIr9jI0a096dsI3J/RKMyF0B95yZ25S4XGJq3QVlLMo
BZ2Kwg8PyOY99WjlNmTKwg3nJam3nsyJVDt9IxzWjnm2GSXLZab8/UgN3cD4Ls64
x0Fo/k+lMUphczQ3XXFGij2+FRjNmykQgDA1oQrfNf+0rn9fGT+T9jF2e+PnXO58
P+2bN9PrlFmsJZsu8+D1RV9y2We/+KRbsKh8F9zysFgkKG1HzPmMVomVvLda4xXm
hNYonmk/6e5ssptFjzwqM41enkQ6wuprKdK0kuMNPGjBfB4VEoD1hfpGPeXtQ0we
hTl4AaMP6r3efWHLfGUCbnLYuvaxyUlKZVSZ03YBv6m9QKx+E7R9l6MwY9N7q301
w1Knwp2vc/acTc/q7mYoRaa1WcbP+wYlUNey+20abF5oQ7StqDgFAMBzTcWb2nul
zxf2PIETg63DeyRxGqmI/GxfEFJkde3BBQl2+LmsMrxhN98sZxuO89eurxl7RwPh
xl7Fp+BBv+OfXhRBE3E/HmDbB7+3qQTXVzKkDq2AN6nkQ42JWrwN7kewOHLFtfsv
srz5dmdRBvYluwN7bXQC
-----END CERTIFICATE-----
