Certificate:
    Data:
        Version: 3 (0x2)
        Serial Number: 3 (0x3)
    Signature Algorithm: sha1WithRSAEncryption
        Issuer: C = JP, O = "Japan Certification Services, Inc.", CN = SecureSign RootCA11
        Validity
            Not Before: Apr  8 09:06:51 2009 GMT
            Not After : Apr  8 04:56:47 2029 GMT
        Subject: C = JP, O = "Japan Certification Services, Inc.", CN = SecureSign Public CA11
        Subject Public Key Info:
            Public Key Algorithm: rsaEncryption
                Public-Key: (2048 bit)
                Modulus:
                    00:d7:ab:4d:71:6b:7b:a1:5f:b8:e6:d6:13:85:bb:
                    b5:41:b6:fc:d7:66:98:7e:85:67:56:aa:b9:f6:53:
                    d7:fe:22:52:33:20:aa:f5:86:ba:12:1e:53:ea:4e:
                    2c:3d:e0:8d:ef:45:9d:c8:e3:8b:b4:69:09:91:ac:
                    ff:6d:6a:77:c8:d6:d7:5d:8f:08:0a:e0:aa:a2:9b:
                    0a:b8:0f:97:73:bf:c5:4b:a1:a0:bf:74:4e:3c:35:
                    d3:91:82:9a:2e:3b:de:cc:d1:44:92:1e:e5:bb:a9:
                    69:fa:62:40:af:50:65:76:26:96:59:35:07:a9:3d:
                    89:70:72:ea:89:a0:ef:73:0e:97:a0:26:2d:b2:69:
                    e5:29:a5:39:69:3b:30:4c:49:38:69:24:3b:a3:f4:
                    a4:93:d6:25:65:e2:dd:08:00:5f:59:f3:74:97:9f:
                    1a:77:35:1f:ac:05:e8:94:34:7d:1a:e6:f5:65:02:
                    c5:39:fd:d1:fd:d8:71:7a:01:3a:58:39:e9:5a:46:
                    9a:2f:d4:6b:36:1d:01:15:e8:b4:cd:53:ca:e3:d9:
                    d4:70:68:90:89:80:f0:50:87:29:97:02:a9:46:e1:
                    df:22:65:7a:eb:b1:79:d4:74:db:99:be:f5:c7:a1:
                    b2:a9:5a:e5:d2:ea:9e:1c:6d:1a:67:17:3a:d8:68:
                    b4:c1
                Exponent: 65537 (0x10001)
        X509v3 extensions:
            X509v3 Subject Key Identifier: 
                64:4B:B5:05:C0:56:86:5B:24:4D:8A:33:B5:1E:7E:0F:91:73:F0:93
            X509v3 Key Usage: critical
                Certificate Sign, CRL Sign
            X509v3 Certificate Policies: 
                Policy: 1.2.392.200075.4.2
                  CPS: https://cp.jcsinc.co.jp/SecureSign/AD/RPA.html

            X509v3 Basic Constraints: critical
                CA:TRUE
            X509v3 CRL Distribution Points: 

                Full Name:
                  URI:http://ssignadcrl01.jcsinc.co.jp/repository/crl/rca.crl

                Full Name:
                  URI:http://ssignadcrl02.jcsinc.co.jp/repository/crl/rca.crl

    Signature Algorithm: sha1WithRSAEncryption
         32:33:41:ca:ce:e8:5b:fe:dd:1d:21:cb:78:e8:56:8f:73:3b:
         0b:ce:1f:7f:e4:45:3b:5b:33:a7:02:71:1f:6f:7f:0c:00:e9:
         e0:f7:49:9b:90:db:e6:56:36:21:0f:1e:32:64:ac:9a:e4:fa:
         2d:0e:93:46:40:c4:a7:ff:6a:3d:9e:69:95:38:ac:96:4f:08:
         91:fc:a1:ee:81:d1:54:80:d3:83:04:c5:14:31:02:14:53:3e:
         ba:1e:62:f1:28:0d:62:eb:c9:8c:d3:5e:c8:16:de:c0:05:43:
         6e:bc:4b:fa:61:89:90:4d:40:09:a5:4d:1a:98:26:f6:49:9f:
         8b:ce:6b:38:8c:1f:2e:9c:58:0c:ac:cd:6c:e9:c8:84:65:2b:
         c4:c1:f2:a9:e7:7d:4a:f5:01:6a:4c:66:32:8c:ce:b9:e3:8d:
         1d:f9:8f:39:cf:35:d5:4d:fe:a2:12:7a:e9:a2:73:64:83:f6:
         05:0a:9f:cb:f8:d4:91:6c:df:ed:35:59:ac:24:bd:d3:c5:dc:
         2b:cb:32:34:b3:54:ba:62:48:32:aa:2f:aa:4e:35:8e:91:c2:
         b7:19:47:0d:43:59:64:44:f7:a8:1a:f8:79:4b:e4:56:41:5d:
         12:77:0c:03:74:c8:00:ab:f6:25:b8:b2:07:a1:05:d5:56:0d:
         f0:71:f3:3d
-----BEGIN CERTIFICATE-----
MIIEVDCCAzygAwIBAgIBAzANBgkqhkiG9w0BAQUFADBYMQswCQYDVQQGEwJKUDEr
MCkGA1UEChMiSmFwYW4gQ2VydGlmaWNhdGlvbiBTZXJ2aWNlcywgSW5jLjEcMBoG
A1UEAxMTU2VjdXJlU2lnbiBSb290Q0ExMTAeFw0wOTA0MDgwOTA2NTFaFw0yOTA0
MDgwNDU2NDdaMFsxCzAJBgNVBAYTAkpQMSswKQYDVQQKEyJKYXBhbiBDZXJ0aWZp
Y2F0aW9uIFNlcnZpY2VzLCBJbmMuMR8wHQYDVQQDExZTZWN1cmVTaWduIFB1Ymxp
YyBDQTExMIIBIjANBgkqhkiG9w0BAQEFAAOCAQ8AMIIBCgKCAQEA16tNcWt7oV+4
5tYThbu1Qbb812aYfoVnVqq59lPX/iJSMyCq9Ya6Eh5T6k4sPeCN70WdyOOLtGkJ
kaz/bWp3yNbXXY8ICuCqopsKuA+Xc7/FS6Ggv3ROPDXTkYKaLjvezNFEkh7lu6lp
+mJAr1BldiaWWTUHqT2JcHLqiaDvcw6XoCYtsmnlKaU5aTswTEk4aSQ7o/Skk9Yl
ZeLdCABfWfN0l58adzUfrAXolDR9Gub1ZQLFOf3R/dhxegE6WDnpWkaaL9RrNh0B
Fei0zVPK49nUcGiQiYDwUIcplwKpRuHfImV667F51HTbmb71x6GyqVrl0uqeHG0a
Zxc62Gi0wQIDAQABo4IBJDCCASAwHQYDVR0OBBYEFGRLtQXAVoZbJE2KM7Uefg+R
c/CTMA4GA1UdDwEB/wQEAwIBBjBTBgNVHSAETDBKMEgGCCqDCIybCwQCMDwwOgYI
KwYBBQUHAgEWLmh0dHBzOi8vY3AuamNzaW5jLmNvLmpwL1NlY3VyZVNpZ24vQUQv
UlBBLmh0bWwwDwYDVR0TAQH/BAUwAwEB/zCBiAYDVR0fBIGAMH4wPaA7oDmGN2h0
dHA6Ly9zc2lnbmFkY3JsMDEuamNzaW5jLmNvLmpwL3JlcG9zaXRvcnkvY3JsL3Jj
YS5jcmwwPaA7oDmGN2h0dHA6Ly9zc2lnbmFkY3JsMDIuamNzaW5jLmNvLmpwL3Jl
cG9zaXRvcnkvY3JsL3JjYS5jcmwwDQYJKoZIhvcNAQEFBQADggEBADIzQcrO6Fv+
3R0hy3joVo9zOwvOH3/kRTtbM6cCcR9vfwwA6eD3SZuQ2+ZWNiEPHjJkrJrk+i0O
k0ZAxKf/aj2eaZU4rJZPCJH8oe6B0VSA04MExRQxAhRTProeYvEoDWLryYzTXsgW
3sAFQ268S/phiZBNQAmlTRqYJvZJn4vOaziMHy6cWAyszWzpyIRlK8TB8qnnfUr1
AWpMZjKMzrnjjR35jznPNdVN/qISeumic2SD9gUKn8v41JFs3+01WawkvdPF3CvL
MjSzVLpiSDKqL6pONY6RwrcZRw1DWWRE96ga+HlL5FZBXRJ3DAN0yACr9iW4sgeh
BdVWDfBx8z0=
-----END CERTIFICATE-----
