Certificate:
    Data:
        Version: 3 (0x2)
        Serial Number:
            da:9b:ec:71:f3:03:b0:19
        Signature Algorithm: sha256WithRSAEncryption
        Issuer: C = PA, ST = Panama, L = Panama City, O = TrustCor Systems S. de R.L., OU = TrustCor Certificate Authority, CN = TrustCor RootCert CA-1
        Validity
            Not Before: Feb  4 12:32:16 2016 GMT
            Not After : Dec 31 17:23:16 2029 GMT
        Subject: C = PA, ST = Panama, L = Panama City, O = TrustCor Systems S. de R.L., OU = TrustCor Certificate Authority, CN = TrustCor RootCert CA-1
        Subject Public Key Info:
            Public Key Algorithm: rsaEncryption
                Public-Key: (2048 bit)
                Modulus:
                    00:bf:8e:b7:95:e2:c2:26:12:6b:33:19:c7:40:58:
                    0a:ab:59:aa:8d:00:a3:fc:80:c7:50:7b:8e:d4:20:
                    26:ba:32:12:d8:23:54:49:25:10:22:98:9d:46:d2:
                    c1:c9:9e:4e:1b:2e:2c:0e:38:f3:1a:25:68:1c:a6:
                    5a:05:e6:1e:8b:48:bf:98:96:74:3e:69:ca:e9:b5:
                    78:a5:06:bc:d5:00:5e:09:0a:f2:27:7a:52:fc:2d:
                    d5:b1:ea:b4:89:61:24:f3:1a:13:db:a9:cf:52:ed:
                    0c:24:ba:b9:9e:ec:7e:00:74:fa:93:ad:6c:29:92:
                    ae:51:b4:bb:d3:57:bf:b3:f3:a8:8d:9c:f4:24:4b:
                    2a:d6:99:9e:f4:9e:fe:c0:7e:42:3a:e7:0b:95:53:
                    da:b7:68:0e:90:4c:fb:70:3f:8f:4a:2c:94:f3:26:
                    dd:63:69:a9:94:d8:10:4e:c5:47:08:90:99:1b:17:
                    4d:b9:6c:6e:ef:60:95:11:8e:21:80:b5:bd:a0:73:
                    d8:d0:b2:77:c4:45:ea:5a:26:fb:66:76:76:f8:06:
                    1f:61:6d:0f:55:c5:83:b7:10:56:72:06:07:a5:f3:
                    b1:1a:03:05:64:0e:9d:5a:8a:d6:86:70:1b:24:de:
                    fe:28:8a:2b:d0:6a:b0:fc:7a:a2:dc:b2:79:0e:8b:
                    65:0f
                Exponent: 65537 (0x10001)
        X509v3 extensions:
            X509v3 Subject Key Identifier: 
                EE:6B:49:3C:7A:3F:0D:E3:B1:09:B7:8A:C8:AB:19:9F:73:33:50:E7
            X509v3 Authority Key Identifier: 
                EE:6B:49:3C:7A:3F:0D:E3:B1:09:B7:8A:C8:AB:19:9F:73:33:50:E7
            X509v3 Basic Constraints: critical
                CA:TRUE
            X509v3 Key Usage: critical
                Digital Signature, Certificate Sign, CRL Sign
    Signature Algorithm: sha256WithRSAEncryption
    Signature Value:
        25:18:d4:91:8f:13:ee:8f:1e:1d:11:53:da:2d:44:29:19:a0:
        1e:6b:31:9e:4d:0e:9e:ad:3d:5c:41:6f:95:2b:24:a1:79:98:
        3a:38:36:fb:bb:66:9e:48:ff:90:90:ef:3d:d4:b8:9b:b4:87:
        75:3f:20:9b:ce:72:cf:a1:55:c1:4d:64:a2:19:06:a1:07:33:
        0c:0b:29:e5:f1:ea:ab:a3:ec:b5:0a:74:90:c7:7d:72:f2:d7:
        5c:9f:91:ef:91:8b:b7:dc:ed:66:a2:cf:8e:66:3b:bc:9f:3a:
        02:e0:27:dd:16:98:c0:95:d4:0a:a4:e4:81:9a:75:94:35:9c:
        90:5f:88:37:06:ad:59:95:0a:b0:d1:67:d3:19:ca:89:e7:32:
        5a:36:1c:3e:82:a8:5a:93:be:c6:d0:64:91:b6:cf:d9:b6:18:
        cf:db:7e:d2:65:a3:a6:c4:8e:17:31:c1:fb:7e:76:db:d3:85:
        e3:58:b2:77:7a:76:3b:6c:2f:50:1c:e7:db:f6:67:79:1f:f5:
        82:95:9a:07:a7:14:af:8f:dc:28:21:67:09:d2:d6:4d:5a:1c:
        19:1c:8e:77:5c:c3:94:24:3d:32:6b:4b:7e:d4:78:94:83:be:
        37:4d:ce:5f:c7:1e:4e:3c:e0:89:33:95:0b:0f:a5:32:d6:3c:
        5a:79:2c:19
-----BEGIN CERTIFICATE-----
MIIEMDCCAxigAwIBAgIJANqb7HHzA7AZMA0GCSqGSIb3DQEBCwUAMIGkMQswCQYD
VQQGEwJQQTEPMA0GA1UECAwGUGFuYW1hMRQwEgYDVQQHDAtQYW5hbWEgQ2l0eTEk
MCIGA1UECgwbVHJ1c3RDb3IgU3lzdGVtcyBTLiBkZSBSLkwuMScwJQYDVQQLDB5U
cnVzdENvciBDZXJ0aWZpY2F0ZSBBdXRob3JpdHkxHzAdBgNVBAMMFlRydXN0Q29y
IFJvb3RDZXJ0IENBLTEwHhcNMTYwMjA0MTIzMjE2WhcNMjkxMjMxMTcyMzE2WjCB
pDELMAkGA1UEBhMCUEExDzANBgNVBAgMBlBhbmFtYTEUMBIGA1UEBwwLUGFuYW1h
IENpdHkxJDAiBgNVBAoMG1RydXN0Q29yIFN5c3RlbXMgUy4gZGUgUi5MLjEnMCUG
A1UECwweVHJ1c3RDb3IgQ2VydGlmaWNhdGUgQXV0aG9yaXR5MR8wHQYDVQQDDBZU
cnVzdENvciBSb290Q2VydCBDQS0xMIIBIjANBgkqhkiG9w0BAQEFAAOCAQ8AMIIB
CgKCAQEAv463leLCJhJrMxnHQFgKq1mqjQCj/IDHUHuO1CAmujIS2CNUSSUQIpid
RtLByZ5OGy4sDjjzGiVoHKZaBeYei0i/mJZ0PmnK6bV4pQa81QBeCQryJ3pS/C3V
seq0iWEk8xoT26nPUu0MJLq5nux+AHT6k61sKZKuUbS701e/s/OojZz0JEsq1pme
9J7+wH5COucLlVPat2gOkEz7cD+PSiyU8ybdY2mplNgQTsVHCJCZGxdNuWxu72CV
EY4hgLW9oHPY0LJ3xEXqWib7ZnZ2+AYfYW0PVcWDtxBWcgYHpfOxGgMFZA6dWorW
hnAbJN7+KIor0Gqw/Hqi3LJ5DotlDwIDAQABo2MwYTAdBgNVHQ4EFgQU7mtJPHo/
DeOxCbeKyKsZn3MzUOcwHwYDVR0jBBgwFoAU7mtJPHo/DeOxCbeKyKsZn3MzUOcw
DwYDVR0TAQH/BAUwAwEB/zAOBgNVHQ8BAf8EBAMCAYYwDQYJKoZIhvcNAQELBQAD
ggEBACUY1JGPE+6PHh0RU9otRCkZoB5rMZ5NDp6tPVxBb5UrJKF5mDo4Nvu7Zp5I
/5CQ7z3UuJu0h3U/IJvOcs+hVcFNZKIZBqEHMwwLKeXx6quj7LUKdJDHfXLy11yf
ke+Ri7fc7Waiz45mO7yfOgLgJ90WmMCV1Aqk5IGadZQ1nJBfiDcGrVmVCrDRZ9MZ
yonnMlo2HD6CqFqTvsbQZJG2z9m2GM/bftJlo6bEjhcxwft+dtvTheNYsnd6djts
L1Ac59v2Z3kf9YKVmgenFK+P3CghZwnS1k1aHBkcjndcw5QkPTJrS37UeJSDvjdN
zl/HHk484IkzlQsPpTLWPFp5LBk=
-----END CERTIFICATE-----
