Certificate:
    Data:
        Version: 3 (0x2)
        Serial Number:
            50:70:6b:cd:d8:13:fc:1b:4e:3b:33:72:d2:11:48:8d
        Signature Algorithm: sha256WithRSAEncryption
        Issuer: C=CN, O=WoSign CA Limited, CN=CA \xE6\xB2\x83\xE9\x80\x9A\xE6\xA0\xB9\xE8\xAF\x81\xE4\xB9\xA6
        Validity
            Not Before: Aug  8 01:00:01 2009 GMT
            Not After : Aug  8 01:00:01 2039 GMT
        Subject: C=CN, O=WoSign CA Limited, CN=CA \xE6\xB2\x83\xE9\x80\x9A\xE6\xA0\xB9\xE8\xAF\x81\xE4\xB9\xA6
        Subject Public Key Info:
            Public Key Algorithm: rsaEncryption
            RSA Public Key: (4096 bit)
                Modulus (4096 bit):
                    00:d0:49:21:1e:25:fc:87:c1:2a:c2:ac:db:76:86:
                    06:4e:e7:d0:74:34:dc:ed:65:35:fc:50:d6:88:3f:
                    a4:f0:7f:eb:0f:5f:79:2f:89:b1:fd:bc:63:58:37:
                    93:9b:38:f8:b7:5b:a9:fa:d8:71:c7:b4:bc:80:97:
                    8d:6c:4b:f1:50:d5:2a:29:aa:a8:19:7a:96:e6:95:
                    8e:74:ed:97:0a:57:75:f4:05:db:6d:0b:39:b9:01:
                    7f:aa:f6:d6:da:6c:e6:05:e0:a4:4d:52:fc:db:d0:
                    74:b7:11:8c:7b:8d:4f:ff:87:83:ae:ff:05:03:13:
                    57:50:37:fe:8c:96:52:10:4c:5f:bf:94:71:69:d9:
                    96:3e:0c:43:4f:be:30:c0:9f:39:74:4f:06:45:5d:
                    a3:d6:56:39:68:07:cc:87:4f:50:77:93:71:d9:44:
                    08:b1:8a:34:e9:89:ac:db:9b:4e:e1:d9:e4:52:45:
                    8c:2e:14:1f:91:6b:19:1d:68:29:2c:56:c4:e2:1e:
                    13:57:64:f0:61:e3:b9:11:df:b0:e1:57:a0:1b:ad:
                    d7:5f:d1:af:db:2b:2d:3f:d0:68:8e:0f:ea:9f:0f:
                    8b:35:58:1b:13:1c:f4:de:35:a1:0a:5d:d6:ea:df:
                    12:6f:c0:fb:69:07:46:72:dc:81:f6:04:23:17:e0:
                    4d:75:e1:72:6f:b0:28:eb:9b:e1:e1:83:a1:9f:4a:
                    5d:af:cc:9b:fa:02:20:b6:18:62:77:91:3b:a3:d5:
                    65:ad:dc:7c:90:77:1c:44:41:a4:4a:8b:eb:95:72:
                    e9:f6:09:64:dc:a8:2d:9f:74:78:e8:c1:a2:09:63:
                    9c:ef:a0:db:4f:9d:95:ab:20:4f:b7:b0:f7:87:5c:
                    a6:a0:e4:37:38:c7:5c:e3:35:0f:2c:ad:a3:80:a2:
                    ec:2e:5d:c0:cf:ed:8b:05:c2:e6:73:6e:f6:89:d5:
                    f5:d2:46:8e:ea:6d:63:1b:1e:8a:c9:7d:a6:f8:9c:
                    eb:e5:d5:63:85:4d:73:66:69:11:fe:c8:0e:f4:c1:
                    c7:66:49:53:7e:e4:19:6b:f1:e9:7a:59:a3:6d:7e:
                    c5:17:e6:27:c6:ef:1b:db:6f:fc:0d:4d:06:01:b4:
                    0e:5c:30:46:55:60:af:38:65:3a:ca:47:ba:ac:2c:
                    cc:46:1f:b2:46:96:3f:f3:ed:26:05:ee:77:a1:6a:
                    6b:7e:2d:6d:58:5c:4a:d4:8e:67:b8:f1:da:d5:46:
                    8a:27:f9:11:f2:c9:42:fe:4e:de:df:1f:5c:c4:a4:
                    86:87:16:33:a1:a7:17:18:a5:0d:e4:05:e5:2b:c2:
                    2b:0b:a2:95:90:b9:fd:60:3c:4e:89:3e:e7:9c:ee:
                    1f:bb:01
                Exponent: 65537 (0x10001)
        X509v3 extensions:
            X509v3 Key Usage: critical
                Certificate Sign, CRL Sign
            X509v3 Basic Constraints: critical
                CA:TRUE
            X509v3 Subject Key Identifier: 
                E0:4D:BF:DC:9B:41:5D:13:E8:64:F0:A7:E9:15:A4:E1:81:C1:BA:31
    Signature Algorithm: sha256WithRSAEncryption
        6a:8a:70:38:59:b6:da:8b:18:c8:be:2a:d3:b6:19:d5:66:29:
        7a:5d:cd:5b:2f:73:1c:26:4e:a3:7d:6f:ab:b7:29:4d:a6:e9:
        a5:11:83:a7:39:73:af:10:44:92:e6:25:5d:4f:61:fa:c8:06:
        be:4e:4b:ef:fe:f3:31:fe:c6:7c:70:0a:41:58:da:e8:99:4b:
        96:c9:78:bc:98:7c:02:29:ed:09:80:e6:0a:3a:82:02:2a:e2:
        c9:2f:c8:56:19:26:ee:78:1c:23:fd:f7:93:65:4e:e7:f3:98:
        98:af:cd:dd:d9:9e:40:88:31:28:3a:ab:2e:0b:b0:ac:0c:24:
        fa:7a:26:98:f3:12:61:10:f4:5d:17:f7:7e:e2:78:97:54:e2:
        8c:e8:29:ba:8c:10:32:bd:dd:33:6b:38:86:7e:39:3d:0e:03:
        72:a7:5d:79:8f:45:8a:59:ae:5b:21:6e:31:46:d5:59:8d:cf:
        15:5f:dd:31:25:cf:db:60:d6:81:44:72:29:02:57:f6:96:d4:
        d6:ff:ea:29:db:39:c5:b8:2c:8a:1a:8d:ce:cb:e7:42:31:86:
        05:68:0e:9e:14:dd:00:90:ba:69:45:08:db:6e:90:81:86:a7:
        2a:05:3f:e6:84:39:f8:b7:f9:57:5f:4c:a4:79:5a:10:0c:5e:
        d5:6b:ff:35:5f:05:51:1e:6c:a3:75:a9:cf:50:83:d3:7c:f4:
        66:f7:82:8d:3d:0c:7d:e8:df:7b:a8:0e:1b:2c:9c:ae:40:70:
        87:da:ed:a7:16:82:5a:be:35:6c:20:4e:22:61:d9:bc:51:7a:
        cd:7a:61:dc:4b:11:f9:fe:67:34:cf:2e:04:66:61:5c:57:97:
        23:8c:f3:86:1b:48:df:2a:af:a7:c1:ff:d8:8e:3e:03:bb:d8:
        2a:b0:fa:14:25:b2:51:6b:86:43:85:2e:07:23:16:80:8d:4c:
        fb:b4:63:3b:cc:c3:74:ed:1b:a3:1e:fe:35:0f:5f:7c:1d:16:
        86:f5:0e:c3:95:f1:2f:af:5d:25:3b:51:e6:d7:76:41:38:d1:
        4b:03:39:28:a5:1e:91:72:d4:7d:ab:97:33:c4:d3:3e:e0:69:
        b6:28:79:a0:09:8d:1c:d1:ff:41:72:48:06:fc:9a:2e:e7:20:
        f9:9b:a2:de:89:ed:ae:3c:09:af:ca:57:b3:92:89:70:40:e4:
        2f:4f:c2:70:83:40:d7:24:2c:6b:e7:09:1f:d3:d5:c7:c1:08:
        f4:db:0e:3b:1c:07:0b:43:11:84:21:86:e9:80:d4:75:d8:ab:
        f1:02:62:c1:b1:7e:55:61:cf:13:d7:26:b0:d7:9c:cb:29:8b:
        38:4a:0b:0e:90:8d:ba:a1
-----BEGIN CERTIFICATE-----
MIIFWDCCA0CgAwIBAgIQUHBrzdgT/BtOOzNy0hFIjTANBgkqhkiG9w0BAQsFADBG
MQswCQYDVQQGEwJDTjEaMBgGA1UEChMRV29TaWduIENBIExpbWl0ZWQxGzAZBgNV
BAMMEkNBIOayg+mAmuagueivgeS5pjAeFw0wOTA4MDgwMTAwMDFaFw0zOTA4MDgw
MTAwMDFaMEYxCzAJBgNVBAYTAkNOMRowGAYDVQQKExFXb1NpZ24gQ0EgTGltaXRl
ZDEbMBkGA1UEAwwSQ0Eg5rKD6YCa5qC56K+B5LmmMIICIjANBgkqhkiG9w0BAQEF
AAOCAg8AMIICCgKCAgEA0EkhHiX8h8EqwqzbdoYGTufQdDTc7WU1/FDWiD+k8H/r
D195L4mx/bxjWDeTmzj4t1up+thxx7S8gJeNbEvxUNUqKaqoGXqW5pWOdO2XCld1
9AXbbQs5uQF/qvbW2mzmBeCkTVL829B0txGMe41P/4eDrv8FAxNXUDf+jJZSEExf
v5RxadmWPgxDT74wwJ85dE8GRV2j1lY5aAfMh09Qd5Nx2UQIsYo06Yms25tO4dnk
UkWMLhQfkWsZHWgpLFbE4h4TV2TwYeO5Ed+w4VegG63XX9Gv2ystP9Bojg/qnw+L
NVgbExz03jWhCl3W6t8Sb8D7aQdGctyB9gQjF+BNdeFyb7Ao65vh4YOhn0pdr8yb
+gIgthhid5E7o9Vlrdx8kHccREGkSovrlXLp9glk3Kgtn3R46MGiCWOc76DbT52V
qyBPt7D3h1ymoOQ3OMdc4zUPLK2jgKLsLl3Az+2LBcLmc272idX10kaO6m1jGx6K
yX2m+Jzr5dVjhU1zZmkR/sgO9MHHZklTfuQZa/HpelmjbX7FF+Ynxu8b22/8DU0G
AbQOXDBGVWCvOGU6yke6rCzMRh+yRpY/8+0mBe53oWprfi1tWFxK1I5nuPHa1UaK
J/kR8slC/k7e3x9cxKSGhxYzoacXGKUN5AXlK8IrC6KVkLn9YDxOiT7nnO4fuwEC
AwEAAaNCMEAwDgYDVR0PAQH/BAQDAgEGMA8GA1UdEwEB/wQFMAMBAf8wHQYDVR0O
BBYEFOBNv9ybQV0T6GTwp+kVpOGBwboxMA0GCSqGSIb3DQEBCwUAA4ICAQBqinA4
WbbaixjIvirTthnVZil6Xc1bL3McJk6jfW+rtylNpumlEYOnOXOvEESS5iVdT2H6
yAa+Tkvv/vMx/sZ8cApBWNromUuWyXi8mHwCKe0JgOYKOoICKuLJL8hWGSbueBwj
/feTZU7n85iYr83d2Z5AiDEoOqsuC7CsDCT6eiaY8xJhEPRdF/d+4niXVOKM6Cm6
jBAyvd0zaziGfjk9DgNyp115j0WKWa5bIW4xRtVZjc8VX90xJc/bYNaBRHIpAlf2
ltTW/+op2znFuCyKGo3Oy+dCMYYFaA6eFN0AkLppRQjbbpCBhqcqBT/mhDn4t/lX
X0ykeVoQDF7Va/81XwVRHmyjdanPUIPTfPRm94KNPQx96N97qA4bLJyuQHCH2u2n
FoJavjVsIE4iYdm8UXrNemHcSxH5/mc0zy4EZmFcV5cjjPOGG0jfKq+nwf/Yjj4D
u9gqsPoUJbJRa4ZDhS4HIxaAjUz7tGM7zMN07RujHv41D198HRaG9Q7DlfEvr10l
O1Hm13ZBONFLAzkopR6RctR9q5czxNM+4Gm2KHmgCY0c0f9BckgG/Jou5yD5m6Le
ie2uPAmvylezkolwQOQvT8Jwg0DXJCxr5wkf09XHwQj02w47HAcLQxGEIYbpgNR1
2KvxAmLBsX5VYc8T1yaw15zLKYs4SgsOkI26oQ==
-----END CERTIFICATE-----
