Certificate:
    Data:
        Version: 3 (0x2)
        Serial Number:
            19:ff:34:56:9d:36:6b:a1:f6:6e:8d:95:32:ee:05:d0:55:b9:dd:1d
        Signature Algorithm: sha384WithRSAEncryption
        Issuer: C = BM, O = QuoVadis Limited, CN = QuoVadis Root CA 3 G3
        Validity
            Not Before: Apr 19 18:38:50 2017 GMT
            Not After : Apr 19 18:38:50 2025 GMT
        Subject: C = AE, O = DarkMatter LLC, CN = DarkMatter Assured CA
        Subject Public Key Info:
            Public Key Algorithm: rsaEncryption
                RSA Public-Key: (4096 bit)
                Modulus:
                    00:89:14:f9:94:77:15:68:79:c0:1b:95:4c:72:c0:
                    f7:40:b1:01:c8:f6:90:f8:1d:d4:8a:47:23:4e:7c:
                    4b:7e:73:3f:e1:65:16:db:42:c4:0e:ec:ec:d0:99:
                    ef:27:5d:f3:b1:fc:4c:3e:bb:48:2c:e8:1e:81:94:
                    dd:a7:3e:66:eb:0f:66:2b:89:22:62:af:1d:da:82:
                    82:1b:8b:35:34:35:46:19:73:23:27:95:67:72:b1:
                    e6:59:02:7d:cb:02:7c:e8:51:b2:0b:be:48:31:03:
                    86:ef:e9:bf:fd:99:b4:00:2d:57:2e:49:b0:a1:fd:
                    67:65:a7:90:ee:7a:3a:93:33:e8:f3:fb:26:4c:8c:
                    12:4d:8f:0b:d1:04:c9:7a:47:28:f5:48:9d:4d:6d:
                    6e:0b:03:9b:b1:23:86:c8:de:e8:73:fc:53:23:be:
                    50:33:0c:77:37:57:89:88:30:57:75:f3:03:8c:cc:
                    fe:4c:be:14:3a:1f:1a:e3:6e:57:14:7b:12:b7:96:
                    ea:b3:8b:ed:88:05:d5:75:f2:f6:0a:2d:2b:e7:14:
                    44:9a:ea:17:04:fb:4b:b2:84:10:68:5e:a0:e3:c5:
                    88:17:f4:4f:c4:1d:c1:b6:c4:f3:50:58:81:8d:a7:
                    d5:19:9a:dc:f6:1f:54:0a:87:7d:19:a8:17:68:89:
                    9d:41:ef:5f:71:7f:52:fb:11:c7:ba:88:a7:5e:79:
                    2a:93:96:22:41:36:8d:41:4b:52:76:b8:d6:d6:41:
                    32:47:aa:a7:ef:81:07:12:d1:9a:0b:99:06:ca:9c:
                    5e:ce:e4:5f:8d:2d:82:a9:cf:0d:59:b7:26:11:ae:
                    4c:c8:d7:e2:b8:70:d0:a1:46:1f:1d:c8:17:c8:a1:
                    ff:1a:a9:25:59:1a:48:dd:69:72:9a:59:e0:e3:74:
                    4b:0d:63:85:2a:6d:b7:45:05:92:6d:cd:30:5b:5e:
                    fa:0c:12:96:42:d1:f7:46:ee:d5:6b:5c:b5:3e:5d:
                    2f:dc:ac:c8:e4:ba:f2:5c:d9:6d:49:09:ee:ba:b3:
                    6e:ed:c4:86:11:59:25:f8:9b:98:83:c5:21:1b:de:
                    78:94:5f:19:40:18:40:7e:40:3a:54:cf:39:6c:ef:
                    8a:aa:80:17:b4:20:8a:64:f5:a2:73:0c:f4:47:67:
                    68:a4:ee:da:08:84:bd:c4:a4:4e:a4:8f:db:c4:ae:
                    5c:d5:39:88:ab:b9:10:61:1f:54:54:7f:69:24:32:
                    5f:fd:51:98:fb:39:44:0e:16:d4:7e:79:3b:a9:40:
                    00:e0:0c:74:ca:a5:e9:de:22:78:83:d9:f9:35:04:
                    43:fd:27:97:8e:14:e3:62:7c:7b:ee:33:1c:e2:c1:
                    c0:ab:73
                Exponent: 65537 (0x10001)
        X509v3 extensions:
            X509v3 Basic Constraints: critical
                CA:TRUE, pathlen:0
            X509v3 Certificate Policies: 
                Policy: 2.16.784.1.1.7.35.2.2.2
                  CPS: https://ca.darkmatter.ae/iCPS
                Policy: 1.3.6.1.4.1.8024.1.300

            Authority Information Access: 
                OCSP - URI:http://ocsp.quovadisglobal.com
                CA Issuers - URI:http://cacerts.darkmatter.ae/qvrca3g3.crt

            X509v3 Key Usage: critical
                Digital Signature, Certificate Sign, CRL Sign
            X509v3 Extended Key Usage: 
                TLS Web Client Authentication, OCSP Signing, E-mail Protection, 1.3.6.1.4.1.311.10.3.12
            X509v3 Authority Key Identifier: 
                keyid:C6:17:D0:BC:A8:EA:02:43:F2:1B:06:99:5D:2B:90:20:B9:D7:9C:E4

            X509v3 CRL Distribution Points: 

                Full Name:
                  URI:http://crl1.darkmatter.ae/qvrca3g3.crl

                Full Name:
                  URI:http://crl2.darkmatter.ae/qvrca3g3.crl

            X509v3 Subject Key Identifier: 
                05:61:41:C6:3D:0D:28:BE:62:9F:98:F3:AF:A3:33:EA:C0:FD:F0:E9
    Signature Algorithm: sha384WithRSAEncryption
         7e:30:5a:ca:6c:5d:00:d9:94:38:c3:ca:b7:ca:50:c1:d1:c5:
         45:93:f7:76:1b:bb:26:d8:63:f2:a0:3e:44:97:60:d1:be:04:
         ba:a3:77:9f:f5:57:cb:be:e6:57:72:20:5c:81:5d:39:68:e5:
         b7:e4:1d:ac:43:c3:48:37:45:f4:f1:f4:cd:e0:ca:f1:3c:65:
         3a:af:e6:3e:ce:cd:28:47:ed:d1:e7:24:fd:08:32:e4:89:15:
         fd:30:d7:48:84:eb:75:7c:3e:e4:55:42:b4:b8:1b:98:7b:6b:
         cb:91:ff:34:f9:d3:ec:d4:3b:a2:e4:5b:4c:34:e6:6a:ec:ca:
         46:a5:47:e1:fa:b6:1b:1e:95:f2:d7:a1:eb:8d:40:38:c3:d2:
         f7:07:63:31:2d:93:cc:71:a6:e1:41:a3:f6:31:22:67:c8:3b:
         65:fd:4d:c8:4b:07:2a:52:f6:51:9a:2d:9f:b3:94:e9:a2:35:
         70:08:a2:a7:b2:ab:c6:fd:e9:62:74:07:5c:eb:2d:19:c4:8d:
         10:10:d1:f5:f4:80:b2:2f:00:ff:c4:94:30:b2:b5:db:be:e0:
         9c:b9:ff:2f:7c:dc:96:ae:06:c0:0a:93:2e:19:7c:f8:28:79:
         02:ac:c5:59:14:cd:63:24:f3:6e:c4:87:80:19:ce:ea:00:72:
         9e:87:7d:02:5c:34:01:74:f7:a8:6e:66:b4:d3:99:4e:57:d7:
         43:32:3b:c1:9d:08:65:06:f7:e2:e0:35:22:88:2f:9c:fd:5e:
         95:ee:d9:38:90:17:0b:ee:87:81:47:13:de:42:8e:48:1a:c1:
         0f:93:f3:b4:3a:28:5a:8d:66:6c:1d:9f:95:b7:75:41:d0:cf:
         9d:30:2e:5d:a6:af:3b:05:e1:0c:ff:1f:a1:c1:e7:3e:3e:14:
         6d:01:52:e0:b8:40:12:fe:c4:4c:48:88:0f:ad:43:c9:06:54:
         b1:76:a4:3f:24:16:62:08:bb:51:ff:81:86:b4:af:eb:d3:62:
         ad:df:41:bb:58:85:42:cf:1b:6d:a9:32:8b:39:fb:7d:e9:2e:
         cc:58:fb:bb:e5:da:35:89:38:7e:18:85:dd:80:2a:08:d6:0d:
         8b:25:b4:34:9f:c3:46:bf:ad:af:87:89:59:26:8d:17:f4:7f:
         42:dd:54:b2:40:1d:82:95:a1:40:bb:33:57:fa:c1:c4:fb:e6:
         4c:4b:ef:e8:03:dc:09:d4:83:17:97:67:ad:f3:e3:31:1b:19:
         28:3e:63:4d:1e:9c:de:be:0f:0d:cd:72:9c:0f:5f:2c:7d:0d:
         67:14:aa:a5:8b:37:da:c0:66:a6:2a:05:16:3d:f7:3c:42:cf:
         99:50:d9:06:15:23:3b:2a
-----BEGIN CERTIFICATE-----
MIIG6TCCBNGgAwIBAgIUGf80Vp02a6H2bo2VMu4F0FW53R0wDQYJKoZIhvcNAQEM
BQAwSDELMAkGA1UEBhMCQk0xGTAXBgNVBAoTEFF1b1ZhZGlzIExpbWl0ZWQxHjAc
BgNVBAMTFVF1b1ZhZGlzIFJvb3QgQ0EgMyBHMzAeFw0xNzA0MTkxODM4NTBaFw0y
NTA0MTkxODM4NTBaMEYxCzAJBgNVBAYTAkFFMRcwFQYDVQQKDA5EYXJrTWF0dGVy
IExMQzEeMBwGA1UEAwwVRGFya01hdHRlciBBc3N1cmVkIENBMIICIjANBgkqhkiG
9w0BAQEFAAOCAg8AMIICCgKCAgEAiRT5lHcVaHnAG5VMcsD3QLEByPaQ+B3Uikcj
TnxLfnM/4WUW20LEDuzs0JnvJ13zsfxMPrtILOgegZTdpz5m6w9mK4kiYq8d2oKC
G4s1NDVGGXMjJ5VncrHmWQJ9ywJ86FGyC75IMQOG7+m//Zm0AC1XLkmwof1nZaeQ
7no6kzPo8/smTIwSTY8L0QTJekco9UidTW1uCwObsSOGyN7oc/xTI75QMwx3N1eJ
iDBXdfMDjMz+TL4UOh8a425XFHsSt5bqs4vtiAXVdfL2Ci0r5xREmuoXBPtLsoQQ
aF6g48WIF/RPxB3BtsTzUFiBjafVGZrc9h9UCod9GagXaImdQe9fcX9S+xHHuoin
Xnkqk5YiQTaNQUtSdrjW1kEyR6qn74EHEtGaC5kGypxezuRfjS2Cqc8NWbcmEa5M
yNfiuHDQoUYfHcgXyKH/GqklWRpI3Wlymlng43RLDWOFKm23RQWSbc0wW176DBKW
QtH3Ru7Va1y1Pl0v3KzI5LryXNltSQnuurNu7cSGEVkl+JuYg8UhG954lF8ZQBhA
fkA6VM85bO+KqoAXtCCKZPWicwz0R2dopO7aCIS9xKROpI/bxK5c1TmIq7kQYR9U
VH9pJDJf/VGY+zlEDhbUfnk7qUAA4Ax0yqXp3iJ4g9n5NQRD/SeXjhTjYnx77jMc
4sHAq3MCAwEAAaOCAcswggHHMBIGA1UdEwEB/wQIMAYBAf8CAQAwUgYDVR0gBEsw
STA5BgpghhABAQcjAgICMCswKQYIKwYBBQUHAgEWHWh0dHBzOi8vY2EuZGFya21h
dHRlci5hZS9pQ1BTMAwGCisGAQQBvlgBgiwwcQYIKwYBBQUHAQEEZTBjMCoGCCsG
AQUFBzABhh5odHRwOi8vb2NzcC5xdW92YWRpc2dsb2JhbC5jb20wNQYIKwYBBQUH
MAKGKWh0dHA6Ly9jYWNlcnRzLmRhcmttYXR0ZXIuYWUvcXZyY2EzZzMuY3J0MA4G
A1UdDwEB/wQEAwIBhjAzBgNVHSUELDAqBggrBgEFBQcDAgYIKwYBBQUHAwkGCCsG
AQUFBwMEBgorBgEEAYI3CgMMMB8GA1UdIwQYMBaAFMYX0Lyo6gJD8hsGmV0rkCC5
15zkMGUGA1UdHwReMFwwLKAqoCiGJmh0dHA6Ly9jcmwxLmRhcmttYXR0ZXIuYWUv
cXZyY2EzZzMuY3JsMCygKqAohiZodHRwOi8vY3JsMi5kYXJrbWF0dGVyLmFlL3F2
cmNhM2czLmNybDAdBgNVHQ4EFgQUBWFBxj0NKL5in5jzr6Mz6sD98OkwDQYJKoZI
hvcNAQEMBQADggIBAH4wWspsXQDZlDjDyrfKUMHRxUWT93YbuybYY/KgPkSXYNG+
BLqjd5/1V8u+5ldyIFyBXTlo5bfkHaxDw0g3RfTx9M3gyvE8ZTqv5j7OzShH7dHn
JP0IMuSJFf0w10iE63V8PuRVQrS4G5h7a8uR/zT50+zUO6LkW0w05mrsykalR+H6
thselfLXoeuNQDjD0vcHYzEtk8xxpuFBo/YxImfIO2X9TchLBypS9lGaLZ+zlOmi
NXAIoqeyq8b96WJ0B1zrLRnEjRAQ0fX0gLIvAP/ElDCytdu+4Jy5/y983JauBsAK
ky4ZfPgoeQKsxVkUzWMk827Eh4AZzuoAcp6HfQJcNAF096huZrTTmU5X10MyO8Gd
CGUG9+LgNSKIL5z9XpXu2TiQFwvuh4FHE95CjkgawQ+T87Q6KFqNZmwdn5W3dUHQ
z50wLl2mrzsF4Qz/H6HB5z4+FG0BUuC4QBL+xExIiA+tQ8kGVLF2pD8kFmIIu1H/
gYa0r+vTYq3fQbtYhULPG22pMos5+33pLsxY+7vl2jWJOH4Yhd2AKgjWDYsltDSf
w0a/ra+HiVkmjRf0f0LdVLJAHYKVoUC7M1f6wcT75kxL7+gD3AnUgxeXZ63z4zEb
GSg+Y00enN6+Dw3NcpwPXyx9DWcUqqWLN9rAZqYqBRY99zxCz5lQ2QYVIzsq
-----END CERTIFICATE-----
