Certificate:
    Data:
        Version: 3 (0x2)
        Serial Number:
            e4:ed:82:a7:45:5c:00:a2
    Signature Algorithm: sha1WithRSAEncryption
        Issuer: C = DK, ST = Denmark, L = "industriparken 27, 2750 Ballerup", O = Sennheiser Communications A/S, OU = R&D, CN = 127.0.0.1, emailAddress = support@senncom.com
        Validity
            Not Before: Jan 13 08:57:48 2017 GMT
            Not After : Jan 13 08:57:48 2027 GMT
        Subject: C = DK, ST = Denmark, L = "industriparken 27, 2750 Ballerup", O = Sennheiser Communications A/S, OU = R&D, CN = 127.0.0.1, emailAddress = support@senncom.com
        Subject Public Key Info:
            Public Key Algorithm: rsaEncryption
                Public-Key: (2048 bit)
                Modulus:
                    00:d2:f2:ef:c7:97:06:01:c4:5f:95:d3:54:48:77:
                    05:a0:06:75:e9:a4:23:61:94:75:24:31:77:42:ef:
                    c1:15:01:a3:de:ec:5f:1f:a8:05:3e:a6:af:63:2f:
                    3d:53:58:15:36:42:4e:ad:f1:61:34:99:6c:c7:ff:
                    b1:e2:2c:55:78:4c:9d:01:3b:9c:10:af:95:fd:22:
                    c0:2f:6b:c1:1b:7e:57:10:4c:a3:5a:11:c2:c2:d9:
                    1b:a5:61:c2:c3:0f:a6:b1:57:6e:27:d2:26:a5:74:
                    98:30:82:b1:9b:00:b9:1a:aa:73:73:fb:ff:f5:cb:
                    b4:75:7d:ef:6a:5c:83:59:07:9a:71:5f:7a:49:4b:
                    bf:19:db:1a:1f:68:5e:77:da:d4:ea:00:d0:b4:49:
                    5d:c0:85:29:a2:bc:cc:ff:1b:d4:a4:ff:4e:b3:c8:
                    5d:4d:34:45:8f:f4:c5:b0:c3:71:8d:e6:93:d3:05:
                    cd:59:8e:4e:82:0c:93:f4:7d:61:4e:be:93:03:76:
                    55:0b:6c:de:7c:38:0f:28:1a:d3:d4:2f:03:5d:e8:
                    4f:53:e7:64:84:c3:8e:1d:a9:fb:da:b0:e9:3e:de:
                    bd:76:f0:67:22:c6:5d:0a:c1:70:9c:c5:2c:3b:78:
                    24:a2:65:e9:7e:74:8f:a8:d5:9a:44:5a:23:27:af:
                    29:b5
                Exponent: 65537 (0x10001)
        X509v3 extensions:
            X509v3 Subject Key Identifier: 
                58:5A:52:0B:B7:A7:5F:AF:D3:87:39:44:99:39:6A:AF:11:C3:AA:0E
            X509v3 Authority Key Identifier: 
                keyid:58:5A:52:0B:B7:A7:5F:AF:D3:87:39:44:99:39:6A:AF:11:C3:AA:0E

            X509v3 Basic Constraints: 
                CA:TRUE
    Signature Algorithm: sha1WithRSAEncryption
         6d:e4:c5:3f:58:f7:58:fc:b4:be:c1:09:54:5e:32:90:8d:9b:
         c3:6d:27:f2:13:fd:42:35:7b:8e:89:ce:c1:c6:cf:97:28:e7:
         29:f0:bd:e6:bd:cb:e0:56:5a:f3:08:ac:10:98:60:09:c0:06:
         68:87:39:88:06:54:67:b4:de:8e:23:69:1f:5a:32:d7:97:f9:
         a8:9a:a9:3f:d6:9a:37:6b:3a:a7:94:54:98:30:22:42:1a:de:
         87:20:bf:f6:b0:92:6e:45:0f:ac:b1:4a:61:f8:64:9c:ed:e8:
         bb:0d:35:48:b8:45:fe:25:41:eb:10:28:b8:c6:b6:e6:c3:66:
         6a:54:bf:e3:29:a4:9d:c5:43:5a:60:d5:5a:f6:15:e5:29:1e:
         34:98:e4:ee:73:57:57:25:5f:84:eb:ed:4b:f6:05:51:b2:38:
         cd:d5:9a:0c:b3:dc:48:40:71:27:56:0c:21:8c:13:8e:3d:3e:
         ca:3d:be:9b:cd:11:3d:20:f3:36:51:97:08:b5:61:47:9c:50:
         02:e2:56:b7:3f:e9:76:b1:ae:a4:bc:1e:6e:ff:84:d8:b2:5f:
         1c:32:d3:f3:dc:17:f2:11:43:af:e2:9f:1a:6d:f4:94:57:b8:
         09:7e:a7:0d:b8:ad:bf:d0:5b:e7:7d:60:ae:78:34:8d:d8:73:
         63:f1:93:e4
-----BEGIN CERTIFICATE-----
MIIERTCCAy2gAwIBAgIJAOTtgqdFXACiMA0GCSqGSIb3DQEBBQUAMIG4MQswCQYD
VQQGEwJESzEQMA4GA1UECAwHRGVubWFyazEpMCcGA1UEBwwgaW5kdXN0cmlwYXJr
ZW4gMjcsIDI3NTAgQmFsbGVydXAxJjAkBgNVBAoMHVNlbm5oZWlzZXIgQ29tbXVu
aWNhdGlvbnMgQS9TMQwwCgYDVQQLDANSJkQxEjAQBgNVBAMMCTEyNy4wLjAuMTEi
MCAGCSqGSIb3DQEJARYTc3VwcG9ydEBzZW5uY29tLmNvbTAeFw0xNzAxMTMwODU3
NDhaFw0yNzAxMTMwODU3NDhaMIG4MQswCQYDVQQGEwJESzEQMA4GA1UECAwHRGVu
bWFyazEpMCcGA1UEBwwgaW5kdXN0cmlwYXJrZW4gMjcsIDI3NTAgQmFsbGVydXAx
JjAkBgNVBAoMHVNlbm5oZWlzZXIgQ29tbXVuaWNhdGlvbnMgQS9TMQwwCgYDVQQL
DANSJkQxEjAQBgNVBAMMCTEyNy4wLjAuMTEiMCAGCSqGSIb3DQEJARYTc3VwcG9y
dEBzZW5uY29tLmNvbTCCASIwDQYJKoZIhvcNAQEBBQADggEPADCCAQoCggEBANLy
78eXBgHEX5XTVEh3BaAGdemkI2GUdSQxd0LvwRUBo97sXx+oBT6mr2MvPVNYFTZC
Tq3xYTSZbMf/seIsVXhMnQE7nBCvlf0iwC9rwRt+VxBMo1oRwsLZG6VhwsMPprFX
bifSJqV0mDCCsZsAuRqqc3P7//XLtHV972pcg1kHmnFfeklLvxnbGh9oXnfa1OoA
0LRJXcCFKaK8zP8b1KT/TrPIXU00RY/0xbDDcY3mk9MFzVmOToIMk/R9YU6+kwN2
VQts3nw4Dyga09QvA13oT1PnZITDjh2p+9qw6T7evXbwZyLGXQrBcJzFLDt4JKJl
6X50j6jVmkRaIyevKbUCAwEAAaNQME4wHQYDVR0OBBYEFFhaUgu3p1+v04c5RJk5
aq8Rw6oOMB8GA1UdIwQYMBaAFFhaUgu3p1+v04c5RJk5aq8Rw6oOMAwGA1UdEwQF
MAMBAf8wDQYJKoZIhvcNAQEFBQADggEBAG3kxT9Y91j8tL7BCVReMpCNm8NtJ/IT
/UI1e46JzsHGz5co5ynwvea9y+BWWvMIrBCYYAnABmiHOYgGVGe03o4jaR9aMteX
+aiaqT/WmjdrOqeUVJgwIkIa3ocgv/awkm5FD6yxSmH4ZJzt6LsNNUi4Rf4lQesQ
KLjGtubDZmpUv+MppJ3FQ1pg1Vr2FeUpHjSY5O5zV1clX4Tr7Uv2BVGyOM3Vmgyz
3EhAcSdWDCGME449Pso9vpvNET0g8zZRlwi1YUecUALiVrc/6XaxrqS8Hm7/hNiy
Xxwy0/PcF/IRQ6/inxpt9JRXuAl+pw24rb/QW+d9YK54NI3Yc2Pxk+Q=
-----END CERTIFICATE-----
