Certificate:
    Data:
        Version: 3 (0x2)
        Serial Number:
            05:d6:c1:ab:52:01:fa:8e:08:29:ae:e2:ee:5c:59:5b:b4:24
        Signature Algorithm: sha256WithRSAEncryption
        Issuer: C=US, O=Let's Encrypt, CN=R12
        Validity
            Not Before: May 17 20:32:12 2026 GMT
            Not After : Aug 15 20:32:11 2026 GMT
        Subject: CN=gmail.co.ug
        Subject Public Key Info:
            Public Key Algorithm: rsaEncryption
                Public-Key: (2048 bit)
                Modulus:
                    00:c9:a0:a8:d2:93:9b:0f:84:55:45:d3:5e:55:2d:
                    f2:73:81:80:4f:b3:b7:68:c1:82:36:14:b4:11:ed:
                    1a:77:9f:ec:0d:b6:8d:92:94:22:6d:98:b0:12:7f:
                    d4:bb:a1:4d:44:13:1d:98:bf:3c:1e:71:64:70:c3:
                    e2:d5:a1:e9:17:7f:13:b9:bc:7c:86:d8:15:6d:7d:
                    49:e5:bb:6e:86:ed:4e:e4:4e:f5:38:83:15:77:13:
                    f9:92:6b:dc:c7:67:25:45:a8:29:f8:eb:e3:78:16:
                    b2:f1:e5:c5:5d:09:f8:10:5f:fd:46:f7:e9:0e:84:
                    86:53:58:df:1b:9e:91:8a:0b:0a:64:e6:9a:c7:da:
                    3a:0c:94:0a:f7:88:99:84:11:1d:ae:40:7b:11:eb:
                    f8:8d:7f:72:04:b6:47:d4:d7:16:27:bb:d8:ff:70:
                    7e:27:40:b5:92:00:69:7d:e0:69:76:22:77:f8:3b:
                    ec:e5:59:c5:51:20:25:55:1e:69:7c:85:f3:df:2f:
                    e0:a7:3a:6f:0c:f2:0c:62:bf:8f:b3:d9:a8:3e:27:
                    dc:e6:44:fd:70:52:22:73:cf:ef:25:15:e2:f3:b6:
                    c3:bc:ba:4a:79:5d:e0:3c:e0:97:38:7e:da:d0:94:
                    7e:ae:42:0c:88:cb:ec:2b:8e:2f:10:3a:fb:27:90:
                    3d:49
                Exponent: 65537 (0x10001)
        X509v3 extensions:
            X509v3 Key Usage: critical
                Digital Signature, Key Encipherment
            X509v3 Extended Key Usage: 
                TLS Web Server Authentication
            X509v3 Basic Constraints: critical
                CA:FALSE
            X509v3 Subject Key Identifier: 
                38:FD:E7:30:30:21:DB:D7:4D:CA:FD:FC:3E:C9:45:21:1C:B3:D1:31
            X509v3 Authority Key Identifier: 
                00:B5:29:F2:2D:8E:6F:31:E8:9B:4C:AD:78:3E:FA:DC:E9:0C:D1:D2
            Authority Information Access: 
                CA Issuers - URI:http://r12.i.lencr.org/
            X509v3 Subject Alternative Name: 
                DNS:autodiscover.gmail.co.ug, DNS:cpanel.gmail.co.ug, DNS:cpcalendars.gmail.co.ug, DNS:cpcontacts.gmail.co.ug, DNS:gmail.co.ug, DNS:mail.gmail.co.ug, DNS:webdisk.gmail.co.ug, DNS:webmail.gmail.co.ug, DNS:www.gmail.co.ug
            X509v3 Certificate Policies: 
                Policy: 2.23.140.1.2.1
            X509v3 CRL Distribution Points: 
                Full Name:
                  URI:http://r12.c.lencr.org/37.crl

            CT Precertificate Poison: critical
                NULL
    Signature Algorithm: sha256WithRSAEncryption
    Signature Value:
        3d:f9:c9:29:0c:39:1d:52:0a:93:da:6e:8d:62:55:3e:57:d8:
        1d:c0:12:a8:f3:f5:5c:f6:48:aa:1f:57:b4:77:91:95:f4:a5:
        b1:f4:7f:87:49:f1:30:b6:32:d6:0a:0a:6d:e5:d5:37:26:e8:
        1e:1a:8b:4f:6a:91:32:5a:d1:ce:74:dd:8e:59:60:6b:13:8a:
        08:92:77:54:b3:3b:c1:db:1b:98:18:47:ec:f6:60:8d:8e:35:
        32:18:74:ef:6e:bd:aa:e5:8e:0e:3c:24:72:2f:29:d9:03:a2:
        87:5d:0d:d4:ca:1c:8c:3e:0c:24:0d:f4:8d:38:18:61:35:a3:
        4e:62:a8:02:f8:1a:e1:bf:ee:57:3e:e1:06:8a:f3:4d:f4:23:
        86:58:30:46:94:53:87:05:a4:f6:be:66:ca:99:bf:f5:50:6b:
        71:04:64:95:29:7f:2c:e7:88:4b:c5:46:e7:bc:a5:cd:a7:46:
        e7:14:de:4f:d3:b2:77:56:73:3d:70:9c:38:4d:24:48:6f:ac:
        7c:85:c9:c3:34:7f:cb:f2:cf:e1:a2:61:3e:65:e2:8b:74:76:
        1f:34:ee:0e:77:7b:1b:1f:88:6e:6c:ca:5a:71:25:df:ab:ae:
        e1:9a:8d:29:b9:3f:a9:ef:64:13:73:17:c8:45:ef:cb:e8:32:
        82:33:20:1c
-----BEGIN CERTIFICATE-----
MIIEpDCCA4ygAwIBAgISBdbBq1IB+o4IKa7i7lxZW7QkMA0GCSqGSIb3DQEBCwUA
MDMxCzAJBgNVBAYTAlVTMRYwFAYDVQQKEw1MZXQncyBFbmNyeXB0MQwwCgYDVQQD
EwNSMTIwHhcNMjYwNTE3MjAzMjEyWhcNMjYwODE1MjAzMjExWjAWMRQwEgYDVQQD
EwtnbWFpbC5jby51ZzCCASIwDQYJKoZIhvcNAQEBBQADggEPADCCAQoCggEBAMmg
qNKTmw+EVUXTXlUt8nOBgE+zt2jBgjYUtBHtGnef7A22jZKUIm2YsBJ/1LuhTUQT
HZi/PB5xZHDD4tWh6Rd/E7m8fIbYFW19SeW7bobtTuRO9TiDFXcT+ZJr3MdnJUWo
Kfjr43gWsvHlxV0J+BBf/Ub36Q6EhlNY3xuekYoLCmTmmsfaOgyUCveImYQRHa5A
exHr+I1/cgS2R9TXFie72P9wfidAtZIAaX3gaXYid/g77OVZxVEgJVUeaXyF898v
4Kc6bwzyDGK/j7PZqD4n3OZE/XBSInPP7yUV4vO2w7y6Snld4Dzglzh+2tCUfq5C
DIjL7CuOLxA6+yeQPUkCAwEAAaOCAc0wggHJMA4GA1UdDwEB/wQEAwIFoDATBgNV
HSUEDDAKBggrBgEFBQcDATAMBgNVHRMBAf8EAjAAMB0GA1UdDgQWBBQ4/ecwMCHb
103K/fw+yUUhHLPRMTAfBgNVHSMEGDAWgBQAtSnyLY5vMeibTK14Pvrc6QzR0jAz
BggrBgEFBQcBAQQnMCUwIwYIKwYBBQUHMAKGF2h0dHA6Ly9yMTIuaS5sZW5jci5v
cmcvMIHEBgNVHREEgbwwgbmCGGF1dG9kaXNjb3Zlci5nbWFpbC5jby51Z4ISY3Bh
bmVsLmdtYWlsLmNvLnVnghdjcGNhbGVuZGFycy5nbWFpbC5jby51Z4IWY3Bjb250
YWN0cy5nbWFpbC5jby51Z4ILZ21haWwuY28udWeCEG1haWwuZ21haWwuY28udWeC
E3dlYmRpc2suZ21haWwuY28udWeCE3dlYm1haWwuZ21haWwuY28udWeCD3d3dy5n
bWFpbC5jby51ZzATBgNVHSAEDDAKMAgGBmeBDAECATAuBgNVHR8EJzAlMCOgIaAf
hh1odHRwOi8vcjEyLmMubGVuY3Iub3JnLzM3LmNybDATBgorBgEEAdZ5AgQDAQH/
BAIFADANBgkqhkiG9w0BAQsFAAOCAQEAPfnJKQw5HVIKk9pujWJVPlfYHcASqPP1
XPZIqh9XtHeRlfSlsfR/h0nxMLYy1goKbeXVNyboHhqLT2qRMlrRznTdjllgaxOK
CJJ3VLM7wdsbmBhH7PZgjY41Mhh07269quWODjwkci8p2QOih10N1MocjD4MJA30
jTgYYTWjTmKoAvga4b/uVz7hBorzTfQjhlgwRpRThwWk9r5mypm/9VBrcQRklSl/
LOeIS8VG57ylzadG5xTeT9Oyd1ZzPXCcOE0kSG+sfIXJwzR/y/LP4aJhPmXii3R2
HzTuDnd7Gx+IbmzKWnEl36uu4ZqNKbk/qe9kE3MXyEXvy+gygjMgHA==
-----END CERTIFICATE-----
