Certificate:
    Data:
        Version: 3 (0x2)
        Serial Number: 1228079105 (0x49330001)
        Signature Algorithm: sha1WithRSAEncryption
        Issuer: C = CN, O = CNNIC, CN = CNNIC ROOT
        Validity
            Not Before: Apr 16 07:09:14 2007 GMT
            Not After : Apr 16 07:09:14 2027 GMT
        Subject: C = CN, O = CNNIC, CN = CNNIC ROOT
        Subject Public Key Info:
            Public Key Algorithm: rsaEncryption
                Public-Key: (2048 bit)
                Modulus:
                    00:d3:35:f7:3f:73:77:ad:e8:5b:73:17:c2:d1:6f:
                    ed:55:bc:6e:ea:e8:a4:79:b2:6c:c3:a3:ef:e1:9f:
                    b1:3b:48:85:f5:9a:5c:21:22:10:2c:c5:82:ce:da:
                    e3:9a:6e:37:e1:87:2c:dc:b9:0c:5a:ba:88:55:df:
                    fd:aa:db:1f:31:ea:01:f1:df:39:01:c1:13:fd:48:
                    52:21:c4:55:df:da:d8:b3:54:76:ba:74:b1:b7:7d:
                    d7:c0:e8:f6:59:c5:4d:c8:bd:ad:1f:14:da:df:58:
                    44:25:32:19:2a:c7:7e:7e:8e:ae:38:b0:30:7b:47:
                    72:09:31:f0:30:db:c3:1b:76:29:bb:69:76:4e:57:
                    f9:1b:64:a2:93:56:b7:6f:99:6e:db:0a:04:9c:11:
                    e3:80:1f:cb:63:94:10:0a:a9:e1:64:82:31:f9:8c:
                    27:ed:a6:99:00:f6:70:93:18:f8:a1:34:86:a3:dd:
                    7a:c2:18:79:f6:7a:65:35:cf:90:eb:bd:33:93:9f:
                    53:ab:73:3b:e6:9b:34:20:2f:1d:ef:a9:1d:63:1a:
                    a0:80:db:03:2f:f9:26:1a:86:d2:8d:bb:a9:be:52:
                    3a:87:67:48:0d:bf:b4:a0:d8:26:be:23:5f:73:37:
                    7f:26:e6:92:04:a3:7f:cf:20:a7:b7:f3:3a:ca:cb:
                    99:cb
                Exponent: 65537 (0x10001)
        X509v3 extensions:
            Netscape Cert Type: 
                SSL CA, S/MIME CA, Object Signing CA
            X509v3 Authority Key Identifier: 
                65:F2:31:AD:2A:F7:F7:DD:52:96:0A:C7:02:C1:0E:EF:A6:D5:3B:11
            X509v3 Basic Constraints: critical
                CA:TRUE
            X509v3 Key Usage: 
                Digital Signature, Non Repudiation, Key Encipherment, Data Encipherment, Key Agreement, Certificate Sign, CRL Sign
            X509v3 Subject Key Identifier: 
                65:F2:31:AD:2A:F7:F7:DD:52:96:0A:C7:02:C1:0E:EF:A6:D5:3B:11
    Signature Algorithm: sha1WithRSAEncryption
    Signature Value:
        4b:35:ee:cc:e4:ae:bf:c3:6e:ad:9f:95:3b:4b:3f:5b:1e:df:
        57:29:a2:59:ca:38:e2:b9:1a:ff:9e:e6:6e:32:dd:1e:ae:ea:
        35:b7:f5:93:91:4e:da:42:e1:c3:17:60:50:f2:d1:5c:26:b9:
        82:b7:ea:6d:e4:9c:84:e7:03:79:17:af:98:3d:94:db:c7:ba:
        00:e7:b8:bf:01:57:c1:77:45:32:0c:3b:f1:b4:1c:08:b0:fd:
        51:a0:a1:dd:9a:1d:13:36:9a:6d:b7:c7:3c:b9:e1:c5:d9:17:
        fa:83:d5:3d:15:a0:3c:bb:1e:0b:e2:c8:90:3f:a8:86:0c:fc:
        f9:8b:5e:85:cb:4f:5b:4b:62:11:47:c5:45:7c:05:2f:41:b1:
        9e:10:69:1b:99:96:e0:55:79:fb:4e:86:99:b8:94:da:86:38:
        6a:93:a3:e7:cb:6e:e5:df:ea:21:55:89:9c:7d:7d:7f:98:f5:
        00:89:ee:e3:84:c0:5c:96:b5:c5:46:ea:46:e0:85:55:b6:1b:
        c9:12:d6:c1:cd:cd:80:f3:02:01:3c:c8:69:cb:45:48:63:d8:
        94:d0:ec:85:0e:3b:4e:11:65:f4:82:8c:a6:3d:ae:2e:22:94:
        09:c8:5c:ea:3c:81:5d:16:2a:03:97:16:55:09:db:8a:41:82:
        9e:66:9b:11
-----BEGIN CERTIFICATE-----
MIIDVTCCAj2gAwIBAgIESTMAATANBgkqhkiG9w0BAQUFADAyMQswCQYDVQQGEwJD
TjEOMAwGA1UEChMFQ05OSUMxEzARBgNVBAMTCkNOTklDIFJPT1QwHhcNMDcwNDE2
MDcwOTE0WhcNMjcwNDE2MDcwOTE0WjAyMQswCQYDVQQGEwJDTjEOMAwGA1UEChMF
Q05OSUMxEzARBgNVBAMTCkNOTklDIFJPT1QwggEiMA0GCSqGSIb3DQEBAQUAA4IB
DwAwggEKAoIBAQDTNfc/c3et6FtzF8LRb+1VvG7q6KR5smzDo+/hn7E7SIX1mlwh
IhAsxYLO2uOabjfhhyzcuQxauohV3/2q2x8x6gHx3zkBwRP9SFIhxFXf2tizVHa6
dLG3fdfA6PZZxU3Iva0fFNrfWEQlMhkqx35+jq44sDB7R3IJMfAw28Mbdim7aXZO
V/kbZKKTVrdvmW7bCgScEeOAH8tjlBAKqeFkgjH5jCftppkA9nCTGPihNIaj3XrC
GHn2emU1z5DrvTOTn1OrczvmmzQgLx3vqR1jGqCA2wMv+SYahtKNu6m+UjqHZ0gN
v7Sg2Ca+I19zN38m5pIEo3/PIKe38zrKy5nLAgMBAAGjczBxMBEGCWCGSAGG+EIB
AQQEAwIABzAfBgNVHSMEGDAWgBRl8jGtKvf33VKWCscCwQ7vptU7ETAPBgNVHRMB
Af8EBTADAQH/MAsGA1UdDwQEAwIB/jAdBgNVHQ4EFgQUZfIxrSr3991SlgrHAsEO
76bVOxEwDQYJKoZIhvcNAQEFBQADggEBAEs17szkrr/Dbq2flTtLP1se31cpolnK
OOK5Gv+e5m4y3R6u6jW39ZORTtpC4cMXYFDy0VwmuYK36m3knITnA3kXr5g9lNvH
ugDnuL8BV8F3RTIMO/G0HAiw/VGgod2aHRM2mm23xzy54cXZF/qD1T0VoDy7Hgvi
yJA/qIYM/PmLXoXLT1tLYhFHxUV8BS9BsZ4QaRuZluBVeftOhpm4lNqGOGqTo+fL
buXf6iFViZx9fX+Y9QCJ7uOEwFyWtcVG6kbghVW2G8kS1sHNzYDzAgE8yGnLRUhj
2JTQ7IUOO04RZfSCjKY9ri4ilAnIXOo8gV0WKgOXFlUJ24pBgp5mmxE=
-----END CERTIFICATE-----
