Certificate:
    Data:
        Version: 3 (0x2)
        Serial Number: 10115 (0x2783)
    Signature Algorithm: sha1WithRSAEncryption
        Issuer: C=IN, O=India PKI, CN=CCA India 2007
        Validity
            Not Before: Jul  2 06:41:59 2007 GMT
            Not After : Jul  4 06:30:00 2015 GMT
        Subject: C=IN, O=National Informatics Centre, OU=NICCA, CN=NIC Certifying Authority, L=New Delhi/emailAddress=support@camail.nic.in, ST=Delhi
        Subject Public Key Info:
            Public Key Algorithm: rsaEncryption
                Public-Key: (2048 bit)
                Modulus:
                    00:c0:b4:4a:0c:45:96:0b:58:96:73:1a:55:80:0e:
                    c6:24:48:d0:56:31:88:33:1f:57:3c:ba:1a:30:a5:
                    e2:11:07:5a:8c:78:26:8c:a7:4e:86:51:64:49:68:
                    87:82:20:92:52:8d:fd:53:4f:d4:a0:2e:2b:01:8c:
                    c1:09:c7:c7:59:d0:06:8d:73:6c:ed:db:7f:73:3f:
                    a6:b8:ad:9a:32:83:e8:02:05:d6:2c:5d:80:e3:c0:
                    89:32:b4:dc:c8:d1:44:1e:bc:88:60:97:82:88:af:
                    03:4e:51:21:07:12:fc:20:8f:55:07:1f:2a:29:2a:
                    ae:8b:38:78:31:04:e6:a6:ab:df:8c:73:6a:77:aa:
                    82:1c:5e:aa:f1:6e:37:f6:2a:39:91:52:05:9c:63:
                    5d:fe:9d:15:e4:71:6f:d0:ea:56:78:5f:c8:a4:a2:
                    40:d6:6d:65:6f:bd:bd:17:07:ec:56:9a:a2:a5:fe:
                    c3:2d:54:14:2a:d4:a3:2b:fd:f6:44:3b:41:86:70:
                    26:90:39:56:e8:86:51:3e:cd:85:f3:de:80:e4:23:
                    8f:48:38:c9:94:07:94:5f:c2:6a:0e:70:4e:af:ae:
                    1b:3d:18:14:cb:45:43:9d:6f:ec:a1:10:77:92:79:
                    27:e7:0e:6e:79:78:f7:0e:b8:0e:36:d8:c6:70:14:
                    b0:57
                Exponent: 65537 (0x10001)
        X509v3 extensions:
            X509v3 Basic Constraints: critical
                CA:TRUE
            X509v3 Subject Key Identifier: 
                4C:27:7B:6E:0D:B2:FF:54
            X509v3 Authority Key Identifier: 
                keyid:4F:1E:C0:58:27:D8:B8:E4

            X509v3 Key Usage: 
                Certificate Sign, CRL Sign
            X509v3 CRL Distribution Points: 

                Full Name:
                  URI:ldap://nrdc.cca.gov.in:389/cn=CCA India 2007,ou=CCA India 2007,o=India PKI,c=IN?certificaterevocationlist;binary?

    Signature Algorithm: sha1WithRSAEncryption
         ac:7a:46:45:60:30:64:00:0e:09:78:8d:3c:b7:a8:10:ea:f2:
         7b:e4:7a:00:da:0e:7b:e2:4d:4b:06:ce:c4:7a:46:9a:28:4f:
         4c:5d:c2:e2:a2:45:4d:08:ee:9d:a0:02:8e:ae:05:33:04:66:
         d4:be:5d:62:73:fb:bc:65:7e:8e:1f:6a:8e:57:21:4e:1e:d5:
         fc:64:42:ec:5d:74:cd:b7:fc:9e:cc:e3:e5:33:de:92:fb:ce:
         22:b9:45:c5:62:ce:14:2a:cf:72:23:48:7e:38:d3:f3:a8:16:
         15:01:4f:97:79:59:63:74:86:58:84:72:be:fe:ea:72:cf:00:
         e7:00:5f:fa:91:e7:4f:5a:0e:37:7f:6a:89:df:c9:01:42:33:
         27:e2:3e:96:0b:c7:91:25:4e:ea:94:65:e1:c0:a4:9e:7c:f8:
         8a:6b:c1:bb:b7:10:8b:b1:f8:2f:a6:7d:2f:10:08:c6:3e:59:
         88:de:6a:87:02:23:02:2e:b6:b9:a8:c4:85:f1:1b:2f:72:57:
         93:8a:21:ed:be:e3:0b:02:4f:c6:8d:8a:7f:ba:01:5e:ea:35:
         39:85:56:1a:7e:30:5e:74:bf:af:4e:35:33:bb:c3:64:9a:fa:
         2a:de:d8:de:45:82:49:4c:5b:65:93:0a:2f:1d:f2:bc:0b:cd:
         a5:ae:b1:ee
-----BEGIN CERTIFICATE-----
MIIENjCCAx6gAwIBAgICJ4MwDQYJKoZIhvcNAQEFBQAwOjELMAkGA1UEBhMCSU4x
EjAQBgNVBAoTCUluZGlhIFBLSTEXMBUGA1UEAxMOQ0NBIEluZGlhIDIwMDcwHhcN
MDcwNzAyMDY0MTU5WhcNMTUwNzA0MDYzMDAwWjCBsDELMAkGA1UEBhMCSU4xJDAi
BgNVBAoTG05hdGlvbmFsIEluZm9ybWF0aWNzIENlbnRyZTEOMAwGA1UECxMFTklD
Q0ExITAfBgNVBAMTGE5JQyBDZXJ0aWZ5aW5nIEF1dGhvcml0eTESMBAGA1UEBxMJ
TmV3IERlbGhpMSQwIgYJKoZIhvcNAQkBFhVzdXBwb3J0QGNhbWFpbC5uaWMuaW4x
DjAMBgNVBAgTBURlbGhpMIIBIjANBgkqhkiG9w0BAQEFAAOCAQ8AMIIBCgKCAQEA
wLRKDEWWC1iWcxpVgA7GJEjQVjGIMx9XPLoaMKXiEQdajHgmjKdOhlFkSWiHgiCS
Uo39U0/UoC4rAYzBCcfHWdAGjXNs7dt/cz+muK2aMoPoAgXWLF2A48CJMrTcyNFE
HryIYJeCiK8DTlEhBxL8II9VBx8qKSquizh4MQTmpqvfjHNqd6qCHF6q8W439io5
kVIFnGNd/p0V5HFv0OpWeF/IpKJA1m1lb729FwfsVpqipf7DLVQUKtSjK/32RDtB
hnAmkDlW6IZRPs2F896A5COPSDjJlAeUX8JqDnBOr64bPRgUy0VDnW/soRB3knkn
5w5ueXj3DrgONtjGcBSwVwIDAQABo4HOMIHLMA8GA1UdEwEB/wQFMAMBAf8wEQYD
VR0OBAoECEwne24Nsv9UMBMGA1UdIwQMMAqACE8ewFgn2LjkMAsGA1UdDwQEAwIB
BjCBggYDVR0fBHsweTB3oHWgc4ZxbGRhcDovL25yZGMuY2NhLmdvdi5pbjozODkv
Y249Q0NBIEluZGlhIDIwMDcsb3U9Q0NBIEluZGlhIDIwMDcsbz1JbmRpYSBQS0ks
Yz1JTj9jZXJ0aWZpY2F0ZXJldm9jYXRpb25saXN0O2JpbmFyeT8wDQYJKoZIhvcN
AQEFBQADggEBAKx6RkVgMGQADgl4jTy3qBDq8nvkegDaDnviTUsGzsR6RpooT0xd
wuKiRU0I7p2gAo6uBTMEZtS+XWJz+7xlfo4fao5XIU4e1fxkQuxddM23/J7M4+Uz
3pL7ziK5RcVizhQqz3IjSH440/OoFhUBT5d5WWN0hliEcr7+6nLPAOcAX/qR509a
Djd/aonfyQFCMyfiPpYLx5ElTuqUZeHApJ58+Iprwbu3EIux+C+mfS8QCMY+WYje
aocCIwIutrmoxIXxGy9yV5OKIe2+4wsCT8aNin+6AV7qNTmFVhp+MF50v69ONTO7
w2Sa+ire2N5FgklMW2WTCi8d8rwLzaWuse4=
-----END CERTIFICATE-----
