Certificate:
    Data:
        Version: 3 (0x2)
        Serial Number: 204199 (0x31da7)
    Signature Algorithm: sha1WithRSAEncryption
        Issuer: C = FR, O = DGTPE, CN = AC DGTPE Signature Authentification
        Validity
            Not Before: Jul 18 10:05:28 2013 GMT
            Not After : Jul 18 10:05:28 2014 GMT
        Subject: C = FR, O = DG Tr\C3\A9sor, CN = AC DG Tr\C3\A9sor SSL
        Subject Public Key Info:
            Public Key Algorithm: rsaEncryption
                Public-Key: (2048 bit)
                Modulus:
                    00:c8:d1:61:52:53:26:3e:32:6b:45:92:a1:63:4d:
                    e7:e8:17:20:e0:87:d6:f5:0b:fd:98:bd:22:2f:4f:
                    ca:02:1f:ad:89:59:3e:6b:a5:e4:c2:67:06:97:6e:
                    a5:9c:8d:a3:5f:ce:08:2a:68:5b:28:92:a7:e1:06:
                    27:f8:dc:73:47:36:d3:49:9a:f2:84:df:65:5c:b8:
                    b0:74:4a:9b:0b:47:fd:55:79:37:7d:17:df:42:d4:
                    97:87:55:af:a7:7a:5b:a6:38:71:1f:a2:e5:fc:ad:
                    11:6b:c4:d5:cd:21:84:d5:7a:21:0d:4f:c6:36:62:
                    a4:5b:fd:70:2b:8a:5f:60:ee:2e:bb:e2:e1:73:2e:
                    23:51:fe:df:cd:fc:5f:04:c6:e8:ef:f5:4f:26:f2:
                    b9:a0:b9:df:fe:b4:6f:56:0d:16:83:27:0a:23:dd:
                    91:42:3a:72:f9:a8:b9:d2:50:47:12:e9:3c:d6:a6:
                    8c:cb:98:2d:89:54:ee:46:64:a1:86:77:ba:82:f4:
                    58:dd:06:45:62:96:46:d5:20:41:92:ad:8b:f3:d9:
                    4c:f6:bf:92:06:a8:c0:48:41:a1:4b:fe:44:98:5b:
                    11:93:69:e7:53:3a:4d:9d:ac:51:00:a6:9f:40:10:
                    f4:df:bf:53:70:09:60:5f:7a:0b:06:42:b1:d4:44:
                    e3:37
                Exponent: 65537 (0x10001)
        X509v3 extensions:
            X509v3 Basic Constraints: critical
                CA:TRUE, pathlen:4
            X509v3 Subject Key Identifier: 
                00:0C:5B:C9:49:A8:95:B4:0E:D0:2F:E6:9D:CC:8E:88:31:BE:1F:65
            X509v3 Authority Key Identifier: 
                keyid:E9:DB:90:8F:FD:5B:99:E4:15:3B:F0:62:5C:A7:E4:0D:58:E8:87:99

            X509v3 Key Usage: critical
                Certificate Sign, CRL Sign
    Signature Algorithm: sha1WithRSAEncryption
         b4:37:c6:1e:41:ce:2d:6d:9d:f5:f8:8c:b7:0b:64:13:00:da:
         b8:84:89:2c:9c:82:8e:84:66:6b:0c:e6:41:b2:19:5e:ae:c7:
         68:b9:62:55:f1:34:b1:d7:ca:52:6d:22:43:48:a6:d7:f0:a9:
         9c:92:cf:a1:37:8a:c8:11:ef:36:ed:6e:6c:b7:36:9b:ef:5d:
         69:b0:18:84:5d:e9:55:d2:82:fa:03:5a:03:30:57:67:d1:ad:
         d2:9d:42:2e:4d:65:7f:c1:e0:f9:1d:74:1c:dd:88:3c:2b:fb:
         57:f7:2b:cf:61:9a:f9:cd:b7:e0:fd:e9:7f:06:16:f3:e3:5d:
         ed:a9:46:0a:eb:ea:a2:de:94:61:73:a5:85:e1:7b:cd:65:24:
         1e:7e:b3:ea:db:d8:fb:da:0c:0c:72:92:50:0b:61:84:0f:c5:
         07:9d:09:80:95:3c:f7:3c:93:bf:57:a0:63:79:5d:2b:0b:d8:
         05:6d:d6:df:23:59:75:31:db:3f:23:6c:3c:97:61:a8:0e:79:
         98:33:6c:b5:e1:39:61:3a:75:3f:2c:92:0d:bd:4c:49:5a:db:
         c4:31:2b:ba:81:fa:64:4f:7d:1e:86:f8:22:1f:00:9a:7e:cc:
         1d:96:ad:18:29:44:0a:08:d7:58:56:76:1b:16:bb:39:40:9a:
         42:97:07:f2
-----BEGIN CERTIFICATE-----
MIIDbDCCAlSgAwIBAgIDAx2nMA0GCSqGSIb3DQEBBQUAMEsxCzAJBgNVBAYTAkZS
MQ4wDAYDVQQKEwVER1RQRTEsMCoGA1UEAxMjQUMgREdUUEUgU2lnbmF0dXJlIEF1
dGhlbnRpZmljYXRpb24wHhcNMTMwNzE4MTAwNTI4WhcNMTQwNzE4MTAwNTI4WjA+
MQswCQYDVQQGEwJGUjETMBEGA1UECgwKREcgVHLDqXNvcjEaMBgGA1UEAwwRQUMg
REcgVHLDqXNvciBTU0wwggEiMA0GCSqGSIb3DQEBAQUAA4IBDwAwggEKAoIBAQDI
0WFSUyY+MmtFkqFjTefoFyDgh9b1C/2YvSIvT8oCH62JWT5rpeTCZwaXbqWcjaNf
zggqaFsokqfhBif43HNHNtNJmvKE32VcuLB0SpsLR/1VeTd9F99C1JeHVa+nelum
OHEfouX8rRFrxNXNIYTVeiENT8Y2YqRb/XAril9g7i674uFzLiNR/t/N/F8Exujv
9U8m8rmgud/+tG9WDRaDJwoj3ZFCOnL5qLnSUEcS6TzWpozLmC2JVO5GZKGGd7qC
9FjdBkVilkbVIEGSrYvz2Uz2v5IGqMBIQaFL/kSYWxGTaedTOk2drFEApp9AEPTf
v1NwCWBfegsGQrHUROM3AgMBAAGjZjBkMBIGA1UdEwEB/wQIMAYBAf8CAQQwHQYD
VR0OBBYEFAAMW8lJqJW0DtAv5p3Mjogxvh9lMB8GA1UdIwQYMBaAFOnbkI/9W5nk
FTvwYlyn5A1Y6IeZMA4GA1UdDwEB/wQEAwIBBjANBgkqhkiG9w0BAQUFAAOCAQEA
tDfGHkHOLW2d9fiMtwtkEwDauISJLJyCjoRmawzmQbIZXq7HaLliVfE0sdfKUm0i
Q0im1/CpnJLPoTeKyBHvNu1ubLc2m+9dabAYhF3pVdKC+gNaAzBXZ9Gt0p1CLk1l
f8Hg+R10HN2IPCv7V/crz2Ga+c234P3pfwYW8+Nd7alGCuvqot6UYXOlheF7zWUk
Hn6z6tvY+9oMDHKSUAthhA/FB50JgJU89zyTv1egY3ldKwvYBW3W3yNZdTHbPyNs
PJdhqA55mDNsteE5YTp1PyySDb1MSVrbxDEruoH6ZE99Hob4Ih8Amn7MHZatGClE
CgjXWFZ2Gxa7OUCaQpcH8g==
-----END CERTIFICATE-----
