Certificate:
    Data:
        Version: 3 (0x2)
        Serial Number:
            4a:41:a4:1d:cf:8d:24:61:8b:a9:4b:3d:61:99:5c:c4
    Signature Algorithm: sha1WithRSAEncryption
        Issuer: C = GB, ST = Greater Manchester, L = Salford, O = COMODO CA Limited, CN = EssentialSSL CA
        Validity
            Not Before: Apr 10 00:00:00 2014 GMT
            Not After : Jul  9 23:59:59 2014 GMT
        Subject: OU = Domain Control Validated, OU = Free SSL, CN = cloudflarechallenge.com
        Subject Public Key Info:
            Public Key Algorithm: rsaEncryption
                Public-Key: (2048 bit)
                Modulus:
                    00:9b:40:16:91:59:c3:c7:97:de:39:cb:5d:0b:de:
                    d9:b6:0b:ed:77:6e:6e:28:a9:a1:8c:21:e9:2f:27:
                    26:13:17:b5:46:24:52:97:f8:46:20:be:df:f0:58:
                    3f:aa:25:33:b5:59:b9:b9:76:49:d5:41:bb:77:3c:
                    fe:f4:eb:53:36:1f:af:db:b0:6d:cc:fb:14:df:28:
                    af:1d:eb:f0:00:1d:66:4c:cb:4f:e9:b3:ee:5c:18:
                    f3:b3:14:5c:0b:dc:95:70:10:56:a4:a0:4c:46:73:
                    78:d3:e9:2f:51:96:15:39:ab:82:3e:ab:c4:1d:fa:
                    3a:47:2f:bb:8a:7a:49:62:a4:26:fc:54:8c:e7:46:
                    6b:46:29:82:3b:1f:4d:64:8f:25:bc:83:05:d8:3a:
                    b5:8a:94:a0:87:38:87:11:df:62:c8:c4:77:dd:7e:
                    fe:f6:42:34:f6:90:6b:a9:9d:ed:d3:99:70:18:fb:
                    a7:04:2f:5d:99:a9:2d:87:09:8a:46:05:af:10:41:
                    a6:7b:fd:d8:20:73:55:f9:38:92:f5:ca:b4:0f:f0:
                    b7:bd:fd:f6:82:38:11:e7:d0:0e:32:cc:da:7c:ef:
                    70:55:31:0f:bb:4f:ee:e4:d8:f0:92:b3:ba:80:7c:
                    1d:13:76:f7:5f:40:58:8f:3c:56:93:38:30:ed:3d:
                    60:a5
                Exponent: 65537 (0x10001)
        X509v3 extensions:
            X509v3 Authority Key Identifier: 
                keyid:DA:CB:EA:AD:5B:08:5D:CC:FF:FC:26:54:CE:49:E5:55:C6:38:F4:F8

            X509v3 Subject Key Identifier: 
                6E:AC:AF:17:6B:07:B6:C8:E0:E6:2F:36:C0:13:8D:DF:97:A5:BC:D4
            X509v3 Key Usage: critical
                Digital Signature, Key Encipherment
            X509v3 Basic Constraints: critical
                CA:FALSE
            X509v3 Extended Key Usage: 
                TLS Web Server Authentication, TLS Web Client Authentication, Microsoft Server Gated Crypto, Netscape Server Gated Crypto
            X509v3 Certificate Policies: 
                Policy: 1.3.6.1.4.1.6449.1.2.2.7
                  CPS: https://secure.comodo.com/CPS
                Policy: 2.23.140.1.2.1

            X509v3 CRL Distribution Points: 

                Full Name:
                  URI:http://crl.comodoca.com/EssentialSSLCA.crl

            Authority Information Access: 
                CA Issuers - URI:http://crt.comodoca.com/EssentialSSLCA_2.crt
                OCSP - URI:http://ocsp.comodoca.com

            X509v3 Subject Alternative Name: 
                DNS:cloudflarechallenge.com, DNS:www.cloudflarechallenge.com
    Signature Algorithm: sha1WithRSAEncryption
         65:37:5e:7a:e3:1a:73:d1:fd:04:9c:28:79:74:a3:a3:a3:ab:
         a4:fa:46:cb:cc:48:64:7d:a1:9d:e5:87:62:e1:d8:85:43:d5:
         58:c7:7f:8b:7b:52:42:07:f6:c3:1c:c5:54:7f:09:6a:4e:95:
         74:12:af:03:64:85:93:3b:9c:27:3f:d0:65:44:38:a5:8d:57:
         bb:fb:2f:e3:91:0f:db:fc:1f:3c:92:60:6b:da:38:d1:f4:07:
         ad:d6:5f:21:3a:ba:89:c9:cc:3a:01:c9:3a:17:ee:61:77:f9:
         58:22:f6:7f:d1:81:fe:87:fa:ae:f7:f6:7a:8a:2e:ab:71:40:
         9d:51:61:11:48:a8:93:16:c6:cc:f0:f4:66:1b:f0:b0:6f:82:
         66:e7:63:7c:7a:fe:a6:71:56:26:c5:e0:58:20:f9:9f:e7:51:
         c1:1c:46:a4:37:5d:e8:41:cb:9b:08:08:dd:57:df:fc:0a:e8:
         04:32:b9:79:ea:55:29:b7:b0:58:64:c1:13:da:1e:0d:c8:20:
         eb:7d:39:5b:15:c0:ea:40:2f:98:06:be:5d:2c:33:af:2e:97:
         bb:4f:b0:ef:fa:bd:4f:c1:82:7e:47:40:38:24:2d:05:d9:17:
         54:78:80:56:0b:90:b2:70:97:13:c7:88:7b:65:29:4d:79:6b:
         45:ad:98:09
-----BEGIN CERTIFICATE-----
MIIFLTCCBBWgAwIBAgIQSkGkHc+NJGGLqUs9YZlcxDANBgkqhkiG9w0BAQUFADBy
MQswCQYDVQQGEwJHQjEbMBkGA1UECBMSR3JlYXRlciBNYW5jaGVzdGVyMRAwDgYD
VQQHEwdTYWxmb3JkMRowGAYDVQQKExFDT01PRE8gQ0EgTGltaXRlZDEYMBYGA1UE
AxMPRXNzZW50aWFsU1NMIENBMB4XDTE0MDQxMDAwMDAwMFoXDTE0MDcwOTIzNTk1
OVowWDEhMB8GA1UECxMYRG9tYWluIENvbnRyb2wgVmFsaWRhdGVkMREwDwYDVQQL
EwhGcmVlIFNTTDEgMB4GA1UEAxMXY2xvdWRmbGFyZWNoYWxsZW5nZS5jb20wggEi
MA0GCSqGSIb3DQEBAQUAA4IBDwAwggEKAoIBAQCbQBaRWcPHl945y10L3tm2C+13
bm4oqaGMIekvJyYTF7VGJFKX+EYgvt/wWD+qJTO1Wbm5dknVQbt3PP7061M2H6/b
sG3M+xTfKK8d6/AAHWZMy0/ps+5cGPOzFFwL3JVwEFakoExGc3jT6S9RlhU5q4I+
q8Qd+jpHL7uKeklipCb8VIznRmtGKYI7H01kjyW8gwXYOrWKlKCHOIcR32LIxHfd
fv72QjT2kGupne3TmXAY+6cEL12ZqS2HCYpGBa8QQaZ7/dggc1X5OJL1yrQP8Le9
/faCOBHn0A4yzNp873BVMQ+7T+7k2PCSs7qAfB0TdvdfQFiPPFaTODDtPWClAgMB
AAGjggHXMIIB0zAfBgNVHSMEGDAWgBTay+qtWwhdzP/8JlTOSeVVxjj0+DAdBgNV
HQ4EFgQUbqyvF2sHtsjg5i82wBON35elvNQwDgYDVR0PAQH/BAQDAgWgMAwGA1Ud
EwEB/wQCMAAwNAYDVR0lBC0wKwYIKwYBBQUHAwEGCCsGAQUFBwMCBgorBgEEAYI3
CgMDBglghkgBhvhCBAEwTwYDVR0gBEgwRjA6BgsrBgEEAbIxAQICBzArMCkGCCsG
AQUFBwIBFh1odHRwczovL3NlY3VyZS5jb21vZG8uY29tL0NQUzAIBgZngQwBAgEw
OwYDVR0fBDQwMjAwoC6gLIYqaHR0cDovL2NybC5jb21vZG9jYS5jb20vRXNzZW50
aWFsU1NMQ0EuY3JsMG4GCCsGAQUFBwEBBGIwYDA4BggrBgEFBQcwAoYsaHR0cDov
L2NydC5jb21vZG9jYS5jb20vRXNzZW50aWFsU1NMQ0FfMi5jcnQwJAYIKwYBBQUH
MAGGGGh0dHA6Ly9vY3NwLmNvbW9kb2NhLmNvbTA/BgNVHREEODA2ghdjbG91ZGZs
YXJlY2hhbGxlbmdlLmNvbYIbd3d3LmNsb3VkZmxhcmVjaGFsbGVuZ2UuY29tMA0G
CSqGSIb3DQEBBQUAA4IBAQBlN1564xpz0f0EnCh5dKOjo6uk+kbLzEhkfaGd5Ydi
4diFQ9VYx3+Le1JCB/bDHMVUfwlqTpV0Eq8DZIWTO5wnP9BlRDiljVe7+y/jkQ/b
/B88kmBr2jjR9Aet1l8hOrqJycw6Ack6F+5hd/lYIvZ/0YH+h/qu9/Z6ii6rcUCd
UWERSKiTFsbM8PRmG/Cwb4Jm52N8ev6mcVYmxeBYIPmf51HBHEakN13oQcubCAjd
V9/8CugEMrl56lUpt7BYZMET2h4NyCDrfTlbFcDqQC+YBr5dLDOvLpe7T7Dv+r1P
wYJ+R0A4JC0F2RdUeIBWC5CycJcTx4h7ZSlNeWtFrZgJ
-----END CERTIFICATE-----
