Certificate:
    Data:
        Version: 3 (0x2)
        Serial Number:
            e9:02:8b:95:78:e4:15:dc:1a:71:0a:2b:88:15:44:47
    Signature Algorithm: sha1WithRSAEncryption
        Issuer: C=US, ST=UT, L=Salt Lake City, O=The USERTRUST Network, OU=http://www.usertrust.com, CN=UTN-USERFirst-Hardware
        Validity
            Not Before: Mar 15 00:00:00 2011 GMT
            Not After : Mar 14 23:59:59 2014 GMT
        Subject: C=US/postalCode=38477, ST=Florida, L=English/street=Sea Village 10, O=Google Ltd., OU=Tech Dept., OU=Hosted by GTI Group Corporation, OU=PlatinumSSL, CN=login.skype.com
        Subject Public Key Info:
            Public Key Algorithm: rsaEncryption
                Public-Key: (2048 bit)
                Modulus:
                    00:b0:78:99:86:0e:a2:73:23:d4:5a:c3:49:eb:b1:
                    36:8c:7c:ca:84:ae:3c:af:38:88:28:99:8d:2d:58:
                    13:b1:97:78:3e:52:20:67:ac:5b:73:98:6c:32:55:
                    c9:70:d1:d9:aa:15:e8:2e:26:85:81:bc:56:e4:bc:
                    80:63:db:4e:d7:f5:02:be:51:63:1e:3c:db:df:d7:
                    00:5d:5a:b9:e5:7b:6a:ea:38:20:b2:3b:b6:ee:75:
                    54:84:f9:a6:ca:38:70:dd:bf:b0:ff:a5:85:5d:b4:
                    41:fe:dd:3d:d9:2a:e1:30:43:1a:98:79:93:a0:5f:
                    e0:67:6c:95:fa:3e:7a:ae:71:7b:e3:6d:88:42:3f:
                    25:d4:ee:be:68:68:ac:ad:ac:60:e0:20:a3:39:83:
                    b9:5b:28:a3:93:6d:a1:bd:76:0a:e3:eb:ae:87:27:
                    0e:54:8f:b4:48:0c:9a:54:f4:5d:8e:37:50:dc:5e:
                    a4:8b:6b:4b:dc:a6:f3:34:be:77:59:22:88:ff:19:
                    2b:6d:76:64:73:da:0c:87:07:2b:9a:37:3a:d0:e2:
                    8c:f6:36:32:6b:9a:79:cc:d2:3b:93:6f:1a:4d:6c:
                    e6:c1:9d:40:ac:2d:74:c3:be:ea:5c:73:65:01:29:
                    b1:2a:bf:70:59:c1:ce:c6:c3:a2:c8:45:5f:ba:67:
                    3d:0f
                Exponent: 65537 (0x10001)
        X509v3 extensions:
            X509v3 Authority Key Identifier: 
                keyid:A1:72:5F:26:1B:28:98:43:95:5D:07:37:D5:85:96:9D:4B:D2:C3:45

            X509v3 Subject Key Identifier: 
                D5:8E:5A:51:13:B4:29:0D:31:B6:1C:8D:3E:51:51:31:0A:33:AA:81
            X509v3 Key Usage: critical
                Digital Signature, Key Encipherment
            X509v3 Basic Constraints: critical
                CA:FALSE
            X509v3 Extended Key Usage: 
                TLS Web Server Authentication, TLS Web Client Authentication
            X509v3 Certificate Policies: 
                Policy: 1.3.6.1.4.1.6449.1.2.1.3.4
                  CPS: https://secure.comodo.com/CPS

            X509v3 CRL Distribution Points: 

                Full Name:
                  URI:http://crl.comodoca.com/UTN-USERFirst-Hardware.crl

                Full Name:
                  URI:http://crl.comodo.net/UTN-USERFirst-Hardware.crl

            Authority Information Access: 
                CA Issuers - URI:http://crt.comodoca.com/UTNAddTrustServerCA.crt
                OCSP - URI:http://ocsp.comodoca.com

            X509v3 Subject Alternative Name: 
                DNS:login.skype.com, DNS:www.login.skype.com
    Signature Algorithm: sha1WithRSAEncryption
         08:f2:81:75:91:bb:ce:12:04:18:c2:4d:5a:fb:46:90:0a:54:
         44:f4:f2:dd:07:81:f0:1f:a6:7a:6f:9f:cf:b8:0e:2c:4f:9c:
         c4:9a:f5:a8:f6:ba:a4:c9:7a:5d:b1:e2:5a:ca:3c:fa:60:a8:
         68:3e:cb:ba:2d:e2:cd:d6:b6:e4:92:3c:69:ad:57:ea:a8:2f:
         38:10:84:72:e5:68:71:ed:be:eb:6e:18:ef:63:7a:be:e7:24:
         ff:c0:63:fd:58:3b:4c:81:92:d8:29:ab:8e:35:5d:d7:d3:09:
         6b:85:d3:d5:73:05:44:e2:e5:bb:83:53:10:cb:f2:cf:b7:6e:
         e1:69:b7:a1:92:64:c5:cf:cd:82:bb:36:a0:38:ad:d7:24:df:
         53:fc:3f:62:b7:b7:d5:c7:57:e3:93:31:70:8e:24:89:86:ca:
         63:2b:39:ba:5d:d9:6a:60:ec:a1:4e:8a:fe:53:f8:5e:92:df:
         2f:5c:26:17:6d:03:7d:02:0f:0f:aa:43:67:6d:b0:62:bf:7e:
         53:dd:cc:ec:78:73:95:e5:a5:f6:00:a3:04:fd:3f:04:2a:b3:
         98:c5:b7:03:1c:db:c9:50:ab:b0:05:1d:1e:be:56:b4:cf:3e:
         42:13:94:9e:f9:e7:01:81:a5:78:6f:0c:7a:76:ac:05:86:ec:
         ac:c2:11:ac
-----BEGIN CERTIFICATE-----
MIIF7zCCBNegAwIBAgIRAOkCi5V45BXcGnEKK4gVREcwDQYJKoZIhvcNAQEFBQAw
gZcxCzAJBgNVBAYTAlVTMQswCQYDVQQIEwJVVDEXMBUGA1UEBxMOU2FsdCBMYWtl
IENpdHkxHjAcBgNVBAoTFVRoZSBVU0VSVFJVU1QgTmV0d29yazEhMB8GA1UECxMY
aHR0cDovL3d3dy51c2VydHJ1c3QuY29tMR8wHQYDVQQDExZVVE4tVVNFUkZpcnN0
LUhhcmR3YXJlMB4XDTExMDMxNTAwMDAwMFoXDTE0MDMxNDIzNTk1OVowgd8xCzAJ
BgNVBAYTAlVTMQ4wDAYDVQQREwUzODQ3NzEQMA4GA1UECBMHRmxvcmlkYTEQMA4G
A1UEBxMHRW5nbGlzaDEXMBUGA1UECRMOU2VhIFZpbGxhZ2UgMTAxFDASBgNVBAoT
C0dvb2dsZSBMdGQuMRMwEQYDVQQLEwpUZWNoIERlcHQuMSgwJgYDVQQLEx9Ib3N0
ZWQgYnkgR1RJIEdyb3VwIENvcnBvcmF0aW9uMRQwEgYDVQQLEwtQbGF0aW51bVNT
TDEYMBYGA1UEAxMPbG9naW4uc2t5cGUuY29tMIIBIjANBgkqhkiG9w0BAQEFAAOC
AQ8AMIIBCgKCAQEAsHiZhg6icyPUWsNJ67E2jHzKhK48rziIKJmNLVgTsZd4PlIg
Z6xbc5hsMlXJcNHZqhXoLiaFgbxW5LyAY9tO1/UCvlFjHjzb39cAXVq55Xtq6jgg
sju27nVUhPmmyjhw3b+w/6WFXbRB/t092SrhMEMamHmToF/gZ2yV+j56rnF7422I
Qj8l1O6+aGisraxg4CCjOYO5Wyijk22hvXYK4+uuhycOVI+0SAyaVPRdjjdQ3F6k
i2tL3KbzNL53WSKI/xkrbXZkc9oMhwcrmjc60OKM9jYya5p5zNI7k28aTWzmwZ1A
rC10w77qXHNlASmxKr9wWcHOxsOiyEVfumc9DwIDAQABo4IB6jCCAeYwHwYDVR0j
BBgwFoAUoXJfJhsomEOVXQc31YWWnUvSw0UwHQYDVR0OBBYEFNWOWlETtCkNMbYc
jT5RUTEKM6qBMA4GA1UdDwEB/wQEAwIFoDAMBgNVHRMBAf8EAjAAMB0GA1UdJQQW
MBQGCCsGAQUFBwMBBggrBgEFBQcDAjBGBgNVHSAEPzA9MDsGDCsGAQQBsjEBAgED
BDArMCkGCCsGAQUFBwIBFh1odHRwczovL3NlY3VyZS5jb21vZG8uY29tL0NQUzB7
BgNVHR8EdDByMDigNqA0hjJodHRwOi8vY3JsLmNvbW9kb2NhLmNvbS9VVE4tVVNF
UkZpcnN0LUhhcmR3YXJlLmNybDA2oDSgMoYwaHR0cDovL2NybC5jb21vZG8ubmV0
L1VUTi1VU0VSRmlyc3QtSGFyZHdhcmUuY3JsMHEGCCsGAQUFBwEBBGUwYzA7Bggr
BgEFBQcwAoYvaHR0cDovL2NydC5jb21vZG9jYS5jb20vVVROQWRkVHJ1c3RTZXJ2
ZXJDQS5jcnQwJAYIKwYBBQUHMAGGGGh0dHA6Ly9vY3NwLmNvbW9kb2NhLmNvbTAv
BgNVHREEKDAmgg9sb2dpbi5za3lwZS5jb22CE3d3dy5sb2dpbi5za3lwZS5jb20w
DQYJKoZIhvcNAQEFBQADggEBAAjygXWRu84SBBjCTVr7RpAKVET08t0HgfAfpnpv
n8+4DixPnMSa9aj2uqTJel2x4lrKPPpgqGg+y7ot4s3WtuSSPGmtV+qoLzgQhHLl
aHHtvutuGO9jer7nJP/AY/1YO0yBktgpq441XdfTCWuF09VzBUTi5buDUxDL8s+3
buFpt6GSZMXPzYK7NqA4rdck31P8P2K3t9XHV+OTMXCOJImGymMrObpd2Wpg7KFO
iv5T+F6S3y9cJhdtA30CDw+qQ2dtsGK/flPdzOx4c5XlpfYAowT9PwQqs5jFtwMc
28lQq7AFHR6+VrTPPkITlJ755wGBpXhvDHp2rAWG7KzCEaw=
-----END CERTIFICATE-----
