Certificate:
    Data:
        Version: 3 (0x2)
        Serial Number:
            6b:c5:7b:95:18:93:aa:97:4b:62:4a:c0:88:fc:3b:b6
    Signature Algorithm: sha1WithRSA
        Issuer: CN=eDellRoot
        Validity
            Not Before: Apr  7 10:23:27 2015 GMT
            Not After : Dec 31 23:59:59 2039 GMT
        Subject: CN=eDellRoot
        Subject Public Key Info:
            Public Key Algorithm: rsaEncryption
                Public-Key: (2048 bit)
                Modulus:
                    00:bd:d1:26:0d:6e:cd:5b:84:5f:41:f0:e1:75:86:
                    ce:ce:a8:23:d5:be:a3:b1:d9:75:57:41:30:c5:5b:
                    e0:6c:db:e2:e6:63:09:33:63:6c:fc:78:6f:c2:cd:
                    14:bd:6e:02:b5:2d:fb:95:55:31:00:ec:39:36:37:
                    2e:0f:d7:7b:f5:0d:ba:46:36:6f:ed:25:95:43:b3:
                    cc:16:18:a5:bb:05:71:ca:38:9f:a4:ac:4e:f0:e1:
                    36:2e:6d:fa:43:e8:ed:cd:b7:66:b6:01:3e:63:ae:
                    f3:67:84:27:a7:1a:be:cf:ed:df:db:be:c0:53:a4:
                    5d:7c:2f:44:28:87:03:f9:56:c8:d5:8d:10:f8:75:
                    ef:e6:c2:10:fd:ea:e4:df:89:ad:5f:ba:1e:8d:f3:
                    40:f1:2f:e5:05:09:61:d9:97:b0:c9:83:d8:23:10:
                    a2:37:90:52:3e:bc:27:dd:4f:e7:0e:41:2a:3b:ab:
                    1b:4c:63:8a:fc:e1:4a:88:9e:f7:29:bb:55:1c:0b:
                    16:35:92:71:1b:b0:ff:d5:d5:e8:22:ea:4f:22:f9:
                    c6:ba:a2:88:3a:75:b9:33:ae:a8:d8:f7:bb:1c:ad:
                    b3:da:1c:6e:ca:09:5e:ec:63:e6:21:18:91:23:35:
                    9e:f2:ee:a4:4b:fe:96:0c:bd:5a:ac:c8:10:53:26:
                    d6:5f
                Exponent: 65537 (0x10001)
        X509v3 extensions:
            2.5.29.1: 
                0<..`...3...\f..k.Y...0.1.0...U....eDellRoot..k.{.....KbJ...;.
    Signature Algorithm: sha1WithRSA
         2b:7d:d7:12:72:c7:b3:8f:ca:28:27:dd:94:c3:09:cf:82:0d:
         fa:9e:83:a0:89:4b:39:5f:33:cb:3f:88:74:26:95:18:41:52:
         81:f6:16:35:59:30:f0:45:47:d3:28:68:7b:a0:d3:a8:c1:dd:
         36:ed:af:eb:55:26:ff:4c:d7:a8:88:92:2f:30:a9:f8:81:bb:
         d5:09:60:22:1e:13:bc:bb:6b:b4:46:41:c2:0d:5b:1a:ed:ed:
         22:e2:77:29:b9:e5:ac:8a:18:e7:ea:30:6b:63:c4:fe:ed:e0:
         d8:c2:21:53:fc:5d:37:03:c3:49:ee:62:b9:95:90:3c:48:57:
         79:09:30:f2:dc:40:54:53:95:30:cd:75:1c:e4:7a:08:45:4c:
         57:48:fc:9c:bb:76:88:05:66:b0:83:7b:02:74:a8:80:a2:29:
         12:70:f0:16:8f:46:cc:d2:f9:ac:3f:ff:10:4a:54:ce:06:a3:
         be:40:54:3a:47:cd:81:b5:3b:c1:35:4d:ea:6d:52:02:57:84:
         0e:6e:cc:62:6f:ef:85:00:52:f9:e8:d0:29:3e:ab:24:83:b5:
         73:2d:f3:48:02:32:9a:6c:75:1c:8d:bb:99:92:68:3a:8e:be:
         01:7d:85:bb:fa:84:03:1c:2b:18:80:00:e3:8c:a1:9d:2b:3f:
         fc:53:f7:cf
-----BEGIN CERTIFICATE-----
MIIC8zCCAd+gAwIBAgIQa8V7lRiTqpdLYkrAiPw7tjAJBgUrDgMCHQUAMBQxEjAQ
BgNVBAMTCWVEZWxsUm9vdDAeFw0xNTA0MDcxMDIzMjdaFw0zOTEyMzEyMzU5NTla
MBQxEjAQBgNVBAMTCWVEZWxsUm9vdDCCASIwDQYJKoZIhvcNAQEBBQADggEPADCC
AQoCggEBAL3RJg1uzVuEX0Hw4XWGzs6oI9W+o7HZdVdBMMVb4Gzb4uZjCTNjbPx4
b8LNFL1uArUt+5VVMQDsOTY3Lg/Xe/UNukY2b+0llUOzzBYYpbsFcco4n6SsTvDh
Ni5t+kPo7c23ZrYBPmOu82eEJ6cavs/t39u+wFOkXXwvRCiHA/lWyNWNEPh17+bC
EP3q5N+JrV+6Ho3zQPEv5QUJYdmXsMmD2CMQojeQUj68J91P5w5BKjurG0xjivzh
Soie9ym7VRwLFjWScRuw/9XV6CLqTyL5xrqiiDp1uTOuqNj3uxyts9ocbsoJXuxj
5iEYkSM1nvLupEv+lgy9WqzIEFMm1l8CAwEAAaNJMEcwRQYDVR0BBD4wPIAQYA/f
EzPwmaRcZuSaa/VZ1KEWMBQxEjAQBgNVBAMTCWVEZWxsUm9vdIIQa8V7lRiTqpdL
YkrAiPw7tjAJBgUrDgMCHQUAA4IBAQArfdcScsezj8ooJ92UwwnPgg36noOgiUs5
XzPLP4h0JpUYQVKB9hY1WTDwRUfTKGh7oNOowd027a/rVSb/TNeoiJIvMKn4gbvV
CWAiHhO8u2u0RkHCDVsa7e0i4ncpueWsihjn6jBrY8T+7eDYwiFT/F03A8NJ7mK5
lZA8SFd5CTDy3EBUU5UwzXUc5HoIRUxXSPycu3aIBWawg3sCdKiAoikScPAWj0bM
0vmsP/8QSlTOBqO+QFQ6R82BtTvBNU3qbVICV4QObsxib++FAFL56NApPqskg7Vz
LfNIAjKabHUcjbuZkmg6jr4BfYW7+oQDHCsYgADjjKGdKz/8U/fP
-----END CERTIFICATE-----
