Certificate:
    Data:
        Version: 3 (0x2)
        Serial Number: 0 (0x0)
        Signature Algorithm: sha1WithRSAEncryption
        Issuer: C = EU, O = AC Camerfirma SA CIF A82743287, OU = http://www.chambersign.org, CN = Global Chambersign Root
        Validity
            Not Before: Sep 30 16:14:18 2003 GMT
            Not After : Sep 30 16:14:18 2037 GMT
        Subject: C = EU, O = AC Camerfirma SA CIF A82743287, OU = http://www.chambersign.org, CN = Global Chambersign Root
        Subject Public Key Info:
            Public Key Algorithm: rsaEncryption
                RSA Public-Key: (2048 bit)
                Modulus:
                    00:a2:70:a2:d0:9f:42:ae:5b:17:c7:d8:7d:cf:14:
                    83:fc:4f:c9:a1:b7:13:af:8a:d7:9e:3e:04:0a:92:
                    8b:60:56:fa:b4:32:2f:88:4d:a1:60:08:f4:b7:09:
                    4e:a0:49:2f:49:d6:d3:df:9d:97:5a:9f:94:04:70:
                    ec:3f:59:d9:b7:cc:66:8b:98:52:28:09:02:df:c5:
                    2f:84:8d:7a:97:77:bf:ec:40:9d:25:72:ab:b5:3f:
                    32:98:fb:b7:b7:fc:72:84:e5:35:87:f9:55:fa:a3:
                    1f:0e:6f:2e:28:dd:69:a0:d9:42:10:c6:f8:b5:44:
                    c2:d0:43:7f:db:bc:e4:a2:3c:6a:55:78:0a:77:a9:
                    d8:ea:19:32:b7:2f:fe:5c:3f:1b:ee:b1:98:ec:ca:
                    ad:7a:69:45:e3:96:0f:55:f6:e6:ed:75:ea:65:e8:
                    32:56:93:46:89:a8:25:8a:65:06:ee:6b:bf:79:07:
                    d0:f1:b7:af:ed:2c:4d:92:bb:c0:a8:5f:a7:67:7d:
                    04:f2:15:08:70:ac:92:d6:7d:04:d2:33:fb:4c:b6:
                    0b:0b:fb:1a:c9:c4:8d:03:a9:7e:5c:f2:50:ab:12:
                    a5:a1:cf:48:50:a5:ef:d2:c8:1a:13:fa:b0:7f:b1:
                    82:1c:77:6a:0f:5f:dc:0b:95:8f:ef:43:7e:e6:45:
                    09:25
                Exponent: 3 (0x3)
        X509v3 extensions:
            X509v3 Basic Constraints: critical
                CA:TRUE, pathlen:12
            X509v3 CRL Distribution Points: 

                Full Name:
                  URI:http://crl.chambersign.org/chambersignroot.crl

            X509v3 Subject Key Identifier: 
                43:9C:36:9F:B0:9E:30:4D:C6:CE:5F:AD:10:AB:E5:03:A5:FA:A9:14
            X509v3 Key Usage: critical
                Certificate Sign, CRL Sign
            Netscape Cert Type: 
                SSL CA, S/MIME CA, Object Signing CA
            X509v3 Subject Alternative Name: 
                email:chambersignroot@chambersign.org
            X509v3 Issuer Alternative Name: 
                email:chambersignroot@chambersign.org
            X509v3 Certificate Policies: 
                Policy: 1.3.6.1.4.1.17326.10.1.1
                  CPS: http://cps.chambersign.org/cps/chambersignroot.html

    Signature Algorithm: sha1WithRSAEncryption
         3c:3b:70:91:f9:04:54:27:91:e1:ed:ed:fe:68:7f:61:5d:e5:
         41:65:4f:32:f1:18:05:94:6a:1c:de:1f:70:db:3e:7b:32:02:
         34:b5:0c:6c:a1:8a:7c:a5:f4:8f:ff:d4:d8:ad:17:d5:2d:04:
         d1:3f:58:80:e2:81:59:88:be:c0:e3:46:93:24:fe:90:bd:26:
         a2:30:2d:e8:97:26:57:35:89:74:96:18:f6:15:e2:af:24:19:
         56:02:02:b2:ba:0f:14:ea:c6:8a:66:c1:86:45:55:8b:be:92:
         be:9c:a4:04:c7:49:3c:9e:e8:29:7a:89:d7:fe:af:ff:68:f5:
         a5:17:90:bd:ac:99:cc:a5:86:57:09:67:46:db:d6:16:c2:46:
         f1:e4:a9:50:f5:8f:d1:92:15:d3:5f:3e:c6:00:49:3a:6e:58:
         b2:d1:d1:27:0d:25:c8:32:f8:20:11:cd:7d:32:33:48:94:54:
         4c:dd:dc:79:c4:30:9f:eb:8e:b8:55:b5:d7:88:5c:c5:6a:24:
         3d:b2:d3:05:03:51:c6:07:ef:cc:14:72:74:3d:6e:72:ce:18:
         28:8c:4a:a0:77:e5:09:2b:45:44:47:ac:b7:67:7f:01:8a:05:
         5a:93:be:a1:c1:ff:f8:e7:0e:67:a4:47:49:76:5d:75:90:1a:
         f5:26:8f:f0
-----BEGIN CERTIFICATE-----
MIIExTCCA62gAwIBAgIBADANBgkqhkiG9w0BAQUFADB9MQswCQYDVQQGEwJFVTEn
MCUGA1UEChMeQUMgQ2FtZXJmaXJtYSBTQSBDSUYgQTgyNzQzMjg3MSMwIQYDVQQL
ExpodHRwOi8vd3d3LmNoYW1iZXJzaWduLm9yZzEgMB4GA1UEAxMXR2xvYmFsIENo
YW1iZXJzaWduIFJvb3QwHhcNMDMwOTMwMTYxNDE4WhcNMzcwOTMwMTYxNDE4WjB9
MQswCQYDVQQGEwJFVTEnMCUGA1UEChMeQUMgQ2FtZXJmaXJtYSBTQSBDSUYgQTgy
NzQzMjg3MSMwIQYDVQQLExpodHRwOi8vd3d3LmNoYW1iZXJzaWduLm9yZzEgMB4G
A1UEAxMXR2xvYmFsIENoYW1iZXJzaWduIFJvb3QwggEgMA0GCSqGSIb3DQEBAQUA
A4IBDQAwggEIAoIBAQCicKLQn0KuWxfH2H3PFIP8T8mhtxOviteePgQKkotgVvq0
Mi+ITaFgCPS3CU6gSS9J1tPfnZdan5QEcOw/Wdm3zGaLmFIoCQLfxS+EjXqXd7/s
QJ0lcqu1PzKY+7e3/HKE5TWH+VX6ox8Oby4o3Wmg2UIQxvi1RMLQQ3/bvOSiPGpV
eAp3qdjqGTK3L/5cPxvusZjsyq16aUXjlg9V9ubtdepl6DJWk0aJqCWKZQbua795
B9Dxt6/tLE2Su8CoX6dnfQTyFQhwrJLWfQTSM/tMtgsL+xrJxI0DqX5c8lCrEqWh
z0hQpe/SyBoT+rB/sYIcd2oPX9wLlY/vQ37mRQklAgEDo4IBUDCCAUwwEgYDVR0T
AQH/BAgwBgEB/wIBDDA/BgNVHR8EODA2MDSgMqAwhi5odHRwOi8vY3JsLmNoYW1i
ZXJzaWduLm9yZy9jaGFtYmVyc2lnbnJvb3QuY3JsMB0GA1UdDgQWBBRDnDafsJ4w
TcbOX60Qq+UDpfqpFDAOBgNVHQ8BAf8EBAMCAQYwEQYJYIZIAYb4QgEBBAQDAgAH
MCoGA1UdEQQjMCGBH2NoYW1iZXJzaWducm9vdEBjaGFtYmVyc2lnbi5vcmcwKgYD
VR0SBCMwIYEfY2hhbWJlcnNpZ25yb290QGNoYW1iZXJzaWduLm9yZzBbBgNVHSAE
VDBSMFAGCysGAQQBgYcuCgEBMEEwPwYIKwYBBQUHAgEWM2h0dHA6Ly9jcHMuY2hh
bWJlcnNpZ24ub3JnL2Nwcy9jaGFtYmVyc2lnbnJvb3QuaHRtbDANBgkqhkiG9w0B
AQUFAAOCAQEAPDtwkfkEVCeR4e3t/mh/YV3lQWVPMvEYBZRqHN4fcNs+ezICNLUM
bKGKfKX0j//U2K0X1S0E0T9YgOKBWYi+wONGkyT+kL0mojAt6JcmVzWJdJYY9hXi
ryQZVgICsroPFOrGimbBhkVVi76SvpykBMdJPJ7oKXqJ1/6v/2j1pReQvayZzKWG
VwlnRtvWFsJG8eSpUPWP0ZIV018+xgBJOm5YstHRJw0lyDL4IBHNfTIzSJRUTN3c
ecQwn+uOuFW114hcxWokPbLTBQNRxgfvzBRydD1ucs4YKIxKoHflCStFREest2d/
AYoFWpO+ocH/+OcOZ6RHSXZddZAa9SaP8A==
-----END CERTIFICATE-----
