Certificate:
    Data:
        Version: 3 (0x2)
        Serial Number:
            ec:60:fa:fc:a1:ca:06:ae:e9:b7:36:48:0a:28:2f:aa
    Signature Algorithm: sha256WithRSAEncryption
        Issuer: C=GB, ST=Greater Manchester, L=Salford, O=COMODO CA Limited, CN=COMODO RSA Domain Validation Secure Server CA
        Validity
            Not Before: Aug 20 00:00:00 2015 GMT
            Not After : Aug 19 23:59:59 2018 GMT
        Subject: OU=Domain Control Validated, OU=PositiveSSL Multi-Domain, CN=*.sslip.io
        Subject Public Key Info:
            Public Key Algorithm: rsaEncryption
                Public-Key: (4096 bit)
                Modulus:
                    00:ca:fe:22:9f:ab:1c:33:0d:ce:90:19:6b:fb:ed:
                    4e:a2:82:ee:65:02:9f:b6:6c:06:20:ef:29:b8:e8:
                    fa:95:21:f8:1f:52:c8:18:94:d8:f1:ea:19:e9:fe:
                    d1:d7:5f:73:c8:a3:e0:1b:20:a5:59:21:54:8e:65:
                    cd:21:25:59:00:24:1c:63:0c:7e:77:5f:5b:51:84:
                    3d:c2:67:33:b6:97:32:28:c1:24:6e:11:49:cb:d8:
                    46:bd:01:e4:4d:0b:9b:1a:e3:55:d0:53:2b:83:7e:
                    92:82:3f:82:50:13:8a:77:9c:01:35:16:07:ea:1a:
                    fd:98:1d:0a:16:e2:0f:6f:0a:3c:91:5c:26:12:a1:
                    8b:a0:66:1e:c9:60:de:a5:bd:ba:80:01:70:83:a8:
                    00:fb:60:c7:a9:5c:b0:99:f2:d7:6a:ff:44:3d:5a:
                    8b:e5:e1:31:cf:b9:f0:33:36:a9:7a:57:a3:8d:68:
                    70:5c:88:23:44:c5:b9:ab:b4:8c:d2:3a:ea:8b:f8:
                    7a:71:0c:ce:83:96:36:3c:49:75:6c:b3:f0:f1:b3:
                    79:14:33:49:b9:69:e1:c1:02:c5:eb:53:35:4e:0c:
                    64:d2:31:6b:ae:e0:76:f3:ea:14:90:71:77:5e:05:
                    15:84:71:3c:8a:eb:4a:29:21:f9:77:af:ed:96:1a:
                    43:52:d6:6c:b9:14:93:22:99:f3:99:dc:68:b9:4a:
                    68:f7:fd:94:fc:9f:43:e7:ee:5a:d1:9d:98:20:7c:
                    74:46:1e:4b:74:39:9c:84:63:74:b3:67:62:9b:09:
                    dc:64:4a:af:07:63:40:d5:89:8c:f5:e2:02:7d:da:
                    ec:9f:c5:83:8b:54:06:69:85:7e:09:26:a4:23:41:
                    1a:db:03:f9:60:bb:1e:80:95:e5:f9:76:a0:68:1e:
                    35:e5:36:bb:46:73:fa:f7:ca:86:a6:ae:98:ed:58:
                    76:fa:5f:f3:64:4b:9f:1d:54:6e:c3:40:f1:af:75:
                    ad:80:5e:c9:1b:17:d8:cc:e6:25:6f:79:a2:23:ce:
                    45:f2:1d:8a:8e:48:48:8c:ae:39:a9:6c:db:d2:01:
                    e0:2b:8f:66:d2:fd:01:4c:b1:10:f2:41:3c:53:34:
                    c7:49:f0:53:d3:ab:4b:30:e9:c1:1d:47:94:7a:d0:
                    71:89:a9:13:74:95:38:2f:8c:bf:86:95:66:3e:44:
                    92:3a:cf:5b:04:57:d1:93:42:f1:6e:12:c3:56:e5:
                    d7:6a:d0:1b:3c:bb:81:37:96:4c:8d:83:19:6e:d4:
                    40:c9:dc:b9:5e:ed:fa:2e:ff:af:3a:89:6c:21:15:
                    12:0b:57:9a:88:a2:ab:c1:af:54:40:b1:85:d6:a4:
                    27:0a:8d
                Exponent: 65537 (0x10001)
        X509v3 extensions:
            X509v3 Authority Key Identifier: 
                keyid:90:AF:6A:3A:94:5A:0B:D8:90:EA:12:56:73:DF:43:B4:3A:28:DA:E7

            X509v3 Subject Key Identifier: 
                CB:5E:12:73:59:E9:E9:1D:9D:33:09:87:D8:4E:C7:C7:B8:34:7C:A0
            X509v3 Key Usage: critical
                Digital Signature, Key Encipherment
            X509v3 Basic Constraints: critical
                CA:FALSE
            X509v3 Extended Key Usage: 
                TLS Web Server Authentication, TLS Web Client Authentication
            X509v3 Certificate Policies: 
                Policy: 1.3.6.1.4.1.6449.1.2.2.7
                  CPS: https://secure.comodo.com/CPS
                Policy: 2.23.140.1.2.1

            X509v3 CRL Distribution Points: 

                Full Name:
                  URI:http://crl.comodoca.com/COMODORSADomainValidationSecureServerCA.crl

            Authority Information Access: 
                CA Issuers - URI:http://crt.comodoca.com/COMODORSADomainValidationSecureServerCA.crt
                OCSP - URI:http://ocsp.comodoca.com

            X509v3 Subject Alternative Name: 
                DNS:*.sslip.io, DNS:sslip.io
    Signature Algorithm: sha256WithRSAEncryption
         25:50:87:c7:a7:3d:4b:1a:2e:49:ae:43:78:d9:ca:30:ba:48:
         e9:58:1e:9c:09:8a:7d:01:a0:bf:d9:57:e6:eb:a7:15:18:33:
         35:29:ea:21:36:9c:95:f9:c8:e6:3a:e1:b9:21:39:27:af:59:
         72:31:aa:86:da:4a:40:ec:96:38:85:20:14:77:55:a4:53:a0:
         70:ad:fc:0a:57:ef:b0:8c:91:94:25:bc:25:e4:c2:2b:31:47:
         18:19:c8:70:c5:09:23:aa:d0:d3:fc:c9:13:29:86:85:8a:ac:
         d8:c6:d4:08:6f:45:35:10:73:61:a0:41:3a:65:c2:ee:9b:82:
         7b:0c:1a:b6:6b:9e:d6:61:67:ae:f6:c9:f3:d2:d9:d5:d9:f2:
         5d:02:90:49:2d:fa:06:4f:39:93:37:42:61:a7:c5:ca:84:9e:
         f7:60:db:4f:a1:4d:28:da:b3:47:04:56:18:c2:a4:0a:53:ea:
         e9:8f:13:30:07:1e:f4:5a:06:e0:e3:d9:af:e2:7a:2a:28:b7:
         d2:79:77:8c:7c:b7:da:37:ff:3b:07:a6:c2:c6:15:66:ab:f9:
         8d:b9:17:4f:5b:30:ca:cb:23:14:9c:a3:8e:86:a7:b3:66:7a:
         8a:c2:5c:08:97:5f:cc:53:cc:3c:94:8a:3d:91:08:a9:f9:96:
         1e:fc:2a:ab
-----BEGIN CERTIFICATE-----
MIIGSjCCBTKgAwIBAgIRAOxg+vyhygau6bc2SAooL6owDQYJKoZIhvcNAQELBQAw
gZAxCzAJBgNVBAYTAkdCMRswGQYDVQQIExJHcmVhdGVyIE1hbmNoZXN0ZXIxEDAO
BgNVBAcTB1NhbGZvcmQxGjAYBgNVBAoTEUNPTU9ETyBDQSBMaW1pdGVkMTYwNAYD
VQQDEy1DT01PRE8gUlNBIERvbWFpbiBWYWxpZGF0aW9uIFNlY3VyZSBTZXJ2ZXIg
Q0EwHhcNMTUwODIwMDAwMDAwWhcNMTgwODE5MjM1OTU5WjBbMSEwHwYDVQQLExhE
b21haW4gQ29udHJvbCBWYWxpZGF0ZWQxITAfBgNVBAsTGFBvc2l0aXZlU1NMIE11
bHRpLURvbWFpbjETMBEGA1UEAwwKKi5zc2xpcC5pbzCCAiIwDQYJKoZIhvcNAQEB
BQADggIPADCCAgoCggIBAMr+Ip+rHDMNzpAZa/vtTqKC7mUCn7ZsBiDvKbjo+pUh
+B9SyBiU2PHqGen+0ddfc8ij4BsgpVkhVI5lzSElWQAkHGMMfndfW1GEPcJnM7aX
MijBJG4RScvYRr0B5E0LmxrjVdBTK4N+koI/glATinecATUWB+oa/ZgdChbiD28K
PJFcJhKhi6BmHslg3qW9uoABcIOoAPtgx6lcsJny12r/RD1ai+XhMc+58DM2qXpX
o41ocFyII0TFuau0jNI66ov4enEMzoOWNjxJdWyz8PGzeRQzSblp4cECxetTNU4M
ZNIxa67gdvPqFJBxd14FFYRxPIrrSikh+Xev7ZYaQ1LWbLkUkyKZ85ncaLlKaPf9
lPyfQ+fuWtGdmCB8dEYeS3Q5nIRjdLNnYpsJ3GRKrwdjQNWJjPXiAn3a7J/Fg4tU
BmmFfgkmpCNBGtsD+WC7HoCV5fl2oGgeNeU2u0Zz+vfKhqaumO1Ydvpf82RLnx1U
bsNA8a91rYBeyRsX2MzmJW95oiPORfIdio5ISIyuOals29IB4CuPZtL9AUyxEPJB
PFM0x0nwU9OrSzDpwR1HlHrQcYmpE3SVOC+Mv4aVZj5EkjrPWwRX0ZNC8W4Sw1bl
12rQGzy7gTeWTI2DGW7UQMncuV7t+i7/rzqJbCEVEgtXmoiiq8GvVECxhdakJwqN
AgMBAAGjggHRMIIBzTAfBgNVHSMEGDAWgBSQr2o6lFoL2JDqElZz30O0Oija5zAd
BgNVHQ4EFgQUy14Sc1np6R2dMwmH2E7Hx7g0fKAwDgYDVR0PAQH/BAQDAgWgMAwG
A1UdEwEB/wQCMAAwHQYDVR0lBBYwFAYIKwYBBQUHAwEGCCsGAQUFBwMCME8GA1Ud
IARIMEYwOgYLKwYBBAGyMQECAgcwKzApBggrBgEFBQcCARYdaHR0cHM6Ly9zZWN1
cmUuY29tb2RvLmNvbS9DUFMwCAYGZ4EMAQIBMFQGA1UdHwRNMEswSaBHoEWGQ2h0
dHA6Ly9jcmwuY29tb2RvY2EuY29tL0NPTU9ET1JTQURvbWFpblZhbGlkYXRpb25T
ZWN1cmVTZXJ2ZXJDQS5jcmwwgYUGCCsGAQUFBwEBBHkwdzBPBggrBgEFBQcwAoZD
aHR0cDovL2NydC5jb21vZG9jYS5jb20vQ09NT0RPUlNBRG9tYWluVmFsaWRhdGlv
blNlY3VyZVNlcnZlckNBLmNydDAkBggrBgEFBQcwAYYYaHR0cDovL29jc3AuY29t
b2RvY2EuY29tMB8GA1UdEQQYMBaCCiouc3NsaXAuaW+CCHNzbGlwLmlvMA0GCSqG
SIb3DQEBCwUAA4IBAQAlUIfHpz1LGi5JrkN42cowukjpWB6cCYp9AaC/2Vfm66cV
GDM1KeohNpyV+cjmOuG5ITknr1lyMaqG2kpA7JY4hSAUd1WkU6BwrfwKV++wjJGU
Jbwl5MIrMUcYGchwxQkjqtDT/MkTKYaFiqzYxtQIb0U1EHNhoEE6ZcLum4J7DBq2
a57WYWeu9snz0tnV2fJdApBJLfoGTzmTN0Jhp8XKhJ73YNtPoU0o2rNHBFYYwqQK
U+rpjxMwBx70Wgbg49mv4noqKLfSeXeMfLfaN/87B6bCxhVmq/mNuRdPWzDKyyMU
nKOOhqezZnqKwlwIl1/MU8w8lIo9kQip+ZYe/Cqr
-----END CERTIFICATE-----
