Certificate:
    Data:
        Version: 3 (0x2)
        Serial Number:
            61:1d:d8:61:00:00:00:00:00:04
    Signature Algorithm: sha1WithRSAEncryption
        Issuer: C=DE, O=Fraunhofer, OU=Fraunhofer Corporate PKI, CN=Fraunhofer Root CA 2007
        Validity
            Not Before: Apr 28 09:03:06 2008 GMT
            Not After : Jun 30 23:59:59 2019 GMT
        Subject: C=DE, O=Fraunhofer, OU=Fraunhofer Corporate PKI, CN=Fraunhofer Service CA 2007
        Subject Public Key Info:
            Public Key Algorithm: rsaEncryption
                Public-Key: (2048 bit)
                Modulus:
                    00:ac:9d:69:59:4a:62:16:a5:2c:be:3f:9a:45:5d:
                    ba:1a:6d:87:60:3c:d6:8d:78:9a:67:2c:96:28:5e:
                    e1:7c:7c:d0:05:26:67:3b:f9:ab:a5:3e:f8:b0:55:
                    fe:23:7e:78:ab:68:2b:c1:f1:6c:dd:d6:ec:94:88:
                    2d:76:a7:2c:f1:7a:8e:a3:8c:e0:1a:2c:f5:b0:7b:
                    20:dc:d0:ec:e5:55:8d:d3:a7:3a:51:1e:6f:5a:21:
                    9e:e9:5e:cf:2f:fa:13:31:cc:3c:95:ef:e7:9d:a4:
                    5e:02:6d:04:00:62:e4:76:71:15:f8:3c:0b:e2:05:
                    66:59:bb:6e:ee:b0:16:a2:72:e8:9c:41:8c:ab:1d:
                    83:40:a1:f7:db:65:f4:9c:ab:07:41:6e:9f:99:9f:
                    8b:8e:7a:3f:cc:e9:5a:dd:47:14:d0:64:8d:20:1d:
                    88:8e:55:55:51:c3:8f:47:29:72:b0:53:69:da:21:
                    45:1b:5a:62:cf:eb:f1:34:81:9f:b7:aa:a3:83:75:
                    f2:c2:4e:1a:0d:58:66:6c:88:2b:f8:dc:59:05:70:
                    94:d2:91:5d:42:b0:1e:ba:90:ce:01:5b:e5:53:a3:
                    18:b3:bc:1b:8d:e4:91:c1:8a:ec:ce:d2:52:b1:0a:
                    f2:41:50:71:c4:4d:77:02:51:8a:c6:0b:c5:a0:66:
                    07:0b
                Exponent: 65537 (0x10001)
        X509v3 extensions:
            X509v3 Basic Constraints: critical
                CA:TRUE, pathlen:0
            X509v3 Subject Key Identifier: 
                38:4D:0C:1D:C4:77:A7:B3:F8:67:86:D0:18:51:9F:58:9F:1E:9E:25
            X509v3 Key Usage: critical
                Certificate Sign, CRL Sign
            X509v3 Authority Key Identifier: 
                keyid:2F:45:42:1E:31:05:80:D5:70:D8:F8:1D:57:CB:5B:7A:D5:3D:9C:F7

            X509v3 CRL Distribution Points: 

                Full Name:
                  URI:http://crl.pki.fraunhofer.de/fhg-root-ca-2007.crl
                  URI:http://crl.fraunhofer-pki.de/fhg-root-ca-2007.crl

            Authority Information Access: 
                CA Issuers - URI:http://cert.pki.fraunhofer.de/fhg-root-ca-2007.cer
                CA Issuers - URI:http://cert.fraunhofer-pki.de/fhg-root-ca-2007.cer

    Signature Algorithm: sha1WithRSAEncryption
         84:4a:dc:64:af:2d:f0:c3:1d:a7:54:8f:6a:c7:34:e7:98:c7:
         86:7f:81:4e:8d:17:c4:c4:93:3d:5f:0c:ee:05:3a:ec:79:fe:
         76:f1:e7:eb:9f:98:4c:0c:a8:c6:80:36:be:de:4b:80:4e:85:
         76:ee:7a:5c:4a:0e:9f:0e:24:d9:5d:d4:9c:7b:9e:c7:13:74:
         f9:c9:79:0c:25:5a:4c:3f:ef:c9:5a:f6:46:4b:dd:56:e7:07:
         8c:5c:46:ee:54:21:f0:6a:29:63:c3:34:d7:59:b9:24:0d:4e:
         de:8a:3b:0f:64:d2:67:59:fc:a9:42:60:68:2c:39:ca:10:76:
         0f:f3:30:37:8c:a5:07:4f:b7:d6:30:46:45:81:72:2a:67:77:
         04:26:72:36:9b:1c:49:86:56:81:3a:c0:65:1f:1e:9c:b9:18:
         e6:37:6e:8f:3f:04:41:54:b4:e4:05:c0:02:20:71:11:ac:4f:
         55:c5:21:7c:4f:2f:2b:1b:b1:a3:04:02:ce:07:96:1b:d3:0b:
         7b:80:68:05:cc:fc:7f:95:95:61:62:3b:7c:39:ed:ef:3b:95:
         01:3d:d2:e6:67:af:c3:04:47:71:4f:4d:70:74:aa:1c:0b:0e:
         9e:e3:a9:17:fd:ae:cb:ae:f2:c2:91:2f:02:a1:48:be:bc:76:
         f8:c0:2d:60
-----BEGIN CERTIFICATE-----
MIIEyTCCA7GgAwIBAgIKYR3YYQAAAAAABDANBgkqhkiG9w0BAQUFADBnMQswCQYD
VQQGEwJERTETMBEGA1UEChMKRnJhdW5ob2ZlcjEhMB8GA1UECxMYRnJhdW5ob2Zl
ciBDb3Jwb3JhdGUgUEtJMSAwHgYDVQQDExdGcmF1bmhvZmVyIFJvb3QgQ0EgMjAw
NzAeFw0wODA0MjgwOTAzMDZaFw0xOTA2MzAyMzU5NTlaMGoxCzAJBgNVBAYTAkRF
MRMwEQYDVQQKEwpGcmF1bmhvZmVyMSEwHwYDVQQLExhGcmF1bmhvZmVyIENvcnBv
cmF0ZSBQS0kxIzAhBgNVBAMTGkZyYXVuaG9mZXIgU2VydmljZSBDQSAyMDA3MIIB
IjANBgkqhkiG9w0BAQEFAAOCAQ8AMIIBCgKCAQEArJ1pWUpiFqUsvj+aRV26Gm2H
YDzWjXiaZyyWKF7hfHzQBSZnO/mrpT74sFX+I354q2grwfFs3dbslIgtdqcs8XqO
o4zgGiz1sHsg3NDs5VWN06c6UR5vWiGe6V7PL/oTMcw8le/nnaReAm0EAGLkdnEV
+DwL4gVmWbtu7rAWonLonEGMqx2DQKH322X0nKsHQW6fmZ+Ljno/zOla3UcU0GSN
IB2IjlVVUcOPRylysFNp2iFFG1piz+vxNIGft6qjg3Xywk4aDVhmbIgr+NxZBXCU
0pFdQrAeupDOAVvlU6MYs7wbjeSRwYrsztJSsQryQVBxxE13AlGKxgvFoGYHCwID
AQABo4IBcjCCAW4wEgYDVR0TAQH/BAgwBgEB/wIBADAdBgNVHQ4EFgQUOE0MHcR3
p7P4Z4bQGFGfWJ8eniUwDgYDVR0PAQH/BAQDAgEGMB8GA1UdIwQYMBaAFC9FQh4x
BYDVcNj4HVfLW3rVPZz3MHUGA1UdHwRuMGwwaqBooGaGMWh0dHA6Ly9jcmwucGtp
LmZyYXVuaG9mZXIuZGUvZmhnLXJvb3QtY2EtMjAwNy5jcmyGMWh0dHA6Ly9jcmwu
ZnJhdW5ob2Zlci1wa2kuZGUvZmhnLXJvb3QtY2EtMjAwNy5jcmwwgZAGCCsGAQUF
BwEBBIGDMIGAMD4GCCsGAQUFBzAChjJodHRwOi8vY2VydC5wa2kuZnJhdW5ob2Zl
ci5kZS9maGctcm9vdC1jYS0yMDA3LmNlcjA+BggrBgEFBQcwAoYyaHR0cDovL2Nl
cnQuZnJhdW5ob2Zlci1wa2kuZGUvZmhnLXJvb3QtY2EtMjAwNy5jZXIwDQYJKoZI
hvcNAQEFBQADggEBAIRK3GSvLfDDHadUj2rHNOeYx4Z/gU6NF8TEkz1fDO4FOux5
/nbx5+ufmEwMqMaANr7eS4BOhXbuelxKDp8OJNld1Jx7nscTdPnJeQwlWkw/78la
9kZL3VbnB4xcRu5UIfBqKWPDNNdZuSQNTt6KOw9k0mdZ/KlCYGgsOcoQdg/zMDeM
pQdPt9YwRkWBcipndwQmcjabHEmGVoE6wGUfHpy5GOY3bo8/BEFUtOQFwAIgcRGs
T1XFIXxPLysbsaMEAs4HlhvTC3uAaAXM/H+VlWFiO3w57e87lQE90uZnr8MER3FP
TXB0qhwLDp7jqRf9rsuu8sKRLwKhSL68dvjALWA=
-----END CERTIFICATE-----
