Certificate:
    Data:
        Version: 3 (0x2)
        Serial Number:
            39:2a:43:4f:0e:07:df:1f:8a:a3:05:de:34:e0:c2:29
    Signature Algorithm: sha1WithRSAEncryption
        Issuer: C=US, ST=UT, L=Salt Lake City, O=The USERTRUST Network, OU=http://www.usertrust.com, CN=UTN-USERFirst-Hardware
        Validity
            Not Before: Mar 15 00:00:00 2011 GMT
            Not After : Mar 14 23:59:59 2014 GMT
        Subject: C=US/postalCode=38477, ST=Florida, L=English/street=Sea Village 10, O=Google Ltd., OU=Tech Dept., OU=Hosted by GTI Group Corporation, OU=PlatinumSSL, CN=login.yahoo.com
        Subject Public Key Info:
            Public Key Algorithm: rsaEncryption
                Public-Key: (2048 bit)
                Modulus:
                    00:a1:a4:05:3d:ed:85:45:93:8a:18:4d:c6:03:00:
                    57:e2:40:77:f0:1c:eb:d0:19:df:22:5d:08:7f:d1:
                    07:3c:41:89:46:17:a3:09:fa:fc:f8:a9:04:d1:96:
                    8f:ab:d7:4f:3c:f9:ad:18:a9:74:81:c4:57:0a:3a:
                    26:16:ce:62:3e:bc:3f:6c:21:ee:93:8d:cb:0d:a0:
                    1f:9a:96:d0:8f:ad:f5:93:93:82:ee:72:0c:a1:75:
                    15:a3:7b:84:56:b8:ad:ff:52:11:71:84:bc:3a:30:
                    0b:7e:98:a8:e1:a8:3f:37:52:d0:f1:7c:6f:90:d8:
                    45:0a:ac:39:72:6a:61:d5:bb:c3:8c:f9:c2:cc:df:
                    fd:3a:71:b9:af:bc:dc:3a:dc:0c:b6:b1:d2:d1:89:
                    bb:41:b6:f2:de:57:d5:15:df:fc:fd:e2:31:c5:df:
                    ca:c1:d8:8f:2c:bf:f0:0e:5b:71:e0:34:71:c3:c5:
                    4d:7d:7a:d4:fa:ed:30:4b:2f:ea:b6:2e:9e:93:3c:
                    e2:3a:f8:42:a2:1a:ee:dc:df:cd:0f:a9:f6:79:84:
                    1a:8e:6c:02:b6:86:e5:bf:51:6a:66:f8:f3:9c:d3:
                    59:0c:7b:a5:99:78:cd:7c:99:fa:c6:96:47:d8:32:
                    d4:74:76:0e:77:4b:20:74:a4:b7:89:75:92:4a:b4:
                    5b:55
                Exponent: 65537 (0x10001)
        X509v3 extensions:
            X509v3 Authority Key Identifier: 
                keyid:A1:72:5F:26:1B:28:98:43:95:5D:07:37:D5:85:96:9D:4B:D2:C3:45

            X509v3 Subject Key Identifier: 
                86:49:45:FC:33:19:33:D4:04:ED:27:61:EE:E8:01:C9:0C:7F:2F:7E
            X509v3 Key Usage: critical
                Digital Signature, Key Encipherment
            X509v3 Basic Constraints: critical
                CA:FALSE
            X509v3 Extended Key Usage: 
                TLS Web Server Authentication, TLS Web Client Authentication
            X509v3 Certificate Policies: 
                Policy: 1.3.6.1.4.1.6449.1.2.1.3.4
                  CPS: https://secure.comodo.com/CPS

            X509v3 CRL Distribution Points: 

                Full Name:
                  URI:http://crl.comodoca.com/UTN-USERFirst-Hardware.crl

                Full Name:
                  URI:http://crl.comodo.net/UTN-USERFirst-Hardware.crl

            Authority Information Access: 
                CA Issuers - URI:http://crt.comodoca.com/UTNAddTrustServerCA.crt
                OCSP - URI:http://ocsp.comodoca.com

            X509v3 Subject Alternative Name: 
                DNS:login.yahoo.com
    Signature Algorithm: sha1WithRSAEncryption
         57:62:e1:77:eb:fc:1f:bf:88:53:af:58:d3:d4:d6:6d:67:30:
         17:40:be:e0:1f:64:de:87:15:cc:e0:a4:56:a9:d1:9f:f9:01:
         fe:02:b1:b1:ea:e2:5f:ee:71:16:31:f9:08:d5:c2:d7:9a:9b:
         b2:5a:38:d7:a9:7f:e9:87:6b:31:f9:0b:ac:d9:fd:50:71:e0:
         db:82:92:0f:81:9c:8d:77:e9:eb:2e:ea:d4:23:41:87:ec:2d:
         b2:78:b3:8e:b1:67:d2:ee:71:03:08:12:99:b3:02:29:6f:de:
         8b:de:c1:a9:03:0a:5a:33:1c:3d:11:03:c6:48:0c:98:9c:15:
         2e:d9:a6:85:52:e7:05:8a:ae:30:23:eb:ed:28:6c:60:e9:2d:
         7f:8f:47:8b:2f:d0:dc:e6:bb:0f:7e:5f:f2:48:81:8e:50:04:
         63:b1:51:80:75:9a:a9:b6:10:1c:10:5f:6f:18:6f:e0:0e:96:
         45:ce:ee:f1:b5:20:db:ef:da:6e:c8:95:e3:f6:45:fd:ca:fc:
         a5:5f:49:6d:06:1e:d2:de:61:3d:15:7d:37:e5:1c:35:8e:06:
         c2:6b:f7:b4:a8:28:2c:31:cb:aa:b4:a7:97:4f:9d:8a:f6:af:
         7e:37:b9:7b:3d:df:92:66:8b:8f:4e:9d:c6:36:e7:5c:a6:ab:
         12:0f:d6:cf
-----BEGIN CERTIFICATE-----
MIIF2TCCBMGgAwIBAgIQOSpDTw4H3x+KowXeNODCKTANBgkqhkiG9w0BAQUFADCB
lzELMAkGA1UEBhMCVVMxCzAJBgNVBAgTAlVUMRcwFQYDVQQHEw5TYWx0IExha2Ug
Q2l0eTEeMBwGA1UEChMVVGhlIFVTRVJUUlVTVCBOZXR3b3JrMSEwHwYDVQQLExho
dHRwOi8vd3d3LnVzZXJ0cnVzdC5jb20xHzAdBgNVBAMTFlVUTi1VU0VSRmlyc3Qt
SGFyZHdhcmUwHhcNMTEwMzE1MDAwMDAwWhcNMTQwMzE0MjM1OTU5WjCB3zELMAkG
A1UEBhMCVVMxDjAMBgNVBBETBTM4NDc3MRAwDgYDVQQIEwdGbG9yaWRhMRAwDgYD
VQQHEwdFbmdsaXNoMRcwFQYDVQQJEw5TZWEgVmlsbGFnZSAxMDEUMBIGA1UEChML
R29vZ2xlIEx0ZC4xEzARBgNVBAsTClRlY2ggRGVwdC4xKDAmBgNVBAsTH0hvc3Rl
ZCBieSBHVEkgR3JvdXAgQ29ycG9yYXRpb24xFDASBgNVBAsTC1BsYXRpbnVtU1NM
MRgwFgYDVQQDEw9sb2dpbi55YWhvby5jb20wggEiMA0GCSqGSIb3DQEBAQUAA4IB
DwAwggEKAoIBAQChpAU97YVFk4oYTcYDAFfiQHfwHOvQGd8iXQh/0Qc8QYlGF6MJ
+vz4qQTRlo+r1088+a0YqXSBxFcKOiYWzmI+vD9sIe6TjcsNoB+altCPrfWTk4Lu
cgyhdRWje4RWuK3/UhFxhLw6MAt+mKjhqD83UtDxfG+Q2EUKrDlyamHVu8OM+cLM
3/06cbmvvNw63Ay2sdLRibtBtvLeV9UV3/z94jHF38rB2I8sv/AOW3HgNHHDxU19
etT67TBLL+q2Lp6TPOI6+EKiGu7c380PqfZ5hBqObAK2huW/UWpm+POc01kMe6WZ
eM18mfrGlkfYMtR0dg53SyB0pLeJdZJKtFtVAgMBAAGjggHVMIIB0TAfBgNVHSME
GDAWgBShcl8mGyiYQ5VdBzfVhZadS9LDRTAdBgNVHQ4EFgQUhklF/DMZM9QE7Sdh
7ugByQx/L34wDgYDVR0PAQH/BAQDAgWgMAwGA1UdEwEB/wQCMAAwHQYDVR0lBBYw
FAYIKwYBBQUHAwEGCCsGAQUFBwMCMEYGA1UdIAQ/MD0wOwYMKwYBBAGyMQECAQME
MCswKQYIKwYBBQUHAgEWHWh0dHBzOi8vc2VjdXJlLmNvbW9kby5jb20vQ1BTMHsG
A1UdHwR0MHIwOKA2oDSGMmh0dHA6Ly9jcmwuY29tb2RvY2EuY29tL1VUTi1VU0VS
Rmlyc3QtSGFyZHdhcmUuY3JsMDagNKAyhjBodHRwOi8vY3JsLmNvbW9kby5uZXQv
VVROLVVTRVJGaXJzdC1IYXJkd2FyZS5jcmwwcQYIKwYBBQUHAQEEZTBjMDsGCCsG
AQUFBzAChi9odHRwOi8vY3J0LmNvbW9kb2NhLmNvbS9VVE5BZGRUcnVzdFNlcnZl
ckNBLmNydDAkBggrBgEFBQcwAYYYaHR0cDovL29jc3AuY29tb2RvY2EuY29tMBoG
A1UdEQQTMBGCD2xvZ2luLnlhaG9vLmNvbTANBgkqhkiG9w0BAQUFAAOCAQEAV2Lh
d+v8H7+IU69Y09TWbWcwF0C+4B9k3ocVzOCkVqnRn/kB/gKxseriX+5xFjH5CNXC
15qbslo416l/6YdrMfkLrNn9UHHg24KSD4GcjXfp6y7q1CNBh+wtsnizjrFn0u5x
AwgSmbMCKW/ei97BqQMKWjMcPREDxkgMmJwVLtmmhVLnBYquMCPr7ShsYOktf49H
iy/Q3Oa7D35f8kiBjlAEY7FRgHWaqbYQHBBfbxhv4A6WRc7u8bUg2+/absiV4/ZF
/cr8pV9JbQYe0t5hPRV9N+UcNY4Gwmv3tKgoLDHLqrSnl0+divavfje5ez3fkmaL
j06dxjbnXKarEg/Wzw==
-----END CERTIFICATE-----
