Certificate:
    Data:
        Version: 3 (0x2)
        Serial Number:
            03:26:0c:82:e4:a8:d6:6c:b8:e3:d3:99:ab:9d:42:de:cd:d9
    Signature Algorithm: sha256WithRSAEncryption
        Issuer: C = US, O = Let's Encrypt, CN = Let's Encrypt Authority X3
        Validity
            Not Before: Nov  1 13:11:39 2017 GMT
            Not After : Jan 30 13:11:39 2018 GMT
        Subject: CN = googlemaps.tg
        Subject Public Key Info:
            Public Key Algorithm: rsaEncryption
                Public-Key: (2048 bit)
                Modulus:
                    00:b2:69:26:59:57:b7:9b:c6:16:69:f3:4d:c4:7c:
                    5a:12:94:4b:33:24:57:93:4b:5d:04:e7:1c:aa:d4:
                    e0:9d:29:2e:82:56:3c:18:03:ec:33:4f:0c:eb:67:
                    c6:2a:eb:8d:4f:f1:bf:5c:d4:26:c1:ac:1a:33:d1:
                    e3:99:b1:78:68:92:83:4d:53:48:dd:21:21:c8:3e:
                    e1:6c:e2:1f:45:d6:db:f9:82:7a:f0:6d:5a:1f:65:
                    5e:fb:86:2e:72:9c:99:05:c0:e3:9d:d5:93:19:92:
                    d5:3a:ac:7d:d0:7e:41:25:d4:f9:f0:b1:ae:6a:97:
                    c1:d7:33:e2:0e:38:ed:f8:57:3f:5c:f6:c6:36:00:
                    d0:9d:a9:fa:83:36:66:a2:f3:fc:06:74:18:67:7f:
                    3d:42:e4:26:06:eb:2c:b3:de:2d:79:fe:3a:85:52:
                    3f:e9:a8:6a:18:86:19:fc:ba:21:c1:3e:c1:bb:25:
                    1e:df:02:6f:65:08:a5:01:43:68:82:9a:e9:76:ce:
                    9f:ce:92:9d:7e:05:a9:a2:32:ca:bc:6f:23:8e:1c:
                    24:ca:20:cc:08:ef:50:9c:23:cb:b7:2e:2b:0a:ec:
                    ac:5b:d2:03:cf:e7:86:08:fc:65:30:0a:00:d0:e1:
                    96:35:c8:ea:d6:19:e3:13:56:af:61:cb:56:8c:c3:
                    51:bb
                Exponent: 65537 (0x10001)
        X509v3 extensions:
            X509v3 Key Usage: critical
                Digital Signature, Key Encipherment
            X509v3 Extended Key Usage: 
                TLS Web Server Authentication, TLS Web Client Authentication
            X509v3 Basic Constraints: critical
                CA:FALSE
            X509v3 Subject Key Identifier: 
                C4:78:BE:8E:9A:21:28:D2:92:4B:AE:26:EE:9A:8B:F5:91:3F:26:4E
            X509v3 Authority Key Identifier: 
                keyid:A8:4A:6A:63:04:7D:DD:BA:E6:D1:39:B7:A6:45:65:EF:F3:A8:EC:A1

            Authority Information Access: 
                OCSP - URI:http://ocsp.int-x3.letsencrypt.org
                CA Issuers - URI:http://cert.int-x3.letsencrypt.org/

            X509v3 Subject Alternative Name: 
                DNS:cpanel.googlemaps.tg, DNS:googlemaps.tg, DNS:mail.googlemaps.tg, DNS:webdisk.googlemaps.tg, DNS:webmail.googlemaps.tg
            X509v3 Certificate Policies: 
                Policy: 2.23.140.1.2.1
                Policy: 1.3.6.1.4.1.44947.1.1.1
                  CPS: http://cps.letsencrypt.org
                  User Notice:
                    Explicit Text: This Certificate may only be relied upon by Relying Parties and only in accordance with the Certificate Policy found at https://letsencrypt.org/repository/

    Signature Algorithm: sha256WithRSAEncryption
         47:57:12:8a:77:25:5d:48:34:63:79:2e:3f:0b:5b:7c:a2:29:
         68:5b:07:db:4c:0d:68:a3:3a:9d:56:89:0c:70:b1:dd:c6:af:
         44:c2:87:d0:70:2e:c9:11:5b:59:79:ce:cd:54:51:23:d2:74:
         5f:30:57:6b:d5:28:ea:a0:ae:13:c6:db:c5:9e:77:25:7c:02:
         64:d9:97:ee:83:17:2d:ef:ea:6f:c0:7f:53:7c:01:e0:6c:9d:
         dd:20:3c:c0:eb:83:0b:bc:58:64:0c:a4:d0:d8:78:99:9c:4b:
         fe:31:33:a1:8f:99:b1:13:10:5b:21:2d:87:22:23:71:6c:54:
         b7:38:13:67:52:a3:1e:57:1b:98:21:bf:a1:85:1c:97:6e:e5:
         81:2a:9c:65:d1:eb:64:32:2d:7d:55:4e:b9:25:75:16:cd:1d:
         ff:52:3a:ff:3e:b5:95:3d:b6:cd:4a:b1:b7:99:43:7b:31:34:
         61:9f:bf:1b:16:3e:5d:a0:cb:10:1c:0e:e0:12:55:d2:f6:a5:
         07:89:af:5f:c0:2d:f5:64:a0:59:b3:38:69:8a:6a:7e:2b:1c:
         1f:d4:84:15:ec:54:fb:82:09:1e:16:e8:c7:fe:10:93:0d:2e:
         7d:14:18:d7:1a:e5:0c:d7:92:6e:de:36:61:58:ba:0f:50:4f:
         24:33:4a:57
-----BEGIN CERTIFICATE-----
MIIFVTCCBD2gAwIBAgISAyYMguSo1my449OZq51C3s3ZMA0GCSqGSIb3DQEBCwUA
MEoxCzAJBgNVBAYTAlVTMRYwFAYDVQQKEw1MZXQncyBFbmNyeXB0MSMwIQYDVQQD
ExpMZXQncyBFbmNyeXB0IEF1dGhvcml0eSBYMzAeFw0xNzExMDExMzExMzlaFw0x
ODAxMzAxMzExMzlaMBgxFjAUBgNVBAMTDWdvb2dsZW1hcHMudGcwggEiMA0GCSqG
SIb3DQEBAQUAA4IBDwAwggEKAoIBAQCyaSZZV7ebxhZp803EfFoSlEszJFeTS10E
5xyq1OCdKS6CVjwYA+wzTwzrZ8Yq641P8b9c1CbBrBoz0eOZsXhokoNNU0jdISHI
PuFs4h9F1tv5gnrwbVofZV77hi5ynJkFwOOd1ZMZktU6rH3QfkEl1Pnwsa5ql8HX
M+IOOO34Vz9c9sY2ANCdqfqDNmai8/wGdBhnfz1C5CYG6yyz3i15/jqFUj/pqGoY
hhn8uiHBPsG7JR7fAm9lCKUBQ2iCmul2zp/Okp1+BamiMsq8byOOHCTKIMwI71Cc
I8u3LisK7Kxb0gPP54YI/GUwCgDQ4ZY1yOrWGeMTVq9hy1aMw1G7AgMBAAGjggJl
MIICYTAOBgNVHQ8BAf8EBAMCBaAwHQYDVR0lBBYwFAYIKwYBBQUHAwEGCCsGAQUF
BwMCMAwGA1UdEwEB/wQCMAAwHQYDVR0OBBYEFMR4vo6aISjSkkuuJu6ai/WRPyZO
MB8GA1UdIwQYMBaAFKhKamMEfd265tE5t6ZFZe/zqOyhMG8GCCsGAQUFBwEBBGMw
YTAuBggrBgEFBQcwAYYiaHR0cDovL29jc3AuaW50LXgzLmxldHNlbmNyeXB0Lm9y
ZzAvBggrBgEFBQcwAoYjaHR0cDovL2NlcnQuaW50LXgzLmxldHNlbmNyeXB0Lm9y
Zy8wcAYDVR0RBGkwZ4IUY3BhbmVsLmdvb2dsZW1hcHMudGeCDWdvb2dsZW1hcHMu
dGeCEm1haWwuZ29vZ2xlbWFwcy50Z4IVd2ViZGlzay5nb29nbGVtYXBzLnRnghV3
ZWJtYWlsLmdvb2dsZW1hcHMudGcwgf4GA1UdIASB9jCB8zAIBgZngQwBAgEwgeYG
CysGAQQBgt8TAQEBMIHWMCYGCCsGAQUFBwIBFhpodHRwOi8vY3BzLmxldHNlbmNy
eXB0Lm9yZzCBqwYIKwYBBQUHAgIwgZ4MgZtUaGlzIENlcnRpZmljYXRlIG1heSBv
bmx5IGJlIHJlbGllZCB1cG9uIGJ5IFJlbHlpbmcgUGFydGllcyBhbmQgb25seSBp
biBhY2NvcmRhbmNlIHdpdGggdGhlIENlcnRpZmljYXRlIFBvbGljeSBmb3VuZCBh
dCBodHRwczovL2xldHNlbmNyeXB0Lm9yZy9yZXBvc2l0b3J5LzANBgkqhkiG9w0B
AQsFAAOCAQEAR1cSinclXUg0Y3kuPwtbfKIpaFsH20wNaKM6nVaJDHCx3cavRMKH
0HAuyRFbWXnOzVRRI9J0XzBXa9Uo6qCuE8bbxZ53JXwCZNmX7oMXLe/qb8B/U3wB
4Gyd3SA8wOuDC7xYZAyk0Nh4mZxL/jEzoY+ZsRMQWyEthyIjcWxUtzgTZ1KjHlcb
mCG/oYUcl27lgSqcZdHrZDItfVVOuSV1Fs0d/1I6/z61lT22zUqxt5lDezE0YZ+/
GxY+XaDLEBwO4BJV0valB4mvX8At9WSgWbM4aYpqfiscH9SEFexU+4IJHhbox/4Q
kw0ufRQY1xrlDNeSbt42YVi6D1BPJDNKVw==
-----END CERTIFICATE-----
