Certificate:
    Data:
        Version: 3 (0x2)
        Serial Number: 120000505 (0x7270ff9)
    Signature Algorithm: sha1WithRSAEncryption
        Issuer: C=US, O=GTE Corporation, OU=GTE CyberTrust Solutions, Inc., CN=GTE CyberTrust Global Root
        Validity
            Not Before: Sep 20 09:45:32 2006 GMT
            Not After : Sep 20 09:44:06 2013 GMT
        Subject: C=NL, O=DigiNotar, CN=DigiNotar Cyber CA
        Subject Public Key Info:
            Public Key Algorithm: rsaEncryption
                Public-Key: (4096 bit)
                Modulus:
                    00:d2:ce:15:0a:2d:a8:5e:84:67:ad:fd:be:ef:46:
                    c7:c8:b9:cf:73:fc:f4:34:b9:f9:2c:43:e7:60:13:
                    3d:7a:e3:b2:cf:3b:67:6c:90:ad:c0:b9:3f:84:52:
                    f0:35:42:dc:74:dc:28:3b:bd:52:b4:a7:ac:72:45:
                    17:c6:f0:89:eb:b4:aa:25:f2:5d:4b:5e:d1:d9:87:
                    ba:d6:7d:7c:f5:ce:32:9f:10:33:c5:b1:4a:bb:5e:
                    91:31:c2:d0:e9:41:c2:91:64:7e:09:41:3b:db:8b:
                    08:37:6a:aa:ca:52:de:b5:39:1e:c0:88:03:a5:3f:
                    8b:99:13:61:43:b5:9b:82:b3:ee:20:6f:cf:a1:44:
                    a2:ea:2f:6b:40:9f:8f:2b:57:ad:a1:53:c2:85:22:
                    69:9d:a0:3f:51:df:0b:41:91:0d:a5:e1:a8:aa:5c:
                    49:08:5d:bd:de:70:41:b1:0f:c9:63:6b:d3:7f:34:
                    74:02:2f:34:5a:78:75:1c:68:7a:81:67:8a:f3:da:
                    40:f0:60:63:f4:92:20:d7:03:a6:3d:a3:1e:67:c4:
                    84:1b:41:a5:c9:8c:e6:bd:ea:48:b6:05:16:08:b3:
                    37:12:5a:f7:61:3c:f7:38:6f:2e:97:e0:6f:56:38:
                    54:d3:28:b5:ad:14:6e:2e:4b:64:b5:27:65:b7:75:
                    25:09:b6:07:3d:95:56:02:0a:82:60:b2:73:45:e0:
                    33:26:51:74:9a:b9:d4:50:1c:f6:4d:5b:5b:52:52:
                    13:5a:a6:7f:a7:0e:e1:e8:41:54:67:98:8c:87:d5:
                    c9:d3:6c:cb:d3:54:92:06:09:34:41:f7:81:6f:3f:
                    9e:c9:7c:75:55:b0:e7:c1:b3:77:e8:c3:c4:00:35:
                    95:40:70:10:4a:05:de:25:bb:9f:59:a5:64:bc:47:
                    60:bf:60:e3:76:8b:13:55:dd:e1:74:7a:b9:cf:24:
                    a6:6a:7f:de:64:22:44:58:68:82:6a:10:f9:3d:e5:
                    3e:1b:b9:bd:fc:22:f4:60:04:89:bb:55:6d:28:55:
                    fa:de:8e:8d:1b:21:14:d7:37:8b:34:7b:4d:f6:b2:
                    b2:10:cf:33:b1:7d:1c:62:99:48:cb:2b:6c:76:96:
                    55:bf:19:0d:1d:1f:bb:65:aa:1b:8e:99:b5:c6:28:
                    90:e5:82:2d:78:50:20:9a:fd:79:2f:24:7f:f0:89:
                    29:69:f4:7d:cd:73:be:b3:ed:4e:c1:d1:ed:52:5e:
                    8f:f7:b8:d7:8d:87:ad:b2:d9:1b:51:12:ff:56:b3:
                    e1:af:34:7d:5c:a4:78:88:10:9e:9d:03:c6:a5:aa:
                    a2:24:51:f7:49:14:c5:b1:ee:59:43:95:df:ab:68:
                    28:30:3f
                Exponent: 65537 (0x10001)
        X509v3 extensions:
            X509v3 Basic Constraints: critical
                CA:TRUE, pathlen:1
            X509v3 Certificate Policies: 
                Policy: 1.3.6.1.4.1.6334.1.0
                  CPS: http://www.public-trust.com/CPS/OmniRoot.html

            X509v3 Key Usage: critical
                Certificate Sign, CRL Sign
            X509v3 Authority Key Identifier: 
                keyid:A6:0C:1D:9F:61:FF:07:17:B5:BF:38:46:DB:43:30:D5:8E:B0:52:06
                DirName:/C=US/O=GTE Corporation/OU=GTE CyberTrust Solutions, Inc./CN=GTE CyberTrust Global Root
                serial:01:A5

            X509v3 CRL Distribution Points: 

                Full Name:
                  URI:http://www.public-trust.com/cgi-bin/CRL/2018/cdp.crl

            X509v3 Subject Key Identifier: 
                AB:F9:68:DF:CF:4A:37:D7:7B:45:8C:5F:72:DE:40:44:C3:65:BB:C2
    Signature Algorithm: sha1WithRSAEncryption
         09:ca:62:0f:8d:bb:4a:e0:d4:7a:35:2b:06:2d:d1:28:61:b6:
         ac:01:fb:83:49:bc:ae:d4:2f:2d:86:ae:19:83:a5:d6:1d:13:
         e2:17:be:fe:32:74:e9:7a:14:38:ca:94:5e:f7:29:01:69:71:
         1b:91:1a:fd:a3:bb:aa:1d:ca:7b:e2:16:fd:a1:a3:0e:f3:0c:
         5f:b2:e1:20:31:94:2b:5e:92:76:ed:fa:e9:b5:23:a6:bf:0a:
         3b:03:a9:6f:52:60:54:cd:5f:e9:b7:2f:7c:a2:27:fd:41:83:
         75:b6:0d:fb:78:26:f3:b1:45:e9:32:95:2a:1a:35:21:95:c5:
         a2:75
-----BEGIN CERTIFICATE-----
MIIFODCCBKGgAwIBAgIEBycP+TANBgkqhkiG9w0BAQUFADB1MQswCQYDVQQGEwJV
UzEYMBYGA1UEChMPR1RFIENvcnBvcmF0aW9uMScwJQYDVQQLEx5HVEUgQ3liZXJU
cnVzdCBTb2x1dGlvbnMsIEluYy4xIzAhBgNVBAMTGkdURSBDeWJlclRydXN0IEds
b2JhbCBSb290MB4XDTA2MDkyMDA5NDUzMloXDTEzMDkyMDA5NDQwNlowPjELMAkG
A1UEBhMCTkwxEjAQBgNVBAoTCURpZ2lOb3RhcjEbMBkGA1UEAxMSRGlnaU5vdGFy
IEN5YmVyIENBMIICIjANBgkqhkiG9w0BAQEFAAOCAg8AMIICCgKCAgEA0s4VCi2o
XoRnrf2+70bHyLnPc/z0NLn5LEPnYBM9euOyzztnbJCtwLk/hFLwNULcdNwoO71S
tKesckUXxvCJ67SqJfJdS17R2Ye61n189c4ynxAzxbFKu16RMcLQ6UHCkWR+CUE7
24sIN2qqylLetTkewIgDpT+LmRNhQ7WbgrPuIG/PoUSi6i9rQJ+PK1etoVPChSJp
naA/Ud8LQZENpeGoqlxJCF293nBBsQ/JY2vTfzR0Ai80Wnh1HGh6gWeK89pA8GBj
9JIg1wOmPaMeZ8SEG0GlyYzmvepItgUWCLM3Elr3YTz3OG8ul+BvVjhU0yi1rRRu
LktktSdlt3UlCbYHPZVWAgqCYLJzReAzJlF0mrnUUBz2TVtbUlITWqZ/pw7h6EFU
Z5iMh9XJ02zL01SSBgk0QfeBbz+eyXx1VbDnwbN36MPEADWVQHAQSgXeJbufWaVk
vEdgv2DjdosTVd3hdHq5zySman/eZCJEWGiCahD5PeU+G7m9/CL0YASJu1VtKFX6
3o6NGyEU1zeLNHtN9rKyEM8zsX0cYplIyytsdpZVvxkNHR+7Zaobjpm1xiiQ5YIt
eFAgmv15LyR/8IkpafR9zXO+s+1OwdHtUl6P97jXjYetstkbURL/VrPhrzR9XKR4
iBCenQPGpaqiJFH3SRTFse5ZQ5Xfq2goMD8CAwEAAaOCAYYwggGCMBIGA1UdEwEB
/wQIMAYBAf8CAQEwUwYDVR0gBEwwSjBIBgkrBgEEAbE+AQAwOzA5BggrBgEFBQcC
ARYtaHR0cDovL3d3dy5wdWJsaWMtdHJ1c3QuY29tL0NQUy9PbW5pUm9vdC5odG1s
MA4GA1UdDwEB/wQEAwIBBjCBoAYDVR0jBIGYMIGVgBSmDB2fYf8HF7W/OEbbQzDV
jrBSBqF5pHcwdTELMAkGA1UEBhMCVVMxGDAWBgNVBAoTD0dURSBDb3Jwb3JhdGlv
bjEnMCUGA1UECxMeR1RFIEN5YmVyVHJ1c3QgU29sdXRpb25zLCBJbmMuMSMwIQYD
VQQDExpHVEUgQ3liZXJUcnVzdCBHbG9iYWwgUm9vdIICAaUwRQYDVR0fBD4wPDA6
oDigNoY0aHR0cDovL3d3dy5wdWJsaWMtdHJ1c3QuY29tL2NnaS1iaW4vQ1JMLzIw
MTgvY2RwLmNybDAdBgNVHQ4EFgQUq/lo389KN9d7RYxfct5ARMNlu8IwDQYJKoZI
hvcNAQEFBQADgYEACcpiD427SuDUejUrBi3RKGG2rAH7g0m8rtQvLYauGYOl1h0T
4he+/jJ06XoUOMqUXvcpAWlxG5Ea/aO7qh3Ke+IW/aGjDvMMX7LhIDGUK16Sdu36
6bUjpr8KOwOpb1JgVM1f6bcvfKIn/UGDdbYN+3gm87FF6TKVKho1IZXFonU=
-----END CERTIFICATE-----
