[Created by: generate-chains.py]

Certificate chain where the target certificate is a CA rather than an
end-entity certificate (based on the basic constraints extension).

Certificate:
    Data:
        Version: 3 (0x2)
        Serial Number:
            4d:a4:86:6a:41:8e:28:fd:af:66:05:2a:fc:73:db:94:88:ab:21:08
        Signature Algorithm: sha256WithRSAEncryption
        Issuer: CN=Intermediate
        Validity
            Not Before: Oct  5 12:00:00 2022 GMT
            Not After : Oct  5 12:00:00 2023 GMT
        Subject: CN=Target
        Subject Public Key Info:
            Public Key Algorithm: rsaEncryption
                Public-Key: (2048 bit)
                Modulus:
                    00:a5:45:4e:2d:c7:c9:c2:ab:e9:b7:ff:2f:3a:09:
                    f2:64:ea:bc:ea:9c:34:fa:39:c1:2d:c2:38:c3:51:
                    ec:7b:06:6e:21:c6:7b:a0:04:ec:e3:dd:5a:72:0a:
                    0f:bc:73:37:7f:01:7e:02:3d:d5:cb:7a:2d:cc:b3:
                    c7:d9:cb:44:0e:d6:a3:1d:dc:69:08:80:50:ce:2b:
                    9b:a3:8d:3f:4e:79:55:ea:cc:94:81:7a:9d:fc:54:
                    f5:15:9e:17:99:e2:30:9b:67:55:4c:79:cc:85:13:
                    ca:38:af:ec:df:a5:50:bc:b8:ff:0a:4e:12:be:5e:
                    de:64:d3:ac:7d:f5:cc:3f:9a:b5:94:32:75:65:8e:
                    47:b0:81:d7:c8:27:5f:7c:44:31:53:6d:93:36:6f:
                    54:99:dc:82:24:7c:ab:14:eb:67:2f:3b:10:a4:cb:
                    56:34:05:f4:b1:fc:12:42:dd:3c:dc:16:0f:d1:8f:
                    f0:87:fa:07:b4:fa:3d:7a:47:c0:dc:95:09:77:9c:
                    28:b3:a3:ae:9e:72:d3:bc:3b:a5:57:f7:31:3b:4f:
                    76:30:a2:43:56:74:f9:3b:7b:f7:ec:43:64:3e:56:
                    aa:93:53:d4:4a:5a:84:8b:fb:68:43:17:a4:20:13:
                    07:e0:aa:7f:b1:c3:36:15:8b:b3:ec:e2:e6:d6:4a:
                    5f:83
                Exponent: 65537 (0x10001)
        X509v3 extensions:
            X509v3 Subject Key Identifier: 
                93:E1:6A:2B:C0:A8:CA:CA:A9:B3:28:0E:8B:11:FF:0B:B0:24:73:F6
            X509v3 Authority Key Identifier: 
                9A:2E:6F:0B:96:F4:DF:5E:32:32:96:E5:03:2A:FA:DD:98:12:55:EE
            Authority Information Access: 
                CA Issuers - URI:http://url-for-aia/Intermediate.cer
            X509v3 CRL Distribution Points: 
                Full Name:
                  URI:http://url-for-crl/Intermediate.crl
            X509v3 Key Usage: critical
                Certificate Sign, CRL Sign
            X509v3 Basic Constraints: critical
                CA:TRUE
    Signature Algorithm: sha256WithRSAEncryption
    Signature Value:
        5e:b9:12:71:40:7a:88:0c:16:4b:68:81:59:52:58:c4:12:69:
        fb:8b:49:0f:e9:78:99:df:99:6b:ce:75:72:ea:47:92:29:74:
        d7:08:b6:9e:f8:10:20:13:ae:bb:31:40:09:55:9e:28:44:5f:
        a5:13:3f:32:2b:ec:f2:80:08:10:d9:00:05:ab:4b:c9:bd:bb:
        b3:84:90:34:2e:5b:dd:96:ed:a3:a4:b7:ca:c5:46:43:e7:f1:
        2f:09:cd:3c:5c:03:d4:2c:05:83:73:09:90:20:52:79:b7:50:
        1e:66:2b:2d:c3:fc:19:55:65:a3:63:15:b8:b4:32:df:05:e3:
        87:ec:e2:66:55:fb:b2:fb:41:7e:01:cc:d2:27:87:1c:7d:2f:
        e1:9f:b8:14:b6:8a:db:3d:27:7c:dc:24:07:1e:68:d7:b7:3d:
        1a:d0:77:75:05:ed:f2:13:1e:78:1c:a2:9c:94:05:5d:a7:30:
        fd:de:50:d1:46:af:cd:98:c9:cd:ac:41:35:ba:db:1b:ab:7e:
        ed:55:5c:dc:1d:71:41:5f:f5:4b:b5:f0:95:ba:1f:f7:1b:6c:
        86:e0:fc:79:97:01:17:a7:68:96:20:25:d4:3d:36:67:09:57:
        bb:5f:8d:21:ec:6f:6b:11:c4:46:f2:83:49:bb:f4:2a:42:06:
        90:44:e1:15
-----BEGIN CERTIFICATE-----
MIIDkjCCAnqgAwIBAgIUTaSGakGOKP2vZgUq/HPblIirIQgwDQYJKoZIhvcNAQEL
BQAwFzEVMBMGA1UEAwwMSW50ZXJtZWRpYXRlMB4XDTIyMTAwNTEyMDAwMFoXDTIz
MTAwNTEyMDAwMFowETEPMA0GA1UEAwwGVGFyZ2V0MIIBIjANBgkqhkiG9w0BAQEF
AAOCAQ8AMIIBCgKCAQEApUVOLcfJwqvpt/8vOgnyZOq86pw0+jnBLcI4w1HsewZu
IcZ7oATs491acgoPvHM3fwF+Aj3Vy3otzLPH2ctEDtajHdxpCIBQziubo40/TnlV
6syUgXqd/FT1FZ4XmeIwm2dVTHnMhRPKOK/s36VQvLj/Ck4Svl7eZNOsffXMP5q1
lDJ1ZY5HsIHXyCdffEQxU22TNm9UmdyCJHyrFOtnLzsQpMtWNAX0sfwSQt083BYP
0Y/wh/oHtPo9ekfA3JUJd5wos6OunnLTvDulV/cxO092MKJDVnT5O3v37ENkPlaq
k1PUSlqEi/toQxekIBMH4Kp/scM2FYuz7OLm1kpfgwIDAQABo4HbMIHYMB0GA1Ud
DgQWBBST4WorwKjKyqmzKA6LEf8LsCRz9jAfBgNVHSMEGDAWgBSaLm8LlvTfXjIy
luUDKvrdmBJV7jA/BggrBgEFBQcBAQQzMDEwLwYIKwYBBQUHMAKGI2h0dHA6Ly91
cmwtZm9yLWFpYS9JbnRlcm1lZGlhdGUuY2VyMDQGA1UdHwQtMCswKaAnoCWGI2h0
dHA6Ly91cmwtZm9yLWNybC9JbnRlcm1lZGlhdGUuY3JsMA4GA1UdDwEB/wQEAwIB
BjAPBgNVHRMBAf8EBTADAQH/MA0GCSqGSIb3DQEBCwUAA4IBAQBeuRJxQHqIDBZL
aIFZUljEEmn7i0kP6XiZ35lrznVy6keSKXTXCLae+BAgE667MUAJVZ4oRF+lEz8y
K+zygAgQ2QAFq0vJvbuzhJA0Llvdlu2jpLfKxUZD5/EvCc08XAPULAWDcwmQIFJ5
t1AeZistw/wZVWWjYxW4tDLfBeOH7OJmVfuy+0F+AczSJ4ccfS/hn7gUtorbPSd8
3CQHHmjXtz0a0Hd1Be3yEx54HKKclAVdpzD93lDRRq/NmMnNrEE1utsbq37tVVzc
HXFBX/VLtfCVuh/3G2yG4Px5lwEXp2iWICXUPTZnCVe7X40h7G9rEcRG8oNJu/Qq
QgaQROEV
-----END CERTIFICATE-----

Certificate:
    Data:
        Version: 3 (0x2)
        Serial Number:
            1e:c3:39:90:77:32:c2:7e:ea:1a:68:8b:35:f3:20:6c:3d:1d:57:65
        Signature Algorithm: sha256WithRSAEncryption
        Issuer: CN=Root
        Validity
            Not Before: Oct  5 12:00:00 2022 GMT
            Not After : Oct  5 12:00:00 2023 GMT
        Subject: CN=Intermediate
        Subject Public Key Info:
            Public Key Algorithm: rsaEncryption
                Public-Key: (2048 bit)
                Modulus:
                    00:b2:94:35:8b:85:75:a2:74:1e:b4:bd:5c:9b:e2:
                    7a:87:32:a1:df:63:d4:5c:10:c8:3c:c2:7e:aa:53:
                    09:d8:fa:ce:14:bd:80:a7:b3:cb:4b:84:af:fc:c8:
                    de:97:38:d8:17:cd:1d:6a:65:39:b5:27:36:bc:64:
                    9a:4f:2d:91:5f:34:2b:f2:83:fa:2b:ea:1c:6e:5f:
                    60:09:c3:70:94:0f:bd:0c:eb:e2:a0:ba:43:5a:3a:
                    dd:3e:02:99:52:4a:28:e2:e4:dc:18:95:3a:bd:44:
                    6f:c1:a2:3e:6f:43:57:60:a4:70:17:ae:42:d1:9c:
                    7c:08:7f:f0:77:93:78:59:b2:c4:39:db:28:cd:19:
                    42:78:c5:00:a2:3a:6f:ef:57:a7:22:d5:87:6a:26:
                    c4:d1:9f:18:70:05:43:9c:72:a1:03:79:47:ba:f5:
                    64:f9:0f:63:c1:fe:70:3f:f0:5c:92:44:e6:71:88:
                    0e:ec:13:0c:45:33:93:b8:3c:c2:fe:07:7d:0e:b2:
                    bb:2f:19:69:d0:d1:9c:77:77:48:54:ca:5d:0f:8e:
                    6d:8d:27:37:61:45:12:de:22:6c:da:2f:23:9f:d1:
                    0f:38:03:75:b4:53:ba:81:17:4a:83:93:19:4b:56:
                    4e:31:63:12:6f:89:5c:5c:7b:1b:49:fc:6a:a0:8a:
                    54:8d
                Exponent: 65537 (0x10001)
        X509v3 extensions:
            X509v3 Subject Key Identifier: 
                9A:2E:6F:0B:96:F4:DF:5E:32:32:96:E5:03:2A:FA:DD:98:12:55:EE
            X509v3 Authority Key Identifier: 
                19:FB:52:2E:B1:D7:76:19:DB:8B:05:83:BE:62:CA:0B:48:6E:75:0E
            Authority Information Access: 
                CA Issuers - URI:http://url-for-aia/Root.cer
            X509v3 CRL Distribution Points: 
                Full Name:
                  URI:http://url-for-crl/Root.crl
            X509v3 Key Usage: critical
                Certificate Sign, CRL Sign
            X509v3 Basic Constraints: critical
                CA:TRUE
    Signature Algorithm: sha256WithRSAEncryption
    Signature Value:
        57:9e:8c:8c:10:8a:a9:e4:1d:31:da:b4:fc:91:c8:f6:1f:51:
        8a:5a:c5:79:f9:5d:db:6e:33:90:e8:1c:a2:06:d2:9a:bd:12:
        50:09:3f:58:2c:88:49:6e:74:fc:de:5d:9c:b4:2e:fe:35:a6:
        2e:91:f5:b2:1e:a6:33:60:42:e9:8d:39:cc:d6:71:21:f5:c7:
        00:80:0d:8e:49:70:66:85:90:4f:45:d1:0b:0f:47:b4:b9:2e:
        93:68:ef:25:35:11:2a:80:f3:97:35:3e:b7:78:b8:a3:02:05:
        73:55:f9:36:79:e3:40:2f:4b:11:cc:f2:8c:c6:f7:14:2b:f8:
        b0:04:a2:4e:e0:4d:da:e2:11:77:88:18:a2:6e:5f:4c:0f:44:
        79:72:60:52:68:bb:37:d4:a1:46:10:f7:75:c2:ec:81:e0:3e:
        5a:01:d5:59:3b:c0:19:b3:07:32:74:4a:f2:3e:26:d9:f2:fa:
        79:0a:8e:46:08:21:ea:36:66:b6:7b:4c:21:b7:41:7c:a0:a0:
        50:c2:6f:1a:71:dc:8a:cf:74:08:f1:87:45:f4:e1:4c:9a:1a:
        48:06:61:2b:12:ca:54:b9:39:b4:bc:3d:40:69:15:b3:03:0c:
        9c:27:1e:ad:60:37:d0:fb:60:78:fa:1c:5a:82:91:c1:2c:ed:
        08:e7:ae:e3
-----BEGIN CERTIFICATE-----
MIIDgDCCAmigAwIBAgIUHsM5kHcywn7qGmiLNfMgbD0dV2UwDQYJKoZIhvcNAQEL
BQAwDzENMAsGA1UEAwwEUm9vdDAeFw0yMjEwMDUxMjAwMDBaFw0yMzEwMDUxMjAw
MDBaMBcxFTATBgNVBAMMDEludGVybWVkaWF0ZTCCASIwDQYJKoZIhvcNAQEBBQAD
ggEPADCCAQoCggEBALKUNYuFdaJ0HrS9XJvieocyod9j1FwQyDzCfqpTCdj6zhS9
gKezy0uEr/zI3pc42BfNHWplObUnNrxkmk8tkV80K/KD+ivqHG5fYAnDcJQPvQzr
4qC6Q1o63T4CmVJKKOLk3BiVOr1Eb8GiPm9DV2CkcBeuQtGcfAh/8HeTeFmyxDnb
KM0ZQnjFAKI6b+9XpyLVh2omxNGfGHAFQ5xyoQN5R7r1ZPkPY8H+cD/wXJJE5nGI
DuwTDEUzk7g8wv4HfQ6yuy8ZadDRnHd3SFTKXQ+ObY0nN2FFEt4ibNovI5/RDzgD
dbRTuoEXSoOTGUtWTjFjEm+JXFx7G0n8aqCKVI0CAwEAAaOByzCByDAdBgNVHQ4E
FgQUmi5vC5b0314yMpblAyr63ZgSVe4wHwYDVR0jBBgwFoAUGftSLrHXdhnbiwWD
vmLKC0hudQ4wNwYIKwYBBQUHAQEEKzApMCcGCCsGAQUFBzAChhtodHRwOi8vdXJs
LWZvci1haWEvUm9vdC5jZXIwLAYDVR0fBCUwIzAhoB+gHYYbaHR0cDovL3VybC1m
b3ItY3JsL1Jvb3QuY3JsMA4GA1UdDwEB/wQEAwIBBjAPBgNVHRMBAf8EBTADAQH/
MA0GCSqGSIb3DQEBCwUAA4IBAQBXnoyMEIqp5B0x2rT8kcj2H1GKWsV5+V3bbjOQ
6ByiBtKavRJQCT9YLIhJbnT83l2ctC7+NaYukfWyHqYzYELpjTnM1nEh9ccAgA2O
SXBmhZBPRdELD0e0uS6TaO8lNREqgPOXNT63eLijAgVzVfk2eeNAL0sRzPKMxvcU
K/iwBKJO4E3a4hF3iBiibl9MD0R5cmBSaLs31KFGEPd1wuyB4D5aAdVZO8AZswcy
dEryPibZ8vp5Co5GCCHqNma2e0wht0F8oKBQwm8acdyKz3QI8YdF9OFMmhpIBmEr
EspUuTm0vD1AaRWzAwycJx6tYDfQ+2B4+hxagpHBLO0I567j
-----END CERTIFICATE-----

Certificate:
    Data:
        Version: 3 (0x2)
        Serial Number:
            1e:c3:39:90:77:32:c2:7e:ea:1a:68:8b:35:f3:20:6c:3d:1d:57:64
        Signature Algorithm: sha256WithRSAEncryption
        Issuer: CN=Root
        Validity
            Not Before: Oct  5 12:00:00 2022 GMT
            Not After : Oct  5 12:00:00 2023 GMT
        Subject: CN=Root
        Subject Public Key Info:
            Public Key Algorithm: rsaEncryption
                Public-Key: (2048 bit)
                Modulus:
                    00:cd:cf:00:37:2d:30:07:b1:79:ce:1c:2f:e5:de:
                    14:66:f0:c4:c9:65:94:d5:d8:86:9b:f8:3e:fa:8f:
                    2a:f6:45:59:3f:2b:e2:ca:27:da:e1:63:8b:cd:3d:
                    9d:f7:9c:fd:a8:c0:34:87:d3:7a:ff:50:a2:43:8c:
                    96:db:d7:a9:43:bd:e9:f9:ac:f2:6c:85:e7:46:33:
                    4b:4b:32:2f:62:fb:86:5e:f7:70:74:24:b7:a7:9b:
                    f5:1c:ba:d2:06:93:d4:2c:7e:94:de:64:d4:df:a5:
                    d7:07:f0:57:32:76:e8:d8:dc:10:37:54:24:73:34:
                    1d:7f:fe:8a:5f:21:40:b4:cd:aa:ab:a6:ea:9b:f3:
                    6e:eb:45:0f:52:f2:0b:aa:5f:0c:bd:69:b4:bc:c5:
                    ba:eb:36:29:07:62:9c:f1:26:59:89:04:b7:87:c6:
                    5b:9e:e9:93:af:81:f2:29:21:8a:fc:99:93:2d:d9:
                    8a:0e:5a:43:b1:d8:31:42:e3:70:ab:5d:ed:7c:bc:
                    08:71:27:e9:8f:f2:ac:09:12:be:28:91:31:c7:89:
                    a4:e3:0a:07:e5:c0:f4:6c:fa:53:4f:1f:71:3a:42:
                    c7:b3:25:56:fc:69:ce:98:99:d6:fa:b4:e2:3d:c7:
                    4c:b8:f2:a9:c7:39:3e:dd:60:e6:06:dd:68:f9:ec:
                    55:3b
                Exponent: 65537 (0x10001)
        X509v3 extensions:
            X509v3 Subject Key Identifier: 
                19:FB:52:2E:B1:D7:76:19:DB:8B:05:83:BE:62:CA:0B:48:6E:75:0E
            X509v3 Authority Key Identifier: 
                19:FB:52:2E:B1:D7:76:19:DB:8B:05:83:BE:62:CA:0B:48:6E:75:0E
            Authority Information Access: 
                CA Issuers - URI:http://url-for-aia/Root.cer
            X509v3 CRL Distribution Points: 
                Full Name:
                  URI:http://url-for-crl/Root.crl
            X509v3 Key Usage: critical
                Certificate Sign, CRL Sign
            X509v3 Basic Constraints: critical
                CA:TRUE
    Signature Algorithm: sha256WithRSAEncryption
    Signature Value:
        6f:0c:3d:ff:4e:7f:d0:cc:7f:4e:d1:1b:9b:78:2d:49:09:5b:
        65:af:6a:47:2b:45:bc:14:28:65:80:c1:b6:2b:f1:4b:53:99:
        c8:cd:1e:10:f3:52:27:8e:2b:e9:92:71:f0:a2:11:41:14:be:
        e4:c2:aa:72:c8:d1:e5:75:f2:db:07:99:14:30:6e:04:c8:ae:
        0a:15:1d:3d:74:38:65:3f:39:f5:6f:94:37:22:cd:23:a4:c0:
        b1:4f:10:77:cc:75:2d:76:b4:85:8a:03:1e:a5:12:a6:31:f1:
        f8:bf:90:e5:a3:17:ff:45:35:20:7a:8f:47:55:4f:88:4a:2c:
        c1:42:69:2c:d1:90:f4:67:ea:00:79:20:17:37:e8:ee:3b:36:
        62:fd:6b:42:c2:fe:ca:20:3f:20:48:bc:fd:19:7c:2e:98:2d:
        99:00:7d:8c:33:28:03:a9:75:36:a1:9a:c7:b4:63:db:91:cf:
        72:81:5e:c1:84:70:6a:62:e8:ce:c5:ec:ed:96:23:6f:8d:87:
        71:8f:bb:4c:14:77:81:13:39:87:b4:cf:de:0c:1a:90:b8:86:
        21:c1:29:74:ab:11:a7:d8:36:9f:dc:98:0c:cf:50:ac:98:c0:
        73:4e:61:4c:71:7f:57:03:54:58:b7:ea:60:26:24:f8:b3:9f:
        6d:26:ec:a7
-----BEGIN CERTIFICATE-----
MIIDeDCCAmCgAwIBAgIUHsM5kHcywn7qGmiLNfMgbD0dV2QwDQYJKoZIhvcNAQEL
BQAwDzENMAsGA1UEAwwEUm9vdDAeFw0yMjEwMDUxMjAwMDBaFw0yMzEwMDUxMjAw
MDBaMA8xDTALBgNVBAMMBFJvb3QwggEiMA0GCSqGSIb3DQEBAQUAA4IBDwAwggEK
AoIBAQDNzwA3LTAHsXnOHC/l3hRm8MTJZZTV2Iab+D76jyr2RVk/K+LKJ9rhY4vN
PZ33nP2owDSH03r/UKJDjJbb16lDven5rPJshedGM0tLMi9i+4Ze93B0JLenm/Uc
utIGk9QsfpTeZNTfpdcH8FcydujY3BA3VCRzNB1//opfIUC0zaqrpuqb827rRQ9S
8guqXwy9abS8xbrrNikHYpzxJlmJBLeHxlue6ZOvgfIpIYr8mZMt2YoOWkOx2DFC
43CrXe18vAhxJ+mP8qwJEr4okTHHiaTjCgflwPRs+lNPH3E6QsezJVb8ac6Ymdb6
tOI9x0y48qnHOT7dYOYG3Wj57FU7AgMBAAGjgcswgcgwHQYDVR0OBBYEFBn7Ui6x
13YZ24sFg75iygtIbnUOMB8GA1UdIwQYMBaAFBn7Ui6x13YZ24sFg75iygtIbnUO
MDcGCCsGAQUFBwEBBCswKTAnBggrBgEFBQcwAoYbaHR0cDovL3VybC1mb3ItYWlh
L1Jvb3QuY2VyMCwGA1UdHwQlMCMwIaAfoB2GG2h0dHA6Ly91cmwtZm9yLWNybC9S
b290LmNybDAOBgNVHQ8BAf8EBAMCAQYwDwYDVR0TAQH/BAUwAwEB/zANBgkqhkiG
9w0BAQsFAAOCAQEAbww9/05/0Mx/TtEbm3gtSQlbZa9qRytFvBQoZYDBtivxS1OZ
yM0eEPNSJ44r6ZJx8KIRQRS+5MKqcsjR5XXy2weZFDBuBMiuChUdPXQ4ZT859W+U
NyLNI6TAsU8Qd8x1LXa0hYoDHqUSpjHx+L+Q5aMX/0U1IHqPR1VPiEoswUJpLNGQ
9GfqAHkgFzfo7js2Yv1rQsL+yiA/IEi8/Rl8LpgtmQB9jDMoA6l1NqGax7Rj25HP
coFewYRwamLozsXs7ZYjb42HcY+7TBR3gRM5h7TP3gwakLiGIcEpdKsRp9g2n9yY
DM9QrJjAc05hTHF/VwNUWLfqYCYk+LOfbSbspw==
-----END CERTIFICATE-----
