[Created by: generate-chains.py]

Certificate chain where the target certificate is a CA rather than an
end-entity certificate (based on the basic constraints extension).

Certificate:
    Data:
        Version: 3 (0x2)
        Serial Number:
            4d:a4:86:6a:41:8e:28:fd:af:66:05:2a:fc:73:db:94:88:ab:21:08
        Signature Algorithm: sha256WithRSAEncryption
        Issuer: CN=Intermediate
        Validity
            Not Before: Nov  3 12:00:00 2020 GMT
            Not After : Nov  3 12:00:00 2021 GMT
        Subject: CN=Target
        Subject Public Key Info:
            Public Key Algorithm: rsaEncryption
                RSA Public-Key: (2048 bit)
                Modulus:
                    00:a5:45:4e:2d:c7:c9:c2:ab:e9:b7:ff:2f:3a:09:
                    f2:64:ea:bc:ea:9c:34:fa:39:c1:2d:c2:38:c3:51:
                    ec:7b:06:6e:21:c6:7b:a0:04:ec:e3:dd:5a:72:0a:
                    0f:bc:73:37:7f:01:7e:02:3d:d5:cb:7a:2d:cc:b3:
                    c7:d9:cb:44:0e:d6:a3:1d:dc:69:08:80:50:ce:2b:
                    9b:a3:8d:3f:4e:79:55:ea:cc:94:81:7a:9d:fc:54:
                    f5:15:9e:17:99:e2:30:9b:67:55:4c:79:cc:85:13:
                    ca:38:af:ec:df:a5:50:bc:b8:ff:0a:4e:12:be:5e:
                    de:64:d3:ac:7d:f5:cc:3f:9a:b5:94:32:75:65:8e:
                    47:b0:81:d7:c8:27:5f:7c:44:31:53:6d:93:36:6f:
                    54:99:dc:82:24:7c:ab:14:eb:67:2f:3b:10:a4:cb:
                    56:34:05:f4:b1:fc:12:42:dd:3c:dc:16:0f:d1:8f:
                    f0:87:fa:07:b4:fa:3d:7a:47:c0:dc:95:09:77:9c:
                    28:b3:a3:ae:9e:72:d3:bc:3b:a5:57:f7:31:3b:4f:
                    76:30:a2:43:56:74:f9:3b:7b:f7:ec:43:64:3e:56:
                    aa:93:53:d4:4a:5a:84:8b:fb:68:43:17:a4:20:13:
                    07:e0:aa:7f:b1:c3:36:15:8b:b3:ec:e2:e6:d6:4a:
                    5f:83
                Exponent: 65537 (0x10001)
        X509v3 extensions:
            X509v3 Subject Key Identifier: 
                93:E1:6A:2B:C0:A8:CA:CA:A9:B3:28:0E:8B:11:FF:0B:B0:24:73:F6
            X509v3 Authority Key Identifier: 
                keyid:9A:2E:6F:0B:96:F4:DF:5E:32:32:96:E5:03:2A:FA:DD:98:12:55:EE

            Authority Information Access: 
                CA Issuers - URI:http://url-for-aia/Intermediate.cer

            X509v3 CRL Distribution Points: 

                Full Name:
                  URI:http://url-for-crl/Intermediate.crl

            X509v3 Key Usage: critical
                Certificate Sign, CRL Sign
            X509v3 Basic Constraints: critical
                CA:TRUE
    Signature Algorithm: sha256WithRSAEncryption
         91:79:61:ff:c9:cd:22:2a:d9:0f:f7:39:2b:e9:3d:ec:e8:01:
         aa:64:ec:09:34:43:58:6b:30:a5:3e:90:14:1a:22:5b:3e:74:
         9f:0a:72:94:26:b6:17:5d:08:b4:ec:3d:60:2c:f6:73:c4:94:
         fe:fc:31:c9:0d:0b:ba:e1:18:b6:e1:2a:95:6d:b5:ad:7b:cb:
         ab:08:b4:de:ed:c5:2f:f7:88:6b:9d:d3:9d:a8:d3:f8:e8:9c:
         11:2e:02:83:1e:2b:78:f8:63:79:a6:4d:48:b3:eb:70:1f:dc:
         19:22:e0:fe:84:f6:96:6b:86:b7:f6:78:01:8f:a4:5f:75:8f:
         21:7e:7a:0a:34:f6:1e:d0:1f:96:94:74:73:a1:e1:05:34:36:
         c7:fd:17:d9:16:1f:fc:68:f5:88:d6:2f:1d:9f:5c:15:e3:25:
         96:29:e3:c8:4a:f3:71:4b:40:de:d9:81:4e:9a:49:9d:f0:25:
         2e:af:02:97:00:0b:0f:aa:a6:fa:d1:1b:d9:c1:1d:7e:dc:d2:
         87:62:8d:8b:30:4b:8e:3e:ce:46:5c:85:c1:10:1c:28:26:21:
         1c:13:6c:2c:99:34:df:6a:6a:45:1f:06:25:0e:71:59:a1:7a:
         f2:aa:a7:d7:c4:6c:37:c3:2b:99:54:69:f2:85:81:61:1f:35:
         cf:d0:d4:34
-----BEGIN CERTIFICATE-----
MIIDkjCCAnqgAwIBAgIUTaSGakGOKP2vZgUq/HPblIirIQgwDQYJKoZIhvcNAQEL
BQAwFzEVMBMGA1UEAwwMSW50ZXJtZWRpYXRlMB4XDTIwMTEwMzEyMDAwMFoXDTIx
MTEwMzEyMDAwMFowETEPMA0GA1UEAwwGVGFyZ2V0MIIBIjANBgkqhkiG9w0BAQEF
AAOCAQ8AMIIBCgKCAQEApUVOLcfJwqvpt/8vOgnyZOq86pw0+jnBLcI4w1HsewZu
IcZ7oATs491acgoPvHM3fwF+Aj3Vy3otzLPH2ctEDtajHdxpCIBQziubo40/TnlV
6syUgXqd/FT1FZ4XmeIwm2dVTHnMhRPKOK/s36VQvLj/Ck4Svl7eZNOsffXMP5q1
lDJ1ZY5HsIHXyCdffEQxU22TNm9UmdyCJHyrFOtnLzsQpMtWNAX0sfwSQt083BYP
0Y/wh/oHtPo9ekfA3JUJd5wos6OunnLTvDulV/cxO092MKJDVnT5O3v37ENkPlaq
k1PUSlqEi/toQxekIBMH4Kp/scM2FYuz7OLm1kpfgwIDAQABo4HbMIHYMB0GA1Ud
DgQWBBST4WorwKjKyqmzKA6LEf8LsCRz9jAfBgNVHSMEGDAWgBSaLm8LlvTfXjIy
luUDKvrdmBJV7jA/BggrBgEFBQcBAQQzMDEwLwYIKwYBBQUHMAKGI2h0dHA6Ly91
cmwtZm9yLWFpYS9JbnRlcm1lZGlhdGUuY2VyMDQGA1UdHwQtMCswKaAnoCWGI2h0
dHA6Ly91cmwtZm9yLWNybC9JbnRlcm1lZGlhdGUuY3JsMA4GA1UdDwEB/wQEAwIB
BjAPBgNVHRMBAf8EBTADAQH/MA0GCSqGSIb3DQEBCwUAA4IBAQCReWH/yc0iKtkP
9zkr6T3s6AGqZOwJNENYazClPpAUGiJbPnSfCnKUJrYXXQi07D1gLPZzxJT+/DHJ
DQu64Ri24SqVbbWte8urCLTe7cUv94hrndOdqNP46JwRLgKDHit4+GN5pk1Is+tw
H9wZIuD+hPaWa4a39ngBj6RfdY8hfnoKNPYe0B+WlHRzoeEFNDbH/RfZFh/8aPWI
1i8dn1wV4yWWKePISvNxS0De2YFOmkmd8CUurwKXAAsPqqb60RvZwR1+3NKHYo2L
MEuOPs5GXIXBEBwoJiEcE2wsmTTfampFHwYlDnFZoXryqqfXxGw3wyuZVGnyhYFh
HzXP0NQ0
-----END CERTIFICATE-----

Certificate:
    Data:
        Version: 3 (0x2)
        Serial Number:
            1e:c3:39:90:77:32:c2:7e:ea:1a:68:8b:35:f3:20:6c:3d:1d:57:65
        Signature Algorithm: sha256WithRSAEncryption
        Issuer: CN=Root
        Validity
            Not Before: Nov  3 12:00:00 2020 GMT
            Not After : Nov  3 12:00:00 2021 GMT
        Subject: CN=Intermediate
        Subject Public Key Info:
            Public Key Algorithm: rsaEncryption
                RSA Public-Key: (2048 bit)
                Modulus:
                    00:b2:94:35:8b:85:75:a2:74:1e:b4:bd:5c:9b:e2:
                    7a:87:32:a1:df:63:d4:5c:10:c8:3c:c2:7e:aa:53:
                    09:d8:fa:ce:14:bd:80:a7:b3:cb:4b:84:af:fc:c8:
                    de:97:38:d8:17:cd:1d:6a:65:39:b5:27:36:bc:64:
                    9a:4f:2d:91:5f:34:2b:f2:83:fa:2b:ea:1c:6e:5f:
                    60:09:c3:70:94:0f:bd:0c:eb:e2:a0:ba:43:5a:3a:
                    dd:3e:02:99:52:4a:28:e2:e4:dc:18:95:3a:bd:44:
                    6f:c1:a2:3e:6f:43:57:60:a4:70:17:ae:42:d1:9c:
                    7c:08:7f:f0:77:93:78:59:b2:c4:39:db:28:cd:19:
                    42:78:c5:00:a2:3a:6f:ef:57:a7:22:d5:87:6a:26:
                    c4:d1:9f:18:70:05:43:9c:72:a1:03:79:47:ba:f5:
                    64:f9:0f:63:c1:fe:70:3f:f0:5c:92:44:e6:71:88:
                    0e:ec:13:0c:45:33:93:b8:3c:c2:fe:07:7d:0e:b2:
                    bb:2f:19:69:d0:d1:9c:77:77:48:54:ca:5d:0f:8e:
                    6d:8d:27:37:61:45:12:de:22:6c:da:2f:23:9f:d1:
                    0f:38:03:75:b4:53:ba:81:17:4a:83:93:19:4b:56:
                    4e:31:63:12:6f:89:5c:5c:7b:1b:49:fc:6a:a0:8a:
                    54:8d
                Exponent: 65537 (0x10001)
        X509v3 extensions:
            X509v3 Subject Key Identifier: 
                9A:2E:6F:0B:96:F4:DF:5E:32:32:96:E5:03:2A:FA:DD:98:12:55:EE
            X509v3 Authority Key Identifier: 
                keyid:19:FB:52:2E:B1:D7:76:19:DB:8B:05:83:BE:62:CA:0B:48:6E:75:0E

            Authority Information Access: 
                CA Issuers - URI:http://url-for-aia/Root.cer

            X509v3 CRL Distribution Points: 

                Full Name:
                  URI:http://url-for-crl/Root.crl

            X509v3 Key Usage: critical
                Certificate Sign, CRL Sign
            X509v3 Basic Constraints: critical
                CA:TRUE
    Signature Algorithm: sha256WithRSAEncryption
         a8:fd:4d:b8:96:f5:45:96:a3:fd:ed:3b:c3:51:89:24:31:bd:
         95:0e:67:90:23:69:1e:50:bb:de:d9:14:e2:3b:de:77:2b:d7:
         ee:b6:59:14:34:73:eb:ea:af:a9:a8:a0:65:cb:73:82:b8:da:
         2c:85:c7:50:04:04:ec:23:62:29:b9:df:4b:df:24:6f:d8:0a:
         17:3b:1f:82:60:db:e5:e2:67:9d:89:71:25:a2:61:24:c8:f0:
         cc:56:1d:f6:41:96:69:e5:7a:9e:f1:20:78:59:23:a8:2f:7a:
         99:af:40:93:fe:20:f2:6c:e4:58:b6:61:64:34:61:a5:ef:ad:
         71:54:7c:c4:7c:84:74:72:15:20:d3:e5:1c:96:f7:66:db:0c:
         6d:be:b8:3e:46:1b:9c:c5:72:f7:51:74:3e:b9:99:4a:11:8b:
         52:a7:17:74:a6:68:dc:09:8e:8a:c7:45:ea:33:b6:19:30:ae:
         34:45:19:07:48:cf:93:a3:50:85:2f:fb:19:72:0d:26:0b:ec:
         b1:22:42:84:af:42:8b:3c:bd:4e:52:11:04:76:59:fe:2b:43:
         67:99:46:60:8a:a1:80:32:a1:f2:fa:8f:10:43:e0:ce:6a:23:
         ee:08:86:05:f7:aa:cd:3a:7c:ea:ae:ff:e0:f9:a7:b5:89:50:
         96:8c:3d:c6
-----BEGIN CERTIFICATE-----
MIIDgDCCAmigAwIBAgIUHsM5kHcywn7qGmiLNfMgbD0dV2UwDQYJKoZIhvcNAQEL
BQAwDzENMAsGA1UEAwwEUm9vdDAeFw0yMDExMDMxMjAwMDBaFw0yMTExMDMxMjAw
MDBaMBcxFTATBgNVBAMMDEludGVybWVkaWF0ZTCCASIwDQYJKoZIhvcNAQEBBQAD
ggEPADCCAQoCggEBALKUNYuFdaJ0HrS9XJvieocyod9j1FwQyDzCfqpTCdj6zhS9
gKezy0uEr/zI3pc42BfNHWplObUnNrxkmk8tkV80K/KD+ivqHG5fYAnDcJQPvQzr
4qC6Q1o63T4CmVJKKOLk3BiVOr1Eb8GiPm9DV2CkcBeuQtGcfAh/8HeTeFmyxDnb
KM0ZQnjFAKI6b+9XpyLVh2omxNGfGHAFQ5xyoQN5R7r1ZPkPY8H+cD/wXJJE5nGI
DuwTDEUzk7g8wv4HfQ6yuy8ZadDRnHd3SFTKXQ+ObY0nN2FFEt4ibNovI5/RDzgD
dbRTuoEXSoOTGUtWTjFjEm+JXFx7G0n8aqCKVI0CAwEAAaOByzCByDAdBgNVHQ4E
FgQUmi5vC5b0314yMpblAyr63ZgSVe4wHwYDVR0jBBgwFoAUGftSLrHXdhnbiwWD
vmLKC0hudQ4wNwYIKwYBBQUHAQEEKzApMCcGCCsGAQUFBzAChhtodHRwOi8vdXJs
LWZvci1haWEvUm9vdC5jZXIwLAYDVR0fBCUwIzAhoB+gHYYbaHR0cDovL3VybC1m
b3ItY3JsL1Jvb3QuY3JsMA4GA1UdDwEB/wQEAwIBBjAPBgNVHRMBAf8EBTADAQH/
MA0GCSqGSIb3DQEBCwUAA4IBAQCo/U24lvVFlqP97TvDUYkkMb2VDmeQI2keULve
2RTiO953K9futlkUNHPr6q+pqKBly3OCuNoshcdQBATsI2Ipud9L3yRv2AoXOx+C
YNvl4mediXElomEkyPDMVh32QZZp5Xqe8SB4WSOoL3qZr0CT/iDybORYtmFkNGGl
761xVHzEfIR0chUg0+Uclvdm2wxtvrg+RhucxXL3UXQ+uZlKEYtSpxd0pmjcCY6K
x0XqM7YZMK40RRkHSM+To1CFL/sZcg0mC+yxIkKEr0KLPL1OUhEEdln+K0NnmUZg
iqGAMqHy+o8QQ+DOaiPuCIYF96rNOnzqrv/g+ae1iVCWjD3G
-----END CERTIFICATE-----

Certificate:
    Data:
        Version: 3 (0x2)
        Serial Number:
            1e:c3:39:90:77:32:c2:7e:ea:1a:68:8b:35:f3:20:6c:3d:1d:57:64
        Signature Algorithm: sha256WithRSAEncryption
        Issuer: CN=Root
        Validity
            Not Before: Nov  3 12:00:00 2020 GMT
            Not After : Nov  3 12:00:00 2021 GMT
        Subject: CN=Root
        Subject Public Key Info:
            Public Key Algorithm: rsaEncryption
                RSA Public-Key: (2048 bit)
                Modulus:
                    00:cd:cf:00:37:2d:30:07:b1:79:ce:1c:2f:e5:de:
                    14:66:f0:c4:c9:65:94:d5:d8:86:9b:f8:3e:fa:8f:
                    2a:f6:45:59:3f:2b:e2:ca:27:da:e1:63:8b:cd:3d:
                    9d:f7:9c:fd:a8:c0:34:87:d3:7a:ff:50:a2:43:8c:
                    96:db:d7:a9:43:bd:e9:f9:ac:f2:6c:85:e7:46:33:
                    4b:4b:32:2f:62:fb:86:5e:f7:70:74:24:b7:a7:9b:
                    f5:1c:ba:d2:06:93:d4:2c:7e:94:de:64:d4:df:a5:
                    d7:07:f0:57:32:76:e8:d8:dc:10:37:54:24:73:34:
                    1d:7f:fe:8a:5f:21:40:b4:cd:aa:ab:a6:ea:9b:f3:
                    6e:eb:45:0f:52:f2:0b:aa:5f:0c:bd:69:b4:bc:c5:
                    ba:eb:36:29:07:62:9c:f1:26:59:89:04:b7:87:c6:
                    5b:9e:e9:93:af:81:f2:29:21:8a:fc:99:93:2d:d9:
                    8a:0e:5a:43:b1:d8:31:42:e3:70:ab:5d:ed:7c:bc:
                    08:71:27:e9:8f:f2:ac:09:12:be:28:91:31:c7:89:
                    a4:e3:0a:07:e5:c0:f4:6c:fa:53:4f:1f:71:3a:42:
                    c7:b3:25:56:fc:69:ce:98:99:d6:fa:b4:e2:3d:c7:
                    4c:b8:f2:a9:c7:39:3e:dd:60:e6:06:dd:68:f9:ec:
                    55:3b
                Exponent: 65537 (0x10001)
        X509v3 extensions:
            X509v3 Subject Key Identifier: 
                19:FB:52:2E:B1:D7:76:19:DB:8B:05:83:BE:62:CA:0B:48:6E:75:0E
            X509v3 Authority Key Identifier: 
                keyid:19:FB:52:2E:B1:D7:76:19:DB:8B:05:83:BE:62:CA:0B:48:6E:75:0E

            Authority Information Access: 
                CA Issuers - URI:http://url-for-aia/Root.cer

            X509v3 CRL Distribution Points: 

                Full Name:
                  URI:http://url-for-crl/Root.crl

            X509v3 Key Usage: critical
                Certificate Sign, CRL Sign
            X509v3 Basic Constraints: critical
                CA:TRUE
    Signature Algorithm: sha256WithRSAEncryption
         55:0d:6c:8d:da:c4:01:ce:36:d0:b1:e8:67:d9:8d:a1:26:73:
         61:0a:96:49:f2:18:09:48:00:d5:53:92:3b:a8:9d:17:2f:33:
         d4:9c:73:15:2a:2b:67:38:7c:bb:16:57:e3:85:79:d4:d2:b3:
         f0:d9:a3:2e:0e:11:38:df:80:d6:52:8c:99:24:4e:04:f0:89:
         2f:bc:26:64:dc:2d:1f:82:c8:45:64:e3:65:c3:f5:17:ea:0e:
         45:75:33:05:73:97:04:ad:7c:4e:a7:8e:b7:47:c9:e9:10:87:
         d8:05:22:c7:55:4f:38:d5:eb:da:94:ff:b0:9b:88:0e:37:79:
         83:de:83:f2:1b:cc:c1:70:06:02:98:a9:ff:eb:58:86:12:55:
         9a:2d:6e:81:11:cc:66:0d:e4:46:f2:d2:62:3a:f3:dc:37:97:
         19:eb:5d:25:22:dc:15:62:2a:99:90:60:df:2c:5f:77:6f:08:
         57:a2:e6:65:72:64:b0:17:3e:cf:c4:86:58:7e:dd:82:b8:2d:
         4f:9d:f8:0f:07:15:4e:39:94:d2:2d:42:f9:c5:0b:97:44:25:
         a5:3c:b1:f4:f5:bf:c1:f8:3c:02:1e:b8:09:3a:aa:39:e5:96:
         ab:fb:45:b0:b3:58:3b:1a:a9:f0:6c:39:29:c0:98:a0:55:cd:
         42:b0:cb:d8
-----BEGIN CERTIFICATE-----
MIIDeDCCAmCgAwIBAgIUHsM5kHcywn7qGmiLNfMgbD0dV2QwDQYJKoZIhvcNAQEL
BQAwDzENMAsGA1UEAwwEUm9vdDAeFw0yMDExMDMxMjAwMDBaFw0yMTExMDMxMjAw
MDBaMA8xDTALBgNVBAMMBFJvb3QwggEiMA0GCSqGSIb3DQEBAQUAA4IBDwAwggEK
AoIBAQDNzwA3LTAHsXnOHC/l3hRm8MTJZZTV2Iab+D76jyr2RVk/K+LKJ9rhY4vN
PZ33nP2owDSH03r/UKJDjJbb16lDven5rPJshedGM0tLMi9i+4Ze93B0JLenm/Uc
utIGk9QsfpTeZNTfpdcH8FcydujY3BA3VCRzNB1//opfIUC0zaqrpuqb827rRQ9S
8guqXwy9abS8xbrrNikHYpzxJlmJBLeHxlue6ZOvgfIpIYr8mZMt2YoOWkOx2DFC
43CrXe18vAhxJ+mP8qwJEr4okTHHiaTjCgflwPRs+lNPH3E6QsezJVb8ac6Ymdb6
tOI9x0y48qnHOT7dYOYG3Wj57FU7AgMBAAGjgcswgcgwHQYDVR0OBBYEFBn7Ui6x
13YZ24sFg75iygtIbnUOMB8GA1UdIwQYMBaAFBn7Ui6x13YZ24sFg75iygtIbnUO
MDcGCCsGAQUFBwEBBCswKTAnBggrBgEFBQcwAoYbaHR0cDovL3VybC1mb3ItYWlh
L1Jvb3QuY2VyMCwGA1UdHwQlMCMwIaAfoB2GG2h0dHA6Ly91cmwtZm9yLWNybC9S
b290LmNybDAOBgNVHQ8BAf8EBAMCAQYwDwYDVR0TAQH/BAUwAwEB/zANBgkqhkiG
9w0BAQsFAAOCAQEAVQ1sjdrEAc420LHoZ9mNoSZzYQqWSfIYCUgA1VOSO6idFy8z
1JxzFSorZzh8uxZX44V51NKz8NmjLg4RON+A1lKMmSROBPCJL7wmZNwtH4LIRWTj
ZcP1F+oORXUzBXOXBK18TqeOt0fJ6RCH2AUix1VPONXr2pT/sJuIDjd5g96D8hvM
wXAGApip/+tYhhJVmi1ugRHMZg3kRvLSYjrz3DeXGetdJSLcFWIqmZBg3yxfd28I
V6LmZXJksBc+z8SGWH7dgrgtT534DwcVTjmU0i1C+cULl0QlpTyx9PW/wfg8Ah64
CTqqOeWWq/tFsLNYOxqp8Gw5KcCYoFXNQrDL2A==
-----END CERTIFICATE-----
