[Created by: generate-chains.py]

Certificate chain with 2 intermediates and one end entity certificate. The
root certificate has a pathlen:1 restriction. Ordinarily this would be an
invalid chain, however constraints on this trust anchor are not enforced.

Certificate:
    Data:
        Version: 3 (0x2)
        Serial Number:
            6f:b6:20:7f:8e:28:e1:ab:46:5c:ea:21:e3:04:e6:9e:26:6c:cd:7a
        Signature Algorithm: sha256WithRSAEncryption
        Issuer: CN=Intermediate2
        Validity
            Not Before: Nov  3 12:00:00 2020 GMT
            Not After : Nov  3 12:00:00 2021 GMT
        Subject: CN=Target
        Subject Public Key Info:
            Public Key Algorithm: rsaEncryption
                RSA Public-Key: (2048 bit)
                Modulus:
                    00:9d:b0:80:41:9a:d5:31:ea:d0:f6:46:1d:cd:f5:
                    e0:b8:d1:d4:21:fa:7b:01:03:9a:2a:dc:f0:f1:91:
                    75:4e:57:cb:b6:d2:03:4d:49:16:cf:85:87:a7:e8:
                    b5:de:55:67:d1:9f:1a:2a:19:2c:00:91:00:81:c4:
                    92:cc:03:be:c1:f2:c5:72:39:94:b6:1e:5f:4a:70:
                    83:7d:5a:05:2d:02:a7:84:25:2a:da:11:c4:d4:e8:
                    7f:1a:fb:88:6b:52:f9:8c:c9:c7:99:21:75:35:c3:
                    84:a0:a1:b1:32:6e:1f:e4:b4:bc:21:5b:e4:7b:e0:
                    85:06:3d:bf:fb:c0:92:66:1e:53:ff:d0:16:3b:a5:
                    7c:32:07:10:54:b7:98:3d:70:2f:fc:ee:54:3e:74:
                    a8:ec:4b:45:11:e5:08:d1:54:2b:a9:78:83:bc:55:
                    92:3e:71:e4:ba:ac:67:28:f2:4d:3e:8c:8f:26:88:
                    02:fc:04:82:a9:88:bf:c7:95:4d:8c:d5:0e:17:2d:
                    ea:90:ad:6e:e4:7e:76:89:c6:0d:f4:5a:35:1a:72:
                    d4:91:38:50:cc:f3:1b:05:ff:80:d3:b2:e9:0a:5d:
                    8a:9f:b8:b2:2a:20:a8:76:b5:41:1b:80:33:7c:79:
                    12:fa:ff:36:df:61:22:c5:fa:27:4a:88:75:a8:f5:
                    5d:49
                Exponent: 65537 (0x10001)
        X509v3 extensions:
            X509v3 Subject Key Identifier: 
                ED:D0:2C:C2:73:F7:C3:03:A2:08:6E:44:C9:E5:97:16:A5:B9:C9:EC
            X509v3 Authority Key Identifier: 
                keyid:48:81:22:AA:57:F7:0B:70:A7:D6:32:4B:AA:85:CD:7C:F2:85:30:2B

            Authority Information Access: 
                CA Issuers - URI:http://url-for-aia/Intermediate2.cer

            X509v3 CRL Distribution Points: 

                Full Name:
                  URI:http://url-for-crl/Intermediate2.crl

            X509v3 Key Usage: critical
                Digital Signature, Key Encipherment
            X509v3 Extended Key Usage: 
                TLS Web Server Authentication, TLS Web Client Authentication
    Signature Algorithm: sha256WithRSAEncryption
         6a:70:a0:de:e0:b3:b5:6d:f8:26:98:f1:a2:22:84:4c:36:61:
         55:ea:fa:b0:d5:46:d0:0d:6f:a3:a1:80:72:a2:50:e8:23:e5:
         72:55:35:20:48:9a:ba:9b:47:24:ac:d1:97:10:e7:a1:c9:57:
         3d:65:e4:b4:ee:b2:3e:79:2b:d6:e3:f8:30:76:b5:19:b9:e7:
         78:18:43:82:54:a8:ec:ce:25:20:b4:90:f4:33:b5:f6:7b:a7:
         d2:80:c1:18:7a:e3:dd:3d:79:3c:7b:da:fc:15:0b:c4:08:07:
         98:f3:1f:c8:c5:9d:b7:3a:43:4e:cb:c9:1f:5e:c3:d6:3b:f7:
         77:4d:10:64:ce:d8:cd:14:ab:41:25:e9:a8:8f:87:35:a9:3e:
         88:28:84:08:b5:41:f9:16:ed:46:13:48:1a:77:06:63:10:6e:
         6c:94:95:e7:e3:37:ef:2a:82:fc:7c:74:15:66:08:07:36:dc:
         99:fa:91:aa:cc:fd:f4:9b:cb:89:11:e7:79:58:73:d7:32:4b:
         3f:f6:5b:41:cc:e0:65:1f:bd:de:4e:e2:1b:70:f0:5e:84:07:
         0f:81:77:6a:68:38:9b:50:13:37:b4:e5:e1:6d:30:49:41:d8:
         3c:8b:4e:d9:6b:8e:cb:23:2f:f7:e3:35:61:f4:5c:b0:83:2d:
         71:a2:eb:e5
-----BEGIN CERTIFICATE-----
MIIDozCCAougAwIBAgIUb7Ygf44o4atGXOoh4wTmniZszXowDQYJKoZIhvcNAQEL
BQAwGDEWMBQGA1UEAwwNSW50ZXJtZWRpYXRlMjAeFw0yMDExMDMxMjAwMDBaFw0y
MTExMDMxMjAwMDBaMBExDzANBgNVBAMMBlRhcmdldDCCASIwDQYJKoZIhvcNAQEB
BQADggEPADCCAQoCggEBAJ2wgEGa1THq0PZGHc314LjR1CH6ewEDmirc8PGRdU5X
y7bSA01JFs+Fh6fotd5VZ9GfGioZLACRAIHEkswDvsHyxXI5lLYeX0pwg31aBS0C
p4QlKtoRxNTofxr7iGtS+YzJx5khdTXDhKChsTJuH+S0vCFb5HvghQY9v/vAkmYe
U//QFjulfDIHEFS3mD1wL/zuVD50qOxLRRHlCNFUK6l4g7xVkj5x5LqsZyjyTT6M
jyaIAvwEgqmIv8eVTYzVDhct6pCtbuR+donGDfRaNRpy1JE4UMzzGwX/gNOy6Qpd
ip+4siogqHa1QRuAM3x5Evr/Nt9hIsX6J0qIdaj1XUkCAwEAAaOB6zCB6DAdBgNV
HQ4EFgQU7dAswnP3wwOiCG5EyeWXFqW5yewwHwYDVR0jBBgwFoAUSIEiqlf3C3Cn
1jJLqoXNfPKFMCswQAYIKwYBBQUHAQEENDAyMDAGCCsGAQUFBzAChiRodHRwOi8v
dXJsLWZvci1haWEvSW50ZXJtZWRpYXRlMi5jZXIwNQYDVR0fBC4wLDAqoCigJoYk
aHR0cDovL3VybC1mb3ItY3JsL0ludGVybWVkaWF0ZTIuY3JsMA4GA1UdDwEB/wQE
AwIFoDAdBgNVHSUEFjAUBggrBgEFBQcDAQYIKwYBBQUHAwIwDQYJKoZIhvcNAQEL
BQADggEBAGpwoN7gs7Vt+CaY8aIihEw2YVXq+rDVRtANb6OhgHKiUOgj5XJVNSBI
mrqbRySs0ZcQ56HJVz1l5LTusj55K9bj+DB2tRm553gYQ4JUqOzOJSC0kPQztfZ7
p9KAwRh64909eTx72vwVC8QIB5jzH8jFnbc6Q07LyR9ew9Y793dNEGTO2M0Uq0El
6aiPhzWpPogohAi1QfkW7UYTSBp3BmMQbmyUlefjN+8qgvx8dBVmCAc23Jn6karM
/fSby4kR53lYc9cySz/2W0HM4GUfvd5O4htw8F6EBw+Bd2poOJtQEze05eFtMElB
2DyLTtlrjssjL/fjNWH0XLCDLXGi6+U=
-----END CERTIFICATE-----

Certificate:
    Data:
        Version: 3 (0x2)
        Serial Number:
            6b:9a:a5:a2:a4:4b:4d:13:90:3b:56:a2:99:01:90:63:01:79:c0:69
        Signature Algorithm: sha256WithRSAEncryption
        Issuer: CN=Intermediate1
        Validity
            Not Before: Nov  3 12:00:00 2020 GMT
            Not After : Nov  3 12:00:00 2021 GMT
        Subject: CN=Intermediate2
        Subject Public Key Info:
            Public Key Algorithm: rsaEncryption
                RSA Public-Key: (2048 bit)
                Modulus:
                    00:b9:41:a3:79:b8:9d:70:a4:25:58:5b:47:07:ad:
                    0a:23:3e:36:c4:44:c3:27:bb:cd:ab:c8:1b:4e:b8:
                    ba:d7:33:af:4a:59:74:cb:c1:5f:8c:8f:b6:0d:89:
                    ad:43:1f:3c:f4:64:11:0a:dc:ec:65:6d:85:5c:97:
                    7e:8d:79:4d:bf:2c:bc:7e:31:59:bc:b7:cb:1c:8b:
                    9a:10:ae:12:ed:93:50:72:66:45:c0:af:be:e7:e2:
                    0a:cd:b4:60:f8:03:3e:6a:e2:ca:ff:75:52:20:73:
                    d3:2b:af:72:91:1b:ee:31:ea:74:9b:a0:aa:b2:3a:
                    84:96:f3:00:65:a4:a7:21:e0:b1:96:d2:32:45:c6:
                    bd:6e:17:67:74:34:89:71:a8:2e:18:6b:12:1f:f1:
                    97:07:10:61:b2:c2:38:ac:44:97:e4:fb:99:33:4b:
                    7d:60:52:86:44:d4:df:91:0b:2d:04:37:b5:7e:5c:
                    fa:3d:46:9e:cf:0b:4f:1a:43:d9:9a:68:56:47:b5:
                    f0:68:80:67:a0:e4:d9:e2:25:d4:ff:3c:1a:b3:e0:
                    5f:d5:44:ec:d5:1b:e0:b2:be:fd:d1:26:89:25:4a:
                    18:4a:ca:44:d0:94:74:cb:a8:39:75:64:5a:19:21:
                    d1:4c:d9:b2:13:f0:d1:4f:6f:45:02:b7:3e:6e:10:
                    fe:5f
                Exponent: 65537 (0x10001)
        X509v3 extensions:
            X509v3 Subject Key Identifier: 
                48:81:22:AA:57:F7:0B:70:A7:D6:32:4B:AA:85:CD:7C:F2:85:30:2B
            X509v3 Authority Key Identifier: 
                keyid:A7:AB:30:41:BC:BB:CC:D3:7C:21:06:CA:C4:71:84:FF:FA:00:FC:D3

            Authority Information Access: 
                CA Issuers - URI:http://url-for-aia/Intermediate1.cer

            X509v3 CRL Distribution Points: 

                Full Name:
                  URI:http://url-for-crl/Intermediate1.crl

            X509v3 Key Usage: critical
                Certificate Sign, CRL Sign
            X509v3 Basic Constraints: critical
                CA:TRUE
    Signature Algorithm: sha256WithRSAEncryption
         a7:7a:a2:4b:48:ef:a7:fd:6e:ec:3a:3a:5b:77:b0:90:24:e4:
         3a:dd:41:9f:db:02:f6:fd:99:93:14:cc:0b:10:a0:85:f0:91:
         f9:6a:e0:48:9b:db:85:d0:89:a0:df:b3:78:df:a7:33:61:17:
         9a:a1:1c:26:82:34:d3:8c:0c:4a:2d:ed:ed:8d:bb:10:d6:7d:
         3f:31:ab:6b:cf:04:43:c0:47:de:b3:cd:b5:0b:f9:fc:d1:79:
         64:14:d1:96:cf:17:84:c9:a5:d1:84:02:14:f3:57:c8:d8:fc:
         e2:3f:5a:f9:d3:87:e6:40:ba:a4:5b:8b:d6:80:3d:dc:21:ba:
         bc:24:d7:e8:7a:bd:87:51:2f:a8:ca:02:79:b0:f6:a3:26:09:
         b9:62:7e:72:90:bf:00:60:7b:f0:1b:6a:df:51:30:8b:6b:28:
         f2:23:4a:80:b6:4e:15:ee:52:b4:83:de:a7:a3:e1:12:5a:19:
         f4:07:04:53:02:49:8d:0c:47:7e:5f:b8:dd:d9:db:77:ac:11:
         ee:df:dc:d5:7b:70:6f:30:79:bc:e7:e1:df:d5:f9:54:b6:92:
         3a:b3:f4:f4:ef:91:67:f9:c9:27:d9:e1:2d:64:02:0e:43:18:
         d9:17:ee:af:27:d5:b7:8d:27:30:a0:06:11:ee:e5:d8:06:8f:
         32:88:bd:e6
-----BEGIN CERTIFICATE-----
MIIDnDCCAoSgAwIBAgIUa5qloqRLTROQO1aimQGQYwF5wGkwDQYJKoZIhvcNAQEL
BQAwGDEWMBQGA1UEAwwNSW50ZXJtZWRpYXRlMTAeFw0yMDExMDMxMjAwMDBaFw0y
MTExMDMxMjAwMDBaMBgxFjAUBgNVBAMMDUludGVybWVkaWF0ZTIwggEiMA0GCSqG
SIb3DQEBAQUAA4IBDwAwggEKAoIBAQC5QaN5uJ1wpCVYW0cHrQojPjbERMMnu82r
yBtOuLrXM69KWXTLwV+Mj7YNia1DHzz0ZBEK3OxlbYVcl36NeU2/LLx+MVm8t8sc
i5oQrhLtk1ByZkXAr77n4grNtGD4Az5q4sr/dVIgc9Mrr3KRG+4x6nSboKqyOoSW
8wBlpKch4LGW0jJFxr1uF2d0NIlxqC4YaxIf8ZcHEGGywjisRJfk+5kzS31gUoZE
1N+RCy0EN7V+XPo9Rp7PC08aQ9maaFZHtfBogGeg5NniJdT/PBqz4F/VROzVG+Cy
vv3RJoklShhKykTQlHTLqDl1ZFoZIdFM2bIT8NFPb0UCtz5uEP5fAgMBAAGjgd0w
gdowHQYDVR0OBBYEFEiBIqpX9wtwp9YyS6qFzXzyhTArMB8GA1UdIwQYMBaAFKer
MEG8u8zTfCEGysRxhP/6APzTMEAGCCsGAQUFBwEBBDQwMjAwBggrBgEFBQcwAoYk
aHR0cDovL3VybC1mb3ItYWlhL0ludGVybWVkaWF0ZTEuY2VyMDUGA1UdHwQuMCww
KqAooCaGJGh0dHA6Ly91cmwtZm9yLWNybC9JbnRlcm1lZGlhdGUxLmNybDAOBgNV
HQ8BAf8EBAMCAQYwDwYDVR0TAQH/BAUwAwEB/zANBgkqhkiG9w0BAQsFAAOCAQEA
p3qiS0jvp/1u7Do6W3ewkCTkOt1Bn9sC9v2ZkxTMCxCghfCR+WrgSJvbhdCJoN+z
eN+nM2EXmqEcJoI004wMSi3t7Y27ENZ9PzGra88EQ8BH3rPNtQv5/NF5ZBTRls8X
hMml0YQCFPNXyNj84j9a+dOH5kC6pFuL1oA93CG6vCTX6Hq9h1EvqMoCebD2oyYJ
uWJ+cpC/AGB78Btq31Ewi2so8iNKgLZOFe5StIPep6PhEloZ9AcEUwJJjQxHfl+4
3dnbd6wR7t/c1XtwbzB5vOfh39X5VLaSOrP09O+RZ/nJJ9nhLWQCDkMY2RfuryfV
t40nMKAGEe7l2AaPMoi95g==
-----END CERTIFICATE-----

Certificate:
    Data:
        Version: 3 (0x2)
        Serial Number:
            18:cb:b5:af:52:5d:40:86:d1:39:30:e5:fe:1a:28:65:33:e0:37:a9
        Signature Algorithm: sha256WithRSAEncryption
        Issuer: CN=Root
        Validity
            Not Before: Nov  3 12:00:00 2020 GMT
            Not After : Nov  3 12:00:00 2021 GMT
        Subject: CN=Intermediate1
        Subject Public Key Info:
            Public Key Algorithm: rsaEncryption
                RSA Public-Key: (2048 bit)
                Modulus:
                    00:c1:37:3b:43:f5:80:3a:6f:88:94:a1:ea:18:3b:
                    56:7b:bc:4d:3e:b3:3c:dc:99:4a:aa:11:0c:3e:95:
                    ee:ed:76:27:5b:a5:81:59:73:69:dc:33:da:20:35:
                    48:00:ac:3e:43:5e:df:10:17:d8:d3:e9:11:da:00:
                    72:e7:d3:42:54:f1:93:39:0b:18:7a:0c:69:4d:12:
                    50:73:0c:f6:4f:44:8d:5f:c0:62:89:e5:f0:63:78:
                    1b:92:bb:23:67:8f:77:b1:d3:3f:b1:67:de:6b:aa:
                    0f:73:c3:d3:f2:69:84:7e:e3:04:34:25:69:23:13:
                    23:92:4d:d5:08:55:7d:77:b8:42:96:fd:f7:09:35:
                    20:4a:bf:8e:3d:16:9c:93:5d:81:a2:ed:9d:b4:b3:
                    43:06:74:f2:79:f1:26:d8:1a:b8:3c:35:e6:cd:d6:
                    36:79:5c:2d:3f:3e:df:1c:08:e9:5a:7a:cb:e4:e7:
                    aa:54:db:7e:96:38:a0:0c:39:65:68:88:3a:a0:05:
                    5a:79:ee:8e:dd:96:08:86:8d:3e:79:b1:7e:28:bd:
                    0f:9a:26:f5:de:8c:6c:7a:d8:e7:79:c4:9a:48:35:
                    26:2c:ac:1c:ce:d4:7f:a4:a2:75:e3:27:0f:0f:de:
                    5a:ba:7a:59:c7:ef:d8:39:8d:74:81:fc:37:a6:b1:
                    b7:4d
                Exponent: 65537 (0x10001)
        X509v3 extensions:
            X509v3 Subject Key Identifier: 
                A7:AB:30:41:BC:BB:CC:D3:7C:21:06:CA:C4:71:84:FF:FA:00:FC:D3
            X509v3 Authority Key Identifier: 
                keyid:2A:A9:CA:EF:18:15:3E:D3:AC:C4:EC:2D:A1:3C:8F:19:F8:EE:51:B5

            Authority Information Access: 
                CA Issuers - URI:http://url-for-aia/Root.cer

            X509v3 CRL Distribution Points: 

                Full Name:
                  URI:http://url-for-crl/Root.crl

            X509v3 Key Usage: critical
                Certificate Sign, CRL Sign
            X509v3 Basic Constraints: critical
                CA:TRUE
    Signature Algorithm: sha256WithRSAEncryption
         90:f2:4f:48:f2:b7:73:1e:7b:1e:33:f3:4b:24:63:83:08:03:
         c6:ad:85:9b:b3:22:21:ad:28:c3:29:8f:ec:4f:ba:a7:29:93:
         62:80:04:8c:9a:50:44:d3:88:07:f5:98:db:04:96:8c:ee:a1:
         4a:64:cf:93:23:e4:be:d7:69:18:df:f3:47:6d:e8:0f:26:08:
         7e:d1:8e:6d:3a:21:63:55:c4:b0:ed:05:63:72:0c:91:48:b2:
         44:81:43:52:dc:f5:98:bf:cd:5f:fb:31:b5:16:eb:ad:ff:09:
         a5:7f:ab:41:7f:5f:43:83:ad:b7:94:1a:39:6e:aa:b1:6f:9b:
         4e:65:d2:75:b6:3a:a4:cc:26:4c:8f:ec:69:56:06:70:81:38:
         24:8d:02:85:63:1a:e6:da:91:1b:1a:69:84:39:6f:a1:07:d8:
         7d:db:f3:f4:fe:83:44:42:f8:09:0d:e1:fe:90:88:96:35:83:
         d8:a7:89:de:48:09:6d:fc:4f:b8:3a:6d:a0:da:48:dd:5e:b6:
         c0:c5:6b:15:23:6d:5e:4b:d7:07:3e:01:7b:58:c5:aa:a9:eb:
         5f:cb:71:fc:5c:f8:a4:fa:e3:73:19:c7:b5:d3:cf:3d:be:f7:
         ab:99:a7:dc:6a:b1:9a:b3:cd:4a:bb:c9:ca:f3:5f:c8:9b:f7:
         31:4e:e2:c4
-----BEGIN CERTIFICATE-----
MIIDgTCCAmmgAwIBAgIUGMu1r1JdQIbROTDl/hooZTPgN6kwDQYJKoZIhvcNAQEL
BQAwDzENMAsGA1UEAwwEUm9vdDAeFw0yMDExMDMxMjAwMDBaFw0yMTExMDMxMjAw
MDBaMBgxFjAUBgNVBAMMDUludGVybWVkaWF0ZTEwggEiMA0GCSqGSIb3DQEBAQUA
A4IBDwAwggEKAoIBAQDBNztD9YA6b4iUoeoYO1Z7vE0+szzcmUqqEQw+le7tdidb
pYFZc2ncM9ogNUgArD5DXt8QF9jT6RHaAHLn00JU8ZM5Cxh6DGlNElBzDPZPRI1f
wGKJ5fBjeBuSuyNnj3ex0z+xZ95rqg9zw9PyaYR+4wQ0JWkjEyOSTdUIVX13uEKW
/fcJNSBKv449FpyTXYGi7Z20s0MGdPJ58SbYGrg8NebN1jZ5XC0/Pt8cCOlaesvk
56pU236WOKAMOWVoiDqgBVp57o7dlgiGjT55sX4ovQ+aJvXejGx62Od5xJpINSYs
rBzO1H+konXjJw8P3lq6elnH79g5jXSB/DemsbdNAgMBAAGjgcswgcgwHQYDVR0O
BBYEFKerMEG8u8zTfCEGysRxhP/6APzTMB8GA1UdIwQYMBaAFCqpyu8YFT7TrMTs
LaE8jxn47lG1MDcGCCsGAQUFBwEBBCswKTAnBggrBgEFBQcwAoYbaHR0cDovL3Vy
bC1mb3ItYWlhL1Jvb3QuY2VyMCwGA1UdHwQlMCMwIaAfoB2GG2h0dHA6Ly91cmwt
Zm9yLWNybC9Sb290LmNybDAOBgNVHQ8BAf8EBAMCAQYwDwYDVR0TAQH/BAUwAwEB
/zANBgkqhkiG9w0BAQsFAAOCAQEAkPJPSPK3cx57HjPzSyRjgwgDxq2Fm7MiIa0o
wymP7E+6pymTYoAEjJpQRNOIB/WY2wSWjO6hSmTPkyPkvtdpGN/zR23oDyYIftGO
bTohY1XEsO0FY3IMkUiyRIFDUtz1mL/NX/sxtRbrrf8JpX+rQX9fQ4Ott5QaOW6q
sW+bTmXSdbY6pMwmTI/saVYGcIE4JI0ChWMa5tqRGxpphDlvoQfYfdvz9P6DREL4
CQ3h/pCIljWD2KeJ3kgJbfxPuDptoNpI3V62wMVrFSNtXkvXBz4Be1jFqqnrX8tx
/Fz4pPrjcxnHtdPPPb73q5mn3GqxmrPNSrvJyvNfyJv3MU7ixA==
-----END CERTIFICATE-----

Certificate:
    Data:
        Version: 3 (0x2)
        Serial Number:
            18:cb:b5:af:52:5d:40:86:d1:39:30:e5:fe:1a:28:65:33:e0:37:a8
        Signature Algorithm: sha256WithRSAEncryption
        Issuer: CN=Root
        Validity
            Not Before: Nov  3 12:00:00 2020 GMT
            Not After : Nov  3 12:00:00 2021 GMT
        Subject: CN=Root
        Subject Public Key Info:
            Public Key Algorithm: rsaEncryption
                RSA Public-Key: (2048 bit)
                Modulus:
                    00:b6:f5:2f:2d:0b:bf:09:20:92:56:ed:6f:1b:b3:
                    4e:2c:7b:1b:7d:8e:97:f1:ee:95:bf:2e:b7:63:de:
                    9c:5b:35:3e:c1:5b:78:1e:6c:fd:94:fe:23:7d:6c:
                    28:bf:da:ac:d4:47:58:b4:ba:00:9e:aa:ce:23:44:
                    c6:a3:84:7a:5b:53:99:bc:20:f7:f9:76:10:1c:3d:
                    c4:45:af:b4:55:7f:03:26:54:6f:92:15:3c:e1:ea:
                    3d:00:c7:02:fb:ce:59:f9:5c:21:17:b2:18:9c:b8:
                    d2:d5:36:56:8d:7c:24:a0:76:66:7e:2e:18:88:d0:
                    ae:18:d8:65:98:56:33:0a:50:e8:28:eb:a9:fe:7e:
                    2e:b7:c7:39:93:61:2c:6b:04:80:fa:5b:c3:b5:3f:
                    82:b3:81:b3:92:2a:0a:ab:b0:1c:0d:3b:88:63:5e:
                    19:dd:bd:c4:0a:43:b6:a2:f8:c9:e7:86:33:7e:4a:
                    b4:8b:1d:87:24:a4:67:6a:1d:32:41:a9:73:74:05:
                    dd:09:34:b9:42:63:fd:2c:bc:53:6e:06:51:f4:9f:
                    eb:b0:8d:0f:ec:9c:4b:61:6e:18:e0:d0:e4:03:34:
                    34:66:1c:7c:33:64:f7:4d:4f:89:2d:a9:c3:b5:43:
                    08:82:df:ad:0b:03:0d:20:6b:cf:27:81:cb:a7:53:
                    7d:13
                Exponent: 65537 (0x10001)
        X509v3 extensions:
            X509v3 Subject Key Identifier: 
                2A:A9:CA:EF:18:15:3E:D3:AC:C4:EC:2D:A1:3C:8F:19:F8:EE:51:B5
            X509v3 Authority Key Identifier: 
                keyid:2A:A9:CA:EF:18:15:3E:D3:AC:C4:EC:2D:A1:3C:8F:19:F8:EE:51:B5

            Authority Information Access: 
                CA Issuers - URI:http://url-for-aia/Root.cer

            X509v3 CRL Distribution Points: 

                Full Name:
                  URI:http://url-for-crl/Root.crl

            X509v3 Key Usage: critical
                Certificate Sign, CRL Sign
            X509v3 Basic Constraints: critical
                CA:TRUE, pathlen:1
    Signature Algorithm: sha256WithRSAEncryption
         48:c7:2f:b5:6a:66:09:65:d5:5c:df:8f:56:73:73:ed:3a:4e:
         57:42:07:ef:6d:b6:77:54:9e:d7:ad:4c:9e:2a:4b:b3:52:a6:
         b1:12:6a:17:77:d4:52:ef:1b:43:03:ec:ea:73:54:7d:7c:33:
         60:3a:f3:95:dc:ea:9f:5f:78:87:7a:03:56:f5:a6:31:39:30:
         ef:81:fa:da:e4:6e:44:dc:7f:77:86:13:98:96:5c:25:39:14:
         a4:e4:99:30:55:bc:8b:bf:29:fb:13:c7:94:42:74:c4:bc:54:
         5e:86:62:70:b0:93:4d:04:49:7b:60:b8:0b:25:fe:b6:a9:c2:
         28:76:2c:63:7e:02:f2:89:da:b8:90:e8:e3:fc:59:b2:62:f8:
         24:0b:70:92:76:2d:27:f5:35:c4:c6:de:81:1b:df:44:89:f5:
         98:90:9a:3b:e7:a0:48:c7:2c:34:a6:c5:8e:8f:8d:0d:6d:5e:
         0e:df:50:8b:bb:68:ae:ae:74:ed:6d:f5:92:01:c1:95:95:72:
         4b:93:a4:6c:46:99:f1:7e:c8:8e:ba:a8:d2:bd:6a:fa:09:d4:
         5b:52:be:08:6f:de:6b:9f:3a:85:25:6b:39:68:2f:4d:14:6d:
         80:8c:5e:6e:f6:13:ca:02:e8:0b:f8:81:4d:d8:f5:d8:d8:78:
         18:51:f4:77
-----BEGIN CERTIFICATE-----
MIIDezCCAmOgAwIBAgIUGMu1r1JdQIbROTDl/hooZTPgN6gwDQYJKoZIhvcNAQEL
BQAwDzENMAsGA1UEAwwEUm9vdDAeFw0yMDExMDMxMjAwMDBaFw0yMTExMDMxMjAw
MDBaMA8xDTALBgNVBAMMBFJvb3QwggEiMA0GCSqGSIb3DQEBAQUAA4IBDwAwggEK
AoIBAQC29S8tC78JIJJW7W8bs04sext9jpfx7pW/Lrdj3pxbNT7BW3gebP2U/iN9
bCi/2qzUR1i0ugCeqs4jRMajhHpbU5m8IPf5dhAcPcRFr7RVfwMmVG+SFTzh6j0A
xwL7zln5XCEXshicuNLVNlaNfCSgdmZ+LhiI0K4Y2GWYVjMKUOgo66n+fi63xzmT
YSxrBID6W8O1P4KzgbOSKgqrsBwNO4hjXhndvcQKQ7ai+MnnhjN+SrSLHYckpGdq
HTJBqXN0Bd0JNLlCY/0svFNuBlH0n+uwjQ/snEthbhjg0OQDNDRmHHwzZPdNT4kt
qcO1QwiC360LAw0ga88ngcunU30TAgMBAAGjgc4wgcswHQYDVR0OBBYEFCqpyu8Y
FT7TrMTsLaE8jxn47lG1MB8GA1UdIwQYMBaAFCqpyu8YFT7TrMTsLaE8jxn47lG1
MDcGCCsGAQUFBwEBBCswKTAnBggrBgEFBQcwAoYbaHR0cDovL3VybC1mb3ItYWlh
L1Jvb3QuY2VyMCwGA1UdHwQlMCMwIaAfoB2GG2h0dHA6Ly91cmwtZm9yLWNybC9S
b290LmNybDAOBgNVHQ8BAf8EBAMCAQYwEgYDVR0TAQH/BAgwBgEB/wIBATANBgkq
hkiG9w0BAQsFAAOCAQEASMcvtWpmCWXVXN+PVnNz7TpOV0IH7222d1Se161MnipL
s1KmsRJqF3fUUu8bQwPs6nNUfXwzYDrzldzqn194h3oDVvWmMTkw74H62uRuRNx/
d4YTmJZcJTkUpOSZMFW8i78p+xPHlEJ0xLxUXoZicLCTTQRJe2C4CyX+tqnCKHYs
Y34C8onauJDo4/xZsmL4JAtwknYtJ/U1xMbegRvfRIn1mJCaO+egSMcsNKbFjo+N
DW1eDt9Qi7torq507W31kgHBlZVyS5OkbEaZ8X7Ijrqo0r1q+gnUW1K+CG/ea586
hSVrOWgvTRRtgIxebvYTygLoC/iBTdj12Nh4GFH0dw==
-----END CERTIFICATE-----
