[Created by: generate-chains.py]

Certificate chain with 2 intermediates and one end entity certificate. The
root certificate has a pathlen:1 restriction. Ordinarily this would be an
invalid chain, however constraints on this trust anchor are not enforced.

Certificate:
    Data:
        Version: 3 (0x2)
        Serial Number:
            6f:b6:20:7f:8e:28:e1:ab:46:5c:ea:21:e3:04:e6:9e:26:6c:cd:7a
        Signature Algorithm: sha256WithRSAEncryption
        Issuer: CN=Intermediate2
        Validity
            Not Before: Oct  5 12:00:00 2022 GMT
            Not After : Oct  5 12:00:00 2023 GMT
        Subject: CN=Target
        Subject Public Key Info:
            Public Key Algorithm: rsaEncryption
                Public-Key: (2048 bit)
                Modulus:
                    00:9d:b0:80:41:9a:d5:31:ea:d0:f6:46:1d:cd:f5:
                    e0:b8:d1:d4:21:fa:7b:01:03:9a:2a:dc:f0:f1:91:
                    75:4e:57:cb:b6:d2:03:4d:49:16:cf:85:87:a7:e8:
                    b5:de:55:67:d1:9f:1a:2a:19:2c:00:91:00:81:c4:
                    92:cc:03:be:c1:f2:c5:72:39:94:b6:1e:5f:4a:70:
                    83:7d:5a:05:2d:02:a7:84:25:2a:da:11:c4:d4:e8:
                    7f:1a:fb:88:6b:52:f9:8c:c9:c7:99:21:75:35:c3:
                    84:a0:a1:b1:32:6e:1f:e4:b4:bc:21:5b:e4:7b:e0:
                    85:06:3d:bf:fb:c0:92:66:1e:53:ff:d0:16:3b:a5:
                    7c:32:07:10:54:b7:98:3d:70:2f:fc:ee:54:3e:74:
                    a8:ec:4b:45:11:e5:08:d1:54:2b:a9:78:83:bc:55:
                    92:3e:71:e4:ba:ac:67:28:f2:4d:3e:8c:8f:26:88:
                    02:fc:04:82:a9:88:bf:c7:95:4d:8c:d5:0e:17:2d:
                    ea:90:ad:6e:e4:7e:76:89:c6:0d:f4:5a:35:1a:72:
                    d4:91:38:50:cc:f3:1b:05:ff:80:d3:b2:e9:0a:5d:
                    8a:9f:b8:b2:2a:20:a8:76:b5:41:1b:80:33:7c:79:
                    12:fa:ff:36:df:61:22:c5:fa:27:4a:88:75:a8:f5:
                    5d:49
                Exponent: 65537 (0x10001)
        X509v3 extensions:
            X509v3 Subject Key Identifier: 
                ED:D0:2C:C2:73:F7:C3:03:A2:08:6E:44:C9:E5:97:16:A5:B9:C9:EC
            X509v3 Authority Key Identifier: 
                48:81:22:AA:57:F7:0B:70:A7:D6:32:4B:AA:85:CD:7C:F2:85:30:2B
            Authority Information Access: 
                CA Issuers - URI:http://url-for-aia/Intermediate2.cer
            X509v3 CRL Distribution Points: 
                Full Name:
                  URI:http://url-for-crl/Intermediate2.crl
            X509v3 Key Usage: critical
                Digital Signature, Key Encipherment
            X509v3 Extended Key Usage: 
                TLS Web Server Authentication, TLS Web Client Authentication
    Signature Algorithm: sha256WithRSAEncryption
    Signature Value:
        71:04:2a:1b:c8:bf:cc:c9:0c:90:28:7b:98:0c:9f:0b:98:c6:
        b8:ac:72:a1:e4:87:1e:37:57:ab:59:f0:76:df:68:30:96:e6:
        8d:3b:5c:70:00:1d:97:05:11:29:ee:68:14:06:88:49:49:4e:
        9e:8e:97:32:c4:63:b3:aa:6e:b1:d9:b6:28:bc:09:76:e7:1a:
        79:d5:dc:22:08:9a:dc:cd:26:1d:78:67:cc:3a:08:71:03:91:
        2c:7b:12:c9:b8:45:cd:0b:0b:7f:04:9c:6c:5b:04:0d:2c:a5:
        ab:36:01:f4:3c:d2:9e:ff:d2:29:e6:bc:89:36:e0:23:84:bb:
        10:04:7b:56:10:9b:48:f8:e5:11:88:8d:f3:a8:79:cb:d5:f4:
        03:d1:b2:6c:e3:18:a7:ca:27:2b:d0:8b:57:c2:69:98:5a:92:
        e6:1a:de:53:53:b2:fd:64:cb:d1:c4:31:ba:03:a1:52:78:3f:
        3e:03:fe:87:28:7d:09:87:f8:7f:4d:a3:eb:b7:7c:de:e3:c8:
        ec:3d:c6:dc:b3:82:ba:f6:aa:00:77:72:78:6b:45:81:ce:2a:
        b1:23:81:0c:8a:a5:04:c2:9b:22:e8:dc:ec:28:b5:9a:da:58:
        bb:ab:ab:ec:8d:1d:27:32:7e:dc:a8:6a:23:a3:0a:74:d8:19:
        c3:29:50:b7
-----BEGIN CERTIFICATE-----
MIIDozCCAougAwIBAgIUb7Ygf44o4atGXOoh4wTmniZszXowDQYJKoZIhvcNAQEL
BQAwGDEWMBQGA1UEAwwNSW50ZXJtZWRpYXRlMjAeFw0yMjEwMDUxMjAwMDBaFw0y
MzEwMDUxMjAwMDBaMBExDzANBgNVBAMMBlRhcmdldDCCASIwDQYJKoZIhvcNAQEB
BQADggEPADCCAQoCggEBAJ2wgEGa1THq0PZGHc314LjR1CH6ewEDmirc8PGRdU5X
y7bSA01JFs+Fh6fotd5VZ9GfGioZLACRAIHEkswDvsHyxXI5lLYeX0pwg31aBS0C
p4QlKtoRxNTofxr7iGtS+YzJx5khdTXDhKChsTJuH+S0vCFb5HvghQY9v/vAkmYe
U//QFjulfDIHEFS3mD1wL/zuVD50qOxLRRHlCNFUK6l4g7xVkj5x5LqsZyjyTT6M
jyaIAvwEgqmIv8eVTYzVDhct6pCtbuR+donGDfRaNRpy1JE4UMzzGwX/gNOy6Qpd
ip+4siogqHa1QRuAM3x5Evr/Nt9hIsX6J0qIdaj1XUkCAwEAAaOB6zCB6DAdBgNV
HQ4EFgQU7dAswnP3wwOiCG5EyeWXFqW5yewwHwYDVR0jBBgwFoAUSIEiqlf3C3Cn
1jJLqoXNfPKFMCswQAYIKwYBBQUHAQEENDAyMDAGCCsGAQUFBzAChiRodHRwOi8v
dXJsLWZvci1haWEvSW50ZXJtZWRpYXRlMi5jZXIwNQYDVR0fBC4wLDAqoCigJoYk
aHR0cDovL3VybC1mb3ItY3JsL0ludGVybWVkaWF0ZTIuY3JsMA4GA1UdDwEB/wQE
AwIFoDAdBgNVHSUEFjAUBggrBgEFBQcDAQYIKwYBBQUHAwIwDQYJKoZIhvcNAQEL
BQADggEBAHEEKhvIv8zJDJAoe5gMnwuYxriscqHkhx43V6tZ8HbfaDCW5o07XHAA
HZcFESnuaBQGiElJTp6OlzLEY7OqbrHZtii8CXbnGnnV3CIImtzNJh14Z8w6CHED
kSx7Esm4Rc0LC38EnGxbBA0spas2AfQ80p7/0inmvIk24COEuxAEe1YQm0j45RGI
jfOoecvV9APRsmzjGKfKJyvQi1fCaZhakuYa3lNTsv1ky9HEMboDoVJ4Pz4D/oco
fQmH+H9No+u3fN7jyOw9xtyzgrr2qgB3cnhrRYHOKrEjgQyKpQTCmyLo3OwotZra
WLurq+yNHScyftyoaiOjCnTYGcMpULc=
-----END CERTIFICATE-----

Certificate:
    Data:
        Version: 3 (0x2)
        Serial Number:
            6b:9a:a5:a2:a4:4b:4d:13:90:3b:56:a2:99:01:90:63:01:79:c0:69
        Signature Algorithm: sha256WithRSAEncryption
        Issuer: CN=Intermediate1
        Validity
            Not Before: Oct  5 12:00:00 2022 GMT
            Not After : Oct  5 12:00:00 2023 GMT
        Subject: CN=Intermediate2
        Subject Public Key Info:
            Public Key Algorithm: rsaEncryption
                Public-Key: (2048 bit)
                Modulus:
                    00:b9:41:a3:79:b8:9d:70:a4:25:58:5b:47:07:ad:
                    0a:23:3e:36:c4:44:c3:27:bb:cd:ab:c8:1b:4e:b8:
                    ba:d7:33:af:4a:59:74:cb:c1:5f:8c:8f:b6:0d:89:
                    ad:43:1f:3c:f4:64:11:0a:dc:ec:65:6d:85:5c:97:
                    7e:8d:79:4d:bf:2c:bc:7e:31:59:bc:b7:cb:1c:8b:
                    9a:10:ae:12:ed:93:50:72:66:45:c0:af:be:e7:e2:
                    0a:cd:b4:60:f8:03:3e:6a:e2:ca:ff:75:52:20:73:
                    d3:2b:af:72:91:1b:ee:31:ea:74:9b:a0:aa:b2:3a:
                    84:96:f3:00:65:a4:a7:21:e0:b1:96:d2:32:45:c6:
                    bd:6e:17:67:74:34:89:71:a8:2e:18:6b:12:1f:f1:
                    97:07:10:61:b2:c2:38:ac:44:97:e4:fb:99:33:4b:
                    7d:60:52:86:44:d4:df:91:0b:2d:04:37:b5:7e:5c:
                    fa:3d:46:9e:cf:0b:4f:1a:43:d9:9a:68:56:47:b5:
                    f0:68:80:67:a0:e4:d9:e2:25:d4:ff:3c:1a:b3:e0:
                    5f:d5:44:ec:d5:1b:e0:b2:be:fd:d1:26:89:25:4a:
                    18:4a:ca:44:d0:94:74:cb:a8:39:75:64:5a:19:21:
                    d1:4c:d9:b2:13:f0:d1:4f:6f:45:02:b7:3e:6e:10:
                    fe:5f
                Exponent: 65537 (0x10001)
        X509v3 extensions:
            X509v3 Subject Key Identifier: 
                48:81:22:AA:57:F7:0B:70:A7:D6:32:4B:AA:85:CD:7C:F2:85:30:2B
            X509v3 Authority Key Identifier: 
                A7:AB:30:41:BC:BB:CC:D3:7C:21:06:CA:C4:71:84:FF:FA:00:FC:D3
            Authority Information Access: 
                CA Issuers - URI:http://url-for-aia/Intermediate1.cer
            X509v3 CRL Distribution Points: 
                Full Name:
                  URI:http://url-for-crl/Intermediate1.crl
            X509v3 Key Usage: critical
                Certificate Sign, CRL Sign
            X509v3 Basic Constraints: critical
                CA:TRUE
    Signature Algorithm: sha256WithRSAEncryption
    Signature Value:
        74:91:a9:6d:12:fe:40:4b:2c:1a:b5:6c:2e:54:bc:97:ed:b7:
        53:60:c9:fb:66:4e:fc:60:79:ae:85:fe:1b:8d:e0:89:86:e0:
        63:bf:68:33:f2:f7:f0:18:a9:e8:39:ae:7d:b9:9c:ff:57:7f:
        76:89:0a:2c:88:21:23:f6:36:73:c8:e3:1c:6b:e7:00:95:e2:
        ad:8d:bb:ca:24:39:4c:66:25:20:5a:7f:3e:31:cc:50:38:3a:
        7c:90:83:f7:d4:9a:3c:6c:1d:ae:7d:c0:56:2f:98:f0:82:b8:
        cb:2f:63:97:4b:99:b8:d6:01:21:55:81:c2:3d:74:cf:60:49:
        77:53:13:d6:da:e0:6a:9b:3a:0f:08:a7:65:56:ba:75:10:ca:
        e7:39:e8:cd:a3:73:e6:7a:10:a6:9b:8c:5c:05:45:6d:ee:8c:
        23:57:16:fe:53:77:5a:97:a2:3b:f3:3a:06:c2:60:e5:f3:ae:
        32:73:7a:61:ec:fc:13:6e:b9:ac:a7:8c:72:2e:1f:30:8a:dd:
        86:00:5d:1a:8a:ff:f8:ba:f7:02:f1:dd:4c:f2:08:fb:0f:27:
        e4:15:b9:95:97:77:a5:10:96:c2:41:7b:92:88:a3:46:11:9d:
        4a:74:cb:1a:fc:ca:93:24:ca:0d:47:4d:94:44:36:08:fa:d8:
        ea:f0:99:31
-----BEGIN CERTIFICATE-----
MIIDnDCCAoSgAwIBAgIUa5qloqRLTROQO1aimQGQYwF5wGkwDQYJKoZIhvcNAQEL
BQAwGDEWMBQGA1UEAwwNSW50ZXJtZWRpYXRlMTAeFw0yMjEwMDUxMjAwMDBaFw0y
MzEwMDUxMjAwMDBaMBgxFjAUBgNVBAMMDUludGVybWVkaWF0ZTIwggEiMA0GCSqG
SIb3DQEBAQUAA4IBDwAwggEKAoIBAQC5QaN5uJ1wpCVYW0cHrQojPjbERMMnu82r
yBtOuLrXM69KWXTLwV+Mj7YNia1DHzz0ZBEK3OxlbYVcl36NeU2/LLx+MVm8t8sc
i5oQrhLtk1ByZkXAr77n4grNtGD4Az5q4sr/dVIgc9Mrr3KRG+4x6nSboKqyOoSW
8wBlpKch4LGW0jJFxr1uF2d0NIlxqC4YaxIf8ZcHEGGywjisRJfk+5kzS31gUoZE
1N+RCy0EN7V+XPo9Rp7PC08aQ9maaFZHtfBogGeg5NniJdT/PBqz4F/VROzVG+Cy
vv3RJoklShhKykTQlHTLqDl1ZFoZIdFM2bIT8NFPb0UCtz5uEP5fAgMBAAGjgd0w
gdowHQYDVR0OBBYEFEiBIqpX9wtwp9YyS6qFzXzyhTArMB8GA1UdIwQYMBaAFKer
MEG8u8zTfCEGysRxhP/6APzTMEAGCCsGAQUFBwEBBDQwMjAwBggrBgEFBQcwAoYk
aHR0cDovL3VybC1mb3ItYWlhL0ludGVybWVkaWF0ZTEuY2VyMDUGA1UdHwQuMCww
KqAooCaGJGh0dHA6Ly91cmwtZm9yLWNybC9JbnRlcm1lZGlhdGUxLmNybDAOBgNV
HQ8BAf8EBAMCAQYwDwYDVR0TAQH/BAUwAwEB/zANBgkqhkiG9w0BAQsFAAOCAQEA
dJGpbRL+QEssGrVsLlS8l+23U2DJ+2ZO/GB5roX+G43giYbgY79oM/L38Bip6Dmu
fbmc/1d/dokKLIghI/Y2c8jjHGvnAJXirY27yiQ5TGYlIFp/PjHMUDg6fJCD99Sa
PGwdrn3AVi+Y8IK4yy9jl0uZuNYBIVWBwj10z2BJd1MT1trgaps6DwinZVa6dRDK
5znozaNz5noQppuMXAVFbe6MI1cW/lN3WpeiO/M6BsJg5fOuMnN6Yez8E265rKeM
ci4fMIrdhgBdGor/+Lr3AvHdTPII+w8n5BW5lZd3pRCWwkF7koijRhGdSnTLGvzK
kyTKDUdNlEQ2CPrY6vCZMQ==
-----END CERTIFICATE-----

Certificate:
    Data:
        Version: 3 (0x2)
        Serial Number:
            18:cb:b5:af:52:5d:40:86:d1:39:30:e5:fe:1a:28:65:33:e0:37:a9
        Signature Algorithm: sha256WithRSAEncryption
        Issuer: CN=Root
        Validity
            Not Before: Oct  5 12:00:00 2022 GMT
            Not After : Oct  5 12:00:00 2023 GMT
        Subject: CN=Intermediate1
        Subject Public Key Info:
            Public Key Algorithm: rsaEncryption
                Public-Key: (2048 bit)
                Modulus:
                    00:c1:37:3b:43:f5:80:3a:6f:88:94:a1:ea:18:3b:
                    56:7b:bc:4d:3e:b3:3c:dc:99:4a:aa:11:0c:3e:95:
                    ee:ed:76:27:5b:a5:81:59:73:69:dc:33:da:20:35:
                    48:00:ac:3e:43:5e:df:10:17:d8:d3:e9:11:da:00:
                    72:e7:d3:42:54:f1:93:39:0b:18:7a:0c:69:4d:12:
                    50:73:0c:f6:4f:44:8d:5f:c0:62:89:e5:f0:63:78:
                    1b:92:bb:23:67:8f:77:b1:d3:3f:b1:67:de:6b:aa:
                    0f:73:c3:d3:f2:69:84:7e:e3:04:34:25:69:23:13:
                    23:92:4d:d5:08:55:7d:77:b8:42:96:fd:f7:09:35:
                    20:4a:bf:8e:3d:16:9c:93:5d:81:a2:ed:9d:b4:b3:
                    43:06:74:f2:79:f1:26:d8:1a:b8:3c:35:e6:cd:d6:
                    36:79:5c:2d:3f:3e:df:1c:08:e9:5a:7a:cb:e4:e7:
                    aa:54:db:7e:96:38:a0:0c:39:65:68:88:3a:a0:05:
                    5a:79:ee:8e:dd:96:08:86:8d:3e:79:b1:7e:28:bd:
                    0f:9a:26:f5:de:8c:6c:7a:d8:e7:79:c4:9a:48:35:
                    26:2c:ac:1c:ce:d4:7f:a4:a2:75:e3:27:0f:0f:de:
                    5a:ba:7a:59:c7:ef:d8:39:8d:74:81:fc:37:a6:b1:
                    b7:4d
                Exponent: 65537 (0x10001)
        X509v3 extensions:
            X509v3 Subject Key Identifier: 
                A7:AB:30:41:BC:BB:CC:D3:7C:21:06:CA:C4:71:84:FF:FA:00:FC:D3
            X509v3 Authority Key Identifier: 
                2A:A9:CA:EF:18:15:3E:D3:AC:C4:EC:2D:A1:3C:8F:19:F8:EE:51:B5
            Authority Information Access: 
                CA Issuers - URI:http://url-for-aia/Root.cer
            X509v3 CRL Distribution Points: 
                Full Name:
                  URI:http://url-for-crl/Root.crl
            X509v3 Key Usage: critical
                Certificate Sign, CRL Sign
            X509v3 Basic Constraints: critical
                CA:TRUE
    Signature Algorithm: sha256WithRSAEncryption
    Signature Value:
        8b:93:d2:56:35:b1:2e:27:6c:95:46:c1:82:c8:74:16:ec:25:
        a3:26:03:10:1e:50:fe:f6:2f:2b:bc:05:5c:32:70:8e:fc:39:
        2d:4e:ee:2f:40:6a:76:94:85:cf:06:9f:e3:1f:eb:29:f2:4b:
        fe:32:b7:7b:4a:32:15:f2:a3:6f:0d:e6:2e:ea:63:68:68:c2:
        33:21:24:42:c1:15:47:06:0c:c3:aa:3f:a2:71:bc:b8:60:e3:
        6f:66:f6:6e:07:1b:9f:17:76:62:6e:6b:c1:61:84:2e:c3:c5:
        f4:a7:bb:8d:dc:18:e4:b9:6b:c5:e7:aa:08:14:0d:56:cb:09:
        b4:a1:e1:88:a5:d3:8d:9d:4f:55:77:7d:56:72:dc:e3:a1:b9:
        3a:6e:45:bf:b6:84:66:56:56:0b:82:16:d2:a9:10:92:71:09:
        a5:00:c9:08:5f:c4:d2:d7:41:49:77:f7:6b:78:de:05:65:1a:
        f7:39:c1:d5:bc:ea:dd:d7:8a:cf:15:ac:c3:ea:88:9e:b3:c0:
        5f:77:90:44:4e:38:fa:6e:be:8a:a1:1e:61:2e:47:d1:82:35:
        d6:e1:8b:4d:1a:2a:3b:42:45:bd:d6:0d:42:84:08:1a:5f:06:
        7b:68:02:a4:94:0d:6b:d5:15:ea:3e:17:07:f2:ee:80:9f:dc:
        27:03:d4:c2
-----BEGIN CERTIFICATE-----
MIIDgTCCAmmgAwIBAgIUGMu1r1JdQIbROTDl/hooZTPgN6kwDQYJKoZIhvcNAQEL
BQAwDzENMAsGA1UEAwwEUm9vdDAeFw0yMjEwMDUxMjAwMDBaFw0yMzEwMDUxMjAw
MDBaMBgxFjAUBgNVBAMMDUludGVybWVkaWF0ZTEwggEiMA0GCSqGSIb3DQEBAQUA
A4IBDwAwggEKAoIBAQDBNztD9YA6b4iUoeoYO1Z7vE0+szzcmUqqEQw+le7tdidb
pYFZc2ncM9ogNUgArD5DXt8QF9jT6RHaAHLn00JU8ZM5Cxh6DGlNElBzDPZPRI1f
wGKJ5fBjeBuSuyNnj3ex0z+xZ95rqg9zw9PyaYR+4wQ0JWkjEyOSTdUIVX13uEKW
/fcJNSBKv449FpyTXYGi7Z20s0MGdPJ58SbYGrg8NebN1jZ5XC0/Pt8cCOlaesvk
56pU236WOKAMOWVoiDqgBVp57o7dlgiGjT55sX4ovQ+aJvXejGx62Od5xJpINSYs
rBzO1H+konXjJw8P3lq6elnH79g5jXSB/DemsbdNAgMBAAGjgcswgcgwHQYDVR0O
BBYEFKerMEG8u8zTfCEGysRxhP/6APzTMB8GA1UdIwQYMBaAFCqpyu8YFT7TrMTs
LaE8jxn47lG1MDcGCCsGAQUFBwEBBCswKTAnBggrBgEFBQcwAoYbaHR0cDovL3Vy
bC1mb3ItYWlhL1Jvb3QuY2VyMCwGA1UdHwQlMCMwIaAfoB2GG2h0dHA6Ly91cmwt
Zm9yLWNybC9Sb290LmNybDAOBgNVHQ8BAf8EBAMCAQYwDwYDVR0TAQH/BAUwAwEB
/zANBgkqhkiG9w0BAQsFAAOCAQEAi5PSVjWxLidslUbBgsh0FuwloyYDEB5Q/vYv
K7wFXDJwjvw5LU7uL0BqdpSFzwaf4x/rKfJL/jK3e0oyFfKjbw3mLupjaGjCMyEk
QsEVRwYMw6o/onG8uGDjb2b2bgcbnxd2Ym5rwWGELsPF9Ke7jdwY5LlrxeeqCBQN
VssJtKHhiKXTjZ1PVXd9VnLc46G5Om5Fv7aEZlZWC4IW0qkQknEJpQDJCF/E0tdB
SXf3a3jeBWUa9znB1bzq3deKzxWsw+qInrPAX3eQRE44+m6+iqEeYS5H0YI11uGL
TRoqO0JFvdYNQoQIGl8Ge2gCpJQNa9UV6j4XB/LugJ/cJwPUwg==
-----END CERTIFICATE-----

Certificate:
    Data:
        Version: 3 (0x2)
        Serial Number:
            18:cb:b5:af:52:5d:40:86:d1:39:30:e5:fe:1a:28:65:33:e0:37:a8
        Signature Algorithm: sha256WithRSAEncryption
        Issuer: CN=Root
        Validity
            Not Before: Oct  5 12:00:00 2022 GMT
            Not After : Oct  5 12:00:00 2023 GMT
        Subject: CN=Root
        Subject Public Key Info:
            Public Key Algorithm: rsaEncryption
                Public-Key: (2048 bit)
                Modulus:
                    00:b6:f5:2f:2d:0b:bf:09:20:92:56:ed:6f:1b:b3:
                    4e:2c:7b:1b:7d:8e:97:f1:ee:95:bf:2e:b7:63:de:
                    9c:5b:35:3e:c1:5b:78:1e:6c:fd:94:fe:23:7d:6c:
                    28:bf:da:ac:d4:47:58:b4:ba:00:9e:aa:ce:23:44:
                    c6:a3:84:7a:5b:53:99:bc:20:f7:f9:76:10:1c:3d:
                    c4:45:af:b4:55:7f:03:26:54:6f:92:15:3c:e1:ea:
                    3d:00:c7:02:fb:ce:59:f9:5c:21:17:b2:18:9c:b8:
                    d2:d5:36:56:8d:7c:24:a0:76:66:7e:2e:18:88:d0:
                    ae:18:d8:65:98:56:33:0a:50:e8:28:eb:a9:fe:7e:
                    2e:b7:c7:39:93:61:2c:6b:04:80:fa:5b:c3:b5:3f:
                    82:b3:81:b3:92:2a:0a:ab:b0:1c:0d:3b:88:63:5e:
                    19:dd:bd:c4:0a:43:b6:a2:f8:c9:e7:86:33:7e:4a:
                    b4:8b:1d:87:24:a4:67:6a:1d:32:41:a9:73:74:05:
                    dd:09:34:b9:42:63:fd:2c:bc:53:6e:06:51:f4:9f:
                    eb:b0:8d:0f:ec:9c:4b:61:6e:18:e0:d0:e4:03:34:
                    34:66:1c:7c:33:64:f7:4d:4f:89:2d:a9:c3:b5:43:
                    08:82:df:ad:0b:03:0d:20:6b:cf:27:81:cb:a7:53:
                    7d:13
                Exponent: 65537 (0x10001)
        X509v3 extensions:
            X509v3 Subject Key Identifier: 
                2A:A9:CA:EF:18:15:3E:D3:AC:C4:EC:2D:A1:3C:8F:19:F8:EE:51:B5
            X509v3 Authority Key Identifier: 
                2A:A9:CA:EF:18:15:3E:D3:AC:C4:EC:2D:A1:3C:8F:19:F8:EE:51:B5
            Authority Information Access: 
                CA Issuers - URI:http://url-for-aia/Root.cer
            X509v3 CRL Distribution Points: 
                Full Name:
                  URI:http://url-for-crl/Root.crl
            X509v3 Key Usage: critical
                Certificate Sign, CRL Sign
            X509v3 Basic Constraints: critical
                CA:TRUE, pathlen:1
    Signature Algorithm: sha256WithRSAEncryption
    Signature Value:
        a3:f6:9b:ce:cf:6a:67:1d:43:e2:f8:25:1c:79:5e:4e:7d:ed:
        91:f2:d8:b8:fa:05:78:84:5f:30:08:9c:08:0c:dd:ac:00:3c:
        f6:1f:14:0f:a7:78:dc:14:67:31:53:c1:2a:a9:51:f6:a6:eb:
        2b:a1:74:fc:93:a1:f2:c8:8a:6e:97:22:e3:d4:1f:87:59:4b:
        3a:ea:cf:54:61:67:40:e0:70:9c:d5:b5:0c:53:29:d2:0d:cd:
        4e:06:64:ed:49:81:64:21:c6:bf:28:ea:40:ef:66:2f:ec:98:
        c8:2f:b0:a7:04:98:20:68:8b:a1:4c:92:55:e3:14:c1:c1:d3:
        41:eb:ea:56:5a:48:e2:7f:fc:f0:30:4c:0c:7e:8e:da:03:d0:
        c3:31:cc:32:84:39:0c:23:9a:15:f8:eb:9d:61:20:22:5d:ec:
        f6:a9:26:3c:d0:6f:4f:c2:27:7c:8d:a4:e6:b4:bb:d8:fc:bf:
        b4:a4:d5:f8:bc:77:eb:6b:a4:9c:ca:5d:87:59:ae:1b:1c:9f:
        64:e3:48:a8:e2:5f:cd:95:7e:52:f6:3a:97:7d:99:c8:ab:db:
        46:b3:c3:5a:c9:d8:25:9c:9f:88:f0:54:54:82:1a:2a:72:46:
        40:4e:e3:aa:a1:71:ab:9f:7e:8c:98:c7:e3:31:8f:23:36:6e:
        07:90:74:e2
-----BEGIN CERTIFICATE-----
MIIDezCCAmOgAwIBAgIUGMu1r1JdQIbROTDl/hooZTPgN6gwDQYJKoZIhvcNAQEL
BQAwDzENMAsGA1UEAwwEUm9vdDAeFw0yMjEwMDUxMjAwMDBaFw0yMzEwMDUxMjAw
MDBaMA8xDTALBgNVBAMMBFJvb3QwggEiMA0GCSqGSIb3DQEBAQUAA4IBDwAwggEK
AoIBAQC29S8tC78JIJJW7W8bs04sext9jpfx7pW/Lrdj3pxbNT7BW3gebP2U/iN9
bCi/2qzUR1i0ugCeqs4jRMajhHpbU5m8IPf5dhAcPcRFr7RVfwMmVG+SFTzh6j0A
xwL7zln5XCEXshicuNLVNlaNfCSgdmZ+LhiI0K4Y2GWYVjMKUOgo66n+fi63xzmT
YSxrBID6W8O1P4KzgbOSKgqrsBwNO4hjXhndvcQKQ7ai+MnnhjN+SrSLHYckpGdq
HTJBqXN0Bd0JNLlCY/0svFNuBlH0n+uwjQ/snEthbhjg0OQDNDRmHHwzZPdNT4kt
qcO1QwiC360LAw0ga88ngcunU30TAgMBAAGjgc4wgcswHQYDVR0OBBYEFCqpyu8Y
FT7TrMTsLaE8jxn47lG1MB8GA1UdIwQYMBaAFCqpyu8YFT7TrMTsLaE8jxn47lG1
MDcGCCsGAQUFBwEBBCswKTAnBggrBgEFBQcwAoYbaHR0cDovL3VybC1mb3ItYWlh
L1Jvb3QuY2VyMCwGA1UdHwQlMCMwIaAfoB2GG2h0dHA6Ly91cmwtZm9yLWNybC9S
b290LmNybDAOBgNVHQ8BAf8EBAMCAQYwEgYDVR0TAQH/BAgwBgEB/wIBATANBgkq
hkiG9w0BAQsFAAOCAQEAo/abzs9qZx1D4vglHHleTn3tkfLYuPoFeIRfMAicCAzd
rAA89h8UD6d43BRnMVPBKqlR9qbrK6F0/JOh8siKbpci49Qfh1lLOurPVGFnQOBw
nNW1DFMp0g3NTgZk7UmBZCHGvyjqQO9mL+yYyC+wpwSYIGiLoUySVeMUwcHTQevq
VlpI4n/88DBMDH6O2gPQwzHMMoQ5DCOaFfjrnWEgIl3s9qkmPNBvT8InfI2k5rS7
2Py/tKTV+Lx362uknMpdh1muGxyfZONIqOJfzZV+UvY6l32ZyKvbRrPDWsnYJZyf
iPBUVIIaKnJGQE7jqqFxq59+jJjH4zGPIzZuB5B04g==
-----END CERTIFICATE-----
