[Created by: generate-chains.py]

Certificate chain where the leaf has a basic constraints extension with
CA=false, however specifies the optional pathlen.

Certificate:
    Data:
        Version: 3 (0x2)
        Serial Number:
            2d:58:fd:1c:9f:8b:f0:cb:61:00:36:cc:88:b7:31:82:91:15:f5:15
        Signature Algorithm: sha256WithRSAEncryption
        Issuer: CN=Intermediate
        Validity
            Not Before: Oct  5 12:00:00 2022 GMT
            Not After : Oct  5 12:00:00 2023 GMT
        Subject: CN=Target
        Subject Public Key Info:
            Public Key Algorithm: rsaEncryption
                Public-Key: (2048 bit)
                Modulus:
                    00:ba:80:5c:f0:d7:23:f0:69:d9:b7:8f:fc:c3:d4:
                    47:a2:41:29:77:01:50:3c:84:8f:52:f7:11:6d:c4:
                    75:04:84:48:98:8c:4e:bb:f6:4b:e2:cb:4d:be:01:
                    dc:b2:8e:48:b6:da:76:4d:b0:28:75:94:28:d7:44:
                    2c:0d:a5:70:fe:b8:ec:c3:d0:0d:8b:74:4a:18:b9:
                    13:bb:b1:99:80:09:d0:bd:00:a3:20:64:70:bb:18:
                    00:7c:61:1f:5d:d2:dc:23:6a:6a:e3:8a:6c:13:9b:
                    a3:c5:7b:dc:91:71:29:46:4e:1c:8e:82:2a:d6:bb:
                    f9:5a:91:be:f0:a7:a9:b2:d5:8c:df:a2:d2:eb:3a:
                    e4:49:30:8b:83:20:6d:fb:af:90:19:3e:44:b5:d3:
                    bb:05:a1:15:a1:0d:4c:61:82:63:5e:24:a5:94:df:
                    a9:35:5a:0f:56:eb:8c:1d:a5:0e:80:4a:16:d1:ef:
                    dd:cf:84:f6:45:55:65:55:b8:73:ae:ca:1c:f8:c7:
                    e2:67:e8:8a:42:5e:eb:f6:2c:bf:55:1c:18:39:51:
                    5b:15:16:1b:0a:06:ba:b0:ad:bc:45:2d:23:5c:3a:
                    ca:2b:04:c9:a2:4f:a6:80:ec:d2:b8:d7:98:44:69:
                    3c:3c:2e:ab:b4:44:e2:50:6a:b8:a6:59:db:d4:61:
                    54:fd
                Exponent: 65537 (0x10001)
        X509v3 extensions:
            X509v3 Subject Key Identifier: 
                5B:3D:C4:92:95:A9:93:D8:29:1F:56:EB:DA:A0:3C:1A:C0:BD:5D:AB
            X509v3 Authority Key Identifier: 
                FB:3A:43:9C:BA:40:89:72:5B:BD:26:8A:3B:25:77:1C:C1:F0:2C:7E
            Authority Information Access: 
                CA Issuers - URI:http://url-for-aia/Intermediate.cer
            X509v3 CRL Distribution Points: 
                Full Name:
                  URI:http://url-for-crl/Intermediate.crl
            X509v3 Key Usage: critical
                Digital Signature, Key Encipherment
            X509v3 Extended Key Usage: 
                TLS Web Server Authentication, TLS Web Client Authentication
            X509v3 Basic Constraints: critical
                CA:FALSE, pathlen:1
    Signature Algorithm: sha256WithRSAEncryption
    Signature Value:
        03:c3:7d:bd:82:84:36:6a:1e:b5:d6:0f:83:c2:35:6c:68:55:
        9e:12:00:d9:dc:fc:12:68:b8:25:9f:01:64:4b:4d:9e:b5:61:
        2f:c0:84:cd:93:78:54:39:f0:85:da:a7:9b:84:57:27:ae:25:
        57:ca:b4:23:a4:42:d7:c4:44:32:9c:4b:d5:5b:a8:ab:1b:92:
        26:f6:93:95:09:51:f5:d0:44:7c:fe:8f:c1:34:66:7f:04:1c:
        1c:d3:bc:81:33:7f:0c:85:5e:d7:87:2e:c6:28:90:48:c0:42:
        dc:8a:44:26:a7:fd:42:cd:30:98:aa:23:72:f7:4f:d1:92:f2:
        d5:cb:ba:b6:3c:ac:b9:92:71:a7:b6:54:b3:d1:fb:b4:07:79:
        a2:f0:59:81:79:39:d1:91:11:47:91:f4:88:10:15:a7:46:6b:
        fc:df:7c:c3:63:fc:4b:52:45:42:2a:f3:0b:e2:13:d1:ac:54:
        d9:10:a9:27:4c:7b:57:0c:ad:de:08:41:5b:60:ac:81:45:c6:
        dd:68:81:c8:9a:b0:aa:4d:33:e9:c8:49:b9:6c:eb:48:2f:82:
        6d:1f:11:58:0d:30:58:1a:e0:3a:5c:f0:99:75:51:17:c4:ab:
        2c:76:ae:01:dc:f4:4c:11:d8:81:6d:47:53:aa:c9:fa:c4:2b:
        12:a7:81:39
-----BEGIN CERTIFICATE-----
MIIDsTCCApmgAwIBAgIULVj9HJ+L8MthADbMiLcxgpEV9RUwDQYJKoZIhvcNAQEL
BQAwFzEVMBMGA1UEAwwMSW50ZXJtZWRpYXRlMB4XDTIyMTAwNTEyMDAwMFoXDTIz
MTAwNTEyMDAwMFowETEPMA0GA1UEAwwGVGFyZ2V0MIIBIjANBgkqhkiG9w0BAQEF
AAOCAQ8AMIIBCgKCAQEAuoBc8Ncj8GnZt4/8w9RHokEpdwFQPISPUvcRbcR1BIRI
mIxOu/ZL4stNvgHcso5Ittp2TbAodZQo10QsDaVw/rjsw9ANi3RKGLkTu7GZgAnQ
vQCjIGRwuxgAfGEfXdLcI2pq44psE5ujxXvckXEpRk4cjoIq1rv5WpG+8KepstWM
36LS6zrkSTCLgyBt+6+QGT5EtdO7BaEVoQ1MYYJjXiSllN+pNVoPVuuMHaUOgEoW
0e/dz4T2RVVlVbhzrsoc+MfiZ+iKQl7r9iy/VRwYOVFbFRYbCga6sK28RS0jXDrK
KwTJok+mgOzSuNeYRGk8PC6rtETiUGq4plnb1GFU/QIDAQABo4H6MIH3MB0GA1Ud
DgQWBBRbPcSSlamT2CkfVuvaoDwawL1dqzAfBgNVHSMEGDAWgBT7OkOcukCJclu9
Joo7JXccwfAsfjA/BggrBgEFBQcBAQQzMDEwLwYIKwYBBQUHMAKGI2h0dHA6Ly91
cmwtZm9yLWFpYS9JbnRlcm1lZGlhdGUuY2VyMDQGA1UdHwQtMCswKaAnoCWGI2h0
dHA6Ly91cmwtZm9yLWNybC9JbnRlcm1lZGlhdGUuY3JsMA4GA1UdDwEB/wQEAwIF
oDAdBgNVHSUEFjAUBggrBgEFBQcDAQYIKwYBBQUHAwIwDwYDVR0TAQH/BAUwAwIB
ATANBgkqhkiG9w0BAQsFAAOCAQEAA8N9vYKENmoetdYPg8I1bGhVnhIA2dz8Emi4
JZ8BZEtNnrVhL8CEzZN4VDnwhdqnm4RXJ64lV8q0I6RC18REMpxL1VuoqxuSJvaT
lQlR9dBEfP6PwTRmfwQcHNO8gTN/DIVe14cuxiiQSMBC3IpEJqf9Qs0wmKojcvdP
0ZLy1cu6tjysuZJxp7ZUs9H7tAd5ovBZgXk50ZERR5H0iBAVp0Zr/N98w2P8S1JF
QirzC+IT0axU2RCpJ0x7Vwyt3ghBW2CsgUXG3WiByJqwqk0z6chJuWzrSC+CbR8R
WA0wWBrgOlzwmXVRF8SrLHauAdz0TBHYgW1HU6rJ+sQrEqeBOQ==
-----END CERTIFICATE-----

Certificate:
    Data:
        Version: 3 (0x2)
        Serial Number:
            7c:eb:63:f0:f3:c9:2c:8c:45:ed:1d:f4:86:49:1e:61:f3:54:68:fe
        Signature Algorithm: sha256WithRSAEncryption
        Issuer: CN=Root
        Validity
            Not Before: Oct  5 12:00:00 2022 GMT
            Not After : Oct  5 12:00:00 2023 GMT
        Subject: CN=Intermediate
        Subject Public Key Info:
            Public Key Algorithm: rsaEncryption
                Public-Key: (2048 bit)
                Modulus:
                    00:b1:bb:78:97:4a:b5:56:42:fa:f9:6b:63:6c:f3:
                    0e:54:92:6c:84:d4:c7:53:48:24:c1:bd:6f:d0:83:
                    ad:f3:7a:5c:93:f1:74:38:ba:46:f1:19:db:0e:fb:
                    1b:b4:f2:9e:8b:c4:10:8e:97:b1:ff:f8:2d:03:cd:
                    36:91:8a:2c:e8:d8:da:a4:7e:58:8d:fb:ff:99:2b:
                    d5:e1:b3:63:7f:ec:2c:66:b5:0d:ca:ba:e1:74:5e:
                    b3:ad:bf:49:65:74:52:30:78:ed:ea:7c:08:26:32:
                    f1:d5:e3:ea:01:7e:3a:fc:0e:84:d6:17:aa:98:f8:
                    92:63:77:4d:5c:d3:13:61:af:e3:d8:35:0c:ff:1e:
                    39:91:0c:24:a9:ec:89:ab:28:97:97:56:eb:2a:73:
                    70:e7:46:17:89:1e:42:73:a5:f6:b6:de:5a:bc:24:
                    69:5d:41:09:31:f6:12:d3:57:2d:dc:96:9c:0a:4d:
                    64:f0:c4:24:44:8e:1d:66:37:a1:01:1a:d5:89:a8:
                    9c:81:82:00:d9:f5:56:e9:58:df:ea:5d:32:7e:fb:
                    2d:19:1b:39:b4:fb:77:2c:2e:e1:ae:f5:ea:b0:ad:
                    b7:d4:2e:35:86:26:9f:96:c6:e3:4c:27:7b:6a:7d:
                    a2:4e:bf:cb:59:33:85:6f:d1:98:e4:27:3c:95:3f:
                    fd:ad
                Exponent: 65537 (0x10001)
        X509v3 extensions:
            X509v3 Subject Key Identifier: 
                FB:3A:43:9C:BA:40:89:72:5B:BD:26:8A:3B:25:77:1C:C1:F0:2C:7E
            X509v3 Authority Key Identifier: 
                8F:4E:5E:78:19:AE:28:82:69:2F:CF:33:95:04:C1:CD:75:D1:F6:FF
            Authority Information Access: 
                CA Issuers - URI:http://url-for-aia/Root.cer
            X509v3 CRL Distribution Points: 
                Full Name:
                  URI:http://url-for-crl/Root.crl
            X509v3 Key Usage: critical
                Certificate Sign, CRL Sign
            X509v3 Basic Constraints: critical
                CA:TRUE
    Signature Algorithm: sha256WithRSAEncryption
    Signature Value:
        4f:c8:92:ab:d1:10:85:60:e8:b6:5e:84:1b:02:9c:dd:02:64:
        96:a8:b1:b0:a5:44:5f:4e:cd:6c:38:b5:0c:21:10:52:04:1b:
        06:27:1c:f5:38:79:de:af:97:2e:4e:62:12:b7:df:d2:57:3d:
        61:5a:49:35:1c:8d:b3:32:88:ea:f7:b7:17:51:14:9f:a2:72:
        28:4e:a0:39:36:00:2d:85:3c:27:22:73:16:27:91:ad:bf:46:
        42:dd:c6:14:34:a5:f7:b2:35:d6:23:1f:cd:d3:19:9b:5a:cf:
        33:5d:c8:bc:0e:6a:5b:f1:32:d6:e6:bc:66:c0:e5:9e:11:a3:
        22:17:d4:c7:4a:f6:51:52:51:06:54:00:3e:fd:e6:46:37:da:
        7a:b0:1f:89:27:ba:bc:b1:f7:b0:2a:90:ca:1d:d2:7d:4e:29:
        87:34:8a:be:68:51:07:c0:2d:02:29:82:be:e3:0c:1d:08:9f:
        4b:71:c4:35:7e:ba:81:2d:2e:ad:1c:34:04:22:80:82:96:2b:
        c6:b3:f4:f5:13:29:07:0d:07:fe:f2:c6:d3:e5:73:3a:fd:36:
        98:df:78:3d:94:8e:5f:22:64:27:bb:b6:4a:9e:39:18:4d:74:
        1e:5b:20:17:70:2a:19:b5:86:ac:79:47:d4:11:50:37:b0:48:
        bd:dc:a4:9b
-----BEGIN CERTIFICATE-----
MIIDgDCCAmigAwIBAgIUfOtj8PPJLIxF7R30hkkeYfNUaP4wDQYJKoZIhvcNAQEL
BQAwDzENMAsGA1UEAwwEUm9vdDAeFw0yMjEwMDUxMjAwMDBaFw0yMzEwMDUxMjAw
MDBaMBcxFTATBgNVBAMMDEludGVybWVkaWF0ZTCCASIwDQYJKoZIhvcNAQEBBQAD
ggEPADCCAQoCggEBALG7eJdKtVZC+vlrY2zzDlSSbITUx1NIJMG9b9CDrfN6XJPx
dDi6RvEZ2w77G7TynovEEI6Xsf/4LQPNNpGKLOjY2qR+WI37/5kr1eGzY3/sLGa1
Dcq64XRes62/SWV0UjB47ep8CCYy8dXj6gF+OvwOhNYXqpj4kmN3TVzTE2Gv49g1
DP8eOZEMJKnsiasol5dW6ypzcOdGF4keQnOl9rbeWrwkaV1BCTH2EtNXLdyWnApN
ZPDEJESOHWY3oQEa1YmonIGCANn1VulY3+pdMn77LRkbObT7dywu4a716rCtt9Qu
NYYmn5bG40wne2p9ok6/y1kzhW/RmOQnPJU//a0CAwEAAaOByzCByDAdBgNVHQ4E
FgQU+zpDnLpAiXJbvSaKOyV3HMHwLH4wHwYDVR0jBBgwFoAUj05eeBmuKIJpL88z
lQTBzXXR9v8wNwYIKwYBBQUHAQEEKzApMCcGCCsGAQUFBzAChhtodHRwOi8vdXJs
LWZvci1haWEvUm9vdC5jZXIwLAYDVR0fBCUwIzAhoB+gHYYbaHR0cDovL3VybC1m
b3ItY3JsL1Jvb3QuY3JsMA4GA1UdDwEB/wQEAwIBBjAPBgNVHRMBAf8EBTADAQH/
MA0GCSqGSIb3DQEBCwUAA4IBAQBPyJKr0RCFYOi2XoQbApzdAmSWqLGwpURfTs1s
OLUMIRBSBBsGJxz1OHner5cuTmISt9/SVz1hWkk1HI2zMojq97cXURSfonIoTqA5
NgAthTwnInMWJ5Gtv0ZC3cYUNKX3sjXWIx/N0xmbWs8zXci8Dmpb8TLW5rxmwOWe
EaMiF9THSvZRUlEGVAA+/eZGN9p6sB+JJ7q8sfewKpDKHdJ9TimHNIq+aFEHwC0C
KYK+4wwdCJ9LccQ1frqBLS6tHDQEIoCClivGs/T1EykHDQf+8sbT5XM6/TaY33g9
lI5fImQnu7ZKnjkYTXQeWyAXcCoZtYaseUfUEVA3sEi93KSb
-----END CERTIFICATE-----

Certificate:
    Data:
        Version: 3 (0x2)
        Serial Number:
            7c:eb:63:f0:f3:c9:2c:8c:45:ed:1d:f4:86:49:1e:61:f3:54:68:fd
        Signature Algorithm: sha256WithRSAEncryption
        Issuer: CN=Root
        Validity
            Not Before: Oct  5 12:00:00 2022 GMT
            Not After : Oct  5 12:00:00 2023 GMT
        Subject: CN=Root
        Subject Public Key Info:
            Public Key Algorithm: rsaEncryption
                Public-Key: (2048 bit)
                Modulus:
                    00:b3:59:c0:d6:b0:f3:cb:31:46:9d:ef:de:63:f3:
                    1a:24:10:36:fb:e8:ee:05:76:21:51:51:fd:52:47:
                    97:12:13:46:42:bc:94:37:5e:e6:41:d2:d8:75:27:
                    2c:3d:04:bc:e1:ac:bc:a8:f6:d8:74:63:9a:be:a9:
                    7b:d2:1b:96:87:25:3b:ce:d1:ff:b4:dd:fa:29:64:
                    ae:df:4c:1b:b4:fb:9e:8a:9a:6c:74:ba:2a:76:45:
                    03:b7:91:7e:90:ba:04:3d:dc:0a:17:77:b3:5f:dc:
                    56:07:eb:63:5e:2b:54:c9:d7:b3:4b:f3:42:6b:9e:
                    2a:80:9c:71:52:5d:0f:6d:97:c6:d3:f6:c4:7a:7a:
                    ee:ea:22:4f:1c:e8:42:55:6e:b2:2a:56:cf:86:3c:
                    94:d1:e7:e0:7c:78:8c:94:05:05:b0:3f:b2:70:18:
                    da:92:d2:9a:ba:57:7c:fb:52:4b:0f:34:cb:dc:ab:
                    40:a0:76:4e:cc:11:b9:57:be:f2:e2:fa:2b:ba:20:
                    b0:c8:ee:8d:0a:11:a2:02:d4:f7:38:3d:f4:a8:49:
                    f4:b4:8a:08:ff:d0:c3:25:21:0e:dc:f0:17:22:f2:
                    bf:07:3d:e7:5f:4c:b2:cd:1a:18:f1:fd:3a:5a:42:
                    79:b3:82:47:ad:ad:e0:02:7f:0b:19:34:5d:3b:90:
                    81:23
                Exponent: 65537 (0x10001)
        X509v3 extensions:
            X509v3 Subject Key Identifier: 
                8F:4E:5E:78:19:AE:28:82:69:2F:CF:33:95:04:C1:CD:75:D1:F6:FF
            X509v3 Authority Key Identifier: 
                8F:4E:5E:78:19:AE:28:82:69:2F:CF:33:95:04:C1:CD:75:D1:F6:FF
            Authority Information Access: 
                CA Issuers - URI:http://url-for-aia/Root.cer
            X509v3 CRL Distribution Points: 
                Full Name:
                  URI:http://url-for-crl/Root.crl
            X509v3 Key Usage: critical
                Certificate Sign, CRL Sign
            X509v3 Basic Constraints: critical
                CA:TRUE
    Signature Algorithm: sha256WithRSAEncryption
    Signature Value:
        6d:ea:eb:68:04:1c:b9:3b:9c:34:ae:c5:a1:af:99:85:db:6b:
        eb:4d:35:60:07:98:9a:1a:9d:d3:7d:73:1f:0e:f4:2d:e6:9c:
        8d:e5:ba:b1:f1:12:33:22:9c:f3:79:22:7e:07:9b:e2:07:6d:
        9d:f5:1d:f1:57:74:74:fc:07:cc:a0:4a:ee:19:0b:87:ac:0b:
        8b:c8:55:48:d7:77:06:c9:5a:95:b8:6f:f4:8a:b0:c8:ed:16:
        ac:21:08:ca:98:a3:5b:dc:5f:57:27:87:63:e8:d8:10:60:70:
        ef:b1:70:97:d8:a9:4a:6b:08:9d:8f:d7:a2:a4:e0:29:38:29:
        84:05:40:76:1d:f2:01:a1:33:b6:6a:c0:63:39:83:4f:73:87:
        a6:26:53:bd:41:e8:ab:4b:00:55:a7:09:1f:c7:28:ec:94:8d:
        2b:e3:34:6e:0b:a4:f3:9b:5e:4b:71:a7:a5:21:40:38:16:a9:
        03:51:d7:60:74:df:2f:1e:cb:94:de:c6:82:94:6e:74:e7:90:
        f7:cd:0b:df:61:02:4f:0c:6d:09:91:6e:90:6a:8a:20:9d:53:
        e7:39:db:5c:1e:86:7d:23:d3:c5:75:21:fb:fc:28:51:4e:d4:
        c6:a0:29:cf:2a:da:fc:d0:22:7d:53:b9:56:da:fa:90:a4:31:
        59:7f:71:59
-----BEGIN CERTIFICATE-----
MIIDeDCCAmCgAwIBAgIUfOtj8PPJLIxF7R30hkkeYfNUaP0wDQYJKoZIhvcNAQEL
BQAwDzENMAsGA1UEAwwEUm9vdDAeFw0yMjEwMDUxMjAwMDBaFw0yMzEwMDUxMjAw
MDBaMA8xDTALBgNVBAMMBFJvb3QwggEiMA0GCSqGSIb3DQEBAQUAA4IBDwAwggEK
AoIBAQCzWcDWsPPLMUad795j8xokEDb76O4FdiFRUf1SR5cSE0ZCvJQ3XuZB0th1
Jyw9BLzhrLyo9th0Y5q+qXvSG5aHJTvO0f+03fopZK7fTBu0+56Kmmx0uip2RQO3
kX6QugQ93AoXd7Nf3FYH62NeK1TJ17NL80JrniqAnHFSXQ9tl8bT9sR6eu7qIk8c
6EJVbrIqVs+GPJTR5+B8eIyUBQWwP7JwGNqS0pq6V3z7UksPNMvcq0Cgdk7MEblX
vvLi+iu6ILDI7o0KEaIC1Pc4PfSoSfS0igj/0MMlIQ7c8Bci8r8HPedfTLLNGhjx
/TpaQnmzgketreACfwsZNF07kIEjAgMBAAGjgcswgcgwHQYDVR0OBBYEFI9OXngZ
riiCaS/PM5UEwc110fb/MB8GA1UdIwQYMBaAFI9OXngZriiCaS/PM5UEwc110fb/
MDcGCCsGAQUFBwEBBCswKTAnBggrBgEFBQcwAoYbaHR0cDovL3VybC1mb3ItYWlh
L1Jvb3QuY2VyMCwGA1UdHwQlMCMwIaAfoB2GG2h0dHA6Ly91cmwtZm9yLWNybC9S
b290LmNybDAOBgNVHQ8BAf8EBAMCAQYwDwYDVR0TAQH/BAUwAwEB/zANBgkqhkiG
9w0BAQsFAAOCAQEAberraAQcuTucNK7Foa+Zhdtr6001YAeYmhqd031zHw70Leac
jeW6sfESMyKc83kifgeb4gdtnfUd8Vd0dPwHzKBK7hkLh6wLi8hVSNd3Bslalbhv
9IqwyO0WrCEIypijW9xfVyeHY+jYEGBw77Fwl9ipSmsInY/XoqTgKTgphAVAdh3y
AaEztmrAYzmDT3OHpiZTvUHoq0sAVacJH8co7JSNK+M0bguk85teS3GnpSFAOBap
A1HXYHTfLx7LlN7GgpRudOeQ980L32ECTwxtCZFukGqKIJ1T5znbXB6GfSPTxXUh
+/woUU7UxqApzyra/NAifVO5Vtr6kKQxWX9xWQ==
-----END CERTIFICATE-----
