Certificate:
    Data:
        Version: 3 (0x2)
        Serial Number:
            16:8a:5f:b1:01:c8:f4:45:bd:aa:8c:4e:f9:0c:db:e6:68:45:46:73
        Signature Algorithm: sha256WithRSAEncryption
        Issuer: CN=Root
        Validity
            Not Before: Oct  5 12:00:00 2021 GMT
            Not After : Oct  5 12:00:00 2022 GMT
        Subject: O=O2, O=O1
        Subject Public Key Info:
            Public Key Algorithm: rsaEncryption
                RSA Public-Key: (2048 bit)
                Modulus:
                    00:d5:ac:80:14:b9:d2:78:ad:43:c8:51:69:3e:98:
                    7f:bd:a8:57:a3:65:28:19:6d:44:e5:6a:5d:f7:c2:
                    31:ed:4e:66:a9:f1:d2:9d:36:b6:b9:98:3f:d8:54:
                    d2:e9:77:3a:fb:9f:d5:c9:f9:c9:df:5e:b7:da:34:
                    42:f6:cb:e3:66:e0:b7:5a:82:9b:77:20:0f:b1:17:
                    1e:2a:70:62:d2:67:9b:a0:54:f2:1b:a4:9f:06:b7:
                    bb:af:5a:6f:55:b1:7e:f8:20:cb:ed:e4:55:d8:18:
                    cb:4f:0e:c3:c4:5d:13:fc:fd:d7:b1:1c:c5:58:81:
                    cf:e9:56:78:67:78:aa:fe:06:29:9e:34:3e:4b:fe:
                    7e:ec:22:16:15:d6:2b:c3:6e:17:23:42:1b:28:2e:
                    21:13:31:8b:8a:33:23:a2:67:f6:23:bc:f2:68:9b:
                    71:92:92:7f:23:09:53:96:67:3c:fe:c2:81:88:9f:
                    00:55:93:4d:b3:e7:02:01:13:48:4b:34:12:45:6e:
                    48:6a:88:21:33:ff:5a:03:49:56:a2:69:64:97:a4:
                    53:0e:90:73:84:c6:b8:28:b0:5b:c0:67:85:fd:9a:
                    25:f2:cf:0e:79:24:78:20:80:f0:2c:ae:46:8e:c5:
                    cf:29:be:7f:f5:7d:73:6d:aa:0b:10:59:4f:d6:46:
                    f1:bf
                Exponent: 65537 (0x10001)
        X509v3 extensions:
            X509v3 Subject Key Identifier: 
                9D:44:AA:2B:9B:4C:66:4C:20:C5:32:B2:EA:08:13:13:69:17:49:B1
            X509v3 Authority Key Identifier: 
                keyid:FF:8B:FC:A5:69:36:2F:62:3B:D4:1B:ED:58:2F:E9:77:3D:29:81:83

            Authority Information Access: 
                CA Issuers - URI:http://url-for-aia/Root.cer

            X509v3 CRL Distribution Points: 

                Full Name:
                  URI:http://url-for-crl/Root.crl

            X509v3 Key Usage: critical
                Certificate Sign, CRL Sign
            X509v3 Basic Constraints: critical
                CA:TRUE
    Signature Algorithm: sha256WithRSAEncryption
         be:e4:70:c4:c6:67:d9:1d:24:d3:5b:d4:ee:c1:d2:e3:ca:d2:
         a7:6a:f9:c7:20:7f:c7:bc:40:2a:c3:45:56:17:36:47:63:e7:
         05:1c:28:ca:c7:0e:c8:29:4d:c9:d5:9d:e5:4a:84:f6:2a:ff:
         d5:b4:f1:b7:84:7a:9b:ee:14:49:39:17:77:fe:17:8e:c2:d3:
         cc:80:3c:57:99:78:39:04:8b:c2:43:f3:75:14:a9:ab:b7:63:
         59:e1:db:21:8a:4b:1d:c4:69:00:39:bc:40:35:37:8d:af:b6:
         91:ba:25:0d:06:c6:d1:9e:fd:6e:67:3e:b3:dd:9a:6c:e4:5d:
         d0:19:73:80:21:0a:25:01:b7:cf:5e:1e:f0:d6:2c:96:30:70:
         89:3b:ed:c8:78:8c:f2:9a:c7:eb:06:be:31:2a:f0:50:b0:96:
         48:bd:76:ca:22:7a:9d:71:ec:7a:c5:db:88:50:05:32:2a:95:
         d2:c3:63:b0:eb:9c:27:62:79:c8:5a:13:09:3d:98:1f:3d:9f:
         a2:c2:42:f8:d6:06:85:0d:72:60:9e:ce:10:38:cd:a0:af:1c:
         2f:bb:0c:13:21:6f:b7:64:83:6f:d7:e5:87:95:6b:3a:2c:a1:
         b0:5d:72:3d:64:c3:27:b8:e9:77:08:9e:b6:28:8d:ce:b7:de:
         47:f3:60:3e
-----BEGIN CERTIFICATE-----
MIIDgzCCAmugAwIBAgIUFopfsQHI9EW9qoxO+Qzb5mhFRnMwDQYJKoZIhvcNAQEL
BQAwDzENMAsGA1UEAwwEUm9vdDAeFw0yMTEwMDUxMjAwMDBaFw0yMjEwMDUxMjAw
MDBaMBoxCzAJBgNVBAoMAk8yMQswCQYDVQQKDAJPMTCCASIwDQYJKoZIhvcNAQEB
BQADggEPADCCAQoCggEBANWsgBS50nitQ8hRaT6Yf72oV6NlKBltROVqXffCMe1O
Zqnx0p02trmYP9hU0ul3Ovuf1cn5yd9et9o0QvbL42bgt1qCm3cgD7EXHipwYtJn
m6BU8huknwa3u69ab1Wxfvggy+3kVdgYy08Ow8RdE/z917EcxViBz+lWeGd4qv4G
KZ40Pkv+fuwiFhXWK8NuFyNCGyguIRMxi4ozI6Jn9iO88mibcZKSfyMJU5ZnPP7C
gYifAFWTTbPnAgETSEs0EkVuSGqIITP/WgNJVqJpZJekUw6Qc4TGuCiwW8Bnhf2a
JfLPDnkkeCCA8CyuRo7Fzym+f/V9c22qCxBZT9ZG8b8CAwEAAaOByzCByDAdBgNV
HQ4EFgQUnUSqK5tMZkwgxTKy6ggTE2kXSbEwHwYDVR0jBBgwFoAU/4v8pWk2L2I7
1BvtWC/pdz0pgYMwNwYIKwYBBQUHAQEEKzApMCcGCCsGAQUFBzAChhtodHRwOi8v
dXJsLWZvci1haWEvUm9vdC5jZXIwLAYDVR0fBCUwIzAhoB+gHYYbaHR0cDovL3Vy
bC1mb3ItY3JsL1Jvb3QuY3JsMA4GA1UdDwEB/wQEAwIBBjAPBgNVHRMBAf8EBTAD
AQH/MA0GCSqGSIb3DQEBCwUAA4IBAQC+5HDExmfZHSTTW9TuwdLjytKnavnHIH/H
vEAqw0VWFzZHY+cFHCjKxw7IKU3J1Z3lSoT2Kv/VtPG3hHqb7hRJORd3/heOwtPM
gDxXmXg5BIvCQ/N1FKmrt2NZ4dshiksdxGkAObxANTeNr7aRuiUNBsbRnv1uZz6z
3Zps5F3QGXOAIQolAbfPXh7w1iyWMHCJO+3IeIzymsfrBr4xKvBQsJZIvXbKInqd
cex6xduIUAUyKpXSw2Ow65wnYnnIWhMJPZgfPZ+iwkL41gaFDXJgns4QOM2grxwv
uwwTIW+3ZINv1+WHlWs6LKGwXXI9ZMMnuOl3CJ62KI3Ot95H82A+
-----END CERTIFICATE-----
