Certificate:
    Data:
        Version: 3 (0x2)
        Serial Number:
            16:8a:5f:b1:01:c8:f4:45:bd:aa:8c:4e:f9:0c:db:e6:68:45:46:73
        Signature Algorithm: sha256WithRSAEncryption
        Issuer: CN=Root
        Validity
            Not Before: Nov  3 12:00:00 2020 GMT
            Not After : Nov  3 12:00:00 2021 GMT
        Subject: O=O2, O=O1
        Subject Public Key Info:
            Public Key Algorithm: rsaEncryption
                RSA Public-Key: (2048 bit)
                Modulus:
                    00:d5:ac:80:14:b9:d2:78:ad:43:c8:51:69:3e:98:
                    7f:bd:a8:57:a3:65:28:19:6d:44:e5:6a:5d:f7:c2:
                    31:ed:4e:66:a9:f1:d2:9d:36:b6:b9:98:3f:d8:54:
                    d2:e9:77:3a:fb:9f:d5:c9:f9:c9:df:5e:b7:da:34:
                    42:f6:cb:e3:66:e0:b7:5a:82:9b:77:20:0f:b1:17:
                    1e:2a:70:62:d2:67:9b:a0:54:f2:1b:a4:9f:06:b7:
                    bb:af:5a:6f:55:b1:7e:f8:20:cb:ed:e4:55:d8:18:
                    cb:4f:0e:c3:c4:5d:13:fc:fd:d7:b1:1c:c5:58:81:
                    cf:e9:56:78:67:78:aa:fe:06:29:9e:34:3e:4b:fe:
                    7e:ec:22:16:15:d6:2b:c3:6e:17:23:42:1b:28:2e:
                    21:13:31:8b:8a:33:23:a2:67:f6:23:bc:f2:68:9b:
                    71:92:92:7f:23:09:53:96:67:3c:fe:c2:81:88:9f:
                    00:55:93:4d:b3:e7:02:01:13:48:4b:34:12:45:6e:
                    48:6a:88:21:33:ff:5a:03:49:56:a2:69:64:97:a4:
                    53:0e:90:73:84:c6:b8:28:b0:5b:c0:67:85:fd:9a:
                    25:f2:cf:0e:79:24:78:20:80:f0:2c:ae:46:8e:c5:
                    cf:29:be:7f:f5:7d:73:6d:aa:0b:10:59:4f:d6:46:
                    f1:bf
                Exponent: 65537 (0x10001)
        X509v3 extensions:
            X509v3 Subject Key Identifier: 
                9D:44:AA:2B:9B:4C:66:4C:20:C5:32:B2:EA:08:13:13:69:17:49:B1
            X509v3 Authority Key Identifier: 
                keyid:FF:8B:FC:A5:69:36:2F:62:3B:D4:1B:ED:58:2F:E9:77:3D:29:81:83

            Authority Information Access: 
                CA Issuers - URI:http://url-for-aia/Root.cer

            X509v3 CRL Distribution Points: 

                Full Name:
                  URI:http://url-for-crl/Root.crl

            X509v3 Key Usage: critical
                Certificate Sign, CRL Sign
            X509v3 Basic Constraints: critical
                CA:TRUE
    Signature Algorithm: sha256WithRSAEncryption
         1b:78:f8:23:7c:db:58:52:52:51:12:7c:0c:37:fe:79:73:80:
         7f:b0:34:27:34:ea:46:32:ab:dc:49:68:87:de:c9:c5:79:38:
         13:a4:57:d6:f5:b5:13:eb:a8:26:11:2a:c4:0f:b3:ae:38:ae:
         a6:50:d3:af:2b:b6:33:52:bf:a0:a5:66:b5:7a:ee:7c:70:42:
         4f:1a:66:e3:40:6f:13:72:30:42:60:98:24:78:72:c4:ea:d5:
         94:ca:1f:a8:a0:c6:aa:c6:11:07:95:fd:02:9c:74:70:5e:c1:
         9a:02:a8:92:49:22:00:7d:2d:1c:4b:95:1c:af:cf:b3:6f:3d:
         d5:47:d9:7b:d3:d0:9b:4a:fa:0a:0f:47:4b:97:40:20:2c:bc:
         32:a9:a6:8a:61:87:43:97:ae:a4:a0:17:fb:47:8f:65:fa:ab:
         49:ea:6e:91:35:89:af:43:da:a0:d4:ca:7c:cc:a3:59:74:5e:
         0f:c4:ff:59:5a:e6:22:34:7f:9e:dd:93:78:73:3c:8a:60:8e:
         63:92:cf:03:d1:43:ee:70:e6:9e:0d:47:65:e8:8c:ee:56:38:
         22:51:55:aa:2e:66:cd:f7:ac:f2:65:c4:c3:e9:73:7f:c8:ef:
         38:f7:42:29:bc:39:19:84:dc:12:52:13:4d:ea:3e:0d:20:48:
         98:24:fb:58
-----BEGIN CERTIFICATE-----
MIIDgzCCAmugAwIBAgIUFopfsQHI9EW9qoxO+Qzb5mhFRnMwDQYJKoZIhvcNAQEL
BQAwDzENMAsGA1UEAwwEUm9vdDAeFw0yMDExMDMxMjAwMDBaFw0yMTExMDMxMjAw
MDBaMBoxCzAJBgNVBAoMAk8yMQswCQYDVQQKDAJPMTCCASIwDQYJKoZIhvcNAQEB
BQADggEPADCCAQoCggEBANWsgBS50nitQ8hRaT6Yf72oV6NlKBltROVqXffCMe1O
Zqnx0p02trmYP9hU0ul3Ovuf1cn5yd9et9o0QvbL42bgt1qCm3cgD7EXHipwYtJn
m6BU8huknwa3u69ab1Wxfvggy+3kVdgYy08Ow8RdE/z917EcxViBz+lWeGd4qv4G
KZ40Pkv+fuwiFhXWK8NuFyNCGyguIRMxi4ozI6Jn9iO88mibcZKSfyMJU5ZnPP7C
gYifAFWTTbPnAgETSEs0EkVuSGqIITP/WgNJVqJpZJekUw6Qc4TGuCiwW8Bnhf2a
JfLPDnkkeCCA8CyuRo7Fzym+f/V9c22qCxBZT9ZG8b8CAwEAAaOByzCByDAdBgNV
HQ4EFgQUnUSqK5tMZkwgxTKy6ggTE2kXSbEwHwYDVR0jBBgwFoAU/4v8pWk2L2I7
1BvtWC/pdz0pgYMwNwYIKwYBBQUHAQEEKzApMCcGCCsGAQUFBzAChhtodHRwOi8v
dXJsLWZvci1haWEvUm9vdC5jZXIwLAYDVR0fBCUwIzAhoB+gHYYbaHR0cDovL3Vy
bC1mb3ItY3JsL1Jvb3QuY3JsMA4GA1UdDwEB/wQEAwIBBjAPBgNVHRMBAf8EBTAD
AQH/MA0GCSqGSIb3DQEBCwUAA4IBAQAbePgjfNtYUlJREnwMN/55c4B/sDQnNOpG
MqvcSWiH3snFeTgTpFfW9bUT66gmESrED7OuOK6mUNOvK7YzUr+gpWa1eu58cEJP
GmbjQG8TcjBCYJgkeHLE6tWUyh+ooMaqxhEHlf0CnHRwXsGaAqiSSSIAfS0cS5Uc
r8+zbz3VR9l709CbSvoKD0dLl0AgLLwyqaaKYYdDl66koBf7R49l+qtJ6m6RNYmv
Q9qg1Mp8zKNZdF4PxP9ZWuYiNH+e3ZN4czyKYI5jks8D0UPucOaeDUdl6IzuVjgi
UVWqLmbN96zyZcTD6XN/yO8490IpvDkZhNwSUhNN6j4NIEiYJPtY
-----END CERTIFICATE-----
