Certificate:
    Data:
        Version: 3 (0x2)
        Serial Number:
            16:8a:5f:b1:01:c8:f4:45:bd:aa:8c:4e:f9:0c:db:e6:68:45:46:77
        Signature Algorithm: sha256WithRSAEncryption
        Issuer: CN=Root
        Validity
            Not Before: Nov  3 12:00:00 2020 GMT
            Not After : Nov  3 12:00:00 2021 GMT
        Subject: CN=O1
        Subject Public Key Info:
            Public Key Algorithm: rsaEncryption
                RSA Public-Key: (2048 bit)
                Modulus:
                    00:d5:ac:80:14:b9:d2:78:ad:43:c8:51:69:3e:98:
                    7f:bd:a8:57:a3:65:28:19:6d:44:e5:6a:5d:f7:c2:
                    31:ed:4e:66:a9:f1:d2:9d:36:b6:b9:98:3f:d8:54:
                    d2:e9:77:3a:fb:9f:d5:c9:f9:c9:df:5e:b7:da:34:
                    42:f6:cb:e3:66:e0:b7:5a:82:9b:77:20:0f:b1:17:
                    1e:2a:70:62:d2:67:9b:a0:54:f2:1b:a4:9f:06:b7:
                    bb:af:5a:6f:55:b1:7e:f8:20:cb:ed:e4:55:d8:18:
                    cb:4f:0e:c3:c4:5d:13:fc:fd:d7:b1:1c:c5:58:81:
                    cf:e9:56:78:67:78:aa:fe:06:29:9e:34:3e:4b:fe:
                    7e:ec:22:16:15:d6:2b:c3:6e:17:23:42:1b:28:2e:
                    21:13:31:8b:8a:33:23:a2:67:f6:23:bc:f2:68:9b:
                    71:92:92:7f:23:09:53:96:67:3c:fe:c2:81:88:9f:
                    00:55:93:4d:b3:e7:02:01:13:48:4b:34:12:45:6e:
                    48:6a:88:21:33:ff:5a:03:49:56:a2:69:64:97:a4:
                    53:0e:90:73:84:c6:b8:28:b0:5b:c0:67:85:fd:9a:
                    25:f2:cf:0e:79:24:78:20:80:f0:2c:ae:46:8e:c5:
                    cf:29:be:7f:f5:7d:73:6d:aa:0b:10:59:4f:d6:46:
                    f1:bf
                Exponent: 65537 (0x10001)
        X509v3 extensions:
            X509v3 Subject Key Identifier: 
                9D:44:AA:2B:9B:4C:66:4C:20:C5:32:B2:EA:08:13:13:69:17:49:B1
            X509v3 Authority Key Identifier: 
                keyid:FF:8B:FC:A5:69:36:2F:62:3B:D4:1B:ED:58:2F:E9:77:3D:29:81:83

            Authority Information Access: 
                CA Issuers - URI:http://url-for-aia/Root.cer

            X509v3 CRL Distribution Points: 

                Full Name:
                  URI:http://url-for-crl/Root.crl

            X509v3 Key Usage: critical
                Certificate Sign, CRL Sign
            X509v3 Basic Constraints: critical
                CA:TRUE
    Signature Algorithm: sha256WithRSAEncryption
         9d:5b:2c:cd:9e:8e:cf:21:58:6e:83:c8:d2:87:e2:3c:32:55:
         c9:35:9d:71:4a:15:bc:b0:ea:1e:4d:13:53:39:4d:7a:de:ec:
         bf:15:d3:fd:b0:a4:c0:bb:b2:0e:f7:f8:92:41:50:00:c0:87:
         43:e2:06:7c:1f:47:75:77:a9:23:bd:27:30:19:bd:cc:04:8c:
         74:4b:8f:51:64:89:c3:2a:a2:24:82:1a:23:6e:ee:18:ea:77:
         59:84:35:67:cd:12:51:97:f3:3a:3c:8f:3d:f9:0d:f8:e8:d6:
         dc:51:95:19:84:88:40:1a:c2:35:e6:d5:ff:03:20:13:7b:80:
         17:0b:6a:e1:eb:90:53:20:3b:ae:4c:da:08:11:15:45:71:56:
         6c:ad:7e:6f:b3:b3:8a:c3:8c:ee:d0:a9:48:4a:cd:f0:28:c9:
         63:d6:96:6c:66:dd:42:1c:87:1e:91:67:c9:a7:7e:95:75:4a:
         8c:e8:fd:69:30:0e:02:ba:e8:43:e0:eb:e5:73:fc:c3:38:27:
         f7:6a:18:d6:1b:bc:4f:5a:c4:09:7d:c4:17:e1:e1:62:f6:a6:
         fc:d3:5c:cd:72:72:08:53:9c:e5:33:17:5d:93:74:68:47:f0:
         db:0c:7b:f9:e6:85:ef:96:57:f2:df:1c:3a:24:6a:56:1f:1c:
         a6:17:5a:f6
-----BEGIN CERTIFICATE-----
MIIDdjCCAl6gAwIBAgIUFopfsQHI9EW9qoxO+Qzb5mhFRncwDQYJKoZIhvcNAQEL
BQAwDzENMAsGA1UEAwwEUm9vdDAeFw0yMDExMDMxMjAwMDBaFw0yMTExMDMxMjAw
MDBaMA0xCzAJBgNVBAMMAk8xMIIBIjANBgkqhkiG9w0BAQEFAAOCAQ8AMIIBCgKC
AQEA1ayAFLnSeK1DyFFpPph/vahXo2UoGW1E5Wpd98Ix7U5mqfHSnTa2uZg/2FTS
6Xc6+5/VyfnJ31632jRC9svjZuC3WoKbdyAPsRceKnBi0meboFTyG6SfBre7r1pv
VbF++CDL7eRV2BjLTw7DxF0T/P3XsRzFWIHP6VZ4Z3iq/gYpnjQ+S/5+7CIWFdYr
w24XI0IbKC4hEzGLijMjomf2I7zyaJtxkpJ/IwlTlmc8/sKBiJ8AVZNNs+cCARNI
SzQSRW5IaoghM/9aA0lWomlkl6RTDpBzhMa4KLBbwGeF/Zol8s8OeSR4IIDwLK5G
jsXPKb5/9X1zbaoLEFlP1kbxvwIDAQABo4HLMIHIMB0GA1UdDgQWBBSdRKorm0xm
TCDFMrLqCBMTaRdJsTAfBgNVHSMEGDAWgBT/i/ylaTYvYjvUG+1YL+l3PSmBgzA3
BggrBgEFBQcBAQQrMCkwJwYIKwYBBQUHMAKGG2h0dHA6Ly91cmwtZm9yLWFpYS9S
b290LmNlcjAsBgNVHR8EJTAjMCGgH6AdhhtodHRwOi8vdXJsLWZvci1jcmwvUm9v
dC5jcmwwDgYDVR0PAQH/BAQDAgEGMA8GA1UdEwEB/wQFMAMBAf8wDQYJKoZIhvcN
AQELBQADggEBAJ1bLM2ejs8hWG6DyNKH4jwyVck1nXFKFbyw6h5NE1M5TXre7L8V
0/2wpMC7sg73+JJBUADAh0PiBnwfR3V3qSO9JzAZvcwEjHRLj1FkicMqoiSCGiNu
7hjqd1mENWfNElGX8zo8jz35Dfjo1txRlRmEiEAawjXm1f8DIBN7gBcLauHrkFMg
O65M2ggRFUVxVmytfm+zs4rDjO7QqUhKzfAoyWPWlmxm3UIchx6RZ8mnfpV1Sozo
/WkwDgK66EPg6+Vz/MM4J/dqGNYbvE9axAl9xBfh4WL2pvzTXM1ycghTnOUzF12T
dGhH8NsMe/nmhe+WV/LfHDokalYfHKYXWvY=
-----END CERTIFICATE-----
