Certificate:
    Data:
        Version: 3 (0x2)
        Serial Number:
            16:8a:5f:b1:01:c8:f4:45:bd:aa:8c:4e:f9:0c:db:e6:68:45:46:75
        Signature Algorithm: sha256WithRSAEncryption
        Issuer: CN=Root
        Validity
            Not Before: Nov  3 12:00:00 2020 GMT
            Not After : Nov  3 12:00:00 2021 GMT
        Subject: O=\x00O\x001
        Subject Public Key Info:
            Public Key Algorithm: rsaEncryption
                RSA Public-Key: (2048 bit)
                Modulus:
                    00:d5:ac:80:14:b9:d2:78:ad:43:c8:51:69:3e:98:
                    7f:bd:a8:57:a3:65:28:19:6d:44:e5:6a:5d:f7:c2:
                    31:ed:4e:66:a9:f1:d2:9d:36:b6:b9:98:3f:d8:54:
                    d2:e9:77:3a:fb:9f:d5:c9:f9:c9:df:5e:b7:da:34:
                    42:f6:cb:e3:66:e0:b7:5a:82:9b:77:20:0f:b1:17:
                    1e:2a:70:62:d2:67:9b:a0:54:f2:1b:a4:9f:06:b7:
                    bb:af:5a:6f:55:b1:7e:f8:20:cb:ed:e4:55:d8:18:
                    cb:4f:0e:c3:c4:5d:13:fc:fd:d7:b1:1c:c5:58:81:
                    cf:e9:56:78:67:78:aa:fe:06:29:9e:34:3e:4b:fe:
                    7e:ec:22:16:15:d6:2b:c3:6e:17:23:42:1b:28:2e:
                    21:13:31:8b:8a:33:23:a2:67:f6:23:bc:f2:68:9b:
                    71:92:92:7f:23:09:53:96:67:3c:fe:c2:81:88:9f:
                    00:55:93:4d:b3:e7:02:01:13:48:4b:34:12:45:6e:
                    48:6a:88:21:33:ff:5a:03:49:56:a2:69:64:97:a4:
                    53:0e:90:73:84:c6:b8:28:b0:5b:c0:67:85:fd:9a:
                    25:f2:cf:0e:79:24:78:20:80:f0:2c:ae:46:8e:c5:
                    cf:29:be:7f:f5:7d:73:6d:aa:0b:10:59:4f:d6:46:
                    f1:bf
                Exponent: 65537 (0x10001)
        X509v3 extensions:
            X509v3 Subject Key Identifier: 
                9D:44:AA:2B:9B:4C:66:4C:20:C5:32:B2:EA:08:13:13:69:17:49:B1
            X509v3 Authority Key Identifier: 
                keyid:FF:8B:FC:A5:69:36:2F:62:3B:D4:1B:ED:58:2F:E9:77:3D:29:81:83

            Authority Information Access: 
                CA Issuers - URI:http://url-for-aia/Root.cer

            X509v3 CRL Distribution Points: 

                Full Name:
                  URI:http://url-for-crl/Root.crl

            X509v3 Key Usage: critical
                Certificate Sign, CRL Sign
            X509v3 Basic Constraints: critical
                CA:TRUE
    Signature Algorithm: sha256WithRSAEncryption
         91:7f:23:09:bb:f5:0f:bb:7e:14:09:20:79:69:16:24:9f:cd:
         9b:1b:3e:4e:38:de:98:f5:67:3e:27:b9:fd:d5:18:5a:5a:96:
         67:2d:9e:2b:ad:be:9e:a4:87:69:be:91:81:20:92:62:d1:31:
         e5:f4:e2:db:f8:66:9f:69:5c:7a:0b:20:69:40:92:bb:2d:b6:
         5e:d6:4e:b8:81:ca:09:b7:69:60:f9:f4:57:aa:9a:21:d0:13:
         0c:e2:41:58:f8:a5:1e:84:0a:a8:5c:be:4d:87:e7:50:ba:c6:
         6d:5d:7b:c5:93:f0:72:0e:91:a1:27:d7:14:02:23:4f:95:f9:
         88:98:9d:31:c7:88:72:1d:ac:89:e0:fd:5b:6b:27:9b:10:1c:
         78:90:bf:34:1f:ad:28:de:0f:0f:20:33:8c:51:a0:32:06:f7:
         f1:12:ed:11:67:94:e6:85:c6:10:61:6a:0a:6b:4d:fe:ea:3a:
         fe:95:29:e0:d3:6c:c3:31:cc:b7:ed:47:be:4b:7d:0d:96:de:
         a2:6a:69:c4:f7:a5:b5:ba:00:09:f5:d2:00:6d:44:74:45:e7:
         49:36:14:e8:0c:70:0f:e1:fd:f1:66:83:c5:4c:ba:96:fb:26:
         85:c7:94:69:3e:46:b4:5e:d6:da:c7:b7:00:9f:3f:40:a7:8b:
         3b:c5:d6:3c
-----BEGIN CERTIFICATE-----
MIIDeDCCAmCgAwIBAgIUFopfsQHI9EW9qoxO+Qzb5mhFRnUwDQYJKoZIhvcNAQEL
BQAwDzENMAsGA1UEAwwEUm9vdDAeFw0yMDExMDMxMjAwMDBaFw0yMTExMDMxMjAw
MDBaMA8xDTALBgNVBAoeBABPADEwggEiMA0GCSqGSIb3DQEBAQUAA4IBDwAwggEK
AoIBAQDVrIAUudJ4rUPIUWk+mH+9qFejZSgZbUTlal33wjHtTmap8dKdNra5mD/Y
VNLpdzr7n9XJ+cnfXrfaNEL2y+Nm4Ldagpt3IA+xFx4qcGLSZ5ugVPIbpJ8Gt7uv
Wm9VsX74IMvt5FXYGMtPDsPEXRP8/dexHMVYgc/pVnhneKr+BimeND5L/n7sIhYV
1ivDbhcjQhsoLiETMYuKMyOiZ/YjvPJom3GSkn8jCVOWZzz+woGInwBVk02z5wIB
E0hLNBJFbkhqiCEz/1oDSVaiaWSXpFMOkHOExrgosFvAZ4X9miXyzw55JHgggPAs
rkaOxc8pvn/1fXNtqgsQWU/WRvG/AgMBAAGjgcswgcgwHQYDVR0OBBYEFJ1Eqiub
TGZMIMUysuoIExNpF0mxMB8GA1UdIwQYMBaAFP+L/KVpNi9iO9Qb7Vgv6Xc9KYGD
MDcGCCsGAQUFBwEBBCswKTAnBggrBgEFBQcwAoYbaHR0cDovL3VybC1mb3ItYWlh
L1Jvb3QuY2VyMCwGA1UdHwQlMCMwIaAfoB2GG2h0dHA6Ly91cmwtZm9yLWNybC9S
b290LmNybDAOBgNVHQ8BAf8EBAMCAQYwDwYDVR0TAQH/BAUwAwEB/zANBgkqhkiG
9w0BAQsFAAOCAQEAkX8jCbv1D7t+FAkgeWkWJJ/Nmxs+TjjemPVnPie5/dUYWlqW
Zy2eK62+nqSHab6RgSCSYtEx5fTi2/hmn2lcegsgaUCSuy22XtZOuIHKCbdpYPn0
V6qaIdATDOJBWPilHoQKqFy+TYfnULrGbV17xZPwcg6RoSfXFAIjT5X5iJidMceI
ch2sieD9W2snmxAceJC/NB+tKN4PDyAzjFGgMgb38RLtEWeU5oXGEGFqCmtN/uo6
/pUp4NNswzHMt+1Hvkt9DZbeomppxPeltboACfXSAG1EdEXnSTYU6AxwD+H98WaD
xUy6lvsmhceUaT5GtF7W2se3AJ8/QKeLO8XWPA==
-----END CERTIFICATE-----
