Certificate:
    Data:
        Version: 3 (0x2)
        Serial Number:
            16:8a:5f:b1:01:c8:f4:45:bd:aa:8c:4e:f9:0c:db:e6:68:45:46:72
        Signature Algorithm: sha256WithRSAEncryption
        Issuer: CN=Root
        Validity
            Not Before: Oct  5 12:00:00 2021 GMT
            Not After : Oct  5 12:00:00 2022 GMT
        Subject: O=O1, O=O2
        Subject Public Key Info:
            Public Key Algorithm: rsaEncryption
                RSA Public-Key: (2048 bit)
                Modulus:
                    00:d5:ac:80:14:b9:d2:78:ad:43:c8:51:69:3e:98:
                    7f:bd:a8:57:a3:65:28:19:6d:44:e5:6a:5d:f7:c2:
                    31:ed:4e:66:a9:f1:d2:9d:36:b6:b9:98:3f:d8:54:
                    d2:e9:77:3a:fb:9f:d5:c9:f9:c9:df:5e:b7:da:34:
                    42:f6:cb:e3:66:e0:b7:5a:82:9b:77:20:0f:b1:17:
                    1e:2a:70:62:d2:67:9b:a0:54:f2:1b:a4:9f:06:b7:
                    bb:af:5a:6f:55:b1:7e:f8:20:cb:ed:e4:55:d8:18:
                    cb:4f:0e:c3:c4:5d:13:fc:fd:d7:b1:1c:c5:58:81:
                    cf:e9:56:78:67:78:aa:fe:06:29:9e:34:3e:4b:fe:
                    7e:ec:22:16:15:d6:2b:c3:6e:17:23:42:1b:28:2e:
                    21:13:31:8b:8a:33:23:a2:67:f6:23:bc:f2:68:9b:
                    71:92:92:7f:23:09:53:96:67:3c:fe:c2:81:88:9f:
                    00:55:93:4d:b3:e7:02:01:13:48:4b:34:12:45:6e:
                    48:6a:88:21:33:ff:5a:03:49:56:a2:69:64:97:a4:
                    53:0e:90:73:84:c6:b8:28:b0:5b:c0:67:85:fd:9a:
                    25:f2:cf:0e:79:24:78:20:80:f0:2c:ae:46:8e:c5:
                    cf:29:be:7f:f5:7d:73:6d:aa:0b:10:59:4f:d6:46:
                    f1:bf
                Exponent: 65537 (0x10001)
        X509v3 extensions:
            X509v3 Subject Key Identifier: 
                9D:44:AA:2B:9B:4C:66:4C:20:C5:32:B2:EA:08:13:13:69:17:49:B1
            X509v3 Authority Key Identifier: 
                keyid:FF:8B:FC:A5:69:36:2F:62:3B:D4:1B:ED:58:2F:E9:77:3D:29:81:83

            Authority Information Access: 
                CA Issuers - URI:http://url-for-aia/Root.cer

            X509v3 CRL Distribution Points: 

                Full Name:
                  URI:http://url-for-crl/Root.crl

            X509v3 Key Usage: critical
                Certificate Sign, CRL Sign
            X509v3 Basic Constraints: critical
                CA:TRUE
    Signature Algorithm: sha256WithRSAEncryption
         7b:34:d0:bd:72:73:d5:b8:c2:0d:d0:f7:03:28:d0:8c:a4:ed:
         5c:09:c5:64:10:be:48:b5:67:07:dd:9f:d3:af:98:9f:3e:65:
         a5:e7:11:b8:4a:80:ab:77:4a:95:bc:29:19:e3:e3:55:3c:13:
         50:f3:28:ab:7a:e4:38:2b:3c:00:2b:ff:51:12:0e:3a:7c:b1:
         b4:06:f6:bf:5f:53:30:5e:ac:67:d4:b6:3b:3c:86:10:bb:72:
         d5:57:b8:db:f8:66:6a:5c:49:db:91:a4:eb:72:99:14:3a:2e:
         01:2f:94:58:21:b0:8f:ec:b0:44:fb:fe:0b:f2:26:61:00:7b:
         18:97:19:6d:f5:1a:04:09:76:e9:63:66:bd:97:50:a8:4e:8c:
         19:bf:17:00:45:4e:22:a5:35:fe:09:c8:c1:f7:a5:e5:69:29:
         f2:d9:59:74:b1:6f:3c:7e:c3:73:e0:08:f1:7b:c9:63:e6:73:
         f9:48:25:bc:28:8c:2c:8e:62:ea:3a:65:f0:1e:a8:0c:55:c1:
         8a:14:a2:b7:04:a8:0e:04:5b:05:4b:49:a5:f0:3f:c7:04:c0:
         5c:0f:4d:f9:db:99:8b:5f:a5:2c:b4:2f:23:c2:45:b1:d4:8a:
         ad:35:fe:f4:0e:49:a7:ae:ff:09:a4:d7:a8:49:14:c8:7d:f9:
         e4:6c:32:5d
-----BEGIN CERTIFICATE-----
MIIDgzCCAmugAwIBAgIUFopfsQHI9EW9qoxO+Qzb5mhFRnIwDQYJKoZIhvcNAQEL
BQAwDzENMAsGA1UEAwwEUm9vdDAeFw0yMTEwMDUxMjAwMDBaFw0yMjEwMDUxMjAw
MDBaMBoxCzAJBgNVBAoMAk8xMQswCQYDVQQKDAJPMjCCASIwDQYJKoZIhvcNAQEB
BQADggEPADCCAQoCggEBANWsgBS50nitQ8hRaT6Yf72oV6NlKBltROVqXffCMe1O
Zqnx0p02trmYP9hU0ul3Ovuf1cn5yd9et9o0QvbL42bgt1qCm3cgD7EXHipwYtJn
m6BU8huknwa3u69ab1Wxfvggy+3kVdgYy08Ow8RdE/z917EcxViBz+lWeGd4qv4G
KZ40Pkv+fuwiFhXWK8NuFyNCGyguIRMxi4ozI6Jn9iO88mibcZKSfyMJU5ZnPP7C
gYifAFWTTbPnAgETSEs0EkVuSGqIITP/WgNJVqJpZJekUw6Qc4TGuCiwW8Bnhf2a
JfLPDnkkeCCA8CyuRo7Fzym+f/V9c22qCxBZT9ZG8b8CAwEAAaOByzCByDAdBgNV
HQ4EFgQUnUSqK5tMZkwgxTKy6ggTE2kXSbEwHwYDVR0jBBgwFoAU/4v8pWk2L2I7
1BvtWC/pdz0pgYMwNwYIKwYBBQUHAQEEKzApMCcGCCsGAQUFBzAChhtodHRwOi8v
dXJsLWZvci1haWEvUm9vdC5jZXIwLAYDVR0fBCUwIzAhoB+gHYYbaHR0cDovL3Vy
bC1mb3ItY3JsL1Jvb3QuY3JsMA4GA1UdDwEB/wQEAwIBBjAPBgNVHRMBAf8EBTAD
AQH/MA0GCSqGSIb3DQEBCwUAA4IBAQB7NNC9cnPVuMIN0PcDKNCMpO1cCcVkEL5I
tWcH3Z/Tr5ifPmWl5xG4SoCrd0qVvCkZ4+NVPBNQ8yireuQ4KzwAK/9REg46fLG0
Bva/X1MwXqxn1LY7PIYQu3LVV7jb+GZqXEnbkaTrcpkUOi4BL5RYIbCP7LBE+/4L
8iZhAHsYlxlt9RoECXbpY2a9l1CoTowZvxcARU4ipTX+CcjB96XlaSny2Vl0sW88
fsNz4Ajxe8lj5nP5SCW8KIwsjmLqOmXwHqgMVcGKFKK3BKgOBFsFS0ml8D/HBMBc
D03525mLX6UstC8jwkWx1IqtNf70Dkmnrv8JpNeoSRTIffnkbDJd
-----END CERTIFICATE-----
