Certificate:
    Data:
        Version: 3 (0x2)
        Serial Number:
            16:8a:5f:b1:01:c8:f4:45:bd:aa:8c:4e:f9:0c:db:e6:68:45:46:75
        Signature Algorithm: sha256WithRSAEncryption
        Issuer: CN=Root
        Validity
            Not Before: Oct  5 12:00:00 2021 GMT
            Not After : Oct  5 12:00:00 2022 GMT
        Subject: O=\x00O\x001
        Subject Public Key Info:
            Public Key Algorithm: rsaEncryption
                RSA Public-Key: (2048 bit)
                Modulus:
                    00:d5:ac:80:14:b9:d2:78:ad:43:c8:51:69:3e:98:
                    7f:bd:a8:57:a3:65:28:19:6d:44:e5:6a:5d:f7:c2:
                    31:ed:4e:66:a9:f1:d2:9d:36:b6:b9:98:3f:d8:54:
                    d2:e9:77:3a:fb:9f:d5:c9:f9:c9:df:5e:b7:da:34:
                    42:f6:cb:e3:66:e0:b7:5a:82:9b:77:20:0f:b1:17:
                    1e:2a:70:62:d2:67:9b:a0:54:f2:1b:a4:9f:06:b7:
                    bb:af:5a:6f:55:b1:7e:f8:20:cb:ed:e4:55:d8:18:
                    cb:4f:0e:c3:c4:5d:13:fc:fd:d7:b1:1c:c5:58:81:
                    cf:e9:56:78:67:78:aa:fe:06:29:9e:34:3e:4b:fe:
                    7e:ec:22:16:15:d6:2b:c3:6e:17:23:42:1b:28:2e:
                    21:13:31:8b:8a:33:23:a2:67:f6:23:bc:f2:68:9b:
                    71:92:92:7f:23:09:53:96:67:3c:fe:c2:81:88:9f:
                    00:55:93:4d:b3:e7:02:01:13:48:4b:34:12:45:6e:
                    48:6a:88:21:33:ff:5a:03:49:56:a2:69:64:97:a4:
                    53:0e:90:73:84:c6:b8:28:b0:5b:c0:67:85:fd:9a:
                    25:f2:cf:0e:79:24:78:20:80:f0:2c:ae:46:8e:c5:
                    cf:29:be:7f:f5:7d:73:6d:aa:0b:10:59:4f:d6:46:
                    f1:bf
                Exponent: 65537 (0x10001)
        X509v3 extensions:
            X509v3 Subject Key Identifier: 
                9D:44:AA:2B:9B:4C:66:4C:20:C5:32:B2:EA:08:13:13:69:17:49:B1
            X509v3 Authority Key Identifier: 
                keyid:FF:8B:FC:A5:69:36:2F:62:3B:D4:1B:ED:58:2F:E9:77:3D:29:81:83

            Authority Information Access: 
                CA Issuers - URI:http://url-for-aia/Root.cer

            X509v3 CRL Distribution Points: 

                Full Name:
                  URI:http://url-for-crl/Root.crl

            X509v3 Key Usage: critical
                Certificate Sign, CRL Sign
            X509v3 Basic Constraints: critical
                CA:TRUE
    Signature Algorithm: sha256WithRSAEncryption
         89:f1:29:6a:76:6c:8a:8a:fc:cb:ff:2b:5a:b1:e5:26:96:2c:
         fa:69:9c:97:c8:26:a1:a5:16:68:83:ca:c4:52:57:18:6e:d1:
         65:39:08:0b:02:a8:f0:23:90:29:3f:52:75:1f:1c:35:c8:21:
         2d:a4:fd:55:b5:2c:0f:0d:84:56:68:d9:ef:2c:a0:3a:c7:f8:
         b7:4b:fb:6d:1e:2c:9c:e5:76:ef:d7:45:80:6b:92:30:a0:4d:
         83:6e:91:bd:f8:62:70:53:f9:75:cf:33:47:8c:52:04:5e:87:
         02:36:29:17:63:e4:03:27:d8:3f:56:0f:f4:2e:cb:29:b6:2d:
         60:6d:ab:c7:99:59:f4:16:4e:0f:27:96:2e:e0:a4:bb:fe:78:
         6f:b6:32:b5:6d:ac:99:8a:c7:31:eb:6d:af:d7:b6:6c:e7:2f:
         3c:db:4b:ca:e9:67:3c:63:b0:a6:c3:c1:d0:b0:82:88:02:05:
         71:b4:0a:80:84:a6:05:2a:66:e2:60:22:d7:f7:dc:9b:00:65:
         89:93:12:f8:52:c2:7f:85:8e:81:cf:c1:d3:54:33:92:c1:65:
         0e:ea:db:06:0d:f0:47:63:81:06:96:7e:7b:21:14:9c:fd:d1:
         da:9f:19:24:2e:76:92:1e:69:32:5e:a0:ac:80:7e:e8:be:cb:
         02:11:ce:89
-----BEGIN CERTIFICATE-----
MIIDeDCCAmCgAwIBAgIUFopfsQHI9EW9qoxO+Qzb5mhFRnUwDQYJKoZIhvcNAQEL
BQAwDzENMAsGA1UEAwwEUm9vdDAeFw0yMTEwMDUxMjAwMDBaFw0yMjEwMDUxMjAw
MDBaMA8xDTALBgNVBAoeBABPADEwggEiMA0GCSqGSIb3DQEBAQUAA4IBDwAwggEK
AoIBAQDVrIAUudJ4rUPIUWk+mH+9qFejZSgZbUTlal33wjHtTmap8dKdNra5mD/Y
VNLpdzr7n9XJ+cnfXrfaNEL2y+Nm4Ldagpt3IA+xFx4qcGLSZ5ugVPIbpJ8Gt7uv
Wm9VsX74IMvt5FXYGMtPDsPEXRP8/dexHMVYgc/pVnhneKr+BimeND5L/n7sIhYV
1ivDbhcjQhsoLiETMYuKMyOiZ/YjvPJom3GSkn8jCVOWZzz+woGInwBVk02z5wIB
E0hLNBJFbkhqiCEz/1oDSVaiaWSXpFMOkHOExrgosFvAZ4X9miXyzw55JHgggPAs
rkaOxc8pvn/1fXNtqgsQWU/WRvG/AgMBAAGjgcswgcgwHQYDVR0OBBYEFJ1Eqiub
TGZMIMUysuoIExNpF0mxMB8GA1UdIwQYMBaAFP+L/KVpNi9iO9Qb7Vgv6Xc9KYGD
MDcGCCsGAQUFBwEBBCswKTAnBggrBgEFBQcwAoYbaHR0cDovL3VybC1mb3ItYWlh
L1Jvb3QuY2VyMCwGA1UdHwQlMCMwIaAfoB2GG2h0dHA6Ly91cmwtZm9yLWNybC9S
b290LmNybDAOBgNVHQ8BAf8EBAMCAQYwDwYDVR0TAQH/BAUwAwEB/zANBgkqhkiG
9w0BAQsFAAOCAQEAifEpanZsior8y/8rWrHlJpYs+mmcl8gmoaUWaIPKxFJXGG7R
ZTkICwKo8COQKT9SdR8cNcghLaT9VbUsDw2EVmjZ7yygOsf4t0v7bR4snOV279dF
gGuSMKBNg26RvfhicFP5dc8zR4xSBF6HAjYpF2PkAyfYP1YP9C7LKbYtYG2rx5lZ
9BZODyeWLuCku/54b7YytW2smYrHMettr9e2bOcvPNtLyulnPGOwpsPB0LCCiAIF
cbQKgISmBSpm4mAi1/fcmwBliZMS+FLCf4WOgc/B01QzksFlDurbBg3wR2OBBpZ+
eyEUnP3R2p8ZJC52kh5pMl6grIB+6L7LAhHOiQ==
-----END CERTIFICATE-----
