Certificate:
    Data:
        Version: 3 (0x2)
        Serial Number:
            16:8a:5f:b1:01:c8:f4:45:bd:aa:8c:4e:f9:0c:db:e6:68:45:46:76
        Signature Algorithm: sha256WithRSAEncryption
        Issuer: CN=Root
        Validity
            Not Before: Oct  5 12:00:00 2021 GMT
            Not After : Oct  5 12:00:00 2022 GMT
        Subject: O=O1, O=O2
        Subject Public Key Info:
            Public Key Algorithm: rsaEncryption
                RSA Public-Key: (2048 bit)
                Modulus:
                    00:d5:ac:80:14:b9:d2:78:ad:43:c8:51:69:3e:98:
                    7f:bd:a8:57:a3:65:28:19:6d:44:e5:6a:5d:f7:c2:
                    31:ed:4e:66:a9:f1:d2:9d:36:b6:b9:98:3f:d8:54:
                    d2:e9:77:3a:fb:9f:d5:c9:f9:c9:df:5e:b7:da:34:
                    42:f6:cb:e3:66:e0:b7:5a:82:9b:77:20:0f:b1:17:
                    1e:2a:70:62:d2:67:9b:a0:54:f2:1b:a4:9f:06:b7:
                    bb:af:5a:6f:55:b1:7e:f8:20:cb:ed:e4:55:d8:18:
                    cb:4f:0e:c3:c4:5d:13:fc:fd:d7:b1:1c:c5:58:81:
                    cf:e9:56:78:67:78:aa:fe:06:29:9e:34:3e:4b:fe:
                    7e:ec:22:16:15:d6:2b:c3:6e:17:23:42:1b:28:2e:
                    21:13:31:8b:8a:33:23:a2:67:f6:23:bc:f2:68:9b:
                    71:92:92:7f:23:09:53:96:67:3c:fe:c2:81:88:9f:
                    00:55:93:4d:b3:e7:02:01:13:48:4b:34:12:45:6e:
                    48:6a:88:21:33:ff:5a:03:49:56:a2:69:64:97:a4:
                    53:0e:90:73:84:c6:b8:28:b0:5b:c0:67:85:fd:9a:
                    25:f2:cf:0e:79:24:78:20:80:f0:2c:ae:46:8e:c5:
                    cf:29:be:7f:f5:7d:73:6d:aa:0b:10:59:4f:d6:46:
                    f1:bf
                Exponent: 65537 (0x10001)
        X509v3 extensions:
            X509v3 Subject Key Identifier: 
                9D:44:AA:2B:9B:4C:66:4C:20:C5:32:B2:EA:08:13:13:69:17:49:B1
            X509v3 Authority Key Identifier: 
                keyid:FF:8B:FC:A5:69:36:2F:62:3B:D4:1B:ED:58:2F:E9:77:3D:29:81:83

            Authority Information Access: 
                CA Issuers - URI:http://url-for-aia/Root.cer

            X509v3 CRL Distribution Points: 

                Full Name:
                  URI:http://url-for-crl/Root.crl

            X509v3 Key Usage: critical
                Certificate Sign, CRL Sign
            X509v3 Basic Constraints: critical
                CA:TRUE
    Signature Algorithm: sha256WithRSAEncryption
         65:12:2b:05:8b:15:a7:9b:a9:cd:cc:c9:8b:69:93:06:10:33:
         0f:f8:9a:2a:1d:fb:22:5f:1d:31:e2:99:d5:71:f9:8d:fb:4b:
         1d:47:eb:d6:85:71:f5:f4:82:e9:da:8f:3c:0b:95:c9:9c:20:
         e7:44:2c:81:c9:58:c1:7f:80:f9:c7:61:f0:65:25:d4:c9:ff:
         28:53:bf:d5:7c:ca:15:56:80:a0:8e:98:33:bf:94:b6:22:3d:
         8e:3e:dc:e1:21:c6:cb:9f:ef:e1:22:1d:2d:71:75:55:e4:76:
         0c:20:6b:3f:06:ee:46:aa:cb:ab:85:f2:2e:cb:13:69:76:ef:
         fd:c9:13:55:06:df:f4:1e:38:d5:96:22:2c:30:83:40:82:e3:
         56:25:ad:e0:71:4e:e1:b0:42:1d:59:3c:a3:8d:7e:83:2e:a7:
         d5:1b:4d:14:e0:9b:1c:35:0c:01:74:80:b8:5e:f1:61:ad:7a:
         fc:e8:07:3f:94:7b:31:8f:8b:7e:63:d7:55:fc:d9:6d:f7:a3:
         07:3b:08:29:bd:68:1a:e1:f6:9b:f7:58:09:21:05:13:61:4e:
         b8:e2:9e:85:fd:2f:96:23:18:51:8e:99:9f:a0:83:64:90:44:
         b3:17:4c:5b:b9:3a:fc:bd:2a:a7:2e:19:5a:9e:ea:8a:f7:38:
         9b:3e:ab:92
-----BEGIN CERTIFICATE-----
MIIDgTCCAmmgAwIBAgIUFopfsQHI9EW9qoxO+Qzb5mhFRnYwDQYJKoZIhvcNAQEL
BQAwDzENMAsGA1UEAwwEUm9vdDAeFw0yMTEwMDUxMjAwMDBaFw0yMjEwMDUxMjAw
MDBaMBgxFjAJBgNVBAoMAk8xMAkGA1UECgwCTzIwggEiMA0GCSqGSIb3DQEBAQUA
A4IBDwAwggEKAoIBAQDVrIAUudJ4rUPIUWk+mH+9qFejZSgZbUTlal33wjHtTmap
8dKdNra5mD/YVNLpdzr7n9XJ+cnfXrfaNEL2y+Nm4Ldagpt3IA+xFx4qcGLSZ5ug
VPIbpJ8Gt7uvWm9VsX74IMvt5FXYGMtPDsPEXRP8/dexHMVYgc/pVnhneKr+Bime
ND5L/n7sIhYV1ivDbhcjQhsoLiETMYuKMyOiZ/YjvPJom3GSkn8jCVOWZzz+woGI
nwBVk02z5wIBE0hLNBJFbkhqiCEz/1oDSVaiaWSXpFMOkHOExrgosFvAZ4X9miXy
zw55JHgggPAsrkaOxc8pvn/1fXNtqgsQWU/WRvG/AgMBAAGjgcswgcgwHQYDVR0O
BBYEFJ1EqiubTGZMIMUysuoIExNpF0mxMB8GA1UdIwQYMBaAFP+L/KVpNi9iO9Qb
7Vgv6Xc9KYGDMDcGCCsGAQUFBwEBBCswKTAnBggrBgEFBQcwAoYbaHR0cDovL3Vy
bC1mb3ItYWlhL1Jvb3QuY2VyMCwGA1UdHwQlMCMwIaAfoB2GG2h0dHA6Ly91cmwt
Zm9yLWNybC9Sb290LmNybDAOBgNVHQ8BAf8EBAMCAQYwDwYDVR0TAQH/BAUwAwEB
/zANBgkqhkiG9w0BAQsFAAOCAQEAZRIrBYsVp5upzczJi2mTBhAzD/iaKh37Il8d
MeKZ1XH5jftLHUfr1oVx9fSC6dqPPAuVyZwg50QsgclYwX+A+cdh8GUl1Mn/KFO/
1XzKFVaAoI6YM7+UtiI9jj7c4SHGy5/v4SIdLXF1VeR2DCBrPwbuRqrLq4XyLssT
aXbv/ckTVQbf9B441ZYiLDCDQILjViWt4HFO4bBCHVk8o41+gy6n1RtNFOCbHDUM
AXSAuF7xYa16/OgHP5R7MY+LfmPXVfzZbfejBzsIKb1oGuH2m/dYCSEFE2FOuOKe
hf0vliMYUY6Zn6CDZJBEsxdMW7k6/L0qpy4ZWp7qivc4mz6rkg==
-----END CERTIFICATE-----
