Certificate:
    Data:
        Version: 3 (0x2)
        Serial Number:
            16:8a:5f:b1:01:c8:f4:45:bd:aa:8c:4e:f9:0c:db:e6:68:45:46:74
        Signature Algorithm: sha256WithRSAEncryption
        Issuer: CN=Root
        Validity
            Not Before: Oct  5 12:00:00 2021 GMT
            Not After : Oct  5 12:00:00 2022 GMT
        Subject: O=O3
        Subject Public Key Info:
            Public Key Algorithm: rsaEncryption
                RSA Public-Key: (2048 bit)
                Modulus:
                    00:d5:ac:80:14:b9:d2:78:ad:43:c8:51:69:3e:98:
                    7f:bd:a8:57:a3:65:28:19:6d:44:e5:6a:5d:f7:c2:
                    31:ed:4e:66:a9:f1:d2:9d:36:b6:b9:98:3f:d8:54:
                    d2:e9:77:3a:fb:9f:d5:c9:f9:c9:df:5e:b7:da:34:
                    42:f6:cb:e3:66:e0:b7:5a:82:9b:77:20:0f:b1:17:
                    1e:2a:70:62:d2:67:9b:a0:54:f2:1b:a4:9f:06:b7:
                    bb:af:5a:6f:55:b1:7e:f8:20:cb:ed:e4:55:d8:18:
                    cb:4f:0e:c3:c4:5d:13:fc:fd:d7:b1:1c:c5:58:81:
                    cf:e9:56:78:67:78:aa:fe:06:29:9e:34:3e:4b:fe:
                    7e:ec:22:16:15:d6:2b:c3:6e:17:23:42:1b:28:2e:
                    21:13:31:8b:8a:33:23:a2:67:f6:23:bc:f2:68:9b:
                    71:92:92:7f:23:09:53:96:67:3c:fe:c2:81:88:9f:
                    00:55:93:4d:b3:e7:02:01:13:48:4b:34:12:45:6e:
                    48:6a:88:21:33:ff:5a:03:49:56:a2:69:64:97:a4:
                    53:0e:90:73:84:c6:b8:28:b0:5b:c0:67:85:fd:9a:
                    25:f2:cf:0e:79:24:78:20:80:f0:2c:ae:46:8e:c5:
                    cf:29:be:7f:f5:7d:73:6d:aa:0b:10:59:4f:d6:46:
                    f1:bf
                Exponent: 65537 (0x10001)
        X509v3 extensions:
            X509v3 Subject Key Identifier: 
                9D:44:AA:2B:9B:4C:66:4C:20:C5:32:B2:EA:08:13:13:69:17:49:B1
            X509v3 Authority Key Identifier: 
                keyid:FF:8B:FC:A5:69:36:2F:62:3B:D4:1B:ED:58:2F:E9:77:3D:29:81:83

            Authority Information Access: 
                CA Issuers - URI:http://url-for-aia/Root.cer

            X509v3 CRL Distribution Points: 

                Full Name:
                  URI:http://url-for-crl/Root.crl

            X509v3 Key Usage: critical
                Certificate Sign, CRL Sign
            X509v3 Basic Constraints: critical
                CA:TRUE
    Signature Algorithm: sha256WithRSAEncryption
         ba:d2:fd:7c:a6:de:21:41:55:68:46:05:d8:2f:45:c8:69:00:
         b2:70:31:61:06:57:b3:e8:6a:e0:98:54:27:45:40:69:ef:b0:
         04:0b:bb:70:38:c8:18:a1:5a:4f:1d:80:60:e7:dd:48:ed:ea:
         38:90:f5:cf:26:16:e8:30:ab:fd:dd:68:5c:de:75:9c:19:60:
         c5:cb:b5:4f:5d:d2:1c:cf:52:a5:ae:90:9e:c8:22:07:a5:1d:
         0e:79:bb:d1:88:b1:5d:72:80:9f:3b:7e:b8:fd:b3:08:5f:38:
         d1:cc:d1:df:4c:63:75:c9:9d:92:1f:25:b7:89:9e:cf:cf:b7:
         10:27:1f:cc:cc:2b:ed:e1:ec:87:ed:a0:2d:b4:2f:fd:7c:ba:
         47:72:2d:8b:d9:d0:74:c9:30:b7:a9:22:01:52:25:2d:e2:e3:
         84:97:07:5e:af:08:6c:e3:6d:64:9a:fa:38:a7:be:fe:d2:b8:
         88:31:49:0d:78:6f:49:4c:4c:c0:93:03:2e:bd:11:53:7e:e3:
         de:6f:f5:2a:70:f7:b6:5d:fc:df:15:d9:ab:3e:ca:ba:b7:26:
         6d:58:25:83:b9:ba:dc:69:91:73:95:d6:fa:e5:7d:fd:11:ae:
         c8:ec:68:33:9b:d2:00:c0:3d:37:f6:2f:9d:45:91:4c:9d:e1:
         9d:3f:fa:b8
-----BEGIN CERTIFICATE-----
MIIDdjCCAl6gAwIBAgIUFopfsQHI9EW9qoxO+Qzb5mhFRnQwDQYJKoZIhvcNAQEL
BQAwDzENMAsGA1UEAwwEUm9vdDAeFw0yMTEwMDUxMjAwMDBaFw0yMjEwMDUxMjAw
MDBaMA0xCzAJBgNVBAoMAk8zMIIBIjANBgkqhkiG9w0BAQEFAAOCAQ8AMIIBCgKC
AQEA1ayAFLnSeK1DyFFpPph/vahXo2UoGW1E5Wpd98Ix7U5mqfHSnTa2uZg/2FTS
6Xc6+5/VyfnJ31632jRC9svjZuC3WoKbdyAPsRceKnBi0meboFTyG6SfBre7r1pv
VbF++CDL7eRV2BjLTw7DxF0T/P3XsRzFWIHP6VZ4Z3iq/gYpnjQ+S/5+7CIWFdYr
w24XI0IbKC4hEzGLijMjomf2I7zyaJtxkpJ/IwlTlmc8/sKBiJ8AVZNNs+cCARNI
SzQSRW5IaoghM/9aA0lWomlkl6RTDpBzhMa4KLBbwGeF/Zol8s8OeSR4IIDwLK5G
jsXPKb5/9X1zbaoLEFlP1kbxvwIDAQABo4HLMIHIMB0GA1UdDgQWBBSdRKorm0xm
TCDFMrLqCBMTaRdJsTAfBgNVHSMEGDAWgBT/i/ylaTYvYjvUG+1YL+l3PSmBgzA3
BggrBgEFBQcBAQQrMCkwJwYIKwYBBQUHMAKGG2h0dHA6Ly91cmwtZm9yLWFpYS9S
b290LmNlcjAsBgNVHR8EJTAjMCGgH6AdhhtodHRwOi8vdXJsLWZvci1jcmwvUm9v
dC5jcmwwDgYDVR0PAQH/BAQDAgEGMA8GA1UdEwEB/wQFMAMBAf8wDQYJKoZIhvcN
AQELBQADggEBALrS/Xym3iFBVWhGBdgvRchpALJwMWEGV7PoauCYVCdFQGnvsAQL
u3A4yBihWk8dgGDn3Ujt6jiQ9c8mFugwq/3daFzedZwZYMXLtU9d0hzPUqWukJ7I
IgelHQ55u9GIsV1ygJ87frj9swhfONHM0d9MY3XJnZIfJbeJns/PtxAnH8zMK+3h
7IftoC20L/18ukdyLYvZ0HTJMLepIgFSJS3i44SXB16vCGzjbWSa+jinvv7SuIgx
SQ14b0lMTMCTAy69EVN+495v9Spw97Zd/N8V2as+yrq3Jm1YJYO5utxpkXOV1vrl
ff0RrsjsaDOb0gDAPTf2L51FkUyd4Z0/+rg=
-----END CERTIFICATE-----
