Certificate:
    Data:
        Version: 3 (0x2)
        Serial Number:
            16:8a:5f:b1:01:c8:f4:45:bd:aa:8c:4e:f9:0c:db:e6:68:45:46:77
        Signature Algorithm: sha256WithRSAEncryption
        Issuer: CN=Root
        Validity
            Not Before: Oct  5 12:00:00 2021 GMT
            Not After : Oct  5 12:00:00 2022 GMT
        Subject: CN=O1
        Subject Public Key Info:
            Public Key Algorithm: rsaEncryption
                RSA Public-Key: (2048 bit)
                Modulus:
                    00:d5:ac:80:14:b9:d2:78:ad:43:c8:51:69:3e:98:
                    7f:bd:a8:57:a3:65:28:19:6d:44:e5:6a:5d:f7:c2:
                    31:ed:4e:66:a9:f1:d2:9d:36:b6:b9:98:3f:d8:54:
                    d2:e9:77:3a:fb:9f:d5:c9:f9:c9:df:5e:b7:da:34:
                    42:f6:cb:e3:66:e0:b7:5a:82:9b:77:20:0f:b1:17:
                    1e:2a:70:62:d2:67:9b:a0:54:f2:1b:a4:9f:06:b7:
                    bb:af:5a:6f:55:b1:7e:f8:20:cb:ed:e4:55:d8:18:
                    cb:4f:0e:c3:c4:5d:13:fc:fd:d7:b1:1c:c5:58:81:
                    cf:e9:56:78:67:78:aa:fe:06:29:9e:34:3e:4b:fe:
                    7e:ec:22:16:15:d6:2b:c3:6e:17:23:42:1b:28:2e:
                    21:13:31:8b:8a:33:23:a2:67:f6:23:bc:f2:68:9b:
                    71:92:92:7f:23:09:53:96:67:3c:fe:c2:81:88:9f:
                    00:55:93:4d:b3:e7:02:01:13:48:4b:34:12:45:6e:
                    48:6a:88:21:33:ff:5a:03:49:56:a2:69:64:97:a4:
                    53:0e:90:73:84:c6:b8:28:b0:5b:c0:67:85:fd:9a:
                    25:f2:cf:0e:79:24:78:20:80:f0:2c:ae:46:8e:c5:
                    cf:29:be:7f:f5:7d:73:6d:aa:0b:10:59:4f:d6:46:
                    f1:bf
                Exponent: 65537 (0x10001)
        X509v3 extensions:
            X509v3 Subject Key Identifier: 
                9D:44:AA:2B:9B:4C:66:4C:20:C5:32:B2:EA:08:13:13:69:17:49:B1
            X509v3 Authority Key Identifier: 
                keyid:FF:8B:FC:A5:69:36:2F:62:3B:D4:1B:ED:58:2F:E9:77:3D:29:81:83

            Authority Information Access: 
                CA Issuers - URI:http://url-for-aia/Root.cer

            X509v3 CRL Distribution Points: 

                Full Name:
                  URI:http://url-for-crl/Root.crl

            X509v3 Key Usage: critical
                Certificate Sign, CRL Sign
            X509v3 Basic Constraints: critical
                CA:TRUE
    Signature Algorithm: sha256WithRSAEncryption
         6c:72:67:41:b1:f0:fd:7e:8e:24:a3:e7:d6:6d:26:68:bc:0c:
         ef:8d:29:0b:e7:90:12:25:dd:ed:50:25:f4:f4:dd:51:ab:9c:
         31:6b:58:d3:dd:29:2b:6e:13:f7:61:af:2e:92:ac:2f:bb:6e:
         42:8f:3d:8b:6f:1e:ce:46:53:b5:50:b9:4f:cf:61:38:08:8d:
         61:ff:bf:f3:65:e8:d2:e1:9a:3b:7a:55:35:11:bb:f8:56:8a:
         90:b0:99:53:4a:7e:e8:44:7f:84:2d:b2:1e:9b:f6:b3:e2:87:
         db:f1:8b:fc:50:52:67:fa:e4:7c:2e:c2:66:b6:19:95:4d:a8:
         63:af:10:d5:68:45:7c:a7:99:4e:de:cf:25:1a:0f:e7:52:72:
         cd:9c:f7:95:fe:b8:5e:3a:8d:9a:5a:93:7e:26:d5:96:60:8f:
         05:b1:bf:96:11:de:5d:a8:77:6f:02:61:24:4a:5f:36:25:9a:
         8e:2b:0d:fb:df:74:e8:30:9b:af:14:0b:a9:cc:3d:d8:a1:24:
         0b:79:f8:3d:73:62:2f:42:11:f0:cd:03:32:02:95:1d:29:f6:
         f0:47:66:3b:b5:d6:12:a3:0e:b8:e9:7e:17:8b:07:ae:b1:cd:
         b9:6d:e5:c8:ea:fe:42:66:5a:af:13:aa:a8:95:48:6e:b2:bd:
         ad:a7:0e:20
-----BEGIN CERTIFICATE-----
MIIDdjCCAl6gAwIBAgIUFopfsQHI9EW9qoxO+Qzb5mhFRncwDQYJKoZIhvcNAQEL
BQAwDzENMAsGA1UEAwwEUm9vdDAeFw0yMTEwMDUxMjAwMDBaFw0yMjEwMDUxMjAw
MDBaMA0xCzAJBgNVBAMMAk8xMIIBIjANBgkqhkiG9w0BAQEFAAOCAQ8AMIIBCgKC
AQEA1ayAFLnSeK1DyFFpPph/vahXo2UoGW1E5Wpd98Ix7U5mqfHSnTa2uZg/2FTS
6Xc6+5/VyfnJ31632jRC9svjZuC3WoKbdyAPsRceKnBi0meboFTyG6SfBre7r1pv
VbF++CDL7eRV2BjLTw7DxF0T/P3XsRzFWIHP6VZ4Z3iq/gYpnjQ+S/5+7CIWFdYr
w24XI0IbKC4hEzGLijMjomf2I7zyaJtxkpJ/IwlTlmc8/sKBiJ8AVZNNs+cCARNI
SzQSRW5IaoghM/9aA0lWomlkl6RTDpBzhMa4KLBbwGeF/Zol8s8OeSR4IIDwLK5G
jsXPKb5/9X1zbaoLEFlP1kbxvwIDAQABo4HLMIHIMB0GA1UdDgQWBBSdRKorm0xm
TCDFMrLqCBMTaRdJsTAfBgNVHSMEGDAWgBT/i/ylaTYvYjvUG+1YL+l3PSmBgzA3
BggrBgEFBQcBAQQrMCkwJwYIKwYBBQUHMAKGG2h0dHA6Ly91cmwtZm9yLWFpYS9S
b290LmNlcjAsBgNVHR8EJTAjMCGgH6AdhhtodHRwOi8vdXJsLWZvci1jcmwvUm9v
dC5jcmwwDgYDVR0PAQH/BAQDAgEGMA8GA1UdEwEB/wQFMAMBAf8wDQYJKoZIhvcN
AQELBQADggEBAGxyZ0Gx8P1+jiSj59ZtJmi8DO+NKQvnkBIl3e1QJfT03VGrnDFr
WNPdKStuE/dhry6SrC+7bkKPPYtvHs5GU7VQuU/PYTgIjWH/v/Nl6NLhmjt6VTUR
u/hWipCwmVNKfuhEf4Qtsh6b9rPih9vxi/xQUmf65Hwuwma2GZVNqGOvENVoRXyn
mU7ezyUaD+dScs2c95X+uF46jZpak34m1ZZgjwWxv5YR3l2od28CYSRKXzYlmo4r
DfvfdOgwm68UC6nMPdihJAt5+D1zYi9CEfDNAzIClR0p9vBHZju11hKjDrjpfheL
B66xzblt5cjq/kJmWq8TqqiVSG6yva2nDiA=
-----END CERTIFICATE-----
