Certificate:
    Data:
        Version: 3 (0x2)
        Serial Number:
            16:8a:5f:b1:01:c8:f4:45:bd:aa:8c:4e:f9:0c:db:e6:68:45:46:76
        Signature Algorithm: sha256WithRSAEncryption
        Issuer: CN=Root
        Validity
            Not Before: Nov  3 12:00:00 2020 GMT
            Not After : Nov  3 12:00:00 2021 GMT
        Subject: O=O1, O=O2
        Subject Public Key Info:
            Public Key Algorithm: rsaEncryption
                RSA Public-Key: (2048 bit)
                Modulus:
                    00:d5:ac:80:14:b9:d2:78:ad:43:c8:51:69:3e:98:
                    7f:bd:a8:57:a3:65:28:19:6d:44:e5:6a:5d:f7:c2:
                    31:ed:4e:66:a9:f1:d2:9d:36:b6:b9:98:3f:d8:54:
                    d2:e9:77:3a:fb:9f:d5:c9:f9:c9:df:5e:b7:da:34:
                    42:f6:cb:e3:66:e0:b7:5a:82:9b:77:20:0f:b1:17:
                    1e:2a:70:62:d2:67:9b:a0:54:f2:1b:a4:9f:06:b7:
                    bb:af:5a:6f:55:b1:7e:f8:20:cb:ed:e4:55:d8:18:
                    cb:4f:0e:c3:c4:5d:13:fc:fd:d7:b1:1c:c5:58:81:
                    cf:e9:56:78:67:78:aa:fe:06:29:9e:34:3e:4b:fe:
                    7e:ec:22:16:15:d6:2b:c3:6e:17:23:42:1b:28:2e:
                    21:13:31:8b:8a:33:23:a2:67:f6:23:bc:f2:68:9b:
                    71:92:92:7f:23:09:53:96:67:3c:fe:c2:81:88:9f:
                    00:55:93:4d:b3:e7:02:01:13:48:4b:34:12:45:6e:
                    48:6a:88:21:33:ff:5a:03:49:56:a2:69:64:97:a4:
                    53:0e:90:73:84:c6:b8:28:b0:5b:c0:67:85:fd:9a:
                    25:f2:cf:0e:79:24:78:20:80:f0:2c:ae:46:8e:c5:
                    cf:29:be:7f:f5:7d:73:6d:aa:0b:10:59:4f:d6:46:
                    f1:bf
                Exponent: 65537 (0x10001)
        X509v3 extensions:
            X509v3 Subject Key Identifier: 
                9D:44:AA:2B:9B:4C:66:4C:20:C5:32:B2:EA:08:13:13:69:17:49:B1
            X509v3 Authority Key Identifier: 
                keyid:FF:8B:FC:A5:69:36:2F:62:3B:D4:1B:ED:58:2F:E9:77:3D:29:81:83

            Authority Information Access: 
                CA Issuers - URI:http://url-for-aia/Root.cer

            X509v3 CRL Distribution Points: 

                Full Name:
                  URI:http://url-for-crl/Root.crl

            X509v3 Key Usage: critical
                Certificate Sign, CRL Sign
            X509v3 Basic Constraints: critical
                CA:TRUE
    Signature Algorithm: sha256WithRSAEncryption
         55:fa:c5:6f:97:6c:5c:09:c2:8e:91:fb:10:5f:00:82:0c:b9:
         1d:51:b5:a2:85:49:e5:e9:54:d2:d7:33:93:b8:0a:70:71:3a:
         9d:40:25:57:35:d0:dc:0d:73:9c:df:66:e0:7b:e8:0d:b7:c0:
         da:da:09:20:5f:37:fa:94:d8:aa:b8:8d:97:1a:5f:45:55:d2:
         46:49:41:38:24:7a:43:7c:ef:e7:7e:6e:33:3b:3c:b8:50:3d:
         3b:3c:df:1c:7c:b2:03:9e:30:ee:0f:7f:79:7f:32:c9:92:83:
         a7:78:e3:52:6e:63:b2:15:36:9c:3a:3e:b9:db:6b:cb:a0:10:
         9a:fa:27:3e:6f:7f:cd:45:c6:b2:bb:41:f9:ca:85:44:96:29:
         c7:74:21:11:a3:0e:06:5a:6e:a4:58:f2:04:f4:4e:19:f3:33:
         50:af:92:25:93:b0:74:fb:c4:38:b7:a6:e5:14:28:09:9e:be:
         f6:99:ed:08:50:3e:04:01:57:0b:6b:04:b5:05:ec:2e:f5:ee:
         30:26:76:2c:19:59:6e:2e:5a:39:d5:1f:ad:0c:11:52:41:07:
         9a:55:31:07:03:73:dd:cf:ab:46:ab:dd:1c:d9:bb:28:b2:fc:
         6b:44:80:76:da:f7:8a:98:11:23:f7:c7:44:1d:05:2a:39:f9:
         cf:e0:43:43
-----BEGIN CERTIFICATE-----
MIIDgTCCAmmgAwIBAgIUFopfsQHI9EW9qoxO+Qzb5mhFRnYwDQYJKoZIhvcNAQEL
BQAwDzENMAsGA1UEAwwEUm9vdDAeFw0yMDExMDMxMjAwMDBaFw0yMTExMDMxMjAw
MDBaMBgxFjAJBgNVBAoMAk8xMAkGA1UECgwCTzIwggEiMA0GCSqGSIb3DQEBAQUA
A4IBDwAwggEKAoIBAQDVrIAUudJ4rUPIUWk+mH+9qFejZSgZbUTlal33wjHtTmap
8dKdNra5mD/YVNLpdzr7n9XJ+cnfXrfaNEL2y+Nm4Ldagpt3IA+xFx4qcGLSZ5ug
VPIbpJ8Gt7uvWm9VsX74IMvt5FXYGMtPDsPEXRP8/dexHMVYgc/pVnhneKr+Bime
ND5L/n7sIhYV1ivDbhcjQhsoLiETMYuKMyOiZ/YjvPJom3GSkn8jCVOWZzz+woGI
nwBVk02z5wIBE0hLNBJFbkhqiCEz/1oDSVaiaWSXpFMOkHOExrgosFvAZ4X9miXy
zw55JHgggPAsrkaOxc8pvn/1fXNtqgsQWU/WRvG/AgMBAAGjgcswgcgwHQYDVR0O
BBYEFJ1EqiubTGZMIMUysuoIExNpF0mxMB8GA1UdIwQYMBaAFP+L/KVpNi9iO9Qb
7Vgv6Xc9KYGDMDcGCCsGAQUFBwEBBCswKTAnBggrBgEFBQcwAoYbaHR0cDovL3Vy
bC1mb3ItYWlhL1Jvb3QuY2VyMCwGA1UdHwQlMCMwIaAfoB2GG2h0dHA6Ly91cmwt
Zm9yLWNybC9Sb290LmNybDAOBgNVHQ8BAf8EBAMCAQYwDwYDVR0TAQH/BAUwAwEB
/zANBgkqhkiG9w0BAQsFAAOCAQEAVfrFb5dsXAnCjpH7EF8Aggy5HVG1ooVJ5elU
0tczk7gKcHE6nUAlVzXQ3A1znN9m4HvoDbfA2toJIF83+pTYqriNlxpfRVXSRklB
OCR6Q3zv535uMzs8uFA9OzzfHHyyA54w7g9/eX8yyZKDp3jjUm5jshU2nDo+udtr
y6AQmvonPm9/zUXGsrtB+cqFRJYpx3QhEaMOBlpupFjyBPROGfMzUK+SJZOwdPvE
OLem5RQoCZ6+9pntCFA+BAFXC2sEtQXsLvXuMCZ2LBlZbi5aOdUfrQwRUkEHmlUx
BwNz3c+rRqvdHNm7KLL8a0SAdtr3ipgRI/fHRB0FKjn5z+BDQw==
-----END CERTIFICATE-----
