Certificate:
    Data:
        Version: 3 (0x2)
        Serial Number:
            16:8a:5f:b1:01:c8:f4:45:bd:aa:8c:4e:f9:0c:db:e6:68:45:46:74
        Signature Algorithm: sha256WithRSAEncryption
        Issuer: CN=Root
        Validity
            Not Before: Nov  3 12:00:00 2020 GMT
            Not After : Nov  3 12:00:00 2021 GMT
        Subject: O=O3
        Subject Public Key Info:
            Public Key Algorithm: rsaEncryption
                RSA Public-Key: (2048 bit)
                Modulus:
                    00:d5:ac:80:14:b9:d2:78:ad:43:c8:51:69:3e:98:
                    7f:bd:a8:57:a3:65:28:19:6d:44:e5:6a:5d:f7:c2:
                    31:ed:4e:66:a9:f1:d2:9d:36:b6:b9:98:3f:d8:54:
                    d2:e9:77:3a:fb:9f:d5:c9:f9:c9:df:5e:b7:da:34:
                    42:f6:cb:e3:66:e0:b7:5a:82:9b:77:20:0f:b1:17:
                    1e:2a:70:62:d2:67:9b:a0:54:f2:1b:a4:9f:06:b7:
                    bb:af:5a:6f:55:b1:7e:f8:20:cb:ed:e4:55:d8:18:
                    cb:4f:0e:c3:c4:5d:13:fc:fd:d7:b1:1c:c5:58:81:
                    cf:e9:56:78:67:78:aa:fe:06:29:9e:34:3e:4b:fe:
                    7e:ec:22:16:15:d6:2b:c3:6e:17:23:42:1b:28:2e:
                    21:13:31:8b:8a:33:23:a2:67:f6:23:bc:f2:68:9b:
                    71:92:92:7f:23:09:53:96:67:3c:fe:c2:81:88:9f:
                    00:55:93:4d:b3:e7:02:01:13:48:4b:34:12:45:6e:
                    48:6a:88:21:33:ff:5a:03:49:56:a2:69:64:97:a4:
                    53:0e:90:73:84:c6:b8:28:b0:5b:c0:67:85:fd:9a:
                    25:f2:cf:0e:79:24:78:20:80:f0:2c:ae:46:8e:c5:
                    cf:29:be:7f:f5:7d:73:6d:aa:0b:10:59:4f:d6:46:
                    f1:bf
                Exponent: 65537 (0x10001)
        X509v3 extensions:
            X509v3 Subject Key Identifier: 
                9D:44:AA:2B:9B:4C:66:4C:20:C5:32:B2:EA:08:13:13:69:17:49:B1
            X509v3 Authority Key Identifier: 
                keyid:FF:8B:FC:A5:69:36:2F:62:3B:D4:1B:ED:58:2F:E9:77:3D:29:81:83

            Authority Information Access: 
                CA Issuers - URI:http://url-for-aia/Root.cer

            X509v3 CRL Distribution Points: 

                Full Name:
                  URI:http://url-for-crl/Root.crl

            X509v3 Key Usage: critical
                Certificate Sign, CRL Sign
            X509v3 Basic Constraints: critical
                CA:TRUE
    Signature Algorithm: sha256WithRSAEncryption
         61:53:c4:86:53:05:28:01:dc:bb:37:fe:bf:47:7c:60:dc:d4:
         a0:19:81:3d:49:0d:df:9e:a2:00:ac:3d:5e:db:db:9f:17:f0:
         3f:3d:4b:16:37:c9:b3:d3:03:3f:61:c9:0f:80:df:64:cb:fb:
         c6:c5:d0:0c:d1:e4:a5:dd:03:36:01:9b:c4:8e:37:e7:ca:a8:
         c4:12:fe:82:8d:c7:0c:f5:06:43:d7:fa:1f:58:c6:7c:a7:cb:
         ec:0b:54:c9:07:c2:91:bf:ce:d8:15:c7:43:7e:8f:6b:cd:3b:
         2e:50:0a:be:d9:a7:6f:8a:43:ec:31:f6:1f:65:5e:4a:24:13:
         8a:24:04:9c:24:ad:e8:d3:45:44:67:30:5c:bb:e1:d7:68:f6:
         56:44:58:d6:6a:1c:33:1f:34:b8:e0:9b:b3:23:3b:10:a8:ef:
         e5:0c:a0:24:43:14:b8:d4:d6:58:74:f7:71:f5:af:94:f0:5c:
         a5:12:b2:45:a9:3c:e2:f2:42:62:89:5d:1b:cb:d5:9d:e9:a3:
         d9:f9:e2:ae:51:b0:4c:37:b1:3a:ab:cc:e2:8a:aa:ae:a6:3f:
         78:27:8a:c9:81:b2:18:e1:fc:d4:56:a8:5b:8f:80:38:e9:1d:
         76:0f:2b:17:9b:26:01:a6:70:9e:4b:e7:d3:f9:6c:5e:97:af:
         73:e5:e9:82
-----BEGIN CERTIFICATE-----
MIIDdjCCAl6gAwIBAgIUFopfsQHI9EW9qoxO+Qzb5mhFRnQwDQYJKoZIhvcNAQEL
BQAwDzENMAsGA1UEAwwEUm9vdDAeFw0yMDExMDMxMjAwMDBaFw0yMTExMDMxMjAw
MDBaMA0xCzAJBgNVBAoMAk8zMIIBIjANBgkqhkiG9w0BAQEFAAOCAQ8AMIIBCgKC
AQEA1ayAFLnSeK1DyFFpPph/vahXo2UoGW1E5Wpd98Ix7U5mqfHSnTa2uZg/2FTS
6Xc6+5/VyfnJ31632jRC9svjZuC3WoKbdyAPsRceKnBi0meboFTyG6SfBre7r1pv
VbF++CDL7eRV2BjLTw7DxF0T/P3XsRzFWIHP6VZ4Z3iq/gYpnjQ+S/5+7CIWFdYr
w24XI0IbKC4hEzGLijMjomf2I7zyaJtxkpJ/IwlTlmc8/sKBiJ8AVZNNs+cCARNI
SzQSRW5IaoghM/9aA0lWomlkl6RTDpBzhMa4KLBbwGeF/Zol8s8OeSR4IIDwLK5G
jsXPKb5/9X1zbaoLEFlP1kbxvwIDAQABo4HLMIHIMB0GA1UdDgQWBBSdRKorm0xm
TCDFMrLqCBMTaRdJsTAfBgNVHSMEGDAWgBT/i/ylaTYvYjvUG+1YL+l3PSmBgzA3
BggrBgEFBQcBAQQrMCkwJwYIKwYBBQUHMAKGG2h0dHA6Ly91cmwtZm9yLWFpYS9S
b290LmNlcjAsBgNVHR8EJTAjMCGgH6AdhhtodHRwOi8vdXJsLWZvci1jcmwvUm9v
dC5jcmwwDgYDVR0PAQH/BAQDAgEGMA8GA1UdEwEB/wQFMAMBAf8wDQYJKoZIhvcN
AQELBQADggEBAGFTxIZTBSgB3Ls3/r9HfGDc1KAZgT1JDd+eogCsPV7b258X8D89
SxY3ybPTAz9hyQ+A32TL+8bF0AzR5KXdAzYBm8SON+fKqMQS/oKNxwz1BkPX+h9Y
xnyny+wLVMkHwpG/ztgVx0N+j2vNOy5QCr7Zp2+KQ+wx9h9lXkokE4okBJwkrejT
RURnMFy74ddo9lZEWNZqHDMfNLjgm7MjOxCo7+UMoCRDFLjU1lh093H1r5TwXKUS
skWpPOLyQmKJXRvL1Z3po9n54q5RsEw3sTqrzOKKqq6mP3gnismBshjh/NRWqFuP
gDjpHXYPKxebJgGmcJ5L59P5bF6Xr3Pl6YI=
-----END CERTIFICATE-----
