Certificate:
    Data:
        Version: 3 (0x2)
        Serial Number:
            16:8a:5f:b1:01:c8:f4:45:bd:aa:8c:4e:f9:0c:db:e6:68:45:46:7e
        Signature Algorithm: sha256WithRSAEncryption
        Issuer: CN=Root
        Validity
            Not Before: Oct  5 12:00:00 2021 GMT
            Not After : Oct  5 12:00:00 2022 GMT
        Subject: CN=O1
        Subject Public Key Info:
            Public Key Algorithm: rsaEncryption
                RSA Public-Key: (2048 bit)
                Modulus:
                    00:ef:91:eb:bb:0f:0d:aa:35:93:6d:ed:c4:67:bd:
                    0f:d3:5e:d0:da:8c:7a:83:30:e5:92:af:fa:2a:84:
                    66:97:f1:2d:93:96:40:49:b2:6a:b8:c3:8c:ea:21:
                    8b:c5:6a:d9:91:e9:05:6c:e2:2e:48:56:84:33:ef:
                    a4:1f:e2:32:ec:d1:9a:61:56:e4:66:1f:f5:ef:51:
                    09:a1:85:e6:cf:d5:ce:2e:64:a1:02:a9:bf:50:7e:
                    a0:ac:fc:6a:71:6a:61:4b:08:03:34:a6:5c:0a:29:
                    03:a7:23:4c:1e:90:15:ae:cb:97:ad:47:1b:18:8a:
                    c4:71:3b:a6:f4:34:ff:d4:a2:54:67:c2:ed:67:85:
                    29:e8:de:4a:41:d2:49:57:e9:18:43:ec:d9:17:47:
                    f4:71:68:fe:5c:ac:8f:55:12:dd:80:60:8f:b6:e6:
                    da:34:fa:fb:52:57:17:ad:49:26:76:5a:f0:c0:7a:
                    0a:a3:05:ca:74:68:fa:99:77:ca:59:98:28:0b:2b:
                    76:1c:51:0e:1c:d1:d3:4b:06:5e:03:f7:b6:d6:3c:
                    a0:bc:73:ec:e0:75:ae:04:3f:af:24:57:6a:ad:7e:
                    75:65:98:73:8d:9c:14:86:17:d0:27:5f:eb:3b:8d:
                    f3:28:9f:49:e4:2a:18:fb:a5:52:4e:97:46:d1:95:
                    6f:97
                Exponent: 65537 (0x10001)
        X509v3 extensions:
            X509v3 Subject Key Identifier: 
                54:7C:D9:94:2E:53:89:05:22:9C:6D:7C:CB:79:32:C4:33:1D:89:67
            X509v3 Authority Key Identifier: 
                keyid:FF:8B:FC:A5:69:36:2F:62:3B:D4:1B:ED:58:2F:E9:77:3D:29:81:83

            Authority Information Access: 
                CA Issuers - URI:http://url-for-aia/Root.cer

            X509v3 CRL Distribution Points: 

                Full Name:
                  URI:http://url-for-crl/Root.crl

            X509v3 Key Usage: critical
                Digital Signature, Key Encipherment
            X509v3 Extended Key Usage: 
                TLS Web Server Authentication, TLS Web Client Authentication
    Signature Algorithm: sha256WithRSAEncryption
         84:4e:7a:e7:a4:d3:c1:6f:98:69:05:ce:d2:a9:c8:04:22:26:
         35:4b:7f:6b:6a:a4:eb:18:29:f4:4c:5f:ac:33:70:b8:78:67:
         14:40:25:be:ae:b3:3a:48:dd:e8:7b:51:60:14:ef:0a:31:61:
         29:59:0f:8f:32:d1:b3:ca:6e:0b:67:61:91:81:57:94:16:4a:
         38:50:2e:9b:9f:9e:4c:f1:14:12:6b:ea:fe:a9:c0:38:2e:f9:
         86:f6:11:df:42:c8:ff:0d:18:ad:f3:9e:54:09:9f:78:47:10:
         e0:5a:61:ea:a6:b7:38:5f:76:59:d3:c9:dd:bd:10:36:54:fd:
         e3:9e:00:3e:1e:3d:41:93:fc:af:80:db:2b:7b:a1:7c:e6:a5:
         59:ea:fd:3b:24:da:32:18:2b:46:fe:e2:ad:ef:3e:af:c7:54:
         34:9f:78:d4:37:a3:10:d2:60:61:ec:79:db:02:6d:f6:aa:45:
         73:9f:45:8e:6f:fd:cf:36:9d:1d:fc:6b:5e:77:48:e0:0b:9c:
         b7:8c:1a:eb:ec:99:97:9d:63:09:6d:6f:15:cc:a5:49:f6:72:
         82:c5:10:37:b8:b2:6a:07:cb:2c:f0:78:45:23:db:54:0e:be:
         29:bf:a6:72:0f:1c:33:bf:e3:47:8a:a3:5b:a1:db:a5:d1:36:
         b1:85:d4:7e
-----BEGIN CERTIFICATE-----
MIIDhDCCAmygAwIBAgIUFopfsQHI9EW9qoxO+Qzb5mhFRn4wDQYJKoZIhvcNAQEL
BQAwDzENMAsGA1UEAwwEUm9vdDAeFw0yMTEwMDUxMjAwMDBaFw0yMjEwMDUxMjAw
MDBaMA0xCzAJBgNVBAMMAk8xMIIBIjANBgkqhkiG9w0BAQEFAAOCAQ8AMIIBCgKC
AQEA75Hruw8NqjWTbe3EZ70P017Q2ox6gzDlkq/6KoRml/Etk5ZASbJquMOM6iGL
xWrZkekFbOIuSFaEM++kH+Iy7NGaYVbkZh/171EJoYXmz9XOLmShAqm/UH6grPxq
cWphSwgDNKZcCikDpyNMHpAVrsuXrUcbGIrEcTum9DT/1KJUZ8LtZ4Up6N5KQdJJ
V+kYQ+zZF0f0cWj+XKyPVRLdgGCPtubaNPr7UlcXrUkmdlrwwHoKowXKdGj6mXfK
WZgoCyt2HFEOHNHTSwZeA/e21jygvHPs4HWuBD+vJFdqrX51ZZhzjZwUhhfQJ1/r
O43zKJ9J5CoY+6VSTpdG0ZVvlwIDAQABo4HZMIHWMB0GA1UdDgQWBBRUfNmULlOJ
BSKcbXzLeTLEMx2JZzAfBgNVHSMEGDAWgBT/i/ylaTYvYjvUG+1YL+l3PSmBgzA3
BggrBgEFBQcBAQQrMCkwJwYIKwYBBQUHMAKGG2h0dHA6Ly91cmwtZm9yLWFpYS9S
b290LmNlcjAsBgNVHR8EJTAjMCGgH6AdhhtodHRwOi8vdXJsLWZvci1jcmwvUm9v
dC5jcmwwDgYDVR0PAQH/BAQDAgWgMB0GA1UdJQQWMBQGCCsGAQUFBwMBBggrBgEF
BQcDAjANBgkqhkiG9w0BAQsFAAOCAQEAhE5656TTwW+YaQXO0qnIBCImNUt/a2qk
6xgp9ExfrDNwuHhnFEAlvq6zOkjd6HtRYBTvCjFhKVkPjzLRs8puC2dhkYFXlBZK
OFAum5+eTPEUEmvq/qnAOC75hvYR30LI/w0YrfOeVAmfeEcQ4Fph6qa3OF92WdPJ
3b0QNlT9454APh49QZP8r4DbK3uhfOalWer9OyTaMhgrRv7ire8+r8dUNJ941Dej
ENJgYex52wJt9qpFc59Fjm/9zzadHfxrXndI4Auct4wa6+yZl51jCW1vFcylSfZy
gsUQN7iyagfLLPB4RSPbVA6+Kb+mcg8cM7/jR4qjW6HbpdE2sYXUfg==
-----END CERTIFICATE-----
