Certificate:
    Data:
        Version: 3 (0x2)
        Serial Number:
            16:8a:5f:b1:01:c8:f4:45:bd:aa:8c:4e:f9:0c:db:e6:68:45:46:7e
        Signature Algorithm: sha256WithRSAEncryption
        Issuer: CN=Root
        Validity
            Not Before: Nov  3 12:00:00 2020 GMT
            Not After : Nov  3 12:00:00 2021 GMT
        Subject: CN=O1
        Subject Public Key Info:
            Public Key Algorithm: rsaEncryption
                RSA Public-Key: (2048 bit)
                Modulus:
                    00:ef:91:eb:bb:0f:0d:aa:35:93:6d:ed:c4:67:bd:
                    0f:d3:5e:d0:da:8c:7a:83:30:e5:92:af:fa:2a:84:
                    66:97:f1:2d:93:96:40:49:b2:6a:b8:c3:8c:ea:21:
                    8b:c5:6a:d9:91:e9:05:6c:e2:2e:48:56:84:33:ef:
                    a4:1f:e2:32:ec:d1:9a:61:56:e4:66:1f:f5:ef:51:
                    09:a1:85:e6:cf:d5:ce:2e:64:a1:02:a9:bf:50:7e:
                    a0:ac:fc:6a:71:6a:61:4b:08:03:34:a6:5c:0a:29:
                    03:a7:23:4c:1e:90:15:ae:cb:97:ad:47:1b:18:8a:
                    c4:71:3b:a6:f4:34:ff:d4:a2:54:67:c2:ed:67:85:
                    29:e8:de:4a:41:d2:49:57:e9:18:43:ec:d9:17:47:
                    f4:71:68:fe:5c:ac:8f:55:12:dd:80:60:8f:b6:e6:
                    da:34:fa:fb:52:57:17:ad:49:26:76:5a:f0:c0:7a:
                    0a:a3:05:ca:74:68:fa:99:77:ca:59:98:28:0b:2b:
                    76:1c:51:0e:1c:d1:d3:4b:06:5e:03:f7:b6:d6:3c:
                    a0:bc:73:ec:e0:75:ae:04:3f:af:24:57:6a:ad:7e:
                    75:65:98:73:8d:9c:14:86:17:d0:27:5f:eb:3b:8d:
                    f3:28:9f:49:e4:2a:18:fb:a5:52:4e:97:46:d1:95:
                    6f:97
                Exponent: 65537 (0x10001)
        X509v3 extensions:
            X509v3 Subject Key Identifier: 
                54:7C:D9:94:2E:53:89:05:22:9C:6D:7C:CB:79:32:C4:33:1D:89:67
            X509v3 Authority Key Identifier: 
                keyid:FF:8B:FC:A5:69:36:2F:62:3B:D4:1B:ED:58:2F:E9:77:3D:29:81:83

            Authority Information Access: 
                CA Issuers - URI:http://url-for-aia/Root.cer

            X509v3 CRL Distribution Points: 

                Full Name:
                  URI:http://url-for-crl/Root.crl

            X509v3 Key Usage: critical
                Digital Signature, Key Encipherment
            X509v3 Extended Key Usage: 
                TLS Web Server Authentication, TLS Web Client Authentication
    Signature Algorithm: sha256WithRSAEncryption
         65:89:fc:c2:48:be:3f:14:28:c4:1f:22:9a:19:47:a8:99:1b:
         8b:ed:23:e8:87:3b:1f:39:f0:91:50:21:79:e2:08:5a:0c:2a:
         63:5f:2f:ca:41:39:1f:67:7b:3d:93:83:3b:f3:bc:52:2e:c5:
         f9:dd:e1:39:6e:a9:05:38:50:22:09:22:6e:75:e3:26:07:01:
         0b:80:be:ba:19:98:59:70:52:ce:77:02:5b:e7:e2:54:04:7e:
         20:cc:e3:9d:2a:3f:c4:cd:22:c1:d2:ce:8d:1b:ad:93:c2:25:
         f8:06:45:df:f4:dd:6a:6f:87:2f:d1:a5:a7:1a:0e:a6:20:62:
         fe:a0:d9:8b:a4:05:5d:47:38:6e:50:f3:de:4f:dd:4e:0f:bd:
         21:65:6a:b6:f2:b0:87:87:6c:a5:19:c5:bf:7d:36:d0:0c:a3:
         bf:b2:49:2a:ce:98:62:78:0e:ce:a7:c8:58:0e:91:f3:ba:f3:
         fe:91:21:e4:ed:08:fc:b6:96:3b:d8:77:8b:29:3f:55:08:3b:
         c1:ee:38:e6:c9:fb:b3:02:24:ca:79:54:8f:ed:09:eb:69:ee:
         20:49:2b:bd:86:21:a1:81:18:43:66:74:43:37:e4:66:62:3d:
         3d:8b:71:8b:ec:f9:39:53:6e:4c:80:b0:e7:a6:b9:6c:52:12:
         b6:c3:ac:37
-----BEGIN CERTIFICATE-----
MIIDhDCCAmygAwIBAgIUFopfsQHI9EW9qoxO+Qzb5mhFRn4wDQYJKoZIhvcNAQEL
BQAwDzENMAsGA1UEAwwEUm9vdDAeFw0yMDExMDMxMjAwMDBaFw0yMTExMDMxMjAw
MDBaMA0xCzAJBgNVBAMMAk8xMIIBIjANBgkqhkiG9w0BAQEFAAOCAQ8AMIIBCgKC
AQEA75Hruw8NqjWTbe3EZ70P017Q2ox6gzDlkq/6KoRml/Etk5ZASbJquMOM6iGL
xWrZkekFbOIuSFaEM++kH+Iy7NGaYVbkZh/171EJoYXmz9XOLmShAqm/UH6grPxq
cWphSwgDNKZcCikDpyNMHpAVrsuXrUcbGIrEcTum9DT/1KJUZ8LtZ4Up6N5KQdJJ
V+kYQ+zZF0f0cWj+XKyPVRLdgGCPtubaNPr7UlcXrUkmdlrwwHoKowXKdGj6mXfK
WZgoCyt2HFEOHNHTSwZeA/e21jygvHPs4HWuBD+vJFdqrX51ZZhzjZwUhhfQJ1/r
O43zKJ9J5CoY+6VSTpdG0ZVvlwIDAQABo4HZMIHWMB0GA1UdDgQWBBRUfNmULlOJ
BSKcbXzLeTLEMx2JZzAfBgNVHSMEGDAWgBT/i/ylaTYvYjvUG+1YL+l3PSmBgzA3
BggrBgEFBQcBAQQrMCkwJwYIKwYBBQUHMAKGG2h0dHA6Ly91cmwtZm9yLWFpYS9S
b290LmNlcjAsBgNVHR8EJTAjMCGgH6AdhhtodHRwOi8vdXJsLWZvci1jcmwvUm9v
dC5jcmwwDgYDVR0PAQH/BAQDAgWgMB0GA1UdJQQWMBQGCCsGAQUFBwMBBggrBgEF
BQcDAjANBgkqhkiG9w0BAQsFAAOCAQEAZYn8wki+PxQoxB8imhlHqJkbi+0j6Ic7
HznwkVAheeIIWgwqY18vykE5H2d7PZODO/O8Ui7F+d3hOW6pBThQIgkibnXjJgcB
C4C+uhmYWXBSzncCW+fiVAR+IMzjnSo/xM0iwdLOjRutk8Il+AZF3/Tdam+HL9Gl
pxoOpiBi/qDZi6QFXUc4blDz3k/dTg+9IWVqtvKwh4dspRnFv3020Ayjv7JJKs6Y
YngOzqfIWA6R87rz/pEh5O0I/LaWO9h3iyk/VQg7we445sn7swIkynlUj+0J62nu
IEkrvYYhoYEYQ2Z0QzfkZmI9PYtxi+z5OVNuTICw56a5bFIStsOsNw==
-----END CERTIFICATE-----
