Certificate:
    Data:
        Version: 3 (0x2)
        Serial Number:
            16:8a:5f:b1:01:c8:f4:45:bd:aa:8c:4e:f9:0c:db:e6:68:45:46:7f
        Signature Algorithm: sha256WithRSAEncryption
        Issuer: CN=Root
        Validity
            Not Before: Nov  3 12:00:00 2020 GMT
            Not After : Nov  3 12:00:00 2021 GMT
        Subject: O=O1, O=O2, CN=Leaf
        Subject Public Key Info:
            Public Key Algorithm: rsaEncryption
                RSA Public-Key: (2048 bit)
                Modulus:
                    00:ef:91:eb:bb:0f:0d:aa:35:93:6d:ed:c4:67:bd:
                    0f:d3:5e:d0:da:8c:7a:83:30:e5:92:af:fa:2a:84:
                    66:97:f1:2d:93:96:40:49:b2:6a:b8:c3:8c:ea:21:
                    8b:c5:6a:d9:91:e9:05:6c:e2:2e:48:56:84:33:ef:
                    a4:1f:e2:32:ec:d1:9a:61:56:e4:66:1f:f5:ef:51:
                    09:a1:85:e6:cf:d5:ce:2e:64:a1:02:a9:bf:50:7e:
                    a0:ac:fc:6a:71:6a:61:4b:08:03:34:a6:5c:0a:29:
                    03:a7:23:4c:1e:90:15:ae:cb:97:ad:47:1b:18:8a:
                    c4:71:3b:a6:f4:34:ff:d4:a2:54:67:c2:ed:67:85:
                    29:e8:de:4a:41:d2:49:57:e9:18:43:ec:d9:17:47:
                    f4:71:68:fe:5c:ac:8f:55:12:dd:80:60:8f:b6:e6:
                    da:34:fa:fb:52:57:17:ad:49:26:76:5a:f0:c0:7a:
                    0a:a3:05:ca:74:68:fa:99:77:ca:59:98:28:0b:2b:
                    76:1c:51:0e:1c:d1:d3:4b:06:5e:03:f7:b6:d6:3c:
                    a0:bc:73:ec:e0:75:ae:04:3f:af:24:57:6a:ad:7e:
                    75:65:98:73:8d:9c:14:86:17:d0:27:5f:eb:3b:8d:
                    f3:28:9f:49:e4:2a:18:fb:a5:52:4e:97:46:d1:95:
                    6f:97
                Exponent: 65537 (0x10001)
        X509v3 extensions:
            X509v3 Subject Key Identifier: 
                54:7C:D9:94:2E:53:89:05:22:9C:6D:7C:CB:79:32:C4:33:1D:89:67
            X509v3 Authority Key Identifier: 
                keyid:FF:8B:FC:A5:69:36:2F:62:3B:D4:1B:ED:58:2F:E9:77:3D:29:81:83

            Authority Information Access: 
                CA Issuers - URI:http://url-for-aia/Root.cer

            X509v3 CRL Distribution Points: 

                Full Name:
                  URI:http://url-for-crl/Root.crl

            X509v3 Key Usage: critical
                Digital Signature, Key Encipherment
            X509v3 Extended Key Usage: 
                TLS Web Server Authentication, TLS Web Client Authentication
    Signature Algorithm: sha256WithRSAEncryption
         87:84:8b:68:b3:ed:f2:8b:39:e1:f9:e0:ba:e0:86:e2:23:de:
         7c:15:e2:99:dd:bc:3a:0c:b1:12:8e:a2:d7:32:52:90:93:fe:
         07:a0:69:48:12:70:90:08:22:38:66:c4:e2:98:9a:75:bb:5c:
         80:bc:b8:93:e0:d6:bc:f3:8b:6d:d5:41:4a:7a:85:e8:e6:c1:
         28:f8:af:59:5a:51:10:88:34:62:a3:ee:00:0d:71:06:32:56:
         6a:14:b0:88:f5:5f:f3:11:1d:8a:31:5e:c8:d7:d9:28:bc:e4:
         d1:70:59:ee:f5:5b:8c:e9:2a:79:bb:7e:7b:77:cf:90:b7:35:
         8a:1a:41:ac:95:85:80:e5:e8:3b:f5:bc:51:7c:40:9a:f6:8f:
         b3:df:b2:98:e2:42:b2:23:1e:71:0a:56:43:5d:42:c7:d1:1b:
         f7:fc:59:38:e4:b8:2b:5f:20:53:31:3a:70:8d:53:d5:62:f7:
         18:88:c4:b0:47:7f:89:8f:67:ed:96:14:87:1b:07:f1:90:98:
         29:67:17:cb:f1:1b:94:6c:6e:88:b4:0c:00:05:62:ac:db:3c:
         1b:ba:5c:d2:96:b7:de:3a:c3:d2:a3:c2:15:0c:6a:84:78:4a:
         fe:81:c8:d9:19:ba:e9:46:3f:86:da:f3:31:72:d8:97:14:59:
         95:d2:3e:75
-----BEGIN CERTIFICATE-----
MIIDoDCCAoigAwIBAgIUFopfsQHI9EW9qoxO+Qzb5mhFRn8wDQYJKoZIhvcNAQEL
BQAwDzENMAsGA1UEAwwEUm9vdDAeFw0yMDExMDMxMjAwMDBaFw0yMTExMDMxMjAw
MDBaMCkxCzAJBgNVBAoMAk8xMQswCQYDVQQKDAJPMjENMAsGA1UEAwwETGVhZjCC
ASIwDQYJKoZIhvcNAQEBBQADggEPADCCAQoCggEBAO+R67sPDao1k23txGe9D9Ne
0NqMeoMw5ZKv+iqEZpfxLZOWQEmyarjDjOohi8Vq2ZHpBWziLkhWhDPvpB/iMuzR
mmFW5GYf9e9RCaGF5s/Vzi5koQKpv1B+oKz8anFqYUsIAzSmXAopA6cjTB6QFa7L
l61HGxiKxHE7pvQ0/9SiVGfC7WeFKejeSkHSSVfpGEPs2RdH9HFo/lysj1US3YBg
j7bm2jT6+1JXF61JJnZa8MB6CqMFynRo+pl3ylmYKAsrdhxRDhzR00sGXgP3ttY8
oLxz7OB1rgQ/ryRXaq1+dWWYc42cFIYX0Cdf6zuN8yifSeQqGPulUk6XRtGVb5cC
AwEAAaOB2TCB1jAdBgNVHQ4EFgQUVHzZlC5TiQUinG18y3kyxDMdiWcwHwYDVR0j
BBgwFoAU/4v8pWk2L2I71BvtWC/pdz0pgYMwNwYIKwYBBQUHAQEEKzApMCcGCCsG
AQUFBzAChhtodHRwOi8vdXJsLWZvci1haWEvUm9vdC5jZXIwLAYDVR0fBCUwIzAh
oB+gHYYbaHR0cDovL3VybC1mb3ItY3JsL1Jvb3QuY3JsMA4GA1UdDwEB/wQEAwIF
oDAdBgNVHSUEFjAUBggrBgEFBQcDAQYIKwYBBQUHAwIwDQYJKoZIhvcNAQELBQAD
ggEBAIeEi2iz7fKLOeH54LrghuIj3nwV4pndvDoMsRKOotcyUpCT/gegaUgScJAI
IjhmxOKYmnW7XIC8uJPg1rzzi23VQUp6hejmwSj4r1laURCINGKj7gANcQYyVmoU
sIj1X/MRHYoxXsjX2Si85NFwWe71W4zpKnm7fnt3z5C3NYoaQayVhYDl6Dv1vFF8
QJr2j7PfspjiQrIjHnEKVkNdQsfRG/f8WTjkuCtfIFMxOnCNU9Vi9xiIxLBHf4mP
Z+2WFIcbB/GQmClnF8vxG5Rsboi0DAAFYqzbPBu6XNKWt946w9KjwhUMaoR4Sv6B
yNkZuulGP4ba8zFy2JcUWZXSPnU=
-----END CERTIFICATE-----
