Certificate:
    Data:
        Version: 3 (0x2)
        Serial Number:
            16:8a:5f:b1:01:c8:f4:45:bd:aa:8c:4e:f9:0c:db:e6:68:45:46:7f
        Signature Algorithm: sha256WithRSAEncryption
        Issuer: CN=Root
        Validity
            Not Before: Oct  5 12:00:00 2021 GMT
            Not After : Oct  5 12:00:00 2022 GMT
        Subject: O=O1, O=O2, CN=Leaf
        Subject Public Key Info:
            Public Key Algorithm: rsaEncryption
                RSA Public-Key: (2048 bit)
                Modulus:
                    00:ef:91:eb:bb:0f:0d:aa:35:93:6d:ed:c4:67:bd:
                    0f:d3:5e:d0:da:8c:7a:83:30:e5:92:af:fa:2a:84:
                    66:97:f1:2d:93:96:40:49:b2:6a:b8:c3:8c:ea:21:
                    8b:c5:6a:d9:91:e9:05:6c:e2:2e:48:56:84:33:ef:
                    a4:1f:e2:32:ec:d1:9a:61:56:e4:66:1f:f5:ef:51:
                    09:a1:85:e6:cf:d5:ce:2e:64:a1:02:a9:bf:50:7e:
                    a0:ac:fc:6a:71:6a:61:4b:08:03:34:a6:5c:0a:29:
                    03:a7:23:4c:1e:90:15:ae:cb:97:ad:47:1b:18:8a:
                    c4:71:3b:a6:f4:34:ff:d4:a2:54:67:c2:ed:67:85:
                    29:e8:de:4a:41:d2:49:57:e9:18:43:ec:d9:17:47:
                    f4:71:68:fe:5c:ac:8f:55:12:dd:80:60:8f:b6:e6:
                    da:34:fa:fb:52:57:17:ad:49:26:76:5a:f0:c0:7a:
                    0a:a3:05:ca:74:68:fa:99:77:ca:59:98:28:0b:2b:
                    76:1c:51:0e:1c:d1:d3:4b:06:5e:03:f7:b6:d6:3c:
                    a0:bc:73:ec:e0:75:ae:04:3f:af:24:57:6a:ad:7e:
                    75:65:98:73:8d:9c:14:86:17:d0:27:5f:eb:3b:8d:
                    f3:28:9f:49:e4:2a:18:fb:a5:52:4e:97:46:d1:95:
                    6f:97
                Exponent: 65537 (0x10001)
        X509v3 extensions:
            X509v3 Subject Key Identifier: 
                54:7C:D9:94:2E:53:89:05:22:9C:6D:7C:CB:79:32:C4:33:1D:89:67
            X509v3 Authority Key Identifier: 
                keyid:FF:8B:FC:A5:69:36:2F:62:3B:D4:1B:ED:58:2F:E9:77:3D:29:81:83

            Authority Information Access: 
                CA Issuers - URI:http://url-for-aia/Root.cer

            X509v3 CRL Distribution Points: 

                Full Name:
                  URI:http://url-for-crl/Root.crl

            X509v3 Key Usage: critical
                Digital Signature, Key Encipherment
            X509v3 Extended Key Usage: 
                TLS Web Server Authentication, TLS Web Client Authentication
    Signature Algorithm: sha256WithRSAEncryption
         6b:1b:ab:91:fa:8c:4a:95:cf:4c:29:87:2a:e5:c0:3c:3f:d5:
         b1:fa:bf:34:32:69:b2:b0:96:e7:5c:d9:0d:e1:44:ad:eb:f9:
         ce:e3:8d:7f:d5:18:fa:e6:09:81:15:9c:a0:e7:4d:50:9b:a1:
         13:e0:27:7d:9b:82:75:cb:e9:08:0c:b1:cc:9a:ce:4a:b9:c5:
         2d:5d:60:2b:fb:5a:66:45:ca:50:d3:ca:30:75:5f:8f:01:b4:
         bd:0b:34:f9:27:0d:06:0b:0b:52:e0:5e:b5:5d:39:d0:ab:6a:
         78:98:a8:57:c2:92:26:b0:29:da:50:42:1c:cb:d1:56:ba:73:
         c8:c3:00:45:28:45:fb:48:1d:a3:c7:ba:be:16:e7:e4:a7:bd:
         1e:ab:83:cf:5f:fd:e0:59:4b:74:de:69:ef:42:0d:39:27:20:
         f4:84:95:94:2c:54:81:51:f0:03:16:2e:87:99:5e:ff:f0:21:
         7b:1f:46:2a:72:09:17:51:3e:88:c8:18:eb:40:14:14:89:d8:
         45:d0:f3:c9:49:fd:c2:e2:4c:2a:48:c6:d1:72:a3:74:50:13:
         47:05:be:27:48:3c:01:4c:22:aa:29:12:a3:35:a4:b6:45:54:
         f2:99:a3:a7:a4:e8:67:1e:d0:92:17:1c:51:0d:f9:79:4b:c3:
         96:4e:30:7d
-----BEGIN CERTIFICATE-----
MIIDoDCCAoigAwIBAgIUFopfsQHI9EW9qoxO+Qzb5mhFRn8wDQYJKoZIhvcNAQEL
BQAwDzENMAsGA1UEAwwEUm9vdDAeFw0yMTEwMDUxMjAwMDBaFw0yMjEwMDUxMjAw
MDBaMCkxCzAJBgNVBAoMAk8xMQswCQYDVQQKDAJPMjENMAsGA1UEAwwETGVhZjCC
ASIwDQYJKoZIhvcNAQEBBQADggEPADCCAQoCggEBAO+R67sPDao1k23txGe9D9Ne
0NqMeoMw5ZKv+iqEZpfxLZOWQEmyarjDjOohi8Vq2ZHpBWziLkhWhDPvpB/iMuzR
mmFW5GYf9e9RCaGF5s/Vzi5koQKpv1B+oKz8anFqYUsIAzSmXAopA6cjTB6QFa7L
l61HGxiKxHE7pvQ0/9SiVGfC7WeFKejeSkHSSVfpGEPs2RdH9HFo/lysj1US3YBg
j7bm2jT6+1JXF61JJnZa8MB6CqMFynRo+pl3ylmYKAsrdhxRDhzR00sGXgP3ttY8
oLxz7OB1rgQ/ryRXaq1+dWWYc42cFIYX0Cdf6zuN8yifSeQqGPulUk6XRtGVb5cC
AwEAAaOB2TCB1jAdBgNVHQ4EFgQUVHzZlC5TiQUinG18y3kyxDMdiWcwHwYDVR0j
BBgwFoAU/4v8pWk2L2I71BvtWC/pdz0pgYMwNwYIKwYBBQUHAQEEKzApMCcGCCsG
AQUFBzAChhtodHRwOi8vdXJsLWZvci1haWEvUm9vdC5jZXIwLAYDVR0fBCUwIzAh
oB+gHYYbaHR0cDovL3VybC1mb3ItY3JsL1Jvb3QuY3JsMA4GA1UdDwEB/wQEAwIF
oDAdBgNVHSUEFjAUBggrBgEFBQcDAQYIKwYBBQUHAwIwDQYJKoZIhvcNAQELBQAD
ggEBAGsbq5H6jEqVz0wphyrlwDw/1bH6vzQyabKwludc2Q3hRK3r+c7jjX/VGPrm
CYEVnKDnTVCboRPgJ32bgnXL6QgMscyazkq5xS1dYCv7WmZFylDTyjB1X48BtL0L
NPknDQYLC1LgXrVdOdCraniYqFfCkiawKdpQQhzL0Va6c8jDAEUoRftIHaPHur4W
5+SnvR6rg89f/eBZS3Teae9CDTknIPSElZQsVIFR8AMWLoeZXv/wIXsfRipyCRdR
PojIGOtAFBSJ2EXQ88lJ/cLiTCpIxtFyo3RQE0cFvidIPAFMIqopEqM1pLZFVPKZ
o6ek6Gce0JIXHFEN+XlLw5ZOMH0=
-----END CERTIFICATE-----
