Certificate:
    Data:
        Version: 3 (0x2)
        Serial Number:
            16:8a:5f:b1:01:c8:f4:45:bd:aa:8c:4e:f9:0c:db:e6:68:45:46:80
        Signature Algorithm: sha256WithRSAEncryption
        Issuer: CN=Root
        Validity
            Not Before: Nov  3 12:00:00 2020 GMT
            Not After : Nov  3 12:00:00 2021 GMT
        Subject: O=O1, CN=Leaf
        Subject Public Key Info:
            Public Key Algorithm: rsaEncryption
                RSA Public-Key: (2048 bit)
                Modulus:
                    00:ef:91:eb:bb:0f:0d:aa:35:93:6d:ed:c4:67:bd:
                    0f:d3:5e:d0:da:8c:7a:83:30:e5:92:af:fa:2a:84:
                    66:97:f1:2d:93:96:40:49:b2:6a:b8:c3:8c:ea:21:
                    8b:c5:6a:d9:91:e9:05:6c:e2:2e:48:56:84:33:ef:
                    a4:1f:e2:32:ec:d1:9a:61:56:e4:66:1f:f5:ef:51:
                    09:a1:85:e6:cf:d5:ce:2e:64:a1:02:a9:bf:50:7e:
                    a0:ac:fc:6a:71:6a:61:4b:08:03:34:a6:5c:0a:29:
                    03:a7:23:4c:1e:90:15:ae:cb:97:ad:47:1b:18:8a:
                    c4:71:3b:a6:f4:34:ff:d4:a2:54:67:c2:ed:67:85:
                    29:e8:de:4a:41:d2:49:57:e9:18:43:ec:d9:17:47:
                    f4:71:68:fe:5c:ac:8f:55:12:dd:80:60:8f:b6:e6:
                    da:34:fa:fb:52:57:17:ad:49:26:76:5a:f0:c0:7a:
                    0a:a3:05:ca:74:68:fa:99:77:ca:59:98:28:0b:2b:
                    76:1c:51:0e:1c:d1:d3:4b:06:5e:03:f7:b6:d6:3c:
                    a0:bc:73:ec:e0:75:ae:04:3f:af:24:57:6a:ad:7e:
                    75:65:98:73:8d:9c:14:86:17:d0:27:5f:eb:3b:8d:
                    f3:28:9f:49:e4:2a:18:fb:a5:52:4e:97:46:d1:95:
                    6f:97
                Exponent: 65537 (0x10001)
        X509v3 extensions:
            X509v3 Subject Key Identifier: 
                54:7C:D9:94:2E:53:89:05:22:9C:6D:7C:CB:79:32:C4:33:1D:89:67
            X509v3 Authority Key Identifier: 
                keyid:FF:8B:FC:A5:69:36:2F:62:3B:D4:1B:ED:58:2F:E9:77:3D:29:81:83

            Authority Information Access: 
                CA Issuers - URI:http://url-for-aia/Root.cer

            X509v3 CRL Distribution Points: 

                Full Name:
                  URI:http://url-for-crl/Root.crl

            X509v3 Key Usage: critical
                Digital Signature, Key Encipherment
            X509v3 Extended Key Usage: 
                TLS Web Server Authentication, TLS Web Client Authentication
    Signature Algorithm: sha256WithRSAEncryption
         78:69:f8:a8:90:47:72:d2:e3:eb:93:ca:a2:32:25:2f:09:30:
         d1:0a:54:c7:bf:5c:1e:96:91:f8:84:21:f8:21:48:b0:15:ce:
         76:d9:1e:89:2e:87:f9:18:1e:c2:62:96:5a:1e:52:28:05:67:
         8f:14:ce:26:7c:ba:a6:bb:68:49:2d:53:17:2b:e1:58:40:79:
         77:69:d2:dd:09:99:88:e3:26:f8:40:b4:42:73:dc:7a:5f:1a:
         4d:7e:c1:1f:13:ff:6b:3b:b7:57:19:f5:5d:57:e1:1c:b4:07:
         f9:9c:14:1f:3c:c5:7b:7c:47:e9:cf:fc:1d:12:63:5e:d9:e3:
         30:b9:ef:84:09:a9:53:1d:2a:39:17:1f:9d:30:4f:03:dd:bc:
         49:6a:67:af:19:41:ee:d9:eb:e2:67:bb:fa:ac:83:28:00:be:
         57:e8:3f:f7:d8:38:dc:1d:b3:31:d6:a2:d8:ce:a2:e8:a2:1a:
         bc:ec:a5:85:a6:0b:82:a9:3a:50:ff:4e:b8:50:77:5a:7d:1d:
         aa:e8:06:61:d6:01:83:df:33:54:44:e9:e5:2c:41:15:c7:49:
         8f:aa:53:01:43:58:6f:45:5a:f6:aa:b5:93:63:68:f3:1a:1d:
         2b:2e:3c:26:99:84:8a:db:6c:4f:50:ed:82:6a:08:17:2f:19:
         80:e9:84:fd
-----BEGIN CERTIFICATE-----
MIIDkzCCAnugAwIBAgIUFopfsQHI9EW9qoxO+Qzb5mhFRoAwDQYJKoZIhvcNAQEL
BQAwDzENMAsGA1UEAwwEUm9vdDAeFw0yMDExMDMxMjAwMDBaFw0yMTExMDMxMjAw
MDBaMBwxCzAJBgNVBAoMAk8xMQ0wCwYDVQQDDARMZWFmMIIBIjANBgkqhkiG9w0B
AQEFAAOCAQ8AMIIBCgKCAQEA75Hruw8NqjWTbe3EZ70P017Q2ox6gzDlkq/6KoRm
l/Etk5ZASbJquMOM6iGLxWrZkekFbOIuSFaEM++kH+Iy7NGaYVbkZh/171EJoYXm
z9XOLmShAqm/UH6grPxqcWphSwgDNKZcCikDpyNMHpAVrsuXrUcbGIrEcTum9DT/
1KJUZ8LtZ4Up6N5KQdJJV+kYQ+zZF0f0cWj+XKyPVRLdgGCPtubaNPr7UlcXrUkm
dlrwwHoKowXKdGj6mXfKWZgoCyt2HFEOHNHTSwZeA/e21jygvHPs4HWuBD+vJFdq
rX51ZZhzjZwUhhfQJ1/rO43zKJ9J5CoY+6VSTpdG0ZVvlwIDAQABo4HZMIHWMB0G
A1UdDgQWBBRUfNmULlOJBSKcbXzLeTLEMx2JZzAfBgNVHSMEGDAWgBT/i/ylaTYv
YjvUG+1YL+l3PSmBgzA3BggrBgEFBQcBAQQrMCkwJwYIKwYBBQUHMAKGG2h0dHA6
Ly91cmwtZm9yLWFpYS9Sb290LmNlcjAsBgNVHR8EJTAjMCGgH6AdhhtodHRwOi8v
dXJsLWZvci1jcmwvUm9vdC5jcmwwDgYDVR0PAQH/BAQDAgWgMB0GA1UdJQQWMBQG
CCsGAQUFBwMBBggrBgEFBQcDAjANBgkqhkiG9w0BAQsFAAOCAQEAeGn4qJBHctLj
65PKojIlLwkw0QpUx79cHpaR+IQh+CFIsBXOdtkeiS6H+RgewmKWWh5SKAVnjxTO
Jny6prtoSS1TFyvhWEB5d2nS3QmZiOMm+EC0QnPcel8aTX7BHxP/azu3Vxn1XVfh
HLQH+ZwUHzzFe3xH6c/8HRJjXtnjMLnvhAmpUx0qORcfnTBPA928SWpnrxlB7tnr
4me7+qyDKAC+V+g/99g43B2zMdai2M6i6KIavOylhaYLgqk6UP9OuFB3Wn0dqugG
YdYBg98zVETp5SxBFcdJj6pTAUNYb0Va9qq1k2No8xodKy48JpmEittsT1DtgmoI
Fy8ZgOmE/Q==
-----END CERTIFICATE-----
