Certificate:
    Data:
        Version: 3 (0x2)
        Serial Number:
            16:8a:5f:b1:01:c8:f4:45:bd:aa:8c:4e:f9:0c:db:e6:68:45:46:7a
        Signature Algorithm: sha256WithRSAEncryption
        Issuer: CN=Root
        Validity
            Not Before: Oct  5 12:00:00 2021 GMT
            Not After : Oct  5 12:00:00 2022 GMT
        Subject: CN=NC3
        Subject Public Key Info:
            Public Key Algorithm: rsaEncryption
                RSA Public-Key: (2048 bit)
                Modulus:
                    00:d5:ac:80:14:b9:d2:78:ad:43:c8:51:69:3e:98:
                    7f:bd:a8:57:a3:65:28:19:6d:44:e5:6a:5d:f7:c2:
                    31:ed:4e:66:a9:f1:d2:9d:36:b6:b9:98:3f:d8:54:
                    d2:e9:77:3a:fb:9f:d5:c9:f9:c9:df:5e:b7:da:34:
                    42:f6:cb:e3:66:e0:b7:5a:82:9b:77:20:0f:b1:17:
                    1e:2a:70:62:d2:67:9b:a0:54:f2:1b:a4:9f:06:b7:
                    bb:af:5a:6f:55:b1:7e:f8:20:cb:ed:e4:55:d8:18:
                    cb:4f:0e:c3:c4:5d:13:fc:fd:d7:b1:1c:c5:58:81:
                    cf:e9:56:78:67:78:aa:fe:06:29:9e:34:3e:4b:fe:
                    7e:ec:22:16:15:d6:2b:c3:6e:17:23:42:1b:28:2e:
                    21:13:31:8b:8a:33:23:a2:67:f6:23:bc:f2:68:9b:
                    71:92:92:7f:23:09:53:96:67:3c:fe:c2:81:88:9f:
                    00:55:93:4d:b3:e7:02:01:13:48:4b:34:12:45:6e:
                    48:6a:88:21:33:ff:5a:03:49:56:a2:69:64:97:a4:
                    53:0e:90:73:84:c6:b8:28:b0:5b:c0:67:85:fd:9a:
                    25:f2:cf:0e:79:24:78:20:80:f0:2c:ae:46:8e:c5:
                    cf:29:be:7f:f5:7d:73:6d:aa:0b:10:59:4f:d6:46:
                    f1:bf
                Exponent: 65537 (0x10001)
        X509v3 extensions:
            X509v3 Subject Key Identifier: 
                9D:44:AA:2B:9B:4C:66:4C:20:C5:32:B2:EA:08:13:13:69:17:49:B1
            X509v3 Authority Key Identifier: 
                keyid:FF:8B:FC:A5:69:36:2F:62:3B:D4:1B:ED:58:2F:E9:77:3D:29:81:83

            Authority Information Access: 
                CA Issuers - URI:http://url-for-aia/Root.cer

            X509v3 CRL Distribution Points: 

                Full Name:
                  URI:http://url-for-crl/Root.crl

            X509v3 Key Usage: critical
                Certificate Sign, CRL Sign
            X509v3 Basic Constraints: critical
                CA:TRUE
            X509v3 Name Constraints: critical
                Permitted:
                  DirName:CN = O1

    Signature Algorithm: sha256WithRSAEncryption
         3b:2a:7e:b4:21:8d:f1:b3:0b:c2:0b:0a:28:d2:46:83:fe:c1:
         f2:32:30:9a:75:1b:82:70:2c:f5:4b:7a:8b:05:3a:f0:c7:40:
         27:d2:5d:ba:a3:14:60:a0:04:fb:62:e9:db:fe:16:92:c8:e7:
         bf:3e:32:fd:18:51:08:6b:9c:40:67:b4:c8:ce:c0:6d:1a:5d:
         3a:3b:1e:a3:c5:0a:bc:a3:f1:eb:8d:9b:b5:27:8e:5d:5e:f1:
         70:f5:d6:d8:33:0c:db:05:93:9d:c8:85:f3:7e:b3:05:9a:b5:
         89:4b:63:27:8d:68:04:c6:da:78:4b:f5:c3:ee:b1:00:bd:8d:
         db:cd:f7:a2:e5:c7:80:8e:87:e7:63:0d:91:19:86:68:31:8c:
         88:19:9e:18:c1:f4:6c:60:c7:07:c7:82:8f:77:b8:a8:42:b7:
         c7:6e:f9:b8:d9:5e:a8:ae:ab:a3:7e:7e:a3:14:9f:b0:09:35:
         68:dc:f7:f3:69:6e:4c:ff:a2:1e:fd:85:d8:cc:39:89:9f:ce:
         76:8f:d8:aa:3a:ea:0f:77:b4:3f:fb:cb:fb:95:c3:16:9d:b1:
         cc:de:c1:cf:ab:2e:4f:31:82:ff:ca:62:a5:7f:8a:a9:7e:a4:
         85:22:7b:e5:cb:9a:87:78:ae:cd:6d:06:fc:ef:82:90:64:4d:
         9d:32:83:9d
-----BEGIN CERTIFICATE-----
MIIDmjCCAoKgAwIBAgIUFopfsQHI9EW9qoxO+Qzb5mhFRnowDQYJKoZIhvcNAQEL
BQAwDzENMAsGA1UEAwwEUm9vdDAeFw0yMTEwMDUxMjAwMDBaFw0yMjEwMDUxMjAw
MDBaMA4xDDAKBgNVBAMMA05DMzCCASIwDQYJKoZIhvcNAQEBBQADggEPADCCAQoC
ggEBANWsgBS50nitQ8hRaT6Yf72oV6NlKBltROVqXffCMe1OZqnx0p02trmYP9hU
0ul3Ovuf1cn5yd9et9o0QvbL42bgt1qCm3cgD7EXHipwYtJnm6BU8huknwa3u69a
b1Wxfvggy+3kVdgYy08Ow8RdE/z917EcxViBz+lWeGd4qv4GKZ40Pkv+fuwiFhXW
K8NuFyNCGyguIRMxi4ozI6Jn9iO88mibcZKSfyMJU5ZnPP7CgYifAFWTTbPnAgET
SEs0EkVuSGqIITP/WgNJVqJpZJekUw6Qc4TGuCiwW8Bnhf2aJfLPDnkkeCCA8Cyu
Ro7Fzym+f/V9c22qCxBZT9ZG8b8CAwEAAaOB7jCB6zAdBgNVHQ4EFgQUnUSqK5tM
ZkwgxTKy6ggTE2kXSbEwHwYDVR0jBBgwFoAU/4v8pWk2L2I71BvtWC/pdz0pgYMw
NwYIKwYBBQUHAQEEKzApMCcGCCsGAQUFBzAChhtodHRwOi8vdXJsLWZvci1haWEv
Um9vdC5jZXIwLAYDVR0fBCUwIzAhoB+gHYYbaHR0cDovL3VybC1mb3ItY3JsL1Jv
b3QuY3JsMA4GA1UdDwEB/wQEAwIBBjAPBgNVHRMBAf8EBTADAQH/MCEGA1UdHgEB
/wQXMBWgEzARpA8wDTELMAkGA1UEAwwCTzEwDQYJKoZIhvcNAQELBQADggEBADsq
frQhjfGzC8ILCijSRoP+wfIyMJp1G4JwLPVLeosFOvDHQCfSXbqjFGCgBPti6dv+
FpLI578+Mv0YUQhrnEBntMjOwG0aXTo7HqPFCryj8euNm7Unjl1e8XD11tgzDNsF
k53IhfN+swWatYlLYyeNaATG2nhL9cPusQC9jdvN96Llx4COh+djDZEZhmgxjIgZ
nhjB9GxgxwfHgo93uKhCt8du+bjZXqiuq6N+fqMUn7AJNWjc9/Npbkz/oh79hdjM
OYmfznaP2Ko66g93tD/7y/uVwxadsczewc+rLk8xgv/KYqV/iql+pIUie+XLmod4
rs1tBvzvgpBkTZ0yg50=
-----END CERTIFICATE-----
