Certificate:
    Data:
        Version: 3 (0x2)
        Serial Number:
            16:8a:5f:b1:01:c8:f4:45:bd:aa:8c:4e:f9:0c:db:e6:68:45:46:7c
        Signature Algorithm: sha256WithRSAEncryption
        Issuer: CN=Root
        Validity
            Not Before: Nov  3 12:00:00 2020 GMT
            Not After : Nov  3 12:00:00 2021 GMT
        Subject: CN=NC5
        Subject Public Key Info:
            Public Key Algorithm: rsaEncryption
                RSA Public-Key: (2048 bit)
                Modulus:
                    00:d5:ac:80:14:b9:d2:78:ad:43:c8:51:69:3e:98:
                    7f:bd:a8:57:a3:65:28:19:6d:44:e5:6a:5d:f7:c2:
                    31:ed:4e:66:a9:f1:d2:9d:36:b6:b9:98:3f:d8:54:
                    d2:e9:77:3a:fb:9f:d5:c9:f9:c9:df:5e:b7:da:34:
                    42:f6:cb:e3:66:e0:b7:5a:82:9b:77:20:0f:b1:17:
                    1e:2a:70:62:d2:67:9b:a0:54:f2:1b:a4:9f:06:b7:
                    bb:af:5a:6f:55:b1:7e:f8:20:cb:ed:e4:55:d8:18:
                    cb:4f:0e:c3:c4:5d:13:fc:fd:d7:b1:1c:c5:58:81:
                    cf:e9:56:78:67:78:aa:fe:06:29:9e:34:3e:4b:fe:
                    7e:ec:22:16:15:d6:2b:c3:6e:17:23:42:1b:28:2e:
                    21:13:31:8b:8a:33:23:a2:67:f6:23:bc:f2:68:9b:
                    71:92:92:7f:23:09:53:96:67:3c:fe:c2:81:88:9f:
                    00:55:93:4d:b3:e7:02:01:13:48:4b:34:12:45:6e:
                    48:6a:88:21:33:ff:5a:03:49:56:a2:69:64:97:a4:
                    53:0e:90:73:84:c6:b8:28:b0:5b:c0:67:85:fd:9a:
                    25:f2:cf:0e:79:24:78:20:80:f0:2c:ae:46:8e:c5:
                    cf:29:be:7f:f5:7d:73:6d:aa:0b:10:59:4f:d6:46:
                    f1:bf
                Exponent: 65537 (0x10001)
        X509v3 extensions:
            X509v3 Subject Key Identifier: 
                9D:44:AA:2B:9B:4C:66:4C:20:C5:32:B2:EA:08:13:13:69:17:49:B1
            X509v3 Authority Key Identifier: 
                keyid:FF:8B:FC:A5:69:36:2F:62:3B:D4:1B:ED:58:2F:E9:77:3D:29:81:83

            Authority Information Access: 
                CA Issuers - URI:http://url-for-aia/Root.cer

            X509v3 CRL Distribution Points: 

                Full Name:
                  URI:http://url-for-crl/Root.crl

            X509v3 Key Usage: critical
                Certificate Sign, CRL Sign
            X509v3 Basic Constraints: critical
                CA:TRUE
            X509v3 Name Constraints: critical
                Permitted:
                  DNS:test.invalid

    Signature Algorithm: sha256WithRSAEncryption
         d3:73:35:79:3e:37:81:2a:43:b4:c6:ae:11:38:be:99:7d:1b:
         c3:32:92:98:f6:88:ae:73:40:54:0b:f9:48:2b:64:c3:1c:61:
         ef:01:22:e6:06:c0:3c:3a:4a:91:9c:9b:35:fa:4d:cd:b3:8f:
         30:75:63:9f:4f:6f:78:0a:13:6a:82:07:3f:2d:5c:47:28:c3:
         e6:dd:76:dc:dc:3c:d1:31:c3:81:f9:cf:ba:ab:37:bd:9e:df:
         b8:c6:f2:a2:42:85:3b:75:07:27:d7:a0:18:c2:fd:e0:aa:6a:
         df:ce:28:ee:96:b7:74:85:cb:d8:93:b8:10:03:64:a0:76:c4:
         0f:6b:80:f7:84:08:65:8a:89:35:0c:10:42:a4:ce:00:02:79:
         a1:b8:fb:5a:96:78:b5:e3:48:05:dc:13:f8:11:26:b8:fd:de:
         e0:9c:e3:42:c7:31:ca:85:ed:c2:36:c8:d5:dd:ef:93:8b:52:
         dd:93:9b:ef:71:24:56:b6:70:c4:f0:85:37:ea:a0:65:b5:83:
         51:d0:f9:86:d4:7d:57:85:ca:d0:ff:15:32:5d:c3:7f:0b:6c:
         a6:72:88:a7:e9:b6:af:4f:09:9c:4b:8d:5e:10:e2:5d:5d:61:
         68:ea:42:07:11:73:3d:d9:8e:da:df:c3:ef:a6:e4:45:72:51:
         0a:0e:60:a7
-----BEGIN CERTIFICATE-----
MIIDlzCCAn+gAwIBAgIUFopfsQHI9EW9qoxO+Qzb5mhFRnwwDQYJKoZIhvcNAQEL
BQAwDzENMAsGA1UEAwwEUm9vdDAeFw0yMDExMDMxMjAwMDBaFw0yMTExMDMxMjAw
MDBaMA4xDDAKBgNVBAMMA05DNTCCASIwDQYJKoZIhvcNAQEBBQADggEPADCCAQoC
ggEBANWsgBS50nitQ8hRaT6Yf72oV6NlKBltROVqXffCMe1OZqnx0p02trmYP9hU
0ul3Ovuf1cn5yd9et9o0QvbL42bgt1qCm3cgD7EXHipwYtJnm6BU8huknwa3u69a
b1Wxfvggy+3kVdgYy08Ow8RdE/z917EcxViBz+lWeGd4qv4GKZ40Pkv+fuwiFhXW
K8NuFyNCGyguIRMxi4ozI6Jn9iO88mibcZKSfyMJU5ZnPP7CgYifAFWTTbPnAgET
SEs0EkVuSGqIITP/WgNJVqJpZJekUw6Qc4TGuCiwW8Bnhf2aJfLPDnkkeCCA8Cyu
Ro7Fzym+f/V9c22qCxBZT9ZG8b8CAwEAAaOB6zCB6DAdBgNVHQ4EFgQUnUSqK5tM
ZkwgxTKy6ggTE2kXSbEwHwYDVR0jBBgwFoAU/4v8pWk2L2I71BvtWC/pdz0pgYMw
NwYIKwYBBQUHAQEEKzApMCcGCCsGAQUFBzAChhtodHRwOi8vdXJsLWZvci1haWEv
Um9vdC5jZXIwLAYDVR0fBCUwIzAhoB+gHYYbaHR0cDovL3VybC1mb3ItY3JsL1Jv
b3QuY3JsMA4GA1UdDwEB/wQEAwIBBjAPBgNVHRMBAf8EBTADAQH/MB4GA1UdHgEB
/wQUMBKgEDAOggx0ZXN0LmludmFsaWQwDQYJKoZIhvcNAQELBQADggEBANNzNXk+
N4EqQ7TGrhE4vpl9G8Mykpj2iK5zQFQL+UgrZMMcYe8BIuYGwDw6SpGcmzX6Tc2z
jzB1Y59Pb3gKE2qCBz8tXEcow+bddtzcPNExw4H5z7qrN72e37jG8qJChTt1ByfX
oBjC/eCqat/OKO6Wt3SFy9iTuBADZKB2xA9rgPeECGWKiTUMEEKkzgACeaG4+1qW
eLXjSAXcE/gRJrj93uCc40LHMcqF7cI2yNXd75OLUt2Tm+9xJFa2cMTwhTfqoGW1
g1HQ+YbUfVeFytD/FTJdw38LbKZyiKfptq9PCZxLjV4Q4l1dYWjqQgcRcz3Zjtrf
w++m5EVyUQoOYKc=
-----END CERTIFICATE-----
