Certificate:
    Data:
        Version: 3 (0x2)
        Serial Number:
            16:8a:5f:b1:01:c8:f4:45:bd:aa:8c:4e:f9:0c:db:e6:68:45:46:7b
        Signature Algorithm: sha256WithRSAEncryption
        Issuer: CN=Root
        Validity
            Not Before: Nov  3 12:00:00 2020 GMT
            Not After : Nov  3 12:00:00 2021 GMT
        Subject: CN=NC4
        Subject Public Key Info:
            Public Key Algorithm: rsaEncryption
                RSA Public-Key: (2048 bit)
                Modulus:
                    00:d5:ac:80:14:b9:d2:78:ad:43:c8:51:69:3e:98:
                    7f:bd:a8:57:a3:65:28:19:6d:44:e5:6a:5d:f7:c2:
                    31:ed:4e:66:a9:f1:d2:9d:36:b6:b9:98:3f:d8:54:
                    d2:e9:77:3a:fb:9f:d5:c9:f9:c9:df:5e:b7:da:34:
                    42:f6:cb:e3:66:e0:b7:5a:82:9b:77:20:0f:b1:17:
                    1e:2a:70:62:d2:67:9b:a0:54:f2:1b:a4:9f:06:b7:
                    bb:af:5a:6f:55:b1:7e:f8:20:cb:ed:e4:55:d8:18:
                    cb:4f:0e:c3:c4:5d:13:fc:fd:d7:b1:1c:c5:58:81:
                    cf:e9:56:78:67:78:aa:fe:06:29:9e:34:3e:4b:fe:
                    7e:ec:22:16:15:d6:2b:c3:6e:17:23:42:1b:28:2e:
                    21:13:31:8b:8a:33:23:a2:67:f6:23:bc:f2:68:9b:
                    71:92:92:7f:23:09:53:96:67:3c:fe:c2:81:88:9f:
                    00:55:93:4d:b3:e7:02:01:13:48:4b:34:12:45:6e:
                    48:6a:88:21:33:ff:5a:03:49:56:a2:69:64:97:a4:
                    53:0e:90:73:84:c6:b8:28:b0:5b:c0:67:85:fd:9a:
                    25:f2:cf:0e:79:24:78:20:80:f0:2c:ae:46:8e:c5:
                    cf:29:be:7f:f5:7d:73:6d:aa:0b:10:59:4f:d6:46:
                    f1:bf
                Exponent: 65537 (0x10001)
        X509v3 extensions:
            X509v3 Subject Key Identifier: 
                9D:44:AA:2B:9B:4C:66:4C:20:C5:32:B2:EA:08:13:13:69:17:49:B1
            X509v3 Authority Key Identifier: 
                keyid:FF:8B:FC:A5:69:36:2F:62:3B:D4:1B:ED:58:2F:E9:77:3D:29:81:83

            Authority Information Access: 
                CA Issuers - URI:http://url-for-aia/Root.cer

            X509v3 CRL Distribution Points: 

                Full Name:
                  URI:http://url-for-crl/Root.crl

            X509v3 Key Usage: critical
                Certificate Sign, CRL Sign
            X509v3 Basic Constraints: critical
                CA:TRUE
            X509v3 Name Constraints: critical
                Excluded:
                  DirName:O = O1

    Signature Algorithm: sha256WithRSAEncryption
         cb:32:81:4c:e6:be:39:b4:af:71:d9:71:d1:bb:38:00:d7:5c:
         78:ab:1e:4d:be:d5:a7:b9:ca:6f:9b:9a:5e:37:ff:58:51:e1:
         88:74:18:42:1d:c8:b4:22:05:46:31:f2:da:18:2b:5e:c5:c3:
         61:4f:23:24:da:0b:18:69:f2:75:41:af:08:f8:ca:b9:ac:89:
         1f:cb:86:c2:c1:f7:fa:d7:9d:f7:39:18:2a:6a:8c:ff:64:e7:
         ab:77:8b:1b:7e:c7:a1:6b:8b:e5:6f:6b:66:48:b8:8b:73:f1:
         e4:02:56:da:92:b5:1a:50:0f:60:1a:a4:6d:0d:07:95:a1:d8:
         a8:59:36:77:d9:6c:0a:1e:67:49:4a:ec:ec:c4:e6:a5:76:cd:
         86:1a:36:eb:3c:3e:2a:8d:3f:5a:0d:b7:53:92:26:09:89:77:
         bf:3f:f8:74:dc:6f:60:0f:d2:21:87:57:10:62:48:33:0b:e5:
         99:20:3c:76:7f:98:6d:18:27:ea:c0:6f:74:54:57:21:43:67:
         f2:1b:b5:25:f0:ac:55:cd:51:61:bb:e6:82:0e:d0:77:3a:79:
         11:0a:de:3f:a1:5d:31:35:b6:90:b5:ce:2e:bc:00:02:be:f1:
         51:b6:fb:70:88:c8:d5:5b:e0:72:76:45:65:b3:af:b4:7e:cb:
         fb:ef:d9:49
-----BEGIN CERTIFICATE-----
MIIDmjCCAoKgAwIBAgIUFopfsQHI9EW9qoxO+Qzb5mhFRnswDQYJKoZIhvcNAQEL
BQAwDzENMAsGA1UEAwwEUm9vdDAeFw0yMDExMDMxMjAwMDBaFw0yMTExMDMxMjAw
MDBaMA4xDDAKBgNVBAMMA05DNDCCASIwDQYJKoZIhvcNAQEBBQADggEPADCCAQoC
ggEBANWsgBS50nitQ8hRaT6Yf72oV6NlKBltROVqXffCMe1OZqnx0p02trmYP9hU
0ul3Ovuf1cn5yd9et9o0QvbL42bgt1qCm3cgD7EXHipwYtJnm6BU8huknwa3u69a
b1Wxfvggy+3kVdgYy08Ow8RdE/z917EcxViBz+lWeGd4qv4GKZ40Pkv+fuwiFhXW
K8NuFyNCGyguIRMxi4ozI6Jn9iO88mibcZKSfyMJU5ZnPP7CgYifAFWTTbPnAgET
SEs0EkVuSGqIITP/WgNJVqJpZJekUw6Qc4TGuCiwW8Bnhf2aJfLPDnkkeCCA8Cyu
Ro7Fzym+f/V9c22qCxBZT9ZG8b8CAwEAAaOB7jCB6zAdBgNVHQ4EFgQUnUSqK5tM
ZkwgxTKy6ggTE2kXSbEwHwYDVR0jBBgwFoAU/4v8pWk2L2I71BvtWC/pdz0pgYMw
NwYIKwYBBQUHAQEEKzApMCcGCCsGAQUFBzAChhtodHRwOi8vdXJsLWZvci1haWEv
Um9vdC5jZXIwLAYDVR0fBCUwIzAhoB+gHYYbaHR0cDovL3VybC1mb3ItY3JsL1Jv
b3QuY3JsMA4GA1UdDwEB/wQEAwIBBjAPBgNVHRMBAf8EBTADAQH/MCEGA1UdHgEB
/wQXMBWhEzARpA8wDTELMAkGA1UECgwCTzEwDQYJKoZIhvcNAQELBQADggEBAMsy
gUzmvjm0r3HZcdG7OADXXHirHk2+1ae5ym+bml43/1hR4Yh0GEIdyLQiBUYx8toY
K17Fw2FPIyTaCxhp8nVBrwj4yrmsiR/LhsLB9/rXnfc5GCpqjP9k56t3ixt+x6Fr
i+Vva2ZIuItz8eQCVtqStRpQD2AapG0NB5Wh2KhZNnfZbAoeZ0lK7OzE5qV2zYYa
Nus8PiqNP1oNt1OSJgmJd78/+HTcb2AP0iGHVxBiSDML5ZkgPHZ/mG0YJ+rAb3RU
VyFDZ/IbtSXwrFXNUWG75oIO0Hc6eREK3j+hXTE1tpC1zi68AAK+8VG2+3CIyNVb
4HJ2RWWzr7R+y/vv2Uk=
-----END CERTIFICATE-----
