Certificate:
    Data:
        Version: 3 (0x2)
        Serial Number:
            16:8a:5f:b1:01:c8:f4:45:bd:aa:8c:4e:f9:0c:db:e6:68:45:46:79
        Signature Algorithm: sha256WithRSAEncryption
        Issuer: CN=Root
        Validity
            Not Before: Oct  5 12:00:00 2021 GMT
            Not After : Oct  5 12:00:00 2022 GMT
        Subject: CN=\x00N\x00C\x002
        Subject Public Key Info:
            Public Key Algorithm: rsaEncryption
                RSA Public-Key: (2048 bit)
                Modulus:
                    00:d5:ac:80:14:b9:d2:78:ad:43:c8:51:69:3e:98:
                    7f:bd:a8:57:a3:65:28:19:6d:44:e5:6a:5d:f7:c2:
                    31:ed:4e:66:a9:f1:d2:9d:36:b6:b9:98:3f:d8:54:
                    d2:e9:77:3a:fb:9f:d5:c9:f9:c9:df:5e:b7:da:34:
                    42:f6:cb:e3:66:e0:b7:5a:82:9b:77:20:0f:b1:17:
                    1e:2a:70:62:d2:67:9b:a0:54:f2:1b:a4:9f:06:b7:
                    bb:af:5a:6f:55:b1:7e:f8:20:cb:ed:e4:55:d8:18:
                    cb:4f:0e:c3:c4:5d:13:fc:fd:d7:b1:1c:c5:58:81:
                    cf:e9:56:78:67:78:aa:fe:06:29:9e:34:3e:4b:fe:
                    7e:ec:22:16:15:d6:2b:c3:6e:17:23:42:1b:28:2e:
                    21:13:31:8b:8a:33:23:a2:67:f6:23:bc:f2:68:9b:
                    71:92:92:7f:23:09:53:96:67:3c:fe:c2:81:88:9f:
                    00:55:93:4d:b3:e7:02:01:13:48:4b:34:12:45:6e:
                    48:6a:88:21:33:ff:5a:03:49:56:a2:69:64:97:a4:
                    53:0e:90:73:84:c6:b8:28:b0:5b:c0:67:85:fd:9a:
                    25:f2:cf:0e:79:24:78:20:80:f0:2c:ae:46:8e:c5:
                    cf:29:be:7f:f5:7d:73:6d:aa:0b:10:59:4f:d6:46:
                    f1:bf
                Exponent: 65537 (0x10001)
        X509v3 extensions:
            X509v3 Subject Key Identifier: 
                9D:44:AA:2B:9B:4C:66:4C:20:C5:32:B2:EA:08:13:13:69:17:49:B1
            X509v3 Authority Key Identifier: 
                keyid:FF:8B:FC:A5:69:36:2F:62:3B:D4:1B:ED:58:2F:E9:77:3D:29:81:83

            Authority Information Access: 
                CA Issuers - URI:http://url-for-aia/Root.cer

            X509v3 CRL Distribution Points: 

                Full Name:
                  URI:http://url-for-crl/Root.crl

            X509v3 Key Usage: critical
                Certificate Sign, CRL Sign
            X509v3 Basic Constraints: critical
                CA:TRUE
    Signature Algorithm: sha256WithRSAEncryption
         5d:97:e7:35:d1:4c:68:3a:3a:58:ed:65:39:5d:41:d2:fb:64:
         88:5e:87:9b:46:e7:1a:11:09:62:77:b4:c4:17:bb:c6:a2:d8:
         1b:3a:f6:0e:8d:93:4d:23:e0:05:66:7c:ef:b8:da:cd:55:62:
         23:a9:f1:fa:00:4c:65:89:c0:e1:36:13:cf:ee:b8:67:80:02:
         f0:04:a0:bf:da:20:c6:46:f8:68:a0:7e:bd:29:fe:3c:2c:0a:
         38:06:30:3f:7f:74:76:dc:cf:22:5c:ff:e2:b0:67:5b:f5:aa:
         d1:82:5f:14:0f:7a:c9:d7:16:5d:04:f5:b5:98:b2:ef:4c:54:
         e9:25:d5:f9:1c:80:b2:18:46:94:4b:7e:19:05:8a:1c:b5:b2:
         f8:c7:de:b4:c8:e9:0f:06:31:68:b3:00:62:4f:f4:fa:8c:57:
         a9:56:e8:3c:bc:8c:b0:fb:7a:3a:0c:4a:b2:e3:fa:10:5b:0e:
         1c:18:52:4d:f3:5d:24:aa:41:e0:6c:fd:3f:53:6f:6a:22:27:
         bc:e0:92:f6:62:d6:b0:ce:2a:c2:a3:4f:69:f3:f2:fb:b1:6f:
         d5:94:32:5f:0a:c7:9f:a0:b6:ac:0d:65:42:3a:67:67:53:59:
         a6:4a:9f:7b:13:18:00:3d:92:a7:98:f7:56:ca:0a:09:76:c4:
         d9:2d:5d:70
-----BEGIN CERTIFICATE-----
MIIDejCCAmKgAwIBAgIUFopfsQHI9EW9qoxO+Qzb5mhFRnkwDQYJKoZIhvcNAQEL
BQAwDzENMAsGA1UEAwwEUm9vdDAeFw0yMTEwMDUxMjAwMDBaFw0yMjEwMDUxMjAw
MDBaMBExDzANBgNVBAMeBgBOAEMAMjCCASIwDQYJKoZIhvcNAQEBBQADggEPADCC
AQoCggEBANWsgBS50nitQ8hRaT6Yf72oV6NlKBltROVqXffCMe1OZqnx0p02trmY
P9hU0ul3Ovuf1cn5yd9et9o0QvbL42bgt1qCm3cgD7EXHipwYtJnm6BU8huknwa3
u69ab1Wxfvggy+3kVdgYy08Ow8RdE/z917EcxViBz+lWeGd4qv4GKZ40Pkv+fuwi
FhXWK8NuFyNCGyguIRMxi4ozI6Jn9iO88mibcZKSfyMJU5ZnPP7CgYifAFWTTbPn
AgETSEs0EkVuSGqIITP/WgNJVqJpZJekUw6Qc4TGuCiwW8Bnhf2aJfLPDnkkeCCA
8CyuRo7Fzym+f/V9c22qCxBZT9ZG8b8CAwEAAaOByzCByDAdBgNVHQ4EFgQUnUSq
K5tMZkwgxTKy6ggTE2kXSbEwHwYDVR0jBBgwFoAU/4v8pWk2L2I71BvtWC/pdz0p
gYMwNwYIKwYBBQUHAQEEKzApMCcGCCsGAQUFBzAChhtodHRwOi8vdXJsLWZvci1h
aWEvUm9vdC5jZXIwLAYDVR0fBCUwIzAhoB+gHYYbaHR0cDovL3VybC1mb3ItY3Js
L1Jvb3QuY3JsMA4GA1UdDwEB/wQEAwIBBjAPBgNVHRMBAf8EBTADAQH/MA0GCSqG
SIb3DQEBCwUAA4IBAQBdl+c10UxoOjpY7WU5XUHS+2SIXoebRucaEQlid7TEF7vG
otgbOvYOjZNNI+AFZnzvuNrNVWIjqfH6AExlicDhNhPP7rhngALwBKC/2iDGRvho
oH69Kf48LAo4BjA/f3R23M8iXP/isGdb9arRgl8UD3rJ1xZdBPW1mLLvTFTpJdX5
HICyGEaUS34ZBYoctbL4x960yOkPBjFoswBiT/T6jFepVug8vIyw+3o6DEqy4/oQ
Ww4cGFJN810kqkHgbP0/U29qIie84JL2YtawzirCo09p8/L7sW/VlDJfCsefoLas
DWVCOmdnU1mmSp97ExgAPZKnmPdWygoJdsTZLV1w
-----END CERTIFICATE-----
