Certificate:
    Data:
        Version: 3 (0x2)
        Serial Number:
            16:8a:5f:b1:01:c8:f4:45:bd:aa:8c:4e:f9:0c:db:e6:68:45:46:7d
        Signature Algorithm: sha256WithRSAEncryption
        Issuer: CN=Root
        Validity
            Not Before: Oct  5 12:00:00 2021 GMT
            Not After : Oct  5 12:00:00 2022 GMT
        Subject: CN=NC6
        Subject Public Key Info:
            Public Key Algorithm: rsaEncryption
                RSA Public-Key: (2048 bit)
                Modulus:
                    00:d5:ac:80:14:b9:d2:78:ad:43:c8:51:69:3e:98:
                    7f:bd:a8:57:a3:65:28:19:6d:44:e5:6a:5d:f7:c2:
                    31:ed:4e:66:a9:f1:d2:9d:36:b6:b9:98:3f:d8:54:
                    d2:e9:77:3a:fb:9f:d5:c9:f9:c9:df:5e:b7:da:34:
                    42:f6:cb:e3:66:e0:b7:5a:82:9b:77:20:0f:b1:17:
                    1e:2a:70:62:d2:67:9b:a0:54:f2:1b:a4:9f:06:b7:
                    bb:af:5a:6f:55:b1:7e:f8:20:cb:ed:e4:55:d8:18:
                    cb:4f:0e:c3:c4:5d:13:fc:fd:d7:b1:1c:c5:58:81:
                    cf:e9:56:78:67:78:aa:fe:06:29:9e:34:3e:4b:fe:
                    7e:ec:22:16:15:d6:2b:c3:6e:17:23:42:1b:28:2e:
                    21:13:31:8b:8a:33:23:a2:67:f6:23:bc:f2:68:9b:
                    71:92:92:7f:23:09:53:96:67:3c:fe:c2:81:88:9f:
                    00:55:93:4d:b3:e7:02:01:13:48:4b:34:12:45:6e:
                    48:6a:88:21:33:ff:5a:03:49:56:a2:69:64:97:a4:
                    53:0e:90:73:84:c6:b8:28:b0:5b:c0:67:85:fd:9a:
                    25:f2:cf:0e:79:24:78:20:80:f0:2c:ae:46:8e:c5:
                    cf:29:be:7f:f5:7d:73:6d:aa:0b:10:59:4f:d6:46:
                    f1:bf
                Exponent: 65537 (0x10001)
        X509v3 extensions:
            X509v3 Subject Key Identifier: 
                9D:44:AA:2B:9B:4C:66:4C:20:C5:32:B2:EA:08:13:13:69:17:49:B1
            X509v3 Authority Key Identifier: 
                keyid:FF:8B:FC:A5:69:36:2F:62:3B:D4:1B:ED:58:2F:E9:77:3D:29:81:83

            Authority Information Access: 
                CA Issuers - URI:http://url-for-aia/Root.cer

            X509v3 CRL Distribution Points: 

                Full Name:
                  URI:http://url-for-crl/Root.crl

            X509v3 Key Usage: critical
                Certificate Sign, CRL Sign
            X509v3 Basic Constraints: critical
                CA:TRUE
            X509v3 Name Constraints: critical
                Permitted:
                  DirName:O = O2
                  DirName:O = O1
                  DirName:O = O3

    Signature Algorithm: sha256WithRSAEncryption
         48:cc:af:4e:a0:4a:7f:01:ad:41:63:c3:c2:e3:7f:47:b5:57:
         39:b1:c0:30:7b:41:bf:71:70:aa:3d:a5:fd:5b:b6:56:15:da:
         8b:59:d5:91:32:ef:de:d3:69:8c:51:c4:77:80:87:62:f1:46:
         0f:8a:d5:0d:59:86:1e:25:e6:80:f1:69:b8:b0:6e:5c:30:10:
         3e:b5:ac:41:c7:aa:56:25:bd:ef:69:dd:ab:1c:30:28:d9:1a:
         1d:34:a6:60:4b:a1:5d:26:7e:bf:2a:51:b3:00:af:52:e8:80:
         2e:53:df:50:b3:3d:b8:90:51:d6:45:25:4a:24:b0:fe:f5:d5:
         e4:31:c5:7f:6f:a1:37:b3:fc:eb:7c:55:60:dc:63:5d:b8:9b:
         f8:5d:97:5b:f8:2d:c6:9d:fe:a6:6f:60:7f:1c:b9:94:65:13:
         5a:df:db:49:2b:e2:61:40:99:84:0d:9b:af:e3:78:7c:30:3d:
         ef:0f:0b:14:a8:36:5d:10:e3:f8:9f:bc:00:f5:40:85:b8:69:
         4e:58:e9:ff:29:b1:33:00:fe:3a:bc:e8:34:17:37:9f:1a:f4:
         ad:60:e0:32:68:8e:40:27:90:84:9d:f2:39:5c:85:88:21:d8:
         81:c8:10:30:4d:c6:79:95:b9:38:62:0c:f6:eb:16:69:49:05:
         96:e8:d6:c3
-----BEGIN CERTIFICATE-----
MIIDwjCCAqqgAwIBAgIUFopfsQHI9EW9qoxO+Qzb5mhFRn0wDQYJKoZIhvcNAQEL
BQAwDzENMAsGA1UEAwwEUm9vdDAeFw0yMTEwMDUxMjAwMDBaFw0yMjEwMDUxMjAw
MDBaMA4xDDAKBgNVBAMMA05DNjCCASIwDQYJKoZIhvcNAQEBBQADggEPADCCAQoC
ggEBANWsgBS50nitQ8hRaT6Yf72oV6NlKBltROVqXffCMe1OZqnx0p02trmYP9hU
0ul3Ovuf1cn5yd9et9o0QvbL42bgt1qCm3cgD7EXHipwYtJnm6BU8huknwa3u69a
b1Wxfvggy+3kVdgYy08Ow8RdE/z917EcxViBz+lWeGd4qv4GKZ40Pkv+fuwiFhXW
K8NuFyNCGyguIRMxi4ozI6Jn9iO88mibcZKSfyMJU5ZnPP7CgYifAFWTTbPnAgET
SEs0EkVuSGqIITP/WgNJVqJpZJekUw6Qc4TGuCiwW8Bnhf2aJfLPDnkkeCCA8Cyu
Ro7Fzym+f/V9c22qCxBZT9ZG8b8CAwEAAaOCARUwggERMB0GA1UdDgQWBBSdRKor
m0xmTCDFMrLqCBMTaRdJsTAfBgNVHSMEGDAWgBT/i/ylaTYvYjvUG+1YL+l3PSmB
gzA3BggrBgEFBQcBAQQrMCkwJwYIKwYBBQUHMAKGG2h0dHA6Ly91cmwtZm9yLWFp
YS9Sb290LmNlcjAsBgNVHR8EJTAjMCGgH6AdhhtodHRwOi8vdXJsLWZvci1jcmwv
Um9vdC5jcmwwDgYDVR0PAQH/BAQDAgEGMA8GA1UdEwEB/wQFMAMBAf8wRwYDVR0e
AQH/BD0wO6A5MBGkDzANMQswCQYDVQQKDAJPMjARpA8wDTELMAkGA1UECgwCTzEw
EaQPMA0xCzAJBgNVBAoMAk8zMA0GCSqGSIb3DQEBCwUAA4IBAQBIzK9OoEp/Aa1B
Y8PC439HtVc5scAwe0G/cXCqPaX9W7ZWFdqLWdWRMu/e02mMUcR3gIdi8UYPitUN
WYYeJeaA8Wm4sG5cMBA+taxBx6pWJb3vad2rHDAo2RodNKZgS6FdJn6/KlGzAK9S
6IAuU99Qsz24kFHWRSVKJLD+9dXkMcV/b6E3s/zrfFVg3GNduJv4XZdb+C3Gnf6m
b2B/HLmUZRNa39tJK+JhQJmEDZuv43h8MD3vDwsUqDZdEOP4n7wA9UCFuGlOWOn/
KbEzAP46vOg0FzefGvStYOAyaI5AJ5CEnfI5XIWIIdiByBAwTcZ5lbk4Ygz26xZp
SQWW6NbD
-----END CERTIFICATE-----
