Certificate:
    Data:
        Version: 3 (0x2)
        Serial Number:
            16:8a:5f:b1:01:c8:f4:45:bd:aa:8c:4e:f9:0c:db:e6:68:45:46:78
        Signature Algorithm: sha256WithRSAEncryption
        Issuer: CN=Root
        Validity
            Not Before: Nov  3 12:00:00 2020 GMT
            Not After : Nov  3 12:00:00 2021 GMT
        Subject: CN=NC1
        Subject Public Key Info:
            Public Key Algorithm: rsaEncryption
                RSA Public-Key: (2048 bit)
                Modulus:
                    00:d5:ac:80:14:b9:d2:78:ad:43:c8:51:69:3e:98:
                    7f:bd:a8:57:a3:65:28:19:6d:44:e5:6a:5d:f7:c2:
                    31:ed:4e:66:a9:f1:d2:9d:36:b6:b9:98:3f:d8:54:
                    d2:e9:77:3a:fb:9f:d5:c9:f9:c9:df:5e:b7:da:34:
                    42:f6:cb:e3:66:e0:b7:5a:82:9b:77:20:0f:b1:17:
                    1e:2a:70:62:d2:67:9b:a0:54:f2:1b:a4:9f:06:b7:
                    bb:af:5a:6f:55:b1:7e:f8:20:cb:ed:e4:55:d8:18:
                    cb:4f:0e:c3:c4:5d:13:fc:fd:d7:b1:1c:c5:58:81:
                    cf:e9:56:78:67:78:aa:fe:06:29:9e:34:3e:4b:fe:
                    7e:ec:22:16:15:d6:2b:c3:6e:17:23:42:1b:28:2e:
                    21:13:31:8b:8a:33:23:a2:67:f6:23:bc:f2:68:9b:
                    71:92:92:7f:23:09:53:96:67:3c:fe:c2:81:88:9f:
                    00:55:93:4d:b3:e7:02:01:13:48:4b:34:12:45:6e:
                    48:6a:88:21:33:ff:5a:03:49:56:a2:69:64:97:a4:
                    53:0e:90:73:84:c6:b8:28:b0:5b:c0:67:85:fd:9a:
                    25:f2:cf:0e:79:24:78:20:80:f0:2c:ae:46:8e:c5:
                    cf:29:be:7f:f5:7d:73:6d:aa:0b:10:59:4f:d6:46:
                    f1:bf
                Exponent: 65537 (0x10001)
        X509v3 extensions:
            X509v3 Subject Key Identifier: 
                9D:44:AA:2B:9B:4C:66:4C:20:C5:32:B2:EA:08:13:13:69:17:49:B1
            X509v3 Authority Key Identifier: 
                keyid:FF:8B:FC:A5:69:36:2F:62:3B:D4:1B:ED:58:2F:E9:77:3D:29:81:83

            Authority Information Access: 
                CA Issuers - URI:http://url-for-aia/Root.cer

            X509v3 CRL Distribution Points: 

                Full Name:
                  URI:http://url-for-crl/Root.crl

            X509v3 Key Usage: critical
                Certificate Sign, CRL Sign
            X509v3 Basic Constraints: critical
                CA:TRUE
            X509v3 Name Constraints: critical
                Permitted:
                  DirName:O = O1

    Signature Algorithm: sha256WithRSAEncryption
         34:4a:64:16:b5:e8:0d:a1:5e:71:34:fa:0d:5c:2f:4d:94:3d:
         51:62:81:ba:9b:28:4a:da:e1:35:08:40:26:35:ef:28:e8:fd:
         c6:8c:cd:ac:89:67:9e:68:0e:80:86:52:64:2e:f2:5c:5f:95:
         e8:8b:62:7d:54:04:65:50:b8:8b:6a:da:4f:33:39:15:a4:b9:
         0e:89:43:18:cb:7a:c0:1d:56:6c:8c:eb:20:f1:d1:22:7d:aa:
         80:7b:16:21:db:a2:7b:a6:fb:90:90:1b:5c:4a:13:fe:e0:c5:
         06:19:8b:cf:f1:15:09:66:58:20:e9:d7:10:6a:27:8c:73:92:
         d1:9d:a9:72:c4:83:c7:1f:a9:a1:94:ea:b0:b9:80:e4:4a:26:
         c7:24:28:6e:06:8e:89:5a:ba:28:0f:0d:ba:1f:24:77:20:00:
         84:3a:db:63:68:5d:55:89:6c:e5:e9:21:28:8d:91:db:6a:fc:
         15:d2:c0:ad:b4:42:01:f6:25:e3:43:55:8f:52:2c:dc:b2:3a:
         e1:11:bc:51:3d:92:36:a7:a8:4b:88:6b:7d:61:25:53:8e:5d:
         8f:4b:12:06:ac:16:f0:3f:42:10:57:4e:92:83:9f:d9:ee:62:
         2d:9c:e6:fd:3a:68:f7:2e:d4:54:62:cc:82:69:2e:05:23:e7:
         c6:94:57:d8
-----BEGIN CERTIFICATE-----
MIIDmjCCAoKgAwIBAgIUFopfsQHI9EW9qoxO+Qzb5mhFRngwDQYJKoZIhvcNAQEL
BQAwDzENMAsGA1UEAwwEUm9vdDAeFw0yMDExMDMxMjAwMDBaFw0yMTExMDMxMjAw
MDBaMA4xDDAKBgNVBAMMA05DMTCCASIwDQYJKoZIhvcNAQEBBQADggEPADCCAQoC
ggEBANWsgBS50nitQ8hRaT6Yf72oV6NlKBltROVqXffCMe1OZqnx0p02trmYP9hU
0ul3Ovuf1cn5yd9et9o0QvbL42bgt1qCm3cgD7EXHipwYtJnm6BU8huknwa3u69a
b1Wxfvggy+3kVdgYy08Ow8RdE/z917EcxViBz+lWeGd4qv4GKZ40Pkv+fuwiFhXW
K8NuFyNCGyguIRMxi4ozI6Jn9iO88mibcZKSfyMJU5ZnPP7CgYifAFWTTbPnAgET
SEs0EkVuSGqIITP/WgNJVqJpZJekUw6Qc4TGuCiwW8Bnhf2aJfLPDnkkeCCA8Cyu
Ro7Fzym+f/V9c22qCxBZT9ZG8b8CAwEAAaOB7jCB6zAdBgNVHQ4EFgQUnUSqK5tM
ZkwgxTKy6ggTE2kXSbEwHwYDVR0jBBgwFoAU/4v8pWk2L2I71BvtWC/pdz0pgYMw
NwYIKwYBBQUHAQEEKzApMCcGCCsGAQUFBzAChhtodHRwOi8vdXJsLWZvci1haWEv
Um9vdC5jZXIwLAYDVR0fBCUwIzAhoB+gHYYbaHR0cDovL3VybC1mb3ItY3JsL1Jv
b3QuY3JsMA4GA1UdDwEB/wQEAwIBBjAPBgNVHRMBAf8EBTADAQH/MCEGA1UdHgEB
/wQXMBWgEzARpA8wDTELMAkGA1UECgwCTzEwDQYJKoZIhvcNAQELBQADggEBADRK
ZBa16A2hXnE0+g1cL02UPVFigbqbKEra4TUIQCY17yjo/caMzayJZ55oDoCGUmQu
8lxfleiLYn1UBGVQuItq2k8zORWkuQ6JQxjLesAdVmyM6yDx0SJ9qoB7FiHbonum
+5CQG1xKE/7gxQYZi8/xFQlmWCDp1xBqJ4xzktGdqXLEg8cfqaGU6rC5gORKJsck
KG4GjolauigPDbofJHcgAIQ622NoXVWJbOXpISiNkdtq/BXSwK20QgH2JeNDVY9S
LNyyOuERvFE9kjanqEuIa31hJVOOXY9LEgasFvA/QhBXTpKDn9nuYi2c5v06aPcu
1FRizIJpLgUj58aUV9g=
-----END CERTIFICATE-----
