Certificate:
    Data:
        Version: 3 (0x2)
        Serial Number:
            16:8a:5f:b1:01:c8:f4:45:bd:aa:8c:4e:f9:0c:db:e6:68:45:46:78
        Signature Algorithm: sha256WithRSAEncryption
        Issuer: CN=Root
        Validity
            Not Before: Oct  5 12:00:00 2021 GMT
            Not After : Oct  5 12:00:00 2022 GMT
        Subject: CN=NC1
        Subject Public Key Info:
            Public Key Algorithm: rsaEncryption
                RSA Public-Key: (2048 bit)
                Modulus:
                    00:d5:ac:80:14:b9:d2:78:ad:43:c8:51:69:3e:98:
                    7f:bd:a8:57:a3:65:28:19:6d:44:e5:6a:5d:f7:c2:
                    31:ed:4e:66:a9:f1:d2:9d:36:b6:b9:98:3f:d8:54:
                    d2:e9:77:3a:fb:9f:d5:c9:f9:c9:df:5e:b7:da:34:
                    42:f6:cb:e3:66:e0:b7:5a:82:9b:77:20:0f:b1:17:
                    1e:2a:70:62:d2:67:9b:a0:54:f2:1b:a4:9f:06:b7:
                    bb:af:5a:6f:55:b1:7e:f8:20:cb:ed:e4:55:d8:18:
                    cb:4f:0e:c3:c4:5d:13:fc:fd:d7:b1:1c:c5:58:81:
                    cf:e9:56:78:67:78:aa:fe:06:29:9e:34:3e:4b:fe:
                    7e:ec:22:16:15:d6:2b:c3:6e:17:23:42:1b:28:2e:
                    21:13:31:8b:8a:33:23:a2:67:f6:23:bc:f2:68:9b:
                    71:92:92:7f:23:09:53:96:67:3c:fe:c2:81:88:9f:
                    00:55:93:4d:b3:e7:02:01:13:48:4b:34:12:45:6e:
                    48:6a:88:21:33:ff:5a:03:49:56:a2:69:64:97:a4:
                    53:0e:90:73:84:c6:b8:28:b0:5b:c0:67:85:fd:9a:
                    25:f2:cf:0e:79:24:78:20:80:f0:2c:ae:46:8e:c5:
                    cf:29:be:7f:f5:7d:73:6d:aa:0b:10:59:4f:d6:46:
                    f1:bf
                Exponent: 65537 (0x10001)
        X509v3 extensions:
            X509v3 Subject Key Identifier: 
                9D:44:AA:2B:9B:4C:66:4C:20:C5:32:B2:EA:08:13:13:69:17:49:B1
            X509v3 Authority Key Identifier: 
                keyid:FF:8B:FC:A5:69:36:2F:62:3B:D4:1B:ED:58:2F:E9:77:3D:29:81:83

            Authority Information Access: 
                CA Issuers - URI:http://url-for-aia/Root.cer

            X509v3 CRL Distribution Points: 

                Full Name:
                  URI:http://url-for-crl/Root.crl

            X509v3 Key Usage: critical
                Certificate Sign, CRL Sign
            X509v3 Basic Constraints: critical
                CA:TRUE
            X509v3 Name Constraints: critical
                Permitted:
                  DirName:O = O1

    Signature Algorithm: sha256WithRSAEncryption
         33:5e:32:8b:82:88:93:90:11:dc:55:29:a2:d0:17:4e:7a:63:
         3e:08:33:72:43:93:bc:63:6d:7a:33:1d:74:c3:87:58:05:40:
         fa:9a:f2:d7:a8:5e:87:3a:7e:17:56:b7:6e:c8:17:ae:be:a6:
         81:74:4d:23:76:e3:63:92:7b:5c:48:ee:c5:f0:10:9f:72:b4:
         a4:05:8e:93:bf:34:50:c2:d8:c7:c2:06:8c:16:f1:78:ae:51:
         c3:cd:14:00:02:fa:04:31:31:22:14:b6:c8:8c:9d:1b:19:31:
         87:fa:91:0a:ce:75:ca:1e:10:77:6d:62:3a:65:5c:78:43:30:
         ba:d7:f0:03:43:73:07:6b:68:8b:09:7a:5f:ff:9f:19:c9:20:
         cc:f0:d6:41:eb:30:af:dd:08:b5:21:17:08:bc:a3:39:32:29:
         41:db:bc:fb:14:0c:c3:fd:1b:ae:1a:51:37:df:be:37:ea:0c:
         d0:2d:35:bf:af:37:44:6d:6b:9f:6b:d6:55:4b:8d:aa:0a:4f:
         e8:40:c4:22:8a:ed:9b:c3:e5:ad:1f:84:3e:98:0b:e7:9e:b9:
         86:ce:1b:e2:9f:c5:3a:52:f9:06:f2:4c:b0:e6:ce:7d:c9:c3:
         e9:3a:80:d7:f9:3f:03:ad:b3:52:3c:2f:6e:f2:a1:a6:5b:da:
         f3:20:a3:0f
-----BEGIN CERTIFICATE-----
MIIDmjCCAoKgAwIBAgIUFopfsQHI9EW9qoxO+Qzb5mhFRngwDQYJKoZIhvcNAQEL
BQAwDzENMAsGA1UEAwwEUm9vdDAeFw0yMTEwMDUxMjAwMDBaFw0yMjEwMDUxMjAw
MDBaMA4xDDAKBgNVBAMMA05DMTCCASIwDQYJKoZIhvcNAQEBBQADggEPADCCAQoC
ggEBANWsgBS50nitQ8hRaT6Yf72oV6NlKBltROVqXffCMe1OZqnx0p02trmYP9hU
0ul3Ovuf1cn5yd9et9o0QvbL42bgt1qCm3cgD7EXHipwYtJnm6BU8huknwa3u69a
b1Wxfvggy+3kVdgYy08Ow8RdE/z917EcxViBz+lWeGd4qv4GKZ40Pkv+fuwiFhXW
K8NuFyNCGyguIRMxi4ozI6Jn9iO88mibcZKSfyMJU5ZnPP7CgYifAFWTTbPnAgET
SEs0EkVuSGqIITP/WgNJVqJpZJekUw6Qc4TGuCiwW8Bnhf2aJfLPDnkkeCCA8Cyu
Ro7Fzym+f/V9c22qCxBZT9ZG8b8CAwEAAaOB7jCB6zAdBgNVHQ4EFgQUnUSqK5tM
ZkwgxTKy6ggTE2kXSbEwHwYDVR0jBBgwFoAU/4v8pWk2L2I71BvtWC/pdz0pgYMw
NwYIKwYBBQUHAQEEKzApMCcGCCsGAQUFBzAChhtodHRwOi8vdXJsLWZvci1haWEv
Um9vdC5jZXIwLAYDVR0fBCUwIzAhoB+gHYYbaHR0cDovL3VybC1mb3ItY3JsL1Jv
b3QuY3JsMA4GA1UdDwEB/wQEAwIBBjAPBgNVHRMBAf8EBTADAQH/MCEGA1UdHgEB
/wQXMBWgEzARpA8wDTELMAkGA1UECgwCTzEwDQYJKoZIhvcNAQELBQADggEBADNe
MouCiJOQEdxVKaLQF056Yz4IM3JDk7xjbXozHXTDh1gFQPqa8teoXoc6fhdWt27I
F66+poF0TSN242OSe1xI7sXwEJ9ytKQFjpO/NFDC2MfCBowW8XiuUcPNFAAC+gQx
MSIUtsiMnRsZMYf6kQrOdcoeEHdtYjplXHhDMLrX8ANDcwdraIsJel//nxnJIMzw
1kHrMK/dCLUhFwi8ozkyKUHbvPsUDMP9G64aUTffvjfqDNAtNb+vN0Rta59r1lVL
jaoKT+hAxCKK7ZvD5a0fhD6YC+eeuYbOG+KfxTpS+QbyTLDmzn3Jw+k6gNf5PwOt
s1I8L27yoaZb2vMgow8=
-----END CERTIFICATE-----
