Certificate:
    Data:
        Version: 3 (0x2)
        Serial Number:
            16:8a:5f:b1:01:c8:f4:45:bd:aa:8c:4e:f9:0c:db:e6:68:45:46:79
        Signature Algorithm: sha256WithRSAEncryption
        Issuer: CN=Root
        Validity
            Not Before: Nov  3 12:00:00 2020 GMT
            Not After : Nov  3 12:00:00 2021 GMT
        Subject: CN=\x00N\x00C\x002
        Subject Public Key Info:
            Public Key Algorithm: rsaEncryption
                RSA Public-Key: (2048 bit)
                Modulus:
                    00:d5:ac:80:14:b9:d2:78:ad:43:c8:51:69:3e:98:
                    7f:bd:a8:57:a3:65:28:19:6d:44:e5:6a:5d:f7:c2:
                    31:ed:4e:66:a9:f1:d2:9d:36:b6:b9:98:3f:d8:54:
                    d2:e9:77:3a:fb:9f:d5:c9:f9:c9:df:5e:b7:da:34:
                    42:f6:cb:e3:66:e0:b7:5a:82:9b:77:20:0f:b1:17:
                    1e:2a:70:62:d2:67:9b:a0:54:f2:1b:a4:9f:06:b7:
                    bb:af:5a:6f:55:b1:7e:f8:20:cb:ed:e4:55:d8:18:
                    cb:4f:0e:c3:c4:5d:13:fc:fd:d7:b1:1c:c5:58:81:
                    cf:e9:56:78:67:78:aa:fe:06:29:9e:34:3e:4b:fe:
                    7e:ec:22:16:15:d6:2b:c3:6e:17:23:42:1b:28:2e:
                    21:13:31:8b:8a:33:23:a2:67:f6:23:bc:f2:68:9b:
                    71:92:92:7f:23:09:53:96:67:3c:fe:c2:81:88:9f:
                    00:55:93:4d:b3:e7:02:01:13:48:4b:34:12:45:6e:
                    48:6a:88:21:33:ff:5a:03:49:56:a2:69:64:97:a4:
                    53:0e:90:73:84:c6:b8:28:b0:5b:c0:67:85:fd:9a:
                    25:f2:cf:0e:79:24:78:20:80:f0:2c:ae:46:8e:c5:
                    cf:29:be:7f:f5:7d:73:6d:aa:0b:10:59:4f:d6:46:
                    f1:bf
                Exponent: 65537 (0x10001)
        X509v3 extensions:
            X509v3 Subject Key Identifier: 
                9D:44:AA:2B:9B:4C:66:4C:20:C5:32:B2:EA:08:13:13:69:17:49:B1
            X509v3 Authority Key Identifier: 
                keyid:FF:8B:FC:A5:69:36:2F:62:3B:D4:1B:ED:58:2F:E9:77:3D:29:81:83

            Authority Information Access: 
                CA Issuers - URI:http://url-for-aia/Root.cer

            X509v3 CRL Distribution Points: 

                Full Name:
                  URI:http://url-for-crl/Root.crl

            X509v3 Key Usage: critical
                Certificate Sign, CRL Sign
            X509v3 Basic Constraints: critical
                CA:TRUE
    Signature Algorithm: sha256WithRSAEncryption
         36:8b:05:a7:1f:c6:3f:ba:56:07:e6:96:ac:d7:e6:14:80:a2:
         28:b3:28:7d:f7:b6:d7:82:fe:f4:45:3c:22:c9:30:f7:fe:8e:
         23:ab:8e:80:10:61:a2:74:14:ce:c3:26:99:15:05:01:b5:16:
         b3:39:65:06:63:1c:eb:a1:e8:f8:23:20:25:3f:a8:a8:c5:a0:
         03:6b:6d:df:8f:72:04:b5:16:c4:60:55:3f:bc:61:d6:7e:d8:
         ec:10:73:e8:68:e8:99:e7:54:0d:95:07:17:92:29:68:bc:13:
         09:cd:2b:77:12:f4:65:38:55:93:06:95:fc:9b:04:95:3a:28:
         7b:a9:4e:50:9a:b1:51:93:33:79:ca:61:77:23:f0:4b:c9:2d:
         eb:fc:20:b0:11:f4:23:da:88:a4:18:88:e3:7d:56:e7:fa:41:
         42:f6:24:cb:f0:bc:ad:28:75:b0:71:61:c8:e7:ef:b0:62:b8:
         03:6b:92:9c:34:a3:24:0d:96:95:35:5b:63:85:d9:eb:38:cf:
         fe:3b:3f:e0:2d:28:f8:90:52:45:53:9b:8f:a7:6d:dc:7e:e5:
         0f:3d:53:3a:67:24:fb:80:b3:b8:2d:3e:c0:d1:0e:5f:f9:34:
         8e:87:71:04:bd:74:4f:ef:9e:79:71:3e:94:b6:ef:d1:45:fb:
         f0:7e:fd:b9
-----BEGIN CERTIFICATE-----
MIIDejCCAmKgAwIBAgIUFopfsQHI9EW9qoxO+Qzb5mhFRnkwDQYJKoZIhvcNAQEL
BQAwDzENMAsGA1UEAwwEUm9vdDAeFw0yMDExMDMxMjAwMDBaFw0yMTExMDMxMjAw
MDBaMBExDzANBgNVBAMeBgBOAEMAMjCCASIwDQYJKoZIhvcNAQEBBQADggEPADCC
AQoCggEBANWsgBS50nitQ8hRaT6Yf72oV6NlKBltROVqXffCMe1OZqnx0p02trmY
P9hU0ul3Ovuf1cn5yd9et9o0QvbL42bgt1qCm3cgD7EXHipwYtJnm6BU8huknwa3
u69ab1Wxfvggy+3kVdgYy08Ow8RdE/z917EcxViBz+lWeGd4qv4GKZ40Pkv+fuwi
FhXWK8NuFyNCGyguIRMxi4ozI6Jn9iO88mibcZKSfyMJU5ZnPP7CgYifAFWTTbPn
AgETSEs0EkVuSGqIITP/WgNJVqJpZJekUw6Qc4TGuCiwW8Bnhf2aJfLPDnkkeCCA
8CyuRo7Fzym+f/V9c22qCxBZT9ZG8b8CAwEAAaOByzCByDAdBgNVHQ4EFgQUnUSq
K5tMZkwgxTKy6ggTE2kXSbEwHwYDVR0jBBgwFoAU/4v8pWk2L2I71BvtWC/pdz0p
gYMwNwYIKwYBBQUHAQEEKzApMCcGCCsGAQUFBzAChhtodHRwOi8vdXJsLWZvci1h
aWEvUm9vdC5jZXIwLAYDVR0fBCUwIzAhoB+gHYYbaHR0cDovL3VybC1mb3ItY3Js
L1Jvb3QuY3JsMA4GA1UdDwEB/wQEAwIBBjAPBgNVHRMBAf8EBTADAQH/MA0GCSqG
SIb3DQEBCwUAA4IBAQA2iwWnH8Y/ulYH5pas1+YUgKIosyh997bXgv70RTwiyTD3
/o4jq46AEGGidBTOwyaZFQUBtRazOWUGYxzroej4IyAlP6ioxaADa23fj3IEtRbE
YFU/vGHWftjsEHPoaOiZ51QNlQcXkilovBMJzSt3EvRlOFWTBpX8mwSVOih7qU5Q
mrFRkzN5ymF3I/BLyS3r/CCwEfQj2oikGIjjfVbn+kFC9iTL8LytKHWwcWHI5++w
YrgDa5KcNKMkDZaVNVtjhdnrOM/+Oz/gLSj4kFJFU5uPp23cfuUPPVM6ZyT7gLO4
LT7A0Q5f+TSOh3EEvXRP7555cT6Utu/RRfvwfv25
-----END CERTIFICATE-----
