Certificate:
    Data:
        Version: 3 (0x2)
        Serial Number:
            16:8a:5f:b1:01:c8:f4:45:bd:aa:8c:4e:f9:0c:db:e6:68:45:46:7b
        Signature Algorithm: sha256WithRSAEncryption
        Issuer: CN=Root
        Validity
            Not Before: Oct  5 12:00:00 2021 GMT
            Not After : Oct  5 12:00:00 2022 GMT
        Subject: CN=NC4
        Subject Public Key Info:
            Public Key Algorithm: rsaEncryption
                RSA Public-Key: (2048 bit)
                Modulus:
                    00:d5:ac:80:14:b9:d2:78:ad:43:c8:51:69:3e:98:
                    7f:bd:a8:57:a3:65:28:19:6d:44:e5:6a:5d:f7:c2:
                    31:ed:4e:66:a9:f1:d2:9d:36:b6:b9:98:3f:d8:54:
                    d2:e9:77:3a:fb:9f:d5:c9:f9:c9:df:5e:b7:da:34:
                    42:f6:cb:e3:66:e0:b7:5a:82:9b:77:20:0f:b1:17:
                    1e:2a:70:62:d2:67:9b:a0:54:f2:1b:a4:9f:06:b7:
                    bb:af:5a:6f:55:b1:7e:f8:20:cb:ed:e4:55:d8:18:
                    cb:4f:0e:c3:c4:5d:13:fc:fd:d7:b1:1c:c5:58:81:
                    cf:e9:56:78:67:78:aa:fe:06:29:9e:34:3e:4b:fe:
                    7e:ec:22:16:15:d6:2b:c3:6e:17:23:42:1b:28:2e:
                    21:13:31:8b:8a:33:23:a2:67:f6:23:bc:f2:68:9b:
                    71:92:92:7f:23:09:53:96:67:3c:fe:c2:81:88:9f:
                    00:55:93:4d:b3:e7:02:01:13:48:4b:34:12:45:6e:
                    48:6a:88:21:33:ff:5a:03:49:56:a2:69:64:97:a4:
                    53:0e:90:73:84:c6:b8:28:b0:5b:c0:67:85:fd:9a:
                    25:f2:cf:0e:79:24:78:20:80:f0:2c:ae:46:8e:c5:
                    cf:29:be:7f:f5:7d:73:6d:aa:0b:10:59:4f:d6:46:
                    f1:bf
                Exponent: 65537 (0x10001)
        X509v3 extensions:
            X509v3 Subject Key Identifier: 
                9D:44:AA:2B:9B:4C:66:4C:20:C5:32:B2:EA:08:13:13:69:17:49:B1
            X509v3 Authority Key Identifier: 
                keyid:FF:8B:FC:A5:69:36:2F:62:3B:D4:1B:ED:58:2F:E9:77:3D:29:81:83

            Authority Information Access: 
                CA Issuers - URI:http://url-for-aia/Root.cer

            X509v3 CRL Distribution Points: 

                Full Name:
                  URI:http://url-for-crl/Root.crl

            X509v3 Key Usage: critical
                Certificate Sign, CRL Sign
            X509v3 Basic Constraints: critical
                CA:TRUE
            X509v3 Name Constraints: critical
                Excluded:
                  DirName:O = O1

    Signature Algorithm: sha256WithRSAEncryption
         94:2c:3f:14:bb:a0:ee:a1:d0:46:72:7b:ae:d5:47:24:14:db:
         66:5c:08:51:94:a1:90:29:ed:ba:48:d0:80:67:00:c6:e5:74:
         78:a1:fa:aa:70:b6:a9:83:f4:96:54:37:85:bf:41:83:da:ee:
         57:75:c2:09:f6:49:d5:1e:da:6f:64:ac:e4:92:e3:3f:9c:18:
         08:16:12:7d:a9:2e:9e:2b:20:b7:26:ef:da:4e:e1:97:54:a9:
         86:a8:50:80:28:a6:75:96:b3:b3:77:7e:d8:20:ad:3c:f4:c1:
         b1:eb:1d:e4:67:f0:c3:85:a5:c6:e3:10:ef:64:05:07:8e:7b:
         8f:5e:ea:60:e3:ff:03:7f:43:cf:20:93:7d:ec:50:e7:1b:01:
         b6:f2:f2:90:0c:81:4d:87:52:f1:ed:36:cb:f4:48:e6:d1:9c:
         23:ea:b7:d6:f4:f9:79:6f:ca:9e:e2:ee:ea:3f:46:88:53:5e:
         d7:8b:8b:8e:10:24:99:55:01:b3:c5:87:b6:f9:91:dc:a6:6c:
         77:62:7c:f8:8d:98:b9:25:27:21:5b:09:e2:47:bf:fe:c7:ae:
         23:39:1d:43:e1:70:10:8c:24:c8:4e:ff:de:25:8b:8f:6b:6c:
         55:a4:8b:03:5f:5c:41:c2:fb:c1:03:3e:3e:ea:b3:24:e6:40:
         8d:2a:6b:5c
-----BEGIN CERTIFICATE-----
MIIDmjCCAoKgAwIBAgIUFopfsQHI9EW9qoxO+Qzb5mhFRnswDQYJKoZIhvcNAQEL
BQAwDzENMAsGA1UEAwwEUm9vdDAeFw0yMTEwMDUxMjAwMDBaFw0yMjEwMDUxMjAw
MDBaMA4xDDAKBgNVBAMMA05DNDCCASIwDQYJKoZIhvcNAQEBBQADggEPADCCAQoC
ggEBANWsgBS50nitQ8hRaT6Yf72oV6NlKBltROVqXffCMe1OZqnx0p02trmYP9hU
0ul3Ovuf1cn5yd9et9o0QvbL42bgt1qCm3cgD7EXHipwYtJnm6BU8huknwa3u69a
b1Wxfvggy+3kVdgYy08Ow8RdE/z917EcxViBz+lWeGd4qv4GKZ40Pkv+fuwiFhXW
K8NuFyNCGyguIRMxi4ozI6Jn9iO88mibcZKSfyMJU5ZnPP7CgYifAFWTTbPnAgET
SEs0EkVuSGqIITP/WgNJVqJpZJekUw6Qc4TGuCiwW8Bnhf2aJfLPDnkkeCCA8Cyu
Ro7Fzym+f/V9c22qCxBZT9ZG8b8CAwEAAaOB7jCB6zAdBgNVHQ4EFgQUnUSqK5tM
ZkwgxTKy6ggTE2kXSbEwHwYDVR0jBBgwFoAU/4v8pWk2L2I71BvtWC/pdz0pgYMw
NwYIKwYBBQUHAQEEKzApMCcGCCsGAQUFBzAChhtodHRwOi8vdXJsLWZvci1haWEv
Um9vdC5jZXIwLAYDVR0fBCUwIzAhoB+gHYYbaHR0cDovL3VybC1mb3ItY3JsL1Jv
b3QuY3JsMA4GA1UdDwEB/wQEAwIBBjAPBgNVHRMBAf8EBTADAQH/MCEGA1UdHgEB
/wQXMBWhEzARpA8wDTELMAkGA1UECgwCTzEwDQYJKoZIhvcNAQELBQADggEBAJQs
PxS7oO6h0EZye67VRyQU22ZcCFGUoZAp7bpI0IBnAMbldHih+qpwtqmD9JZUN4W/
QYPa7ld1wgn2SdUe2m9krOSS4z+cGAgWEn2pLp4rILcm79pO4ZdUqYaoUIAopnWW
s7N3ftggrTz0wbHrHeRn8MOFpcbjEO9kBQeOe49e6mDj/wN/Q88gk33sUOcbAbby
8pAMgU2HUvHtNsv0SObRnCPqt9b0+Xlvyp7i7uo/RohTXteLi44QJJlVAbPFh7b5
kdymbHdifPiNmLklJyFbCeJHv/7HriM5HUPhcBCMJMhO/94li49rbFWkiwNfXEHC
+8EDPj7qsyTmQI0qa1w=
-----END CERTIFICATE-----
