Certificate:
    Data:
        Version: 3 (0x2)
        Serial Number:
            16:8a:5f:b1:01:c8:f4:45:bd:aa:8c:4e:f9:0c:db:e6:68:45:46:7a
        Signature Algorithm: sha256WithRSAEncryption
        Issuer: CN=Root
        Validity
            Not Before: Nov  3 12:00:00 2020 GMT
            Not After : Nov  3 12:00:00 2021 GMT
        Subject: CN=NC3
        Subject Public Key Info:
            Public Key Algorithm: rsaEncryption
                RSA Public-Key: (2048 bit)
                Modulus:
                    00:d5:ac:80:14:b9:d2:78:ad:43:c8:51:69:3e:98:
                    7f:bd:a8:57:a3:65:28:19:6d:44:e5:6a:5d:f7:c2:
                    31:ed:4e:66:a9:f1:d2:9d:36:b6:b9:98:3f:d8:54:
                    d2:e9:77:3a:fb:9f:d5:c9:f9:c9:df:5e:b7:da:34:
                    42:f6:cb:e3:66:e0:b7:5a:82:9b:77:20:0f:b1:17:
                    1e:2a:70:62:d2:67:9b:a0:54:f2:1b:a4:9f:06:b7:
                    bb:af:5a:6f:55:b1:7e:f8:20:cb:ed:e4:55:d8:18:
                    cb:4f:0e:c3:c4:5d:13:fc:fd:d7:b1:1c:c5:58:81:
                    cf:e9:56:78:67:78:aa:fe:06:29:9e:34:3e:4b:fe:
                    7e:ec:22:16:15:d6:2b:c3:6e:17:23:42:1b:28:2e:
                    21:13:31:8b:8a:33:23:a2:67:f6:23:bc:f2:68:9b:
                    71:92:92:7f:23:09:53:96:67:3c:fe:c2:81:88:9f:
                    00:55:93:4d:b3:e7:02:01:13:48:4b:34:12:45:6e:
                    48:6a:88:21:33:ff:5a:03:49:56:a2:69:64:97:a4:
                    53:0e:90:73:84:c6:b8:28:b0:5b:c0:67:85:fd:9a:
                    25:f2:cf:0e:79:24:78:20:80:f0:2c:ae:46:8e:c5:
                    cf:29:be:7f:f5:7d:73:6d:aa:0b:10:59:4f:d6:46:
                    f1:bf
                Exponent: 65537 (0x10001)
        X509v3 extensions:
            X509v3 Subject Key Identifier: 
                9D:44:AA:2B:9B:4C:66:4C:20:C5:32:B2:EA:08:13:13:69:17:49:B1
            X509v3 Authority Key Identifier: 
                keyid:FF:8B:FC:A5:69:36:2F:62:3B:D4:1B:ED:58:2F:E9:77:3D:29:81:83

            Authority Information Access: 
                CA Issuers - URI:http://url-for-aia/Root.cer

            X509v3 CRL Distribution Points: 

                Full Name:
                  URI:http://url-for-crl/Root.crl

            X509v3 Key Usage: critical
                Certificate Sign, CRL Sign
            X509v3 Basic Constraints: critical
                CA:TRUE
            X509v3 Name Constraints: critical
                Permitted:
                  DirName:CN = O1

    Signature Algorithm: sha256WithRSAEncryption
         b2:e0:85:a2:0d:05:e0:f8:72:86:7a:04:69:a1:bb:f3:ae:b0:
         c9:6d:eb:50:26:19:44:ff:09:5e:0b:1d:e6:53:ac:07:5d:f6:
         38:10:42:f9:07:b3:af:b7:06:de:d7:15:4b:7d:f4:a6:f4:f6:
         09:ab:5d:af:2f:54:54:e0:09:13:a1:d7:f3:f3:de:bc:a2:b2:
         71:26:e1:77:3f:a1:da:dd:44:20:7b:24:40:14:6e:1a:d5:c5:
         b7:b7:ed:a0:3d:89:ba:17:90:62:be:f7:df:23:ff:9f:a9:5b:
         d7:f9:82:0a:e4:7d:d6:d3:0f:db:54:3a:92:f4:e1:3c:88:4a:
         4e:60:82:be:6f:52:24:e3:70:1d:d0:6b:e5:24:3c:5c:bd:74:
         f1:af:59:37:f0:fa:c0:fb:52:d9:33:4c:6a:70:89:fa:5e:0a:
         b5:e7:9c:3d:c7:ff:be:24:b2:c3:2e:bd:a4:26:f4:f9:ca:e3:
         f6:23:60:45:32:8d:72:41:78:0e:08:43:fa:54:c1:e3:bc:99:
         b8:d9:87:a7:ba:cb:63:3a:ed:2e:61:ef:a4:11:fa:55:70:1e:
         15:1c:43:9a:3b:41:65:94:67:fa:26:78:9f:e1:6b:a0:c8:15:
         87:fe:43:ab:40:dc:72:df:c4:b4:3c:4b:0f:18:b6:fd:8e:4f:
         a1:d8:42:3d
-----BEGIN CERTIFICATE-----
MIIDmjCCAoKgAwIBAgIUFopfsQHI9EW9qoxO+Qzb5mhFRnowDQYJKoZIhvcNAQEL
BQAwDzENMAsGA1UEAwwEUm9vdDAeFw0yMDExMDMxMjAwMDBaFw0yMTExMDMxMjAw
MDBaMA4xDDAKBgNVBAMMA05DMzCCASIwDQYJKoZIhvcNAQEBBQADggEPADCCAQoC
ggEBANWsgBS50nitQ8hRaT6Yf72oV6NlKBltROVqXffCMe1OZqnx0p02trmYP9hU
0ul3Ovuf1cn5yd9et9o0QvbL42bgt1qCm3cgD7EXHipwYtJnm6BU8huknwa3u69a
b1Wxfvggy+3kVdgYy08Ow8RdE/z917EcxViBz+lWeGd4qv4GKZ40Pkv+fuwiFhXW
K8NuFyNCGyguIRMxi4ozI6Jn9iO88mibcZKSfyMJU5ZnPP7CgYifAFWTTbPnAgET
SEs0EkVuSGqIITP/WgNJVqJpZJekUw6Qc4TGuCiwW8Bnhf2aJfLPDnkkeCCA8Cyu
Ro7Fzym+f/V9c22qCxBZT9ZG8b8CAwEAAaOB7jCB6zAdBgNVHQ4EFgQUnUSqK5tM
ZkwgxTKy6ggTE2kXSbEwHwYDVR0jBBgwFoAU/4v8pWk2L2I71BvtWC/pdz0pgYMw
NwYIKwYBBQUHAQEEKzApMCcGCCsGAQUFBzAChhtodHRwOi8vdXJsLWZvci1haWEv
Um9vdC5jZXIwLAYDVR0fBCUwIzAhoB+gHYYbaHR0cDovL3VybC1mb3ItY3JsL1Jv
b3QuY3JsMA4GA1UdDwEB/wQEAwIBBjAPBgNVHRMBAf8EBTADAQH/MCEGA1UdHgEB
/wQXMBWgEzARpA8wDTELMAkGA1UEAwwCTzEwDQYJKoZIhvcNAQELBQADggEBALLg
haINBeD4coZ6BGmhu/OusMlt61AmGUT/CV4LHeZTrAdd9jgQQvkHs6+3Bt7XFUt9
9Kb09gmrXa8vVFTgCROh1/Pz3ryisnEm4Xc/odrdRCB7JEAUbhrVxbe37aA9iboX
kGK+998j/5+pW9f5ggrkfdbTD9tUOpL04TyISk5ggr5vUiTjcB3Qa+UkPFy9dPGv
WTfw+sD7UtkzTGpwifpeCrXnnD3H/74kssMuvaQm9PnK4/YjYEUyjXJBeA4IQ/pU
weO8mbjZh6e6y2M67S5h76QR+lVwHhUcQ5o7QWWUZ/omeJ/ha6DIFYf+Q6tA3HLf
xLQ8Sw8Ytv2OT6HYQj0=
-----END CERTIFICATE-----
