Certificate:
    Data:
        Version: 3 (0x2)
        Serial Number:
            16:8a:5f:b1:01:c8:f4:45:bd:aa:8c:4e:f9:0c:db:e6:68:45:46:71
        Signature Algorithm: sha256WithRSAEncryption
        Issuer: CN=Root
        Validity
            Not Before: Oct  5 12:00:00 2021 GMT
            Not After : Oct  5 12:00:00 2022 GMT
        Subject: CN=Root
        Subject Public Key Info:
            Public Key Algorithm: rsaEncryption
                RSA Public-Key: (2048 bit)
                Modulus:
                    00:d6:58:29:fc:69:44:34:39:a5:91:06:35:ac:de:
                    31:2a:f7:6f:f0:1a:c7:21:6e:83:cb:d2:5d:06:c1:
                    9f:52:4d:ee:46:07:35:10:28:b5:5c:68:29:87:22:
                    8e:c6:f7:7d:ed:89:05:28:9c:d1:6a:80:c6:44:fb:
                    5c:bc:09:0c:37:f1:25:b7:3c:f9:01:84:72:03:dd:
                    3b:02:5a:cb:5f:65:00:27:8c:ec:25:8b:2b:b0:8b:
                    9b:60:3f:b6:b9:ba:53:68:88:3c:30:46:32:fa:d9:
                    a9:ce:aa:55:b5:ca:3e:51:e7:98:5e:d1:1b:0c:75:
                    d1:a0:7e:1f:44:ff:b4:62:c4:b4:d3:d9:5d:6d:71:
                    b2:c1:0a:59:b4:fc:60:74:4f:a3:df:64:7d:66:5e:
                    4b:2a:9e:4e:e0:16:c5:aa:a3:0c:b9:60:a3:38:70:
                    93:cc:ce:43:4b:6e:2b:60:b5:1f:c1:ff:ee:85:be:
                    62:db:63:47:87:e1:3e:a2:4b:57:d6:ce:6e:f8:ce:
                    7d:d3:8f:db:e1:2d:0a:57:39:0f:dd:6e:dd:4c:8a:
                    05:7b:c9:97:e4:9e:0a:ff:99:c2:41:29:7a:06:b9:
                    3c:f1:02:fe:3b:85:b5:ef:4a:ae:85:8c:75:66:62:
                    72:0f:37:b4:aa:80:d5:21:43:70:04:e4:3e:00:f4:
                    af:39
                Exponent: 65537 (0x10001)
        X509v3 extensions:
            X509v3 Subject Key Identifier: 
                FF:8B:FC:A5:69:36:2F:62:3B:D4:1B:ED:58:2F:E9:77:3D:29:81:83
            X509v3 Authority Key Identifier: 
                keyid:FF:8B:FC:A5:69:36:2F:62:3B:D4:1B:ED:58:2F:E9:77:3D:29:81:83

            Authority Information Access: 
                CA Issuers - URI:http://url-for-aia/Root.cer

            X509v3 CRL Distribution Points: 

                Full Name:
                  URI:http://url-for-crl/Root.crl

            X509v3 Key Usage: critical
                Certificate Sign, CRL Sign
            X509v3 Basic Constraints: critical
                CA:TRUE
    Signature Algorithm: sha256WithRSAEncryption
         84:12:8f:04:63:ac:ad:3f:eb:67:28:9a:26:36:32:5b:ca:26:
         aa:28:fd:7e:87:57:23:be:11:a3:d6:12:2a:c6:06:51:99:ab:
         a8:f6:1a:e8:98:a2:83:80:10:44:59:29:cd:08:69:4c:59:a9:
         ec:38:da:8f:8e:44:89:20:fc:b2:14:1d:49:69:b8:1e:0e:aa:
         37:4a:11:05:02:74:6c:96:dc:d6:f9:50:9a:4a:42:06:03:a8:
         e2:ef:3f:f6:24:06:5f:00:d0:98:72:28:0f:91:2c:d3:c9:dc:
         cc:68:47:8f:f8:55:a5:d3:9f:88:fd:58:8f:58:31:48:79:fc:
         d4:ae:65:0e:2d:6c:36:2d:3a:9b:8c:11:6e:af:e1:44:fd:d9:
         72:19:97:b8:91:e5:68:2f:3f:1c:48:e3:4e:12:d8:61:75:5d:
         43:93:ec:75:d8:c2:9e:b4:63:65:af:69:18:7c:5b:84:e4:05:
         91:f3:dd:2e:d8:c1:71:2c:e8:0a:56:5a:cf:7b:39:8f:41:9d:
         44:3f:cd:13:ef:0d:5a:0a:16:1b:52:f4:80:c2:2c:5b:9e:af:
         52:da:02:d6:a0:03:db:44:e3:eb:c6:0a:db:2b:0c:44:92:92:
         d6:b8:7b:fa:97:11:60:49:db:ac:c5:ed:8c:b3:18:54:88:8d:
         77:e7:bd:eb
-----BEGIN CERTIFICATE-----
MIIDeDCCAmCgAwIBAgIUFopfsQHI9EW9qoxO+Qzb5mhFRnEwDQYJKoZIhvcNAQEL
BQAwDzENMAsGA1UEAwwEUm9vdDAeFw0yMTEwMDUxMjAwMDBaFw0yMjEwMDUxMjAw
MDBaMA8xDTALBgNVBAMMBFJvb3QwggEiMA0GCSqGSIb3DQEBAQUAA4IBDwAwggEK
AoIBAQDWWCn8aUQ0OaWRBjWs3jEq92/wGschboPL0l0GwZ9STe5GBzUQKLVcaCmH
Io7G933tiQUonNFqgMZE+1y8CQw38SW3PPkBhHID3TsCWstfZQAnjOwliyuwi5tg
P7a5ulNoiDwwRjL62anOqlW1yj5R55he0RsMddGgfh9E/7RixLTT2V1tcbLBClm0
/GB0T6PfZH1mXksqnk7gFsWqowy5YKM4cJPMzkNLbitgtR/B/+6FvmLbY0eH4T6i
S1fWzm74zn3Tj9vhLQpXOQ/dbt1MigV7yZfkngr/mcJBKXoGuTzxAv47hbXvSq6F
jHVmYnIPN7SqgNUhQ3AE5D4A9K85AgMBAAGjgcswgcgwHQYDVR0OBBYEFP+L/KVp
Ni9iO9Qb7Vgv6Xc9KYGDMB8GA1UdIwQYMBaAFP+L/KVpNi9iO9Qb7Vgv6Xc9KYGD
MDcGCCsGAQUFBwEBBCswKTAnBggrBgEFBQcwAoYbaHR0cDovL3VybC1mb3ItYWlh
L1Jvb3QuY2VyMCwGA1UdHwQlMCMwIaAfoB2GG2h0dHA6Ly91cmwtZm9yLWNybC9S
b290LmNybDAOBgNVHQ8BAf8EBAMCAQYwDwYDVR0TAQH/BAUwAwEB/zANBgkqhkiG
9w0BAQsFAAOCAQEAhBKPBGOsrT/rZyiaJjYyW8omqij9fodXI74Ro9YSKsYGUZmr
qPYa6Jiig4AQRFkpzQhpTFmp7Djaj45EiSD8shQdSWm4Hg6qN0oRBQJ0bJbc1vlQ
mkpCBgOo4u8/9iQGXwDQmHIoD5Es08nczGhHj/hVpdOfiP1Yj1gxSHn81K5lDi1s
Ni06m4wRbq/hRP3ZchmXuJHlaC8/HEjjThLYYXVdQ5PsddjCnrRjZa9pGHxbhOQF
kfPdLtjBcSzoClZaz3s5j0GdRD/NE+8NWgoWG1L0gMIsW56vUtoC1qAD20Tj68YK
2ysMRJKS1rh7+pcRYEnbrMXtjLMYVIiNd+e96w==
-----END CERTIFICATE-----
