Certificate:
    Data:
        Version: 3 (0x2)
        Serial Number:
            16:8a:5f:b1:01:c8:f4:45:bd:aa:8c:4e:f9:0c:db:e6:68:45:46:71
        Signature Algorithm: sha256WithRSAEncryption
        Issuer: CN=Root
        Validity
            Not Before: Nov  3 12:00:00 2020 GMT
            Not After : Nov  3 12:00:00 2021 GMT
        Subject: CN=Root
        Subject Public Key Info:
            Public Key Algorithm: rsaEncryption
                RSA Public-Key: (2048 bit)
                Modulus:
                    00:d6:58:29:fc:69:44:34:39:a5:91:06:35:ac:de:
                    31:2a:f7:6f:f0:1a:c7:21:6e:83:cb:d2:5d:06:c1:
                    9f:52:4d:ee:46:07:35:10:28:b5:5c:68:29:87:22:
                    8e:c6:f7:7d:ed:89:05:28:9c:d1:6a:80:c6:44:fb:
                    5c:bc:09:0c:37:f1:25:b7:3c:f9:01:84:72:03:dd:
                    3b:02:5a:cb:5f:65:00:27:8c:ec:25:8b:2b:b0:8b:
                    9b:60:3f:b6:b9:ba:53:68:88:3c:30:46:32:fa:d9:
                    a9:ce:aa:55:b5:ca:3e:51:e7:98:5e:d1:1b:0c:75:
                    d1:a0:7e:1f:44:ff:b4:62:c4:b4:d3:d9:5d:6d:71:
                    b2:c1:0a:59:b4:fc:60:74:4f:a3:df:64:7d:66:5e:
                    4b:2a:9e:4e:e0:16:c5:aa:a3:0c:b9:60:a3:38:70:
                    93:cc:ce:43:4b:6e:2b:60:b5:1f:c1:ff:ee:85:be:
                    62:db:63:47:87:e1:3e:a2:4b:57:d6:ce:6e:f8:ce:
                    7d:d3:8f:db:e1:2d:0a:57:39:0f:dd:6e:dd:4c:8a:
                    05:7b:c9:97:e4:9e:0a:ff:99:c2:41:29:7a:06:b9:
                    3c:f1:02:fe:3b:85:b5:ef:4a:ae:85:8c:75:66:62:
                    72:0f:37:b4:aa:80:d5:21:43:70:04:e4:3e:00:f4:
                    af:39
                Exponent: 65537 (0x10001)
        X509v3 extensions:
            X509v3 Subject Key Identifier: 
                FF:8B:FC:A5:69:36:2F:62:3B:D4:1B:ED:58:2F:E9:77:3D:29:81:83
            X509v3 Authority Key Identifier: 
                keyid:FF:8B:FC:A5:69:36:2F:62:3B:D4:1B:ED:58:2F:E9:77:3D:29:81:83

            Authority Information Access: 
                CA Issuers - URI:http://url-for-aia/Root.cer

            X509v3 CRL Distribution Points: 

                Full Name:
                  URI:http://url-for-crl/Root.crl

            X509v3 Key Usage: critical
                Certificate Sign, CRL Sign
            X509v3 Basic Constraints: critical
                CA:TRUE
    Signature Algorithm: sha256WithRSAEncryption
         52:83:83:62:f3:35:a0:2a:78:c0:56:0d:d9:07:65:70:d7:ef:
         fe:ad:22:6a:14:16:3d:60:a4:c6:25:6f:61:d3:a7:9d:76:61:
         b7:b4:3e:cf:b5:f9:b8:1f:26:f8:f2:3d:44:c1:6f:87:4e:f6:
         da:7a:78:1e:01:54:46:de:20:9a:03:8f:38:31:e3:ca:37:6c:
         43:be:56:cc:71:5a:55:8f:b0:72:6d:98:78:93:68:10:be:33:
         59:76:9c:ca:c5:cc:2e:c6:f1:8b:8a:17:47:d1:39:de:13:2c:
         80:07:6f:86:d0:a2:28:35:f5:d1:05:0e:26:ab:7a:38:9f:da:
         4a:cd:58:53:b7:02:64:b3:9c:40:d3:29:cc:b8:df:94:7a:3b:
         d9:a4:6a:c2:7d:80:26:79:7a:92:8c:87:df:4c:b3:39:4a:68:
         8c:88:ca:0f:ef:1b:7a:df:57:f9:ff:89:5b:44:3b:46:c1:0f:
         9e:f5:93:ee:43:1b:92:69:9b:14:aa:71:1e:97:84:a5:94:3f:
         3f:e2:82:9d:0b:f0:46:bc:37:ef:14:a5:73:8d:3a:fd:9f:79:
         b4:12:9d:38:34:48:74:2a:0c:39:e7:0d:50:9d:b5:83:42:13:
         95:6f:b4:9b:77:8c:5d:47:e4:e2:2b:29:d0:b8:e7:46:77:ee:
         da:57:1d:b9
-----BEGIN CERTIFICATE-----
MIIDeDCCAmCgAwIBAgIUFopfsQHI9EW9qoxO+Qzb5mhFRnEwDQYJKoZIhvcNAQEL
BQAwDzENMAsGA1UEAwwEUm9vdDAeFw0yMDExMDMxMjAwMDBaFw0yMTExMDMxMjAw
MDBaMA8xDTALBgNVBAMMBFJvb3QwggEiMA0GCSqGSIb3DQEBAQUAA4IBDwAwggEK
AoIBAQDWWCn8aUQ0OaWRBjWs3jEq92/wGschboPL0l0GwZ9STe5GBzUQKLVcaCmH
Io7G933tiQUonNFqgMZE+1y8CQw38SW3PPkBhHID3TsCWstfZQAnjOwliyuwi5tg
P7a5ulNoiDwwRjL62anOqlW1yj5R55he0RsMddGgfh9E/7RixLTT2V1tcbLBClm0
/GB0T6PfZH1mXksqnk7gFsWqowy5YKM4cJPMzkNLbitgtR/B/+6FvmLbY0eH4T6i
S1fWzm74zn3Tj9vhLQpXOQ/dbt1MigV7yZfkngr/mcJBKXoGuTzxAv47hbXvSq6F
jHVmYnIPN7SqgNUhQ3AE5D4A9K85AgMBAAGjgcswgcgwHQYDVR0OBBYEFP+L/KVp
Ni9iO9Qb7Vgv6Xc9KYGDMB8GA1UdIwQYMBaAFP+L/KVpNi9iO9Qb7Vgv6Xc9KYGD
MDcGCCsGAQUFBwEBBCswKTAnBggrBgEFBQcwAoYbaHR0cDovL3VybC1mb3ItYWlh
L1Jvb3QuY2VyMCwGA1UdHwQlMCMwIaAfoB2GG2h0dHA6Ly91cmwtZm9yLWNybC9S
b290LmNybDAOBgNVHQ8BAf8EBAMCAQYwDwYDVR0TAQH/BAUwAwEB/zANBgkqhkiG
9w0BAQsFAAOCAQEAUoODYvM1oCp4wFYN2QdlcNfv/q0iahQWPWCkxiVvYdOnnXZh
t7Q+z7X5uB8m+PI9RMFvh0722np4HgFURt4gmgOPODHjyjdsQ75WzHFaVY+wcm2Y
eJNoEL4zWXacysXMLsbxi4oXR9E53hMsgAdvhtCiKDX10QUOJqt6OJ/aSs1YU7cC
ZLOcQNMpzLjflHo72aRqwn2AJnl6koyH30yzOUpojIjKD+8bet9X+f+JW0Q7RsEP
nvWT7kMbkmmbFKpxHpeEpZQ/P+KCnQvwRrw37xSlc406/Z95tBKdODRIdCoMOecN
UJ21g0ITlW+0m3eMXUfk4isp0LjnRnfu2lcduQ==
-----END CERTIFICATE-----
