[Created by: generate-chains.py]

Certificate chain where the target certificate contains an unknown X.509v3
extension (OID=1.2.3.4) that is marked as critical.

Certificate:
    Data:
        Version: 3 (0x2)
        Serial Number:
            4e:9a:ac:ff:32:38:c0:2f:b6:e5:63:63:94:45:6d:aa:aa:c4:b6:e5
        Signature Algorithm: sha256WithRSAEncryption
        Issuer: CN=Intermediate
        Validity
            Not Before: Nov  3 12:00:00 2020 GMT
            Not After : Nov  3 12:00:00 2021 GMT
        Subject: CN=Target
        Subject Public Key Info:
            Public Key Algorithm: rsaEncryption
                RSA Public-Key: (2048 bit)
                Modulus:
                    00:bd:05:ea:3a:1c:14:a1:db:ad:2c:18:3d:25:9c:
                    dc:1c:0f:2b:1e:42:df:c2:7c:b4:39:e6:4b:45:eb:
                    d3:a2:1c:2b:dc:f2:8c:08:f5:81:df:bd:fa:a2:1a:
                    1c:5c:99:cb:00:c7:31:02:c8:44:5f:31:cf:9c:82:
                    6d:3c:0c:5d:f7:d6:cc:91:fe:f3:e7:7a:08:17:85:
                    d5:75:61:ee:dd:66:55:3c:e2:68:98:36:19:20:e4:
                    9b:cd:24:6c:a3:5d:89:84:80:2e:c7:11:4e:c1:82:
                    b2:80:ce:0f:e9:6a:42:54:10:fb:c0:0a:53:be:19:
                    01:38:ba:06:c5:93:93:1c:84:aa:25:c7:c5:9a:4d:
                    32:2e:a4:13:5e:6d:07:d6:9d:e5:b0:29:63:da:14:
                    b7:62:51:63:93:dc:28:ae:4a:bc:35:ac:c0:06:ea:
                    ea:0b:d5:70:61:3b:05:78:e4:d3:ad:c3:ad:95:f1:
                    48:e5:79:a6:dc:12:1f:14:4f:21:9f:ca:6f:7a:dd:
                    d6:45:c8:8a:60:96:1c:02:06:16:18:80:21:58:6a:
                    f6:83:3e:1a:98:b8:b2:a9:22:44:c2:25:e9:dc:a9:
                    aa:bf:1d:2e:3f:2e:a1:78:08:93:04:4c:c4:1f:f9:
                    b3:34:9f:a7:78:5b:02:a6:ca:d3:1f:fa:ba:4d:34:
                    a2:bb
                Exponent: 65537 (0x10001)
        X509v3 extensions:
            X509v3 Subject Key Identifier: 
                D6:55:4E:AC:07:84:35:A9:0D:9A:63:45:82:73:4E:A4:CC:53:B0:02
            X509v3 Authority Key Identifier: 
                keyid:8A:E3:E6:F6:58:6F:1C:90:B4:67:A5:14:D8:64:E7:F7:00:77:61:01

            Authority Information Access: 
                CA Issuers - URI:http://url-for-aia/Intermediate.cer

            X509v3 CRL Distribution Points: 

                Full Name:
                  URI:http://url-for-crl/Intermediate.crl

            X509v3 Key Usage: critical
                Digital Signature, Key Encipherment
            X509v3 Extended Key Usage: 
                TLS Web Server Authentication, TLS Web Client Authentication
            1.2.3.4: critical
                ....
    Signature Algorithm: sha256WithRSAEncryption
         b0:92:40:71:b3:2a:67:e4:4f:35:a0:92:1f:42:37:85:f5:08:
         fb:c0:bc:d1:d4:04:e9:23:e7:55:6f:26:e9:51:ad:e9:38:63:
         c9:d7:ea:4d:fd:9a:4c:bf:f5:c2:d7:cb:a1:4b:2e:20:5d:63:
         06:e9:07:a0:63:a7:76:91:74:ec:9c:e0:ff:b1:af:76:05:fd:
         e7:95:71:65:14:f1:50:96:20:97:af:82:09:df:3b:f5:74:68:
         6a:33:6d:6c:88:f5:12:69:46:1f:bd:c0:ec:54:00:13:58:59:
         ae:f5:23:49:b7:ae:dc:64:35:71:fa:ec:57:2c:e7:b5:db:8b:
         85:dd:2a:be:36:e3:81:ae:b5:c1:2b:9e:9f:84:ea:73:04:09:
         de:10:f7:ea:27:9f:4c:9b:63:e3:f2:e1:fd:70:2c:52:d6:66:
         56:73:80:12:c9:c0:36:89:72:f9:f4:63:69:6a:fe:bb:fa:57:
         f7:4d:d0:12:cd:38:60:67:cc:17:4a:5d:0d:b9:37:a9:cb:89:
         64:46:67:b3:e8:fd:ab:4f:73:6b:5c:74:5d:f0:bb:8d:88:48:
         ba:93:46:82:c3:77:25:79:2a:57:c7:20:bd:62:56:fa:1c:72:
         a9:03:61:4e:87:a3:c7:24:7c:41:d8:e4:1b:51:f3:1d:4d:3e:
         a0:88:23:8a
-----BEGIN CERTIFICATE-----
MIIDsDCCApigAwIBAgIUTpqs/zI4wC+25WNjlEVtqqrEtuUwDQYJKoZIhvcNAQEL
BQAwFzEVMBMGA1UEAwwMSW50ZXJtZWRpYXRlMB4XDTIwMTEwMzEyMDAwMFoXDTIx
MTEwMzEyMDAwMFowETEPMA0GA1UEAwwGVGFyZ2V0MIIBIjANBgkqhkiG9w0BAQEF
AAOCAQ8AMIIBCgKCAQEAvQXqOhwUodutLBg9JZzcHA8rHkLfwny0OeZLRevTohwr
3PKMCPWB3736ohocXJnLAMcxAshEXzHPnIJtPAxd99bMkf7z53oIF4XVdWHu3WZV
POJomDYZIOSbzSRso12JhIAuxxFOwYKygM4P6WpCVBD7wApTvhkBOLoGxZOTHISq
JcfFmk0yLqQTXm0H1p3lsClj2hS3YlFjk9workq8NazABurqC9VwYTsFeOTTrcOt
lfFI5Xmm3BIfFE8hn8pvet3WRciKYJYcAgYWGIAhWGr2gz4amLiyqSJEwiXp3Kmq
vx0uPy6heAiTBEzEH/mzNJ+neFsCpsrTH/q6TTSiuwIDAQABo4H5MIH2MB0GA1Ud
DgQWBBTWVU6sB4Q1qQ2aY0WCc06kzFOwAjAfBgNVHSMEGDAWgBSK4+b2WG8ckLRn
pRTYZOf3AHdhATA/BggrBgEFBQcBAQQzMDEwLwYIKwYBBQUHMAKGI2h0dHA6Ly91
cmwtZm9yLWFpYS9JbnRlcm1lZGlhdGUuY2VyMDQGA1UdHwQtMCswKaAnoCWGI2h0
dHA6Ly91cmwtZm9yLWNybC9JbnRlcm1lZGlhdGUuY3JsMA4GA1UdDwEB/wQEAwIF
oDAdBgNVHSUEFjAUBggrBgEFBQcDAQYIKwYBBQUHAwIwDgYDKgMEAQH/BAQBAgME
MA0GCSqGSIb3DQEBCwUAA4IBAQCwkkBxsypn5E81oJIfQjeF9Qj7wLzR1ATpI+dV
bybpUa3pOGPJ1+pN/ZpMv/XC18uhSy4gXWMG6QegY6d2kXTsnOD/sa92Bf3nlXFl
FPFQliCXr4IJ3zv1dGhqM21siPUSaUYfvcDsVAATWFmu9SNJt67cZDVx+uxXLOe1
24uF3Sq+NuOBrrXBK56fhOpzBAneEPfqJ59Mm2Pj8uH9cCxS1mZWc4ASycA2iXL5
9GNpav67+lf3TdASzThgZ8wXSl0NuTepy4lkRmez6P2rT3NrXHRd8LuNiEi6k0aC
w3cleSpXxyC9Ylb6HHKpA2FOh6PHJHxB2OQbUfMdTT6giCOK
-----END CERTIFICATE-----

Certificate:
    Data:
        Version: 3 (0x2)
        Serial Number:
            06:66:51:84:c2:7e:fc:0c:cf:05:27:4c:bc:d3:55:23:ed:cb:19:f9
        Signature Algorithm: sha256WithRSAEncryption
        Issuer: CN=Root
        Validity
            Not Before: Nov  3 12:00:00 2020 GMT
            Not After : Nov  3 12:00:00 2021 GMT
        Subject: CN=Intermediate
        Subject Public Key Info:
            Public Key Algorithm: rsaEncryption
                RSA Public-Key: (2048 bit)
                Modulus:
                    00:b8:cf:91:dd:b5:74:07:ba:8a:93:3c:ca:0c:11:
                    5d:36:29:ec:53:1e:32:8b:90:ae:f9:c0:db:d2:7e:
                    78:ea:3c:58:57:5f:70:4a:96:9a:93:58:d3:7e:42:
                    60:bd:78:07:38:6b:e4:16:8f:32:17:30:b1:76:95:
                    56:6d:7e:e5:9e:f9:0f:f8:5a:99:ee:80:e1:e6:fc:
                    d6:af:33:61:aa:da:19:98:7f:da:27:2f:80:bc:96:
                    2e:51:81:f8:1a:63:27:0b:ce:ee:02:16:55:4a:96:
                    0a:c5:c1:7e:99:95:e8:70:e7:4d:2b:2f:bf:d3:d2:
                    2d:25:7d:0f:b2:50:96:36:95:e5:2c:ca:0e:59:b5:
                    d4:7c:31:57:96:fa:be:c6:d5:9a:83:b5:96:f2:1c:
                    4a:20:cf:be:0e:7f:42:4f:a7:b4:5b:e2:01:f4:ed:
                    59:c4:6e:51:a1:a5:aa:a7:1f:04:ce:e0:d2:2c:ff:
                    a3:74:c7:e4:2a:a8:d2:7f:cd:f1:56:86:67:fe:75:
                    22:05:f7:2d:3b:3b:ce:5c:b9:95:4e:e5:ca:d8:89:
                    f6:b3:12:27:b4:22:6b:fb:83:f9:0e:de:a8:be:38:
                    5b:15:66:81:3b:62:d7:50:12:29:69:5b:c5:5a:99:
                    97:aa:51:c3:36:88:97:c9:c1:90:53:4f:b3:ec:99:
                    3c:f3
                Exponent: 65537 (0x10001)
        X509v3 extensions:
            X509v3 Subject Key Identifier: 
                8A:E3:E6:F6:58:6F:1C:90:B4:67:A5:14:D8:64:E7:F7:00:77:61:01
            X509v3 Authority Key Identifier: 
                keyid:52:00:A4:BE:8B:5F:23:63:5E:31:05:87:F4:6B:50:A7:01:70:63:DA

            Authority Information Access: 
                CA Issuers - URI:http://url-for-aia/Root.cer

            X509v3 CRL Distribution Points: 

                Full Name:
                  URI:http://url-for-crl/Root.crl

            X509v3 Key Usage: critical
                Certificate Sign, CRL Sign
            X509v3 Basic Constraints: critical
                CA:TRUE
    Signature Algorithm: sha256WithRSAEncryption
         76:14:f8:dc:d5:22:19:81:15:41:03:cf:4d:64:ef:2c:aa:49:
         d2:98:1e:24:f1:8c:47:fb:ac:13:bd:19:ff:df:59:8c:a4:8f:
         05:81:3d:66:0f:99:2e:5e:52:14:4a:69:88:b0:e9:5d:aa:5f:
         b8:22:87:aa:01:f4:98:de:c1:74:85:fa:13:6e:3c:cd:a6:86:
         f4:64:4f:5f:44:14:2b:49:5f:91:77:87:e9:c3:fa:cf:43:24:
         71:35:f8:3b:9d:4a:cd:fd:86:b8:3d:02:2b:33:0e:0e:0b:29:
         a9:01:8b:de:02:ff:f6:c7:9e:ea:fa:c3:1c:61:6f:e4:24:ac:
         3d:2e:63:02:ee:53:36:ce:66:cb:62:95:2b:5f:87:49:df:fc:
         6f:af:cb:6c:82:f8:bd:6a:60:97:ff:f6:02:55:6b:af:f6:e7:
         99:89:18:24:cd:31:d2:4f:73:1a:61:cf:23:81:b8:0c:f7:ad:
         f2:30:b4:95:81:96:bc:43:89:6b:79:3d:c3:60:f0:4b:71:a7:
         78:74:42:3b:ef:95:46:8a:0b:05:be:fe:a9:92:20:03:28:9a:
         85:23:a1:fc:81:42:50:ac:84:c8:99:b7:21:d7:6f:ae:2c:e3:
         29:b5:c2:c8:4b:87:85:ac:85:53:6d:ca:58:f3:2c:28:49:4b:
         ed:ec:5a:91
-----BEGIN CERTIFICATE-----
MIIDgDCCAmigAwIBAgIUBmZRhMJ+/AzPBSdMvNNVI+3LGfkwDQYJKoZIhvcNAQEL
BQAwDzENMAsGA1UEAwwEUm9vdDAeFw0yMDExMDMxMjAwMDBaFw0yMTExMDMxMjAw
MDBaMBcxFTATBgNVBAMMDEludGVybWVkaWF0ZTCCASIwDQYJKoZIhvcNAQEBBQAD
ggEPADCCAQoCggEBALjPkd21dAe6ipM8ygwRXTYp7FMeMouQrvnA29J+eOo8WFdf
cEqWmpNY035CYL14Bzhr5BaPMhcwsXaVVm1+5Z75D/hame6A4eb81q8zYaraGZh/
2icvgLyWLlGB+BpjJwvO7gIWVUqWCsXBfpmV6HDnTSsvv9PSLSV9D7JQljaV5SzK
Dlm11HwxV5b6vsbVmoO1lvIcSiDPvg5/Qk+ntFviAfTtWcRuUaGlqqcfBM7g0iz/
o3TH5Cqo0n/N8VaGZ/51IgX3LTs7zly5lU7lytiJ9rMSJ7Qia/uD+Q7eqL44WxVm
gTti11ASKWlbxVqZl6pRwzaIl8nBkFNPs+yZPPMCAwEAAaOByzCByDAdBgNVHQ4E
FgQUiuPm9lhvHJC0Z6UU2GTn9wB3YQEwHwYDVR0jBBgwFoAUUgCkvotfI2NeMQWH
9GtQpwFwY9owNwYIKwYBBQUHAQEEKzApMCcGCCsGAQUFBzAChhtodHRwOi8vdXJs
LWZvci1haWEvUm9vdC5jZXIwLAYDVR0fBCUwIzAhoB+gHYYbaHR0cDovL3VybC1m
b3ItY3JsL1Jvb3QuY3JsMA4GA1UdDwEB/wQEAwIBBjAPBgNVHRMBAf8EBTADAQH/
MA0GCSqGSIb3DQEBCwUAA4IBAQB2FPjc1SIZgRVBA89NZO8sqknSmB4k8YxH+6wT
vRn/31mMpI8FgT1mD5kuXlIUSmmIsOldql+4IoeqAfSY3sF0hfoTbjzNpob0ZE9f
RBQrSV+Rd4fpw/rPQyRxNfg7nUrN/Ya4PQIrMw4OCympAYveAv/2x57q+sMcYW/k
JKw9LmMC7lM2zmbLYpUrX4dJ3/xvr8tsgvi9amCX//YCVWuv9ueZiRgkzTHST3Ma
Yc8jgbgM963yMLSVgZa8Q4lreT3DYPBLcad4dEI775VGigsFvv6pkiADKJqFI6H8
gUJQrITImbch12+uLOMptcLIS4eFrIVTbcpY8ywoSUvt7FqR
-----END CERTIFICATE-----

Certificate:
    Data:
        Version: 3 (0x2)
        Serial Number:
            06:66:51:84:c2:7e:fc:0c:cf:05:27:4c:bc:d3:55:23:ed:cb:19:f8
        Signature Algorithm: sha256WithRSAEncryption
        Issuer: CN=Root
        Validity
            Not Before: Nov  3 12:00:00 2020 GMT
            Not After : Nov  3 12:00:00 2021 GMT
        Subject: CN=Root
        Subject Public Key Info:
            Public Key Algorithm: rsaEncryption
                RSA Public-Key: (2048 bit)
                Modulus:
                    00:c0:8e:83:7c:7e:0c:6a:e8:93:2c:f8:e6:80:17:
                    e6:2a:91:f2:1d:1a:b1:51:6e:3e:4d:96:bd:a1:29:
                    f3:bd:ce:46:17:dc:5f:ed:b7:33:d8:17:31:80:b1:
                    12:f3:bb:86:1d:4a:a7:61:dd:51:15:a8:9d:50:25:
                    4f:93:5b:8c:a6:43:30:a5:46:7e:80:74:51:17:66:
                    61:ba:c0:9d:f5:53:e4:4d:02:58:a4:27:ac:ef:35:
                    eb:01:e6:0d:0f:a2:67:b3:95:1d:33:d3:70:55:6d:
                    73:80:dd:c7:dc:21:c6:58:9a:7d:cb:e6:9d:e2:af:
                    7f:14:02:7c:f8:45:ff:5c:74:7a:7d:b1:35:1f:74:
                    0f:e7:0d:97:51:58:15:41:07:fa:12:99:2a:84:92:
                    48:9b:08:ee:ad:26:37:15:3e:7e:7b:b6:1e:94:36:
                    be:b9:d8:b6:6f:27:71:13:d1:3e:b7:9e:9d:d6:1e:
                    e1:cb:7b:2b:ab:20:46:e0:08:9c:54:5b:c6:db:c2:
                    57:d3:67:ee:00:cf:d2:cb:0b:64:31:a7:9c:97:f5:
                    4b:37:db:7d:d5:dd:91:a7:ed:dc:0c:2f:9c:04:42:
                    50:46:8a:59:d2:9c:10:d7:0c:25:d9:79:de:e1:4c:
                    3d:4a:5a:3f:2c:6c:20:a1:60:9f:24:69:1a:0a:f9:
                    6e:79
                Exponent: 65537 (0x10001)
        X509v3 extensions:
            X509v3 Subject Key Identifier: 
                52:00:A4:BE:8B:5F:23:63:5E:31:05:87:F4:6B:50:A7:01:70:63:DA
            X509v3 Authority Key Identifier: 
                keyid:52:00:A4:BE:8B:5F:23:63:5E:31:05:87:F4:6B:50:A7:01:70:63:DA

            Authority Information Access: 
                CA Issuers - URI:http://url-for-aia/Root.cer

            X509v3 CRL Distribution Points: 

                Full Name:
                  URI:http://url-for-crl/Root.crl

            X509v3 Key Usage: critical
                Certificate Sign, CRL Sign
            X509v3 Basic Constraints: critical
                CA:TRUE
    Signature Algorithm: sha256WithRSAEncryption
         b5:87:6d:2f:58:81:da:98:fd:25:12:96:ce:8c:b3:db:cf:52:
         29:90:47:eb:fc:30:25:24:87:b1:62:e9:96:9b:92:ba:d1:34:
         8f:ef:15:b1:f2:cc:43:8e:a7:4a:a9:d3:b3:f0:47:f8:72:a6:
         fe:d5:fa:83:a1:a0:e8:2f:fa:00:a8:6f:eb:e5:56:08:f4:95:
         aa:62:87:df:13:a6:46:81:7d:b3:84:4c:b0:49:a8:98:60:33:
         de:d9:5c:b5:3f:a9:d8:6b:d4:fc:d7:d4:52:d7:07:4a:5a:cb:
         80:b3:bb:ea:2d:f4:52:2f:93:54:6a:c9:27:19:1c:e9:59:e3:
         95:31:4e:57:2c:cc:6b:b4:10:89:4c:12:0d:f7:02:d3:47:fa:
         b7:7c:5b:fb:5a:65:e1:5c:37:f5:bd:98:ee:e0:e2:1d:1c:b3:
         d3:c3:a2:67:03:cc:63:75:4a:ed:29:13:65:69:62:d5:e3:46:
         97:71:b2:fc:be:fa:e4:5d:a4:a0:d1:8d:f8:72:fa:57:5c:9f:
         c5:3c:99:08:2a:13:91:69:85:8b:fd:53:55:ce:43:34:52:6a:
         26:57:90:d1:fb:31:e1:d5:ef:e8:6c:38:68:8a:c0:23:e3:2b:
         4d:5d:5d:b3:38:f4:a5:ef:44:02:6d:30:21:60:ef:f5:42:ce:
         92:18:d0:b2
-----BEGIN CERTIFICATE-----
MIIDeDCCAmCgAwIBAgIUBmZRhMJ+/AzPBSdMvNNVI+3LGfgwDQYJKoZIhvcNAQEL
BQAwDzENMAsGA1UEAwwEUm9vdDAeFw0yMDExMDMxMjAwMDBaFw0yMTExMDMxMjAw
MDBaMA8xDTALBgNVBAMMBFJvb3QwggEiMA0GCSqGSIb3DQEBAQUAA4IBDwAwggEK
AoIBAQDAjoN8fgxq6JMs+OaAF+YqkfIdGrFRbj5Nlr2hKfO9zkYX3F/ttzPYFzGA
sRLzu4YdSqdh3VEVqJ1QJU+TW4ymQzClRn6AdFEXZmG6wJ31U+RNAlikJ6zvNesB
5g0PomezlR0z03BVbXOA3cfcIcZYmn3L5p3ir38UAnz4Rf9cdHp9sTUfdA/nDZdR
WBVBB/oSmSqEkkibCO6tJjcVPn57th6UNr652LZvJ3ET0T63np3WHuHLeyurIEbg
CJxUW8bbwlfTZ+4Az9LLC2Qxp5yX9Us3233V3ZGn7dwML5wEQlBGilnSnBDXDCXZ
ed7hTD1KWj8sbCChYJ8kaRoK+W55AgMBAAGjgcswgcgwHQYDVR0OBBYEFFIApL6L
XyNjXjEFh/RrUKcBcGPaMB8GA1UdIwQYMBaAFFIApL6LXyNjXjEFh/RrUKcBcGPa
MDcGCCsGAQUFBwEBBCswKTAnBggrBgEFBQcwAoYbaHR0cDovL3VybC1mb3ItYWlh
L1Jvb3QuY2VyMCwGA1UdHwQlMCMwIaAfoB2GG2h0dHA6Ly91cmwtZm9yLWNybC9S
b290LmNybDAOBgNVHQ8BAf8EBAMCAQYwDwYDVR0TAQH/BAUwAwEB/zANBgkqhkiG
9w0BAQsFAAOCAQEAtYdtL1iB2pj9JRKWzoyz289SKZBH6/wwJSSHsWLplpuSutE0
j+8VsfLMQ46nSqnTs/BH+HKm/tX6g6Gg6C/6AKhv6+VWCPSVqmKH3xOmRoF9s4RM
sEmomGAz3tlctT+p2GvU/NfUUtcHSlrLgLO76i30Ui+TVGrJJxkc6VnjlTFOVyzM
a7QQiUwSDfcC00f6t3xb+1pl4Vw39b2Y7uDiHRyz08OiZwPMY3VK7SkTZWli1eNG
l3Gy/L765F2koNGN+HL6V1yfxTyZCCoTkWmFi/1TVc5DNFJqJleQ0fsx4dXv6Gw4
aIrAI+MrTV1dszj0pe9EAm0wIWDv9ULOkhjQsg==
-----END CERTIFICATE-----
