[Created by: generate-chains.py]

Certificate chain where the target certificate contains an unknown X.509v3
extension (OID=1.2.3.4) that is marked as critical.

Certificate:
    Data:
        Version: 3 (0x2)
        Serial Number:
            4e:9a:ac:ff:32:38:c0:2f:b6:e5:63:63:94:45:6d:aa:aa:c4:b6:e5
        Signature Algorithm: sha256WithRSAEncryption
        Issuer: CN=Intermediate
        Validity
            Not Before: Oct  5 12:00:00 2022 GMT
            Not After : Oct  5 12:00:00 2023 GMT
        Subject: CN=Target
        Subject Public Key Info:
            Public Key Algorithm: rsaEncryption
                Public-Key: (2048 bit)
                Modulus:
                    00:bd:05:ea:3a:1c:14:a1:db:ad:2c:18:3d:25:9c:
                    dc:1c:0f:2b:1e:42:df:c2:7c:b4:39:e6:4b:45:eb:
                    d3:a2:1c:2b:dc:f2:8c:08:f5:81:df:bd:fa:a2:1a:
                    1c:5c:99:cb:00:c7:31:02:c8:44:5f:31:cf:9c:82:
                    6d:3c:0c:5d:f7:d6:cc:91:fe:f3:e7:7a:08:17:85:
                    d5:75:61:ee:dd:66:55:3c:e2:68:98:36:19:20:e4:
                    9b:cd:24:6c:a3:5d:89:84:80:2e:c7:11:4e:c1:82:
                    b2:80:ce:0f:e9:6a:42:54:10:fb:c0:0a:53:be:19:
                    01:38:ba:06:c5:93:93:1c:84:aa:25:c7:c5:9a:4d:
                    32:2e:a4:13:5e:6d:07:d6:9d:e5:b0:29:63:da:14:
                    b7:62:51:63:93:dc:28:ae:4a:bc:35:ac:c0:06:ea:
                    ea:0b:d5:70:61:3b:05:78:e4:d3:ad:c3:ad:95:f1:
                    48:e5:79:a6:dc:12:1f:14:4f:21:9f:ca:6f:7a:dd:
                    d6:45:c8:8a:60:96:1c:02:06:16:18:80:21:58:6a:
                    f6:83:3e:1a:98:b8:b2:a9:22:44:c2:25:e9:dc:a9:
                    aa:bf:1d:2e:3f:2e:a1:78:08:93:04:4c:c4:1f:f9:
                    b3:34:9f:a7:78:5b:02:a6:ca:d3:1f:fa:ba:4d:34:
                    a2:bb
                Exponent: 65537 (0x10001)
        X509v3 extensions:
            X509v3 Subject Key Identifier: 
                D6:55:4E:AC:07:84:35:A9:0D:9A:63:45:82:73:4E:A4:CC:53:B0:02
            X509v3 Authority Key Identifier: 
                8A:E3:E6:F6:58:6F:1C:90:B4:67:A5:14:D8:64:E7:F7:00:77:61:01
            Authority Information Access: 
                CA Issuers - URI:http://url-for-aia/Intermediate.cer
            X509v3 CRL Distribution Points: 
                Full Name:
                  URI:http://url-for-crl/Intermediate.crl
            X509v3 Key Usage: critical
                Digital Signature, Key Encipherment
            X509v3 Extended Key Usage: 
                TLS Web Server Authentication, TLS Web Client Authentication
            1.2.3.4: critical
                ....
    Signature Algorithm: sha256WithRSAEncryption
    Signature Value:
        94:1d:a1:8d:2c:b7:28:7c:cc:3d:29:9a:eb:0b:49:0a:3c:36:
        36:3e:1e:4e:ee:ef:c6:87:6b:15:cb:a0:5d:ce:37:93:db:f1:
        06:14:77:e7:5d:7e:42:45:72:3e:b0:37:c1:5a:6d:34:d6:00:
        29:84:84:cc:eb:69:6e:fd:a8:6b:5e:ba:0d:7b:0c:04:68:17:
        28:b6:7e:77:d2:4f:61:a4:2b:06:4e:87:66:16:d2:13:8c:99:
        36:2e:2a:77:c5:17:45:da:b2:f9:f8:12:db:2f:5a:5f:e8:1e:
        22:dc:04:86:09:c7:9e:b8:7c:22:fc:7c:bd:f7:4e:08:25:7c:
        3d:68:21:a5:df:d3:26:1b:1b:d0:10:74:ea:b1:65:69:60:4f:
        d8:67:ed:1a:7c:ca:ee:91:cc:7b:e5:b4:df:4a:92:4d:cf:f0:
        f7:51:f7:1f:b3:eb:ed:e1:3c:64:14:b5:a5:f3:a1:a3:80:25:
        a4:ec:e7:72:c5:e9:8d:3f:f0:4e:e1:e4:eb:b1:3b:80:a4:19:
        55:e6:b9:8d:ce:38:b6:30:93:e8:d1:ee:b3:88:5b:0a:ec:9a:
        5c:6d:b1:78:a0:34:4d:94:38:9a:9c:a5:a6:9e:4a:6f:50:c0:
        ac:ba:a2:34:52:cb:eb:e5:f8:9e:be:a3:2e:ab:f5:df:ba:f2:
        da:2a:65:e5
-----BEGIN CERTIFICATE-----
MIIDsDCCApigAwIBAgIUTpqs/zI4wC+25WNjlEVtqqrEtuUwDQYJKoZIhvcNAQEL
BQAwFzEVMBMGA1UEAwwMSW50ZXJtZWRpYXRlMB4XDTIyMTAwNTEyMDAwMFoXDTIz
MTAwNTEyMDAwMFowETEPMA0GA1UEAwwGVGFyZ2V0MIIBIjANBgkqhkiG9w0BAQEF
AAOCAQ8AMIIBCgKCAQEAvQXqOhwUodutLBg9JZzcHA8rHkLfwny0OeZLRevTohwr
3PKMCPWB3736ohocXJnLAMcxAshEXzHPnIJtPAxd99bMkf7z53oIF4XVdWHu3WZV
POJomDYZIOSbzSRso12JhIAuxxFOwYKygM4P6WpCVBD7wApTvhkBOLoGxZOTHISq
JcfFmk0yLqQTXm0H1p3lsClj2hS3YlFjk9workq8NazABurqC9VwYTsFeOTTrcOt
lfFI5Xmm3BIfFE8hn8pvet3WRciKYJYcAgYWGIAhWGr2gz4amLiyqSJEwiXp3Kmq
vx0uPy6heAiTBEzEH/mzNJ+neFsCpsrTH/q6TTSiuwIDAQABo4H5MIH2MB0GA1Ud
DgQWBBTWVU6sB4Q1qQ2aY0WCc06kzFOwAjAfBgNVHSMEGDAWgBSK4+b2WG8ckLRn
pRTYZOf3AHdhATA/BggrBgEFBQcBAQQzMDEwLwYIKwYBBQUHMAKGI2h0dHA6Ly91
cmwtZm9yLWFpYS9JbnRlcm1lZGlhdGUuY2VyMDQGA1UdHwQtMCswKaAnoCWGI2h0
dHA6Ly91cmwtZm9yLWNybC9JbnRlcm1lZGlhdGUuY3JsMA4GA1UdDwEB/wQEAwIF
oDAdBgNVHSUEFjAUBggrBgEFBQcDAQYIKwYBBQUHAwIwDgYDKgMEAQH/BAQBAgME
MA0GCSqGSIb3DQEBCwUAA4IBAQCUHaGNLLcofMw9KZrrC0kKPDY2Ph5O7u/Gh2sV
y6BdzjeT2/EGFHfnXX5CRXI+sDfBWm001gAphITM62lu/ahrXroNewwEaBcotn53
0k9hpCsGTodmFtITjJk2Lip3xRdF2rL5+BLbL1pf6B4i3ASGCceeuHwi/Hy9904I
JXw9aCGl39MmGxvQEHTqsWVpYE/YZ+0afMrukcx75bTfSpJNz/D3Ufcfs+vt4Txk
FLWl86GjgCWk7OdyxemNP/BO4eTrsTuApBlV5rmNzji2MJPo0e6ziFsK7JpcbbF4
oDRNlDianKWmnkpvUMCsuqI0Usvr5fievqMuq/XfuvLaKmXl
-----END CERTIFICATE-----

Certificate:
    Data:
        Version: 3 (0x2)
        Serial Number:
            06:66:51:84:c2:7e:fc:0c:cf:05:27:4c:bc:d3:55:23:ed:cb:19:f9
        Signature Algorithm: sha256WithRSAEncryption
        Issuer: CN=Root
        Validity
            Not Before: Oct  5 12:00:00 2022 GMT
            Not After : Oct  5 12:00:00 2023 GMT
        Subject: CN=Intermediate
        Subject Public Key Info:
            Public Key Algorithm: rsaEncryption
                Public-Key: (2048 bit)
                Modulus:
                    00:b8:cf:91:dd:b5:74:07:ba:8a:93:3c:ca:0c:11:
                    5d:36:29:ec:53:1e:32:8b:90:ae:f9:c0:db:d2:7e:
                    78:ea:3c:58:57:5f:70:4a:96:9a:93:58:d3:7e:42:
                    60:bd:78:07:38:6b:e4:16:8f:32:17:30:b1:76:95:
                    56:6d:7e:e5:9e:f9:0f:f8:5a:99:ee:80:e1:e6:fc:
                    d6:af:33:61:aa:da:19:98:7f:da:27:2f:80:bc:96:
                    2e:51:81:f8:1a:63:27:0b:ce:ee:02:16:55:4a:96:
                    0a:c5:c1:7e:99:95:e8:70:e7:4d:2b:2f:bf:d3:d2:
                    2d:25:7d:0f:b2:50:96:36:95:e5:2c:ca:0e:59:b5:
                    d4:7c:31:57:96:fa:be:c6:d5:9a:83:b5:96:f2:1c:
                    4a:20:cf:be:0e:7f:42:4f:a7:b4:5b:e2:01:f4:ed:
                    59:c4:6e:51:a1:a5:aa:a7:1f:04:ce:e0:d2:2c:ff:
                    a3:74:c7:e4:2a:a8:d2:7f:cd:f1:56:86:67:fe:75:
                    22:05:f7:2d:3b:3b:ce:5c:b9:95:4e:e5:ca:d8:89:
                    f6:b3:12:27:b4:22:6b:fb:83:f9:0e:de:a8:be:38:
                    5b:15:66:81:3b:62:d7:50:12:29:69:5b:c5:5a:99:
                    97:aa:51:c3:36:88:97:c9:c1:90:53:4f:b3:ec:99:
                    3c:f3
                Exponent: 65537 (0x10001)
        X509v3 extensions:
            X509v3 Subject Key Identifier: 
                8A:E3:E6:F6:58:6F:1C:90:B4:67:A5:14:D8:64:E7:F7:00:77:61:01
            X509v3 Authority Key Identifier: 
                52:00:A4:BE:8B:5F:23:63:5E:31:05:87:F4:6B:50:A7:01:70:63:DA
            Authority Information Access: 
                CA Issuers - URI:http://url-for-aia/Root.cer
            X509v3 CRL Distribution Points: 
                Full Name:
                  URI:http://url-for-crl/Root.crl
            X509v3 Key Usage: critical
                Certificate Sign, CRL Sign
            X509v3 Basic Constraints: critical
                CA:TRUE
    Signature Algorithm: sha256WithRSAEncryption
    Signature Value:
        51:6a:cb:31:71:e9:d5:98:34:36:09:e0:cc:db:e7:8d:d2:b3:
        4a:bd:1f:30:f5:a2:fe:5a:34:95:db:76:56:bb:95:ce:b8:5b:
        2f:c4:2d:58:cd:ce:cf:22:0a:91:1a:9d:3a:52:2a:d8:28:87:
        bf:83:ee:06:e6:9d:e9:70:97:2c:91:df:ed:91:4a:86:a8:ff:
        ba:0a:e2:e6:9b:98:32:b7:d9:31:ff:68:01:97:26:15:b9:a5:
        88:3f:4b:64:bf:70:9f:d7:e0:7c:ce:50:97:af:01:95:cf:42:
        ff:f6:5d:17:e5:90:b8:77:ff:6e:9c:76:21:3f:1f:51:46:27:
        88:94:22:de:6d:5a:fe:3d:ac:0c:a7:82:d7:54:9c:67:f8:93:
        bd:d7:30:89:00:30:d4:48:08:1c:e4:eb:53:a8:b3:f1:b5:57:
        07:b6:08:03:c7:06:f2:5a:c4:1e:0b:8c:50:54:93:ec:4d:ff:
        7c:a5:31:ec:0c:21:c9:96:b8:07:22:ce:2c:c7:57:f4:82:9d:
        1e:cd:04:bf:94:ce:93:3b:53:cf:01:ea:8a:a2:5c:79:60:a4:
        43:e2:de:73:8e:c4:f9:39:9a:b2:f2:00:72:fe:a5:12:c9:aa:
        f3:7b:88:bb:b9:71:47:c4:d1:bd:c7:4c:15:75:93:21:e8:e9:
        4f:cd:da:b5
-----BEGIN CERTIFICATE-----
MIIDgDCCAmigAwIBAgIUBmZRhMJ+/AzPBSdMvNNVI+3LGfkwDQYJKoZIhvcNAQEL
BQAwDzENMAsGA1UEAwwEUm9vdDAeFw0yMjEwMDUxMjAwMDBaFw0yMzEwMDUxMjAw
MDBaMBcxFTATBgNVBAMMDEludGVybWVkaWF0ZTCCASIwDQYJKoZIhvcNAQEBBQAD
ggEPADCCAQoCggEBALjPkd21dAe6ipM8ygwRXTYp7FMeMouQrvnA29J+eOo8WFdf
cEqWmpNY035CYL14Bzhr5BaPMhcwsXaVVm1+5Z75D/hame6A4eb81q8zYaraGZh/
2icvgLyWLlGB+BpjJwvO7gIWVUqWCsXBfpmV6HDnTSsvv9PSLSV9D7JQljaV5SzK
Dlm11HwxV5b6vsbVmoO1lvIcSiDPvg5/Qk+ntFviAfTtWcRuUaGlqqcfBM7g0iz/
o3TH5Cqo0n/N8VaGZ/51IgX3LTs7zly5lU7lytiJ9rMSJ7Qia/uD+Q7eqL44WxVm
gTti11ASKWlbxVqZl6pRwzaIl8nBkFNPs+yZPPMCAwEAAaOByzCByDAdBgNVHQ4E
FgQUiuPm9lhvHJC0Z6UU2GTn9wB3YQEwHwYDVR0jBBgwFoAUUgCkvotfI2NeMQWH
9GtQpwFwY9owNwYIKwYBBQUHAQEEKzApMCcGCCsGAQUFBzAChhtodHRwOi8vdXJs
LWZvci1haWEvUm9vdC5jZXIwLAYDVR0fBCUwIzAhoB+gHYYbaHR0cDovL3VybC1m
b3ItY3JsL1Jvb3QuY3JsMA4GA1UdDwEB/wQEAwIBBjAPBgNVHRMBAf8EBTADAQH/
MA0GCSqGSIb3DQEBCwUAA4IBAQBRassxcenVmDQ2CeDM2+eN0rNKvR8w9aL+WjSV
23ZWu5XOuFsvxC1Yzc7PIgqRGp06UirYKIe/g+4G5p3pcJcskd/tkUqGqP+6CuLm
m5gyt9kx/2gBlyYVuaWIP0tkv3Cf1+B8zlCXrwGVz0L/9l0X5ZC4d/9unHYhPx9R
RieIlCLebVr+PawMp4LXVJxn+JO91zCJADDUSAgc5OtTqLPxtVcHtggDxwbyWsQe
C4xQVJPsTf98pTHsDCHJlrgHIs4sx1f0gp0ezQS/lM6TO1PPAeqKolx5YKRD4t5z
jsT5OZqy8gBy/qUSyarze4i7uXFHxNG9x0wVdZMh6OlPzdq1
-----END CERTIFICATE-----

Certificate:
    Data:
        Version: 3 (0x2)
        Serial Number:
            06:66:51:84:c2:7e:fc:0c:cf:05:27:4c:bc:d3:55:23:ed:cb:19:f8
        Signature Algorithm: sha256WithRSAEncryption
        Issuer: CN=Root
        Validity
            Not Before: Oct  5 12:00:00 2022 GMT
            Not After : Oct  5 12:00:00 2023 GMT
        Subject: CN=Root
        Subject Public Key Info:
            Public Key Algorithm: rsaEncryption
                Public-Key: (2048 bit)
                Modulus:
                    00:c0:8e:83:7c:7e:0c:6a:e8:93:2c:f8:e6:80:17:
                    e6:2a:91:f2:1d:1a:b1:51:6e:3e:4d:96:bd:a1:29:
                    f3:bd:ce:46:17:dc:5f:ed:b7:33:d8:17:31:80:b1:
                    12:f3:bb:86:1d:4a:a7:61:dd:51:15:a8:9d:50:25:
                    4f:93:5b:8c:a6:43:30:a5:46:7e:80:74:51:17:66:
                    61:ba:c0:9d:f5:53:e4:4d:02:58:a4:27:ac:ef:35:
                    eb:01:e6:0d:0f:a2:67:b3:95:1d:33:d3:70:55:6d:
                    73:80:dd:c7:dc:21:c6:58:9a:7d:cb:e6:9d:e2:af:
                    7f:14:02:7c:f8:45:ff:5c:74:7a:7d:b1:35:1f:74:
                    0f:e7:0d:97:51:58:15:41:07:fa:12:99:2a:84:92:
                    48:9b:08:ee:ad:26:37:15:3e:7e:7b:b6:1e:94:36:
                    be:b9:d8:b6:6f:27:71:13:d1:3e:b7:9e:9d:d6:1e:
                    e1:cb:7b:2b:ab:20:46:e0:08:9c:54:5b:c6:db:c2:
                    57:d3:67:ee:00:cf:d2:cb:0b:64:31:a7:9c:97:f5:
                    4b:37:db:7d:d5:dd:91:a7:ed:dc:0c:2f:9c:04:42:
                    50:46:8a:59:d2:9c:10:d7:0c:25:d9:79:de:e1:4c:
                    3d:4a:5a:3f:2c:6c:20:a1:60:9f:24:69:1a:0a:f9:
                    6e:79
                Exponent: 65537 (0x10001)
        X509v3 extensions:
            X509v3 Subject Key Identifier: 
                52:00:A4:BE:8B:5F:23:63:5E:31:05:87:F4:6B:50:A7:01:70:63:DA
            X509v3 Authority Key Identifier: 
                52:00:A4:BE:8B:5F:23:63:5E:31:05:87:F4:6B:50:A7:01:70:63:DA
            Authority Information Access: 
                CA Issuers - URI:http://url-for-aia/Root.cer
            X509v3 CRL Distribution Points: 
                Full Name:
                  URI:http://url-for-crl/Root.crl
            X509v3 Key Usage: critical
                Certificate Sign, CRL Sign
            X509v3 Basic Constraints: critical
                CA:TRUE
    Signature Algorithm: sha256WithRSAEncryption
    Signature Value:
        bd:df:90:3c:ac:68:ee:ef:e2:0c:e4:47:74:af:ef:89:b9:67:
        61:d2:84:a9:36:41:8b:8d:69:9b:66:04:50:25:bf:0f:23:39:
        f1:7c:23:ea:4e:55:be:1b:62:d8:2b:41:07:fe:8e:94:fe:ba:
        a8:c5:fc:88:97:6e:37:77:f6:25:64:9e:ed:bf:a2:cb:28:e6:
        3d:1e:95:7f:34:3d:60:68:20:e6:d8:23:43:6a:c2:f5:ab:24:
        50:31:2a:30:8c:e7:3d:26:ce:5e:e7:82:ce:64:81:34:67:ca:
        47:e5:d8:3f:48:6f:89:b3:5f:72:2e:0c:7d:ec:d1:da:14:39:
        f1:6f:e0:15:89:f2:8a:87:c0:10:b9:65:48:59:2c:b6:e9:7b:
        df:e8:4c:9b:9a:94:b3:b2:90:7f:ac:8b:75:93:7f:81:f0:b7:
        aa:8b:b6:c0:56:6b:0a:0d:ce:4b:0c:1a:91:83:f1:47:19:f8:
        4d:90:71:d3:a7:45:a1:4e:8f:1e:a4:f3:86:0b:4a:0e:c8:67:
        d4:6a:e1:92:80:51:0c:1d:50:81:b2:8e:16:52:87:02:66:5f:
        c6:e1:27:3d:c2:3d:69:a4:55:08:23:a4:1c:73:57:48:96:63:
        34:8d:d8:58:36:35:bb:98:6b:65:ad:19:57:d5:cb:71:fa:ef:
        e7:5c:ec:e0
-----BEGIN CERTIFICATE-----
MIIDeDCCAmCgAwIBAgIUBmZRhMJ+/AzPBSdMvNNVI+3LGfgwDQYJKoZIhvcNAQEL
BQAwDzENMAsGA1UEAwwEUm9vdDAeFw0yMjEwMDUxMjAwMDBaFw0yMzEwMDUxMjAw
MDBaMA8xDTALBgNVBAMMBFJvb3QwggEiMA0GCSqGSIb3DQEBAQUAA4IBDwAwggEK
AoIBAQDAjoN8fgxq6JMs+OaAF+YqkfIdGrFRbj5Nlr2hKfO9zkYX3F/ttzPYFzGA
sRLzu4YdSqdh3VEVqJ1QJU+TW4ymQzClRn6AdFEXZmG6wJ31U+RNAlikJ6zvNesB
5g0PomezlR0z03BVbXOA3cfcIcZYmn3L5p3ir38UAnz4Rf9cdHp9sTUfdA/nDZdR
WBVBB/oSmSqEkkibCO6tJjcVPn57th6UNr652LZvJ3ET0T63np3WHuHLeyurIEbg
CJxUW8bbwlfTZ+4Az9LLC2Qxp5yX9Us3233V3ZGn7dwML5wEQlBGilnSnBDXDCXZ
ed7hTD1KWj8sbCChYJ8kaRoK+W55AgMBAAGjgcswgcgwHQYDVR0OBBYEFFIApL6L
XyNjXjEFh/RrUKcBcGPaMB8GA1UdIwQYMBaAFFIApL6LXyNjXjEFh/RrUKcBcGPa
MDcGCCsGAQUFBwEBBCswKTAnBggrBgEFBQcwAoYbaHR0cDovL3VybC1mb3ItYWlh
L1Jvb3QuY2VyMCwGA1UdHwQlMCMwIaAfoB2GG2h0dHA6Ly91cmwtZm9yLWNybC9S
b290LmNybDAOBgNVHQ8BAf8EBAMCAQYwDwYDVR0TAQH/BAUwAwEB/zANBgkqhkiG
9w0BAQsFAAOCAQEAvd+QPKxo7u/iDORHdK/viblnYdKEqTZBi41pm2YEUCW/DyM5
8Xwj6k5Vvhti2CtBB/6OlP66qMX8iJduN3f2JWSe7b+iyyjmPR6VfzQ9YGgg5tgj
Q2rC9askUDEqMIznPSbOXueCzmSBNGfKR+XYP0hvibNfci4MfezR2hQ58W/gFYny
iofAELllSFkstul73+hMm5qUs7KQf6yLdZN/gfC3qou2wFZrCg3OSwwakYPxRxn4
TZBx06dFoU6PHqTzhgtKDshn1GrhkoBRDB1QgbKOFlKHAmZfxuEnPcI9aaRVCCOk
HHNXSJZjNI3YWDY1u5hrZa0ZV9XLcfrv51zs4A==
-----END CERTIFICATE-----
