Certificate:
    Data:
        Version: 3 (0x2)
        Serial Number: 4097 (0x1001)
        Signature Algorithm: sha256WithRSAEncryption
        Issuer: CN=Client Cert 1 CA
        Validity
            Not Before: Sep 25 20:39:04 2019 GMT
            Not After : Sep 22 20:39:04 2029 GMT
        Subject: CN=Client Cert 1
        Subject Public Key Info:
            Public Key Algorithm: rsaEncryption
                RSA Public-Key: (2048 bit)
                Modulus:
                    00:c1:3b:f6:38:22:92:9f:05:43:87:8c:33:a5:13:
                    88:12:2b:6a:c2:25:a7:5a:4f:0a:d0:f0:60:43:21:
                    05:62:84:37:cc:85:2c:c1:e5:f3:94:4f:b5:e6:3f:
                    34:97:75:3f:d0:d1:cc:70:f9:e4:38:b8:82:6c:5e:
                    74:be:e8:f0:c4:a1:23:84:05:3e:5f:ad:79:f9:bf:
                    c8:44:d7:b6:b6:c7:87:5f:cc:25:05:e6:cb:cc:65:
                    62:2f:47:5d:0a:b5:ab:3d:be:6c:b7:b0:a8:fb:1e:
                    97:cf:cf:a2:5f:79:5d:d5:9d:49:0b:16:c5:69:24:
                    46:ca:10:bb:5a:55:3a:c0:c0:4d:7f:f7:8f:55:0e:
                    7c:f0:59:c4:da:50:70:1a:0a:5c:d1:15:d2:fa:1c:
                    9f:7b:3c:bc:dc:27:63:69:3c:ab:e8:c8:48:56:29:
                    9e:1d:f5:77:0a:c3:05:98:98:a1:f5:a7:93:e7:ef:
                    7f:f9:e8:b6:7b:52:47:39:f3:26:e9:eb:42:19:a8:
                    b2:91:67:cc:fb:57:5c:bf:bd:15:da:82:e0:bf:77:
                    16:ea:76:b3:73:c8:05:73:d9:ae:25:a2:c1:bd:24:
                    99:90:f7:06:84:09:fe:e5:c8:5c:68:1e:ed:81:c4:
                    03:18:fd:29:d5:0f:a9:12:c4:19:b0:a5:b6:3c:2b:
                    49:97
                Exponent: 65537 (0x10001)
        X509v3 extensions:
            X509v3 Basic Constraints: critical
                CA:FALSE
            X509v3 Extended Key Usage: 
                TLS Web Server Authentication, TLS Web Client Authentication
    Signature Algorithm: sha256WithRSAEncryption
         55:cf:2b:7a:e0:80:2b:28:44:b8:2d:84:60:a4:b8:1f:b9:c6:
         6c:80:9d:60:ea:60:f6:e2:b3:09:9a:ce:b2:53:e1:51:c5:eb:
         33:89:5b:51:b7:af:25:44:d8:41:b7:53:e8:0d:e0:26:6c:0a:
         66:a4:99:d4:3a:ac:04:d9:12:fc:82:c6:ea:37:e6:64:71:a1:
         b6:91:4b:28:68:c8:d9:0d:22:f6:8f:64:1c:61:40:34:27:bd:
         cf:da:d2:48:0b:89:5f:e7:11:13:af:2e:28:2f:a2:9d:57:93:
         3b:8d:9d:0f:31:c3:29:a3:1d:33:6a:4b:05:25:a1:70:ca:9a:
         18:f2:92:03:2b:aa:37:fe:45:d1:f1:64:7d:8d:a9:76:f6:cf:
         5b:ac:70:c0:12:a4:b9:3f:06:a7:45:62:a7:54:4c:d5:70:5c:
         99:92:5d:16:b0:f5:cf:12:ed:dc:a9:ac:c7:31:81:52:91:21:
         36:22:eb:2f:77:6a:e3:13:82:6a:b5:17:73:ee:a9:9e:83:73:
         83:9d:b6:80:eb:85:b2:bd:7d:d5:42:30:3e:2c:e2:ca:e3:2d:
         4b:bf:c6:59:40:86:d9:d4:a6:90:d5:36:2f:8f:11:ba:d2:a5:
         ad:1b:b0:6c:4e:e0:ad:bc:d8:38:90:fd:3c:6d:71:20:2a:9f:
         ea:78:4d:79
-----BEGIN CERTIFICATE-----
MIIC3jCCAcagAwIBAgICEAEwDQYJKoZIhvcNAQELBQAwGzEZMBcGA1UEAwwQQ2xp
ZW50IENlcnQgMSBDQTAeFw0xOTA5MjUyMDM5MDRaFw0yOTA5MjIyMDM5MDRaMBgx
FjAUBgNVBAMMDUNsaWVudCBDZXJ0IDEwggEiMA0GCSqGSIb3DQEBAQUAA4IBDwAw
ggEKAoIBAQDBO/Y4IpKfBUOHjDOlE4gSK2rCJadaTwrQ8GBDIQVihDfMhSzB5fOU
T7XmPzSXdT/Q0cxw+eQ4uIJsXnS+6PDEoSOEBT5frXn5v8hE17a2x4dfzCUF5svM
ZWIvR10Ktas9vmy3sKj7HpfPz6JfeV3VnUkLFsVpJEbKELtaVTrAwE1/949VDnzw
WcTaUHAaClzRFdL6HJ97PLzcJ2NpPKvoyEhWKZ4d9XcKwwWYmKH1p5Pn73/56LZ7
Ukc58ybp60IZqLKRZ8z7V1y/vRXaguC/dxbqdrNzyAVz2a4losG9JJmQ9waECf7l
yFxoHu2BxAMY/SnVD6kSxBmwpbY8K0mXAgMBAAGjLzAtMAwGA1UdEwEB/wQCMAAw
HQYDVR0lBBYwFAYIKwYBBQUHAwEGCCsGAQUFBwMCMA0GCSqGSIb3DQEBCwUAA4IB
AQBVzyt64IArKES4LYRgpLgfucZsgJ1g6mD24rMJms6yU+FRxesziVtRt68lRNhB
t1PoDeAmbApmpJnUOqwE2RL8gsbqN+ZkcaG2kUsoaMjZDSL2j2QcYUA0J73P2tJI
C4lf5xETry4oL6KdV5M7jZ0PMcMpox0zaksFJaFwypoY8pIDK6o3/kXR8WR9jal2
9s9brHDAEqS5PwanRWKnVEzVcFyZkl0WsPXPEu3cqazHMYFSkSE2Iusvd2rjE4Jq
tRdz7qmeg3ODnbaA64WyvX3VQjA+LOLK4y1Lv8ZZQIbZ1KaQ1TYvjxG60qWtG7Bs
TuCtvNg4kP08bXEgKp/qeE15
-----END CERTIFICATE-----
