Certificate:
    Data:
        Version: 3 (0x2)
        Serial Number: 4099 (0x1003)
        Signature Algorithm: ecdsa-with-SHA256
        Issuer: CN=Client Cert 3 CA
        Validity
            Not Before: May 27 13:03:43 2021 GMT
            Not After : May 25 13:03:43 2031 GMT
        Subject: CN=Client Cert 3
        Subject Public Key Info:
            Public Key Algorithm: id-ecPublicKey
                Public-Key: (256 bit)
                pub:
                    04:b1:64:b4:ce:31:f2:01:8a:75:da:98:37:e9:85:
                    5a:6c:d1:c1:91:7a:8a:6e:ac:cf:fd:a3:07:d9:fc:
                    7e:f8:89:ea:3e:c8:25:ae:84:e0:30:d3:db:e0:96:
                    8c:c8:9a:52:2e:fa:45:0f:b6:2b:28:dd:e0:fe:2e:
                    92:27:93:08:14
                ASN1 OID: prime256v1
                NIST CURVE: P-256
        X509v3 extensions:
            X509v3 Basic Constraints: critical
                CA:FALSE
            X509v3 Extended Key Usage: 
                TLS Web Server Authentication, TLS Web Client Authentication
    Signature Algorithm: ecdsa-with-SHA256
         30:45:02:20:56:e9:d1:66:4e:01:d5:8c:b3:e7:6c:a9:d2:b5:
         91:2c:6b:6b:97:a4:b1:29:9f:f9:f0:6a:0a:ef:8b:cc:f0:f3:
         02:21:00:d1:ef:0a:7a:8a:f7:8f:59:96:f1:5f:21:a8:17:5b:
         48:cc:69:03:72:34:52:c3:45:24:c3:0d:2a:84:22:0a:6e
-----BEGIN CERTIFICATE-----
MIIBUTCB+KADAgECAgIQAzAKBggqhkjOPQQDAjAbMRkwFwYDVQQDDBBDbGllbnQg
Q2VydCAzIENBMB4XDTIxMDUyNzEzMDM0M1oXDTMxMDUyNTEzMDM0M1owGDEWMBQG
A1UEAwwNQ2xpZW50IENlcnQgMzBZMBMGByqGSM49AgEGCCqGSM49AwEHA0IABLFk
tM4x8gGKddqYN+mFWmzRwZF6im6sz/2jB9n8fviJ6j7IJa6E4DDT2+CWjMiaUi76
RQ+2Kyjd4P4ukieTCBSjLzAtMAwGA1UdEwEB/wQCMAAwHQYDVR0lBBYwFAYIKwYB
BQUHAwEGCCsGAQUFBwMCMAoGCCqGSM49BAMCA0gAMEUCIFbp0WZOAdWMs+dsqdK1
kSxra5eksSmf+fBqCu+LzPDzAiEA0e8Keor3j1mW8V8hqBdbSMxpA3I0UsNFJMMN
KoQiCm4=
-----END CERTIFICATE-----
