Certificate:
    Data:
        Version: 3 (0x2)
        Serial Number: 4098 (0x1002)
        Signature Algorithm: sha256WithRSAEncryption
        Issuer: CN=Client Cert 2 CA
        Validity
            Not Before: Sep 25 20:39:04 2019 GMT
            Not After : Sep 22 20:39:04 2029 GMT
        Subject: CN=Client Cert 2
        Subject Public Key Info:
            Public Key Algorithm: rsaEncryption
                RSA Public-Key: (2048 bit)
                Modulus:
                    00:d8:75:47:d7:df:06:33:37:0d:30:55:09:be:41:
                    aa:87:e2:aa:d6:df:8e:6b:7b:18:ad:d0:2c:40:08:
                    d5:71:3a:66:74:d0:90:03:93:1d:ba:17:0a:80:a7:
                    ea:8e:02:1f:ab:ed:5c:65:78:84:25:f4:99:2d:e6:
                    8f:b1:f6:d7:50:66:bf:25:76:ea:22:1f:7f:b3:f3:
                    ec:4b:65:74:9c:7b:4f:8d:3e:43:dd:33:fa:67:26:
                    22:f5:ca:75:d7:bf:85:e0:22:3b:2b:a8:3b:5e:d1:
                    65:53:da:89:40:39:f9:1f:5b:74:10:f3:ee:c4:84:
                    43:5f:ed:f5:14:91:bd:4b:cf:fc:dd:7e:8c:8f:b2:
                    e4:45:95:67:93:90:47:66:f1:32:ce:09:87:bb:d2:
                    1e:cd:34:34:40:23:9e:51:e5:04:db:c1:70:80:95:
                    3b:47:04:4c:91:25:65:47:9e:f7:43:f0:57:e7:c7:
                    9b:92:d2:4c:89:e9:40:58:b9:60:e9:09:bb:8f:8e:
                    ab:fa:35:1b:2b:2a:50:52:1a:a3:72:1e:08:f8:70:
                    2d:0a:85:87:fa:c5:7e:9c:21:e6:90:b8:aa:77:ce:
                    a9:77:ce:ed:d2:a0:db:73:07:e3:c1:6b:45:9d:4f:
                    19:d8:a2:b1:24:d6:8b:2c:0f:49:9b:d3:75:ee:75:
                    6f:73
                Exponent: 65537 (0x10001)
        X509v3 extensions:
            X509v3 Basic Constraints: critical
                CA:FALSE
            X509v3 Extended Key Usage: 
                TLS Web Server Authentication, TLS Web Client Authentication
    Signature Algorithm: sha256WithRSAEncryption
         17:24:30:da:bd:19:5c:51:e7:cb:d9:6e:e9:81:6c:d9:4e:93:
         f5:2d:53:7c:0d:27:69:b6:0b:20:60:94:cd:37:dc:e7:ef:b3:
         ca:bc:6c:bf:9a:1f:bf:fa:76:ef:ac:cb:19:c2:f1:bf:4c:b2:
         35:e2:01:42:bd:9a:ed:36:3b:15:f0:a6:13:6e:82:7b:72:6a:
         dd:19:4b:2b:3c:a6:02:ce:aa:3d:ca:51:7e:15:75:ef:0d:c3:
         98:2c:04:d6:40:71:c8:45:be:14:74:b5:5c:7d:9a:f1:db:17:
         f4:64:96:05:f3:fb:28:dc:22:d5:7e:e8:96:29:78:68:94:16:
         e0:c7:5a:ff:62:34:ee:f4:b8:89:d5:91:a3:20:da:8b:31:90:
         d6:6d:cf:f6:d4:5c:03:4e:51:8d:63:7b:c2:9b:f4:a4:76:7f:
         b9:09:68:10:55:6c:84:a5:82:67:e7:1b:73:55:28:4f:4b:43:
         bc:3a:6c:bf:f8:64:2b:84:6c:97:05:9a:13:99:1f:95:90:69:
         2e:a1:74:c0:c9:d3:59:7e:57:59:93:3e:4d:95:94:c9:8c:f5:
         d8:86:64:1d:77:a7:51:15:38:1a:05:c1:fe:71:4c:3d:04:a3:
         48:76:cb:57:27:4f:0f:81:ee:59:03:5a:e7:50:e1:24:e7:29:
         bf:b6:ad:37
-----BEGIN CERTIFICATE-----
MIIC3jCCAcagAwIBAgICEAIwDQYJKoZIhvcNAQELBQAwGzEZMBcGA1UEAwwQQ2xp
ZW50IENlcnQgMiBDQTAeFw0xOTA5MjUyMDM5MDRaFw0yOTA5MjIyMDM5MDRaMBgx
FjAUBgNVBAMMDUNsaWVudCBDZXJ0IDIwggEiMA0GCSqGSIb3DQEBAQUAA4IBDwAw
ggEKAoIBAQDYdUfX3wYzNw0wVQm+QaqH4qrW345rexit0CxACNVxOmZ00JADkx26
FwqAp+qOAh+r7VxleIQl9Jkt5o+x9tdQZr8lduoiH3+z8+xLZXSce0+NPkPdM/pn
JiL1ynXXv4XgIjsrqDte0WVT2olAOfkfW3QQ8+7EhENf7fUUkb1Lz/zdfoyPsuRF
lWeTkEdm8TLOCYe70h7NNDRAI55R5QTbwXCAlTtHBEyRJWVHnvdD8Ffnx5uS0kyJ
6UBYuWDpCbuPjqv6NRsrKlBSGqNyHgj4cC0KhYf6xX6cIeaQuKp3zql3zu3SoNtz
B+PBa0WdTxnYorEk1ossD0mb03XudW9zAgMBAAGjLzAtMAwGA1UdEwEB/wQCMAAw
HQYDVR0lBBYwFAYIKwYBBQUHAwEGCCsGAQUFBwMCMA0GCSqGSIb3DQEBCwUAA4IB
AQAXJDDavRlcUefL2W7pgWzZTpP1LVN8DSdptgsgYJTNN9zn77PKvGy/mh+/+nbv
rMsZwvG/TLI14gFCvZrtNjsV8KYTboJ7cmrdGUsrPKYCzqo9ylF+FXXvDcOYLATW
QHHIRb4UdLVcfZrx2xf0ZJYF8/so3CLVfuiWKXholBbgx1r/YjTu9LiJ1ZGjINqL
MZDWbc/21FwDTlGNY3vCm/Skdn+5CWgQVWyEpYJn5xtzVShPS0O8Omy/+GQrhGyX
BZoTmR+VkGkuoXTAydNZfldZkz5NlZTJjPXYhmQdd6dRFTgaBcH+cUw9BKNIdstX
J08Pge5ZA1rnUOEk5ym/tq03
-----END CERTIFICATE-----
