Certificate:
    Data:
        Version: 3 (0x2)
        Serial Number:
            7d:5f:3b:a1:5e:b3:3a:b0:9c:31:fd:9b:55:0c:d2:eb:ae:a7:98:88
        Signature Algorithm: sha256WithRSAEncryption
        Issuer: CN=Root
        Validity
            Not Before: Nov  3 12:00:00 2020 GMT
            Not After : Nov  3 12:00:00 2021 GMT
        Subject: CN=I
        Subject Public Key Info:
            Public Key Algorithm: rsaEncryption
                RSA Public-Key: (2048 bit)
                Modulus:
                    00:b6:4f:5b:1d:65:ac:41:64:6c:e6:3c:08:1d:7f:
                    19:0b:4d:af:b9:b8:df:80:0f:3d:73:86:ac:41:5f:
                    06:aa:fe:f5:64:ce:40:54:52:0c:0b:58:41:0c:f5:
                    4c:9d:70:21:ac:c0:28:fa:ea:f3:ee:f8:fe:83:b4:
                    c0:58:2d:3d:9d:14:c1:56:cc:e6:73:08:81:df:48:
                    f2:36:f7:82:31:b2:39:76:57:94:f0:72:9f:24:59:
                    16:15:0b:62:27:f0:5e:e4:c0:eb:68:1b:c5:5a:c1:
                    94:d8:f3:73:3e:eb:f6:d2:3a:53:71:60:27:e6:62:
                    d4:dd:e5:2a:cf:0f:21:0f:17:af:5d:ac:37:8b:4d:
                    f8:34:75:65:23:06:c4:6f:7e:64:71:3d:9c:26:d4:
                    92:a2:5b:e5:2e:c5:1b:1f:11:56:8d:ab:55:57:b8:
                    bb:17:aa:b5:74:61:07:d0:66:8b:10:be:d6:21:fd:
                    8b:37:1d:65:86:fc:26:11:91:2b:c9:18:fa:bc:b4:
                    54:3d:87:6f:ab:3a:62:11:79:e3:d7:a8:2d:f2:50:
                    f2:31:2a:cb:12:80:f7:b8:08:0c:e9:01:7e:69:c7:
                    0f:64:79:b6:f6:02:1c:b3:bd:72:4b:08:b2:e0:97:
                    4f:e5:8e:7c:82:d1:a4:b1:bd:c5:de:c5:63:f1:63:
                    97:65
                Exponent: 65537 (0x10001)
        X509v3 extensions:
            X509v3 Subject Key Identifier: 
                0F:21:17:94:40:B1:A6:7C:59:FA:1C:C5:38:CF:62:E8:84:8B:1C:2C
            X509v3 Authority Key Identifier: 
                keyid:2F:98:67:67:BF:DA:3E:E8:0B:40:70:66:C5:B6:3B:23:73:22:20:B2

            Authority Information Access: 
                CA Issuers - URI:http://url-for-aia/Root.cer

            X509v3 CRL Distribution Points: 

                Full Name:
                  URI:http://url-for-crl/Root.crl

            X509v3 Key Usage: critical
                Certificate Sign, CRL Sign
            X509v3 Basic Constraints: critical
                CA:TRUE
    Signature Algorithm: sha256WithRSAEncryption
         ac:5f:94:d6:34:d8:ad:7e:d0:99:2a:e0:5a:b6:d7:32:19:e6:
         d5:1b:ec:a2:52:e2:11:1b:9e:6b:b2:5f:17:56:db:89:14:35:
         87:40:19:72:35:fe:5f:b4:04:1a:cd:fc:49:4d:9e:70:b6:70:
         76:c8:bd:ba:99:8b:4f:b2:57:44:d0:cd:09:63:c1:7f:e1:31:
         62:fa:de:3e:04:95:c4:fa:95:e8:32:23:d4:eb:1f:8e:51:98:
         5f:94:d7:45:36:be:c6:29:07:04:55:d4:b5:74:e6:01:fa:05:
         2a:02:16:08:0f:1d:ba:b2:23:0a:65:a5:9e:9d:31:21:63:a7:
         84:52:da:e3:ad:cd:ba:ee:59:8e:67:c1:80:20:6c:83:7f:fe:
         80:e5:07:6e:3b:44:d2:79:eb:e8:39:04:23:62:39:90:68:84:
         08:f1:15:7f:a6:ad:9d:32:68:89:ce:1e:9b:2e:28:77:f4:b9:
         77:24:15:7c:b1:b2:2f:bc:33:9f:6f:57:35:51:11:ea:b6:cb:
         c0:60:65:68:c1:9b:f2:a3:8f:bf:58:f4:00:e1:8f:8b:ee:f9:
         a7:b8:bc:e0:37:bd:95:6f:b8:32:ce:16:bf:c4:76:db:ff:09:
         71:b7:ab:e5:c8:55:e0:65:06:91:67:fb:4e:96:6c:9d:e3:2a:
         3e:06:92:0e
-----BEGIN CERTIFICATE-----
MIIDdTCCAl2gAwIBAgIUfV87oV6zOrCcMf2bVQzS666nmIgwDQYJKoZIhvcNAQEL
BQAwDzENMAsGA1UEAwwEUm9vdDAeFw0yMDExMDMxMjAwMDBaFw0yMTExMDMxMjAw
MDBaMAwxCjAIBgNVBAMMAUkwggEiMA0GCSqGSIb3DQEBAQUAA4IBDwAwggEKAoIB
AQC2T1sdZaxBZGzmPAgdfxkLTa+5uN+ADz1zhqxBXwaq/vVkzkBUUgwLWEEM9Uyd
cCGswCj66vPu+P6DtMBYLT2dFMFWzOZzCIHfSPI294Ixsjl2V5Twcp8kWRYVC2In
8F7kwOtoG8VawZTY83M+6/bSOlNxYCfmYtTd5SrPDyEPF69drDeLTfg0dWUjBsRv
fmRxPZwm1JKiW+UuxRsfEVaNq1VXuLsXqrV0YQfQZosQvtYh/Ys3HWWG/CYRkSvJ
GPq8tFQ9h2+rOmIReePXqC3yUPIxKssSgPe4CAzpAX5pxw9kebb2AhyzvXJLCLLg
l0/ljnyC0aSxvcXexWPxY5dlAgMBAAGjgcswgcgwHQYDVR0OBBYEFA8hF5RAsaZ8
WfocxTjPYuiEixwsMB8GA1UdIwQYMBaAFC+YZ2e/2j7oC0BwZsW2OyNzIiCyMDcG
CCsGAQUFBwEBBCswKTAnBggrBgEFBQcwAoYbaHR0cDovL3VybC1mb3ItYWlhL1Jv
b3QuY2VyMCwGA1UdHwQlMCMwIaAfoB2GG2h0dHA6Ly91cmwtZm9yLWNybC9Sb290
LmNybDAOBgNVHQ8BAf8EBAMCAQYwDwYDVR0TAQH/BAUwAwEB/zANBgkqhkiG9w0B
AQsFAAOCAQEArF+U1jTYrX7QmSrgWrbXMhnm1RvsolLiERuea7JfF1bbiRQ1h0AZ
cjX+X7QEGs38SU2ecLZwdsi9upmLT7JXRNDNCWPBf+ExYvrePgSVxPqV6DIj1Osf
jlGYX5TXRTa+xikHBFXUtXTmAfoFKgIWCA8durIjCmWlnp0xIWOnhFLa463Nuu5Z
jmfBgCBsg3/+gOUHbjtE0nnr6DkEI2I5kGiECPEVf6atnTJoic4emy4od/S5dyQV
fLGyL7wzn29XNVER6rbLwGBlaMGb8qOPv1j0AOGPi+75p7i84De9lW+4Ms4Wv8R2
2/8Jcber5chV4GUGkWf7TpZsneMqPgaSDg==
-----END CERTIFICATE-----
