Certificate:
    Data:
        Version: 3 (0x2)
        Serial Number:
            7d:5f:3b:a1:5e:b3:3a:b0:9c:31:fd:9b:55:0c:d2:eb:ae:a7:98:88
        Signature Algorithm: sha256WithRSAEncryption
        Issuer: CN=Root
        Validity
            Not Before: Oct  5 12:00:00 2021 GMT
            Not After : Oct  5 12:00:00 2022 GMT
        Subject: CN=I
        Subject Public Key Info:
            Public Key Algorithm: rsaEncryption
                RSA Public-Key: (2048 bit)
                Modulus:
                    00:b6:4f:5b:1d:65:ac:41:64:6c:e6:3c:08:1d:7f:
                    19:0b:4d:af:b9:b8:df:80:0f:3d:73:86:ac:41:5f:
                    06:aa:fe:f5:64:ce:40:54:52:0c:0b:58:41:0c:f5:
                    4c:9d:70:21:ac:c0:28:fa:ea:f3:ee:f8:fe:83:b4:
                    c0:58:2d:3d:9d:14:c1:56:cc:e6:73:08:81:df:48:
                    f2:36:f7:82:31:b2:39:76:57:94:f0:72:9f:24:59:
                    16:15:0b:62:27:f0:5e:e4:c0:eb:68:1b:c5:5a:c1:
                    94:d8:f3:73:3e:eb:f6:d2:3a:53:71:60:27:e6:62:
                    d4:dd:e5:2a:cf:0f:21:0f:17:af:5d:ac:37:8b:4d:
                    f8:34:75:65:23:06:c4:6f:7e:64:71:3d:9c:26:d4:
                    92:a2:5b:e5:2e:c5:1b:1f:11:56:8d:ab:55:57:b8:
                    bb:17:aa:b5:74:61:07:d0:66:8b:10:be:d6:21:fd:
                    8b:37:1d:65:86:fc:26:11:91:2b:c9:18:fa:bc:b4:
                    54:3d:87:6f:ab:3a:62:11:79:e3:d7:a8:2d:f2:50:
                    f2:31:2a:cb:12:80:f7:b8:08:0c:e9:01:7e:69:c7:
                    0f:64:79:b6:f6:02:1c:b3:bd:72:4b:08:b2:e0:97:
                    4f:e5:8e:7c:82:d1:a4:b1:bd:c5:de:c5:63:f1:63:
                    97:65
                Exponent: 65537 (0x10001)
        X509v3 extensions:
            X509v3 Subject Key Identifier: 
                0F:21:17:94:40:B1:A6:7C:59:FA:1C:C5:38:CF:62:E8:84:8B:1C:2C
            X509v3 Authority Key Identifier: 
                keyid:2F:98:67:67:BF:DA:3E:E8:0B:40:70:66:C5:B6:3B:23:73:22:20:B2

            Authority Information Access: 
                CA Issuers - URI:http://url-for-aia/Root.cer

            X509v3 CRL Distribution Points: 

                Full Name:
                  URI:http://url-for-crl/Root.crl

            X509v3 Key Usage: critical
                Certificate Sign, CRL Sign
            X509v3 Basic Constraints: critical
                CA:TRUE
    Signature Algorithm: sha256WithRSAEncryption
         3d:f9:ea:61:3f:21:4c:05:98:59:54:2e:57:c0:a8:bd:ae:3b:
         0f:7c:e9:d6:ec:01:df:5f:ab:3d:7f:9a:a5:83:82:ae:fc:f7:
         c3:68:c0:17:a8:be:e5:63:f1:52:d9:30:a6:ea:1e:77:5b:8c:
         07:fd:c0:3d:47:63:de:62:82:a9:29:58:62:7a:68:71:54:cf:
         75:e6:ff:1e:27:60:24:ce:bf:d9:e2:0c:e2:f3:60:3b:a6:e2:
         17:2e:dc:b6:09:28:c2:3f:23:86:ad:e9:bd:02:ac:47:49:91:
         b9:09:45:88:ac:95:11:37:15:39:75:6d:7f:27:95:15:db:c4:
         c9:ea:e6:70:ec:fb:f2:37:77:64:75:0e:1a:cf:9f:37:88:d4:
         0d:d7:43:fc:87:d5:34:90:66:ab:4e:ba:14:fc:8a:28:01:a9:
         4b:29:c0:75:37:95:34:32:28:35:7c:98:64:43:ac:4e:58:6c:
         cc:b3:7e:95:ee:db:b5:db:ca:ee:1d:36:0a:84:b0:3e:e2:1f:
         e7:69:6e:9a:e1:d4:23:4a:9c:94:43:d5:49:32:7e:f9:e1:94:
         0a:6f:1a:b2:dc:2b:e7:49:ce:61:a6:b9:31:7f:1b:03:92:69:
         6f:92:ec:cf:2a:e6:90:12:9d:79:bc:df:d7:e6:ef:47:13:3a:
         5a:79:fe:7c
-----BEGIN CERTIFICATE-----
MIIDdTCCAl2gAwIBAgIUfV87oV6zOrCcMf2bVQzS666nmIgwDQYJKoZIhvcNAQEL
BQAwDzENMAsGA1UEAwwEUm9vdDAeFw0yMTEwMDUxMjAwMDBaFw0yMjEwMDUxMjAw
MDBaMAwxCjAIBgNVBAMMAUkwggEiMA0GCSqGSIb3DQEBAQUAA4IBDwAwggEKAoIB
AQC2T1sdZaxBZGzmPAgdfxkLTa+5uN+ADz1zhqxBXwaq/vVkzkBUUgwLWEEM9Uyd
cCGswCj66vPu+P6DtMBYLT2dFMFWzOZzCIHfSPI294Ixsjl2V5Twcp8kWRYVC2In
8F7kwOtoG8VawZTY83M+6/bSOlNxYCfmYtTd5SrPDyEPF69drDeLTfg0dWUjBsRv
fmRxPZwm1JKiW+UuxRsfEVaNq1VXuLsXqrV0YQfQZosQvtYh/Ys3HWWG/CYRkSvJ
GPq8tFQ9h2+rOmIReePXqC3yUPIxKssSgPe4CAzpAX5pxw9kebb2AhyzvXJLCLLg
l0/ljnyC0aSxvcXexWPxY5dlAgMBAAGjgcswgcgwHQYDVR0OBBYEFA8hF5RAsaZ8
WfocxTjPYuiEixwsMB8GA1UdIwQYMBaAFC+YZ2e/2j7oC0BwZsW2OyNzIiCyMDcG
CCsGAQUFBwEBBCswKTAnBggrBgEFBQcwAoYbaHR0cDovL3VybC1mb3ItYWlhL1Jv
b3QuY2VyMCwGA1UdHwQlMCMwIaAfoB2GG2h0dHA6Ly91cmwtZm9yLWNybC9Sb290
LmNybDAOBgNVHQ8BAf8EBAMCAQYwDwYDVR0TAQH/BAUwAwEB/zANBgkqhkiG9w0B
AQsFAAOCAQEAPfnqYT8hTAWYWVQuV8Cova47D3zp1uwB31+rPX+apYOCrvz3w2jA
F6i+5WPxUtkwpuoed1uMB/3APUdj3mKCqSlYYnpocVTPdeb/HidgJM6/2eIM4vNg
O6biFy7ctgkowj8jhq3pvQKsR0mRuQlFiKyVETcVOXVtfyeVFdvEyermcOz78jd3
ZHUOGs+fN4jUDddD/IfVNJBmq066FPyKKAGpSynAdTeVNDIoNXyYZEOsTlhszLN+
le7btdvK7h02CoSwPuIf52lumuHUI0qclEPVSTJ++eGUCm8astwr50nOYaa5MX8b
A5Jpb5LszyrmkBKdebzf1+bvRxM6Wnn+fA==
-----END CERTIFICATE-----
