Certificate:
    Data:
        Version: 3 (0x2)
        Serial Number:
            7d:5f:3b:a1:5e:b3:3a:b0:9c:31:fd:9b:55:0c:d2:eb:ae:a7:98:88
        Signature Algorithm: sha256WithRSAEncryption
        Issuer: CN=Root
        Validity
            Not Before: Oct  5 12:00:00 2022 GMT
            Not After : Oct  5 12:00:00 2023 GMT
        Subject: CN=I
        Subject Public Key Info:
            Public Key Algorithm: rsaEncryption
                Public-Key: (2048 bit)
                Modulus:
                    00:b6:4f:5b:1d:65:ac:41:64:6c:e6:3c:08:1d:7f:
                    19:0b:4d:af:b9:b8:df:80:0f:3d:73:86:ac:41:5f:
                    06:aa:fe:f5:64:ce:40:54:52:0c:0b:58:41:0c:f5:
                    4c:9d:70:21:ac:c0:28:fa:ea:f3:ee:f8:fe:83:b4:
                    c0:58:2d:3d:9d:14:c1:56:cc:e6:73:08:81:df:48:
                    f2:36:f7:82:31:b2:39:76:57:94:f0:72:9f:24:59:
                    16:15:0b:62:27:f0:5e:e4:c0:eb:68:1b:c5:5a:c1:
                    94:d8:f3:73:3e:eb:f6:d2:3a:53:71:60:27:e6:62:
                    d4:dd:e5:2a:cf:0f:21:0f:17:af:5d:ac:37:8b:4d:
                    f8:34:75:65:23:06:c4:6f:7e:64:71:3d:9c:26:d4:
                    92:a2:5b:e5:2e:c5:1b:1f:11:56:8d:ab:55:57:b8:
                    bb:17:aa:b5:74:61:07:d0:66:8b:10:be:d6:21:fd:
                    8b:37:1d:65:86:fc:26:11:91:2b:c9:18:fa:bc:b4:
                    54:3d:87:6f:ab:3a:62:11:79:e3:d7:a8:2d:f2:50:
                    f2:31:2a:cb:12:80:f7:b8:08:0c:e9:01:7e:69:c7:
                    0f:64:79:b6:f6:02:1c:b3:bd:72:4b:08:b2:e0:97:
                    4f:e5:8e:7c:82:d1:a4:b1:bd:c5:de:c5:63:f1:63:
                    97:65
                Exponent: 65537 (0x10001)
        X509v3 extensions:
            X509v3 Subject Key Identifier: 
                0F:21:17:94:40:B1:A6:7C:59:FA:1C:C5:38:CF:62:E8:84:8B:1C:2C
            X509v3 Authority Key Identifier: 
                2F:98:67:67:BF:DA:3E:E8:0B:40:70:66:C5:B6:3B:23:73:22:20:B2
            Authority Information Access: 
                CA Issuers - URI:http://url-for-aia/Root.cer
            X509v3 CRL Distribution Points: 
                Full Name:
                  URI:http://url-for-crl/Root.crl
            X509v3 Key Usage: critical
                Certificate Sign, CRL Sign
            X509v3 Basic Constraints: critical
                CA:TRUE
    Signature Algorithm: sha256WithRSAEncryption
    Signature Value:
        66:29:eb:79:5b:ae:9e:5d:5d:fe:cd:9e:1d:9f:ac:f6:d3:e8:
        2b:b0:ca:64:c6:7d:2b:41:3f:5d:8e:da:19:12:7a:c7:ee:d4:
        63:a1:27:25:cc:de:07:e4:1f:19:51:62:f6:38:4e:04:46:56:
        65:70:6c:3f:fa:71:31:e8:de:94:e6:f9:71:e2:65:63:09:b4:
        f9:e7:50:15:f0:04:ed:e2:0f:3d:e5:3b:b9:34:25:35:44:f7:
        1b:94:eb:b6:d7:3b:08:aa:1e:df:ad:ae:af:d1:a9:28:0c:a6:
        cd:0c:cd:76:37:c8:75:78:7b:8d:7d:7e:8c:44:f7:96:fb:71:
        1f:3e:d2:c4:d3:8a:28:98:86:24:ad:a7:b0:ee:e6:a8:78:78:
        7a:2a:43:0e:bb:e7:e7:21:eb:e9:7d:8c:32:e9:dd:ed:82:e8:
        40:83:da:8b:33:ff:27:2a:5f:34:eb:ad:71:86:96:26:20:69:
        50:8e:cf:20:d3:38:ed:ce:9a:3d:80:7a:1c:30:1a:e2:b8:ed:
        dd:fe:13:82:f6:38:1e:79:16:85:5e:5a:84:76:9b:00:ff:74:
        08:fe:d2:2c:14:0f:a6:60:0d:10:ed:23:57:d2:43:3e:dc:23:
        da:32:d3:14:b9:20:03:c7:d5:9e:4e:59:37:47:5e:00:d0:2e:
        ed:aa:74:89
-----BEGIN CERTIFICATE-----
MIIDdTCCAl2gAwIBAgIUfV87oV6zOrCcMf2bVQzS666nmIgwDQYJKoZIhvcNAQEL
BQAwDzENMAsGA1UEAwwEUm9vdDAeFw0yMjEwMDUxMjAwMDBaFw0yMzEwMDUxMjAw
MDBaMAwxCjAIBgNVBAMMAUkwggEiMA0GCSqGSIb3DQEBAQUAA4IBDwAwggEKAoIB
AQC2T1sdZaxBZGzmPAgdfxkLTa+5uN+ADz1zhqxBXwaq/vVkzkBUUgwLWEEM9Uyd
cCGswCj66vPu+P6DtMBYLT2dFMFWzOZzCIHfSPI294Ixsjl2V5Twcp8kWRYVC2In
8F7kwOtoG8VawZTY83M+6/bSOlNxYCfmYtTd5SrPDyEPF69drDeLTfg0dWUjBsRv
fmRxPZwm1JKiW+UuxRsfEVaNq1VXuLsXqrV0YQfQZosQvtYh/Ys3HWWG/CYRkSvJ
GPq8tFQ9h2+rOmIReePXqC3yUPIxKssSgPe4CAzpAX5pxw9kebb2AhyzvXJLCLLg
l0/ljnyC0aSxvcXexWPxY5dlAgMBAAGjgcswgcgwHQYDVR0OBBYEFA8hF5RAsaZ8
WfocxTjPYuiEixwsMB8GA1UdIwQYMBaAFC+YZ2e/2j7oC0BwZsW2OyNzIiCyMDcG
CCsGAQUFBwEBBCswKTAnBggrBgEFBQcwAoYbaHR0cDovL3VybC1mb3ItYWlhL1Jv
b3QuY2VyMCwGA1UdHwQlMCMwIaAfoB2GG2h0dHA6Ly91cmwtZm9yLWNybC9Sb290
LmNybDAOBgNVHQ8BAf8EBAMCAQYwDwYDVR0TAQH/BAUwAwEB/zANBgkqhkiG9w0B
AQsFAAOCAQEAZinreVuunl1d/s2eHZ+s9tPoK7DKZMZ9K0E/XY7aGRJ6x+7UY6En
JczeB+QfGVFi9jhOBEZWZXBsP/pxMejelOb5ceJlYwm0+edQFfAE7eIPPeU7uTQl
NUT3G5Trttc7CKoe362ur9GpKAymzQzNdjfIdXh7jX1+jET3lvtxHz7SxNOKKJiG
JK2nsO7mqHh4eipDDrvn5yHr6X2MMund7YLoQIPaizP/JypfNOutcYaWJiBpUI7P
INM47c6aPYB6HDAa4rjt3f4TgvY4HnkWhV5ahHabAP90CP7SLBQPpmANEO0jV9JD
Ptwj2jLTFLkgA8fVnk5ZN0deANAu7ap0iQ==
-----END CERTIFICATE-----
