Certificate:
    Data:
        Version: 3 (0x2)
        Serial Number:
            7d:5f:3b:a1:5e:b3:3a:b0:9c:31:fd:9b:55:0c:d2:eb:ae:a7:98:89
        Signature Algorithm: sha256WithRSAEncryption
        Issuer: CN=Root
        Validity
            Not Before: Nov  3 12:00:00 2020 GMT
            Not After : Nov  3 12:00:00 2021 GMT
        Subject: CN=I
        Subject Public Key Info:
            Public Key Algorithm: rsaEncryption
                RSA Public-Key: (2048 bit)
                Modulus:
                    00:b6:4f:5b:1d:65:ac:41:64:6c:e6:3c:08:1d:7f:
                    19:0b:4d:af:b9:b8:df:80:0f:3d:73:86:ac:41:5f:
                    06:aa:fe:f5:64:ce:40:54:52:0c:0b:58:41:0c:f5:
                    4c:9d:70:21:ac:c0:28:fa:ea:f3:ee:f8:fe:83:b4:
                    c0:58:2d:3d:9d:14:c1:56:cc:e6:73:08:81:df:48:
                    f2:36:f7:82:31:b2:39:76:57:94:f0:72:9f:24:59:
                    16:15:0b:62:27:f0:5e:e4:c0:eb:68:1b:c5:5a:c1:
                    94:d8:f3:73:3e:eb:f6:d2:3a:53:71:60:27:e6:62:
                    d4:dd:e5:2a:cf:0f:21:0f:17:af:5d:ac:37:8b:4d:
                    f8:34:75:65:23:06:c4:6f:7e:64:71:3d:9c:26:d4:
                    92:a2:5b:e5:2e:c5:1b:1f:11:56:8d:ab:55:57:b8:
                    bb:17:aa:b5:74:61:07:d0:66:8b:10:be:d6:21:fd:
                    8b:37:1d:65:86:fc:26:11:91:2b:c9:18:fa:bc:b4:
                    54:3d:87:6f:ab:3a:62:11:79:e3:d7:a8:2d:f2:50:
                    f2:31:2a:cb:12:80:f7:b8:08:0c:e9:01:7e:69:c7:
                    0f:64:79:b6:f6:02:1c:b3:bd:72:4b:08:b2:e0:97:
                    4f:e5:8e:7c:82:d1:a4:b1:bd:c5:de:c5:63:f1:63:
                    97:65
                Exponent: 65537 (0x10001)
        X509v3 extensions:
            X509v3 Subject Key Identifier: 
                0F:21:17:94:40:B1:A6:7C:59:FA:1C:C5:38:CF:62:E8:84:8B:1C:2C
            X509v3 Authority Key Identifier: 
                keyid:2F:98:67:67:BF:DA:3E:E8:0B:40:70:66:C5:B6:3B:23:73:22:20:B2

            Authority Information Access: 
                CA Issuers - URI:http://url-for-aia/Root.cer

            X509v3 CRL Distribution Points: 

                Full Name:
                  URI:http://url-for-crl/Root.crl

            X509v3 Key Usage: critical
                Certificate Sign, CRL Sign
            X509v3 Basic Constraints: critical
                CA:TRUE
    Signature Algorithm: sha256WithRSAEncryption
         c4:a2:7f:ec:ca:a4:d3:6e:5a:b6:1c:a8:c6:87:ba:7e:fe:82:
         47:02:28:3f:7a:86:98:d8:96:d0:d0:fb:aa:5d:23:ea:a3:1d:
         d5:52:22:ed:c8:db:45:7e:8e:06:0f:82:e5:e0:29:c2:bf:02:
         25:71:4e:90:40:ab:b2:47:37:45:a9:c9:89:41:78:62:6b:63:
         da:a3:9c:e7:a4:b3:fe:a1:3a:de:e7:79:49:dd:98:d8:22:f7:
         8c:b7:6f:0b:6a:10:6a:6c:97:3d:b3:30:ae:16:b2:8f:c2:f2:
         ea:41:7c:e5:19:cd:fb:23:ce:08:14:37:c0:d6:3c:33:83:59:
         ce:95:43:3d:41:16:ca:12:07:0f:4c:09:29:2a:bf:c1:24:3f:
         ae:71:51:13:5e:08:72:d9:67:3a:1c:9e:dd:d9:8f:70:0a:8f:
         5a:f5:bc:33:78:f6:f5:10:53:b3:50:73:4c:a9:c4:2d:3b:90:
         06:e9:77:04:2e:59:51:48:b2:a1:c8:a6:da:be:8e:e2:08:98:
         43:04:0e:59:2a:46:ee:05:f3:bd:f7:6e:44:5f:56:6f:96:3a:
         45:4c:a6:b9:ec:3b:50:9a:77:b4:28:7b:50:70:e3:49:df:c9:
         67:ef:15:29:07:df:bc:84:16:7e:af:3b:e4:52:c0:10:c0:bc:
         f1:53:ad:0b
-----BEGIN CERTIFICATE-----
MIIDdTCCAl2gAwIBAgIUfV87oV6zOrCcMf2bVQzS666nmIkwDQYJKoZIhvcNAQEL
BQAwDzENMAsGA1UEAwwEUm9vdDAeFw0yMDExMDMxMjAwMDBaFw0yMTExMDMxMjAw
MDBaMAwxCjAIBgNVBAMMAUkwggEiMA0GCSqGSIb3DQEBAQUAA4IBDwAwggEKAoIB
AQC2T1sdZaxBZGzmPAgdfxkLTa+5uN+ADz1zhqxBXwaq/vVkzkBUUgwLWEEM9Uyd
cCGswCj66vPu+P6DtMBYLT2dFMFWzOZzCIHfSPI294Ixsjl2V5Twcp8kWRYVC2In
8F7kwOtoG8VawZTY83M+6/bSOlNxYCfmYtTd5SrPDyEPF69drDeLTfg0dWUjBsRv
fmRxPZwm1JKiW+UuxRsfEVaNq1VXuLsXqrV0YQfQZosQvtYh/Ys3HWWG/CYRkSvJ
GPq8tFQ9h2+rOmIReePXqC3yUPIxKssSgPe4CAzpAX5pxw9kebb2AhyzvXJLCLLg
l0/ljnyC0aSxvcXexWPxY5dlAgMBAAGjgcswgcgwHQYDVR0OBBYEFA8hF5RAsaZ8
WfocxTjPYuiEixwsMB8GA1UdIwQYMBaAFC+YZ2e/2j7oC0BwZsW2OyNzIiCyMDcG
CCsGAQUFBwEBBCswKTAnBggrBgEFBQcwAoYbaHR0cDovL3VybC1mb3ItYWlhL1Jv
b3QuY2VyMCwGA1UdHwQlMCMwIaAfoB2GG2h0dHA6Ly91cmwtZm9yLWNybC9Sb290
LmNybDAOBgNVHQ8BAf8EBAMCAQYwDwYDVR0TAQH/BAUwAwEB/zANBgkqhkiG9w0B
AQsFAAOCAQEAxKJ/7Mqk025athyoxoe6fv6CRwIoP3qGmNiW0ND7ql0j6qMd1VIi
7cjbRX6OBg+C5eApwr8CJXFOkECrskc3RanJiUF4Ymtj2qOc56Sz/qE63ud5Sd2Y
2CL3jLdvC2oQamyXPbMwrhayj8Ly6kF85RnN+yPOCBQ3wNY8M4NZzpVDPUEWyhIH
D0wJKSq/wSQ/rnFRE14IctlnOhye3dmPcAqPWvW8M3j29RBTs1BzTKnELTuQBul3
BC5ZUUiyocim2r6O4giYQwQOWSpG7gXzvfduRF9Wb5Y6RUymuew7UJp3tCh7UHDj
Sd/JZ+8VKQffvIQWfq875FLAEMC88VOtCw==
-----END CERTIFICATE-----
