Certificate:
    Data:
        Version: 3 (0x2)
        Serial Number:
            7d:5f:3b:a1:5e:b3:3a:b0:9c:31:fd:9b:55:0c:d2:eb:ae:a7:98:89
        Signature Algorithm: sha256WithRSAEncryption
        Issuer: CN=Root
        Validity
            Not Before: Oct  5 12:00:00 2022 GMT
            Not After : Oct  5 12:00:00 2023 GMT
        Subject: CN=I
        Subject Public Key Info:
            Public Key Algorithm: rsaEncryption
                Public-Key: (2048 bit)
                Modulus:
                    00:b6:4f:5b:1d:65:ac:41:64:6c:e6:3c:08:1d:7f:
                    19:0b:4d:af:b9:b8:df:80:0f:3d:73:86:ac:41:5f:
                    06:aa:fe:f5:64:ce:40:54:52:0c:0b:58:41:0c:f5:
                    4c:9d:70:21:ac:c0:28:fa:ea:f3:ee:f8:fe:83:b4:
                    c0:58:2d:3d:9d:14:c1:56:cc:e6:73:08:81:df:48:
                    f2:36:f7:82:31:b2:39:76:57:94:f0:72:9f:24:59:
                    16:15:0b:62:27:f0:5e:e4:c0:eb:68:1b:c5:5a:c1:
                    94:d8:f3:73:3e:eb:f6:d2:3a:53:71:60:27:e6:62:
                    d4:dd:e5:2a:cf:0f:21:0f:17:af:5d:ac:37:8b:4d:
                    f8:34:75:65:23:06:c4:6f:7e:64:71:3d:9c:26:d4:
                    92:a2:5b:e5:2e:c5:1b:1f:11:56:8d:ab:55:57:b8:
                    bb:17:aa:b5:74:61:07:d0:66:8b:10:be:d6:21:fd:
                    8b:37:1d:65:86:fc:26:11:91:2b:c9:18:fa:bc:b4:
                    54:3d:87:6f:ab:3a:62:11:79:e3:d7:a8:2d:f2:50:
                    f2:31:2a:cb:12:80:f7:b8:08:0c:e9:01:7e:69:c7:
                    0f:64:79:b6:f6:02:1c:b3:bd:72:4b:08:b2:e0:97:
                    4f:e5:8e:7c:82:d1:a4:b1:bd:c5:de:c5:63:f1:63:
                    97:65
                Exponent: 65537 (0x10001)
        X509v3 extensions:
            X509v3 Subject Key Identifier: 
                0F:21:17:94:40:B1:A6:7C:59:FA:1C:C5:38:CF:62:E8:84:8B:1C:2C
            X509v3 Authority Key Identifier: 
                2F:98:67:67:BF:DA:3E:E8:0B:40:70:66:C5:B6:3B:23:73:22:20:B2
            Authority Information Access: 
                CA Issuers - URI:http://url-for-aia/Root.cer
            X509v3 CRL Distribution Points: 
                Full Name:
                  URI:http://url-for-crl/Root.crl
            X509v3 Key Usage: critical
                Certificate Sign, CRL Sign
            X509v3 Basic Constraints: critical
                CA:TRUE
    Signature Algorithm: sha256WithRSAEncryption
    Signature Value:
        29:3c:13:b7:a3:7c:ab:a0:15:23:e5:c3:6d:1e:81:32:d1:4d:
        c4:70:37:5f:c4:92:93:a3:3c:f1:c2:4d:a3:a7:e9:1c:b3:43:
        91:e5:32:96:ea:71:da:17:67:ed:83:c5:a9:c5:3e:7f:00:b0:
        ba:c1:fd:f5:90:5e:12:df:de:60:8a:2a:21:dc:10:52:2e:ca:
        83:0f:fc:9b:ac:b9:d7:53:c9:cc:bf:59:72:42:9e:25:b3:cd:
        4d:d1:a7:40:a3:cf:a3:9c:19:36:f2:14:8f:63:15:4a:59:8f:
        6a:62:6f:f4:ca:81:30:dc:27:0b:07:5b:25:8a:34:52:f0:22:
        53:cf:4a:0f:dd:6a:76:ff:32:8f:24:89:5b:3f:cd:3b:37:e0:
        75:05:01:81:3b:fa:0c:db:bf:b0:6f:f7:7b:b0:30:f4:5d:6d:
        7c:0f:9b:00:9f:d7:ce:52:04:df:04:2c:2f:ed:8d:15:7c:8e:
        28:27:2c:3a:c3:fb:f6:4c:f2:b1:77:8f:a9:f2:26:61:37:db:
        26:16:28:ad:c1:70:a3:2b:dd:ac:ed:c0:d3:73:98:5a:b9:aa:
        19:03:a3:df:b7:2d:6c:84:be:09:98:87:0d:a1:36:23:b9:cd:
        52:ff:70:4b:26:b4:5e:50:ef:ce:f5:36:a3:76:8e:6d:8d:91:
        5b:c7:33:53
-----BEGIN CERTIFICATE-----
MIIDdTCCAl2gAwIBAgIUfV87oV6zOrCcMf2bVQzS666nmIkwDQYJKoZIhvcNAQEL
BQAwDzENMAsGA1UEAwwEUm9vdDAeFw0yMjEwMDUxMjAwMDBaFw0yMzEwMDUxMjAw
MDBaMAwxCjAIBgNVBAMMAUkwggEiMA0GCSqGSIb3DQEBAQUAA4IBDwAwggEKAoIB
AQC2T1sdZaxBZGzmPAgdfxkLTa+5uN+ADz1zhqxBXwaq/vVkzkBUUgwLWEEM9Uyd
cCGswCj66vPu+P6DtMBYLT2dFMFWzOZzCIHfSPI294Ixsjl2V5Twcp8kWRYVC2In
8F7kwOtoG8VawZTY83M+6/bSOlNxYCfmYtTd5SrPDyEPF69drDeLTfg0dWUjBsRv
fmRxPZwm1JKiW+UuxRsfEVaNq1VXuLsXqrV0YQfQZosQvtYh/Ys3HWWG/CYRkSvJ
GPq8tFQ9h2+rOmIReePXqC3yUPIxKssSgPe4CAzpAX5pxw9kebb2AhyzvXJLCLLg
l0/ljnyC0aSxvcXexWPxY5dlAgMBAAGjgcswgcgwHQYDVR0OBBYEFA8hF5RAsaZ8
WfocxTjPYuiEixwsMB8GA1UdIwQYMBaAFC+YZ2e/2j7oC0BwZsW2OyNzIiCyMDcG
CCsGAQUFBwEBBCswKTAnBggrBgEFBQcwAoYbaHR0cDovL3VybC1mb3ItYWlhL1Jv
b3QuY2VyMCwGA1UdHwQlMCMwIaAfoB2GG2h0dHA6Ly91cmwtZm9yLWNybC9Sb290
LmNybDAOBgNVHQ8BAf8EBAMCAQYwDwYDVR0TAQH/BAUwAwEB/zANBgkqhkiG9w0B
AQsFAAOCAQEAKTwTt6N8q6AVI+XDbR6BMtFNxHA3X8SSk6M88cJNo6fpHLNDkeUy
lupx2hdn7YPFqcU+fwCwusH99ZBeEt/eYIoqIdwQUi7Kgw/8m6y511PJzL9ZckKe
JbPNTdGnQKPPo5wZNvIUj2MVSlmPamJv9MqBMNwnCwdbJYo0UvAiU89KD91qdv8y
jySJWz/NOzfgdQUBgTv6DNu/sG/3e7Aw9F1tfA+bAJ/XzlIE3wQsL+2NFXyOKCcs
OsP79kzysXePqfImYTfbJhYorcFwoyvdrO3A03OYWrmqGQOj37ctbIS+CZiHDaE2
I7nNUv9wSya0XlDvzvU2o3aObY2RW8czUw==
-----END CERTIFICATE-----
