Certificate:
    Data:
        Version: 3 (0x2)
        Serial Number:
            7d:5f:3b:a1:5e:b3:3a:b0:9c:31:fd:9b:55:0c:d2:eb:ae:a7:98:89
        Signature Algorithm: sha256WithRSAEncryption
        Issuer: CN=Root
        Validity
            Not Before: Oct  5 12:00:00 2021 GMT
            Not After : Oct  5 12:00:00 2022 GMT
        Subject: CN=I
        Subject Public Key Info:
            Public Key Algorithm: rsaEncryption
                RSA Public-Key: (2048 bit)
                Modulus:
                    00:b6:4f:5b:1d:65:ac:41:64:6c:e6:3c:08:1d:7f:
                    19:0b:4d:af:b9:b8:df:80:0f:3d:73:86:ac:41:5f:
                    06:aa:fe:f5:64:ce:40:54:52:0c:0b:58:41:0c:f5:
                    4c:9d:70:21:ac:c0:28:fa:ea:f3:ee:f8:fe:83:b4:
                    c0:58:2d:3d:9d:14:c1:56:cc:e6:73:08:81:df:48:
                    f2:36:f7:82:31:b2:39:76:57:94:f0:72:9f:24:59:
                    16:15:0b:62:27:f0:5e:e4:c0:eb:68:1b:c5:5a:c1:
                    94:d8:f3:73:3e:eb:f6:d2:3a:53:71:60:27:e6:62:
                    d4:dd:e5:2a:cf:0f:21:0f:17:af:5d:ac:37:8b:4d:
                    f8:34:75:65:23:06:c4:6f:7e:64:71:3d:9c:26:d4:
                    92:a2:5b:e5:2e:c5:1b:1f:11:56:8d:ab:55:57:b8:
                    bb:17:aa:b5:74:61:07:d0:66:8b:10:be:d6:21:fd:
                    8b:37:1d:65:86:fc:26:11:91:2b:c9:18:fa:bc:b4:
                    54:3d:87:6f:ab:3a:62:11:79:e3:d7:a8:2d:f2:50:
                    f2:31:2a:cb:12:80:f7:b8:08:0c:e9:01:7e:69:c7:
                    0f:64:79:b6:f6:02:1c:b3:bd:72:4b:08:b2:e0:97:
                    4f:e5:8e:7c:82:d1:a4:b1:bd:c5:de:c5:63:f1:63:
                    97:65
                Exponent: 65537 (0x10001)
        X509v3 extensions:
            X509v3 Subject Key Identifier: 
                0F:21:17:94:40:B1:A6:7C:59:FA:1C:C5:38:CF:62:E8:84:8B:1C:2C
            X509v3 Authority Key Identifier: 
                keyid:2F:98:67:67:BF:DA:3E:E8:0B:40:70:66:C5:B6:3B:23:73:22:20:B2

            Authority Information Access: 
                CA Issuers - URI:http://url-for-aia/Root.cer

            X509v3 CRL Distribution Points: 

                Full Name:
                  URI:http://url-for-crl/Root.crl

            X509v3 Key Usage: critical
                Certificate Sign, CRL Sign
            X509v3 Basic Constraints: critical
                CA:TRUE
    Signature Algorithm: sha256WithRSAEncryption
         ba:ac:ef:d5:38:de:87:72:d7:b7:e9:7c:c1:e7:b1:2f:af:41:
         66:15:9c:15:fa:02:43:39:88:7b:75:aa:2d:fc:dd:a1:7d:f5:
         f5:f9:db:fc:08:dc:58:9b:3a:65:34:bb:90:47:41:29:81:af:
         08:63:5a:31:f7:74:f2:ca:80:ad:bc:b3:6d:ff:6b:ae:8d:0e:
         21:17:e8:59:86:1b:d8:54:4a:24:7d:86:ef:37:ab:61:1e:61:
         88:d5:a6:6a:37:13:dd:c1:a1:42:d8:25:af:4c:0c:09:e6:6f:
         0e:9a:06:61:76:39:8f:bc:c1:60:5a:86:27:d9:22:b9:f3:e0:
         11:b9:ac:63:9d:89:a9:a9:d6:5c:79:78:47:34:e7:a6:ea:ca:
         9e:27:a5:dd:95:48:93:f3:58:3d:df:15:6b:bb:8a:73:25:fa:
         68:0b:c6:4c:4d:a5:9e:f3:5d:2f:ad:85:23:5d:6c:36:13:d2:
         a3:08:8a:d4:64:af:b8:ce:c8:fc:09:72:1e:81:9d:a8:a7:92:
         f5:0f:64:03:b0:75:13:1f:1e:6d:6c:db:c8:fc:a0:bf:57:31:
         98:bf:57:e9:f1:84:73:0d:c7:a6:fa:b2:47:5a:68:79:a6:12:
         3c:aa:b4:e3:83:2a:23:f3:69:62:d0:c3:ce:65:55:42:21:bb:
         31:22:5a:f7
-----BEGIN CERTIFICATE-----
MIIDdTCCAl2gAwIBAgIUfV87oV6zOrCcMf2bVQzS666nmIkwDQYJKoZIhvcNAQEL
BQAwDzENMAsGA1UEAwwEUm9vdDAeFw0yMTEwMDUxMjAwMDBaFw0yMjEwMDUxMjAw
MDBaMAwxCjAIBgNVBAMMAUkwggEiMA0GCSqGSIb3DQEBAQUAA4IBDwAwggEKAoIB
AQC2T1sdZaxBZGzmPAgdfxkLTa+5uN+ADz1zhqxBXwaq/vVkzkBUUgwLWEEM9Uyd
cCGswCj66vPu+P6DtMBYLT2dFMFWzOZzCIHfSPI294Ixsjl2V5Twcp8kWRYVC2In
8F7kwOtoG8VawZTY83M+6/bSOlNxYCfmYtTd5SrPDyEPF69drDeLTfg0dWUjBsRv
fmRxPZwm1JKiW+UuxRsfEVaNq1VXuLsXqrV0YQfQZosQvtYh/Ys3HWWG/CYRkSvJ
GPq8tFQ9h2+rOmIReePXqC3yUPIxKssSgPe4CAzpAX5pxw9kebb2AhyzvXJLCLLg
l0/ljnyC0aSxvcXexWPxY5dlAgMBAAGjgcswgcgwHQYDVR0OBBYEFA8hF5RAsaZ8
WfocxTjPYuiEixwsMB8GA1UdIwQYMBaAFC+YZ2e/2j7oC0BwZsW2OyNzIiCyMDcG
CCsGAQUFBwEBBCswKTAnBggrBgEFBQcwAoYbaHR0cDovL3VybC1mb3ItYWlhL1Jv
b3QuY2VyMCwGA1UdHwQlMCMwIaAfoB2GG2h0dHA6Ly91cmwtZm9yLWNybC9Sb290
LmNybDAOBgNVHQ8BAf8EBAMCAQYwDwYDVR0TAQH/BAUwAwEB/zANBgkqhkiG9w0B
AQsFAAOCAQEAuqzv1Tjeh3LXt+l8weexL69BZhWcFfoCQzmIe3WqLfzdoX319fnb
/AjcWJs6ZTS7kEdBKYGvCGNaMfd08sqArbyzbf9rro0OIRfoWYYb2FRKJH2G7zer
YR5hiNWmajcT3cGhQtglr0wMCeZvDpoGYXY5j7zBYFqGJ9kiufPgEbmsY52JqanW
XHl4RzTnpurKniel3ZVIk/NYPd8Va7uKcyX6aAvGTE2lnvNdL62FI11sNhPSowiK
1GSvuM7I/AlyHoGdqKeS9Q9kA7B1Ex8ebWzbyPygv1cxmL9X6fGEcw3HpvqyR1po
eaYSPKq044MqI/NpYtDDzmVVQiG7MSJa9w==
-----END CERTIFICATE-----
