Certificate:
    Data:
        Version: 3 (0x2)
        Serial Number:
            7d:5f:3b:a1:5e:b3:3a:b0:9c:31:fd:9b:55:0c:d2:eb:ae:a7:98:8a
        Signature Algorithm: sha256WithRSAEncryption
        Issuer: CN=Root
        Validity
            Not Before: Oct  5 12:00:00 2022 GMT
            Not After : Oct  5 12:00:00 2023 GMT
        Subject: CN=I
        Subject Public Key Info:
            Public Key Algorithm: rsaEncryption
                Public-Key: (2048 bit)
                Modulus:
                    00:b6:4f:5b:1d:65:ac:41:64:6c:e6:3c:08:1d:7f:
                    19:0b:4d:af:b9:b8:df:80:0f:3d:73:86:ac:41:5f:
                    06:aa:fe:f5:64:ce:40:54:52:0c:0b:58:41:0c:f5:
                    4c:9d:70:21:ac:c0:28:fa:ea:f3:ee:f8:fe:83:b4:
                    c0:58:2d:3d:9d:14:c1:56:cc:e6:73:08:81:df:48:
                    f2:36:f7:82:31:b2:39:76:57:94:f0:72:9f:24:59:
                    16:15:0b:62:27:f0:5e:e4:c0:eb:68:1b:c5:5a:c1:
                    94:d8:f3:73:3e:eb:f6:d2:3a:53:71:60:27:e6:62:
                    d4:dd:e5:2a:cf:0f:21:0f:17:af:5d:ac:37:8b:4d:
                    f8:34:75:65:23:06:c4:6f:7e:64:71:3d:9c:26:d4:
                    92:a2:5b:e5:2e:c5:1b:1f:11:56:8d:ab:55:57:b8:
                    bb:17:aa:b5:74:61:07:d0:66:8b:10:be:d6:21:fd:
                    8b:37:1d:65:86:fc:26:11:91:2b:c9:18:fa:bc:b4:
                    54:3d:87:6f:ab:3a:62:11:79:e3:d7:a8:2d:f2:50:
                    f2:31:2a:cb:12:80:f7:b8:08:0c:e9:01:7e:69:c7:
                    0f:64:79:b6:f6:02:1c:b3:bd:72:4b:08:b2:e0:97:
                    4f:e5:8e:7c:82:d1:a4:b1:bd:c5:de:c5:63:f1:63:
                    97:65
                Exponent: 65537 (0x10001)
        X509v3 extensions:
            X509v3 Subject Key Identifier: 
                0F:21:17:94:40:B1:A6:7C:59:FA:1C:C5:38:CF:62:E8:84:8B:1C:2C
            X509v3 Authority Key Identifier: 
                2F:98:67:67:BF:DA:3E:E8:0B:40:70:66:C5:B6:3B:23:73:22:20:B2
            Authority Information Access: 
                CA Issuers - URI:http://url-for-aia/Root.cer
            X509v3 CRL Distribution Points: 
                Full Name:
                  URI:http://url-for-crl/Root.crl
            X509v3 Key Usage: critical
                Certificate Sign, CRL Sign
            X509v3 Basic Constraints: critical
                CA:TRUE
    Signature Algorithm: sha256WithRSAEncryption
    Signature Value:
        6f:07:4f:f1:34:b8:f9:6a:c3:12:ff:c5:9f:b8:76:a2:bd:ae:
        2f:a4:09:bc:eb:a7:ec:6a:b0:3d:3a:d4:e8:d5:dd:f1:6e:4f:
        2c:96:2f:44:2e:76:a8:31:75:8e:78:38:eb:9c:ab:00:df:37:
        0b:4f:58:09:51:e7:bd:6a:e2:e6:a5:b5:e7:43:bf:02:5b:58:
        7a:2c:6b:aa:17:04:52:4f:7b:24:ab:d8:77:b8:ae:e6:0d:86:
        58:7a:cf:96:12:7b:b4:23:4b:2a:f5:cd:66:18:7f:05:96:7d:
        ea:23:16:15:f2:cd:8f:9d:7c:fc:19:65:ed:7e:a1:aa:6f:af:
        40:04:f1:a3:0f:27:c1:df:23:29:13:a1:cc:23:8d:b8:24:c9:
        47:5a:1e:4b:6a:3e:15:fa:09:4e:0a:37:06:6b:41:0a:b3:38:
        51:f7:19:06:89:cf:d8:44:48:32:70:0b:f8:cd:db:93:98:35:
        0c:63:17:c5:83:a9:61:bc:96:06:bb:04:88:ff:a0:49:73:50:
        25:46:5b:fb:7d:fd:09:88:d1:9a:5a:b1:dc:71:9e:bb:52:69:
        1f:b7:37:dc:a6:82:50:d3:49:54:55:82:62:aa:7b:48:5f:d0:
        79:16:54:29:0e:bd:a7:b1:04:bb:92:4a:aa:67:83:32:2b:74:
        6f:8f:f8:df
-----BEGIN CERTIFICATE-----
MIIDdTCCAl2gAwIBAgIUfV87oV6zOrCcMf2bVQzS666nmIowDQYJKoZIhvcNAQEL
BQAwDzENMAsGA1UEAwwEUm9vdDAeFw0yMjEwMDUxMjAwMDBaFw0yMzEwMDUxMjAw
MDBaMAwxCjAIBgNVBAMMAUkwggEiMA0GCSqGSIb3DQEBAQUAA4IBDwAwggEKAoIB
AQC2T1sdZaxBZGzmPAgdfxkLTa+5uN+ADz1zhqxBXwaq/vVkzkBUUgwLWEEM9Uyd
cCGswCj66vPu+P6DtMBYLT2dFMFWzOZzCIHfSPI294Ixsjl2V5Twcp8kWRYVC2In
8F7kwOtoG8VawZTY83M+6/bSOlNxYCfmYtTd5SrPDyEPF69drDeLTfg0dWUjBsRv
fmRxPZwm1JKiW+UuxRsfEVaNq1VXuLsXqrV0YQfQZosQvtYh/Ys3HWWG/CYRkSvJ
GPq8tFQ9h2+rOmIReePXqC3yUPIxKssSgPe4CAzpAX5pxw9kebb2AhyzvXJLCLLg
l0/ljnyC0aSxvcXexWPxY5dlAgMBAAGjgcswgcgwHQYDVR0OBBYEFA8hF5RAsaZ8
WfocxTjPYuiEixwsMB8GA1UdIwQYMBaAFC+YZ2e/2j7oC0BwZsW2OyNzIiCyMDcG
CCsGAQUFBwEBBCswKTAnBggrBgEFBQcwAoYbaHR0cDovL3VybC1mb3ItYWlhL1Jv
b3QuY2VyMCwGA1UdHwQlMCMwIaAfoB2GG2h0dHA6Ly91cmwtZm9yLWNybC9Sb290
LmNybDAOBgNVHQ8BAf8EBAMCAQYwDwYDVR0TAQH/BAUwAwEB/zANBgkqhkiG9w0B
AQsFAAOCAQEAbwdP8TS4+WrDEv/Fn7h2or2uL6QJvOun7GqwPTrU6NXd8W5PLJYv
RC52qDF1jng465yrAN83C09YCVHnvWri5qW150O/AltYeixrqhcEUk97JKvYd7iu
5g2GWHrPlhJ7tCNLKvXNZhh/BZZ96iMWFfLNj518/Bll7X6hqm+vQATxow8nwd8j
KROhzCONuCTJR1oeS2o+FfoJTgo3BmtBCrM4UfcZBonP2ERIMnAL+M3bk5g1DGMX
xYOpYbyWBrsEiP+gSXNQJUZb+339CYjRmlqx3HGeu1JpH7c33KaCUNNJVFWCYqp7
SF/QeRZUKQ69p7EEu5JKqmeDMit0b4/43w==
-----END CERTIFICATE-----
