Certificate:
    Data:
        Version: 3 (0x2)
        Serial Number:
            7d:5f:3b:a1:5e:b3:3a:b0:9c:31:fd:9b:55:0c:d2:eb:ae:a7:98:8a
        Signature Algorithm: sha256WithRSAEncryption
        Issuer: CN=Root
        Validity
            Not Before: Nov  3 12:00:00 2020 GMT
            Not After : Nov  3 12:00:00 2021 GMT
        Subject: CN=I
        Subject Public Key Info:
            Public Key Algorithm: rsaEncryption
                RSA Public-Key: (2048 bit)
                Modulus:
                    00:b6:4f:5b:1d:65:ac:41:64:6c:e6:3c:08:1d:7f:
                    19:0b:4d:af:b9:b8:df:80:0f:3d:73:86:ac:41:5f:
                    06:aa:fe:f5:64:ce:40:54:52:0c:0b:58:41:0c:f5:
                    4c:9d:70:21:ac:c0:28:fa:ea:f3:ee:f8:fe:83:b4:
                    c0:58:2d:3d:9d:14:c1:56:cc:e6:73:08:81:df:48:
                    f2:36:f7:82:31:b2:39:76:57:94:f0:72:9f:24:59:
                    16:15:0b:62:27:f0:5e:e4:c0:eb:68:1b:c5:5a:c1:
                    94:d8:f3:73:3e:eb:f6:d2:3a:53:71:60:27:e6:62:
                    d4:dd:e5:2a:cf:0f:21:0f:17:af:5d:ac:37:8b:4d:
                    f8:34:75:65:23:06:c4:6f:7e:64:71:3d:9c:26:d4:
                    92:a2:5b:e5:2e:c5:1b:1f:11:56:8d:ab:55:57:b8:
                    bb:17:aa:b5:74:61:07:d0:66:8b:10:be:d6:21:fd:
                    8b:37:1d:65:86:fc:26:11:91:2b:c9:18:fa:bc:b4:
                    54:3d:87:6f:ab:3a:62:11:79:e3:d7:a8:2d:f2:50:
                    f2:31:2a:cb:12:80:f7:b8:08:0c:e9:01:7e:69:c7:
                    0f:64:79:b6:f6:02:1c:b3:bd:72:4b:08:b2:e0:97:
                    4f:e5:8e:7c:82:d1:a4:b1:bd:c5:de:c5:63:f1:63:
                    97:65
                Exponent: 65537 (0x10001)
        X509v3 extensions:
            X509v3 Subject Key Identifier: 
                0F:21:17:94:40:B1:A6:7C:59:FA:1C:C5:38:CF:62:E8:84:8B:1C:2C
            X509v3 Authority Key Identifier: 
                keyid:2F:98:67:67:BF:DA:3E:E8:0B:40:70:66:C5:B6:3B:23:73:22:20:B2

            Authority Information Access: 
                CA Issuers - URI:http://url-for-aia/Root.cer

            X509v3 CRL Distribution Points: 

                Full Name:
                  URI:http://url-for-crl/Root.crl

            X509v3 Key Usage: critical
                Certificate Sign, CRL Sign
            X509v3 Basic Constraints: critical
                CA:TRUE
    Signature Algorithm: sha256WithRSAEncryption
         53:e0:27:1c:68:1c:9b:f8:89:f3:4a:ab:b7:02:4e:dd:69:7b:
         79:8d:e0:a3:e8:46:55:e1:b4:df:bd:81:1b:a3:d7:6e:53:dd:
         50:ee:4b:9a:1d:93:16:60:4e:4f:d6:86:8e:0b:0a:26:30:ab:
         ab:91:88:d1:5e:be:69:b3:85:c4:3d:cd:c4:f3:b9:95:86:82:
         de:3c:d4:04:32:82:c3:8a:a0:8f:91:d7:f6:40:3e:67:fe:a3:
         df:ff:53:1a:3f:64:82:e5:81:73:1c:23:26:d5:ef:5d:dc:98:
         85:8e:f8:4b:ab:4f:12:b8:20:58:c0:09:72:c4:cc:3f:8f:82:
         77:3e:dc:fb:86:6f:b6:05:44:b5:27:d3:46:9b:96:6a:b0:55:
         28:2e:03:d8:7c:9d:b9:a4:1d:53:6a:9a:46:d5:6f:b3:7f:85:
         ba:fc:31:66:c1:56:69:15:66:de:98:ea:05:d2:ab:0b:e3:c7:
         68:3f:39:38:ba:0d:90:4f:0c:09:f3:5c:e7:08:19:62:12:e2:
         c4:fe:30:94:67:ac:1a:09:f5:27:57:77:23:f3:91:ac:59:07:
         fa:2d:4e:a3:26:4a:2d:cb:8f:99:2e:74:09:a3:85:04:33:ad:
         22:46:59:96:0e:69:3b:21:67:db:78:a4:33:77:a9:54:84:76:
         7c:cd:60:0d
-----BEGIN CERTIFICATE-----
MIIDdTCCAl2gAwIBAgIUfV87oV6zOrCcMf2bVQzS666nmIowDQYJKoZIhvcNAQEL
BQAwDzENMAsGA1UEAwwEUm9vdDAeFw0yMDExMDMxMjAwMDBaFw0yMTExMDMxMjAw
MDBaMAwxCjAIBgNVBAMMAUkwggEiMA0GCSqGSIb3DQEBAQUAA4IBDwAwggEKAoIB
AQC2T1sdZaxBZGzmPAgdfxkLTa+5uN+ADz1zhqxBXwaq/vVkzkBUUgwLWEEM9Uyd
cCGswCj66vPu+P6DtMBYLT2dFMFWzOZzCIHfSPI294Ixsjl2V5Twcp8kWRYVC2In
8F7kwOtoG8VawZTY83M+6/bSOlNxYCfmYtTd5SrPDyEPF69drDeLTfg0dWUjBsRv
fmRxPZwm1JKiW+UuxRsfEVaNq1VXuLsXqrV0YQfQZosQvtYh/Ys3HWWG/CYRkSvJ
GPq8tFQ9h2+rOmIReePXqC3yUPIxKssSgPe4CAzpAX5pxw9kebb2AhyzvXJLCLLg
l0/ljnyC0aSxvcXexWPxY5dlAgMBAAGjgcswgcgwHQYDVR0OBBYEFA8hF5RAsaZ8
WfocxTjPYuiEixwsMB8GA1UdIwQYMBaAFC+YZ2e/2j7oC0BwZsW2OyNzIiCyMDcG
CCsGAQUFBwEBBCswKTAnBggrBgEFBQcwAoYbaHR0cDovL3VybC1mb3ItYWlhL1Jv
b3QuY2VyMCwGA1UdHwQlMCMwIaAfoB2GG2h0dHA6Ly91cmwtZm9yLWNybC9Sb290
LmNybDAOBgNVHQ8BAf8EBAMCAQYwDwYDVR0TAQH/BAUwAwEB/zANBgkqhkiG9w0B
AQsFAAOCAQEAU+AnHGgcm/iJ80qrtwJO3Wl7eY3go+hGVeG0372BG6PXblPdUO5L
mh2TFmBOT9aGjgsKJjCrq5GI0V6+abOFxD3NxPO5lYaC3jzUBDKCw4qgj5HX9kA+
Z/6j3/9TGj9kguWBcxwjJtXvXdyYhY74S6tPErggWMAJcsTMP4+Cdz7c+4ZvtgVE
tSfTRpuWarBVKC4D2HyduaQdU2qaRtVvs3+FuvwxZsFWaRVm3pjqBdKrC+PHaD85
OLoNkE8MCfNc5wgZYhLixP4wlGesGgn1J1d3I/ORrFkH+i1OoyZKLcuPmS50CaOF
BDOtIkZZlg5pOyFn23ikM3epVIR2fM1gDQ==
-----END CERTIFICATE-----
