Certificate:
    Data:
        Version: 3 (0x2)
        Serial Number:
            7d:5f:3b:a1:5e:b3:3a:b0:9c:31:fd:9b:55:0c:d2:eb:ae:a7:98:8a
        Signature Algorithm: sha256WithRSAEncryption
        Issuer: CN=Root
        Validity
            Not Before: Oct  5 12:00:00 2021 GMT
            Not After : Oct  5 12:00:00 2022 GMT
        Subject: CN=I
        Subject Public Key Info:
            Public Key Algorithm: rsaEncryption
                RSA Public-Key: (2048 bit)
                Modulus:
                    00:b6:4f:5b:1d:65:ac:41:64:6c:e6:3c:08:1d:7f:
                    19:0b:4d:af:b9:b8:df:80:0f:3d:73:86:ac:41:5f:
                    06:aa:fe:f5:64:ce:40:54:52:0c:0b:58:41:0c:f5:
                    4c:9d:70:21:ac:c0:28:fa:ea:f3:ee:f8:fe:83:b4:
                    c0:58:2d:3d:9d:14:c1:56:cc:e6:73:08:81:df:48:
                    f2:36:f7:82:31:b2:39:76:57:94:f0:72:9f:24:59:
                    16:15:0b:62:27:f0:5e:e4:c0:eb:68:1b:c5:5a:c1:
                    94:d8:f3:73:3e:eb:f6:d2:3a:53:71:60:27:e6:62:
                    d4:dd:e5:2a:cf:0f:21:0f:17:af:5d:ac:37:8b:4d:
                    f8:34:75:65:23:06:c4:6f:7e:64:71:3d:9c:26:d4:
                    92:a2:5b:e5:2e:c5:1b:1f:11:56:8d:ab:55:57:b8:
                    bb:17:aa:b5:74:61:07:d0:66:8b:10:be:d6:21:fd:
                    8b:37:1d:65:86:fc:26:11:91:2b:c9:18:fa:bc:b4:
                    54:3d:87:6f:ab:3a:62:11:79:e3:d7:a8:2d:f2:50:
                    f2:31:2a:cb:12:80:f7:b8:08:0c:e9:01:7e:69:c7:
                    0f:64:79:b6:f6:02:1c:b3:bd:72:4b:08:b2:e0:97:
                    4f:e5:8e:7c:82:d1:a4:b1:bd:c5:de:c5:63:f1:63:
                    97:65
                Exponent: 65537 (0x10001)
        X509v3 extensions:
            X509v3 Subject Key Identifier: 
                0F:21:17:94:40:B1:A6:7C:59:FA:1C:C5:38:CF:62:E8:84:8B:1C:2C
            X509v3 Authority Key Identifier: 
                keyid:2F:98:67:67:BF:DA:3E:E8:0B:40:70:66:C5:B6:3B:23:73:22:20:B2

            Authority Information Access: 
                CA Issuers - URI:http://url-for-aia/Root.cer

            X509v3 CRL Distribution Points: 

                Full Name:
                  URI:http://url-for-crl/Root.crl

            X509v3 Key Usage: critical
                Certificate Sign, CRL Sign
            X509v3 Basic Constraints: critical
                CA:TRUE
    Signature Algorithm: sha256WithRSAEncryption
         2c:53:7f:e3:93:fe:d2:7c:39:bc:11:73:9a:ea:2b:26:07:dd:
         90:cb:ed:84:d7:6e:5c:d6:5c:ca:b4:a7:98:0b:c1:07:20:a4:
         4b:7b:22:4e:a4:a5:9e:70:0c:0a:73:ab:a2:f9:6e:24:1d:7d:
         43:41:f8:66:8a:22:52:9e:00:ed:4d:97:cd:f3:72:af:fe:aa:
         7d:41:8d:cf:1a:17:4e:9a:b1:23:64:e4:c1:cb:07:75:8b:b2:
         0e:11:fd:b0:6a:6a:87:a3:91:8f:4e:53:95:26:8a:5b:ce:20:
         0e:cc:90:8d:fc:d4:fc:16:c1:93:69:7e:f4:7c:8b:e9:5f:79:
         9e:95:05:69:81:f2:e4:6a:14:50:86:03:d5:2f:18:93:59:db:
         a6:cf:dc:03:65:24:6c:e2:bf:ad:6f:02:16:31:4a:84:0c:10:
         09:6d:78:3b:e2:7f:d1:76:b4:2c:c0:6b:d2:7d:f9:de:a9:c9:
         45:14:29:85:53:ed:a5:27:35:61:cf:5a:11:b5:be:3d:cd:27:
         e5:78:5a:55:79:18:c0:b3:6c:6c:47:3b:c1:99:09:a3:c6:e3:
         21:af:8e:ee:94:2b:aa:59:8a:54:32:79:f0:3a:ef:f1:bc:ba:
         5c:ec:8f:54:5b:5d:67:f7:82:15:07:f9:4c:1e:20:77:9c:19:
         2f:fe:be:f3
-----BEGIN CERTIFICATE-----
MIIDdTCCAl2gAwIBAgIUfV87oV6zOrCcMf2bVQzS666nmIowDQYJKoZIhvcNAQEL
BQAwDzENMAsGA1UEAwwEUm9vdDAeFw0yMTEwMDUxMjAwMDBaFw0yMjEwMDUxMjAw
MDBaMAwxCjAIBgNVBAMMAUkwggEiMA0GCSqGSIb3DQEBAQUAA4IBDwAwggEKAoIB
AQC2T1sdZaxBZGzmPAgdfxkLTa+5uN+ADz1zhqxBXwaq/vVkzkBUUgwLWEEM9Uyd
cCGswCj66vPu+P6DtMBYLT2dFMFWzOZzCIHfSPI294Ixsjl2V5Twcp8kWRYVC2In
8F7kwOtoG8VawZTY83M+6/bSOlNxYCfmYtTd5SrPDyEPF69drDeLTfg0dWUjBsRv
fmRxPZwm1JKiW+UuxRsfEVaNq1VXuLsXqrV0YQfQZosQvtYh/Ys3HWWG/CYRkSvJ
GPq8tFQ9h2+rOmIReePXqC3yUPIxKssSgPe4CAzpAX5pxw9kebb2AhyzvXJLCLLg
l0/ljnyC0aSxvcXexWPxY5dlAgMBAAGjgcswgcgwHQYDVR0OBBYEFA8hF5RAsaZ8
WfocxTjPYuiEixwsMB8GA1UdIwQYMBaAFC+YZ2e/2j7oC0BwZsW2OyNzIiCyMDcG
CCsGAQUFBwEBBCswKTAnBggrBgEFBQcwAoYbaHR0cDovL3VybC1mb3ItYWlhL1Jv
b3QuY2VyMCwGA1UdHwQlMCMwIaAfoB2GG2h0dHA6Ly91cmwtZm9yLWNybC9Sb290
LmNybDAOBgNVHQ8BAf8EBAMCAQYwDwYDVR0TAQH/BAUwAwEB/zANBgkqhkiG9w0B
AQsFAAOCAQEALFN/45P+0nw5vBFzmuorJgfdkMvthNduXNZcyrSnmAvBByCkS3si
TqSlnnAMCnOrovluJB19Q0H4ZooiUp4A7U2XzfNyr/6qfUGNzxoXTpqxI2TkwcsH
dYuyDhH9sGpqh6ORj05TlSaKW84gDsyQjfzU/BbBk2l+9HyL6V95npUFaYHy5GoU
UIYD1S8Yk1nbps/cA2UkbOK/rW8CFjFKhAwQCW14O+J/0Xa0LMBr0n353qnJRRQp
hVPtpSc1Yc9aEbW+Pc0n5XhaVXkYwLNsbEc7wZkJo8bjIa+O7pQrqlmKVDJ58Drv
8by6XOyPVFtdZ/eCFQf5TB4gd5wZL/6+8w==
-----END CERTIFICATE-----
