Certificate:
    Data:
        Version: 3 (0x2)
        Serial Number:
            7d:5f:3b:a1:5e:b3:3a:b0:9c:31:fd:9b:55:0c:d2:eb:ae:a7:98:87
        Signature Algorithm: sha256WithRSAEncryption
        Issuer: CN=Root
        Validity
            Not Before: Oct  5 12:00:00 2022 GMT
            Not After : Oct  5 12:00:00 2023 GMT
        Subject: CN=Root
        Subject Public Key Info:
            Public Key Algorithm: rsaEncryption
                Public-Key: (2048 bit)
                Modulus:
                    00:ce:a5:b4:f5:80:6c:09:1b:2e:2b:20:82:c3:ea:
                    4d:b6:94:36:cf:e3:1f:a0:04:6f:24:9b:3b:12:64:
                    7f:eb:cd:18:17:8c:11:76:26:c1:ff:62:0b:80:80:
                    e6:eb:7e:63:cc:c7:61:bd:99:70:c5:29:be:7b:f6:
                    c3:5b:03:4a:0e:0e:12:b8:a4:35:57:d1:2b:9b:c8:
                    d3:70:05:a8:9e:53:84:66:1a:23:33:fb:f6:f2:d7:
                    c5:86:0d:86:3b:7c:a2:fa:8c:49:21:91:c5:73:da:
                    4f:de:2b:8b:f4:83:d6:fe:70:c1:b5:92:47:86:c3:
                    23:5d:cf:57:39:cc:f0:60:25:9c:1d:1a:1b:45:a4:
                    d8:f5:2b:48:24:e8:4a:81:8c:5f:07:a8:df:e3:e2:
                    7d:c2:25:ab:ee:bf:bd:94:74:67:9c:64:5c:ce:ec:
                    e5:92:09:d4:1f:62:00:72:81:09:51:06:ce:aa:09:
                    73:a2:ed:24:d3:c2:41:63:66:0d:af:ee:08:8d:c3:
                    ec:79:a5:4c:8e:03:0c:c9:87:c0:42:8a:54:89:21:
                    f2:a5:51:79:73:21:38:ba:33:0d:d1:59:a2:4e:da:
                    c2:df:12:6b:87:a0:75:60:91:8e:1c:51:01:26:b7:
                    91:44:d9:9b:8c:17:7e:9c:aa:81:c7:0f:2a:aa:60:
                    81:eb
                Exponent: 65537 (0x10001)
        X509v3 extensions:
            X509v3 Subject Key Identifier: 
                2F:98:67:67:BF:DA:3E:E8:0B:40:70:66:C5:B6:3B:23:73:22:20:B2
            X509v3 Authority Key Identifier: 
                2F:98:67:67:BF:DA:3E:E8:0B:40:70:66:C5:B6:3B:23:73:22:20:B2
            Authority Information Access: 
                CA Issuers - URI:http://url-for-aia/Root.cer
            X509v3 CRL Distribution Points: 
                Full Name:
                  URI:http://url-for-crl/Root.crl
            X509v3 Key Usage: critical
                Certificate Sign, CRL Sign
            X509v3 Basic Constraints: critical
                CA:TRUE
    Signature Algorithm: sha256WithRSAEncryption
    Signature Value:
        92:39:ef:20:6d:51:fe:0d:c5:94:97:43:92:0a:c1:89:04:6d:
        69:ef:24:47:b2:f3:59:5d:a5:0c:70:4a:33:a6:a6:e1:bf:86:
        bf:64:5c:33:bd:cb:f4:39:b2:2b:cb:bd:18:6d:b3:2f:08:ea:
        7a:d5:ed:e5:95:47:51:01:c4:ed:c9:7f:67:7a:17:37:e5:50:
        b3:4b:09:a2:5e:95:e3:d7:e8:50:79:d8:aa:57:42:f1:41:a5:
        69:2f:27:19:ae:d4:59:82:39:3e:72:17:4c:8f:17:5e:27:dc:
        3a:a3:32:ce:e8:a6:ab:bd:23:a5:3b:cf:28:51:1d:b7:b7:46:
        bc:64:a3:ec:d5:7d:3c:27:f5:a6:4b:f7:1f:13:4a:bb:47:b0:
        9a:5b:70:2b:10:70:96:43:5e:c3:a6:1c:ee:21:88:35:e1:7b:
        d5:a4:9c:91:f6:73:e5:1f:c8:10:c5:b6:01:68:5b:09:60:44:
        be:f5:21:ff:10:25:f6:a3:54:14:5d:80:28:96:fb:69:f4:b5:
        10:de:52:87:50:44:6b:9c:05:2e:70:a5:cf:69:64:50:8c:24:
        cc:99:80:06:cd:b7:ae:a0:58:ba:96:1d:52:78:97:89:ff:08:
        d8:e6:f0:6e:6a:e4:7c:5b:1f:f9:6f:b2:b4:6a:76:91:ce:a4:
        34:21:39:17
-----BEGIN CERTIFICATE-----
MIIDeDCCAmCgAwIBAgIUfV87oV6zOrCcMf2bVQzS666nmIcwDQYJKoZIhvcNAQEL
BQAwDzENMAsGA1UEAwwEUm9vdDAeFw0yMjEwMDUxMjAwMDBaFw0yMzEwMDUxMjAw
MDBaMA8xDTALBgNVBAMMBFJvb3QwggEiMA0GCSqGSIb3DQEBAQUAA4IBDwAwggEK
AoIBAQDOpbT1gGwJGy4rIILD6k22lDbP4x+gBG8kmzsSZH/rzRgXjBF2JsH/YguA
gObrfmPMx2G9mXDFKb579sNbA0oODhK4pDVX0SubyNNwBaieU4RmGiMz+/by18WG
DYY7fKL6jEkhkcVz2k/eK4v0g9b+cMG1kkeGwyNdz1c5zPBgJZwdGhtFpNj1K0gk
6EqBjF8HqN/j4n3CJavuv72UdGecZFzO7OWSCdQfYgBygQlRBs6qCXOi7STTwkFj
Zg2v7giNw+x5pUyOAwzJh8BCilSJIfKlUXlzITi6Mw3RWaJO2sLfEmuHoHVgkY4c
UQEmt5FE2ZuMF36cqoHHDyqqYIHrAgMBAAGjgcswgcgwHQYDVR0OBBYEFC+YZ2e/
2j7oC0BwZsW2OyNzIiCyMB8GA1UdIwQYMBaAFC+YZ2e/2j7oC0BwZsW2OyNzIiCy
MDcGCCsGAQUFBwEBBCswKTAnBggrBgEFBQcwAoYbaHR0cDovL3VybC1mb3ItYWlh
L1Jvb3QuY2VyMCwGA1UdHwQlMCMwIaAfoB2GG2h0dHA6Ly91cmwtZm9yLWNybC9S
b290LmNybDAOBgNVHQ8BAf8EBAMCAQYwDwYDVR0TAQH/BAUwAwEB/zANBgkqhkiG
9w0BAQsFAAOCAQEAkjnvIG1R/g3FlJdDkgrBiQRtae8kR7LzWV2lDHBKM6am4b+G
v2RcM73L9DmyK8u9GG2zLwjqetXt5ZVHUQHE7cl/Z3oXN+VQs0sJol6V49foUHnY
qldC8UGlaS8nGa7UWYI5PnIXTI8XXifcOqMyzuimq70jpTvPKFEdt7dGvGSj7NV9
PCf1pkv3HxNKu0ewmltwKxBwlkNew6Yc7iGINeF71aSckfZz5R/IEMW2AWhbCWBE
vvUh/xAl9qNUFF2AKJb7afS1EN5Sh1BEa5wFLnClz2lkUIwkzJmABs23rqBYupYd
UniXif8I2ObwbmrkfFsf+W+ytGp2kc6kNCE5Fw==
-----END CERTIFICATE-----
