Certificate:
    Data:
        Version: 3 (0x2)
        Serial Number:
            7d:5f:3b:a1:5e:b3:3a:b0:9c:31:fd:9b:55:0c:d2:eb:ae:a7:98:87
        Signature Algorithm: sha256WithRSAEncryption
        Issuer: CN=Root
        Validity
            Not Before: Oct  5 12:00:00 2021 GMT
            Not After : Oct  5 12:00:00 2022 GMT
        Subject: CN=Root
        Subject Public Key Info:
            Public Key Algorithm: rsaEncryption
                RSA Public-Key: (2048 bit)
                Modulus:
                    00:ce:a5:b4:f5:80:6c:09:1b:2e:2b:20:82:c3:ea:
                    4d:b6:94:36:cf:e3:1f:a0:04:6f:24:9b:3b:12:64:
                    7f:eb:cd:18:17:8c:11:76:26:c1:ff:62:0b:80:80:
                    e6:eb:7e:63:cc:c7:61:bd:99:70:c5:29:be:7b:f6:
                    c3:5b:03:4a:0e:0e:12:b8:a4:35:57:d1:2b:9b:c8:
                    d3:70:05:a8:9e:53:84:66:1a:23:33:fb:f6:f2:d7:
                    c5:86:0d:86:3b:7c:a2:fa:8c:49:21:91:c5:73:da:
                    4f:de:2b:8b:f4:83:d6:fe:70:c1:b5:92:47:86:c3:
                    23:5d:cf:57:39:cc:f0:60:25:9c:1d:1a:1b:45:a4:
                    d8:f5:2b:48:24:e8:4a:81:8c:5f:07:a8:df:e3:e2:
                    7d:c2:25:ab:ee:bf:bd:94:74:67:9c:64:5c:ce:ec:
                    e5:92:09:d4:1f:62:00:72:81:09:51:06:ce:aa:09:
                    73:a2:ed:24:d3:c2:41:63:66:0d:af:ee:08:8d:c3:
                    ec:79:a5:4c:8e:03:0c:c9:87:c0:42:8a:54:89:21:
                    f2:a5:51:79:73:21:38:ba:33:0d:d1:59:a2:4e:da:
                    c2:df:12:6b:87:a0:75:60:91:8e:1c:51:01:26:b7:
                    91:44:d9:9b:8c:17:7e:9c:aa:81:c7:0f:2a:aa:60:
                    81:eb
                Exponent: 65537 (0x10001)
        X509v3 extensions:
            X509v3 Subject Key Identifier: 
                2F:98:67:67:BF:DA:3E:E8:0B:40:70:66:C5:B6:3B:23:73:22:20:B2
            X509v3 Authority Key Identifier: 
                keyid:2F:98:67:67:BF:DA:3E:E8:0B:40:70:66:C5:B6:3B:23:73:22:20:B2

            Authority Information Access: 
                CA Issuers - URI:http://url-for-aia/Root.cer

            X509v3 CRL Distribution Points: 

                Full Name:
                  URI:http://url-for-crl/Root.crl

            X509v3 Key Usage: critical
                Certificate Sign, CRL Sign
            X509v3 Basic Constraints: critical
                CA:TRUE
    Signature Algorithm: sha256WithRSAEncryption
         a2:b5:29:63:12:5c:1b:96:3c:f0:44:47:b9:93:77:05:4d:bb:
         51:c6:cf:32:26:73:b4:1a:ab:c6:d5:6f:90:bf:d5:ca:bc:68:
         9e:30:f1:27:07:95:bc:93:45:8d:85:a3:8f:91:c1:85:2b:74:
         9a:dd:69:f5:af:e1:bf:c4:1a:b0:69:ae:dc:2b:b0:38:c5:4d:
         13:12:01:f1:c8:30:62:3b:b8:6d:1a:71:a0:b0:e5:c2:ff:ed:
         7a:c6:df:1f:04:01:b5:8b:7b:e4:02:88:4f:0a:65:68:d6:18:
         ed:52:dc:f9:c4:0a:0d:04:1f:ea:93:15:9d:03:66:9e:f9:09:
         4f:da:a7:a2:7e:2a:32:12:a6:20:f2:81:e1:c8:56:9d:aa:ff:
         10:c1:13:55:83:03:76:38:63:5d:47:99:a5:3b:71:59:19:52:
         ee:37:99:23:86:a7:20:26:a2:69:3a:68:e6:de:18:cd:dd:5e:
         75:47:72:c5:84:05:3d:81:35:ad:4a:9b:54:25:e0:53:df:ff:
         64:d1:ab:e7:7f:65:0d:d5:ba:b2:d6:97:60:e9:ac:47:9b:d5:
         fc:ec:c7:b9:09:bc:0e:e3:63:11:c2:ad:c9:16:e8:fe:d8:62:
         0e:d9:35:dc:a3:e3:8b:30:9f:82:a6:55:d2:12:4f:9f:43:13:
         c1:40:57:2a
-----BEGIN CERTIFICATE-----
MIIDeDCCAmCgAwIBAgIUfV87oV6zOrCcMf2bVQzS666nmIcwDQYJKoZIhvcNAQEL
BQAwDzENMAsGA1UEAwwEUm9vdDAeFw0yMTEwMDUxMjAwMDBaFw0yMjEwMDUxMjAw
MDBaMA8xDTALBgNVBAMMBFJvb3QwggEiMA0GCSqGSIb3DQEBAQUAA4IBDwAwggEK
AoIBAQDOpbT1gGwJGy4rIILD6k22lDbP4x+gBG8kmzsSZH/rzRgXjBF2JsH/YguA
gObrfmPMx2G9mXDFKb579sNbA0oODhK4pDVX0SubyNNwBaieU4RmGiMz+/by18WG
DYY7fKL6jEkhkcVz2k/eK4v0g9b+cMG1kkeGwyNdz1c5zPBgJZwdGhtFpNj1K0gk
6EqBjF8HqN/j4n3CJavuv72UdGecZFzO7OWSCdQfYgBygQlRBs6qCXOi7STTwkFj
Zg2v7giNw+x5pUyOAwzJh8BCilSJIfKlUXlzITi6Mw3RWaJO2sLfEmuHoHVgkY4c
UQEmt5FE2ZuMF36cqoHHDyqqYIHrAgMBAAGjgcswgcgwHQYDVR0OBBYEFC+YZ2e/
2j7oC0BwZsW2OyNzIiCyMB8GA1UdIwQYMBaAFC+YZ2e/2j7oC0BwZsW2OyNzIiCy
MDcGCCsGAQUFBwEBBCswKTAnBggrBgEFBQcwAoYbaHR0cDovL3VybC1mb3ItYWlh
L1Jvb3QuY2VyMCwGA1UdHwQlMCMwIaAfoB2GG2h0dHA6Ly91cmwtZm9yLWNybC9S
b290LmNybDAOBgNVHQ8BAf8EBAMCAQYwDwYDVR0TAQH/BAUwAwEB/zANBgkqhkiG
9w0BAQsFAAOCAQEAorUpYxJcG5Y88ERHuZN3BU27UcbPMiZztBqrxtVvkL/Vyrxo
njDxJweVvJNFjYWjj5HBhSt0mt1p9a/hv8QasGmu3CuwOMVNExIB8cgwYju4bRpx
oLDlwv/tesbfHwQBtYt75AKITwplaNYY7VLc+cQKDQQf6pMVnQNmnvkJT9qnon4q
MhKmIPKB4chWnar/EMETVYMDdjhjXUeZpTtxWRlS7jeZI4anICaiaTpo5t4Yzd1e
dUdyxYQFPYE1rUqbVCXgU9//ZNGr539lDdW6staXYOmsR5vV/OzHuQm8DuNjEcKt
yRbo/thiDtk13KPjizCfgqZV0hJPn0MTwUBXKg==
-----END CERTIFICATE-----
