Certificate:
    Data:
        Version: 3 (0x2)
        Serial Number:
            7d:5f:3b:a1:5e:b3:3a:b0:9c:31:fd:9b:55:0c:d2:eb:ae:a7:98:87
        Signature Algorithm: sha256WithRSAEncryption
        Issuer: CN=Root
        Validity
            Not Before: Nov  3 12:00:00 2020 GMT
            Not After : Nov  3 12:00:00 2021 GMT
        Subject: CN=Root
        Subject Public Key Info:
            Public Key Algorithm: rsaEncryption
                RSA Public-Key: (2048 bit)
                Modulus:
                    00:ce:a5:b4:f5:80:6c:09:1b:2e:2b:20:82:c3:ea:
                    4d:b6:94:36:cf:e3:1f:a0:04:6f:24:9b:3b:12:64:
                    7f:eb:cd:18:17:8c:11:76:26:c1:ff:62:0b:80:80:
                    e6:eb:7e:63:cc:c7:61:bd:99:70:c5:29:be:7b:f6:
                    c3:5b:03:4a:0e:0e:12:b8:a4:35:57:d1:2b:9b:c8:
                    d3:70:05:a8:9e:53:84:66:1a:23:33:fb:f6:f2:d7:
                    c5:86:0d:86:3b:7c:a2:fa:8c:49:21:91:c5:73:da:
                    4f:de:2b:8b:f4:83:d6:fe:70:c1:b5:92:47:86:c3:
                    23:5d:cf:57:39:cc:f0:60:25:9c:1d:1a:1b:45:a4:
                    d8:f5:2b:48:24:e8:4a:81:8c:5f:07:a8:df:e3:e2:
                    7d:c2:25:ab:ee:bf:bd:94:74:67:9c:64:5c:ce:ec:
                    e5:92:09:d4:1f:62:00:72:81:09:51:06:ce:aa:09:
                    73:a2:ed:24:d3:c2:41:63:66:0d:af:ee:08:8d:c3:
                    ec:79:a5:4c:8e:03:0c:c9:87:c0:42:8a:54:89:21:
                    f2:a5:51:79:73:21:38:ba:33:0d:d1:59:a2:4e:da:
                    c2:df:12:6b:87:a0:75:60:91:8e:1c:51:01:26:b7:
                    91:44:d9:9b:8c:17:7e:9c:aa:81:c7:0f:2a:aa:60:
                    81:eb
                Exponent: 65537 (0x10001)
        X509v3 extensions:
            X509v3 Subject Key Identifier: 
                2F:98:67:67:BF:DA:3E:E8:0B:40:70:66:C5:B6:3B:23:73:22:20:B2
            X509v3 Authority Key Identifier: 
                keyid:2F:98:67:67:BF:DA:3E:E8:0B:40:70:66:C5:B6:3B:23:73:22:20:B2

            Authority Information Access: 
                CA Issuers - URI:http://url-for-aia/Root.cer

            X509v3 CRL Distribution Points: 

                Full Name:
                  URI:http://url-for-crl/Root.crl

            X509v3 Key Usage: critical
                Certificate Sign, CRL Sign
            X509v3 Basic Constraints: critical
                CA:TRUE
    Signature Algorithm: sha256WithRSAEncryption
         28:2c:3a:d0:ac:c8:98:b1:98:e6:5f:d3:af:5a:12:3c:1b:92:
         42:1c:67:60:b5:89:68:ef:e5:cf:93:7f:30:e1:ee:d5:26:5d:
         9a:ac:58:0d:a6:a2:d4:e5:8f:e2:9d:b1:3a:c8:f3:7e:96:14:
         c6:66:5c:82:bf:4b:f4:d8:2c:28:77:00:07:6c:7d:05:6b:0f:
         32:6d:f6:56:e6:db:0e:00:28:a7:11:4c:dd:ec:e3:2b:53:be:
         94:1c:db:28:1a:4d:1e:9c:dc:c7:97:ad:c1:54:04:a6:41:c5:
         bd:69:70:01:a9:4e:ea:ef:b4:2a:25:49:62:90:71:75:4d:e4:
         8d:40:2b:ae:df:c6:c0:16:20:43:13:2e:01:5f:f9:e8:3c:76:
         34:8f:e5:97:b2:df:1e:63:12:75:6c:ee:12:6c:c7:28:ac:b1:
         9f:fb:55:c6:09:8f:21:5d:75:17:f3:c5:4b:be:0a:ea:e6:cf:
         96:5c:69:10:74:2d:b6:1b:3e:34:8f:67:51:e1:18:54:76:f3:
         78:a3:83:77:e6:77:93:ff:d9:81:92:74:3e:06:d9:42:c5:db:
         d9:e0:85:b8:bd:41:a6:44:ea:6a:b7:1a:21:f1:6a:95:c1:0f:
         71:06:58:36:15:56:59:e8:17:fe:cf:8f:ea:02:df:4a:b1:4c:
         30:47:62:b3
-----BEGIN CERTIFICATE-----
MIIDeDCCAmCgAwIBAgIUfV87oV6zOrCcMf2bVQzS666nmIcwDQYJKoZIhvcNAQEL
BQAwDzENMAsGA1UEAwwEUm9vdDAeFw0yMDExMDMxMjAwMDBaFw0yMTExMDMxMjAw
MDBaMA8xDTALBgNVBAMMBFJvb3QwggEiMA0GCSqGSIb3DQEBAQUAA4IBDwAwggEK
AoIBAQDOpbT1gGwJGy4rIILD6k22lDbP4x+gBG8kmzsSZH/rzRgXjBF2JsH/YguA
gObrfmPMx2G9mXDFKb579sNbA0oODhK4pDVX0SubyNNwBaieU4RmGiMz+/by18WG
DYY7fKL6jEkhkcVz2k/eK4v0g9b+cMG1kkeGwyNdz1c5zPBgJZwdGhtFpNj1K0gk
6EqBjF8HqN/j4n3CJavuv72UdGecZFzO7OWSCdQfYgBygQlRBs6qCXOi7STTwkFj
Zg2v7giNw+x5pUyOAwzJh8BCilSJIfKlUXlzITi6Mw3RWaJO2sLfEmuHoHVgkY4c
UQEmt5FE2ZuMF36cqoHHDyqqYIHrAgMBAAGjgcswgcgwHQYDVR0OBBYEFC+YZ2e/
2j7oC0BwZsW2OyNzIiCyMB8GA1UdIwQYMBaAFC+YZ2e/2j7oC0BwZsW2OyNzIiCy
MDcGCCsGAQUFBwEBBCswKTAnBggrBgEFBQcwAoYbaHR0cDovL3VybC1mb3ItYWlh
L1Jvb3QuY2VyMCwGA1UdHwQlMCMwIaAfoB2GG2h0dHA6Ly91cmwtZm9yLWNybC9S
b290LmNybDAOBgNVHQ8BAf8EBAMCAQYwDwYDVR0TAQH/BAUwAwEB/zANBgkqhkiG
9w0BAQsFAAOCAQEAKCw60KzImLGY5l/Tr1oSPBuSQhxnYLWJaO/lz5N/MOHu1SZd
mqxYDaai1OWP4p2xOsjzfpYUxmZcgr9L9NgsKHcAB2x9BWsPMm32VubbDgAopxFM
3ezjK1O+lBzbKBpNHpzcx5etwVQEpkHFvWlwAalO6u+0KiVJYpBxdU3kjUArrt/G
wBYgQxMuAV/56Dx2NI/ll7LfHmMSdWzuEmzHKKyxn/tVxgmPIV11F/PFS74K6ubP
llxpEHQtths+NI9nUeEYVHbzeKODd+Z3k//ZgZJ0PgbZQsXb2eCFuL1BpkTqarca
IfFqlcEPcQZYNhVWWegX/s+P6gLfSrFMMEdisw==
-----END CERTIFICATE-----
