Certificate:
    Data:
        Version: 3 (0x2)
        Serial Number:
            16:3d:d0:94:1e:a7:68:3f:73:f8:3a:7e:59:ba:3e:08:74:ec:9e:91
        Signature Algorithm: sha256WithRSAEncryption
        Issuer: CN=I
        Validity
            Not Before: Oct  5 12:00:00 2021 GMT
            Not After : Oct  5 12:00:00 2022 GMT
        Subject: CN=target
        Subject Public Key Info:
            Public Key Algorithm: rsaEncryption
                RSA Public-Key: (2048 bit)
                Modulus:
                    00:cc:22:08:58:c2:04:8a:dd:26:10:9e:92:10:2e:
                    9c:c1:6f:c5:08:52:71:95:53:38:b5:cb:d0:bf:46:
                    54:37:8b:dc:93:8c:f4:01:73:1c:5b:03:9d:e7:c0:
                    36:bd:af:33:d1:2a:97:b6:ac:24:8e:93:9d:d1:8e:
                    01:fd:96:2f:89:33:71:e6:18:e1:b5:04:fb:ac:ac:
                    05:d7:5f:04:b9:83:af:f2:d3:de:4d:ea:58:02:6a:
                    39:9c:f2:d7:8d:25:bd:b6:0e:eb:7c:71:1b:00:ab:
                    77:ef:38:75:57:77:b2:5b:ac:c2:5d:eb:3c:9e:0a:
                    43:2d:bc:8b:4b:f0:6e:83:b5:ef:9b:1d:35:22:25:
                    b0:37:11:69:9e:42:63:ad:0a:da:f2:a7:4c:76:f8:
                    30:0a:c7:82:57:43:aa:07:08:ed:a8:a0:2d:46:63:
                    6b:aa:91:c6:eb:d5:a4:ed:cd:27:48:4f:f4:f0:06:
                    5f:95:7c:26:cc:b2:bc:73:15:e4:34:9e:16:20:d2:
                    af:27:13:e1:0d:e2:88:9b:10:34:ae:e7:55:10:00:
                    00:6c:19:6f:78:52:ae:37:6d:e3:26:4a:69:59:40:
                    b2:d7:f1:2c:2b:46:2e:95:d4:0e:0b:e7:06:9b:32:
                    01:be:2f:da:12:f4:ac:15:ec:08:11:0d:4a:4e:1c:
                    3c:b5
                Exponent: 65537 (0x10001)
        X509v3 extensions:
            X509v3 Subject Key Identifier: 
                55:00:E2:BF:82:AB:DE:38:48:85:52:B3:20:D5:26:55:69:0E:47:33
            X509v3 Authority Key Identifier: 
                keyid:0F:21:17:94:40:B1:A6:7C:59:FA:1C:C5:38:CF:62:E8:84:8B:1C:2C

            Authority Information Access: 
                CA Issuers - URI:file:///dev/null

            X509v3 CRL Distribution Points: 

                Full Name:
                  URI:http://url-for-crl/I.crl

            X509v3 Key Usage: critical
                Digital Signature, Key Encipherment
            X509v3 Extended Key Usage: 
                TLS Web Server Authentication, TLS Web Client Authentication
            X509v3 Subject Alternative Name: 
                DNS:target
    Signature Algorithm: sha256WithRSAEncryption
         37:c7:94:7f:18:75:e2:b0:75:de:9c:73:6e:7b:9e:1b:bb:75:
         d5:8b:31:43:56:b9:ba:d9:e3:8f:5d:51:41:3a:fd:b4:47:b2:
         32:4e:ad:cf:33:c9:05:c1:55:43:a2:04:74:26:79:65:30:f3:
         a0:3e:08:f3:85:33:cf:48:be:6b:06:df:61:eb:30:4d:1c:ea:
         e8:fe:79:14:15:37:8d:84:df:4e:c2:05:c8:12:cd:3f:8c:3f:
         d2:3d:73:5b:66:eb:e6:35:c8:a9:4e:53:57:d1:51:30:f7:17:
         51:0c:41:69:1e:98:33:80:d9:3b:0a:4a:fe:93:4e:76:c6:cd:
         5d:37:f5:9a:ac:67:60:75:d2:7d:3f:c5:3e:15:1b:42:88:7e:
         85:0e:5b:e7:df:cb:03:fe:55:04:2f:4e:96:91:f0:b2:ad:2d:
         28:91:5b:38:f1:77:16:39:d3:58:82:0c:07:19:24:09:ec:d9:
         48:b0:b0:eb:03:a2:c9:31:8f:e6:e0:b2:92:c9:16:8d:ca:83:
         09:99:f3:0e:88:49:b9:41:cd:aa:b7:56:4d:0e:13:bf:af:78:
         e7:27:df:90:68:87:ff:f0:34:bc:cc:08:71:d2:1a:d6:f8:14:
         ae:af:83:ae:76:19:96:7f:5e:1f:c5:90:a5:f6:b1:fe:19:fc:
         2b:f2:02:c7
-----BEGIN CERTIFICATE-----
MIIDijCCAnKgAwIBAgIUFj3QlB6naD9z+Dp+Wbo+CHTsnpEwDQYJKoZIhvcNAQEL
BQAwDDEKMAgGA1UEAwwBSTAeFw0yMTEwMDUxMjAwMDBaFw0yMjEwMDUxMjAwMDBa
MBExDzANBgNVBAMMBnRhcmdldDCCASIwDQYJKoZIhvcNAQEBBQADggEPADCCAQoC
ggEBAMwiCFjCBIrdJhCekhAunMFvxQhScZVTOLXL0L9GVDeL3JOM9AFzHFsDnefA
Nr2vM9Eql7asJI6TndGOAf2WL4kzceYY4bUE+6ysBddfBLmDr/LT3k3qWAJqOZzy
140lvbYO63xxGwCrd+84dVd3sluswl3rPJ4KQy28i0vwboO175sdNSIlsDcRaZ5C
Y60K2vKnTHb4MArHgldDqgcI7aigLUZja6qRxuvVpO3NJ0hP9PAGX5V8JsyyvHMV
5DSeFiDSrycT4Q3iiJsQNK7nVRAAAGwZb3hSrjdt4yZKaVlAstfxLCtGLpXUDgvn
BpsyAb4v2hL0rBXsCBENSk4cPLUCAwEAAaOB3jCB2zAdBgNVHQ4EFgQUVQDiv4Kr
3jhIhVKzINUmVWkORzMwHwYDVR0jBBgwFoAUDyEXlECxpnxZ+hzFOM9i6ISLHCww
LAYIKwYBBQUHAQEEIDAeMBwGCCsGAQUFBzAChhBmaWxlOi8vL2Rldi9udWxsMCkG
A1UdHwQiMCAwHqAcoBqGGGh0dHA6Ly91cmwtZm9yLWNybC9JLmNybDAOBgNVHQ8B
Af8EBAMCBaAwHQYDVR0lBBYwFAYIKwYBBQUHAwEGCCsGAQUFBwMCMBEGA1UdEQQK
MAiCBnRhcmdldDANBgkqhkiG9w0BAQsFAAOCAQEAN8eUfxh14rB13pxzbnueG7t1
1YsxQ1a5utnjj11RQTr9tEeyMk6tzzPJBcFVQ6IEdCZ5ZTDzoD4I84Uzz0i+awbf
YeswTRzq6P55FBU3jYTfTsIFyBLNP4w/0j1zW2br5jXIqU5TV9FRMPcXUQxBaR6Y
M4DZOwpK/pNOdsbNXTf1mqxnYHXSfT/FPhUbQoh+hQ5b59/LA/5VBC9OlpHwsq0t
KJFbOPF3FjnTWIIMBxkkCezZSLCw6wOiyTGP5uCykskWjcqDCZnzDohJuUHNqrdW
TQ4Tv6945yffkGiH//A0vMwIcdIa1vgUrq+DrnYZln9eH8WQpfax/hn8K/ICxw==
-----END CERTIFICATE-----
