Certificate:
    Data:
        Version: 3 (0x2)
        Serial Number:
            16:3d:d0:94:1e:a7:68:3f:73:f8:3a:7e:59:ba:3e:08:74:ec:9e:93
        Signature Algorithm: sha256WithRSAEncryption
        Issuer: CN=I
        Validity
            Not Before: Oct  5 12:00:00 2022 GMT
            Not After : Oct  5 12:00:00 2023 GMT
        Subject: CN=target
        Subject Public Key Info:
            Public Key Algorithm: rsaEncryption
                Public-Key: (2048 bit)
                Modulus:
                    00:cc:22:08:58:c2:04:8a:dd:26:10:9e:92:10:2e:
                    9c:c1:6f:c5:08:52:71:95:53:38:b5:cb:d0:bf:46:
                    54:37:8b:dc:93:8c:f4:01:73:1c:5b:03:9d:e7:c0:
                    36:bd:af:33:d1:2a:97:b6:ac:24:8e:93:9d:d1:8e:
                    01:fd:96:2f:89:33:71:e6:18:e1:b5:04:fb:ac:ac:
                    05:d7:5f:04:b9:83:af:f2:d3:de:4d:ea:58:02:6a:
                    39:9c:f2:d7:8d:25:bd:b6:0e:eb:7c:71:1b:00:ab:
                    77:ef:38:75:57:77:b2:5b:ac:c2:5d:eb:3c:9e:0a:
                    43:2d:bc:8b:4b:f0:6e:83:b5:ef:9b:1d:35:22:25:
                    b0:37:11:69:9e:42:63:ad:0a:da:f2:a7:4c:76:f8:
                    30:0a:c7:82:57:43:aa:07:08:ed:a8:a0:2d:46:63:
                    6b:aa:91:c6:eb:d5:a4:ed:cd:27:48:4f:f4:f0:06:
                    5f:95:7c:26:cc:b2:bc:73:15:e4:34:9e:16:20:d2:
                    af:27:13:e1:0d:e2:88:9b:10:34:ae:e7:55:10:00:
                    00:6c:19:6f:78:52:ae:37:6d:e3:26:4a:69:59:40:
                    b2:d7:f1:2c:2b:46:2e:95:d4:0e:0b:e7:06:9b:32:
                    01:be:2f:da:12:f4:ac:15:ec:08:11:0d:4a:4e:1c:
                    3c:b5
                Exponent: 65537 (0x10001)
        X509v3 extensions:
            X509v3 Subject Key Identifier: 
                55:00:E2:BF:82:AB:DE:38:48:85:52:B3:20:D5:26:55:69:0E:47:33
            X509v3 Authority Key Identifier: 
                0F:21:17:94:40:B1:A6:7C:59:FA:1C:C5:38:CF:62:E8:84:8B:1C:2C
            Authority Information Access: 
                CA Issuers - URI:file:///dev/null
                CA Issuers - URI:http://url-for-aia2/I2.foo
            X509v3 CRL Distribution Points: 
                Full Name:
                  URI:http://url-for-crl/I.crl
            X509v3 Key Usage: critical
                Digital Signature, Key Encipherment
            X509v3 Extended Key Usage: 
                TLS Web Server Authentication, TLS Web Client Authentication
            X509v3 Subject Alternative Name: 
                DNS:target
    Signature Algorithm: sha256WithRSAEncryption
    Signature Value:
        53:cb:54:9a:42:18:3b:89:d6:be:ec:28:72:eb:6d:9c:98:1b:
        93:75:c1:9a:d9:01:f4:6a:aa:e0:b6:d4:d7:00:31:5c:70:db:
        18:28:64:55:75:d6:75:f3:1b:46:75:71:71:ef:64:fc:dc:1c:
        50:42:10:12:6c:f9:c8:fa:3f:97:11:06:f1:88:a9:fe:be:13:
        05:e1:16:02:22:cf:d1:e3:d4:da:a4:f4:7e:b5:be:ef:35:ba:
        e8:d4:f6:e3:f8:d0:69:3f:eb:73:db:74:22:21:33:cf:55:60:
        78:34:13:82:4b:71:ac:4a:48:ce:b1:07:49:dd:91:a1:e6:ce:
        f9:6e:45:34:8c:6c:80:57:80:23:f3:f3:8f:ce:a5:fa:ed:e2:
        04:86:5b:bd:0c:2c:a2:5b:4f:1f:c7:b3:77:9a:68:ec:a5:85:
        8c:e1:00:bd:f7:a7:3a:f1:6d:df:14:79:2e:89:88:03:b8:4f:
        7c:f6:d9:90:04:22:0b:93:83:50:cc:ac:dc:35:ac:b1:52:d6:
        e8:69:e3:a1:ab:bc:98:86:01:55:66:43:a4:be:ba:65:da:32:
        86:05:cf:2c:e2:a9:11:bf:cd:7c:b5:d1:08:ab:17:ca:2b:54:
        1d:b3:0a:35:94:ba:71:d6:99:51:51:87:16:83:fc:06:ce:b1:
        66:b0:1e:41
-----BEGIN CERTIFICATE-----
MIIDtDCCApygAwIBAgIUFj3QlB6naD9z+Dp+Wbo+CHTsnpMwDQYJKoZIhvcNAQEL
BQAwDDEKMAgGA1UEAwwBSTAeFw0yMjEwMDUxMjAwMDBaFw0yMzEwMDUxMjAwMDBa
MBExDzANBgNVBAMMBnRhcmdldDCCASIwDQYJKoZIhvcNAQEBBQADggEPADCCAQoC
ggEBAMwiCFjCBIrdJhCekhAunMFvxQhScZVTOLXL0L9GVDeL3JOM9AFzHFsDnefA
Nr2vM9Eql7asJI6TndGOAf2WL4kzceYY4bUE+6ysBddfBLmDr/LT3k3qWAJqOZzy
140lvbYO63xxGwCrd+84dVd3sluswl3rPJ4KQy28i0vwboO175sdNSIlsDcRaZ5C
Y60K2vKnTHb4MArHgldDqgcI7aigLUZja6qRxuvVpO3NJ0hP9PAGX5V8JsyyvHMV
5DSeFiDSrycT4Q3iiJsQNK7nVRAAAGwZb3hSrjdt4yZKaVlAstfxLCtGLpXUDgvn
BpsyAb4v2hL0rBXsCBENSk4cPLUCAwEAAaOCAQcwggEDMB0GA1UdDgQWBBRVAOK/
gqveOEiFUrMg1SZVaQ5HMzAfBgNVHSMEGDAWgBQPIReUQLGmfFn6HMU4z2LohIsc
LDBUBggrBgEFBQcBAQRIMEYwHAYIKwYBBQUHMAKGEGZpbGU6Ly8vZGV2L251bGww
JgYIKwYBBQUHMAKGGmh0dHA6Ly91cmwtZm9yLWFpYTIvSTIuZm9vMCkGA1UdHwQi
MCAwHqAcoBqGGGh0dHA6Ly91cmwtZm9yLWNybC9JLmNybDAOBgNVHQ8BAf8EBAMC
BaAwHQYDVR0lBBYwFAYIKwYBBQUHAwEGCCsGAQUFBwMCMBEGA1UdEQQKMAiCBnRh
cmdldDANBgkqhkiG9w0BAQsFAAOCAQEAU8tUmkIYO4nWvuwocuttnJgbk3XBmtkB
9Gqq4LbU1wAxXHDbGChkVXXWdfMbRnVxce9k/NwcUEIQEmz5yPo/lxEG8Yip/r4T
BeEWAiLP0ePU2qT0frW+7zW66NT24/jQaT/rc9t0IiEzz1VgeDQTgktxrEpIzrEH
Sd2RoebO+W5FNIxsgFeAI/Pzj86l+u3iBIZbvQwsoltPH8ezd5po7KWFjOEAvfen
OvFt3xR5LomIA7hPfPbZkAQiC5ODUMys3DWssVLW6Gnjoau8mIYBVWZDpL66Zdoy
hgXPLOKpEb/NfLXRCKsXyitUHbMKNZS6cdaZUVGHFoP8Bs6xZrAeQQ==
-----END CERTIFICATE-----
