Certificate:
    Data:
        Version: 3 (0x2)
        Serial Number:
            16:3d:d0:94:1e:a7:68:3f:73:f8:3a:7e:59:ba:3e:08:74:ec:9e:8f
        Signature Algorithm: sha256WithRSAEncryption
        Issuer: CN=I
        Validity
            Not Before: Oct  5 12:00:00 2021 GMT
            Not After : Oct  5 12:00:00 2022 GMT
        Subject: CN=target
        Subject Public Key Info:
            Public Key Algorithm: rsaEncryption
                RSA Public-Key: (2048 bit)
                Modulus:
                    00:cc:22:08:58:c2:04:8a:dd:26:10:9e:92:10:2e:
                    9c:c1:6f:c5:08:52:71:95:53:38:b5:cb:d0:bf:46:
                    54:37:8b:dc:93:8c:f4:01:73:1c:5b:03:9d:e7:c0:
                    36:bd:af:33:d1:2a:97:b6:ac:24:8e:93:9d:d1:8e:
                    01:fd:96:2f:89:33:71:e6:18:e1:b5:04:fb:ac:ac:
                    05:d7:5f:04:b9:83:af:f2:d3:de:4d:ea:58:02:6a:
                    39:9c:f2:d7:8d:25:bd:b6:0e:eb:7c:71:1b:00:ab:
                    77:ef:38:75:57:77:b2:5b:ac:c2:5d:eb:3c:9e:0a:
                    43:2d:bc:8b:4b:f0:6e:83:b5:ef:9b:1d:35:22:25:
                    b0:37:11:69:9e:42:63:ad:0a:da:f2:a7:4c:76:f8:
                    30:0a:c7:82:57:43:aa:07:08:ed:a8:a0:2d:46:63:
                    6b:aa:91:c6:eb:d5:a4:ed:cd:27:48:4f:f4:f0:06:
                    5f:95:7c:26:cc:b2:bc:73:15:e4:34:9e:16:20:d2:
                    af:27:13:e1:0d:e2:88:9b:10:34:ae:e7:55:10:00:
                    00:6c:19:6f:78:52:ae:37:6d:e3:26:4a:69:59:40:
                    b2:d7:f1:2c:2b:46:2e:95:d4:0e:0b:e7:06:9b:32:
                    01:be:2f:da:12:f4:ac:15:ec:08:11:0d:4a:4e:1c:
                    3c:b5
                Exponent: 65537 (0x10001)
        X509v3 extensions:
            X509v3 Subject Key Identifier: 
                55:00:E2:BF:82:AB:DE:38:48:85:52:B3:20:D5:26:55:69:0E:47:33
            X509v3 Authority Key Identifier: 
                keyid:0F:21:17:94:40:B1:A6:7C:59:FA:1C:C5:38:CF:62:E8:84:8B:1C:2C

            Authority Information Access: 
                CA Issuers - URI:http://url-for-aia/I.cer
                CA Issuers - URI:http://url-for-aia2/I2.foo
                CA Issuers - URI:http://url-for-aia3/I3.foo

            X509v3 CRL Distribution Points: 

                Full Name:
                  URI:http://url-for-crl/I.crl

            X509v3 Key Usage: critical
                Digital Signature, Key Encipherment
            X509v3 Extended Key Usage: 
                TLS Web Server Authentication, TLS Web Client Authentication
            X509v3 Subject Alternative Name: 
                DNS:target
    Signature Algorithm: sha256WithRSAEncryption
         52:f8:b8:91:f4:b9:d5:2b:92:d6:12:c8:46:66:e7:a2:1b:16:
         17:c3:c9:9e:b7:8c:23:3f:eb:21:7a:8c:18:a0:ce:c3:06:6c:
         d3:5b:9f:24:2d:bf:fa:4a:23:87:87:6e:4b:a3:b6:b1:d3:7c:
         29:c4:f7:c4:d2:d6:86:ae:f0:4a:0e:1c:79:9b:be:d0:d0:52:
         f2:26:b7:3a:27:e3:2c:d7:3d:2d:bb:a1:02:e5:53:54:e0:79:
         bb:ed:80:66:ea:07:45:29:c9:b2:3c:08:f1:d2:15:92:97:cd:
         59:2a:eb:84:92:07:ae:5c:bd:11:db:2f:2d:2e:a8:21:fe:1f:
         0a:be:03:56:57:94:17:76:a9:df:74:9a:65:02:76:31:96:3d:
         1a:84:df:37:36:5d:b6:e7:75:15:1f:4c:25:fc:d8:97:92:79:
         84:0d:f0:a0:f5:29:b4:b4:08:f9:f5:ca:ed:6b:51:c7:b5:79:
         52:3a:e3:fe:df:44:e2:54:35:35:fd:8f:11:b0:77:64:c1:20:
         13:0b:2e:a2:89:b7:24:12:d0:32:cc:51:70:97:31:db:1d:6c:
         63:df:95:93:94:7a:14:c6:2b:f7:8d:2b:36:04:7f:fb:9f:a4:
         c8:02:7d:b4:52:4b:f4:b4:3e:80:d4:7a:12:53:d3:9e:d6:97:
         69:af:92:67
-----BEGIN CERTIFICATE-----
MIID5TCCAs2gAwIBAgIUFj3QlB6naD9z+Dp+Wbo+CHTsno8wDQYJKoZIhvcNAQEL
BQAwDDEKMAgGA1UEAwwBSTAeFw0yMTEwMDUxMjAwMDBaFw0yMjEwMDUxMjAwMDBa
MBExDzANBgNVBAMMBnRhcmdldDCCASIwDQYJKoZIhvcNAQEBBQADggEPADCCAQoC
ggEBAMwiCFjCBIrdJhCekhAunMFvxQhScZVTOLXL0L9GVDeL3JOM9AFzHFsDnefA
Nr2vM9Eql7asJI6TndGOAf2WL4kzceYY4bUE+6ysBddfBLmDr/LT3k3qWAJqOZzy
140lvbYO63xxGwCrd+84dVd3sluswl3rPJ4KQy28i0vwboO175sdNSIlsDcRaZ5C
Y60K2vKnTHb4MArHgldDqgcI7aigLUZja6qRxuvVpO3NJ0hP9PAGX5V8JsyyvHMV
5DSeFiDSrycT4Q3iiJsQNK7nVRAAAGwZb3hSrjdt4yZKaVlAstfxLCtGLpXUDgvn
BpsyAb4v2hL0rBXsCBENSk4cPLUCAwEAAaOCATgwggE0MB0GA1UdDgQWBBRVAOK/
gqveOEiFUrMg1SZVaQ5HMzAfBgNVHSMEGDAWgBQPIReUQLGmfFn6HMU4z2LohIsc
LDCBhAYIKwYBBQUHAQEEeDB2MCQGCCsGAQUFBzAChhhodHRwOi8vdXJsLWZvci1h
aWEvSS5jZXIwJgYIKwYBBQUHMAKGGmh0dHA6Ly91cmwtZm9yLWFpYTIvSTIuZm9v
MCYGCCsGAQUFBzAChhpodHRwOi8vdXJsLWZvci1haWEzL0kzLmZvbzApBgNVHR8E
IjAgMB6gHKAahhhodHRwOi8vdXJsLWZvci1jcmwvSS5jcmwwDgYDVR0PAQH/BAQD
AgWgMB0GA1UdJQQWMBQGCCsGAQUFBwMBBggrBgEFBQcDAjARBgNVHREECjAIggZ0
YXJnZXQwDQYJKoZIhvcNAQELBQADggEBAFL4uJH0udUrktYSyEZm56IbFhfDyZ63
jCM/6yF6jBigzsMGbNNbnyQtv/pKI4eHbkujtrHTfCnE98TS1oau8EoOHHmbvtDQ
UvImtzon4yzXPS27oQLlU1TgebvtgGbqB0UpybI8CPHSFZKXzVkq64SSB65cvRHb
Ly0uqCH+Hwq+A1ZXlBd2qd90mmUCdjGWPRqE3zc2XbbndRUfTCX82JeSeYQN8KD1
KbS0CPn1yu1rUce1eVI64/7fROJUNTX9jxGwd2TBIBMLLqKJtyQS0DLMUXCXMdsd
bGPflZOUehTGK/eNKzYEf/ufpMgCfbRSS/S0PoDUehJT057Wl2mvkmc=
-----END CERTIFICATE-----
