Certificate:
    Data:
        Version: 3 (0x2)
        Serial Number:
            16:3d:d0:94:1e:a7:68:3f:73:f8:3a:7e:59:ba:3e:08:74:ec:9e:8e
        Signature Algorithm: sha256WithRSAEncryption
        Issuer: CN=I
        Validity
            Not Before: Nov  3 12:00:00 2020 GMT
            Not After : Nov  3 12:00:00 2021 GMT
        Subject: CN=target
        Subject Public Key Info:
            Public Key Algorithm: rsaEncryption
                RSA Public-Key: (2048 bit)
                Modulus:
                    00:cc:22:08:58:c2:04:8a:dd:26:10:9e:92:10:2e:
                    9c:c1:6f:c5:08:52:71:95:53:38:b5:cb:d0:bf:46:
                    54:37:8b:dc:93:8c:f4:01:73:1c:5b:03:9d:e7:c0:
                    36:bd:af:33:d1:2a:97:b6:ac:24:8e:93:9d:d1:8e:
                    01:fd:96:2f:89:33:71:e6:18:e1:b5:04:fb:ac:ac:
                    05:d7:5f:04:b9:83:af:f2:d3:de:4d:ea:58:02:6a:
                    39:9c:f2:d7:8d:25:bd:b6:0e:eb:7c:71:1b:00:ab:
                    77:ef:38:75:57:77:b2:5b:ac:c2:5d:eb:3c:9e:0a:
                    43:2d:bc:8b:4b:f0:6e:83:b5:ef:9b:1d:35:22:25:
                    b0:37:11:69:9e:42:63:ad:0a:da:f2:a7:4c:76:f8:
                    30:0a:c7:82:57:43:aa:07:08:ed:a8:a0:2d:46:63:
                    6b:aa:91:c6:eb:d5:a4:ed:cd:27:48:4f:f4:f0:06:
                    5f:95:7c:26:cc:b2:bc:73:15:e4:34:9e:16:20:d2:
                    af:27:13:e1:0d:e2:88:9b:10:34:ae:e7:55:10:00:
                    00:6c:19:6f:78:52:ae:37:6d:e3:26:4a:69:59:40:
                    b2:d7:f1:2c:2b:46:2e:95:d4:0e:0b:e7:06:9b:32:
                    01:be:2f:da:12:f4:ac:15:ec:08:11:0d:4a:4e:1c:
                    3c:b5
                Exponent: 65537 (0x10001)
        X509v3 extensions:
            X509v3 Subject Key Identifier: 
                55:00:E2:BF:82:AB:DE:38:48:85:52:B3:20:D5:26:55:69:0E:47:33
            X509v3 Authority Key Identifier: 
                keyid:0F:21:17:94:40:B1:A6:7C:59:FA:1C:C5:38:CF:62:E8:84:8B:1C:2C

            Authority Information Access: 
                CA Issuers - URI:http://url-for-aia/I.cer
                CA Issuers - URI:http://url-for-aia2/I2.foo

            X509v3 CRL Distribution Points: 

                Full Name:
                  URI:http://url-for-crl/I.crl

            X509v3 Key Usage: critical
                Digital Signature, Key Encipherment
            X509v3 Extended Key Usage: 
                TLS Web Server Authentication, TLS Web Client Authentication
            X509v3 Subject Alternative Name: 
                DNS:target
    Signature Algorithm: sha256WithRSAEncryption
         0d:a4:b0:bb:9a:f1:52:62:38:01:bf:a8:2f:7b:57:3e:9b:09:
         89:b0:0e:2b:86:8f:95:5b:4d:32:05:24:28:5c:3a:04:4b:d1:
         bb:fb:4a:7f:fe:b9:19:47:c9:47:8c:51:e1:7e:28:72:27:4c:
         d4:1d:3c:29:69:22:51:ae:d4:52:15:d6:f4:a8:e5:15:e9:0e:
         c2:12:3a:eb:ef:70:9b:ed:7c:b4:44:15:db:d2:2f:36:7d:78:
         2e:ec:01:c1:90:29:1e:15:65:5c:ad:4b:b9:4c:33:7a:09:81:
         1f:6e:b4:8d:20:65:12:8c:aa:60:ae:c6:a1:4f:97:93:61:ab:
         d1:e9:ab:04:5b:27:37:fe:b6:45:f2:c4:85:1a:e1:cd:41:08:
         7c:7f:49:35:37:0e:2d:ae:8e:e0:3d:77:b6:56:29:3b:f2:84:
         9b:1f:a5:ca:d3:48:14:6e:1c:54:bd:9f:87:55:49:fd:19:46:
         c2:e5:51:75:7a:db:ff:b9:50:93:a4:fd:11:e7:dc:55:32:35:
         d5:0f:32:54:fe:8f:ad:f0:79:67:01:c2:d2:c7:be:dd:f3:7a:
         f7:7e:b5:06:a0:32:16:a9:dc:0b:17:12:8b:fb:3d:03:1b:ae:
         55:c7:6f:15:e0:d3:4a:54:da:d4:ca:b0:03:34:ea:18:47:5c:
         0a:e0:78:c0
-----BEGIN CERTIFICATE-----
MIIDvDCCAqSgAwIBAgIUFj3QlB6naD9z+Dp+Wbo+CHTsno4wDQYJKoZIhvcNAQEL
BQAwDDEKMAgGA1UEAwwBSTAeFw0yMDExMDMxMjAwMDBaFw0yMTExMDMxMjAwMDBa
MBExDzANBgNVBAMMBnRhcmdldDCCASIwDQYJKoZIhvcNAQEBBQADggEPADCCAQoC
ggEBAMwiCFjCBIrdJhCekhAunMFvxQhScZVTOLXL0L9GVDeL3JOM9AFzHFsDnefA
Nr2vM9Eql7asJI6TndGOAf2WL4kzceYY4bUE+6ysBddfBLmDr/LT3k3qWAJqOZzy
140lvbYO63xxGwCrd+84dVd3sluswl3rPJ4KQy28i0vwboO175sdNSIlsDcRaZ5C
Y60K2vKnTHb4MArHgldDqgcI7aigLUZja6qRxuvVpO3NJ0hP9PAGX5V8JsyyvHMV
5DSeFiDSrycT4Q3iiJsQNK7nVRAAAGwZb3hSrjdt4yZKaVlAstfxLCtGLpXUDgvn
BpsyAb4v2hL0rBXsCBENSk4cPLUCAwEAAaOCAQ8wggELMB0GA1UdDgQWBBRVAOK/
gqveOEiFUrMg1SZVaQ5HMzAfBgNVHSMEGDAWgBQPIReUQLGmfFn6HMU4z2LohIsc
LDBcBggrBgEFBQcBAQRQME4wJAYIKwYBBQUHMAKGGGh0dHA6Ly91cmwtZm9yLWFp
YS9JLmNlcjAmBggrBgEFBQcwAoYaaHR0cDovL3VybC1mb3ItYWlhMi9JMi5mb28w
KQYDVR0fBCIwIDAeoBygGoYYaHR0cDovL3VybC1mb3ItY3JsL0kuY3JsMA4GA1Ud
DwEB/wQEAwIFoDAdBgNVHSUEFjAUBggrBgEFBQcDAQYIKwYBBQUHAwIwEQYDVR0R
BAowCIIGdGFyZ2V0MA0GCSqGSIb3DQEBCwUAA4IBAQANpLC7mvFSYjgBv6gve1c+
mwmJsA4rho+VW00yBSQoXDoES9G7+0p//rkZR8lHjFHhfihyJ0zUHTwpaSJRrtRS
Fdb0qOUV6Q7CEjrr73Cb7Xy0RBXb0i82fXgu7AHBkCkeFWVcrUu5TDN6CYEfbrSN
IGUSjKpgrsahT5eTYavR6asEWyc3/rZF8sSFGuHNQQh8f0k1Nw4tro7gPXe2Vik7
8oSbH6XK00gUbhxUvZ+HVUn9GUbC5VF1etv/uVCTpP0R59xVMjXVDzJU/o+t8Hln
AcLSx77d83r3frUGoDIWqdwLFxKL+z0DG65Vx28V4NNKVNrUyrADNOoYR1wK4HjA
-----END CERTIFICATE-----
