Certificate:
    Data:
        Version: 3 (0x2)
        Serial Number:
            16:3d:d0:94:1e:a7:68:3f:73:f8:3a:7e:59:ba:3e:08:74:ec:9e:93
        Signature Algorithm: sha256WithRSAEncryption
        Issuer: CN=I
        Validity
            Not Before: Nov  3 12:00:00 2020 GMT
            Not After : Nov  3 12:00:00 2021 GMT
        Subject: CN=target
        Subject Public Key Info:
            Public Key Algorithm: rsaEncryption
                RSA Public-Key: (2048 bit)
                Modulus:
                    00:cc:22:08:58:c2:04:8a:dd:26:10:9e:92:10:2e:
                    9c:c1:6f:c5:08:52:71:95:53:38:b5:cb:d0:bf:46:
                    54:37:8b:dc:93:8c:f4:01:73:1c:5b:03:9d:e7:c0:
                    36:bd:af:33:d1:2a:97:b6:ac:24:8e:93:9d:d1:8e:
                    01:fd:96:2f:89:33:71:e6:18:e1:b5:04:fb:ac:ac:
                    05:d7:5f:04:b9:83:af:f2:d3:de:4d:ea:58:02:6a:
                    39:9c:f2:d7:8d:25:bd:b6:0e:eb:7c:71:1b:00:ab:
                    77:ef:38:75:57:77:b2:5b:ac:c2:5d:eb:3c:9e:0a:
                    43:2d:bc:8b:4b:f0:6e:83:b5:ef:9b:1d:35:22:25:
                    b0:37:11:69:9e:42:63:ad:0a:da:f2:a7:4c:76:f8:
                    30:0a:c7:82:57:43:aa:07:08:ed:a8:a0:2d:46:63:
                    6b:aa:91:c6:eb:d5:a4:ed:cd:27:48:4f:f4:f0:06:
                    5f:95:7c:26:cc:b2:bc:73:15:e4:34:9e:16:20:d2:
                    af:27:13:e1:0d:e2:88:9b:10:34:ae:e7:55:10:00:
                    00:6c:19:6f:78:52:ae:37:6d:e3:26:4a:69:59:40:
                    b2:d7:f1:2c:2b:46:2e:95:d4:0e:0b:e7:06:9b:32:
                    01:be:2f:da:12:f4:ac:15:ec:08:11:0d:4a:4e:1c:
                    3c:b5
                Exponent: 65537 (0x10001)
        X509v3 extensions:
            X509v3 Subject Key Identifier: 
                55:00:E2:BF:82:AB:DE:38:48:85:52:B3:20:D5:26:55:69:0E:47:33
            X509v3 Authority Key Identifier: 
                keyid:0F:21:17:94:40:B1:A6:7C:59:FA:1C:C5:38:CF:62:E8:84:8B:1C:2C

            Authority Information Access: 
                CA Issuers - URI:file:///dev/null
                CA Issuers - URI:http://url-for-aia2/I2.foo

            X509v3 CRL Distribution Points: 

                Full Name:
                  URI:http://url-for-crl/I.crl

            X509v3 Key Usage: critical
                Digital Signature, Key Encipherment
            X509v3 Extended Key Usage: 
                TLS Web Server Authentication, TLS Web Client Authentication
            X509v3 Subject Alternative Name: 
                DNS:target
    Signature Algorithm: sha256WithRSAEncryption
         7b:90:8c:0f:3c:0b:ea:a9:3e:e3:ae:25:d7:23:b7:79:80:b7:
         47:75:6f:fa:25:9c:5b:44:55:e9:46:4f:a2:8c:06:fd:d2:e1:
         19:47:59:b3:6d:4e:c3:8d:a0:7a:f1:31:a6:c8:9e:6d:d3:d1:
         95:6f:c7:c6:88:81:e2:bc:f3:b5:41:0c:08:33:6f:26:4d:8a:
         3c:3d:61:a0:6f:c2:7c:b6:3a:3b:b7:91:ad:40:0e:28:bf:d1:
         69:cc:a3:f7:cf:6f:5d:58:02:3c:77:ae:8a:72:70:12:5b:af:
         1b:4d:98:67:f9:80:58:75:7e:2c:40:c4:57:01:5a:56:d2:41:
         dd:d6:80:13:77:c5:de:b1:2c:4a:30:4c:d1:0e:a3:f0:c9:e6:
         5d:8d:8a:6c:c3:d5:5e:38:ec:64:32:d4:04:02:07:1e:e1:2f:
         c6:9b:d2:46:0d:77:6a:e6:d8:9c:a3:ee:b6:85:2b:fc:19:70:
         04:32:43:ea:81:65:81:8a:a0:66:03:35:85:bd:cd:95:80:66:
         20:b9:d9:25:b4:9a:9e:b5:95:bf:d2:71:48:05:b9:8c:91:af:
         fc:4a:cd:bf:31:cc:15:45:9c:15:08:39:4a:3b:b3:c7:b3:76:
         4f:4f:7f:a9:48:d6:92:da:71:7d:7d:3f:e7:5b:b0:1f:09:e7:
         64:b3:40:ac
-----BEGIN CERTIFICATE-----
MIIDtDCCApygAwIBAgIUFj3QlB6naD9z+Dp+Wbo+CHTsnpMwDQYJKoZIhvcNAQEL
BQAwDDEKMAgGA1UEAwwBSTAeFw0yMDExMDMxMjAwMDBaFw0yMTExMDMxMjAwMDBa
MBExDzANBgNVBAMMBnRhcmdldDCCASIwDQYJKoZIhvcNAQEBBQADggEPADCCAQoC
ggEBAMwiCFjCBIrdJhCekhAunMFvxQhScZVTOLXL0L9GVDeL3JOM9AFzHFsDnefA
Nr2vM9Eql7asJI6TndGOAf2WL4kzceYY4bUE+6ysBddfBLmDr/LT3k3qWAJqOZzy
140lvbYO63xxGwCrd+84dVd3sluswl3rPJ4KQy28i0vwboO175sdNSIlsDcRaZ5C
Y60K2vKnTHb4MArHgldDqgcI7aigLUZja6qRxuvVpO3NJ0hP9PAGX5V8JsyyvHMV
5DSeFiDSrycT4Q3iiJsQNK7nVRAAAGwZb3hSrjdt4yZKaVlAstfxLCtGLpXUDgvn
BpsyAb4v2hL0rBXsCBENSk4cPLUCAwEAAaOCAQcwggEDMB0GA1UdDgQWBBRVAOK/
gqveOEiFUrMg1SZVaQ5HMzAfBgNVHSMEGDAWgBQPIReUQLGmfFn6HMU4z2LohIsc
LDBUBggrBgEFBQcBAQRIMEYwHAYIKwYBBQUHMAKGEGZpbGU6Ly8vZGV2L251bGww
JgYIKwYBBQUHMAKGGmh0dHA6Ly91cmwtZm9yLWFpYTIvSTIuZm9vMCkGA1UdHwQi
MCAwHqAcoBqGGGh0dHA6Ly91cmwtZm9yLWNybC9JLmNybDAOBgNVHQ8BAf8EBAMC
BaAwHQYDVR0lBBYwFAYIKwYBBQUHAwEGCCsGAQUFBwMCMBEGA1UdEQQKMAiCBnRh
cmdldDANBgkqhkiG9w0BAQsFAAOCAQEAe5CMDzwL6qk+464l1yO3eYC3R3Vv+iWc
W0RV6UZPoowG/dLhGUdZs21Ow42gevExpsiebdPRlW/HxoiB4rzztUEMCDNvJk2K
PD1hoG/CfLY6O7eRrUAOKL/Racyj989vXVgCPHeuinJwEluvG02YZ/mAWHV+LEDE
VwFaVtJB3daAE3fF3rEsSjBM0Q6j8MnmXY2KbMPVXjjsZDLUBAIHHuEvxpvSRg13
aubYnKPutoUr/BlwBDJD6oFlgYqgZgM1hb3NlYBmILnZJbSanrWVv9JxSAW5jJGv
/ErNvzHMFUWcFQg5Sjuzx7N2T09/qUjWktpxfX0/51uwHwnnZLNArA==
-----END CERTIFICATE-----
