Certificate:
    Data:
        Version: 3 (0x2)
        Serial Number:
            16:3d:d0:94:1e:a7:68:3f:73:f8:3a:7e:59:ba:3e:08:74:ec:9e:8e
        Signature Algorithm: sha256WithRSAEncryption
        Issuer: CN=I
        Validity
            Not Before: Oct  5 12:00:00 2021 GMT
            Not After : Oct  5 12:00:00 2022 GMT
        Subject: CN=target
        Subject Public Key Info:
            Public Key Algorithm: rsaEncryption
                RSA Public-Key: (2048 bit)
                Modulus:
                    00:cc:22:08:58:c2:04:8a:dd:26:10:9e:92:10:2e:
                    9c:c1:6f:c5:08:52:71:95:53:38:b5:cb:d0:bf:46:
                    54:37:8b:dc:93:8c:f4:01:73:1c:5b:03:9d:e7:c0:
                    36:bd:af:33:d1:2a:97:b6:ac:24:8e:93:9d:d1:8e:
                    01:fd:96:2f:89:33:71:e6:18:e1:b5:04:fb:ac:ac:
                    05:d7:5f:04:b9:83:af:f2:d3:de:4d:ea:58:02:6a:
                    39:9c:f2:d7:8d:25:bd:b6:0e:eb:7c:71:1b:00:ab:
                    77:ef:38:75:57:77:b2:5b:ac:c2:5d:eb:3c:9e:0a:
                    43:2d:bc:8b:4b:f0:6e:83:b5:ef:9b:1d:35:22:25:
                    b0:37:11:69:9e:42:63:ad:0a:da:f2:a7:4c:76:f8:
                    30:0a:c7:82:57:43:aa:07:08:ed:a8:a0:2d:46:63:
                    6b:aa:91:c6:eb:d5:a4:ed:cd:27:48:4f:f4:f0:06:
                    5f:95:7c:26:cc:b2:bc:73:15:e4:34:9e:16:20:d2:
                    af:27:13:e1:0d:e2:88:9b:10:34:ae:e7:55:10:00:
                    00:6c:19:6f:78:52:ae:37:6d:e3:26:4a:69:59:40:
                    b2:d7:f1:2c:2b:46:2e:95:d4:0e:0b:e7:06:9b:32:
                    01:be:2f:da:12:f4:ac:15:ec:08:11:0d:4a:4e:1c:
                    3c:b5
                Exponent: 65537 (0x10001)
        X509v3 extensions:
            X509v3 Subject Key Identifier: 
                55:00:E2:BF:82:AB:DE:38:48:85:52:B3:20:D5:26:55:69:0E:47:33
            X509v3 Authority Key Identifier: 
                keyid:0F:21:17:94:40:B1:A6:7C:59:FA:1C:C5:38:CF:62:E8:84:8B:1C:2C

            Authority Information Access: 
                CA Issuers - URI:http://url-for-aia/I.cer
                CA Issuers - URI:http://url-for-aia2/I2.foo

            X509v3 CRL Distribution Points: 

                Full Name:
                  URI:http://url-for-crl/I.crl

            X509v3 Key Usage: critical
                Digital Signature, Key Encipherment
            X509v3 Extended Key Usage: 
                TLS Web Server Authentication, TLS Web Client Authentication
            X509v3 Subject Alternative Name: 
                DNS:target
    Signature Algorithm: sha256WithRSAEncryption
         82:98:f6:c0:88:63:02:ed:2e:b8:23:83:e3:23:9d:e7:98:3d:
         2c:1b:f9:9a:8b:27:6f:46:a1:b9:b4:a0:5a:d9:10:58:da:34:
         11:b3:fe:71:57:e9:c1:d7:83:ab:bf:e9:d3:dc:3f:19:29:e4:
         f2:21:0b:1d:67:8e:5e:77:60:ad:4b:d1:56:c8:f8:07:c8:07:
         57:45:2c:d3:fa:54:f4:36:57:3e:87:82:da:81:b3:7b:fe:2a:
         a2:c8:06:82:5c:7e:60:6f:0a:40:c3:ca:92:75:80:a6:72:97:
         0f:1c:60:e2:5a:d1:7e:e0:f1:94:ad:92:0c:99:08:55:58:e7:
         f0:4d:de:b4:d5:92:73:bd:b3:a5:6b:e5:d8:fa:e8:66:8d:d4:
         2c:76:8a:a0:bb:ac:4f:25:bf:84:56:9d:69:cc:6a:50:46:fe:
         3c:36:0f:79:55:8c:5b:40:92:fb:64:27:25:fd:f4:67:60:49:
         23:f4:67:5b:26:69:2d:56:85:99:5c:42:da:03:99:51:26:b4:
         8d:ba:c4:d9:fe:f5:e4:1a:10:b1:bf:af:da:a4:91:a0:3e:fa:
         06:fd:45:87:0b:ac:6a:2b:7b:49:dd:a6:93:10:bd:2e:6b:24:
         01:df:f7:37:6d:db:14:2d:11:1e:38:b7:c4:0c:3e:f7:53:50:
         6f:5b:c0:b7
-----BEGIN CERTIFICATE-----
MIIDvDCCAqSgAwIBAgIUFj3QlB6naD9z+Dp+Wbo+CHTsno4wDQYJKoZIhvcNAQEL
BQAwDDEKMAgGA1UEAwwBSTAeFw0yMTEwMDUxMjAwMDBaFw0yMjEwMDUxMjAwMDBa
MBExDzANBgNVBAMMBnRhcmdldDCCASIwDQYJKoZIhvcNAQEBBQADggEPADCCAQoC
ggEBAMwiCFjCBIrdJhCekhAunMFvxQhScZVTOLXL0L9GVDeL3JOM9AFzHFsDnefA
Nr2vM9Eql7asJI6TndGOAf2WL4kzceYY4bUE+6ysBddfBLmDr/LT3k3qWAJqOZzy
140lvbYO63xxGwCrd+84dVd3sluswl3rPJ4KQy28i0vwboO175sdNSIlsDcRaZ5C
Y60K2vKnTHb4MArHgldDqgcI7aigLUZja6qRxuvVpO3NJ0hP9PAGX5V8JsyyvHMV
5DSeFiDSrycT4Q3iiJsQNK7nVRAAAGwZb3hSrjdt4yZKaVlAstfxLCtGLpXUDgvn
BpsyAb4v2hL0rBXsCBENSk4cPLUCAwEAAaOCAQ8wggELMB0GA1UdDgQWBBRVAOK/
gqveOEiFUrMg1SZVaQ5HMzAfBgNVHSMEGDAWgBQPIReUQLGmfFn6HMU4z2LohIsc
LDBcBggrBgEFBQcBAQRQME4wJAYIKwYBBQUHMAKGGGh0dHA6Ly91cmwtZm9yLWFp
YS9JLmNlcjAmBggrBgEFBQcwAoYaaHR0cDovL3VybC1mb3ItYWlhMi9JMi5mb28w
KQYDVR0fBCIwIDAeoBygGoYYaHR0cDovL3VybC1mb3ItY3JsL0kuY3JsMA4GA1Ud
DwEB/wQEAwIFoDAdBgNVHSUEFjAUBggrBgEFBQcDAQYIKwYBBQUHAwIwEQYDVR0R
BAowCIIGdGFyZ2V0MA0GCSqGSIb3DQEBCwUAA4IBAQCCmPbAiGMC7S64I4PjI53n
mD0sG/maiydvRqG5tKBa2RBY2jQRs/5xV+nB14Orv+nT3D8ZKeTyIQsdZ45ed2Ct
S9FWyPgHyAdXRSzT+lT0Nlc+h4LagbN7/iqiyAaCXH5gbwpAw8qSdYCmcpcPHGDi
WtF+4PGUrZIMmQhVWOfwTd601ZJzvbOla+XY+uhmjdQsdoqgu6xPJb+EVp1pzGpQ
Rv48Ng95VYxbQJL7ZCcl/fRnYEkj9GdbJmktVoWZXELaA5lRJrSNusTZ/vXkGhCx
v6/apJGgPvoG/UWHC6xqK3tJ3aaTEL0uayQB3/c3bdsULREeOLfEDD73U1BvW8C3
-----END CERTIFICATE-----
