Certificate:
    Data:
        Version: 3 (0x2)
        Serial Number:
            16:3d:d0:94:1e:a7:68:3f:73:f8:3a:7e:59:ba:3e:08:74:ec:9e:90
        Signature Algorithm: sha256WithRSAEncryption
        Issuer: CN=I
        Validity
            Not Before: Nov  3 12:00:00 2020 GMT
            Not After : Nov  3 12:00:00 2021 GMT
        Subject: CN=target
        Subject Public Key Info:
            Public Key Algorithm: rsaEncryption
                RSA Public-Key: (2048 bit)
                Modulus:
                    00:cc:22:08:58:c2:04:8a:dd:26:10:9e:92:10:2e:
                    9c:c1:6f:c5:08:52:71:95:53:38:b5:cb:d0:bf:46:
                    54:37:8b:dc:93:8c:f4:01:73:1c:5b:03:9d:e7:c0:
                    36:bd:af:33:d1:2a:97:b6:ac:24:8e:93:9d:d1:8e:
                    01:fd:96:2f:89:33:71:e6:18:e1:b5:04:fb:ac:ac:
                    05:d7:5f:04:b9:83:af:f2:d3:de:4d:ea:58:02:6a:
                    39:9c:f2:d7:8d:25:bd:b6:0e:eb:7c:71:1b:00:ab:
                    77:ef:38:75:57:77:b2:5b:ac:c2:5d:eb:3c:9e:0a:
                    43:2d:bc:8b:4b:f0:6e:83:b5:ef:9b:1d:35:22:25:
                    b0:37:11:69:9e:42:63:ad:0a:da:f2:a7:4c:76:f8:
                    30:0a:c7:82:57:43:aa:07:08:ed:a8:a0:2d:46:63:
                    6b:aa:91:c6:eb:d5:a4:ed:cd:27:48:4f:f4:f0:06:
                    5f:95:7c:26:cc:b2:bc:73:15:e4:34:9e:16:20:d2:
                    af:27:13:e1:0d:e2:88:9b:10:34:ae:e7:55:10:00:
                    00:6c:19:6f:78:52:ae:37:6d:e3:26:4a:69:59:40:
                    b2:d7:f1:2c:2b:46:2e:95:d4:0e:0b:e7:06:9b:32:
                    01:be:2f:da:12:f4:ac:15:ec:08:11:0d:4a:4e:1c:
                    3c:b5
                Exponent: 65537 (0x10001)
        X509v3 extensions:
            X509v3 Subject Key Identifier: 
                55:00:E2:BF:82:AB:DE:38:48:85:52:B3:20:D5:26:55:69:0E:47:33
            X509v3 Authority Key Identifier: 
                keyid:0F:21:17:94:40:B1:A6:7C:59:FA:1C:C5:38:CF:62:E8:84:8B:1C:2C

            Authority Information Access: 
                CA Issuers - URI:http://url-for-aia/I.cer
                CA Issuers - URI:http://url-for-aia2/I2.foo
                CA Issuers - URI:http://url-for-aia3/I3.foo
                CA Issuers - URI:http://url-for-aia4/I4.foo
                CA Issuers - URI:http://url-for-aia5/I5.foo
                CA Issuers - URI:http://url-for-aia6/I6.foo

            X509v3 CRL Distribution Points: 

                Full Name:
                  URI:http://url-for-crl/I.crl

            X509v3 Key Usage: critical
                Digital Signature, Key Encipherment
            X509v3 Extended Key Usage: 
                TLS Web Server Authentication, TLS Web Client Authentication
            X509v3 Subject Alternative Name: 
                DNS:target
    Signature Algorithm: sha256WithRSAEncryption
         35:e5:6a:55:e6:e6:d2:31:e0:23:3c:11:e5:e2:be:c1:3a:b9:
         26:5e:24:81:d8:9f:47:a4:6a:fe:10:61:dc:e6:a6:46:4a:bf:
         5d:9e:7f:06:b6:2b:fe:dc:b0:09:89:10:98:78:b8:29:1a:90:
         8a:fb:f5:b7:ad:53:5d:8d:19:81:c0:e6:52:8b:5e:8c:f9:6e:
         3c:66:b7:d3:a6:b9:fc:f7:05:36:a2:b2:8e:bd:0b:25:0c:a5:
         39:12:64:bc:06:3c:20:0c:b6:19:a4:46:45:18:32:4b:3b:6d:
         6b:17:33:6c:51:09:4d:ab:37:be:48:af:a6:fb:20:1f:2c:90:
         4e:57:ab:68:01:92:15:e1:ad:5f:23:b1:13:c2:18:c6:12:58:
         75:35:87:b2:c5:d1:a4:5b:6b:fd:02:ec:31:41:4a:fc:d5:64:
         a9:bf:a7:55:52:f2:06:9c:69:b1:28:6b:da:6d:f6:28:93:f1:
         28:9a:b4:f1:cf:7f:7c:25:ab:46:77:8e:3a:a7:48:88:2f:90:
         31:1e:9e:b6:56:c2:25:8c:c9:ae:94:48:4e:ff:5c:04:2e:9f:
         84:12:aa:6c:63:c8:06:3c:a6:b9:71:db:2d:22:35:47:f9:e0:
         0f:14:c1:2c:51:7e:5b:4c:71:64:49:07:51:26:f3:61:00:45:
         9e:1c:2f:b8
-----BEGIN CERTIFICATE-----
MIIEXzCCA0egAwIBAgIUFj3QlB6naD9z+Dp+Wbo+CHTsnpAwDQYJKoZIhvcNAQEL
BQAwDDEKMAgGA1UEAwwBSTAeFw0yMDExMDMxMjAwMDBaFw0yMTExMDMxMjAwMDBa
MBExDzANBgNVBAMMBnRhcmdldDCCASIwDQYJKoZIhvcNAQEBBQADggEPADCCAQoC
ggEBAMwiCFjCBIrdJhCekhAunMFvxQhScZVTOLXL0L9GVDeL3JOM9AFzHFsDnefA
Nr2vM9Eql7asJI6TndGOAf2WL4kzceYY4bUE+6ysBddfBLmDr/LT3k3qWAJqOZzy
140lvbYO63xxGwCrd+84dVd3sluswl3rPJ4KQy28i0vwboO175sdNSIlsDcRaZ5C
Y60K2vKnTHb4MArHgldDqgcI7aigLUZja6qRxuvVpO3NJ0hP9PAGX5V8JsyyvHMV
5DSeFiDSrycT4Q3iiJsQNK7nVRAAAGwZb3hSrjdt4yZKaVlAstfxLCtGLpXUDgvn
BpsyAb4v2hL0rBXsCBENSk4cPLUCAwEAAaOCAbIwggGuMB0GA1UdDgQWBBRVAOK/
gqveOEiFUrMg1SZVaQ5HMzAfBgNVHSMEGDAWgBQPIReUQLGmfFn6HMU4z2LohIsc
LDCB/gYIKwYBBQUHAQEEgfEwge4wJAYIKwYBBQUHMAKGGGh0dHA6Ly91cmwtZm9y
LWFpYS9JLmNlcjAmBggrBgEFBQcwAoYaaHR0cDovL3VybC1mb3ItYWlhMi9JMi5m
b28wJgYIKwYBBQUHMAKGGmh0dHA6Ly91cmwtZm9yLWFpYTMvSTMuZm9vMCYGCCsG
AQUFBzAChhpodHRwOi8vdXJsLWZvci1haWE0L0k0LmZvbzAmBggrBgEFBQcwAoYa
aHR0cDovL3VybC1mb3ItYWlhNS9JNS5mb28wJgYIKwYBBQUHMAKGGmh0dHA6Ly91
cmwtZm9yLWFpYTYvSTYuZm9vMCkGA1UdHwQiMCAwHqAcoBqGGGh0dHA6Ly91cmwt
Zm9yLWNybC9JLmNybDAOBgNVHQ8BAf8EBAMCBaAwHQYDVR0lBBYwFAYIKwYBBQUH
AwEGCCsGAQUFBwMCMBEGA1UdEQQKMAiCBnRhcmdldDANBgkqhkiG9w0BAQsFAAOC
AQEANeVqVebm0jHgIzwR5eK+wTq5Jl4kgdifR6Rq/hBh3OamRkq/XZ5/BrYr/tyw
CYkQmHi4KRqQivv1t61TXY0ZgcDmUotejPluPGa306a5/PcFNqKyjr0LJQylORJk
vAY8IAy2GaRGRRgySzttaxczbFEJTas3vkivpvsgHyyQTleraAGSFeGtXyOxE8IY
xhJYdTWHssXRpFtr/QLsMUFK/NVkqb+nVVLyBpxpsShr2m32KJPxKJq08c9/fCWr
RneOOqdIiC+QMR6etlbCJYzJrpRITv9cBC6fhBKqbGPIBjymuXHbLSI1R/ngDxTB
LFF+W0xxZEkHUSbzYQBFnhwvuA==
-----END CERTIFICATE-----
