Certificate:
    Data:
        Version: 3 (0x2)
        Serial Number:
            16:3d:d0:94:1e:a7:68:3f:73:f8:3a:7e:59:ba:3e:08:74:ec:9e:92
        Signature Algorithm: sha256WithRSAEncryption
        Issuer: CN=I
        Validity
            Not Before: Oct  5 12:00:00 2022 GMT
            Not After : Oct  5 12:00:00 2023 GMT
        Subject: CN=target
        Subject Public Key Info:
            Public Key Algorithm: rsaEncryption
                Public-Key: (2048 bit)
                Modulus:
                    00:cc:22:08:58:c2:04:8a:dd:26:10:9e:92:10:2e:
                    9c:c1:6f:c5:08:52:71:95:53:38:b5:cb:d0:bf:46:
                    54:37:8b:dc:93:8c:f4:01:73:1c:5b:03:9d:e7:c0:
                    36:bd:af:33:d1:2a:97:b6:ac:24:8e:93:9d:d1:8e:
                    01:fd:96:2f:89:33:71:e6:18:e1:b5:04:fb:ac:ac:
                    05:d7:5f:04:b9:83:af:f2:d3:de:4d:ea:58:02:6a:
                    39:9c:f2:d7:8d:25:bd:b6:0e:eb:7c:71:1b:00:ab:
                    77:ef:38:75:57:77:b2:5b:ac:c2:5d:eb:3c:9e:0a:
                    43:2d:bc:8b:4b:f0:6e:83:b5:ef:9b:1d:35:22:25:
                    b0:37:11:69:9e:42:63:ad:0a:da:f2:a7:4c:76:f8:
                    30:0a:c7:82:57:43:aa:07:08:ed:a8:a0:2d:46:63:
                    6b:aa:91:c6:eb:d5:a4:ed:cd:27:48:4f:f4:f0:06:
                    5f:95:7c:26:cc:b2:bc:73:15:e4:34:9e:16:20:d2:
                    af:27:13:e1:0d:e2:88:9b:10:34:ae:e7:55:10:00:
                    00:6c:19:6f:78:52:ae:37:6d:e3:26:4a:69:59:40:
                    b2:d7:f1:2c:2b:46:2e:95:d4:0e:0b:e7:06:9b:32:
                    01:be:2f:da:12:f4:ac:15:ec:08:11:0d:4a:4e:1c:
                    3c:b5
                Exponent: 65537 (0x10001)
        X509v3 extensions:
            X509v3 Subject Key Identifier: 
                55:00:E2:BF:82:AB:DE:38:48:85:52:B3:20:D5:26:55:69:0E:47:33
            X509v3 Authority Key Identifier: 
                0F:21:17:94:40:B1:A6:7C:59:FA:1C:C5:38:CF:62:E8:84:8B:1C:2C
            Authority Information Access: 
                CA Issuers - URI:foobar
            X509v3 CRL Distribution Points: 
                Full Name:
                  URI:http://url-for-crl/I.crl
            X509v3 Key Usage: critical
                Digital Signature, Key Encipherment
            X509v3 Extended Key Usage: 
                TLS Web Server Authentication, TLS Web Client Authentication
            X509v3 Subject Alternative Name: 
                DNS:target
    Signature Algorithm: sha256WithRSAEncryption
    Signature Value:
        81:84:27:81:2d:a3:48:34:42:b9:d1:eb:cd:e9:26:e2:c3:63:
        81:07:99:bc:63:4f:39:af:9e:fc:dc:f8:40:49:1b:e8:f8:5d:
        3d:5f:96:1c:0c:9a:c1:0e:bd:41:71:db:e5:97:4b:3b:7b:dc:
        88:8d:36:1d:6e:a8:cb:8e:6c:d6:41:26:72:49:d8:fd:8a:d1:
        41:c4:df:bc:c9:ea:78:bf:0b:0c:93:26:dc:c1:0b:a5:37:45:
        f8:bb:3c:a6:c1:26:08:04:a9:6b:51:fc:4c:93:11:5d:7d:aa:
        e2:c3:7e:b5:01:22:4c:30:36:91:37:a6:bc:9b:58:ab:4d:48:
        88:4a:bb:04:c6:63:7b:e2:a7:5a:98:f7:c7:d3:05:9a:ab:ae:
        f9:9b:87:c3:69:a7:46:b8:5d:c7:80:03:aa:30:61:25:94:c0:
        6b:3c:66:db:11:74:60:9d:96:dd:40:01:cc:6a:b6:07:ea:62:
        26:23:a2:f1:42:dd:47:76:35:09:7b:55:d5:33:15:56:35:a0:
        80:d0:92:12:9e:5e:15:f5:0d:ce:29:cc:38:ef:ca:d5:7b:5f:
        7e:99:0b:67:cf:e4:d9:7a:21:53:22:b0:a8:0e:f1:f4:31:d6:
        95:73:74:18:7a:ab:52:07:44:9b:cd:8e:21:a0:c9:a4:aa:4c:
        50:2b:b6:1c
-----BEGIN CERTIFICATE-----
MIIDgDCCAmigAwIBAgIUFj3QlB6naD9z+Dp+Wbo+CHTsnpIwDQYJKoZIhvcNAQEL
BQAwDDEKMAgGA1UEAwwBSTAeFw0yMjEwMDUxMjAwMDBaFw0yMzEwMDUxMjAwMDBa
MBExDzANBgNVBAMMBnRhcmdldDCCASIwDQYJKoZIhvcNAQEBBQADggEPADCCAQoC
ggEBAMwiCFjCBIrdJhCekhAunMFvxQhScZVTOLXL0L9GVDeL3JOM9AFzHFsDnefA
Nr2vM9Eql7asJI6TndGOAf2WL4kzceYY4bUE+6ysBddfBLmDr/LT3k3qWAJqOZzy
140lvbYO63xxGwCrd+84dVd3sluswl3rPJ4KQy28i0vwboO175sdNSIlsDcRaZ5C
Y60K2vKnTHb4MArHgldDqgcI7aigLUZja6qRxuvVpO3NJ0hP9PAGX5V8JsyyvHMV
5DSeFiDSrycT4Q3iiJsQNK7nVRAAAGwZb3hSrjdt4yZKaVlAstfxLCtGLpXUDgvn
BpsyAb4v2hL0rBXsCBENSk4cPLUCAwEAAaOB1DCB0TAdBgNVHQ4EFgQUVQDiv4Kr
3jhIhVKzINUmVWkORzMwHwYDVR0jBBgwFoAUDyEXlECxpnxZ+hzFOM9i6ISLHCww
IgYIKwYBBQUHAQEEFjAUMBIGCCsGAQUFBzAChgZmb29iYXIwKQYDVR0fBCIwIDAe
oBygGoYYaHR0cDovL3VybC1mb3ItY3JsL0kuY3JsMA4GA1UdDwEB/wQEAwIFoDAd
BgNVHSUEFjAUBggrBgEFBQcDAQYIKwYBBQUHAwIwEQYDVR0RBAowCIIGdGFyZ2V0
MA0GCSqGSIb3DQEBCwUAA4IBAQCBhCeBLaNINEK50evN6Sbiw2OBB5m8Y085r578
3PhASRvo+F09X5YcDJrBDr1Bcdvll0s7e9yIjTYdbqjLjmzWQSZySdj9itFBxN+8
yep4vwsMkybcwQulN0X4uzymwSYIBKlrUfxMkxFdfariw361ASJMMDaRN6a8m1ir
TUiISrsExmN74qdamPfH0wWaq675m4fDaadGuF3HgAOqMGEllMBrPGbbEXRgnZbd
QAHMarYH6mImI6LxQt1HdjUJe1XVMxVWNaCA0JISnl4V9Q3OKcw478rVe19+mQtn
z+TZeiFTIrCoDvH0MdaVc3QYeqtSB0SbzY4hoMmkqkxQK7Yc
-----END CERTIFICATE-----
