Certificate:
    Data:
        Version: 3 (0x2)
        Serial Number:
            16:3d:d0:94:1e:a7:68:3f:73:f8:3a:7e:59:ba:3e:08:74:ec:9e:8c
        Signature Algorithm: sha256WithRSAEncryption
        Issuer: CN=I
        Validity
            Not Before: Oct  5 12:00:00 2022 GMT
            Not After : Oct  5 12:00:00 2023 GMT
        Subject: CN=target
        Subject Public Key Info:
            Public Key Algorithm: rsaEncryption
                Public-Key: (2048 bit)
                Modulus:
                    00:cc:22:08:58:c2:04:8a:dd:26:10:9e:92:10:2e:
                    9c:c1:6f:c5:08:52:71:95:53:38:b5:cb:d0:bf:46:
                    54:37:8b:dc:93:8c:f4:01:73:1c:5b:03:9d:e7:c0:
                    36:bd:af:33:d1:2a:97:b6:ac:24:8e:93:9d:d1:8e:
                    01:fd:96:2f:89:33:71:e6:18:e1:b5:04:fb:ac:ac:
                    05:d7:5f:04:b9:83:af:f2:d3:de:4d:ea:58:02:6a:
                    39:9c:f2:d7:8d:25:bd:b6:0e:eb:7c:71:1b:00:ab:
                    77:ef:38:75:57:77:b2:5b:ac:c2:5d:eb:3c:9e:0a:
                    43:2d:bc:8b:4b:f0:6e:83:b5:ef:9b:1d:35:22:25:
                    b0:37:11:69:9e:42:63:ad:0a:da:f2:a7:4c:76:f8:
                    30:0a:c7:82:57:43:aa:07:08:ed:a8:a0:2d:46:63:
                    6b:aa:91:c6:eb:d5:a4:ed:cd:27:48:4f:f4:f0:06:
                    5f:95:7c:26:cc:b2:bc:73:15:e4:34:9e:16:20:d2:
                    af:27:13:e1:0d:e2:88:9b:10:34:ae:e7:55:10:00:
                    00:6c:19:6f:78:52:ae:37:6d:e3:26:4a:69:59:40:
                    b2:d7:f1:2c:2b:46:2e:95:d4:0e:0b:e7:06:9b:32:
                    01:be:2f:da:12:f4:ac:15:ec:08:11:0d:4a:4e:1c:
                    3c:b5
                Exponent: 65537 (0x10001)
        X509v3 extensions:
            X509v3 Subject Key Identifier: 
                55:00:E2:BF:82:AB:DE:38:48:85:52:B3:20:D5:26:55:69:0E:47:33
            X509v3 Authority Key Identifier: 
                0F:21:17:94:40:B1:A6:7C:59:FA:1C:C5:38:CF:62:E8:84:8B:1C:2C
            Authority Information Access: 
                CA Issuers - URI:http://url-for-aia/I.cer
            X509v3 CRL Distribution Points: 
                Full Name:
                  URI:http://url-for-crl/I.crl
            X509v3 Key Usage: critical
                Digital Signature, Key Encipherment
            X509v3 Extended Key Usage: 
                TLS Web Server Authentication, TLS Web Client Authentication
            X509v3 Subject Alternative Name: 
                DNS:target
    Signature Algorithm: sha256WithRSAEncryption
    Signature Value:
        36:b0:03:1d:4d:f6:aa:15:54:4f:26:24:a0:a2:08:99:75:f8:
        1c:cd:d8:55:fd:25:c0:13:aa:c1:c7:72:1d:3d:e6:59:29:ba:
        2d:0e:6f:15:f7:04:2c:e9:04:bf:d6:c4:7b:ea:e0:0b:bf:39:
        34:f3:d4:5e:0e:50:26:9f:07:22:50:29:30:fb:f7:10:29:0a:
        48:aa:a5:6b:69:eb:5c:3e:e9:ba:f9:54:06:6f:32:ea:39:bf:
        9e:8a:fa:89:ba:f8:c2:48:f0:3c:05:4b:28:70:97:91:16:78:
        a9:be:31:7d:2c:7c:29:ed:6a:76:fa:fb:f9:ac:2a:25:e0:8c:
        34:2d:f2:59:e9:a9:f3:ac:5b:1a:fb:f1:bc:67:c3:15:8d:e9:
        ab:2f:5b:d9:6d:80:88:a7:54:8e:ba:ba:20:a0:46:0b:b8:99:
        c3:18:ea:eb:48:b5:7f:90:52:63:86:3c:95:08:f4:f0:8f:61:
        bf:00:39:fa:3c:da:aa:28:ec:b7:c3:67:a7:92:f4:6d:27:7f:
        6a:33:63:58:65:ef:00:c1:0d:18:19:94:a2:73:2e:d6:73:f8:
        ed:0b:a6:a3:b9:8f:6f:0a:19:0a:81:ad:b1:d9:8f:6e:bf:ff:
        83:18:58:21:f5:9a:0b:53:73:04:5e:f6:e6:99:78:53:47:9d:
        df:5f:ef:4f
-----BEGIN CERTIFICATE-----
MIIDkjCCAnqgAwIBAgIUFj3QlB6naD9z+Dp+Wbo+CHTsnowwDQYJKoZIhvcNAQEL
BQAwDDEKMAgGA1UEAwwBSTAeFw0yMjEwMDUxMjAwMDBaFw0yMzEwMDUxMjAwMDBa
MBExDzANBgNVBAMMBnRhcmdldDCCASIwDQYJKoZIhvcNAQEBBQADggEPADCCAQoC
ggEBAMwiCFjCBIrdJhCekhAunMFvxQhScZVTOLXL0L9GVDeL3JOM9AFzHFsDnefA
Nr2vM9Eql7asJI6TndGOAf2WL4kzceYY4bUE+6ysBddfBLmDr/LT3k3qWAJqOZzy
140lvbYO63xxGwCrd+84dVd3sluswl3rPJ4KQy28i0vwboO175sdNSIlsDcRaZ5C
Y60K2vKnTHb4MArHgldDqgcI7aigLUZja6qRxuvVpO3NJ0hP9PAGX5V8JsyyvHMV
5DSeFiDSrycT4Q3iiJsQNK7nVRAAAGwZb3hSrjdt4yZKaVlAstfxLCtGLpXUDgvn
BpsyAb4v2hL0rBXsCBENSk4cPLUCAwEAAaOB5jCB4zAdBgNVHQ4EFgQUVQDiv4Kr
3jhIhVKzINUmVWkORzMwHwYDVR0jBBgwFoAUDyEXlECxpnxZ+hzFOM9i6ISLHCww
NAYIKwYBBQUHAQEEKDAmMCQGCCsGAQUFBzAChhhodHRwOi8vdXJsLWZvci1haWEv
SS5jZXIwKQYDVR0fBCIwIDAeoBygGoYYaHR0cDovL3VybC1mb3ItY3JsL0kuY3Js
MA4GA1UdDwEB/wQEAwIFoDAdBgNVHSUEFjAUBggrBgEFBQcDAQYIKwYBBQUHAwIw
EQYDVR0RBAowCIIGdGFyZ2V0MA0GCSqGSIb3DQEBCwUAA4IBAQA2sAMdTfaqFVRP
JiSgogiZdfgczdhV/SXAE6rBx3IdPeZZKbotDm8V9wQs6QS/1sR76uALvzk089Re
DlAmnwciUCkw+/cQKQpIqqVraetcPum6+VQGbzLqOb+eivqJuvjCSPA8BUsocJeR
FnipvjF9LHwp7Wp2+vv5rCol4Iw0LfJZ6anzrFsa+/G8Z8MVjemrL1vZbYCIp1SO
urogoEYLuJnDGOrrSLV/kFJjhjyVCPTwj2G/ADn6PNqqKOy3w2enkvRtJ39qM2NY
Ze8AwQ0YGZSicy7Wc/jtC6ajuY9vChkKga2x2Y9uv/+DGFgh9ZoLU3MEXvbmmXhT
R53fX+9P
-----END CERTIFICATE-----
