Certificate:
    Data:
        Version: 3 (0x2)
        Serial Number:
            16:3d:d0:94:1e:a7:68:3f:73:f8:3a:7e:59:ba:3e:08:74:ec:9e:90
        Signature Algorithm: sha256WithRSAEncryption
        Issuer: CN=I
        Validity
            Not Before: Oct  5 12:00:00 2022 GMT
            Not After : Oct  5 12:00:00 2023 GMT
        Subject: CN=target
        Subject Public Key Info:
            Public Key Algorithm: rsaEncryption
                Public-Key: (2048 bit)
                Modulus:
                    00:cc:22:08:58:c2:04:8a:dd:26:10:9e:92:10:2e:
                    9c:c1:6f:c5:08:52:71:95:53:38:b5:cb:d0:bf:46:
                    54:37:8b:dc:93:8c:f4:01:73:1c:5b:03:9d:e7:c0:
                    36:bd:af:33:d1:2a:97:b6:ac:24:8e:93:9d:d1:8e:
                    01:fd:96:2f:89:33:71:e6:18:e1:b5:04:fb:ac:ac:
                    05:d7:5f:04:b9:83:af:f2:d3:de:4d:ea:58:02:6a:
                    39:9c:f2:d7:8d:25:bd:b6:0e:eb:7c:71:1b:00:ab:
                    77:ef:38:75:57:77:b2:5b:ac:c2:5d:eb:3c:9e:0a:
                    43:2d:bc:8b:4b:f0:6e:83:b5:ef:9b:1d:35:22:25:
                    b0:37:11:69:9e:42:63:ad:0a:da:f2:a7:4c:76:f8:
                    30:0a:c7:82:57:43:aa:07:08:ed:a8:a0:2d:46:63:
                    6b:aa:91:c6:eb:d5:a4:ed:cd:27:48:4f:f4:f0:06:
                    5f:95:7c:26:cc:b2:bc:73:15:e4:34:9e:16:20:d2:
                    af:27:13:e1:0d:e2:88:9b:10:34:ae:e7:55:10:00:
                    00:6c:19:6f:78:52:ae:37:6d:e3:26:4a:69:59:40:
                    b2:d7:f1:2c:2b:46:2e:95:d4:0e:0b:e7:06:9b:32:
                    01:be:2f:da:12:f4:ac:15:ec:08:11:0d:4a:4e:1c:
                    3c:b5
                Exponent: 65537 (0x10001)
        X509v3 extensions:
            X509v3 Subject Key Identifier: 
                55:00:E2:BF:82:AB:DE:38:48:85:52:B3:20:D5:26:55:69:0E:47:33
            X509v3 Authority Key Identifier: 
                0F:21:17:94:40:B1:A6:7C:59:FA:1C:C5:38:CF:62:E8:84:8B:1C:2C
            Authority Information Access: 
                CA Issuers - URI:http://url-for-aia/I.cer
                CA Issuers - URI:http://url-for-aia2/I2.foo
                CA Issuers - URI:http://url-for-aia3/I3.foo
                CA Issuers - URI:http://url-for-aia4/I4.foo
                CA Issuers - URI:http://url-for-aia5/I5.foo
                CA Issuers - URI:http://url-for-aia6/I6.foo
            X509v3 CRL Distribution Points: 
                Full Name:
                  URI:http://url-for-crl/I.crl
            X509v3 Key Usage: critical
                Digital Signature, Key Encipherment
            X509v3 Extended Key Usage: 
                TLS Web Server Authentication, TLS Web Client Authentication
            X509v3 Subject Alternative Name: 
                DNS:target
    Signature Algorithm: sha256WithRSAEncryption
    Signature Value:
        8e:b6:0d:a0:51:ef:31:d2:e0:3d:be:b2:6f:0a:ad:eb:5d:c8:
        ed:61:cc:49:33:de:99:93:20:a8:ac:f6:d0:ed:c2:05:b0:a3:
        91:65:84:8a:60:c4:97:c1:52:2f:ca:29:e5:84:24:33:0a:c7:
        3d:e8:b4:93:91:5e:cd:54:11:32:0a:9a:08:0f:a4:9e:98:1a:
        61:47:64:d4:a1:61:c4:97:7e:a7:4d:61:1d:de:48:86:a2:bf:
        09:69:72:79:f9:a0:c8:24:d2:90:00:8f:59:4b:a1:45:e0:bb:
        56:f2:fe:97:5e:6e:aa:09:3d:40:57:77:71:1a:dd:04:7d:69:
        f0:72:aa:5d:15:9c:73:42:ab:ce:24:c0:eb:2a:44:1f:a5:98:
        83:70:7b:5f:8b:7e:b1:f2:92:d3:74:92:46:4a:74:b5:ae:a7:
        d6:cb:42:9a:4f:fc:7d:e8:ab:87:ad:ef:55:e4:57:6d:8a:5b:
        41:08:46:9b:b7:37:4a:4c:93:fe:6f:a7:23:8d:ea:c3:4e:55:
        bb:6d:a1:25:d1:af:27:95:79:c3:13:38:c9:82:cd:0e:c6:7a:
        f9:98:24:c3:d4:4d:e4:67:2d:ad:b7:3d:e3:09:46:46:90:e2:
        37:c3:7f:13:0b:b3:11:eb:af:73:61:43:c5:0e:c0:e0:82:1f:
        09:53:b9:46
-----BEGIN CERTIFICATE-----
MIIEXzCCA0egAwIBAgIUFj3QlB6naD9z+Dp+Wbo+CHTsnpAwDQYJKoZIhvcNAQEL
BQAwDDEKMAgGA1UEAwwBSTAeFw0yMjEwMDUxMjAwMDBaFw0yMzEwMDUxMjAwMDBa
MBExDzANBgNVBAMMBnRhcmdldDCCASIwDQYJKoZIhvcNAQEBBQADggEPADCCAQoC
ggEBAMwiCFjCBIrdJhCekhAunMFvxQhScZVTOLXL0L9GVDeL3JOM9AFzHFsDnefA
Nr2vM9Eql7asJI6TndGOAf2WL4kzceYY4bUE+6ysBddfBLmDr/LT3k3qWAJqOZzy
140lvbYO63xxGwCrd+84dVd3sluswl3rPJ4KQy28i0vwboO175sdNSIlsDcRaZ5C
Y60K2vKnTHb4MArHgldDqgcI7aigLUZja6qRxuvVpO3NJ0hP9PAGX5V8JsyyvHMV
5DSeFiDSrycT4Q3iiJsQNK7nVRAAAGwZb3hSrjdt4yZKaVlAstfxLCtGLpXUDgvn
BpsyAb4v2hL0rBXsCBENSk4cPLUCAwEAAaOCAbIwggGuMB0GA1UdDgQWBBRVAOK/
gqveOEiFUrMg1SZVaQ5HMzAfBgNVHSMEGDAWgBQPIReUQLGmfFn6HMU4z2LohIsc
LDCB/gYIKwYBBQUHAQEEgfEwge4wJAYIKwYBBQUHMAKGGGh0dHA6Ly91cmwtZm9y
LWFpYS9JLmNlcjAmBggrBgEFBQcwAoYaaHR0cDovL3VybC1mb3ItYWlhMi9JMi5m
b28wJgYIKwYBBQUHMAKGGmh0dHA6Ly91cmwtZm9yLWFpYTMvSTMuZm9vMCYGCCsG
AQUFBzAChhpodHRwOi8vdXJsLWZvci1haWE0L0k0LmZvbzAmBggrBgEFBQcwAoYa
aHR0cDovL3VybC1mb3ItYWlhNS9JNS5mb28wJgYIKwYBBQUHMAKGGmh0dHA6Ly91
cmwtZm9yLWFpYTYvSTYuZm9vMCkGA1UdHwQiMCAwHqAcoBqGGGh0dHA6Ly91cmwt
Zm9yLWNybC9JLmNybDAOBgNVHQ8BAf8EBAMCBaAwHQYDVR0lBBYwFAYIKwYBBQUH
AwEGCCsGAQUFBwMCMBEGA1UdEQQKMAiCBnRhcmdldDANBgkqhkiG9w0BAQsFAAOC
AQEAjrYNoFHvMdLgPb6ybwqt613I7WHMSTPemZMgqKz20O3CBbCjkWWEimDEl8FS
L8op5YQkMwrHPei0k5FezVQRMgqaCA+knpgaYUdk1KFhxJd+p01hHd5IhqK/CWly
efmgyCTSkACPWUuhReC7VvL+l15uqgk9QFd3cRrdBH1p8HKqXRWcc0KrziTA6ypE
H6WYg3B7X4t+sfKS03SSRkp0ta6n1stCmk/8feirh63vVeRXbYpbQQhGm7c3SkyT
/m+nI43qw05Vu22hJdGvJ5V5wxM4yYLNDsZ6+Zgkw9RN5Gctrbc94wlGRpDiN8N/
EwuzEeuvc2FDxQ7A4IIfCVO5Rg==
-----END CERTIFICATE-----
