Certificate:
    Data:
        Version: 3 (0x2)
        Serial Number:
            16:3d:d0:94:1e:a7:68:3f:73:f8:3a:7e:59:ba:3e:08:74:ec:9e:91
        Signature Algorithm: sha256WithRSAEncryption
        Issuer: CN=I
        Validity
            Not Before: Nov  3 12:00:00 2020 GMT
            Not After : Nov  3 12:00:00 2021 GMT
        Subject: CN=target
        Subject Public Key Info:
            Public Key Algorithm: rsaEncryption
                RSA Public-Key: (2048 bit)
                Modulus:
                    00:cc:22:08:58:c2:04:8a:dd:26:10:9e:92:10:2e:
                    9c:c1:6f:c5:08:52:71:95:53:38:b5:cb:d0:bf:46:
                    54:37:8b:dc:93:8c:f4:01:73:1c:5b:03:9d:e7:c0:
                    36:bd:af:33:d1:2a:97:b6:ac:24:8e:93:9d:d1:8e:
                    01:fd:96:2f:89:33:71:e6:18:e1:b5:04:fb:ac:ac:
                    05:d7:5f:04:b9:83:af:f2:d3:de:4d:ea:58:02:6a:
                    39:9c:f2:d7:8d:25:bd:b6:0e:eb:7c:71:1b:00:ab:
                    77:ef:38:75:57:77:b2:5b:ac:c2:5d:eb:3c:9e:0a:
                    43:2d:bc:8b:4b:f0:6e:83:b5:ef:9b:1d:35:22:25:
                    b0:37:11:69:9e:42:63:ad:0a:da:f2:a7:4c:76:f8:
                    30:0a:c7:82:57:43:aa:07:08:ed:a8:a0:2d:46:63:
                    6b:aa:91:c6:eb:d5:a4:ed:cd:27:48:4f:f4:f0:06:
                    5f:95:7c:26:cc:b2:bc:73:15:e4:34:9e:16:20:d2:
                    af:27:13:e1:0d:e2:88:9b:10:34:ae:e7:55:10:00:
                    00:6c:19:6f:78:52:ae:37:6d:e3:26:4a:69:59:40:
                    b2:d7:f1:2c:2b:46:2e:95:d4:0e:0b:e7:06:9b:32:
                    01:be:2f:da:12:f4:ac:15:ec:08:11:0d:4a:4e:1c:
                    3c:b5
                Exponent: 65537 (0x10001)
        X509v3 extensions:
            X509v3 Subject Key Identifier: 
                55:00:E2:BF:82:AB:DE:38:48:85:52:B3:20:D5:26:55:69:0E:47:33
            X509v3 Authority Key Identifier: 
                keyid:0F:21:17:94:40:B1:A6:7C:59:FA:1C:C5:38:CF:62:E8:84:8B:1C:2C

            Authority Information Access: 
                CA Issuers - URI:file:///dev/null

            X509v3 CRL Distribution Points: 

                Full Name:
                  URI:http://url-for-crl/I.crl

            X509v3 Key Usage: critical
                Digital Signature, Key Encipherment
            X509v3 Extended Key Usage: 
                TLS Web Server Authentication, TLS Web Client Authentication
            X509v3 Subject Alternative Name: 
                DNS:target
    Signature Algorithm: sha256WithRSAEncryption
         99:2c:ef:bc:28:6e:ce:20:e8:10:e2:82:64:23:c8:31:4f:7c:
         da:5d:77:57:d3:10:ed:d2:8f:67:92:9d:21:55:af:6e:cb:59:
         cc:51:59:60:2b:77:c9:0c:0b:03:6d:6b:e6:29:15:67:85:b4:
         e7:9b:96:68:00:b5:76:fd:f3:ee:6b:80:86:77:8e:7f:4b:26:
         cd:20:e4:64:4e:e9:99:36:a1:a1:a3:da:84:c6:d2:4e:0a:7e:
         03:8a:b7:c8:30:f5:db:a9:99:ce:16:db:f1:ef:3e:27:17:cb:
         65:3b:24:20:01:02:4e:5f:95:28:ee:ed:ca:6b:38:bf:64:d0:
         73:b3:ef:e1:ae:a3:e4:7d:b9:8c:37:31:38:fc:35:2c:e2:c3:
         b5:bc:1f:42:a1:27:4f:f9:6f:8f:06:3f:c9:42:20:58:ba:7b:
         cd:25:41:bf:d8:66:a8:a6:66:40:6f:c0:89:bb:c5:13:c4:61:
         bc:ac:b6:a7:17:a0:4c:21:49:68:46:73:bc:17:bc:0d:09:cd:
         54:f5:5f:27:a8:6a:83:57:b9:52:cb:a2:ab:a8:e4:35:be:33:
         9d:cf:0f:82:04:55:19:0d:09:ef:39:a3:65:61:28:c5:24:11:
         9e:fb:d4:ae:54:8c:94:64:c3:58:b2:3b:7f:09:24:8d:99:e0:
         4b:a2:01:80
-----BEGIN CERTIFICATE-----
MIIDijCCAnKgAwIBAgIUFj3QlB6naD9z+Dp+Wbo+CHTsnpEwDQYJKoZIhvcNAQEL
BQAwDDEKMAgGA1UEAwwBSTAeFw0yMDExMDMxMjAwMDBaFw0yMTExMDMxMjAwMDBa
MBExDzANBgNVBAMMBnRhcmdldDCCASIwDQYJKoZIhvcNAQEBBQADggEPADCCAQoC
ggEBAMwiCFjCBIrdJhCekhAunMFvxQhScZVTOLXL0L9GVDeL3JOM9AFzHFsDnefA
Nr2vM9Eql7asJI6TndGOAf2WL4kzceYY4bUE+6ysBddfBLmDr/LT3k3qWAJqOZzy
140lvbYO63xxGwCrd+84dVd3sluswl3rPJ4KQy28i0vwboO175sdNSIlsDcRaZ5C
Y60K2vKnTHb4MArHgldDqgcI7aigLUZja6qRxuvVpO3NJ0hP9PAGX5V8JsyyvHMV
5DSeFiDSrycT4Q3iiJsQNK7nVRAAAGwZb3hSrjdt4yZKaVlAstfxLCtGLpXUDgvn
BpsyAb4v2hL0rBXsCBENSk4cPLUCAwEAAaOB3jCB2zAdBgNVHQ4EFgQUVQDiv4Kr
3jhIhVKzINUmVWkORzMwHwYDVR0jBBgwFoAUDyEXlECxpnxZ+hzFOM9i6ISLHCww
LAYIKwYBBQUHAQEEIDAeMBwGCCsGAQUFBzAChhBmaWxlOi8vL2Rldi9udWxsMCkG
A1UdHwQiMCAwHqAcoBqGGGh0dHA6Ly91cmwtZm9yLWNybC9JLmNybDAOBgNVHQ8B
Af8EBAMCBaAwHQYDVR0lBBYwFAYIKwYBBQUHAwEGCCsGAQUFBwMCMBEGA1UdEQQK
MAiCBnRhcmdldDANBgkqhkiG9w0BAQsFAAOCAQEAmSzvvChuziDoEOKCZCPIMU98
2l13V9MQ7dKPZ5KdIVWvbstZzFFZYCt3yQwLA21r5ikVZ4W055uWaAC1dv3z7muA
hneOf0smzSDkZE7pmTahoaPahMbSTgp+A4q3yDD126mZzhbb8e8+JxfLZTskIAEC
Tl+VKO7tyms4v2TQc7Pv4a6j5H25jDcxOPw1LOLDtbwfQqEnT/lvjwY/yUIgWLp7
zSVBv9hmqKZmQG/AibvFE8RhvKy2pxegTCFJaEZzvBe8DQnNVPVfJ6hqg1e5Usui
q6jkNb4znc8PggRVGQ0J7zmjZWEoxSQRnvvUrlSMlGTDWLI7fwkkjZngS6IBgA==
-----END CERTIFICATE-----
