Certificate:
    Data:
        Version: 3 (0x2)
        Serial Number:
            16:3d:d0:94:1e:a7:68:3f:73:f8:3a:7e:59:ba:3e:08:74:ec:9e:8d
        Signature Algorithm: sha256WithRSAEncryption
        Issuer: CN=I
        Validity
            Not Before: Oct  5 12:00:00 2021 GMT
            Not After : Oct  5 12:00:00 2022 GMT
        Subject: CN=target
        Subject Public Key Info:
            Public Key Algorithm: rsaEncryption
                RSA Public-Key: (2048 bit)
                Modulus:
                    00:cc:22:08:58:c2:04:8a:dd:26:10:9e:92:10:2e:
                    9c:c1:6f:c5:08:52:71:95:53:38:b5:cb:d0:bf:46:
                    54:37:8b:dc:93:8c:f4:01:73:1c:5b:03:9d:e7:c0:
                    36:bd:af:33:d1:2a:97:b6:ac:24:8e:93:9d:d1:8e:
                    01:fd:96:2f:89:33:71:e6:18:e1:b5:04:fb:ac:ac:
                    05:d7:5f:04:b9:83:af:f2:d3:de:4d:ea:58:02:6a:
                    39:9c:f2:d7:8d:25:bd:b6:0e:eb:7c:71:1b:00:ab:
                    77:ef:38:75:57:77:b2:5b:ac:c2:5d:eb:3c:9e:0a:
                    43:2d:bc:8b:4b:f0:6e:83:b5:ef:9b:1d:35:22:25:
                    b0:37:11:69:9e:42:63:ad:0a:da:f2:a7:4c:76:f8:
                    30:0a:c7:82:57:43:aa:07:08:ed:a8:a0:2d:46:63:
                    6b:aa:91:c6:eb:d5:a4:ed:cd:27:48:4f:f4:f0:06:
                    5f:95:7c:26:cc:b2:bc:73:15:e4:34:9e:16:20:d2:
                    af:27:13:e1:0d:e2:88:9b:10:34:ae:e7:55:10:00:
                    00:6c:19:6f:78:52:ae:37:6d:e3:26:4a:69:59:40:
                    b2:d7:f1:2c:2b:46:2e:95:d4:0e:0b:e7:06:9b:32:
                    01:be:2f:da:12:f4:ac:15:ec:08:11:0d:4a:4e:1c:
                    3c:b5
                Exponent: 65537 (0x10001)
        X509v3 extensions:
            X509v3 Subject Key Identifier: 
                55:00:E2:BF:82:AB:DE:38:48:85:52:B3:20:D5:26:55:69:0E:47:33
            X509v3 Authority Key Identifier: 
                keyid:0F:21:17:94:40:B1:A6:7C:59:FA:1C:C5:38:CF:62:E8:84:8B:1C:2C

            X509v3 CRL Distribution Points: 

                Full Name:
                  URI:http://url-for-crl/I.crl

            X509v3 Key Usage: critical
                Digital Signature, Key Encipherment
            X509v3 Extended Key Usage: 
                TLS Web Server Authentication, TLS Web Client Authentication
            X509v3 Subject Alternative Name: 
                DNS:target
    Signature Algorithm: sha256WithRSAEncryption
         a8:5d:7e:f9:37:62:3d:e5:8b:f2:29:2c:ca:9f:a2:f4:97:b3:
         d7:69:b2:2a:bb:be:f4:ce:93:5b:1c:22:33:6e:77:88:ec:73:
         ea:df:0e:1b:1a:e7:67:51:a1:f1:5c:8f:31:f0:3c:9c:e6:4d:
         a0:b4:91:50:a3:45:93:74:c3:16:b0:9f:65:f7:14:fe:f5:82:
         0c:59:c6:fa:56:cf:78:dc:fb:51:a2:01:1d:6b:26:56:85:36:
         49:80:73:94:e0:07:e5:b6:44:62:57:b1:d2:39:84:df:ed:75:
         52:6b:b6:1a:e6:c6:63:f7:4f:8a:e6:d3:12:e3:14:77:20:f4:
         47:e0:b2:42:36:6f:8e:22:97:99:80:5d:7c:62:95:33:3a:14:
         f7:58:ee:c5:32:4a:99:ed:c5:dc:25:f2:2a:d2:e6:72:24:a0:
         93:95:28:b8:90:cb:39:fc:f5:9f:68:09:0d:2b:1c:cc:e2:e1:
         4e:21:88:bd:80:8e:8c:d5:0f:ef:ce:9f:75:8c:56:85:1b:6a:
         77:c5:3c:6e:e7:97:ca:95:0a:67:3a:f8:3a:78:96:f1:29:e7:
         30:62:51:67:1a:3e:46:09:4e:8a:f9:b1:44:39:71:a4:96:bd:
         8c:90:9d:74:59:35:67:92:05:c1:7b:b6:74:93:f4:f4:78:9a:
         65:62:2f:ef
-----BEGIN CERTIFICATE-----
MIIDXDCCAkSgAwIBAgIUFj3QlB6naD9z+Dp+Wbo+CHTsno0wDQYJKoZIhvcNAQEL
BQAwDDEKMAgGA1UEAwwBSTAeFw0yMTEwMDUxMjAwMDBaFw0yMjEwMDUxMjAwMDBa
MBExDzANBgNVBAMMBnRhcmdldDCCASIwDQYJKoZIhvcNAQEBBQADggEPADCCAQoC
ggEBAMwiCFjCBIrdJhCekhAunMFvxQhScZVTOLXL0L9GVDeL3JOM9AFzHFsDnefA
Nr2vM9Eql7asJI6TndGOAf2WL4kzceYY4bUE+6ysBddfBLmDr/LT3k3qWAJqOZzy
140lvbYO63xxGwCrd+84dVd3sluswl3rPJ4KQy28i0vwboO175sdNSIlsDcRaZ5C
Y60K2vKnTHb4MArHgldDqgcI7aigLUZja6qRxuvVpO3NJ0hP9PAGX5V8JsyyvHMV
5DSeFiDSrycT4Q3iiJsQNK7nVRAAAGwZb3hSrjdt4yZKaVlAstfxLCtGLpXUDgvn
BpsyAb4v2hL0rBXsCBENSk4cPLUCAwEAAaOBsDCBrTAdBgNVHQ4EFgQUVQDiv4Kr
3jhIhVKzINUmVWkORzMwHwYDVR0jBBgwFoAUDyEXlECxpnxZ+hzFOM9i6ISLHCww
KQYDVR0fBCIwIDAeoBygGoYYaHR0cDovL3VybC1mb3ItY3JsL0kuY3JsMA4GA1Ud
DwEB/wQEAwIFoDAdBgNVHSUEFjAUBggrBgEFBQcDAQYIKwYBBQUHAwIwEQYDVR0R
BAowCIIGdGFyZ2V0MA0GCSqGSIb3DQEBCwUAA4IBAQCoXX75N2I95YvyKSzKn6L0
l7PXabIqu770zpNbHCIzbneI7HPq3w4bGudnUaHxXI8x8Dyc5k2gtJFQo0WTdMMW
sJ9l9xT+9YIMWcb6Vs943PtRogEdayZWhTZJgHOU4AfltkRiV7HSOYTf7XVSa7Ya
5sZj90+K5tMS4xR3IPRH4LJCNm+OIpeZgF18YpUzOhT3WO7FMkqZ7cXcJfIq0uZy
JKCTlSi4kMs5/PWfaAkNKxzM4uFOIYi9gI6M1Q/vzp91jFaFG2p3xTxu55fKlQpn
Ovg6eJbxKecwYlFnGj5GCU6K+bFEOXGklr2MkJ10WTVnkgXBe7Z0k/T0eJplYi/v
-----END CERTIFICATE-----
