Certificate:
    Data:
        Version: 3 (0x2)
        Serial Number:
            16:3d:d0:94:1e:a7:68:3f:73:f8:3a:7e:59:ba:3e:08:74:ec:9e:8c
        Signature Algorithm: sha256WithRSAEncryption
        Issuer: CN=I
        Validity
            Not Before: Oct  5 12:00:00 2021 GMT
            Not After : Oct  5 12:00:00 2022 GMT
        Subject: CN=target
        Subject Public Key Info:
            Public Key Algorithm: rsaEncryption
                RSA Public-Key: (2048 bit)
                Modulus:
                    00:cc:22:08:58:c2:04:8a:dd:26:10:9e:92:10:2e:
                    9c:c1:6f:c5:08:52:71:95:53:38:b5:cb:d0:bf:46:
                    54:37:8b:dc:93:8c:f4:01:73:1c:5b:03:9d:e7:c0:
                    36:bd:af:33:d1:2a:97:b6:ac:24:8e:93:9d:d1:8e:
                    01:fd:96:2f:89:33:71:e6:18:e1:b5:04:fb:ac:ac:
                    05:d7:5f:04:b9:83:af:f2:d3:de:4d:ea:58:02:6a:
                    39:9c:f2:d7:8d:25:bd:b6:0e:eb:7c:71:1b:00:ab:
                    77:ef:38:75:57:77:b2:5b:ac:c2:5d:eb:3c:9e:0a:
                    43:2d:bc:8b:4b:f0:6e:83:b5:ef:9b:1d:35:22:25:
                    b0:37:11:69:9e:42:63:ad:0a:da:f2:a7:4c:76:f8:
                    30:0a:c7:82:57:43:aa:07:08:ed:a8:a0:2d:46:63:
                    6b:aa:91:c6:eb:d5:a4:ed:cd:27:48:4f:f4:f0:06:
                    5f:95:7c:26:cc:b2:bc:73:15:e4:34:9e:16:20:d2:
                    af:27:13:e1:0d:e2:88:9b:10:34:ae:e7:55:10:00:
                    00:6c:19:6f:78:52:ae:37:6d:e3:26:4a:69:59:40:
                    b2:d7:f1:2c:2b:46:2e:95:d4:0e:0b:e7:06:9b:32:
                    01:be:2f:da:12:f4:ac:15:ec:08:11:0d:4a:4e:1c:
                    3c:b5
                Exponent: 65537 (0x10001)
        X509v3 extensions:
            X509v3 Subject Key Identifier: 
                55:00:E2:BF:82:AB:DE:38:48:85:52:B3:20:D5:26:55:69:0E:47:33
            X509v3 Authority Key Identifier: 
                keyid:0F:21:17:94:40:B1:A6:7C:59:FA:1C:C5:38:CF:62:E8:84:8B:1C:2C

            Authority Information Access: 
                CA Issuers - URI:http://url-for-aia/I.cer

            X509v3 CRL Distribution Points: 

                Full Name:
                  URI:http://url-for-crl/I.crl

            X509v3 Key Usage: critical
                Digital Signature, Key Encipherment
            X509v3 Extended Key Usage: 
                TLS Web Server Authentication, TLS Web Client Authentication
            X509v3 Subject Alternative Name: 
                DNS:target
    Signature Algorithm: sha256WithRSAEncryption
         1f:56:b5:67:b4:a0:97:f2:7f:9d:51:a8:7b:83:41:22:18:af:
         38:a5:44:c7:01:fe:91:cd:ed:3a:87:ef:5a:28:d8:b1:d6:ac:
         58:40:01:ba:c3:5b:61:29:82:f4:04:76:63:6f:56:b3:13:cb:
         fb:9b:a5:da:09:db:d1:51:e6:f3:b5:fe:2e:d3:a0:5d:7b:1f:
         56:5c:53:9c:0d:48:04:be:28:51:d4:1c:dd:6d:c8:d6:61:c2:
         69:80:88:e4:ac:5f:28:27:8f:2c:f9:3e:05:2e:ea:da:b3:8c:
         56:bc:30:03:48:79:0f:fb:5d:9c:a0:49:8e:3a:a5:55:cb:0f:
         ea:11:f9:5d:a5:55:a5:ca:eb:1c:69:c6:f5:8b:53:5b:7b:45:
         5d:c8:53:75:9c:69:6c:0f:d1:50:5c:2c:8f:35:18:af:8c:45:
         49:e2:ed:4a:2e:df:a3:88:e1:5d:31:82:c7:b9:e2:86:22:42:
         59:b4:46:e2:06:e8:69:a3:b8:cd:af:92:07:93:cb:04:7e:08:
         61:ea:15:bd:fa:ec:45:d4:f0:2d:30:22:bd:53:ba:59:4b:ea:
         52:75:98:3b:6d:48:f6:cd:d1:7c:52:be:c5:4b:7b:4e:82:bd:
         3e:2d:18:b2:8f:47:ca:84:cc:da:86:64:98:55:72:16:0c:3a:
         de:66:05:ff
-----BEGIN CERTIFICATE-----
MIIDkjCCAnqgAwIBAgIUFj3QlB6naD9z+Dp+Wbo+CHTsnowwDQYJKoZIhvcNAQEL
BQAwDDEKMAgGA1UEAwwBSTAeFw0yMTEwMDUxMjAwMDBaFw0yMjEwMDUxMjAwMDBa
MBExDzANBgNVBAMMBnRhcmdldDCCASIwDQYJKoZIhvcNAQEBBQADggEPADCCAQoC
ggEBAMwiCFjCBIrdJhCekhAunMFvxQhScZVTOLXL0L9GVDeL3JOM9AFzHFsDnefA
Nr2vM9Eql7asJI6TndGOAf2WL4kzceYY4bUE+6ysBddfBLmDr/LT3k3qWAJqOZzy
140lvbYO63xxGwCrd+84dVd3sluswl3rPJ4KQy28i0vwboO175sdNSIlsDcRaZ5C
Y60K2vKnTHb4MArHgldDqgcI7aigLUZja6qRxuvVpO3NJ0hP9PAGX5V8JsyyvHMV
5DSeFiDSrycT4Q3iiJsQNK7nVRAAAGwZb3hSrjdt4yZKaVlAstfxLCtGLpXUDgvn
BpsyAb4v2hL0rBXsCBENSk4cPLUCAwEAAaOB5jCB4zAdBgNVHQ4EFgQUVQDiv4Kr
3jhIhVKzINUmVWkORzMwHwYDVR0jBBgwFoAUDyEXlECxpnxZ+hzFOM9i6ISLHCww
NAYIKwYBBQUHAQEEKDAmMCQGCCsGAQUFBzAChhhodHRwOi8vdXJsLWZvci1haWEv
SS5jZXIwKQYDVR0fBCIwIDAeoBygGoYYaHR0cDovL3VybC1mb3ItY3JsL0kuY3Js
MA4GA1UdDwEB/wQEAwIFoDAdBgNVHSUEFjAUBggrBgEFBQcDAQYIKwYBBQUHAwIw
EQYDVR0RBAowCIIGdGFyZ2V0MA0GCSqGSIb3DQEBCwUAA4IBAQAfVrVntKCX8n+d
Uah7g0EiGK84pUTHAf6Rze06h+9aKNix1qxYQAG6w1thKYL0BHZjb1azE8v7m6Xa
CdvRUebztf4u06Bdex9WXFOcDUgEvihR1BzdbcjWYcJpgIjkrF8oJ48s+T4FLura
s4xWvDADSHkP+12coEmOOqVVyw/qEfldpVWlyuscacb1i1Nbe0VdyFN1nGlsD9FQ
XCyPNRivjEVJ4u1KLt+jiOFdMYLHueKGIkJZtEbiBuhpo7jNr5IHk8sEfghh6hW9
+uxF1PAtMCK9U7pZS+pSdZg7bUj2zdF8Ur7FS3tOgr0+LRiyj0fKhMzahmSYVXIW
DDreZgX/
-----END CERTIFICATE-----
