Certificate:
    Data:
        Version: 3 (0x2)
        Serial Number:
            16:3d:d0:94:1e:a7:68:3f:73:f8:3a:7e:59:ba:3e:08:74:ec:9e:8f
        Signature Algorithm: sha256WithRSAEncryption
        Issuer: CN=I
        Validity
            Not Before: Oct  5 12:00:00 2022 GMT
            Not After : Oct  5 12:00:00 2023 GMT
        Subject: CN=target
        Subject Public Key Info:
            Public Key Algorithm: rsaEncryption
                Public-Key: (2048 bit)
                Modulus:
                    00:cc:22:08:58:c2:04:8a:dd:26:10:9e:92:10:2e:
                    9c:c1:6f:c5:08:52:71:95:53:38:b5:cb:d0:bf:46:
                    54:37:8b:dc:93:8c:f4:01:73:1c:5b:03:9d:e7:c0:
                    36:bd:af:33:d1:2a:97:b6:ac:24:8e:93:9d:d1:8e:
                    01:fd:96:2f:89:33:71:e6:18:e1:b5:04:fb:ac:ac:
                    05:d7:5f:04:b9:83:af:f2:d3:de:4d:ea:58:02:6a:
                    39:9c:f2:d7:8d:25:bd:b6:0e:eb:7c:71:1b:00:ab:
                    77:ef:38:75:57:77:b2:5b:ac:c2:5d:eb:3c:9e:0a:
                    43:2d:bc:8b:4b:f0:6e:83:b5:ef:9b:1d:35:22:25:
                    b0:37:11:69:9e:42:63:ad:0a:da:f2:a7:4c:76:f8:
                    30:0a:c7:82:57:43:aa:07:08:ed:a8:a0:2d:46:63:
                    6b:aa:91:c6:eb:d5:a4:ed:cd:27:48:4f:f4:f0:06:
                    5f:95:7c:26:cc:b2:bc:73:15:e4:34:9e:16:20:d2:
                    af:27:13:e1:0d:e2:88:9b:10:34:ae:e7:55:10:00:
                    00:6c:19:6f:78:52:ae:37:6d:e3:26:4a:69:59:40:
                    b2:d7:f1:2c:2b:46:2e:95:d4:0e:0b:e7:06:9b:32:
                    01:be:2f:da:12:f4:ac:15:ec:08:11:0d:4a:4e:1c:
                    3c:b5
                Exponent: 65537 (0x10001)
        X509v3 extensions:
            X509v3 Subject Key Identifier: 
                55:00:E2:BF:82:AB:DE:38:48:85:52:B3:20:D5:26:55:69:0E:47:33
            X509v3 Authority Key Identifier: 
                0F:21:17:94:40:B1:A6:7C:59:FA:1C:C5:38:CF:62:E8:84:8B:1C:2C
            Authority Information Access: 
                CA Issuers - URI:http://url-for-aia/I.cer
                CA Issuers - URI:http://url-for-aia2/I2.foo
                CA Issuers - URI:http://url-for-aia3/I3.foo
            X509v3 CRL Distribution Points: 
                Full Name:
                  URI:http://url-for-crl/I.crl
            X509v3 Key Usage: critical
                Digital Signature, Key Encipherment
            X509v3 Extended Key Usage: 
                TLS Web Server Authentication, TLS Web Client Authentication
            X509v3 Subject Alternative Name: 
                DNS:target
    Signature Algorithm: sha256WithRSAEncryption
    Signature Value:
        05:3f:df:cc:06:ed:9b:6c:fe:0d:f8:ad:9f:30:70:95:9a:12:
        98:0b:40:03:e0:7a:68:7e:aa:db:8f:d0:a5:8c:2c:be:6c:91:
        db:3d:96:44:29:89:bd:14:0c:c3:f2:ff:61:06:bb:4f:8f:6b:
        b1:66:dc:99:e2:fa:79:8b:e5:60:6b:a0:27:d5:bb:06:11:ef:
        3b:87:7c:cf:3c:bd:0c:76:65:3d:d7:a8:26:8b:67:f3:55:a9:
        f8:a3:0f:2e:20:37:be:a7:ba:36:9d:06:32:16:43:81:d9:01:
        41:3b:19:b2:e7:9d:22:67:fe:a4:78:46:26:11:8f:90:6d:1b:
        ba:24:1b:ab:63:5b:96:bf:6b:20:7b:90:ea:20:6c:29:cd:f9:
        f1:fb:72:32:f6:0f:d6:05:37:6c:85:31:f2:d4:f5:df:9a:bd:
        b3:44:ce:e9:94:c2:6b:7d:5f:df:f2:df:99:2a:c4:ff:7c:5a:
        99:8a:17:2e:21:48:f9:b1:69:55:4e:84:cd:51:3c:a9:87:ee:
        42:12:97:c7:da:da:15:16:0f:1c:06:6a:03:b4:35:aa:e6:e4:
        09:37:c3:3a:13:2c:fd:28:70:fa:80:f0:fc:1e:a3:4c:e3:cc:
        ea:bf:5a:73:5d:b2:4e:c9:ff:96:6e:2d:3d:01:5e:94:21:bd:
        1f:b6:95:61
-----BEGIN CERTIFICATE-----
MIID5TCCAs2gAwIBAgIUFj3QlB6naD9z+Dp+Wbo+CHTsno8wDQYJKoZIhvcNAQEL
BQAwDDEKMAgGA1UEAwwBSTAeFw0yMjEwMDUxMjAwMDBaFw0yMzEwMDUxMjAwMDBa
MBExDzANBgNVBAMMBnRhcmdldDCCASIwDQYJKoZIhvcNAQEBBQADggEPADCCAQoC
ggEBAMwiCFjCBIrdJhCekhAunMFvxQhScZVTOLXL0L9GVDeL3JOM9AFzHFsDnefA
Nr2vM9Eql7asJI6TndGOAf2WL4kzceYY4bUE+6ysBddfBLmDr/LT3k3qWAJqOZzy
140lvbYO63xxGwCrd+84dVd3sluswl3rPJ4KQy28i0vwboO175sdNSIlsDcRaZ5C
Y60K2vKnTHb4MArHgldDqgcI7aigLUZja6qRxuvVpO3NJ0hP9PAGX5V8JsyyvHMV
5DSeFiDSrycT4Q3iiJsQNK7nVRAAAGwZb3hSrjdt4yZKaVlAstfxLCtGLpXUDgvn
BpsyAb4v2hL0rBXsCBENSk4cPLUCAwEAAaOCATgwggE0MB0GA1UdDgQWBBRVAOK/
gqveOEiFUrMg1SZVaQ5HMzAfBgNVHSMEGDAWgBQPIReUQLGmfFn6HMU4z2LohIsc
LDCBhAYIKwYBBQUHAQEEeDB2MCQGCCsGAQUFBzAChhhodHRwOi8vdXJsLWZvci1h
aWEvSS5jZXIwJgYIKwYBBQUHMAKGGmh0dHA6Ly91cmwtZm9yLWFpYTIvSTIuZm9v
MCYGCCsGAQUFBzAChhpodHRwOi8vdXJsLWZvci1haWEzL0kzLmZvbzApBgNVHR8E
IjAgMB6gHKAahhhodHRwOi8vdXJsLWZvci1jcmwvSS5jcmwwDgYDVR0PAQH/BAQD
AgWgMB0GA1UdJQQWMBQGCCsGAQUFBwMBBggrBgEFBQcDAjARBgNVHREECjAIggZ0
YXJnZXQwDQYJKoZIhvcNAQELBQADggEBAAU/38wG7Zts/g34rZ8wcJWaEpgLQAPg
emh+qtuP0KWMLL5skds9lkQpib0UDMPy/2EGu0+Pa7Fm3Jni+nmL5WBroCfVuwYR
7zuHfM88vQx2ZT3XqCaLZ/NVqfijDy4gN76nujadBjIWQ4HZAUE7GbLnnSJn/qR4
RiYRj5BtG7okG6tjW5a/ayB7kOogbCnN+fH7cjL2D9YFN2yFMfLU9d+avbNEzumU
wmt9X9/y35kqxP98WpmKFy4hSPmxaVVOhM1RPKmH7kISl8fa2hUWDxwGagO0Narm
5Ak3wzoTLP0ocPqA8Pweo0zjzOq/WnNdsk7J/5ZuLT0BXpQhvR+2lWE=
-----END CERTIFICATE-----
