Certificate:
    Data:
        Version: 3 (0x2)
        Serial Number:
            16:3d:d0:94:1e:a7:68:3f:73:f8:3a:7e:59:ba:3e:08:74:ec:9e:8d
        Signature Algorithm: sha256WithRSAEncryption
        Issuer: CN=I
        Validity
            Not Before: Oct  5 12:00:00 2022 GMT
            Not After : Oct  5 12:00:00 2023 GMT
        Subject: CN=target
        Subject Public Key Info:
            Public Key Algorithm: rsaEncryption
                Public-Key: (2048 bit)
                Modulus:
                    00:cc:22:08:58:c2:04:8a:dd:26:10:9e:92:10:2e:
                    9c:c1:6f:c5:08:52:71:95:53:38:b5:cb:d0:bf:46:
                    54:37:8b:dc:93:8c:f4:01:73:1c:5b:03:9d:e7:c0:
                    36:bd:af:33:d1:2a:97:b6:ac:24:8e:93:9d:d1:8e:
                    01:fd:96:2f:89:33:71:e6:18:e1:b5:04:fb:ac:ac:
                    05:d7:5f:04:b9:83:af:f2:d3:de:4d:ea:58:02:6a:
                    39:9c:f2:d7:8d:25:bd:b6:0e:eb:7c:71:1b:00:ab:
                    77:ef:38:75:57:77:b2:5b:ac:c2:5d:eb:3c:9e:0a:
                    43:2d:bc:8b:4b:f0:6e:83:b5:ef:9b:1d:35:22:25:
                    b0:37:11:69:9e:42:63:ad:0a:da:f2:a7:4c:76:f8:
                    30:0a:c7:82:57:43:aa:07:08:ed:a8:a0:2d:46:63:
                    6b:aa:91:c6:eb:d5:a4:ed:cd:27:48:4f:f4:f0:06:
                    5f:95:7c:26:cc:b2:bc:73:15:e4:34:9e:16:20:d2:
                    af:27:13:e1:0d:e2:88:9b:10:34:ae:e7:55:10:00:
                    00:6c:19:6f:78:52:ae:37:6d:e3:26:4a:69:59:40:
                    b2:d7:f1:2c:2b:46:2e:95:d4:0e:0b:e7:06:9b:32:
                    01:be:2f:da:12:f4:ac:15:ec:08:11:0d:4a:4e:1c:
                    3c:b5
                Exponent: 65537 (0x10001)
        X509v3 extensions:
            X509v3 Subject Key Identifier: 
                55:00:E2:BF:82:AB:DE:38:48:85:52:B3:20:D5:26:55:69:0E:47:33
            X509v3 Authority Key Identifier: 
                0F:21:17:94:40:B1:A6:7C:59:FA:1C:C5:38:CF:62:E8:84:8B:1C:2C
            X509v3 CRL Distribution Points: 
                Full Name:
                  URI:http://url-for-crl/I.crl
            X509v3 Key Usage: critical
                Digital Signature, Key Encipherment
            X509v3 Extended Key Usage: 
                TLS Web Server Authentication, TLS Web Client Authentication
            X509v3 Subject Alternative Name: 
                DNS:target
    Signature Algorithm: sha256WithRSAEncryption
    Signature Value:
        9b:0a:e1:cf:6f:58:84:8f:2f:8f:e2:7b:39:7a:7c:fc:e5:ab:
        85:1a:ad:d8:55:0c:5e:42:5c:51:37:25:81:08:9d:6b:85:42:
        88:68:e2:59:ca:b1:48:4f:8f:55:73:41:a3:11:1b:ef:1b:ad:
        75:c8:e9:c9:04:7d:a8:f4:ce:93:d5:c4:12:31:8a:21:67:fe:
        72:f7:58:66:6f:d8:f9:14:9f:79:37:11:ab:1a:ca:1b:6b:db:
        10:51:81:97:c4:71:03:e3:cf:55:77:d7:1c:45:a0:18:48:64:
        6c:a1:ab:4e:78:7d:a5:7f:ba:8c:55:5a:9a:b1:9d:ab:8a:0a:
        94:7f:26:f6:32:dd:c4:72:d9:a5:1d:d9:5b:83:a2:6a:89:c2:
        81:70:15:c7:67:ac:07:0f:8f:28:18:70:03:9c:34:8d:4c:bb:
        a2:1b:e4:0b:25:ba:d8:48:94:d3:5c:e4:f6:1e:da:f2:79:ab:
        a6:a4:80:28:0a:24:2e:56:45:c1:2c:00:f3:46:a1:ef:96:fd:
        44:5d:6b:18:57:47:46:4e:b4:81:21:ea:99:81:d6:81:8c:d9:
        2f:9a:80:83:18:db:ff:e2:fa:66:50:4c:83:86:9f:02:64:c2:
        42:e2:b4:3f:c1:8f:31:b2:a4:71:d5:40:b4:7e:bb:f8:60:01:
        f2:a5:1e:20
-----BEGIN CERTIFICATE-----
MIIDXDCCAkSgAwIBAgIUFj3QlB6naD9z+Dp+Wbo+CHTsno0wDQYJKoZIhvcNAQEL
BQAwDDEKMAgGA1UEAwwBSTAeFw0yMjEwMDUxMjAwMDBaFw0yMzEwMDUxMjAwMDBa
MBExDzANBgNVBAMMBnRhcmdldDCCASIwDQYJKoZIhvcNAQEBBQADggEPADCCAQoC
ggEBAMwiCFjCBIrdJhCekhAunMFvxQhScZVTOLXL0L9GVDeL3JOM9AFzHFsDnefA
Nr2vM9Eql7asJI6TndGOAf2WL4kzceYY4bUE+6ysBddfBLmDr/LT3k3qWAJqOZzy
140lvbYO63xxGwCrd+84dVd3sluswl3rPJ4KQy28i0vwboO175sdNSIlsDcRaZ5C
Y60K2vKnTHb4MArHgldDqgcI7aigLUZja6qRxuvVpO3NJ0hP9PAGX5V8JsyyvHMV
5DSeFiDSrycT4Q3iiJsQNK7nVRAAAGwZb3hSrjdt4yZKaVlAstfxLCtGLpXUDgvn
BpsyAb4v2hL0rBXsCBENSk4cPLUCAwEAAaOBsDCBrTAdBgNVHQ4EFgQUVQDiv4Kr
3jhIhVKzINUmVWkORzMwHwYDVR0jBBgwFoAUDyEXlECxpnxZ+hzFOM9i6ISLHCww
KQYDVR0fBCIwIDAeoBygGoYYaHR0cDovL3VybC1mb3ItY3JsL0kuY3JsMA4GA1Ud
DwEB/wQEAwIFoDAdBgNVHSUEFjAUBggrBgEFBQcDAQYIKwYBBQUHAwIwEQYDVR0R
BAowCIIGdGFyZ2V0MA0GCSqGSIb3DQEBCwUAA4IBAQCbCuHPb1iEjy+P4ns5enz8
5auFGq3YVQxeQlxRNyWBCJ1rhUKIaOJZyrFIT49Vc0GjERvvG611yOnJBH2o9M6T
1cQSMYohZ/5y91hmb9j5FJ95NxGrGsoba9sQUYGXxHED489Vd9ccRaAYSGRsoatO
eH2lf7qMVVqasZ2rigqUfyb2Mt3EctmlHdlbg6JqicKBcBXHZ6wHD48oGHADnDSN
TLuiG+QLJbrYSJTTXOT2HtryeaumpIAoCiQuVkXBLADzRqHvlv1EXWsYV0dGTrSB
IeqZgdaBjNkvmoCDGNv/4vpmUEyDhp8CZMJC4rQ/wY8xsqRx1UC0frv4YAHypR4g
-----END CERTIFICATE-----
