Certificate:
    Data:
        Version: 3 (0x2)
        Serial Number:
            16:3d:d0:94:1e:a7:68:3f:73:f8:3a:7e:59:ba:3e:08:74:ec:9e:91
        Signature Algorithm: sha256WithRSAEncryption
        Issuer: CN=I
        Validity
            Not Before: Oct  5 12:00:00 2022 GMT
            Not After : Oct  5 12:00:00 2023 GMT
        Subject: CN=target
        Subject Public Key Info:
            Public Key Algorithm: rsaEncryption
                Public-Key: (2048 bit)
                Modulus:
                    00:cc:22:08:58:c2:04:8a:dd:26:10:9e:92:10:2e:
                    9c:c1:6f:c5:08:52:71:95:53:38:b5:cb:d0:bf:46:
                    54:37:8b:dc:93:8c:f4:01:73:1c:5b:03:9d:e7:c0:
                    36:bd:af:33:d1:2a:97:b6:ac:24:8e:93:9d:d1:8e:
                    01:fd:96:2f:89:33:71:e6:18:e1:b5:04:fb:ac:ac:
                    05:d7:5f:04:b9:83:af:f2:d3:de:4d:ea:58:02:6a:
                    39:9c:f2:d7:8d:25:bd:b6:0e:eb:7c:71:1b:00:ab:
                    77:ef:38:75:57:77:b2:5b:ac:c2:5d:eb:3c:9e:0a:
                    43:2d:bc:8b:4b:f0:6e:83:b5:ef:9b:1d:35:22:25:
                    b0:37:11:69:9e:42:63:ad:0a:da:f2:a7:4c:76:f8:
                    30:0a:c7:82:57:43:aa:07:08:ed:a8:a0:2d:46:63:
                    6b:aa:91:c6:eb:d5:a4:ed:cd:27:48:4f:f4:f0:06:
                    5f:95:7c:26:cc:b2:bc:73:15:e4:34:9e:16:20:d2:
                    af:27:13:e1:0d:e2:88:9b:10:34:ae:e7:55:10:00:
                    00:6c:19:6f:78:52:ae:37:6d:e3:26:4a:69:59:40:
                    b2:d7:f1:2c:2b:46:2e:95:d4:0e:0b:e7:06:9b:32:
                    01:be:2f:da:12:f4:ac:15:ec:08:11:0d:4a:4e:1c:
                    3c:b5
                Exponent: 65537 (0x10001)
        X509v3 extensions:
            X509v3 Subject Key Identifier: 
                55:00:E2:BF:82:AB:DE:38:48:85:52:B3:20:D5:26:55:69:0E:47:33
            X509v3 Authority Key Identifier: 
                0F:21:17:94:40:B1:A6:7C:59:FA:1C:C5:38:CF:62:E8:84:8B:1C:2C
            Authority Information Access: 
                CA Issuers - URI:file:///dev/null
            X509v3 CRL Distribution Points: 
                Full Name:
                  URI:http://url-for-crl/I.crl
            X509v3 Key Usage: critical
                Digital Signature, Key Encipherment
            X509v3 Extended Key Usage: 
                TLS Web Server Authentication, TLS Web Client Authentication
            X509v3 Subject Alternative Name: 
                DNS:target
    Signature Algorithm: sha256WithRSAEncryption
    Signature Value:
        43:75:94:25:78:af:69:67:10:18:b8:d2:81:af:5e:13:75:50:
        27:4b:17:d6:8d:4b:75:43:f9:ed:44:19:a8:8e:65:73:e4:28:
        d1:22:21:26:af:cf:18:07:98:c5:1a:ee:c1:dd:c5:70:80:27:
        50:b5:ce:ed:70:64:1d:15:e8:9a:4d:49:cc:7e:89:99:48:a4:
        c4:eb:4a:9e:1b:04:13:bb:f9:1e:0d:3f:bc:da:f6:49:8f:d1:
        df:48:4b:7d:8c:a1:5c:c6:50:ab:92:4e:c7:a1:48:8c:51:de:
        06:1d:54:0f:f9:18:d4:da:15:8f:cf:35:55:7f:8a:86:91:36:
        ed:c1:15:7e:f8:7a:b5:a7:8d:18:24:66:ff:10:18:3c:a1:b3:
        cf:15:84:d7:ab:45:d2:ab:71:eb:00:80:db:71:8f:1f:31:14:
        44:a5:f9:6f:50:15:41:1a:58:36:41:ba:c7:e5:94:0e:14:67:
        c8:2b:7c:0f:90:0e:4c:b0:87:bf:f6:11:29:8d:b1:42:9b:ff:
        bf:3b:e1:9d:96:28:23:16:f7:3c:8b:fe:da:d7:ca:2d:52:4b:
        a8:ff:d2:b7:17:6a:5e:04:95:63:29:b0:b1:8a:38:9c:5b:0b:
        8a:93:97:1b:c7:05:1a:77:93:5e:a0:24:72:a3:b2:14:b8:3f:
        e1:68:a2:a3
-----BEGIN CERTIFICATE-----
MIIDijCCAnKgAwIBAgIUFj3QlB6naD9z+Dp+Wbo+CHTsnpEwDQYJKoZIhvcNAQEL
BQAwDDEKMAgGA1UEAwwBSTAeFw0yMjEwMDUxMjAwMDBaFw0yMzEwMDUxMjAwMDBa
MBExDzANBgNVBAMMBnRhcmdldDCCASIwDQYJKoZIhvcNAQEBBQADggEPADCCAQoC
ggEBAMwiCFjCBIrdJhCekhAunMFvxQhScZVTOLXL0L9GVDeL3JOM9AFzHFsDnefA
Nr2vM9Eql7asJI6TndGOAf2WL4kzceYY4bUE+6ysBddfBLmDr/LT3k3qWAJqOZzy
140lvbYO63xxGwCrd+84dVd3sluswl3rPJ4KQy28i0vwboO175sdNSIlsDcRaZ5C
Y60K2vKnTHb4MArHgldDqgcI7aigLUZja6qRxuvVpO3NJ0hP9PAGX5V8JsyyvHMV
5DSeFiDSrycT4Q3iiJsQNK7nVRAAAGwZb3hSrjdt4yZKaVlAstfxLCtGLpXUDgvn
BpsyAb4v2hL0rBXsCBENSk4cPLUCAwEAAaOB3jCB2zAdBgNVHQ4EFgQUVQDiv4Kr
3jhIhVKzINUmVWkORzMwHwYDVR0jBBgwFoAUDyEXlECxpnxZ+hzFOM9i6ISLHCww
LAYIKwYBBQUHAQEEIDAeMBwGCCsGAQUFBzAChhBmaWxlOi8vL2Rldi9udWxsMCkG
A1UdHwQiMCAwHqAcoBqGGGh0dHA6Ly91cmwtZm9yLWNybC9JLmNybDAOBgNVHQ8B
Af8EBAMCBaAwHQYDVR0lBBYwFAYIKwYBBQUHAwEGCCsGAQUFBwMCMBEGA1UdEQQK
MAiCBnRhcmdldDANBgkqhkiG9w0BAQsFAAOCAQEAQ3WUJXivaWcQGLjSga9eE3VQ
J0sX1o1LdUP57UQZqI5lc+Qo0SIhJq/PGAeYxRruwd3FcIAnULXO7XBkHRXomk1J
zH6JmUikxOtKnhsEE7v5Hg0/vNr2SY/R30hLfYyhXMZQq5JOx6FIjFHeBh1UD/kY
1NoVj881VX+KhpE27cEVfvh6taeNGCRm/xAYPKGzzxWE16tF0qtx6wCA23GPHzEU
RKX5b1AVQRpYNkG6x+WUDhRnyCt8D5AOTLCHv/YRKY2xQpv/vzvhnZYoIxb3PIv+
2tfKLVJLqP/StxdqXgSVYymwsYo4nFsLipOXG8cFGneTXqAkcqOyFLg/4Wiiow==
-----END CERTIFICATE-----
