Certificate:
    Data:
        Version: 3 (0x2)
        Serial Number:
            16:3d:d0:94:1e:a7:68:3f:73:f8:3a:7e:59:ba:3e:08:74:ec:9e:8d
        Signature Algorithm: sha256WithRSAEncryption
        Issuer: CN=I
        Validity
            Not Before: Nov  3 12:00:00 2020 GMT
            Not After : Nov  3 12:00:00 2021 GMT
        Subject: CN=target
        Subject Public Key Info:
            Public Key Algorithm: rsaEncryption
                RSA Public-Key: (2048 bit)
                Modulus:
                    00:cc:22:08:58:c2:04:8a:dd:26:10:9e:92:10:2e:
                    9c:c1:6f:c5:08:52:71:95:53:38:b5:cb:d0:bf:46:
                    54:37:8b:dc:93:8c:f4:01:73:1c:5b:03:9d:e7:c0:
                    36:bd:af:33:d1:2a:97:b6:ac:24:8e:93:9d:d1:8e:
                    01:fd:96:2f:89:33:71:e6:18:e1:b5:04:fb:ac:ac:
                    05:d7:5f:04:b9:83:af:f2:d3:de:4d:ea:58:02:6a:
                    39:9c:f2:d7:8d:25:bd:b6:0e:eb:7c:71:1b:00:ab:
                    77:ef:38:75:57:77:b2:5b:ac:c2:5d:eb:3c:9e:0a:
                    43:2d:bc:8b:4b:f0:6e:83:b5:ef:9b:1d:35:22:25:
                    b0:37:11:69:9e:42:63:ad:0a:da:f2:a7:4c:76:f8:
                    30:0a:c7:82:57:43:aa:07:08:ed:a8:a0:2d:46:63:
                    6b:aa:91:c6:eb:d5:a4:ed:cd:27:48:4f:f4:f0:06:
                    5f:95:7c:26:cc:b2:bc:73:15:e4:34:9e:16:20:d2:
                    af:27:13:e1:0d:e2:88:9b:10:34:ae:e7:55:10:00:
                    00:6c:19:6f:78:52:ae:37:6d:e3:26:4a:69:59:40:
                    b2:d7:f1:2c:2b:46:2e:95:d4:0e:0b:e7:06:9b:32:
                    01:be:2f:da:12:f4:ac:15:ec:08:11:0d:4a:4e:1c:
                    3c:b5
                Exponent: 65537 (0x10001)
        X509v3 extensions:
            X509v3 Subject Key Identifier: 
                55:00:E2:BF:82:AB:DE:38:48:85:52:B3:20:D5:26:55:69:0E:47:33
            X509v3 Authority Key Identifier: 
                keyid:0F:21:17:94:40:B1:A6:7C:59:FA:1C:C5:38:CF:62:E8:84:8B:1C:2C

            X509v3 CRL Distribution Points: 

                Full Name:
                  URI:http://url-for-crl/I.crl

            X509v3 Key Usage: critical
                Digital Signature, Key Encipherment
            X509v3 Extended Key Usage: 
                TLS Web Server Authentication, TLS Web Client Authentication
            X509v3 Subject Alternative Name: 
                DNS:target
    Signature Algorithm: sha256WithRSAEncryption
         a4:5d:2e:4a:56:b8:22:c8:2c:f8:a0:b6:c8:55:94:90:db:ec:
         09:1e:ff:5e:67:75:d0:f5:00:53:4a:38:25:b6:66:1c:69:20:
         fa:06:09:a1:81:5c:2c:5a:35:34:7f:28:34:c4:30:37:1b:82:
         8c:81:79:dd:4a:40:aa:63:b9:04:2b:4b:41:ae:3b:3c:ba:b3:
         f1:07:2c:41:d1:e0:ba:58:05:51:13:50:56:9c:36:cb:30:82:
         97:35:6f:a8:70:2a:9b:1f:4f:c6:ca:8f:66:71:72:84:60:49:
         7e:f1:7c:35:c7:80:b5:68:13:52:11:80:89:e7:a6:e9:56:0b:
         56:d1:16:fe:9e:f9:48:9e:ad:8a:23:68:3b:0a:11:b7:92:c5:
         cd:37:03:5c:47:b0:ae:ec:4d:b5:c9:e1:d2:2f:76:41:be:7d:
         d4:f2:e1:d6:9c:e3:0d:0d:f0:df:7c:56:ae:df:47:5c:bb:89:
         e2:27:fc:e8:6b:a0:be:84:4f:29:97:3e:ef:c2:a7:a6:cb:31:
         16:24:9e:dd:11:d7:51:41:07:c4:5d:cf:ca:83:4c:f9:b4:4b:
         40:3f:58:3b:f9:fb:e7:fe:b4:b0:32:d1:74:c3:c8:a2:4c:12:
         e1:77:c6:dc:69:1b:16:76:37:dd:72:07:e7:5b:f8:3a:95:ee:
         b2:c5:31:68
-----BEGIN CERTIFICATE-----
MIIDXDCCAkSgAwIBAgIUFj3QlB6naD9z+Dp+Wbo+CHTsno0wDQYJKoZIhvcNAQEL
BQAwDDEKMAgGA1UEAwwBSTAeFw0yMDExMDMxMjAwMDBaFw0yMTExMDMxMjAwMDBa
MBExDzANBgNVBAMMBnRhcmdldDCCASIwDQYJKoZIhvcNAQEBBQADggEPADCCAQoC
ggEBAMwiCFjCBIrdJhCekhAunMFvxQhScZVTOLXL0L9GVDeL3JOM9AFzHFsDnefA
Nr2vM9Eql7asJI6TndGOAf2WL4kzceYY4bUE+6ysBddfBLmDr/LT3k3qWAJqOZzy
140lvbYO63xxGwCrd+84dVd3sluswl3rPJ4KQy28i0vwboO175sdNSIlsDcRaZ5C
Y60K2vKnTHb4MArHgldDqgcI7aigLUZja6qRxuvVpO3NJ0hP9PAGX5V8JsyyvHMV
5DSeFiDSrycT4Q3iiJsQNK7nVRAAAGwZb3hSrjdt4yZKaVlAstfxLCtGLpXUDgvn
BpsyAb4v2hL0rBXsCBENSk4cPLUCAwEAAaOBsDCBrTAdBgNVHQ4EFgQUVQDiv4Kr
3jhIhVKzINUmVWkORzMwHwYDVR0jBBgwFoAUDyEXlECxpnxZ+hzFOM9i6ISLHCww
KQYDVR0fBCIwIDAeoBygGoYYaHR0cDovL3VybC1mb3ItY3JsL0kuY3JsMA4GA1Ud
DwEB/wQEAwIFoDAdBgNVHSUEFjAUBggrBgEFBQcDAQYIKwYBBQUHAwIwEQYDVR0R
BAowCIIGdGFyZ2V0MA0GCSqGSIb3DQEBCwUAA4IBAQCkXS5KVrgiyCz4oLbIVZSQ
2+wJHv9eZ3XQ9QBTSjgltmYcaSD6BgmhgVwsWjU0fyg0xDA3G4KMgXndSkCqY7kE
K0tBrjs8urPxByxB0eC6WAVRE1BWnDbLMIKXNW+ocCqbH0/Gyo9mcXKEYEl+8Xw1
x4C1aBNSEYCJ56bpVgtW0Rb+nvlInq2KI2g7ChG3ksXNNwNcR7Cu7E21yeHSL3ZB
vn3U8uHWnOMNDfDffFau30dcu4niJ/zoa6C+hE8plz7vwqemyzEWJJ7dEddRQQfE
Xc/Kg0z5tEtAP1g7+fvn/rSwMtF0w8iiTBLhd8bcaRsWdjfdcgfnW/g6le6yxTFo
-----END CERTIFICATE-----
