Certificate:
    Data:
        Version: 3 (0x2)
        Serial Number:
            16:3d:d0:94:1e:a7:68:3f:73:f8:3a:7e:59:ba:3e:08:74:ec:9e:90
        Signature Algorithm: sha256WithRSAEncryption
        Issuer: CN=I
        Validity
            Not Before: Oct  5 12:00:00 2021 GMT
            Not After : Oct  5 12:00:00 2022 GMT
        Subject: CN=target
        Subject Public Key Info:
            Public Key Algorithm: rsaEncryption
                RSA Public-Key: (2048 bit)
                Modulus:
                    00:cc:22:08:58:c2:04:8a:dd:26:10:9e:92:10:2e:
                    9c:c1:6f:c5:08:52:71:95:53:38:b5:cb:d0:bf:46:
                    54:37:8b:dc:93:8c:f4:01:73:1c:5b:03:9d:e7:c0:
                    36:bd:af:33:d1:2a:97:b6:ac:24:8e:93:9d:d1:8e:
                    01:fd:96:2f:89:33:71:e6:18:e1:b5:04:fb:ac:ac:
                    05:d7:5f:04:b9:83:af:f2:d3:de:4d:ea:58:02:6a:
                    39:9c:f2:d7:8d:25:bd:b6:0e:eb:7c:71:1b:00:ab:
                    77:ef:38:75:57:77:b2:5b:ac:c2:5d:eb:3c:9e:0a:
                    43:2d:bc:8b:4b:f0:6e:83:b5:ef:9b:1d:35:22:25:
                    b0:37:11:69:9e:42:63:ad:0a:da:f2:a7:4c:76:f8:
                    30:0a:c7:82:57:43:aa:07:08:ed:a8:a0:2d:46:63:
                    6b:aa:91:c6:eb:d5:a4:ed:cd:27:48:4f:f4:f0:06:
                    5f:95:7c:26:cc:b2:bc:73:15:e4:34:9e:16:20:d2:
                    af:27:13:e1:0d:e2:88:9b:10:34:ae:e7:55:10:00:
                    00:6c:19:6f:78:52:ae:37:6d:e3:26:4a:69:59:40:
                    b2:d7:f1:2c:2b:46:2e:95:d4:0e:0b:e7:06:9b:32:
                    01:be:2f:da:12:f4:ac:15:ec:08:11:0d:4a:4e:1c:
                    3c:b5
                Exponent: 65537 (0x10001)
        X509v3 extensions:
            X509v3 Subject Key Identifier: 
                55:00:E2:BF:82:AB:DE:38:48:85:52:B3:20:D5:26:55:69:0E:47:33
            X509v3 Authority Key Identifier: 
                keyid:0F:21:17:94:40:B1:A6:7C:59:FA:1C:C5:38:CF:62:E8:84:8B:1C:2C

            Authority Information Access: 
                CA Issuers - URI:http://url-for-aia/I.cer
                CA Issuers - URI:http://url-for-aia2/I2.foo
                CA Issuers - URI:http://url-for-aia3/I3.foo
                CA Issuers - URI:http://url-for-aia4/I4.foo
                CA Issuers - URI:http://url-for-aia5/I5.foo
                CA Issuers - URI:http://url-for-aia6/I6.foo

            X509v3 CRL Distribution Points: 

                Full Name:
                  URI:http://url-for-crl/I.crl

            X509v3 Key Usage: critical
                Digital Signature, Key Encipherment
            X509v3 Extended Key Usage: 
                TLS Web Server Authentication, TLS Web Client Authentication
            X509v3 Subject Alternative Name: 
                DNS:target
    Signature Algorithm: sha256WithRSAEncryption
         a2:4b:a9:ce:c7:2a:75:af:2e:70:38:aa:48:42:37:5b:a5:20:
         79:f7:c7:bc:53:f7:3b:7a:7c:77:1b:dc:68:56:0b:51:1f:32:
         f9:17:83:93:d5:29:0b:a8:70:cc:79:07:6d:1b:a4:f0:37:d5:
         b6:22:fd:06:95:8a:19:a1:77:c0:66:5e:9e:70:67:49:c9:56:
         c1:9d:70:f2:aa:d9:18:30:09:49:df:16:de:d6:0f:5b:67:e9:
         39:9c:34:a6:d3:57:6c:19:7f:d6:41:20:60:bf:b7:2a:84:4f:
         6b:51:e1:01:7c:cb:07:de:64:2b:c6:20:cf:e2:e6:b0:14:e8:
         15:88:27:de:47:a9:a2:88:e6:b6:57:f1:66:c7:94:63:c6:12:
         69:27:27:b3:a2:99:3b:ce:0d:0c:f7:0c:fe:68:e5:6b:68:03:
         03:f5:06:0e:d7:ec:4a:33:c3:3e:ab:59:3d:95:38:f6:0e:db:
         39:dc:4c:2e:9b:b1:93:2f:c7:c1:b9:72:23:96:d4:c4:16:51:
         d8:51:b6:8d:d8:8d:b9:50:59:ff:2c:90:d3:1e:82:7b:53:d5:
         3b:2f:04:82:74:4b:87:80:cd:13:a8:7b:00:a4:5c:36:c0:0a:
         9b:91:b3:51:57:64:09:01:64:5f:7c:6c:06:88:38:12:76:58:
         3c:33:60:cd
-----BEGIN CERTIFICATE-----
MIIEXzCCA0egAwIBAgIUFj3QlB6naD9z+Dp+Wbo+CHTsnpAwDQYJKoZIhvcNAQEL
BQAwDDEKMAgGA1UEAwwBSTAeFw0yMTEwMDUxMjAwMDBaFw0yMjEwMDUxMjAwMDBa
MBExDzANBgNVBAMMBnRhcmdldDCCASIwDQYJKoZIhvcNAQEBBQADggEPADCCAQoC
ggEBAMwiCFjCBIrdJhCekhAunMFvxQhScZVTOLXL0L9GVDeL3JOM9AFzHFsDnefA
Nr2vM9Eql7asJI6TndGOAf2WL4kzceYY4bUE+6ysBddfBLmDr/LT3k3qWAJqOZzy
140lvbYO63xxGwCrd+84dVd3sluswl3rPJ4KQy28i0vwboO175sdNSIlsDcRaZ5C
Y60K2vKnTHb4MArHgldDqgcI7aigLUZja6qRxuvVpO3NJ0hP9PAGX5V8JsyyvHMV
5DSeFiDSrycT4Q3iiJsQNK7nVRAAAGwZb3hSrjdt4yZKaVlAstfxLCtGLpXUDgvn
BpsyAb4v2hL0rBXsCBENSk4cPLUCAwEAAaOCAbIwggGuMB0GA1UdDgQWBBRVAOK/
gqveOEiFUrMg1SZVaQ5HMzAfBgNVHSMEGDAWgBQPIReUQLGmfFn6HMU4z2LohIsc
LDCB/gYIKwYBBQUHAQEEgfEwge4wJAYIKwYBBQUHMAKGGGh0dHA6Ly91cmwtZm9y
LWFpYS9JLmNlcjAmBggrBgEFBQcwAoYaaHR0cDovL3VybC1mb3ItYWlhMi9JMi5m
b28wJgYIKwYBBQUHMAKGGmh0dHA6Ly91cmwtZm9yLWFpYTMvSTMuZm9vMCYGCCsG
AQUFBzAChhpodHRwOi8vdXJsLWZvci1haWE0L0k0LmZvbzAmBggrBgEFBQcwAoYa
aHR0cDovL3VybC1mb3ItYWlhNS9JNS5mb28wJgYIKwYBBQUHMAKGGmh0dHA6Ly91
cmwtZm9yLWFpYTYvSTYuZm9vMCkGA1UdHwQiMCAwHqAcoBqGGGh0dHA6Ly91cmwt
Zm9yLWNybC9JLmNybDAOBgNVHQ8BAf8EBAMCBaAwHQYDVR0lBBYwFAYIKwYBBQUH
AwEGCCsGAQUFBwMCMBEGA1UdEQQKMAiCBnRhcmdldDANBgkqhkiG9w0BAQsFAAOC
AQEAokupzscqda8ucDiqSEI3W6UgeffHvFP3O3p8dxvcaFYLUR8y+ReDk9UpC6hw
zHkHbRuk8DfVtiL9BpWKGaF3wGZennBnSclWwZ1w8qrZGDAJSd8W3tYPW2fpOZw0
ptNXbBl/1kEgYL+3KoRPa1HhAXzLB95kK8Ygz+LmsBToFYgn3kepoojmtlfxZseU
Y8YSaScns6KZO84NDPcM/mjla2gDA/UGDtfsSjPDPqtZPZU49g7bOdxMLpuxky/H
wblyI5bUxBZR2FG2jdiNuVBZ/yyQ0x6Ce1PVOy8EgnRLh4DNE6h7AKRcNsAKm5Gz
UVdkCQFkX3xsBog4EnZYPDNgzQ==
-----END CERTIFICATE-----
