Certificate:
    Data:
        Version: 3 (0x2)
        Serial Number:
            16:3d:d0:94:1e:a7:68:3f:73:f8:3a:7e:59:ba:3e:08:74:ec:9e:92
        Signature Algorithm: sha256WithRSAEncryption
        Issuer: CN=I
        Validity
            Not Before: Nov  3 12:00:00 2020 GMT
            Not After : Nov  3 12:00:00 2021 GMT
        Subject: CN=target
        Subject Public Key Info:
            Public Key Algorithm: rsaEncryption
                RSA Public-Key: (2048 bit)
                Modulus:
                    00:cc:22:08:58:c2:04:8a:dd:26:10:9e:92:10:2e:
                    9c:c1:6f:c5:08:52:71:95:53:38:b5:cb:d0:bf:46:
                    54:37:8b:dc:93:8c:f4:01:73:1c:5b:03:9d:e7:c0:
                    36:bd:af:33:d1:2a:97:b6:ac:24:8e:93:9d:d1:8e:
                    01:fd:96:2f:89:33:71:e6:18:e1:b5:04:fb:ac:ac:
                    05:d7:5f:04:b9:83:af:f2:d3:de:4d:ea:58:02:6a:
                    39:9c:f2:d7:8d:25:bd:b6:0e:eb:7c:71:1b:00:ab:
                    77:ef:38:75:57:77:b2:5b:ac:c2:5d:eb:3c:9e:0a:
                    43:2d:bc:8b:4b:f0:6e:83:b5:ef:9b:1d:35:22:25:
                    b0:37:11:69:9e:42:63:ad:0a:da:f2:a7:4c:76:f8:
                    30:0a:c7:82:57:43:aa:07:08:ed:a8:a0:2d:46:63:
                    6b:aa:91:c6:eb:d5:a4:ed:cd:27:48:4f:f4:f0:06:
                    5f:95:7c:26:cc:b2:bc:73:15:e4:34:9e:16:20:d2:
                    af:27:13:e1:0d:e2:88:9b:10:34:ae:e7:55:10:00:
                    00:6c:19:6f:78:52:ae:37:6d:e3:26:4a:69:59:40:
                    b2:d7:f1:2c:2b:46:2e:95:d4:0e:0b:e7:06:9b:32:
                    01:be:2f:da:12:f4:ac:15:ec:08:11:0d:4a:4e:1c:
                    3c:b5
                Exponent: 65537 (0x10001)
        X509v3 extensions:
            X509v3 Subject Key Identifier: 
                55:00:E2:BF:82:AB:DE:38:48:85:52:B3:20:D5:26:55:69:0E:47:33
            X509v3 Authority Key Identifier: 
                keyid:0F:21:17:94:40:B1:A6:7C:59:FA:1C:C5:38:CF:62:E8:84:8B:1C:2C

            Authority Information Access: 
                CA Issuers - URI:foobar

            X509v3 CRL Distribution Points: 

                Full Name:
                  URI:http://url-for-crl/I.crl

            X509v3 Key Usage: critical
                Digital Signature, Key Encipherment
            X509v3 Extended Key Usage: 
                TLS Web Server Authentication, TLS Web Client Authentication
            X509v3 Subject Alternative Name: 
                DNS:target
    Signature Algorithm: sha256WithRSAEncryption
         81:7e:66:63:ea:c9:2e:be:3c:e4:5e:c8:99:48:d7:53:86:b8:
         de:20:3b:48:e6:59:11:87:4c:93:12:82:97:6a:99:ec:16:83:
         da:ee:6c:f5:8a:a8:51:d2:8a:1d:ba:e7:4f:bb:32:e2:77:89:
         87:a7:78:48:25:47:5d:db:33:12:56:49:b1:27:ee:a6:c8:ab:
         cc:f4:da:aa:c6:49:a4:51:f8:61:a5:a8:ee:44:ea:c8:01:86:
         60:66:02:86:54:d1:fa:dd:07:fd:70:54:c5:52:99:c3:81:d9:
         39:c5:80:10:21:2a:86:18:a3:ad:de:c9:9b:fe:e6:56:d0:6e:
         b2:c4:fb:ff:ef:3f:a8:94:7f:5e:4c:62:86:6d:a7:06:83:a8:
         26:a7:a5:8f:c1:21:39:1d:ff:e1:ca:47:f3:71:d3:d3:06:22:
         27:c2:ec:5d:09:c3:b2:7b:bf:5a:93:8d:df:af:74:0f:ba:1a:
         de:09:e1:a6:69:c5:ef:85:4e:09:20:cc:eb:7b:82:2c:a3:bc:
         83:be:8d:a1:13:e6:d1:79:83:6e:a5:9b:84:0b:a0:12:c6:d0:
         7d:04:2b:a4:24:23:05:8b:82:20:97:06:28:d9:ee:26:22:55:
         2f:a2:cf:f4:3f:e4:32:a9:fd:78:52:99:25:b1:00:de:17:e8:
         d7:06:71:3d
-----BEGIN CERTIFICATE-----
MIIDgDCCAmigAwIBAgIUFj3QlB6naD9z+Dp+Wbo+CHTsnpIwDQYJKoZIhvcNAQEL
BQAwDDEKMAgGA1UEAwwBSTAeFw0yMDExMDMxMjAwMDBaFw0yMTExMDMxMjAwMDBa
MBExDzANBgNVBAMMBnRhcmdldDCCASIwDQYJKoZIhvcNAQEBBQADggEPADCCAQoC
ggEBAMwiCFjCBIrdJhCekhAunMFvxQhScZVTOLXL0L9GVDeL3JOM9AFzHFsDnefA
Nr2vM9Eql7asJI6TndGOAf2WL4kzceYY4bUE+6ysBddfBLmDr/LT3k3qWAJqOZzy
140lvbYO63xxGwCrd+84dVd3sluswl3rPJ4KQy28i0vwboO175sdNSIlsDcRaZ5C
Y60K2vKnTHb4MArHgldDqgcI7aigLUZja6qRxuvVpO3NJ0hP9PAGX5V8JsyyvHMV
5DSeFiDSrycT4Q3iiJsQNK7nVRAAAGwZb3hSrjdt4yZKaVlAstfxLCtGLpXUDgvn
BpsyAb4v2hL0rBXsCBENSk4cPLUCAwEAAaOB1DCB0TAdBgNVHQ4EFgQUVQDiv4Kr
3jhIhVKzINUmVWkORzMwHwYDVR0jBBgwFoAUDyEXlECxpnxZ+hzFOM9i6ISLHCww
IgYIKwYBBQUHAQEEFjAUMBIGCCsGAQUFBzAChgZmb29iYXIwKQYDVR0fBCIwIDAe
oBygGoYYaHR0cDovL3VybC1mb3ItY3JsL0kuY3JsMA4GA1UdDwEB/wQEAwIFoDAd
BgNVHSUEFjAUBggrBgEFBQcDAQYIKwYBBQUHAwIwEQYDVR0RBAowCIIGdGFyZ2V0
MA0GCSqGSIb3DQEBCwUAA4IBAQCBfmZj6skuvjzkXsiZSNdThrjeIDtI5lkRh0yT
EoKXapnsFoPa7mz1iqhR0ooduudPuzLid4mHp3hIJUdd2zMSVkmxJ+6myKvM9Nqq
xkmkUfhhpajuROrIAYZgZgKGVNH63Qf9cFTFUpnDgdk5xYAQISqGGKOt3smb/uZW
0G6yxPv/7z+olH9eTGKGbacGg6gmp6WPwSE5Hf/hykfzcdPTBiInwuxdCcOye79a
k43fr3QPuhreCeGmacXvhU4JIMzre4Iso7yDvo2hE+bReYNupZuEC6ASxtB9BCuk
JCMFi4IglwYo2e4mIlUvos/0P+Qyqf14UpklsQDeF+jXBnE9
-----END CERTIFICATE-----
