Certificate:
    Data:
        Version: 3 (0x2)
        Serial Number:
            16:3d:d0:94:1e:a7:68:3f:73:f8:3a:7e:59:ba:3e:08:74:ec:9e:92
        Signature Algorithm: sha256WithRSAEncryption
        Issuer: CN=I
        Validity
            Not Before: Oct  5 12:00:00 2021 GMT
            Not After : Oct  5 12:00:00 2022 GMT
        Subject: CN=target
        Subject Public Key Info:
            Public Key Algorithm: rsaEncryption
                RSA Public-Key: (2048 bit)
                Modulus:
                    00:cc:22:08:58:c2:04:8a:dd:26:10:9e:92:10:2e:
                    9c:c1:6f:c5:08:52:71:95:53:38:b5:cb:d0:bf:46:
                    54:37:8b:dc:93:8c:f4:01:73:1c:5b:03:9d:e7:c0:
                    36:bd:af:33:d1:2a:97:b6:ac:24:8e:93:9d:d1:8e:
                    01:fd:96:2f:89:33:71:e6:18:e1:b5:04:fb:ac:ac:
                    05:d7:5f:04:b9:83:af:f2:d3:de:4d:ea:58:02:6a:
                    39:9c:f2:d7:8d:25:bd:b6:0e:eb:7c:71:1b:00:ab:
                    77:ef:38:75:57:77:b2:5b:ac:c2:5d:eb:3c:9e:0a:
                    43:2d:bc:8b:4b:f0:6e:83:b5:ef:9b:1d:35:22:25:
                    b0:37:11:69:9e:42:63:ad:0a:da:f2:a7:4c:76:f8:
                    30:0a:c7:82:57:43:aa:07:08:ed:a8:a0:2d:46:63:
                    6b:aa:91:c6:eb:d5:a4:ed:cd:27:48:4f:f4:f0:06:
                    5f:95:7c:26:cc:b2:bc:73:15:e4:34:9e:16:20:d2:
                    af:27:13:e1:0d:e2:88:9b:10:34:ae:e7:55:10:00:
                    00:6c:19:6f:78:52:ae:37:6d:e3:26:4a:69:59:40:
                    b2:d7:f1:2c:2b:46:2e:95:d4:0e:0b:e7:06:9b:32:
                    01:be:2f:da:12:f4:ac:15:ec:08:11:0d:4a:4e:1c:
                    3c:b5
                Exponent: 65537 (0x10001)
        X509v3 extensions:
            X509v3 Subject Key Identifier: 
                55:00:E2:BF:82:AB:DE:38:48:85:52:B3:20:D5:26:55:69:0E:47:33
            X509v3 Authority Key Identifier: 
                keyid:0F:21:17:94:40:B1:A6:7C:59:FA:1C:C5:38:CF:62:E8:84:8B:1C:2C

            Authority Information Access: 
                CA Issuers - URI:foobar

            X509v3 CRL Distribution Points: 

                Full Name:
                  URI:http://url-for-crl/I.crl

            X509v3 Key Usage: critical
                Digital Signature, Key Encipherment
            X509v3 Extended Key Usage: 
                TLS Web Server Authentication, TLS Web Client Authentication
            X509v3 Subject Alternative Name: 
                DNS:target
    Signature Algorithm: sha256WithRSAEncryption
         3f:84:7b:95:78:5b:22:6f:fd:5a:88:69:59:c4:cb:ea:f9:16:
         b0:d7:fc:16:01:b4:d6:34:44:37:c8:e9:94:73:7b:96:55:15:
         9e:71:80:b2:8a:89:d5:32:5e:a0:aa:16:dd:dd:eb:7a:88:ce:
         17:25:d3:f1:1c:3b:af:82:ad:7c:63:de:51:71:9e:76:48:71:
         e3:ee:bb:45:5c:ed:db:58:36:fc:24:22:04:4a:6c:47:d7:7c:
         f3:df:04:3e:b9:21:f9:60:eb:33:79:03:9d:2d:4e:45:e6:0a:
         0b:65:59:15:3a:e3:28:1c:6f:07:c4:0c:0f:dd:83:88:43:31:
         b5:30:dd:84:62:77:e4:c3:ab:55:28:a7:b9:24:fe:99:9e:1d:
         cd:ba:31:0d:4b:15:a4:94:fb:3b:59:b6:3a:15:00:bd:df:fe:
         78:2a:b1:a4:0e:42:0d:53:f9:1f:f0:bf:56:70:44:08:be:33:
         18:66:b6:8b:6f:e4:7c:92:b3:78:aa:95:22:fd:94:a4:6b:76:
         d7:44:f7:4e:89:d1:39:bc:f7:64:65:4c:8b:8d:6b:2b:2a:d1:
         36:af:c8:80:6f:12:3d:02:ed:4e:8e:d5:04:06:32:ae:04:81:
         e4:0e:07:a1:5d:5f:13:f9:da:a8:98:5f:6e:28:7b:2b:d3:40:
         9b:64:c7:45
-----BEGIN CERTIFICATE-----
MIIDgDCCAmigAwIBAgIUFj3QlB6naD9z+Dp+Wbo+CHTsnpIwDQYJKoZIhvcNAQEL
BQAwDDEKMAgGA1UEAwwBSTAeFw0yMTEwMDUxMjAwMDBaFw0yMjEwMDUxMjAwMDBa
MBExDzANBgNVBAMMBnRhcmdldDCCASIwDQYJKoZIhvcNAQEBBQADggEPADCCAQoC
ggEBAMwiCFjCBIrdJhCekhAunMFvxQhScZVTOLXL0L9GVDeL3JOM9AFzHFsDnefA
Nr2vM9Eql7asJI6TndGOAf2WL4kzceYY4bUE+6ysBddfBLmDr/LT3k3qWAJqOZzy
140lvbYO63xxGwCrd+84dVd3sluswl3rPJ4KQy28i0vwboO175sdNSIlsDcRaZ5C
Y60K2vKnTHb4MArHgldDqgcI7aigLUZja6qRxuvVpO3NJ0hP9PAGX5V8JsyyvHMV
5DSeFiDSrycT4Q3iiJsQNK7nVRAAAGwZb3hSrjdt4yZKaVlAstfxLCtGLpXUDgvn
BpsyAb4v2hL0rBXsCBENSk4cPLUCAwEAAaOB1DCB0TAdBgNVHQ4EFgQUVQDiv4Kr
3jhIhVKzINUmVWkORzMwHwYDVR0jBBgwFoAUDyEXlECxpnxZ+hzFOM9i6ISLHCww
IgYIKwYBBQUHAQEEFjAUMBIGCCsGAQUFBzAChgZmb29iYXIwKQYDVR0fBCIwIDAe
oBygGoYYaHR0cDovL3VybC1mb3ItY3JsL0kuY3JsMA4GA1UdDwEB/wQEAwIFoDAd
BgNVHSUEFjAUBggrBgEFBQcDAQYIKwYBBQUHAwIwEQYDVR0RBAowCIIGdGFyZ2V0
MA0GCSqGSIb3DQEBCwUAA4IBAQA/hHuVeFsib/1aiGlZxMvq+Raw1/wWAbTWNEQ3
yOmUc3uWVRWecYCyionVMl6gqhbd3et6iM4XJdPxHDuvgq18Y95RcZ52SHHj7rtF
XO3bWDb8JCIESmxH13zz3wQ+uSH5YOszeQOdLU5F5goLZVkVOuMoHG8HxAwP3YOI
QzG1MN2EYnfkw6tVKKe5JP6Znh3NujENSxWklPs7WbY6FQC93/54KrGkDkINU/kf
8L9WcEQIvjMYZraLb+R8krN4qpUi/ZSka3bXRPdOidE5vPdkZUyLjWsrKtE2r8iA
bxI9Au1OjtUEBjKuBIHkDgehXV8T+dqomF9uKHsr00CbZMdF
-----END CERTIFICATE-----
