Certificate:
    Data:
        Version: 3 (0x2)
        Serial Number:
            16:3d:d0:94:1e:a7:68:3f:73:f8:3a:7e:59:ba:3e:08:74:ec:9e:8f
        Signature Algorithm: sha256WithRSAEncryption
        Issuer: CN=I
        Validity
            Not Before: Nov  3 12:00:00 2020 GMT
            Not After : Nov  3 12:00:00 2021 GMT
        Subject: CN=target
        Subject Public Key Info:
            Public Key Algorithm: rsaEncryption
                RSA Public-Key: (2048 bit)
                Modulus:
                    00:cc:22:08:58:c2:04:8a:dd:26:10:9e:92:10:2e:
                    9c:c1:6f:c5:08:52:71:95:53:38:b5:cb:d0:bf:46:
                    54:37:8b:dc:93:8c:f4:01:73:1c:5b:03:9d:e7:c0:
                    36:bd:af:33:d1:2a:97:b6:ac:24:8e:93:9d:d1:8e:
                    01:fd:96:2f:89:33:71:e6:18:e1:b5:04:fb:ac:ac:
                    05:d7:5f:04:b9:83:af:f2:d3:de:4d:ea:58:02:6a:
                    39:9c:f2:d7:8d:25:bd:b6:0e:eb:7c:71:1b:00:ab:
                    77:ef:38:75:57:77:b2:5b:ac:c2:5d:eb:3c:9e:0a:
                    43:2d:bc:8b:4b:f0:6e:83:b5:ef:9b:1d:35:22:25:
                    b0:37:11:69:9e:42:63:ad:0a:da:f2:a7:4c:76:f8:
                    30:0a:c7:82:57:43:aa:07:08:ed:a8:a0:2d:46:63:
                    6b:aa:91:c6:eb:d5:a4:ed:cd:27:48:4f:f4:f0:06:
                    5f:95:7c:26:cc:b2:bc:73:15:e4:34:9e:16:20:d2:
                    af:27:13:e1:0d:e2:88:9b:10:34:ae:e7:55:10:00:
                    00:6c:19:6f:78:52:ae:37:6d:e3:26:4a:69:59:40:
                    b2:d7:f1:2c:2b:46:2e:95:d4:0e:0b:e7:06:9b:32:
                    01:be:2f:da:12:f4:ac:15:ec:08:11:0d:4a:4e:1c:
                    3c:b5
                Exponent: 65537 (0x10001)
        X509v3 extensions:
            X509v3 Subject Key Identifier: 
                55:00:E2:BF:82:AB:DE:38:48:85:52:B3:20:D5:26:55:69:0E:47:33
            X509v3 Authority Key Identifier: 
                keyid:0F:21:17:94:40:B1:A6:7C:59:FA:1C:C5:38:CF:62:E8:84:8B:1C:2C

            Authority Information Access: 
                CA Issuers - URI:http://url-for-aia/I.cer
                CA Issuers - URI:http://url-for-aia2/I2.foo
                CA Issuers - URI:http://url-for-aia3/I3.foo

            X509v3 CRL Distribution Points: 

                Full Name:
                  URI:http://url-for-crl/I.crl

            X509v3 Key Usage: critical
                Digital Signature, Key Encipherment
            X509v3 Extended Key Usage: 
                TLS Web Server Authentication, TLS Web Client Authentication
            X509v3 Subject Alternative Name: 
                DNS:target
    Signature Algorithm: sha256WithRSAEncryption
         30:82:1c:09:95:4f:78:2e:57:d2:d9:37:ee:5f:34:24:96:74:
         81:23:50:3b:26:cb:44:55:69:61:30:4e:9c:3b:5c:7f:0c:18:
         c3:ff:84:40:c0:a1:1f:70:72:20:5a:e3:ad:e3:48:f6:45:5d:
         ba:60:67:57:0c:8d:4a:8a:cd:23:42:91:d7:c6:43:e4:15:b0:
         1e:18:e6:64:ed:fa:a5:2e:bb:08:9d:e5:4e:62:8e:03:12:82:
         50:06:e8:2e:ce:d8:e1:14:ce:a6:82:0c:0b:e0:3a:db:62:79:
         dd:21:9b:83:49:21:24:ed:2f:c8:0f:18:f6:a1:98:a3:7e:2d:
         11:84:20:38:76:59:21:df:09:61:c8:c4:a3:e2:42:80:4f:9a:
         89:45:1a:e8:a1:32:e7:bb:47:8a:88:72:99:72:14:77:01:40:
         30:b9:d8:4a:b9:d5:c4:76:5c:0e:5d:1e:52:c5:c6:38:f7:a2:
         88:98:37:81:2b:f9:b2:b3:65:6e:df:7d:ea:b8:5b:71:72:6c:
         8d:6d:29:d6:0e:ea:1d:90:7d:6a:9f:df:de:8a:cd:5d:ba:4d:
         45:57:d3:c8:18:02:54:6e:44:5b:1d:b7:0e:54:0e:db:0d:27:
         59:ad:a4:dd:0f:71:e0:e9:90:a1:36:b0:a3:f8:d6:66:bb:5c:
         0d:3c:f9:b9
-----BEGIN CERTIFICATE-----
MIID5TCCAs2gAwIBAgIUFj3QlB6naD9z+Dp+Wbo+CHTsno8wDQYJKoZIhvcNAQEL
BQAwDDEKMAgGA1UEAwwBSTAeFw0yMDExMDMxMjAwMDBaFw0yMTExMDMxMjAwMDBa
MBExDzANBgNVBAMMBnRhcmdldDCCASIwDQYJKoZIhvcNAQEBBQADggEPADCCAQoC
ggEBAMwiCFjCBIrdJhCekhAunMFvxQhScZVTOLXL0L9GVDeL3JOM9AFzHFsDnefA
Nr2vM9Eql7asJI6TndGOAf2WL4kzceYY4bUE+6ysBddfBLmDr/LT3k3qWAJqOZzy
140lvbYO63xxGwCrd+84dVd3sluswl3rPJ4KQy28i0vwboO175sdNSIlsDcRaZ5C
Y60K2vKnTHb4MArHgldDqgcI7aigLUZja6qRxuvVpO3NJ0hP9PAGX5V8JsyyvHMV
5DSeFiDSrycT4Q3iiJsQNK7nVRAAAGwZb3hSrjdt4yZKaVlAstfxLCtGLpXUDgvn
BpsyAb4v2hL0rBXsCBENSk4cPLUCAwEAAaOCATgwggE0MB0GA1UdDgQWBBRVAOK/
gqveOEiFUrMg1SZVaQ5HMzAfBgNVHSMEGDAWgBQPIReUQLGmfFn6HMU4z2LohIsc
LDCBhAYIKwYBBQUHAQEEeDB2MCQGCCsGAQUFBzAChhhodHRwOi8vdXJsLWZvci1h
aWEvSS5jZXIwJgYIKwYBBQUHMAKGGmh0dHA6Ly91cmwtZm9yLWFpYTIvSTIuZm9v
MCYGCCsGAQUFBzAChhpodHRwOi8vdXJsLWZvci1haWEzL0kzLmZvbzApBgNVHR8E
IjAgMB6gHKAahhhodHRwOi8vdXJsLWZvci1jcmwvSS5jcmwwDgYDVR0PAQH/BAQD
AgWgMB0GA1UdJQQWMBQGCCsGAQUFBwMBBggrBgEFBQcDAjARBgNVHREECjAIggZ0
YXJnZXQwDQYJKoZIhvcNAQELBQADggEBADCCHAmVT3guV9LZN+5fNCSWdIEjUDsm
y0RVaWEwTpw7XH8MGMP/hEDAoR9wciBa463jSPZFXbpgZ1cMjUqKzSNCkdfGQ+QV
sB4Y5mTt+qUuuwid5U5ijgMSglAG6C7O2OEUzqaCDAvgOttied0hm4NJISTtL8gP
GPahmKN+LRGEIDh2WSHfCWHIxKPiQoBPmolFGuihMue7R4qIcplyFHcBQDC52Eq5
1cR2XA5dHlLFxjj3ooiYN4Er+bKzZW7ffeq4W3FybI1tKdYO6h2QfWqf396KzV26
TUVX08gYAlRuRFsdtw5UDtsNJ1mtpN0PceDpkKE2sKP41ma7XA08+bk=
-----END CERTIFICATE-----
