Certificate:
    Data:
        Version: 3 (0x2)
        Serial Number:
            16:3d:d0:94:1e:a7:68:3f:73:f8:3a:7e:59:ba:3e:08:74:ec:9e:94
        Signature Algorithm: sha256WithRSAEncryption
        Issuer: CN=I
        Validity
            Not Before: Oct  5 12:00:00 2021 GMT
            Not After : Oct  5 12:00:00 2022 GMT
        Subject: CN=target
        Subject Public Key Info:
            Public Key Algorithm: rsaEncryption
                RSA Public-Key: (2048 bit)
                Modulus:
                    00:cc:22:08:58:c2:04:8a:dd:26:10:9e:92:10:2e:
                    9c:c1:6f:c5:08:52:71:95:53:38:b5:cb:d0:bf:46:
                    54:37:8b:dc:93:8c:f4:01:73:1c:5b:03:9d:e7:c0:
                    36:bd:af:33:d1:2a:97:b6:ac:24:8e:93:9d:d1:8e:
                    01:fd:96:2f:89:33:71:e6:18:e1:b5:04:fb:ac:ac:
                    05:d7:5f:04:b9:83:af:f2:d3:de:4d:ea:58:02:6a:
                    39:9c:f2:d7:8d:25:bd:b6:0e:eb:7c:71:1b:00:ab:
                    77:ef:38:75:57:77:b2:5b:ac:c2:5d:eb:3c:9e:0a:
                    43:2d:bc:8b:4b:f0:6e:83:b5:ef:9b:1d:35:22:25:
                    b0:37:11:69:9e:42:63:ad:0a:da:f2:a7:4c:76:f8:
                    30:0a:c7:82:57:43:aa:07:08:ed:a8:a0:2d:46:63:
                    6b:aa:91:c6:eb:d5:a4:ed:cd:27:48:4f:f4:f0:06:
                    5f:95:7c:26:cc:b2:bc:73:15:e4:34:9e:16:20:d2:
                    af:27:13:e1:0d:e2:88:9b:10:34:ae:e7:55:10:00:
                    00:6c:19:6f:78:52:ae:37:6d:e3:26:4a:69:59:40:
                    b2:d7:f1:2c:2b:46:2e:95:d4:0e:0b:e7:06:9b:32:
                    01:be:2f:da:12:f4:ac:15:ec:08:11:0d:4a:4e:1c:
                    3c:b5
                Exponent: 65537 (0x10001)
        X509v3 extensions:
            X509v3 Subject Key Identifier: 
                55:00:E2:BF:82:AB:DE:38:48:85:52:B3:20:D5:26:55:69:0E:47:33
            X509v3 Authority Key Identifier: 
                keyid:0F:21:17:94:40:B1:A6:7C:59:FA:1C:C5:38:CF:62:E8:84:8B:1C:2C

            Authority Information Access: 
                CA Issuers - URI:foobar
                CA Issuers - URI:http://url-for-aia2/I2.foo

            X509v3 CRL Distribution Points: 

                Full Name:
                  URI:http://url-for-crl/I.crl

            X509v3 Key Usage: critical
                Digital Signature, Key Encipherment
            X509v3 Extended Key Usage: 
                TLS Web Server Authentication, TLS Web Client Authentication
            X509v3 Subject Alternative Name: 
                DNS:target
    Signature Algorithm: sha256WithRSAEncryption
         50:0c:8a:e4:6c:53:fb:47:64:0a:80:7e:97:83:c5:79:36:e3:
         8c:49:22:6c:e6:20:76:8c:46:85:91:5a:33:5c:31:c8:d9:4c:
         d9:a1:71:0f:2f:95:89:3d:a8:0f:b8:6e:04:06:7c:ae:60:2c:
         47:f6:74:a4:5d:b1:ad:d6:2c:ca:e0:2e:fa:5b:de:1e:13:48:
         3e:e0:f3:4f:11:d1:48:ca:62:1b:53:50:5c:30:e3:e4:4f:5d:
         2f:50:a4:d4:a8:71:11:20:b9:17:d6:79:36:70:4c:41:14:cb:
         90:14:b7:3b:11:59:2a:1d:69:e9:b2:09:9b:c0:33:76:de:35:
         e8:f2:5d:6f:77:18:04:5c:65:bd:28:5e:41:bb:7c:c7:f6:a7:
         29:72:d6:0f:c2:56:49:ea:e2:61:54:c4:ff:e2:54:6e:cb:0e:
         14:90:b4:14:cf:c0:a3:db:00:a3:7d:b2:af:7f:b0:6e:7e:1a:
         00:fb:f4:8f:7e:c7:02:70:f1:85:90:89:dc:ea:b2:56:50:c8:
         95:52:34:95:d8:a9:a8:08:1c:80:a6:d3:3f:0c:bd:8f:4e:0e:
         87:97:d0:48:15:2f:b4:17:25:ac:75:a9:0a:cd:42:93:67:eb:
         9f:4c:26:8a:ea:37:a6:59:93:24:bb:0e:62:f7:74:30:95:be:
         19:9b:21:d2
-----BEGIN CERTIFICATE-----
MIIDqDCCApCgAwIBAgIUFj3QlB6naD9z+Dp+Wbo+CHTsnpQwDQYJKoZIhvcNAQEL
BQAwDDEKMAgGA1UEAwwBSTAeFw0yMTEwMDUxMjAwMDBaFw0yMjEwMDUxMjAwMDBa
MBExDzANBgNVBAMMBnRhcmdldDCCASIwDQYJKoZIhvcNAQEBBQADggEPADCCAQoC
ggEBAMwiCFjCBIrdJhCekhAunMFvxQhScZVTOLXL0L9GVDeL3JOM9AFzHFsDnefA
Nr2vM9Eql7asJI6TndGOAf2WL4kzceYY4bUE+6ysBddfBLmDr/LT3k3qWAJqOZzy
140lvbYO63xxGwCrd+84dVd3sluswl3rPJ4KQy28i0vwboO175sdNSIlsDcRaZ5C
Y60K2vKnTHb4MArHgldDqgcI7aigLUZja6qRxuvVpO3NJ0hP9PAGX5V8JsyyvHMV
5DSeFiDSrycT4Q3iiJsQNK7nVRAAAGwZb3hSrjdt4yZKaVlAstfxLCtGLpXUDgvn
BpsyAb4v2hL0rBXsCBENSk4cPLUCAwEAAaOB/DCB+TAdBgNVHQ4EFgQUVQDiv4Kr
3jhIhVKzINUmVWkORzMwHwYDVR0jBBgwFoAUDyEXlECxpnxZ+hzFOM9i6ISLHCww
SgYIKwYBBQUHAQEEPjA8MBIGCCsGAQUFBzAChgZmb29iYXIwJgYIKwYBBQUHMAKG
Gmh0dHA6Ly91cmwtZm9yLWFpYTIvSTIuZm9vMCkGA1UdHwQiMCAwHqAcoBqGGGh0
dHA6Ly91cmwtZm9yLWNybC9JLmNybDAOBgNVHQ8BAf8EBAMCBaAwHQYDVR0lBBYw
FAYIKwYBBQUHAwEGCCsGAQUFBwMCMBEGA1UdEQQKMAiCBnRhcmdldDANBgkqhkiG
9w0BAQsFAAOCAQEAUAyK5GxT+0dkCoB+l4PFeTbjjEkibOYgdoxGhZFaM1wxyNlM
2aFxDy+ViT2oD7huBAZ8rmAsR/Z0pF2xrdYsyuAu+lveHhNIPuDzTxHRSMpiG1NQ
XDDj5E9dL1Ck1KhxESC5F9Z5NnBMQRTLkBS3OxFZKh1p6bIJm8Azdt416PJdb3cY
BFxlvSheQbt8x/anKXLWD8JWSeriYVTE/+JUbssOFJC0FM/Ao9sAo32yr3+wbn4a
APv0j37HAnDxhZCJ3OqyVlDIlVI0ldipqAgcgKbTPwy9j04Oh5fQSBUvtBclrHWp
Cs1Ck2frn0wmiuo3plmTJLsOYvd0MJW+GZsh0g==
-----END CERTIFICATE-----
