Certificate:
    Data:
        Version: 3 (0x2)
        Serial Number:
            16:3d:d0:94:1e:a7:68:3f:73:f8:3a:7e:59:ba:3e:08:74:ec:9e:93
        Signature Algorithm: sha256WithRSAEncryption
        Issuer: CN=I
        Validity
            Not Before: Oct  5 12:00:00 2021 GMT
            Not After : Oct  5 12:00:00 2022 GMT
        Subject: CN=target
        Subject Public Key Info:
            Public Key Algorithm: rsaEncryption
                RSA Public-Key: (2048 bit)
                Modulus:
                    00:cc:22:08:58:c2:04:8a:dd:26:10:9e:92:10:2e:
                    9c:c1:6f:c5:08:52:71:95:53:38:b5:cb:d0:bf:46:
                    54:37:8b:dc:93:8c:f4:01:73:1c:5b:03:9d:e7:c0:
                    36:bd:af:33:d1:2a:97:b6:ac:24:8e:93:9d:d1:8e:
                    01:fd:96:2f:89:33:71:e6:18:e1:b5:04:fb:ac:ac:
                    05:d7:5f:04:b9:83:af:f2:d3:de:4d:ea:58:02:6a:
                    39:9c:f2:d7:8d:25:bd:b6:0e:eb:7c:71:1b:00:ab:
                    77:ef:38:75:57:77:b2:5b:ac:c2:5d:eb:3c:9e:0a:
                    43:2d:bc:8b:4b:f0:6e:83:b5:ef:9b:1d:35:22:25:
                    b0:37:11:69:9e:42:63:ad:0a:da:f2:a7:4c:76:f8:
                    30:0a:c7:82:57:43:aa:07:08:ed:a8:a0:2d:46:63:
                    6b:aa:91:c6:eb:d5:a4:ed:cd:27:48:4f:f4:f0:06:
                    5f:95:7c:26:cc:b2:bc:73:15:e4:34:9e:16:20:d2:
                    af:27:13:e1:0d:e2:88:9b:10:34:ae:e7:55:10:00:
                    00:6c:19:6f:78:52:ae:37:6d:e3:26:4a:69:59:40:
                    b2:d7:f1:2c:2b:46:2e:95:d4:0e:0b:e7:06:9b:32:
                    01:be:2f:da:12:f4:ac:15:ec:08:11:0d:4a:4e:1c:
                    3c:b5
                Exponent: 65537 (0x10001)
        X509v3 extensions:
            X509v3 Subject Key Identifier: 
                55:00:E2:BF:82:AB:DE:38:48:85:52:B3:20:D5:26:55:69:0E:47:33
            X509v3 Authority Key Identifier: 
                keyid:0F:21:17:94:40:B1:A6:7C:59:FA:1C:C5:38:CF:62:E8:84:8B:1C:2C

            Authority Information Access: 
                CA Issuers - URI:file:///dev/null
                CA Issuers - URI:http://url-for-aia2/I2.foo

            X509v3 CRL Distribution Points: 

                Full Name:
                  URI:http://url-for-crl/I.crl

            X509v3 Key Usage: critical
                Digital Signature, Key Encipherment
            X509v3 Extended Key Usage: 
                TLS Web Server Authentication, TLS Web Client Authentication
            X509v3 Subject Alternative Name: 
                DNS:target
    Signature Algorithm: sha256WithRSAEncryption
         ad:03:87:05:88:c4:ce:da:15:28:76:dd:41:aa:87:d6:9e:f5:
         82:9f:d7:94:4c:7e:78:4f:48:fd:8e:e5:73:e0:2b:46:c4:de:
         aa:c9:50:ad:07:69:45:e0:b7:cc:32:d0:2a:1b:a2:95:d7:12:
         96:77:ef:f8:1d:79:d9:13:90:ed:91:c0:c1:b1:50:77:e0:0a:
         68:73:b1:11:0d:7b:b6:7b:3c:be:9c:6e:78:b9:2f:15:e6:0f:
         b3:a1:fa:fc:2e:d0:f6:5e:c6:df:64:fd:69:ad:9f:18:91:69:
         b8:b3:56:4b:26:5e:a1:ee:e9:fe:6c:af:3a:07:1f:08:c2:2d:
         46:48:62:fe:0c:2c:99:7d:42:9e:ac:ff:47:44:6d:b1:d4:d8:
         d0:04:f3:68:66:36:80:54:33:03:57:87:6e:a2:14:87:ec:17:
         c7:55:0a:ce:0c:12:c1:7f:59:aa:53:da:dc:61:74:4d:4a:45:
         80:e1:21:24:e6:16:06:ef:24:30:e7:a2:11:16:3b:e2:c5:2c:
         de:fb:e8:24:74:46:75:1f:92:f6:0b:3e:bf:44:97:26:90:57:
         dd:cc:e3:08:3d:6c:8b:2c:48:53:fd:c4:eb:13:f5:64:2c:a0:
         32:95:3c:60:d8:89:e8:dc:f0:97:a7:c6:34:aa:99:4f:2f:d3:
         ca:d9:80:3e
-----BEGIN CERTIFICATE-----
MIIDtDCCApygAwIBAgIUFj3QlB6naD9z+Dp+Wbo+CHTsnpMwDQYJKoZIhvcNAQEL
BQAwDDEKMAgGA1UEAwwBSTAeFw0yMTEwMDUxMjAwMDBaFw0yMjEwMDUxMjAwMDBa
MBExDzANBgNVBAMMBnRhcmdldDCCASIwDQYJKoZIhvcNAQEBBQADggEPADCCAQoC
ggEBAMwiCFjCBIrdJhCekhAunMFvxQhScZVTOLXL0L9GVDeL3JOM9AFzHFsDnefA
Nr2vM9Eql7asJI6TndGOAf2WL4kzceYY4bUE+6ysBddfBLmDr/LT3k3qWAJqOZzy
140lvbYO63xxGwCrd+84dVd3sluswl3rPJ4KQy28i0vwboO175sdNSIlsDcRaZ5C
Y60K2vKnTHb4MArHgldDqgcI7aigLUZja6qRxuvVpO3NJ0hP9PAGX5V8JsyyvHMV
5DSeFiDSrycT4Q3iiJsQNK7nVRAAAGwZb3hSrjdt4yZKaVlAstfxLCtGLpXUDgvn
BpsyAb4v2hL0rBXsCBENSk4cPLUCAwEAAaOCAQcwggEDMB0GA1UdDgQWBBRVAOK/
gqveOEiFUrMg1SZVaQ5HMzAfBgNVHSMEGDAWgBQPIReUQLGmfFn6HMU4z2LohIsc
LDBUBggrBgEFBQcBAQRIMEYwHAYIKwYBBQUHMAKGEGZpbGU6Ly8vZGV2L251bGww
JgYIKwYBBQUHMAKGGmh0dHA6Ly91cmwtZm9yLWFpYTIvSTIuZm9vMCkGA1UdHwQi
MCAwHqAcoBqGGGh0dHA6Ly91cmwtZm9yLWNybC9JLmNybDAOBgNVHQ8BAf8EBAMC
BaAwHQYDVR0lBBYwFAYIKwYBBQUHAwEGCCsGAQUFBwMCMBEGA1UdEQQKMAiCBnRh
cmdldDANBgkqhkiG9w0BAQsFAAOCAQEArQOHBYjEztoVKHbdQaqH1p71gp/XlEx+
eE9I/Y7lc+ArRsTeqslQrQdpReC3zDLQKhuildcSlnfv+B152ROQ7ZHAwbFQd+AK
aHOxEQ17tns8vpxueLkvFeYPs6H6/C7Q9l7G32T9aa2fGJFpuLNWSyZeoe7p/myv
OgcfCMItRkhi/gwsmX1Cnqz/R0RtsdTY0ATzaGY2gFQzA1eHbqIUh+wXx1UKzgwS
wX9ZqlPa3GF0TUpFgOEhJOYWBu8kMOeiERY74sUs3vvoJHRGdR+S9gs+v0SXJpBX
3czjCD1siyxIU/3E6xP1ZCygMpU8YNiJ6Nzwl6fGNKqZTy/TytmAPg==
-----END CERTIFICATE-----
