Certificate:
    Data:
        Version: 3 (0x2)
        Serial Number:
            16:3d:d0:94:1e:a7:68:3f:73:f8:3a:7e:59:ba:3e:08:74:ec:9e:8e
        Signature Algorithm: sha256WithRSAEncryption
        Issuer: CN=I
        Validity
            Not Before: Oct  5 12:00:00 2022 GMT
            Not After : Oct  5 12:00:00 2023 GMT
        Subject: CN=target
        Subject Public Key Info:
            Public Key Algorithm: rsaEncryption
                Public-Key: (2048 bit)
                Modulus:
                    00:cc:22:08:58:c2:04:8a:dd:26:10:9e:92:10:2e:
                    9c:c1:6f:c5:08:52:71:95:53:38:b5:cb:d0:bf:46:
                    54:37:8b:dc:93:8c:f4:01:73:1c:5b:03:9d:e7:c0:
                    36:bd:af:33:d1:2a:97:b6:ac:24:8e:93:9d:d1:8e:
                    01:fd:96:2f:89:33:71:e6:18:e1:b5:04:fb:ac:ac:
                    05:d7:5f:04:b9:83:af:f2:d3:de:4d:ea:58:02:6a:
                    39:9c:f2:d7:8d:25:bd:b6:0e:eb:7c:71:1b:00:ab:
                    77:ef:38:75:57:77:b2:5b:ac:c2:5d:eb:3c:9e:0a:
                    43:2d:bc:8b:4b:f0:6e:83:b5:ef:9b:1d:35:22:25:
                    b0:37:11:69:9e:42:63:ad:0a:da:f2:a7:4c:76:f8:
                    30:0a:c7:82:57:43:aa:07:08:ed:a8:a0:2d:46:63:
                    6b:aa:91:c6:eb:d5:a4:ed:cd:27:48:4f:f4:f0:06:
                    5f:95:7c:26:cc:b2:bc:73:15:e4:34:9e:16:20:d2:
                    af:27:13:e1:0d:e2:88:9b:10:34:ae:e7:55:10:00:
                    00:6c:19:6f:78:52:ae:37:6d:e3:26:4a:69:59:40:
                    b2:d7:f1:2c:2b:46:2e:95:d4:0e:0b:e7:06:9b:32:
                    01:be:2f:da:12:f4:ac:15:ec:08:11:0d:4a:4e:1c:
                    3c:b5
                Exponent: 65537 (0x10001)
        X509v3 extensions:
            X509v3 Subject Key Identifier: 
                55:00:E2:BF:82:AB:DE:38:48:85:52:B3:20:D5:26:55:69:0E:47:33
            X509v3 Authority Key Identifier: 
                0F:21:17:94:40:B1:A6:7C:59:FA:1C:C5:38:CF:62:E8:84:8B:1C:2C
            Authority Information Access: 
                CA Issuers - URI:http://url-for-aia/I.cer
                CA Issuers - URI:http://url-for-aia2/I2.foo
            X509v3 CRL Distribution Points: 
                Full Name:
                  URI:http://url-for-crl/I.crl
            X509v3 Key Usage: critical
                Digital Signature, Key Encipherment
            X509v3 Extended Key Usage: 
                TLS Web Server Authentication, TLS Web Client Authentication
            X509v3 Subject Alternative Name: 
                DNS:target
    Signature Algorithm: sha256WithRSAEncryption
    Signature Value:
        44:7c:78:02:fe:4f:9e:31:dc:3b:de:05:0f:12:e7:63:93:eb:
        3f:2a:cf:20:6b:88:d4:b5:8d:84:d8:1a:4a:dc:4c:1b:d4:c3:
        72:c3:ca:b1:2e:96:a5:e6:38:01:8c:ae:7d:2e:d4:b1:05:eb:
        ad:e2:41:71:1b:e2:44:19:50:75:40:a2:c2:e2:17:3b:d4:50:
        78:ec:36:98:c4:1f:14:9b:7e:3b:cb:4b:55:07:c0:e3:01:2a:
        51:0d:25:8e:4b:e7:18:66:3b:94:86:18:81:8d:5e:75:19:d0:
        37:95:c5:9b:9d:36:6e:fa:1f:6d:94:ad:f4:3f:f2:50:35:0e:
        6d:1e:89:f2:62:ec:60:c1:7f:cf:2e:e3:fb:31:ad:30:a4:67:
        a5:53:ea:b8:d6:ac:7b:e6:de:fa:c4:99:df:a7:1d:62:02:7f:
        87:cd:54:cb:c1:cf:bb:6c:0d:e7:f1:6a:c6:74:78:f9:a3:e4:
        73:19:78:30:8c:c9:a2:86:e6:20:c4:a7:75:c8:b5:47:5b:74:
        c7:19:79:4a:66:e6:93:a3:7a:05:4c:5f:47:5f:37:4b:79:8f:
        3b:27:38:0a:85:44:21:2f:3b:86:5d:e7:0a:5a:af:b6:9d:44:
        cd:e4:49:52:b8:c1:22:87:72:c1:5b:3a:6b:4e:c7:72:8b:4c:
        8f:be:8b:e5
-----BEGIN CERTIFICATE-----
MIIDvDCCAqSgAwIBAgIUFj3QlB6naD9z+Dp+Wbo+CHTsno4wDQYJKoZIhvcNAQEL
BQAwDDEKMAgGA1UEAwwBSTAeFw0yMjEwMDUxMjAwMDBaFw0yMzEwMDUxMjAwMDBa
MBExDzANBgNVBAMMBnRhcmdldDCCASIwDQYJKoZIhvcNAQEBBQADggEPADCCAQoC
ggEBAMwiCFjCBIrdJhCekhAunMFvxQhScZVTOLXL0L9GVDeL3JOM9AFzHFsDnefA
Nr2vM9Eql7asJI6TndGOAf2WL4kzceYY4bUE+6ysBddfBLmDr/LT3k3qWAJqOZzy
140lvbYO63xxGwCrd+84dVd3sluswl3rPJ4KQy28i0vwboO175sdNSIlsDcRaZ5C
Y60K2vKnTHb4MArHgldDqgcI7aigLUZja6qRxuvVpO3NJ0hP9PAGX5V8JsyyvHMV
5DSeFiDSrycT4Q3iiJsQNK7nVRAAAGwZb3hSrjdt4yZKaVlAstfxLCtGLpXUDgvn
BpsyAb4v2hL0rBXsCBENSk4cPLUCAwEAAaOCAQ8wggELMB0GA1UdDgQWBBRVAOK/
gqveOEiFUrMg1SZVaQ5HMzAfBgNVHSMEGDAWgBQPIReUQLGmfFn6HMU4z2LohIsc
LDBcBggrBgEFBQcBAQRQME4wJAYIKwYBBQUHMAKGGGh0dHA6Ly91cmwtZm9yLWFp
YS9JLmNlcjAmBggrBgEFBQcwAoYaaHR0cDovL3VybC1mb3ItYWlhMi9JMi5mb28w
KQYDVR0fBCIwIDAeoBygGoYYaHR0cDovL3VybC1mb3ItY3JsL0kuY3JsMA4GA1Ud
DwEB/wQEAwIFoDAdBgNVHSUEFjAUBggrBgEFBQcDAQYIKwYBBQUHAwIwEQYDVR0R
BAowCIIGdGFyZ2V0MA0GCSqGSIb3DQEBCwUAA4IBAQBEfHgC/k+eMdw73gUPEudj
k+s/Ks8ga4jUtY2E2BpK3Ewb1MNyw8qxLpal5jgBjK59LtSxBeut4kFxG+JEGVB1
QKLC4hc71FB47DaYxB8Um347y0tVB8DjASpRDSWOS+cYZjuUhhiBjV51GdA3lcWb
nTZu+h9tlK30P/JQNQ5tHonyYuxgwX/PLuP7Ma0wpGelU+q41qx75t76xJnfpx1i
An+HzVTLwc+7bA3n8WrGdHj5o+RzGXgwjMmihuYgxKd1yLVHW3THGXlKZuaTo3oF
TF9HXzdLeY87JzgKhUQhLzuGXecKWq+2nUTN5ElSuMEih3LBWzprTsdyi0yPvovl
-----END CERTIFICATE-----
