Certificate:
    Data:
        Version: 3 (0x2)
        Serial Number:
            16:3d:d0:94:1e:a7:68:3f:73:f8:3a:7e:59:ba:3e:08:74:ec:9e:8c
        Signature Algorithm: sha256WithRSAEncryption
        Issuer: CN=I
        Validity
            Not Before: Nov  3 12:00:00 2020 GMT
            Not After : Nov  3 12:00:00 2021 GMT
        Subject: CN=target
        Subject Public Key Info:
            Public Key Algorithm: rsaEncryption
                RSA Public-Key: (2048 bit)
                Modulus:
                    00:cc:22:08:58:c2:04:8a:dd:26:10:9e:92:10:2e:
                    9c:c1:6f:c5:08:52:71:95:53:38:b5:cb:d0:bf:46:
                    54:37:8b:dc:93:8c:f4:01:73:1c:5b:03:9d:e7:c0:
                    36:bd:af:33:d1:2a:97:b6:ac:24:8e:93:9d:d1:8e:
                    01:fd:96:2f:89:33:71:e6:18:e1:b5:04:fb:ac:ac:
                    05:d7:5f:04:b9:83:af:f2:d3:de:4d:ea:58:02:6a:
                    39:9c:f2:d7:8d:25:bd:b6:0e:eb:7c:71:1b:00:ab:
                    77:ef:38:75:57:77:b2:5b:ac:c2:5d:eb:3c:9e:0a:
                    43:2d:bc:8b:4b:f0:6e:83:b5:ef:9b:1d:35:22:25:
                    b0:37:11:69:9e:42:63:ad:0a:da:f2:a7:4c:76:f8:
                    30:0a:c7:82:57:43:aa:07:08:ed:a8:a0:2d:46:63:
                    6b:aa:91:c6:eb:d5:a4:ed:cd:27:48:4f:f4:f0:06:
                    5f:95:7c:26:cc:b2:bc:73:15:e4:34:9e:16:20:d2:
                    af:27:13:e1:0d:e2:88:9b:10:34:ae:e7:55:10:00:
                    00:6c:19:6f:78:52:ae:37:6d:e3:26:4a:69:59:40:
                    b2:d7:f1:2c:2b:46:2e:95:d4:0e:0b:e7:06:9b:32:
                    01:be:2f:da:12:f4:ac:15:ec:08:11:0d:4a:4e:1c:
                    3c:b5
                Exponent: 65537 (0x10001)
        X509v3 extensions:
            X509v3 Subject Key Identifier: 
                55:00:E2:BF:82:AB:DE:38:48:85:52:B3:20:D5:26:55:69:0E:47:33
            X509v3 Authority Key Identifier: 
                keyid:0F:21:17:94:40:B1:A6:7C:59:FA:1C:C5:38:CF:62:E8:84:8B:1C:2C

            Authority Information Access: 
                CA Issuers - URI:http://url-for-aia/I.cer

            X509v3 CRL Distribution Points: 

                Full Name:
                  URI:http://url-for-crl/I.crl

            X509v3 Key Usage: critical
                Digital Signature, Key Encipherment
            X509v3 Extended Key Usage: 
                TLS Web Server Authentication, TLS Web Client Authentication
            X509v3 Subject Alternative Name: 
                DNS:target
    Signature Algorithm: sha256WithRSAEncryption
         a6:04:18:b2:84:ee:b5:19:45:1c:12:6c:fe:8d:4d:78:08:2d:
         01:c9:7c:4e:d0:93:5f:23:0d:12:90:3d:29:05:1b:f9:52:02:
         47:0b:27:ed:a1:19:d7:b2:1c:bf:f1:79:ea:63:bd:ae:0b:e0:
         29:f5:36:c1:bc:7a:fb:ad:43:94:50:84:20:9d:d8:8d:94:ae:
         09:31:b7:23:be:0e:33:c7:d0:5a:f8:23:17:3d:ca:52:2b:fe:
         63:ff:d0:4d:d3:51:f6:88:c0:6d:58:4b:0a:6e:04:a9:a4:4a:
         f9:fd:5a:57:90:ff:94:86:0c:16:ab:f5:28:0a:88:44:2c:c4:
         88:3c:80:9b:f0:ff:b4:7e:f1:27:d4:c8:27:f6:3f:75:f8:09:
         ef:e8:a4:39:6b:57:fb:3e:ec:0f:c1:dd:a9:05:53:1d:4b:1c:
         cc:23:45:00:cf:f1:56:0e:3c:27:c4:82:e5:74:32:40:a0:10:
         32:fc:ff:76:00:bf:cd:32:a8:11:89:52:a9:31:3b:69:63:19:
         7f:78:1a:e4:db:44:54:04:4f:8f:38:6d:dd:55:0d:db:94:24:
         25:94:0f:4c:99:0e:1b:b8:3f:91:25:8d:54:05:d1:84:ea:65:
         e6:10:5b:c3:93:99:93:7b:1b:f5:e4:17:e6:44:ec:9d:11:d9:
         92:d5:19:88
-----BEGIN CERTIFICATE-----
MIIDkjCCAnqgAwIBAgIUFj3QlB6naD9z+Dp+Wbo+CHTsnowwDQYJKoZIhvcNAQEL
BQAwDDEKMAgGA1UEAwwBSTAeFw0yMDExMDMxMjAwMDBaFw0yMTExMDMxMjAwMDBa
MBExDzANBgNVBAMMBnRhcmdldDCCASIwDQYJKoZIhvcNAQEBBQADggEPADCCAQoC
ggEBAMwiCFjCBIrdJhCekhAunMFvxQhScZVTOLXL0L9GVDeL3JOM9AFzHFsDnefA
Nr2vM9Eql7asJI6TndGOAf2WL4kzceYY4bUE+6ysBddfBLmDr/LT3k3qWAJqOZzy
140lvbYO63xxGwCrd+84dVd3sluswl3rPJ4KQy28i0vwboO175sdNSIlsDcRaZ5C
Y60K2vKnTHb4MArHgldDqgcI7aigLUZja6qRxuvVpO3NJ0hP9PAGX5V8JsyyvHMV
5DSeFiDSrycT4Q3iiJsQNK7nVRAAAGwZb3hSrjdt4yZKaVlAstfxLCtGLpXUDgvn
BpsyAb4v2hL0rBXsCBENSk4cPLUCAwEAAaOB5jCB4zAdBgNVHQ4EFgQUVQDiv4Kr
3jhIhVKzINUmVWkORzMwHwYDVR0jBBgwFoAUDyEXlECxpnxZ+hzFOM9i6ISLHCww
NAYIKwYBBQUHAQEEKDAmMCQGCCsGAQUFBzAChhhodHRwOi8vdXJsLWZvci1haWEv
SS5jZXIwKQYDVR0fBCIwIDAeoBygGoYYaHR0cDovL3VybC1mb3ItY3JsL0kuY3Js
MA4GA1UdDwEB/wQEAwIFoDAdBgNVHSUEFjAUBggrBgEFBQcDAQYIKwYBBQUHAwIw
EQYDVR0RBAowCIIGdGFyZ2V0MA0GCSqGSIb3DQEBCwUAA4IBAQCmBBiyhO61GUUc
Emz+jU14CC0ByXxO0JNfIw0SkD0pBRv5UgJHCyftoRnXshy/8XnqY72uC+Ap9TbB
vHr7rUOUUIQgndiNlK4JMbcjvg4zx9Ba+CMXPcpSK/5j/9BN01H2iMBtWEsKbgSp
pEr5/VpXkP+UhgwWq/UoCohELMSIPICb8P+0fvEn1Mgn9j91+Anv6KQ5a1f7PuwP
wd2pBVMdSxzMI0UAz/FWDjwnxILldDJAoBAy/P92AL/NMqgRiVKpMTtpYxl/eBrk
20RUBE+POG3dVQ3blCQllA9MmQ4buD+RJY1UBdGE6mXmEFvDk5mTexv15BfmROyd
EdmS1RmI
-----END CERTIFICATE-----
