Certificate:
    Data:
        Version: 3 (0x2)
        Serial Number:
            16:3d:d0:94:1e:a7:68:3f:73:f8:3a:7e:59:ba:3e:08:74:ec:9e:94
        Signature Algorithm: sha256WithRSAEncryption
        Issuer: CN=I
        Validity
            Not Before: Nov  3 12:00:00 2020 GMT
            Not After : Nov  3 12:00:00 2021 GMT
        Subject: CN=target
        Subject Public Key Info:
            Public Key Algorithm: rsaEncryption
                RSA Public-Key: (2048 bit)
                Modulus:
                    00:cc:22:08:58:c2:04:8a:dd:26:10:9e:92:10:2e:
                    9c:c1:6f:c5:08:52:71:95:53:38:b5:cb:d0:bf:46:
                    54:37:8b:dc:93:8c:f4:01:73:1c:5b:03:9d:e7:c0:
                    36:bd:af:33:d1:2a:97:b6:ac:24:8e:93:9d:d1:8e:
                    01:fd:96:2f:89:33:71:e6:18:e1:b5:04:fb:ac:ac:
                    05:d7:5f:04:b9:83:af:f2:d3:de:4d:ea:58:02:6a:
                    39:9c:f2:d7:8d:25:bd:b6:0e:eb:7c:71:1b:00:ab:
                    77:ef:38:75:57:77:b2:5b:ac:c2:5d:eb:3c:9e:0a:
                    43:2d:bc:8b:4b:f0:6e:83:b5:ef:9b:1d:35:22:25:
                    b0:37:11:69:9e:42:63:ad:0a:da:f2:a7:4c:76:f8:
                    30:0a:c7:82:57:43:aa:07:08:ed:a8:a0:2d:46:63:
                    6b:aa:91:c6:eb:d5:a4:ed:cd:27:48:4f:f4:f0:06:
                    5f:95:7c:26:cc:b2:bc:73:15:e4:34:9e:16:20:d2:
                    af:27:13:e1:0d:e2:88:9b:10:34:ae:e7:55:10:00:
                    00:6c:19:6f:78:52:ae:37:6d:e3:26:4a:69:59:40:
                    b2:d7:f1:2c:2b:46:2e:95:d4:0e:0b:e7:06:9b:32:
                    01:be:2f:da:12:f4:ac:15:ec:08:11:0d:4a:4e:1c:
                    3c:b5
                Exponent: 65537 (0x10001)
        X509v3 extensions:
            X509v3 Subject Key Identifier: 
                55:00:E2:BF:82:AB:DE:38:48:85:52:B3:20:D5:26:55:69:0E:47:33
            X509v3 Authority Key Identifier: 
                keyid:0F:21:17:94:40:B1:A6:7C:59:FA:1C:C5:38:CF:62:E8:84:8B:1C:2C

            Authority Information Access: 
                CA Issuers - URI:foobar
                CA Issuers - URI:http://url-for-aia2/I2.foo

            X509v3 CRL Distribution Points: 

                Full Name:
                  URI:http://url-for-crl/I.crl

            X509v3 Key Usage: critical
                Digital Signature, Key Encipherment
            X509v3 Extended Key Usage: 
                TLS Web Server Authentication, TLS Web Client Authentication
            X509v3 Subject Alternative Name: 
                DNS:target
    Signature Algorithm: sha256WithRSAEncryption
         a4:8c:3f:64:da:f5:a0:cd:c0:aa:4f:a2:82:eb:36:38:99:c5:
         61:c2:3a:6d:06:c4:8f:31:5b:a5:38:36:e0:53:5c:a9:20:c4:
         12:28:b4:0d:77:07:11:ab:f5:64:7c:bc:b2:c5:cf:56:2d:69:
         cf:f2:0a:e7:54:f9:03:06:93:71:84:55:ee:34:9a:bf:6e:e0:
         7b:ee:f2:08:9a:03:68:90:45:56:c3:0d:3f:fe:ec:ce:3f:87:
         15:a2:54:2b:2f:8c:ee:53:8e:1f:d3:cc:0f:2a:43:16:5e:5f:
         ea:ad:7b:b9:a3:2f:8b:a0:0b:8b:c9:b8:84:67:c0:81:22:87:
         49:50:91:95:23:9f:9c:1a:bb:9c:87:af:b3:a9:de:28:9d:82:
         b1:ef:b0:f7:6e:7c:a1:f8:02:bc:d4:ae:df:25:3f:cf:1f:44:
         06:84:d8:a0:08:1f:8d:70:fd:91:8e:f5:e6:b5:99:65:1d:15:
         f6:1b:54:cb:ee:34:88:b7:aa:9e:fc:5f:84:a2:13:29:44:93:
         48:9d:00:18:3a:04:37:73:6a:b2:1e:39:81:ee:8a:19:35:4c:
         45:5f:26:96:75:f3:c2:e5:16:74:da:7e:1d:04:53:2a:05:46:
         56:7c:c9:13:a1:d4:55:2d:5f:d5:40:c5:d8:4a:05:66:ed:c4:
         31:9b:ee:3b
-----BEGIN CERTIFICATE-----
MIIDqDCCApCgAwIBAgIUFj3QlB6naD9z+Dp+Wbo+CHTsnpQwDQYJKoZIhvcNAQEL
BQAwDDEKMAgGA1UEAwwBSTAeFw0yMDExMDMxMjAwMDBaFw0yMTExMDMxMjAwMDBa
MBExDzANBgNVBAMMBnRhcmdldDCCASIwDQYJKoZIhvcNAQEBBQADggEPADCCAQoC
ggEBAMwiCFjCBIrdJhCekhAunMFvxQhScZVTOLXL0L9GVDeL3JOM9AFzHFsDnefA
Nr2vM9Eql7asJI6TndGOAf2WL4kzceYY4bUE+6ysBddfBLmDr/LT3k3qWAJqOZzy
140lvbYO63xxGwCrd+84dVd3sluswl3rPJ4KQy28i0vwboO175sdNSIlsDcRaZ5C
Y60K2vKnTHb4MArHgldDqgcI7aigLUZja6qRxuvVpO3NJ0hP9PAGX5V8JsyyvHMV
5DSeFiDSrycT4Q3iiJsQNK7nVRAAAGwZb3hSrjdt4yZKaVlAstfxLCtGLpXUDgvn
BpsyAb4v2hL0rBXsCBENSk4cPLUCAwEAAaOB/DCB+TAdBgNVHQ4EFgQUVQDiv4Kr
3jhIhVKzINUmVWkORzMwHwYDVR0jBBgwFoAUDyEXlECxpnxZ+hzFOM9i6ISLHCww
SgYIKwYBBQUHAQEEPjA8MBIGCCsGAQUFBzAChgZmb29iYXIwJgYIKwYBBQUHMAKG
Gmh0dHA6Ly91cmwtZm9yLWFpYTIvSTIuZm9vMCkGA1UdHwQiMCAwHqAcoBqGGGh0
dHA6Ly91cmwtZm9yLWNybC9JLmNybDAOBgNVHQ8BAf8EBAMCBaAwHQYDVR0lBBYw
FAYIKwYBBQUHAwEGCCsGAQUFBwMCMBEGA1UdEQQKMAiCBnRhcmdldDANBgkqhkiG
9w0BAQsFAAOCAQEApIw/ZNr1oM3Aqk+igus2OJnFYcI6bQbEjzFbpTg24FNcqSDE
Eii0DXcHEav1ZHy8ssXPVi1pz/IK51T5AwaTcYRV7jSav27ge+7yCJoDaJBFVsMN
P/7szj+HFaJUKy+M7lOOH9PMDypDFl5f6q17uaMvi6ALi8m4hGfAgSKHSVCRlSOf
nBq7nIevs6neKJ2Cse+w9258ofgCvNSu3yU/zx9EBoTYoAgfjXD9kY715rWZZR0V
9htUy+40iLeqnvxfhKITKUSTSJ0AGDoEN3Nqsh45ge6KGTVMRV8mlnXzwuUWdNp+
HQRTKgVGVnzJE6HUVS1f1UDF2EoFZu3EMZvuOw==
-----END CERTIFICATE-----
