Certificate:
    Data:
        Version: 3 (0x2)
        Serial Number:
            16:3d:d0:94:1e:a7:68:3f:73:f8:3a:7e:59:ba:3e:08:74:ec:9e:94
        Signature Algorithm: sha256WithRSAEncryption
        Issuer: CN=I
        Validity
            Not Before: Oct  5 12:00:00 2022 GMT
            Not After : Oct  5 12:00:00 2023 GMT
        Subject: CN=target
        Subject Public Key Info:
            Public Key Algorithm: rsaEncryption
                Public-Key: (2048 bit)
                Modulus:
                    00:cc:22:08:58:c2:04:8a:dd:26:10:9e:92:10:2e:
                    9c:c1:6f:c5:08:52:71:95:53:38:b5:cb:d0:bf:46:
                    54:37:8b:dc:93:8c:f4:01:73:1c:5b:03:9d:e7:c0:
                    36:bd:af:33:d1:2a:97:b6:ac:24:8e:93:9d:d1:8e:
                    01:fd:96:2f:89:33:71:e6:18:e1:b5:04:fb:ac:ac:
                    05:d7:5f:04:b9:83:af:f2:d3:de:4d:ea:58:02:6a:
                    39:9c:f2:d7:8d:25:bd:b6:0e:eb:7c:71:1b:00:ab:
                    77:ef:38:75:57:77:b2:5b:ac:c2:5d:eb:3c:9e:0a:
                    43:2d:bc:8b:4b:f0:6e:83:b5:ef:9b:1d:35:22:25:
                    b0:37:11:69:9e:42:63:ad:0a:da:f2:a7:4c:76:f8:
                    30:0a:c7:82:57:43:aa:07:08:ed:a8:a0:2d:46:63:
                    6b:aa:91:c6:eb:d5:a4:ed:cd:27:48:4f:f4:f0:06:
                    5f:95:7c:26:cc:b2:bc:73:15:e4:34:9e:16:20:d2:
                    af:27:13:e1:0d:e2:88:9b:10:34:ae:e7:55:10:00:
                    00:6c:19:6f:78:52:ae:37:6d:e3:26:4a:69:59:40:
                    b2:d7:f1:2c:2b:46:2e:95:d4:0e:0b:e7:06:9b:32:
                    01:be:2f:da:12:f4:ac:15:ec:08:11:0d:4a:4e:1c:
                    3c:b5
                Exponent: 65537 (0x10001)
        X509v3 extensions:
            X509v3 Subject Key Identifier: 
                55:00:E2:BF:82:AB:DE:38:48:85:52:B3:20:D5:26:55:69:0E:47:33
            X509v3 Authority Key Identifier: 
                0F:21:17:94:40:B1:A6:7C:59:FA:1C:C5:38:CF:62:E8:84:8B:1C:2C
            Authority Information Access: 
                CA Issuers - URI:foobar
                CA Issuers - URI:http://url-for-aia2/I2.foo
            X509v3 CRL Distribution Points: 
                Full Name:
                  URI:http://url-for-crl/I.crl
            X509v3 Key Usage: critical
                Digital Signature, Key Encipherment
            X509v3 Extended Key Usage: 
                TLS Web Server Authentication, TLS Web Client Authentication
            X509v3 Subject Alternative Name: 
                DNS:target
    Signature Algorithm: sha256WithRSAEncryption
    Signature Value:
        21:17:6d:ae:08:68:27:e6:35:8b:3f:9d:de:36:d4:57:d2:60:
        58:16:fb:f5:63:f5:31:76:3d:90:1d:ae:98:79:aa:5e:93:1e:
        d8:d5:3c:de:c6:0e:51:b2:f1:36:6f:89:1b:f1:97:54:6c:a2:
        c9:c2:b0:5c:b7:92:d5:85:60:d4:ae:4f:76:1b:d6:3d:e3:b1:
        12:d1:69:40:71:87:9f:34:12:f9:c4:84:df:d5:6a:31:bb:8e:
        e0:f9:98:18:9a:8e:29:f7:29:e6:c2:2c:7c:b2:6c:1d:46:92:
        33:a0:46:39:cf:07:76:de:2e:ce:36:d4:64:23:1f:c4:c0:8d:
        41:1c:68:13:4a:b3:fa:f7:f9:22:e0:03:35:41:b6:a3:cc:e9:
        17:2e:d7:12:fc:45:4a:83:e6:e9:77:fa:82:57:11:33:c6:3b:
        0f:37:a2:6c:8b:08:be:98:1b:56:e5:a1:9b:d7:d1:81:13:14:
        1e:0c:96:b4:b0:81:38:f9:04:e0:9b:60:56:87:c4:45:e2:8d:
        0d:cf:e8:eb:a2:e1:b7:54:f4:96:65:ca:95:03:9b:81:32:2c:
        9a:72:de:f3:4a:e6:f5:91:81:9c:88:e0:4b:9f:a1:b1:b5:dd:
        10:60:03:56:71:cc:76:9b:22:70:47:bf:d3:62:30:4f:d7:8c:
        0e:a8:84:79
-----BEGIN CERTIFICATE-----
MIIDqDCCApCgAwIBAgIUFj3QlB6naD9z+Dp+Wbo+CHTsnpQwDQYJKoZIhvcNAQEL
BQAwDDEKMAgGA1UEAwwBSTAeFw0yMjEwMDUxMjAwMDBaFw0yMzEwMDUxMjAwMDBa
MBExDzANBgNVBAMMBnRhcmdldDCCASIwDQYJKoZIhvcNAQEBBQADggEPADCCAQoC
ggEBAMwiCFjCBIrdJhCekhAunMFvxQhScZVTOLXL0L9GVDeL3JOM9AFzHFsDnefA
Nr2vM9Eql7asJI6TndGOAf2WL4kzceYY4bUE+6ysBddfBLmDr/LT3k3qWAJqOZzy
140lvbYO63xxGwCrd+84dVd3sluswl3rPJ4KQy28i0vwboO175sdNSIlsDcRaZ5C
Y60K2vKnTHb4MArHgldDqgcI7aigLUZja6qRxuvVpO3NJ0hP9PAGX5V8JsyyvHMV
5DSeFiDSrycT4Q3iiJsQNK7nVRAAAGwZb3hSrjdt4yZKaVlAstfxLCtGLpXUDgvn
BpsyAb4v2hL0rBXsCBENSk4cPLUCAwEAAaOB/DCB+TAdBgNVHQ4EFgQUVQDiv4Kr
3jhIhVKzINUmVWkORzMwHwYDVR0jBBgwFoAUDyEXlECxpnxZ+hzFOM9i6ISLHCww
SgYIKwYBBQUHAQEEPjA8MBIGCCsGAQUFBzAChgZmb29iYXIwJgYIKwYBBQUHMAKG
Gmh0dHA6Ly91cmwtZm9yLWFpYTIvSTIuZm9vMCkGA1UdHwQiMCAwHqAcoBqGGGh0
dHA6Ly91cmwtZm9yLWNybC9JLmNybDAOBgNVHQ8BAf8EBAMCBaAwHQYDVR0lBBYw
FAYIKwYBBQUHAwEGCCsGAQUFBwMCMBEGA1UdEQQKMAiCBnRhcmdldDANBgkqhkiG
9w0BAQsFAAOCAQEAIRdtrghoJ+Y1iz+d3jbUV9JgWBb79WP1MXY9kB2umHmqXpMe
2NU83sYOUbLxNm+JG/GXVGyiycKwXLeS1YVg1K5PdhvWPeOxEtFpQHGHnzQS+cSE
39VqMbuO4PmYGJqOKfcp5sIsfLJsHUaSM6BGOc8Hdt4uzjbUZCMfxMCNQRxoE0qz
+vf5IuADNUG2o8zpFy7XEvxFSoPm6Xf6glcRM8Y7DzeibIsIvpgbVuWhm9fRgRMU
HgyWtLCBOPkE4JtgVofEReKNDc/o66Lht1T0lmXKlQObgTIsmnLe80rm9ZGBnIjg
S5+hsbXdEGADVnHMdpsicEe/02IwT9eMDqiEeQ==
-----END CERTIFICATE-----
