[Created by: generate-chains.py]

Certificate chain where the intermediate has a valid signature, however uses
MD5 in the signature algorithm.

Certificate:
    Data:
        Version: 3 (0x2)
        Serial Number:
            0b:a9:f2:a0:f0:d0:8e:8c:da:5a:d0:d3:2b:d4:c6:5a:94:48:2b:3c
        Signature Algorithm: sha256WithRSAEncryption
        Issuer: CN=Intermediate
        Validity
            Not Before: Oct  5 12:00:00 2022 GMT
            Not After : Oct  5 12:00:00 2023 GMT
        Subject: CN=Target
        Subject Public Key Info:
            Public Key Algorithm: rsaEncryption
                Public-Key: (2048 bit)
                Modulus:
                    00:c7:dd:eb:5a:f4:88:03:0a:d7:b6:29:95:e0:58:
                    03:c6:35:36:b0:9e:e8:09:94:21:ba:07:cf:70:cc:
                    52:c7:2c:fd:fe:c0:86:50:b3:0c:7b:46:cf:eb:a3:
                    bd:5a:29:32:58:81:09:ff:85:f8:b3:77:75:58:61:
                    22:f1:59:99:1f:0d:58:dd:ff:f5:a8:51:62:0a:58:
                    db:20:8e:fd:5a:43:96:8f:cd:8c:98:ca:f4:ef:4c:
                    f6:1e:48:dc:48:46:60:8c:67:0f:9a:41:2b:6b:72:
                    e2:ce:11:25:3d:21:99:fa:3f:ca:34:b8:ae:f1:29:
                    7a:ce:bc:1c:ce:98:50:d6:70:93:0a:a5:c4:7e:05:
                    34:46:f1:ef:36:59:90:62:c2:b8:b9:71:ed:df:c0:
                    f8:fd:ff:08:fa:db:05:7d:99:35:2a:65:08:e0:a1:
                    66:cb:7d:55:bc:72:d8:1f:7d:0c:11:e2:8b:11:51:
                    2e:88:b1:d1:72:5f:c5:6b:ac:f0:1e:3f:97:b8:0e:
                    d4:49:9d:a0:b5:be:23:79:b1:0f:19:90:c6:00:e1:
                    62:b4:d5:db:25:8c:11:01:92:9d:17:16:fd:ee:bf:
                    37:6a:2a:d9:b4:4d:83:0c:24:2c:f8:28:7f:52:9d:
                    6b:b3:ac:b2:2b:86:e8:fe:f8:a5:3a:cc:9d:eb:08:
                    f0:6f
                Exponent: 65537 (0x10001)
        X509v3 extensions:
            X509v3 Subject Key Identifier: 
                4A:A4:1B:84:D7:FB:A1:F1:FB:D4:71:87:01:11:63:87:06:5D:A6:D1
            X509v3 Authority Key Identifier: 
                A6:86:14:22:AB:40:E8:07:5F:13:64:F3:8D:60:DE:30:B4:0B:B3:31
            Authority Information Access: 
                CA Issuers - URI:http://url-for-aia/Intermediate.cer
            X509v3 CRL Distribution Points: 
                Full Name:
                  URI:http://url-for-crl/Intermediate.crl
            X509v3 Key Usage: critical
                Digital Signature, Key Encipherment
            X509v3 Extended Key Usage: 
                TLS Web Server Authentication, TLS Web Client Authentication
    Signature Algorithm: sha256WithRSAEncryption
    Signature Value:
        1c:77:0d:dd:75:12:dc:dc:ff:5b:6a:a6:21:87:c3:ad:1f:76:
        06:e2:b1:f1:88:68:d8:ad:ba:d0:75:56:fe:00:69:79:8e:d2:
        7b:de:f2:32:0f:d8:af:bf:7f:0f:1d:11:d0:74:62:b7:50:ba:
        81:fe:fb:af:e4:1e:07:ea:58:8e:a1:a7:2e:70:00:46:e1:f3:
        b9:13:e4:04:97:b0:14:1d:2c:0e:42:84:dd:cc:8c:8b:61:90:
        ce:93:3e:ef:80:e8:e2:59:d6:ed:9d:5c:7d:6e:0a:3e:f0:d8:
        ef:67:04:29:04:93:5e:d6:54:e3:9f:4a:67:7b:60:20:34:47:
        38:7c:f5:cc:8a:68:9a:7e:9a:cf:3a:89:b0:81:8e:b5:ca:fd:
        89:42:95:cc:ca:fe:97:ad:59:6b:04:ea:0a:35:d1:10:f2:a7:
        99:a4:e4:5c:58:6c:bb:49:e9:b0:2d:0a:48:98:b1:46:d6:40:
        18:bb:39:39:8f:93:01:f2:1b:e4:28:18:2f:23:cc:49:18:6c:
        1c:ad:1d:26:01:9b:40:37:94:ad:c6:c8:ed:bb:af:ab:eb:46:
        46:a7:00:a7:74:7c:8a:78:c0:5d:50:f7:90:52:b1:a1:a6:9e:
        31:1b:86:2d:d9:e4:b5:b6:65:3d:70:38:17:0b:86:f3:dd:dc:
        ca:c8:86:33
-----BEGIN CERTIFICATE-----
MIIDoDCCAoigAwIBAgIUC6nyoPDQjozaWtDTK9TGWpRIKzwwDQYJKoZIhvcNAQEL
BQAwFzEVMBMGA1UEAwwMSW50ZXJtZWRpYXRlMB4XDTIyMTAwNTEyMDAwMFoXDTIz
MTAwNTEyMDAwMFowETEPMA0GA1UEAwwGVGFyZ2V0MIIBIjANBgkqhkiG9w0BAQEF
AAOCAQ8AMIIBCgKCAQEAx93rWvSIAwrXtimV4FgDxjU2sJ7oCZQhugfPcMxSxyz9
/sCGULMMe0bP66O9WikyWIEJ/4X4s3d1WGEi8VmZHw1Y3f/1qFFiCljbII79WkOW
j82MmMr070z2HkjcSEZgjGcPmkEra3LizhElPSGZ+j/KNLiu8Sl6zrwczphQ1nCT
CqXEfgU0RvHvNlmQYsK4uXHt38D4/f8I+tsFfZk1KmUI4KFmy31VvHLYH30MEeKL
EVEuiLHRcl/Fa6zwHj+XuA7USZ2gtb4jebEPGZDGAOFitNXbJYwRAZKdFxb97r83
airZtE2DDCQs+Ch/Up1rs6yyK4bo/vilOsyd6wjwbwIDAQABo4HpMIHmMB0GA1Ud
DgQWBBRKpBuE1/uh8fvUcYcBEWOHBl2m0TAfBgNVHSMEGDAWgBSmhhQiq0DoB18T
ZPONYN4wtAuzMTA/BggrBgEFBQcBAQQzMDEwLwYIKwYBBQUHMAKGI2h0dHA6Ly91
cmwtZm9yLWFpYS9JbnRlcm1lZGlhdGUuY2VyMDQGA1UdHwQtMCswKaAnoCWGI2h0
dHA6Ly91cmwtZm9yLWNybC9JbnRlcm1lZGlhdGUuY3JsMA4GA1UdDwEB/wQEAwIF
oDAdBgNVHSUEFjAUBggrBgEFBQcDAQYIKwYBBQUHAwIwDQYJKoZIhvcNAQELBQAD
ggEBABx3Dd11Etzc/1tqpiGHw60fdgbisfGIaNitutB1Vv4AaXmO0nve8jIP2K+/
fw8dEdB0YrdQuoH++6/kHgfqWI6hpy5wAEbh87kT5ASXsBQdLA5ChN3MjIthkM6T
Pu+A6OJZ1u2dXH1uCj7w2O9nBCkEk17WVOOfSmd7YCA0Rzh89cyKaJp+ms86ibCB
jrXK/YlClczK/petWWsE6go10RDyp5mk5FxYbLtJ6bAtCkiYsUbWQBi7OTmPkwHy
G+QoGC8jzEkYbBytHSYBm0A3lK3GyO27r6vrRkanAKd0fIp4wF1Q95BSsaGmnjEb
hi3Z5LW2ZT1wOBcLhvPd3MrIhjM=
-----END CERTIFICATE-----

Certificate:
    Data:
        Version: 3 (0x2)
        Serial Number:
            3b:de:b0:4c:1f:05:cc:90:22:e0:d2:71:b8:76:8b:64:33:62:88:d3
        Signature Algorithm: sha1WithRSAEncryption
        Issuer: CN=Root
        Validity
            Not Before: Oct  5 12:00:00 2022 GMT
            Not After : Oct  5 12:00:00 2023 GMT
        Subject: CN=Intermediate
        Subject Public Key Info:
            Public Key Algorithm: rsaEncryption
                Public-Key: (2048 bit)
                Modulus:
                    00:eb:61:9e:9d:4b:23:cc:8e:39:d9:ac:07:05:da:
                    32:34:de:2a:dd:2f:62:ed:87:ce:7c:59:c4:9d:8e:
                    28:76:d1:f2:65:60:91:3f:7b:63:a4:2f:50:c4:da:
                    12:5b:71:a0:97:4f:26:cf:e7:b2:01:84:67:57:f5:
                    86:36:54:68:0f:28:f0:ea:7b:ca:1e:1a:bc:7e:67:
                    cf:fd:14:63:ee:c1:33:92:01:70:bc:12:6b:7d:2c:
                    8d:02:34:8e:85:1a:e4:f5:99:b6:c8:d5:18:d9:04:
                    a6:f5:40:fc:96:50:e2:3f:87:a0:d6:72:be:a3:a3:
                    45:89:07:74:d0:2e:9c:0d:88:12:02:a3:ef:17:ad:
                    2c:2d:71:66:11:89:3f:cf:57:77:28:77:70:bb:0f:
                    39:b0:b1:34:9d:e9:f7:a2:56:af:57:7e:ed:44:f8:
                    be:78:3d:28:c5:0d:37:15:2c:f6:99:4e:05:70:ae:
                    c5:99:45:a7:3f:bd:83:79:6a:a3:67:ff:71:2d:60:
                    e2:08:91:23:45:40:b1:40:52:e1:3b:1d:5d:d1:e9:
                    c2:b0:b1:c4:fb:7c:af:9c:c1:95:f1:a5:23:16:19:
                    75:9f:ef:be:b8:79:a7:f4:c5:b2:47:ae:6d:1c:15:
                    9c:26:0f:b2:0f:ec:92:8d:5a:79:c9:9e:16:e0:70:
                    bc:ef
                Exponent: 65537 (0x10001)
        X509v3 extensions:
            X509v3 Subject Key Identifier: 
                A6:86:14:22:AB:40:E8:07:5F:13:64:F3:8D:60:DE:30:B4:0B:B3:31
            X509v3 Authority Key Identifier: 
                C4:01:16:E5:A0:16:10:29:62:67:7B:D1:22:42:6C:6F:15:2B:AF:96
            Authority Information Access: 
                CA Issuers - URI:http://url-for-aia/Root.cer
            X509v3 CRL Distribution Points: 
                Full Name:
                  URI:http://url-for-crl/Root.crl
            X509v3 Key Usage: critical
                Certificate Sign, CRL Sign
            X509v3 Basic Constraints: critical
                CA:TRUE
    Signature Algorithm: sha1WithRSAEncryption
    Signature Value:
        5b:00:78:ba:79:47:4a:00:c5:39:37:ac:40:59:da:e1:88:68:
        41:58:0b:b5:7a:e5:f1:a8:77:eb:ff:8e:4f:33:30:7f:e9:8d:
        79:8e:7f:0a:6c:6d:bb:82:cf:0a:34:e6:0f:87:57:83:a7:5a:
        cb:54:0e:7e:c7:71:3a:ca:37:31:ff:bc:08:38:60:e3:3f:d7:
        97:02:92:e4:ef:a4:ee:ab:89:ed:bf:5e:f4:39:7d:31:fa:03:
        b9:a0:b6:74:a4:51:83:f8:7a:ab:c1:2e:03:28:27:7e:fb:1d:
        ec:ff:26:21:a2:a8:a1:eb:fb:7b:e2:54:e7:3a:34:1f:5c:67:
        eb:61:35:94:f3:65:4f:9d:df:7b:7b:0e:40:c2:57:a3:a4:9b:
        f1:c8:95:c5:ed:02:0d:79:1d:4c:f8:23:25:1b:a9:86:84:2f:
        c1:23:64:ca:74:7c:58:d3:28:4b:c2:ec:32:9a:fd:45:db:d4:
        8c:28:df:4d:f1:cd:13:7b:b2:73:33:5e:0a:cc:ec:4b:ab:a6:
        6b:69:16:e4:6d:ea:82:7b:14:85:05:71:62:32:81:a1:d3:bb:
        1a:6c:a1:7b:45:c8:47:e1:04:10:10:41:38:4d:43:86:18:9c:
        71:91:d4:61:e3:90:d2:50:0f:2b:d7:1d:09:34:ff:9c:14:ff:
        78:97:a5:fe
-----BEGIN CERTIFICATE-----
MIIDgDCCAmigAwIBAgIUO96wTB8FzJAi4NJxuHaLZDNiiNMwDQYJKoZIhvcNAQEF
BQAwDzENMAsGA1UEAwwEUm9vdDAeFw0yMjEwMDUxMjAwMDBaFw0yMzEwMDUxMjAw
MDBaMBcxFTATBgNVBAMMDEludGVybWVkaWF0ZTCCASIwDQYJKoZIhvcNAQEBBQAD
ggEPADCCAQoCggEBAOthnp1LI8yOOdmsBwXaMjTeKt0vYu2HznxZxJ2OKHbR8mVg
kT97Y6QvUMTaEltxoJdPJs/nsgGEZ1f1hjZUaA8o8Op7yh4avH5nz/0UY+7BM5IB
cLwSa30sjQI0joUa5PWZtsjVGNkEpvVA/JZQ4j+HoNZyvqOjRYkHdNAunA2IEgKj
7xetLC1xZhGJP89Xdyh3cLsPObCxNJ3p96JWr1d+7UT4vng9KMUNNxUs9plOBXCu
xZlFpz+9g3lqo2f/cS1g4giRI0VAsUBS4TsdXdHpwrCxxPt8r5zBlfGlIxYZdZ/v
vrh5p/TFskeubRwVnCYPsg/sko1aecmeFuBwvO8CAwEAAaOByzCByDAdBgNVHQ4E
FgQUpoYUIqtA6AdfE2TzjWDeMLQLszEwHwYDVR0jBBgwFoAUxAEW5aAWECliZ3vR
IkJsbxUrr5YwNwYIKwYBBQUHAQEEKzApMCcGCCsGAQUFBzAChhtodHRwOi8vdXJs
LWZvci1haWEvUm9vdC5jZXIwLAYDVR0fBCUwIzAhoB+gHYYbaHR0cDovL3VybC1m
b3ItY3JsL1Jvb3QuY3JsMA4GA1UdDwEB/wQEAwIBBjAPBgNVHRMBAf8EBTADAQH/
MA0GCSqGSIb3DQEBBQUAA4IBAQBbAHi6eUdKAMU5N6xAWdrhiGhBWAu1euXxqHfr
/45PMzB/6Y15jn8KbG27gs8KNOYPh1eDp1rLVA5+x3E6yjcx/7wIOGDjP9eXApLk
76Tuq4ntv170OX0x+gO5oLZ0pFGD+HqrwS4DKCd++x3s/yYhoqih6/t74lTnOjQf
XGfrYTWU82VPnd97ew5AwlejpJvxyJXF7QINeR1M+CMlG6mGhC/BI2TKdHxY0yhL
wuwymv1F29SMKN9N8c0Te7JzM14KzOxLq6ZraRbkbeqCexSFBXFiMoGh07sabKF7
RchH4QQQEEE4TUOGGJxxkdRh45DSUA8r1x0JNP+cFP94l6X+
-----END CERTIFICATE-----

Certificate:
    Data:
        Version: 3 (0x2)
        Serial Number:
            3b:de:b0:4c:1f:05:cc:90:22:e0:d2:71:b8:76:8b:64:33:62:88:d2
        Signature Algorithm: sha256WithRSAEncryption
        Issuer: CN=Root
        Validity
            Not Before: Oct  5 12:00:00 2022 GMT
            Not After : Oct  5 12:00:00 2023 GMT
        Subject: CN=Root
        Subject Public Key Info:
            Public Key Algorithm: rsaEncryption
                Public-Key: (2048 bit)
                Modulus:
                    00:cc:b2:cd:77:8f:be:c9:a5:17:ad:e5:ac:2d:b2:
                    c0:1f:33:5e:ed:d9:96:57:14:9b:a4:37:d8:a0:3d:
                    e4:2c:56:95:4d:75:68:4f:77:06:24:e0:0f:e9:b6:
                    de:6f:dd:a7:f6:93:dc:f3:48:10:fa:fb:90:b5:43:
                    42:0b:9d:d7:e9:0c:2c:69:7b:3a:4f:73:31:00:0c:
                    ba:15:cc:dd:77:a6:a9:f9:21:b8:97:aa:b7:a4:99:
                    6c:08:a0:8e:9f:b8:29:47:df:db:b9:b0:39:e5:4f:
                    be:47:2f:93:76:5b:6b:02:fe:ec:66:31:c2:de:8e:
                    0a:67:89:a4:70:cb:32:40:db:63:00:57:40:b4:8e:
                    b8:24:e4:de:33:62:24:7a:e5:b2:18:41:54:f7:98:
                    d9:f5:c8:23:1e:88:5a:a6:1c:7e:92:0f:92:56:49:
                    0e:5a:dc:49:4b:d1:f8:1b:73:b0:31:6f:37:7e:cf:
                    91:f4:40:e6:8b:36:11:fb:0f:79:ea:d2:80:f5:8e:
                    c1:24:d2:fe:2f:c1:58:6d:32:2e:04:64:b2:20:d2:
                    cd:a1:79:8b:08:25:8f:1e:89:fe:43:3f:bf:de:49:
                    f2:fa:bb:d7:52:6e:19:8f:4c:b6:6e:4f:59:48:63:
                    e2:c9:55:0f:58:89:93:85:e0:58:ee:80:16:5f:c4:
                    77:b9
                Exponent: 65537 (0x10001)
        X509v3 extensions:
            X509v3 Subject Key Identifier: 
                C4:01:16:E5:A0:16:10:29:62:67:7B:D1:22:42:6C:6F:15:2B:AF:96
            X509v3 Authority Key Identifier: 
                C4:01:16:E5:A0:16:10:29:62:67:7B:D1:22:42:6C:6F:15:2B:AF:96
            Authority Information Access: 
                CA Issuers - URI:http://url-for-aia/Root.cer
            X509v3 CRL Distribution Points: 
                Full Name:
                  URI:http://url-for-crl/Root.crl
            X509v3 Key Usage: critical
                Certificate Sign, CRL Sign
            X509v3 Basic Constraints: critical
                CA:TRUE
    Signature Algorithm: sha256WithRSAEncryption
    Signature Value:
        63:99:d9:7e:82:66:4d:fb:3b:cf:da:12:6e:12:8a:dc:da:e6:
        5b:74:94:b4:ba:dc:00:a0:74:d2:2d:31:47:12:61:1a:0f:ba:
        a6:e2:90:2e:8e:0c:7d:33:3d:f0:c4:0e:72:60:66:17:8e:f8:
        9e:e7:4c:d4:62:6f:11:9e:67:dc:dc:17:97:bd:9a:ab:6d:95:
        22:b7:fa:a9:80:d4:34:7c:c5:f0:45:21:0e:9a:68:e8:8f:68:
        20:b3:44:db:20:0f:5b:31:3e:e0:25:0f:26:9a:c0:fc:32:f2:
        9e:1b:59:a6:9a:20:86:73:c5:d8:71:7f:45:b5:64:75:33:b9:
        2f:7b:ab:03:ea:38:a9:3f:07:03:34:7a:d3:ac:45:11:1f:16:
        ca:fa:19:71:9e:af:01:6d:eb:8c:82:e5:ee:07:5d:a8:7e:9f:
        88:e6:44:0a:92:b2:96:89:f5:22:67:2c:5f:a7:55:a1:25:92:
        f9:62:29:62:b9:16:4c:53:cb:7a:61:5d:1f:d2:3f:83:a2:b9:
        38:d5:73:23:8a:dd:c4:b1:4c:54:15:b2:da:8a:bb:54:4a:27:
        52:ee:d0:1c:f3:48:8f:54:f9:31:4b:10:b7:90:8b:4e:c6:ee:
        c2:5b:69:93:4c:18:d3:f9:25:36:3f:9d:4d:61:b8:2a:6b:53:
        4a:e5:bc:2d
-----BEGIN CERTIFICATE-----
MIIDeDCCAmCgAwIBAgIUO96wTB8FzJAi4NJxuHaLZDNiiNIwDQYJKoZIhvcNAQEL
BQAwDzENMAsGA1UEAwwEUm9vdDAeFw0yMjEwMDUxMjAwMDBaFw0yMzEwMDUxMjAw
MDBaMA8xDTALBgNVBAMMBFJvb3QwggEiMA0GCSqGSIb3DQEBAQUAA4IBDwAwggEK
AoIBAQDMss13j77JpRet5awtssAfM17t2ZZXFJukN9igPeQsVpVNdWhPdwYk4A/p
tt5v3af2k9zzSBD6+5C1Q0ILndfpDCxpezpPczEADLoVzN13pqn5IbiXqrekmWwI
oI6fuClH39u5sDnlT75HL5N2W2sC/uxmMcLejgpniaRwyzJA22MAV0C0jrgk5N4z
YiR65bIYQVT3mNn1yCMeiFqmHH6SD5JWSQ5a3ElL0fgbc7Axbzd+z5H0QOaLNhH7
D3nq0oD1jsEk0v4vwVhtMi4EZLIg0s2heYsIJY8eif5DP7/eSfL6u9dSbhmPTLZu
T1lIY+LJVQ9YiZOF4FjugBZfxHe5AgMBAAGjgcswgcgwHQYDVR0OBBYEFMQBFuWg
FhApYmd70SJCbG8VK6+WMB8GA1UdIwQYMBaAFMQBFuWgFhApYmd70SJCbG8VK6+W
MDcGCCsGAQUFBwEBBCswKTAnBggrBgEFBQcwAoYbaHR0cDovL3VybC1mb3ItYWlh
L1Jvb3QuY2VyMCwGA1UdHwQlMCMwIaAfoB2GG2h0dHA6Ly91cmwtZm9yLWNybC9S
b290LmNybDAOBgNVHQ8BAf8EBAMCAQYwDwYDVR0TAQH/BAUwAwEB/zANBgkqhkiG
9w0BAQsFAAOCAQEAY5nZfoJmTfs7z9oSbhKK3NrmW3SUtLrcAKB00i0xRxJhGg+6
puKQLo4MfTM98MQOcmBmF474nudM1GJvEZ5n3NwXl72aq22VIrf6qYDUNHzF8EUh
Dppo6I9oILNE2yAPWzE+4CUPJprA/DLynhtZppoghnPF2HF/RbVkdTO5L3urA+o4
qT8HAzR606xFER8WyvoZcZ6vAW3rjILl7gddqH6fiOZECpKylon1ImcsX6dVoSWS
+WIpYrkWTFPLemFdH9I/g6K5ONVzI4rdxLFMVBWy2oq7VEonUu7QHPNIj1T5MUsQ
t5CLTsbuwltpk0wY0/klNj+dTWG4KmtTSuW8LQ==
-----END CERTIFICATE-----
