[Created by: generate-chains.py]

Certificate chain where the intermediate's Basic Constraints extension is
not marked as critical.

Certificate:
    Data:
        Version: 3 (0x2)
        Serial Number:
            4a:45:83:31:ef:c5:47:03:ae:f7:5a:80:bf:fb:8c:bc:23:1e:dc:c4
        Signature Algorithm: sha256WithRSAEncryption
        Issuer: CN=Intermediate
        Validity
            Not Before: Oct  5 12:00:00 2022 GMT
            Not After : Oct  5 12:00:00 2023 GMT
        Subject: CN=Target
        Subject Public Key Info:
            Public Key Algorithm: rsaEncryption
                Public-Key: (2048 bit)
                Modulus:
                    00:d8:cc:f6:ec:23:eb:20:d2:0e:7e:29:04:ec:8c:
                    b9:bd:ee:47:6e:0b:ac:a9:fa:22:a4:fc:41:74:04:
                    d0:b5:8a:37:56:29:d5:be:e7:e0:45:88:30:d9:5a:
                    e0:a7:69:fd:d1:c3:4d:1c:42:68:ae:7d:cf:54:db:
                    84:b9:91:e6:68:c5:d1:6d:a4:34:4a:7f:8f:3e:a3:
                    a8:c4:0e:3f:90:42:a9:b8:84:c2:fd:51:ed:eb:e9:
                    6d:cc:5a:22:f7:fb:eb:29:7d:5d:97:9d:26:eb:10:
                    29:bf:2a:bd:b0:2f:33:9b:e7:a3:17:9b:db:b4:ce:
                    f8:5e:66:25:7c:8c:e3:c8:53:cf:c2:c3:80:cf:e6:
                    68:98:ca:bd:e3:b8:d3:bc:e2:03:d0:31:5b:ef:21:
                    6d:2d:42:5e:cb:9a:3a:4d:7a:bd:e7:75:75:ff:63:
                    95:aa:08:20:fb:a8:6f:95:a9:ea:45:07:c4:a7:32:
                    89:58:94:98:76:2f:5d:d4:85:90:e3:be:96:33:1c:
                    53:d7:bd:58:87:75:4e:8c:c9:c9:6b:c8:b6:3f:d3:
                    46:1a:9f:4c:de:a5:48:cd:ad:87:fe:7a:82:f2:0c:
                    65:84:f5:09:ce:cf:fd:6c:66:57:91:dc:fb:85:d1:
                    ff:b2:4c:ce:2f:a3:73:b1:dc:1e:13:5c:03:1a:a6:
                    99:13
                Exponent: 65537 (0x10001)
        X509v3 extensions:
            X509v3 Subject Key Identifier: 
                FD:20:6C:45:13:AE:E6:1F:25:FD:C9:1E:E3:09:32:CC:34:28:4E:CF
            X509v3 Authority Key Identifier: 
                5A:44:77:BA:2D:5E:48:FE:11:68:59:58:40:91:67:E2:22:BF:31:38
            Authority Information Access: 
                CA Issuers - URI:http://url-for-aia/Intermediate.cer
            X509v3 CRL Distribution Points: 
                Full Name:
                  URI:http://url-for-crl/Intermediate.crl
            X509v3 Key Usage: critical
                Digital Signature, Key Encipherment
            X509v3 Extended Key Usage: 
                TLS Web Server Authentication, TLS Web Client Authentication
    Signature Algorithm: sha256WithRSAEncryption
    Signature Value:
        8a:63:43:77:8e:74:e6:51:46:6a:10:8f:d6:8e:a3:4a:d3:29:
        be:3e:c2:54:64:b8:76:35:c2:07:84:fa:7f:a0:b0:a7:9e:82:
        6f:4d:a4:73:fe:f0:68:29:2a:4e:21:b2:0a:62:ac:66:66:f7:
        02:fc:d4:6b:01:37:94:66:27:cd:ec:df:f5:18:df:4f:bf:58:
        2a:ce:85:2d:c5:a2:c7:a4:39:16:4b:3a:e4:92:8f:fe:b0:a2:
        e4:e8:74:74:65:99:45:da:09:a5:74:0f:50:e2:b3:79:44:6a:
        4b:1e:a2:2d:ff:67:81:ad:57:00:3e:50:f1:b2:67:60:36:27:
        2d:8f:dd:e5:c3:9f:45:68:af:75:39:c5:52:3d:08:83:81:77:
        eb:a8:33:e5:2f:63:41:7a:5b:1c:eb:ea:9a:1d:ba:05:79:9d:
        48:fa:1d:da:c0:1e:1f:bd:c3:9e:d1:0b:e8:88:24:50:29:ed:
        95:3c:f9:43:43:78:66:e8:f8:51:07:b0:b6:de:9c:8c:8e:0c:
        a6:ea:41:8f:95:43:b2:27:1e:b8:82:51:09:96:93:5e:13:ae:
        fa:27:38:6e:2a:cf:23:7d:3f:7f:da:4f:a2:7e:0d:da:ac:72:
        9b:1a:ac:03:52:4b:2d:5e:65:e9:a3:eb:d1:a1:25:54:fc:30:
        71:c0:c8:43
-----BEGIN CERTIFICATE-----
MIIDoDCCAoigAwIBAgIUSkWDMe/FRwOu91qAv/uMvCMe3MQwDQYJKoZIhvcNAQEL
BQAwFzEVMBMGA1UEAwwMSW50ZXJtZWRpYXRlMB4XDTIyMTAwNTEyMDAwMFoXDTIz
MTAwNTEyMDAwMFowETEPMA0GA1UEAwwGVGFyZ2V0MIIBIjANBgkqhkiG9w0BAQEF
AAOCAQ8AMIIBCgKCAQEA2Mz27CPrINIOfikE7Iy5ve5HbgusqfoipPxBdATQtYo3
VinVvufgRYgw2Vrgp2n90cNNHEJorn3PVNuEuZHmaMXRbaQ0Sn+PPqOoxA4/kEKp
uITC/VHt6+ltzFoi9/vrKX1dl50m6xApvyq9sC8zm+ejF5vbtM74XmYlfIzjyFPP
wsOAz+ZomMq947jTvOID0DFb7yFtLUJey5o6TXq953V1/2OVqggg+6hvlanqRQfE
pzKJWJSYdi9d1IWQ476WMxxT171Yh3VOjMnJa8i2P9NGGp9M3qVIza2H/nqC8gxl
hPUJzs/9bGZXkdz7hdH/skzOL6NzsdweE1wDGqaZEwIDAQABo4HpMIHmMB0GA1Ud
DgQWBBT9IGxFE67mHyX9yR7jCTLMNChOzzAfBgNVHSMEGDAWgBRaRHe6LV5I/hFo
WVhAkWfiIr8xODA/BggrBgEFBQcBAQQzMDEwLwYIKwYBBQUHMAKGI2h0dHA6Ly91
cmwtZm9yLWFpYS9JbnRlcm1lZGlhdGUuY2VyMDQGA1UdHwQtMCswKaAnoCWGI2h0
dHA6Ly91cmwtZm9yLWNybC9JbnRlcm1lZGlhdGUuY3JsMA4GA1UdDwEB/wQEAwIF
oDAdBgNVHSUEFjAUBggrBgEFBQcDAQYIKwYBBQUHAwIwDQYJKoZIhvcNAQELBQAD
ggEBAIpjQ3eOdOZRRmoQj9aOo0rTKb4+wlRkuHY1wgeE+n+gsKeegm9NpHP+8Ggp
Kk4hsgpirGZm9wL81GsBN5RmJ83s3/UY30+/WCrOhS3FosekORZLOuSSj/6wouTo
dHRlmUXaCaV0D1Dis3lEakseoi3/Z4GtVwA+UPGyZ2A2Jy2P3eXDn0Vor3U5xVI9
CIOBd+uoM+UvY0F6Wxzr6podugV5nUj6HdrAHh+9w57RC+iIJFAp7ZU8+UNDeGbo
+FEHsLbenIyODKbqQY+VQ7InHriCUQmWk14TrvonOG4qzyN9P3/aT6J+Ddqscpsa
rANSSy1eZemj69GhJVT8MHHAyEM=
-----END CERTIFICATE-----

Certificate:
    Data:
        Version: 3 (0x2)
        Serial Number:
            2d:b0:5d:cd:6e:fd:4d:77:89:ef:99:fc:fd:05:d3:22:44:3f:93:ef
        Signature Algorithm: sha256WithRSAEncryption
        Issuer: CN=Root
        Validity
            Not Before: Oct  5 12:00:00 2022 GMT
            Not After : Oct  5 12:00:00 2023 GMT
        Subject: CN=Intermediate
        Subject Public Key Info:
            Public Key Algorithm: rsaEncryption
                Public-Key: (2048 bit)
                Modulus:
                    00:fb:af:dd:12:ab:aa:06:e0:72:bd:43:4c:3e:5b:
                    cd:02:9c:ca:c1:42:6d:cd:47:6e:6c:4c:6b:3f:2e:
                    c1:3f:2e:88:3d:77:4f:1c:34:60:ba:f7:fb:58:64:
                    3c:c2:76:5d:30:88:48:22:81:2f:27:c8:1f:b4:ed:
                    96:07:5d:f7:7c:4a:37:be:fe:4f:7b:1f:19:82:21:
                    24:18:c9:ae:a7:a5:58:62:9d:6b:f9:9a:88:56:0f:
                    7f:b4:0c:1a:d5:4f:ab:2c:c4:97:6e:ec:db:b1:a0:
                    43:86:34:08:2e:21:16:f8:f6:3e:2a:e8:ca:9a:a4:
                    fb:91:7e:f9:43:19:42:08:10:7e:92:af:60:45:4e:
                    30:e4:d3:d3:e9:bf:32:cf:c1:1b:a0:52:6e:a4:aa:
                    ed:13:6d:e8:7f:68:c6:88:84:67:20:8f:6b:82:9c:
                    49:5d:b4:95:63:9d:0a:dc:9f:ab:7b:b3:eb:f7:ad:
                    48:35:f5:44:ec:84:23:e1:5b:ca:49:16:e0:c2:5a:
                    8f:3e:d2:2b:fa:50:08:bf:12:3b:da:8c:96:66:93:
                    69:5b:27:4e:b8:e7:8d:11:14:e6:29:23:b5:d9:f7:
                    b0:f9:e2:90:e2:d8:be:8d:1d:dc:89:f5:eb:15:df:
                    58:88:e8:91:14:94:9d:37:e3:10:1a:de:30:3c:18:
                    d7:6f
                Exponent: 65537 (0x10001)
        X509v3 extensions:
            X509v3 Subject Key Identifier: 
                5A:44:77:BA:2D:5E:48:FE:11:68:59:58:40:91:67:E2:22:BF:31:38
            X509v3 Authority Key Identifier: 
                B8:16:92:87:E1:0C:B9:E5:61:C3:DA:A5:05:11:6A:58:DD:78:65:8E
            Authority Information Access: 
                CA Issuers - URI:http://url-for-aia/Root.cer
            X509v3 CRL Distribution Points: 
                Full Name:
                  URI:http://url-for-crl/Root.crl
            X509v3 Key Usage: critical
                Certificate Sign, CRL Sign
            X509v3 Basic Constraints: 
                CA:TRUE
    Signature Algorithm: sha256WithRSAEncryption
    Signature Value:
        0f:bf:8b:3c:dd:0e:00:2b:1f:fb:63:75:6f:71:ba:d5:25:4e:
        ac:d4:61:c2:eb:52:0d:95:f8:a7:4b:4f:07:b1:d8:ae:44:7c:
        49:c8:2d:38:2c:60:e8:d7:03:ca:06:3a:ce:a5:3b:de:94:a8:
        e7:0f:20:0b:c0:79:1a:f4:c3:bb:42:00:55:60:d5:62:8e:b2:
        38:22:ee:ff:eb:11:bd:40:e4:78:ce:0f:29:75:7c:d0:84:74:
        cf:5d:63:69:27:bf:32:e4:bf:05:bb:94:18:be:0b:9e:9c:e5:
        c3:b9:7d:bd:b4:26:eb:46:d2:60:7d:14:89:ec:13:1f:de:6f:
        6a:03:f4:45:6f:e5:16:77:5a:bf:ef:59:01:c7:da:39:55:63:
        08:34:e1:fc:9e:e3:ed:3c:64:46:15:2b:53:5a:f4:cf:c6:2e:
        86:e6:bd:eb:d1:23:6e:90:e4:65:e8:47:65:55:95:e1:5c:f5:
        e8:8e:8a:48:64:4f:5f:f7:45:a0:67:46:be:ba:dc:4f:39:47:
        38:eb:27:31:5b:77:ff:16:ae:39:f3:38:4d:15:d1:ee:87:9e:
        ff:9a:5e:f0:fb:55:df:8c:85:52:98:b2:8a:9a:55:bb:b0:b5:
        88:82:d2:fa:02:07:80:0a:4a:a0:e9:d6:a8:e3:36:69:d1:4d:
        f2:82:5e:11
-----BEGIN CERTIFICATE-----
MIIDfTCCAmWgAwIBAgIULbBdzW79TXeJ75n8/QXTIkQ/k+8wDQYJKoZIhvcNAQEL
BQAwDzENMAsGA1UEAwwEUm9vdDAeFw0yMjEwMDUxMjAwMDBaFw0yMzEwMDUxMjAw
MDBaMBcxFTATBgNVBAMMDEludGVybWVkaWF0ZTCCASIwDQYJKoZIhvcNAQEBBQAD
ggEPADCCAQoCggEBAPuv3RKrqgbgcr1DTD5bzQKcysFCbc1HbmxMaz8uwT8uiD13
Txw0YLr3+1hkPMJ2XTCISCKBLyfIH7Ttlgdd93xKN77+T3sfGYIhJBjJrqelWGKd
a/maiFYPf7QMGtVPqyzEl27s27GgQ4Y0CC4hFvj2Piroypqk+5F++UMZQggQfpKv
YEVOMOTT0+m/Ms/BG6BSbqSq7RNt6H9oxoiEZyCPa4KcSV20lWOdCtyfq3uz6/et
SDX1ROyEI+FbykkW4MJajz7SK/pQCL8SO9qMlmaTaVsnTrjnjREU5ikjtdn3sPni
kOLYvo0d3In16xXfWIjokRSUnTfjEBreMDwY128CAwEAAaOByDCBxTAdBgNVHQ4E
FgQUWkR3ui1eSP4RaFlYQJFn4iK/MTgwHwYDVR0jBBgwFoAUuBaSh+EMueVhw9ql
BRFqWN14ZY4wNwYIKwYBBQUHAQEEKzApMCcGCCsGAQUFBzAChhtodHRwOi8vdXJs
LWZvci1haWEvUm9vdC5jZXIwLAYDVR0fBCUwIzAhoB+gHYYbaHR0cDovL3VybC1m
b3ItY3JsL1Jvb3QuY3JsMA4GA1UdDwEB/wQEAwIBBjAMBgNVHRMEBTADAQH/MA0G
CSqGSIb3DQEBCwUAA4IBAQAPv4s83Q4AKx/7Y3VvcbrVJU6s1GHC61INlfinS08H
sdiuRHxJyC04LGDo1wPKBjrOpTvelKjnDyALwHka9MO7QgBVYNVijrI4Iu7/6xG9
QOR4zg8pdXzQhHTPXWNpJ78y5L8Fu5QYvguenOXDuX29tCbrRtJgfRSJ7BMf3m9q
A/RFb+UWd1q/71kBx9o5VWMINOH8nuPtPGRGFStTWvTPxi6G5r3r0SNukORl6Edl
VZXhXPXojopIZE9f90WgZ0a+utxPOUc46ycxW3f/Fq458zhNFdHuh57/ml7w+1Xf
jIVSmLKKmlW7sLWIgtL6AgeACkqg6dao4zZp0U3ygl4R
-----END CERTIFICATE-----

Certificate:
    Data:
        Version: 3 (0x2)
        Serial Number:
            2d:b0:5d:cd:6e:fd:4d:77:89:ef:99:fc:fd:05:d3:22:44:3f:93:ee
        Signature Algorithm: sha256WithRSAEncryption
        Issuer: CN=Root
        Validity
            Not Before: Oct  5 12:00:00 2022 GMT
            Not After : Oct  5 12:00:00 2023 GMT
        Subject: CN=Root
        Subject Public Key Info:
            Public Key Algorithm: rsaEncryption
                Public-Key: (2048 bit)
                Modulus:
                    00:aa:94:1d:65:8c:79:04:f0:c9:d1:3c:23:76:e9:
                    3e:2c:c9:52:e1:fc:b9:bf:35:8d:66:e4:37:66:b5:
                    4b:ff:1a:9b:cb:30:e1:d4:30:54:fb:6e:f2:43:fd:
                    76:b8:84:51:79:12:5a:65:95:87:ec:3d:19:b0:ab:
                    04:94:64:aa:bc:e5:bf:e2:77:fd:07:28:3c:b5:20:
                    da:55:2c:79:04:f2:71:6e:31:b4:63:14:80:4e:c3:
                    83:1e:ea:7e:5a:c0:4d:48:4a:2e:9e:52:80:80:98:
                    22:10:4a:05:d7:db:13:8f:37:67:20:63:19:01:92:
                    07:46:94:b5:c9:ba:e7:68:af:06:57:35:69:50:50:
                    22:23:0b:92:a1:98:32:08:88:5c:8b:4c:7c:a5:6a:
                    f3:31:ee:bf:4c:59:b0:a1:cb:e8:28:1d:fa:4c:d3:
                    1b:e6:2b:03:1a:4f:b5:8d:93:5d:18:95:c7:93:c1:
                    8b:6f:55:17:34:17:e9:d8:70:47:c8:4c:b2:5a:fa:
                    a7:aa:66:b7:a3:62:17:0a:7c:27:15:ef:c2:bc:5b:
                    7a:7d:88:c7:2a:45:0c:d7:3b:91:7e:72:c6:30:cb:
                    12:39:1e:a2:8a:88:39:30:f0:54:b4:19:6f:b6:5e:
                    e8:01:60:2c:2b:27:cb:e5:93:49:ab:b8:9e:f0:29:
                    e6:c7
                Exponent: 65537 (0x10001)
        X509v3 extensions:
            X509v3 Subject Key Identifier: 
                B8:16:92:87:E1:0C:B9:E5:61:C3:DA:A5:05:11:6A:58:DD:78:65:8E
            X509v3 Authority Key Identifier: 
                B8:16:92:87:E1:0C:B9:E5:61:C3:DA:A5:05:11:6A:58:DD:78:65:8E
            Authority Information Access: 
                CA Issuers - URI:http://url-for-aia/Root.cer
            X509v3 CRL Distribution Points: 
                Full Name:
                  URI:http://url-for-crl/Root.crl
            X509v3 Key Usage: critical
                Certificate Sign, CRL Sign
            X509v3 Basic Constraints: critical
                CA:TRUE
    Signature Algorithm: sha256WithRSAEncryption
    Signature Value:
        64:15:87:ee:45:8e:28:6d:9d:ea:38:c0:8d:46:a9:14:f3:f0:
        12:c2:84:32:87:fd:3e:46:5a:2a:d5:cc:17:43:3b:75:ca:fd:
        48:07:0d:78:e2:f6:3e:53:a9:7c:94:e2:4f:28:b6:78:ac:4f:
        f8:f1:b2:46:4e:b8:6d:04:c5:49:de:3d:9a:04:74:bf:62:4e:
        ab:39:b7:5a:f4:a1:1e:33:12:be:bb:59:80:61:c1:f5:c2:da:
        01:b0:94:1b:23:b2:86:88:4d:de:73:ad:8e:e9:9b:90:cf:dd:
        55:5f:27:5b:ab:ed:26:77:35:d7:60:e5:3f:d6:7e:82:14:55:
        d2:b6:2b:34:22:ef:06:c4:ae:d7:f9:e7:aa:9c:19:33:c2:60:
        85:76:13:e9:b7:52:da:87:85:62:da:8b:dd:37:c5:6f:a6:15:
        e3:19:7c:f2:56:f6:c2:9c:f9:40:38:0d:91:d4:91:6c:aa:fe:
        c7:6e:70:86:cc:3f:25:dd:af:13:1d:f5:a3:eb:cb:39:38:63:
        76:19:53:73:d1:22:2b:2a:fc:ad:64:3b:d8:84:db:d2:15:e1:
        6e:c6:33:0b:62:d5:18:e2:96:be:c6:65:b4:90:da:0f:9e:83:
        57:e2:11:14:6e:76:5a:ed:5a:a9:fc:a3:5a:e5:4a:45:5f:af:
        ff:b7:c0:17
-----BEGIN CERTIFICATE-----
MIIDeDCCAmCgAwIBAgIULbBdzW79TXeJ75n8/QXTIkQ/k+4wDQYJKoZIhvcNAQEL
BQAwDzENMAsGA1UEAwwEUm9vdDAeFw0yMjEwMDUxMjAwMDBaFw0yMzEwMDUxMjAw
MDBaMA8xDTALBgNVBAMMBFJvb3QwggEiMA0GCSqGSIb3DQEBAQUAA4IBDwAwggEK
AoIBAQCqlB1ljHkE8MnRPCN26T4syVLh/Lm/NY1m5DdmtUv/GpvLMOHUMFT7bvJD
/Xa4hFF5ElpllYfsPRmwqwSUZKq85b/id/0HKDy1INpVLHkE8nFuMbRjFIBOw4Me
6n5awE1ISi6eUoCAmCIQSgXX2xOPN2cgYxkBkgdGlLXJuudorwZXNWlQUCIjC5Kh
mDIIiFyLTHylavMx7r9MWbChy+goHfpM0xvmKwMaT7WNk10YlceTwYtvVRc0F+nY
cEfITLJa+qeqZrejYhcKfCcV78K8W3p9iMcqRQzXO5F+csYwyxI5HqKKiDkw8FS0
GW+2XugBYCwrJ8vlk0mruJ7wKebHAgMBAAGjgcswgcgwHQYDVR0OBBYEFLgWkofh
DLnlYcPapQURaljdeGWOMB8GA1UdIwQYMBaAFLgWkofhDLnlYcPapQURaljdeGWO
MDcGCCsGAQUFBwEBBCswKTAnBggrBgEFBQcwAoYbaHR0cDovL3VybC1mb3ItYWlh
L1Jvb3QuY2VyMCwGA1UdHwQlMCMwIaAfoB2GG2h0dHA6Ly91cmwtZm9yLWNybC9S
b290LmNybDAOBgNVHQ8BAf8EBAMCAQYwDwYDVR0TAQH/BAUwAwEB/zANBgkqhkiG
9w0BAQsFAAOCAQEAZBWH7kWOKG2d6jjAjUapFPPwEsKEMof9PkZaKtXMF0M7dcr9
SAcNeOL2PlOpfJTiTyi2eKxP+PGyRk64bQTFSd49mgR0v2JOqzm3WvShHjMSvrtZ
gGHB9cLaAbCUGyOyhohN3nOtjumbkM/dVV8nW6vtJnc112DlP9Z+ghRV0rYrNCLv
BsSu1/nnqpwZM8JghXYT6bdS2oeFYtqL3TfFb6YV4xl88lb2wpz5QDgNkdSRbKr+
x25whsw/Jd2vEx31o+vLOThjdhlTc9EiKyr8rWQ72ITb0hXhbsYzC2LVGOKWvsZl
tJDaD56DV+IRFG52Wu1aqfyjWuVKRV+v/7fAFw==
-----END CERTIFICATE-----
