[Created by: generate-chains.py]

Certificate chain where the intermediate's Basic Constraints extension is
not marked as critical.

Certificate:
    Data:
        Version: 3 (0x2)
        Serial Number:
            4a:45:83:31:ef:c5:47:03:ae:f7:5a:80:bf:fb:8c:bc:23:1e:dc:c4
        Signature Algorithm: sha256WithRSAEncryption
        Issuer: CN=Intermediate
        Validity
            Not Before: Nov  3 12:00:00 2020 GMT
            Not After : Nov  3 12:00:00 2021 GMT
        Subject: CN=Target
        Subject Public Key Info:
            Public Key Algorithm: rsaEncryption
                RSA Public-Key: (2048 bit)
                Modulus:
                    00:d8:cc:f6:ec:23:eb:20:d2:0e:7e:29:04:ec:8c:
                    b9:bd:ee:47:6e:0b:ac:a9:fa:22:a4:fc:41:74:04:
                    d0:b5:8a:37:56:29:d5:be:e7:e0:45:88:30:d9:5a:
                    e0:a7:69:fd:d1:c3:4d:1c:42:68:ae:7d:cf:54:db:
                    84:b9:91:e6:68:c5:d1:6d:a4:34:4a:7f:8f:3e:a3:
                    a8:c4:0e:3f:90:42:a9:b8:84:c2:fd:51:ed:eb:e9:
                    6d:cc:5a:22:f7:fb:eb:29:7d:5d:97:9d:26:eb:10:
                    29:bf:2a:bd:b0:2f:33:9b:e7:a3:17:9b:db:b4:ce:
                    f8:5e:66:25:7c:8c:e3:c8:53:cf:c2:c3:80:cf:e6:
                    68:98:ca:bd:e3:b8:d3:bc:e2:03:d0:31:5b:ef:21:
                    6d:2d:42:5e:cb:9a:3a:4d:7a:bd:e7:75:75:ff:63:
                    95:aa:08:20:fb:a8:6f:95:a9:ea:45:07:c4:a7:32:
                    89:58:94:98:76:2f:5d:d4:85:90:e3:be:96:33:1c:
                    53:d7:bd:58:87:75:4e:8c:c9:c9:6b:c8:b6:3f:d3:
                    46:1a:9f:4c:de:a5:48:cd:ad:87:fe:7a:82:f2:0c:
                    65:84:f5:09:ce:cf:fd:6c:66:57:91:dc:fb:85:d1:
                    ff:b2:4c:ce:2f:a3:73:b1:dc:1e:13:5c:03:1a:a6:
                    99:13
                Exponent: 65537 (0x10001)
        X509v3 extensions:
            X509v3 Subject Key Identifier: 
                FD:20:6C:45:13:AE:E6:1F:25:FD:C9:1E:E3:09:32:CC:34:28:4E:CF
            X509v3 Authority Key Identifier: 
                keyid:5A:44:77:BA:2D:5E:48:FE:11:68:59:58:40:91:67:E2:22:BF:31:38

            Authority Information Access: 
                CA Issuers - URI:http://url-for-aia/Intermediate.cer

            X509v3 CRL Distribution Points: 

                Full Name:
                  URI:http://url-for-crl/Intermediate.crl

            X509v3 Key Usage: critical
                Digital Signature, Key Encipherment
            X509v3 Extended Key Usage: 
                TLS Web Server Authentication, TLS Web Client Authentication
    Signature Algorithm: sha256WithRSAEncryption
         f9:31:0f:7c:df:ce:83:8b:d1:32:f6:02:43:81:60:2d:0d:ec:
         a0:94:1c:02:36:f4:61:7a:85:c2:45:dc:32:4f:43:39:79:c6:
         5a:02:c5:4c:42:54:6c:e1:fb:7a:78:67:e4:6e:fa:48:a3:0b:
         d6:9c:4f:15:02:f2:b3:9b:13:6b:63:7b:2f:4b:dc:3b:c0:3d:
         f8:70:55:18:96:19:b5:d5:da:fc:12:83:43:a4:68:22:72:52:
         de:7a:15:2a:07:c7:4d:e0:7f:70:c3:0b:5f:c8:d2:ee:2d:6a:
         ef:f6:d6:79:09:86:42:b6:2c:c4:9b:2e:b5:ad:a4:3c:98:7e:
         ba:a7:7e:87:1c:ab:14:d2:32:77:d6:c4:3e:da:a6:57:74:fe:
         5a:b7:fa:99:d4:2b:47:ec:78:d6:03:0d:9a:d5:60:32:3d:fd:
         94:ff:e6:49:3b:c8:9c:b9:57:8a:81:32:05:b3:97:13:f3:9e:
         84:5b:e7:04:d3:7f:fa:e9:a8:04:4f:38:83:61:41:a4:a0:33:
         a8:91:09:f0:81:4e:d4:4e:48:b9:9c:5c:35:00:86:ee:73:eb:
         5a:47:90:76:a5:08:2e:80:63:75:ca:b3:9e:83:80:5d:9c:95:
         c6:16:f4:c0:79:a2:5e:46:9d:2e:a2:6d:c1:3a:59:1a:7c:92:
         3c:25:da:af
-----BEGIN CERTIFICATE-----
MIIDoDCCAoigAwIBAgIUSkWDMe/FRwOu91qAv/uMvCMe3MQwDQYJKoZIhvcNAQEL
BQAwFzEVMBMGA1UEAwwMSW50ZXJtZWRpYXRlMB4XDTIwMTEwMzEyMDAwMFoXDTIx
MTEwMzEyMDAwMFowETEPMA0GA1UEAwwGVGFyZ2V0MIIBIjANBgkqhkiG9w0BAQEF
AAOCAQ8AMIIBCgKCAQEA2Mz27CPrINIOfikE7Iy5ve5HbgusqfoipPxBdATQtYo3
VinVvufgRYgw2Vrgp2n90cNNHEJorn3PVNuEuZHmaMXRbaQ0Sn+PPqOoxA4/kEKp
uITC/VHt6+ltzFoi9/vrKX1dl50m6xApvyq9sC8zm+ejF5vbtM74XmYlfIzjyFPP
wsOAz+ZomMq947jTvOID0DFb7yFtLUJey5o6TXq953V1/2OVqggg+6hvlanqRQfE
pzKJWJSYdi9d1IWQ476WMxxT171Yh3VOjMnJa8i2P9NGGp9M3qVIza2H/nqC8gxl
hPUJzs/9bGZXkdz7hdH/skzOL6NzsdweE1wDGqaZEwIDAQABo4HpMIHmMB0GA1Ud
DgQWBBT9IGxFE67mHyX9yR7jCTLMNChOzzAfBgNVHSMEGDAWgBRaRHe6LV5I/hFo
WVhAkWfiIr8xODA/BggrBgEFBQcBAQQzMDEwLwYIKwYBBQUHMAKGI2h0dHA6Ly91
cmwtZm9yLWFpYS9JbnRlcm1lZGlhdGUuY2VyMDQGA1UdHwQtMCswKaAnoCWGI2h0
dHA6Ly91cmwtZm9yLWNybC9JbnRlcm1lZGlhdGUuY3JsMA4GA1UdDwEB/wQEAwIF
oDAdBgNVHSUEFjAUBggrBgEFBQcDAQYIKwYBBQUHAwIwDQYJKoZIhvcNAQELBQAD
ggEBAPkxD3zfzoOL0TL2AkOBYC0N7KCUHAI29GF6hcJF3DJPQzl5xloCxUxCVGzh
+3p4Z+Ru+kijC9acTxUC8rObE2tjey9L3DvAPfhwVRiWGbXV2vwSg0OkaCJyUt56
FSoHx03gf3DDC1/I0u4tau/21nkJhkK2LMSbLrWtpDyYfrqnfoccqxTSMnfWxD7a
pld0/lq3+pnUK0fseNYDDZrVYDI9/ZT/5kk7yJy5V4qBMgWzlxPznoRb5wTTf/rp
qARPOINhQaSgM6iRCfCBTtROSLmcXDUAhu5z61pHkHalCC6AY3XKs56DgF2clcYW
9MB5ol5GnS6ibcE6WRp8kjwl2q8=
-----END CERTIFICATE-----

Certificate:
    Data:
        Version: 3 (0x2)
        Serial Number:
            2d:b0:5d:cd:6e:fd:4d:77:89:ef:99:fc:fd:05:d3:22:44:3f:93:ef
        Signature Algorithm: sha256WithRSAEncryption
        Issuer: CN=Root
        Validity
            Not Before: Nov  3 12:00:00 2020 GMT
            Not After : Nov  3 12:00:00 2021 GMT
        Subject: CN=Intermediate
        Subject Public Key Info:
            Public Key Algorithm: rsaEncryption
                RSA Public-Key: (2048 bit)
                Modulus:
                    00:fb:af:dd:12:ab:aa:06:e0:72:bd:43:4c:3e:5b:
                    cd:02:9c:ca:c1:42:6d:cd:47:6e:6c:4c:6b:3f:2e:
                    c1:3f:2e:88:3d:77:4f:1c:34:60:ba:f7:fb:58:64:
                    3c:c2:76:5d:30:88:48:22:81:2f:27:c8:1f:b4:ed:
                    96:07:5d:f7:7c:4a:37:be:fe:4f:7b:1f:19:82:21:
                    24:18:c9:ae:a7:a5:58:62:9d:6b:f9:9a:88:56:0f:
                    7f:b4:0c:1a:d5:4f:ab:2c:c4:97:6e:ec:db:b1:a0:
                    43:86:34:08:2e:21:16:f8:f6:3e:2a:e8:ca:9a:a4:
                    fb:91:7e:f9:43:19:42:08:10:7e:92:af:60:45:4e:
                    30:e4:d3:d3:e9:bf:32:cf:c1:1b:a0:52:6e:a4:aa:
                    ed:13:6d:e8:7f:68:c6:88:84:67:20:8f:6b:82:9c:
                    49:5d:b4:95:63:9d:0a:dc:9f:ab:7b:b3:eb:f7:ad:
                    48:35:f5:44:ec:84:23:e1:5b:ca:49:16:e0:c2:5a:
                    8f:3e:d2:2b:fa:50:08:bf:12:3b:da:8c:96:66:93:
                    69:5b:27:4e:b8:e7:8d:11:14:e6:29:23:b5:d9:f7:
                    b0:f9:e2:90:e2:d8:be:8d:1d:dc:89:f5:eb:15:df:
                    58:88:e8:91:14:94:9d:37:e3:10:1a:de:30:3c:18:
                    d7:6f
                Exponent: 65537 (0x10001)
        X509v3 extensions:
            X509v3 Subject Key Identifier: 
                5A:44:77:BA:2D:5E:48:FE:11:68:59:58:40:91:67:E2:22:BF:31:38
            X509v3 Authority Key Identifier: 
                keyid:B8:16:92:87:E1:0C:B9:E5:61:C3:DA:A5:05:11:6A:58:DD:78:65:8E

            Authority Information Access: 
                CA Issuers - URI:http://url-for-aia/Root.cer

            X509v3 CRL Distribution Points: 

                Full Name:
                  URI:http://url-for-crl/Root.crl

            X509v3 Key Usage: critical
                Certificate Sign, CRL Sign
            X509v3 Basic Constraints: 
                CA:TRUE
    Signature Algorithm: sha256WithRSAEncryption
         69:15:5e:b9:60:4d:4f:8f:cf:a0:1a:bc:d3:e7:0b:6c:8e:87:
         29:1e:f5:97:a9:c1:ca:da:58:76:06:5a:6f:43:6c:1a:95:b2:
         b6:a4:64:27:30:6e:0e:6b:01:30:14:5a:a6:e6:78:87:a2:54:
         73:c7:a0:0c:8f:88:c1:4e:97:57:53:f5:24:02:c4:34:78:18:
         03:ab:3e:19:c9:6a:8c:0c:e0:3a:d2:ae:a0:34:38:4c:e3:04:
         12:5f:45:4f:85:25:0b:4b:0f:7b:4c:91:53:21:7f:79:e9:ef:
         6b:56:44:5d:ae:f7:10:47:15:42:b1:28:27:82:8c:32:9b:eb:
         95:27:db:ae:2b:83:ec:25:2c:e5:a7:fb:5a:1b:43:3e:7b:7c:
         09:2b:e6:9f:6c:05:e6:22:1e:b8:1d:bd:00:e5:48:bc:86:47:
         d6:8e:27:c4:bc:2f:3d:28:5b:0d:a1:49:79:cc:ab:f6:74:02:
         ac:1d:62:2d:38:d1:cc:2c:60:42:02:54:fb:1f:9d:e7:50:d4:
         41:a4:95:1a:c8:a8:4f:65:4f:6f:02:01:0b:7f:3c:f6:93:14:
         f4:5f:db:5c:0c:0c:0c:f4:1b:99:76:e3:54:19:78:21:5c:8e:
         16:4a:05:c9:cf:49:37:b7:2c:d7:3f:39:26:8c:0b:d2:22:fc:
         35:11:a9:b2
-----BEGIN CERTIFICATE-----
MIIDfTCCAmWgAwIBAgIULbBdzW79TXeJ75n8/QXTIkQ/k+8wDQYJKoZIhvcNAQEL
BQAwDzENMAsGA1UEAwwEUm9vdDAeFw0yMDExMDMxMjAwMDBaFw0yMTExMDMxMjAw
MDBaMBcxFTATBgNVBAMMDEludGVybWVkaWF0ZTCCASIwDQYJKoZIhvcNAQEBBQAD
ggEPADCCAQoCggEBAPuv3RKrqgbgcr1DTD5bzQKcysFCbc1HbmxMaz8uwT8uiD13
Txw0YLr3+1hkPMJ2XTCISCKBLyfIH7Ttlgdd93xKN77+T3sfGYIhJBjJrqelWGKd
a/maiFYPf7QMGtVPqyzEl27s27GgQ4Y0CC4hFvj2Piroypqk+5F++UMZQggQfpKv
YEVOMOTT0+m/Ms/BG6BSbqSq7RNt6H9oxoiEZyCPa4KcSV20lWOdCtyfq3uz6/et
SDX1ROyEI+FbykkW4MJajz7SK/pQCL8SO9qMlmaTaVsnTrjnjREU5ikjtdn3sPni
kOLYvo0d3In16xXfWIjokRSUnTfjEBreMDwY128CAwEAAaOByDCBxTAdBgNVHQ4E
FgQUWkR3ui1eSP4RaFlYQJFn4iK/MTgwHwYDVR0jBBgwFoAUuBaSh+EMueVhw9ql
BRFqWN14ZY4wNwYIKwYBBQUHAQEEKzApMCcGCCsGAQUFBzAChhtodHRwOi8vdXJs
LWZvci1haWEvUm9vdC5jZXIwLAYDVR0fBCUwIzAhoB+gHYYbaHR0cDovL3VybC1m
b3ItY3JsL1Jvb3QuY3JsMA4GA1UdDwEB/wQEAwIBBjAMBgNVHRMEBTADAQH/MA0G
CSqGSIb3DQEBCwUAA4IBAQBpFV65YE1Pj8+gGrzT5wtsjocpHvWXqcHK2lh2Blpv
Q2walbK2pGQnMG4OawEwFFqm5niHolRzx6AMj4jBTpdXU/UkAsQ0eBgDqz4ZyWqM
DOA60q6gNDhM4wQSX0VPhSULSw97TJFTIX956e9rVkRdrvcQRxVCsSgngowym+uV
J9uuK4PsJSzlp/taG0M+e3wJK+afbAXmIh64Hb0A5Ui8hkfWjifEvC89KFsNoUl5
zKv2dAKsHWItONHMLGBCAlT7H53nUNRBpJUayKhPZU9vAgELfzz2kxT0X9tcDAwM
9BuZduNUGXghXI4WSgXJz0k3tyzXPzkmjAvSIvw1Eamy
-----END CERTIFICATE-----

Certificate:
    Data:
        Version: 3 (0x2)
        Serial Number:
            2d:b0:5d:cd:6e:fd:4d:77:89:ef:99:fc:fd:05:d3:22:44:3f:93:ee
        Signature Algorithm: sha256WithRSAEncryption
        Issuer: CN=Root
        Validity
            Not Before: Nov  3 12:00:00 2020 GMT
            Not After : Nov  3 12:00:00 2021 GMT
        Subject: CN=Root
        Subject Public Key Info:
            Public Key Algorithm: rsaEncryption
                RSA Public-Key: (2048 bit)
                Modulus:
                    00:aa:94:1d:65:8c:79:04:f0:c9:d1:3c:23:76:e9:
                    3e:2c:c9:52:e1:fc:b9:bf:35:8d:66:e4:37:66:b5:
                    4b:ff:1a:9b:cb:30:e1:d4:30:54:fb:6e:f2:43:fd:
                    76:b8:84:51:79:12:5a:65:95:87:ec:3d:19:b0:ab:
                    04:94:64:aa:bc:e5:bf:e2:77:fd:07:28:3c:b5:20:
                    da:55:2c:79:04:f2:71:6e:31:b4:63:14:80:4e:c3:
                    83:1e:ea:7e:5a:c0:4d:48:4a:2e:9e:52:80:80:98:
                    22:10:4a:05:d7:db:13:8f:37:67:20:63:19:01:92:
                    07:46:94:b5:c9:ba:e7:68:af:06:57:35:69:50:50:
                    22:23:0b:92:a1:98:32:08:88:5c:8b:4c:7c:a5:6a:
                    f3:31:ee:bf:4c:59:b0:a1:cb:e8:28:1d:fa:4c:d3:
                    1b:e6:2b:03:1a:4f:b5:8d:93:5d:18:95:c7:93:c1:
                    8b:6f:55:17:34:17:e9:d8:70:47:c8:4c:b2:5a:fa:
                    a7:aa:66:b7:a3:62:17:0a:7c:27:15:ef:c2:bc:5b:
                    7a:7d:88:c7:2a:45:0c:d7:3b:91:7e:72:c6:30:cb:
                    12:39:1e:a2:8a:88:39:30:f0:54:b4:19:6f:b6:5e:
                    e8:01:60:2c:2b:27:cb:e5:93:49:ab:b8:9e:f0:29:
                    e6:c7
                Exponent: 65537 (0x10001)
        X509v3 extensions:
            X509v3 Subject Key Identifier: 
                B8:16:92:87:E1:0C:B9:E5:61:C3:DA:A5:05:11:6A:58:DD:78:65:8E
            X509v3 Authority Key Identifier: 
                keyid:B8:16:92:87:E1:0C:B9:E5:61:C3:DA:A5:05:11:6A:58:DD:78:65:8E

            Authority Information Access: 
                CA Issuers - URI:http://url-for-aia/Root.cer

            X509v3 CRL Distribution Points: 

                Full Name:
                  URI:http://url-for-crl/Root.crl

            X509v3 Key Usage: critical
                Certificate Sign, CRL Sign
            X509v3 Basic Constraints: critical
                CA:TRUE
    Signature Algorithm: sha256WithRSAEncryption
         30:04:e6:44:52:d7:bf:4a:89:fe:07:cb:1b:e1:92:30:03:11:
         95:ce:3f:5d:54:8b:9c:07:0a:01:74:90:b1:45:00:31:cb:a0:
         c8:e4:72:54:59:d3:b4:f4:db:87:da:f1:da:0a:58:cb:ae:c4:
         b7:04:e3:f1:f5:b6:5f:ce:05:c8:5a:11:5b:3f:e5:3b:72:97:
         46:28:6e:32:a3:e9:db:11:14:da:4b:81:64:45:07:0c:8b:00:
         d3:bb:05:de:9b:43:43:d8:f4:fd:d5:80:32:20:3b:24:fe:09:
         bb:12:3e:95:1f:73:18:05:81:72:ac:7c:ca:2c:60:87:71:a2:
         11:a6:5d:23:30:99:e3:c6:79:5f:63:0f:2e:16:17:cf:ed:4b:
         cc:be:e4:82:30:34:86:fb:61:91:14:20:73:15:5a:f3:71:cc:
         c4:2a:08:97:26:b7:f2:41:0d:db:8e:d1:c1:84:ea:c5:c3:9a:
         95:c5:2b:d9:df:71:90:f8:3a:8e:7c:bb:7f:48:2f:b8:06:43:
         b1:95:5d:66:3b:80:d9:d9:f2:34:c9:99:83:a7:90:52:25:d5:
         90:f3:72:69:96:8e:71:b3:7e:22:d5:fe:83:9d:4c:c1:0a:2b:
         82:66:d5:27:6f:b2:21:c0:38:e1:c0:e1:9a:41:09:ad:e8:92:
         cf:4b:b9:2a
-----BEGIN CERTIFICATE-----
MIIDeDCCAmCgAwIBAgIULbBdzW79TXeJ75n8/QXTIkQ/k+4wDQYJKoZIhvcNAQEL
BQAwDzENMAsGA1UEAwwEUm9vdDAeFw0yMDExMDMxMjAwMDBaFw0yMTExMDMxMjAw
MDBaMA8xDTALBgNVBAMMBFJvb3QwggEiMA0GCSqGSIb3DQEBAQUAA4IBDwAwggEK
AoIBAQCqlB1ljHkE8MnRPCN26T4syVLh/Lm/NY1m5DdmtUv/GpvLMOHUMFT7bvJD
/Xa4hFF5ElpllYfsPRmwqwSUZKq85b/id/0HKDy1INpVLHkE8nFuMbRjFIBOw4Me
6n5awE1ISi6eUoCAmCIQSgXX2xOPN2cgYxkBkgdGlLXJuudorwZXNWlQUCIjC5Kh
mDIIiFyLTHylavMx7r9MWbChy+goHfpM0xvmKwMaT7WNk10YlceTwYtvVRc0F+nY
cEfITLJa+qeqZrejYhcKfCcV78K8W3p9iMcqRQzXO5F+csYwyxI5HqKKiDkw8FS0
GW+2XugBYCwrJ8vlk0mruJ7wKebHAgMBAAGjgcswgcgwHQYDVR0OBBYEFLgWkofh
DLnlYcPapQURaljdeGWOMB8GA1UdIwQYMBaAFLgWkofhDLnlYcPapQURaljdeGWO
MDcGCCsGAQUFBwEBBCswKTAnBggrBgEFBQcwAoYbaHR0cDovL3VybC1mb3ItYWlh
L1Jvb3QuY2VyMCwGA1UdHwQlMCMwIaAfoB2GG2h0dHA6Ly91cmwtZm9yLWNybC9S
b290LmNybDAOBgNVHQ8BAf8EBAMCAQYwDwYDVR0TAQH/BAUwAwEB/zANBgkqhkiG
9w0BAQsFAAOCAQEAMATmRFLXv0qJ/gfLG+GSMAMRlc4/XVSLnAcKAXSQsUUAMcug
yORyVFnTtPTbh9rx2gpYy67EtwTj8fW2X84FyFoRWz/lO3KXRihuMqPp2xEU2kuB
ZEUHDIsA07sF3ptDQ9j0/dWAMiA7JP4JuxI+lR9zGAWBcqx8yixgh3GiEaZdIzCZ
48Z5X2MPLhYXz+1LzL7kgjA0hvthkRQgcxVa83HMxCoIlya38kEN247RwYTqxcOa
lcUr2d9xkPg6jny7f0gvuAZDsZVdZjuA2dnyNMmZg6eQUiXVkPNyaZaOcbN+ItX+
g51MwQorgmbVJ2+yIcA44cDhmkEJreiSz0u5Kg==
-----END CERTIFICATE-----
