[Created by: generate-chains.py]

Certificate chain where the root certificate contains a basic constraints
extension that indicates it is NOT a CA.

Certificate:
    Data:
        Version: 3 (0x2)
        Serial Number:
            6a:33:a7:7b:9f:65:b9:e0:d2:be:48:ba:f7:f8:a0:3f:bd:05:6f:10
        Signature Algorithm: sha256WithRSAEncryption
        Issuer: CN=Intermediate
        Validity
            Not Before: Oct  5 12:00:00 2022 GMT
            Not After : Oct  5 12:00:00 2023 GMT
        Subject: CN=Target
        Subject Public Key Info:
            Public Key Algorithm: rsaEncryption
                Public-Key: (2048 bit)
                Modulus:
                    00:b3:7d:07:29:33:df:ea:eb:78:7f:88:ef:13:78:
                    ff:42:10:a6:ae:9c:8d:9e:c6:48:37:77:a4:2c:27:
                    81:cd:a9:b2:54:b5:84:cd:0a:a1:90:11:28:1d:85:
                    0f:9a:88:a4:a1:75:36:42:53:19:71:4d:da:17:02:
                    9f:80:94:58:55:87:23:47:47:be:8a:64:15:d6:15:
                    6f:fe:73:a2:e7:e8:5a:01:48:33:ae:21:a1:7c:a3:
                    3a:58:fc:2c:25:f5:ab:ff:bb:3d:ff:e1:2f:62:d8:
                    79:ec:e5:d6:b0:33:dc:ce:68:ca:f5:96:b7:0e:5f:
                    22:80:09:e8:ca:6c:14:64:84:97:a9:c0:bf:57:e4:
                    ad:42:46:c6:58:07:2d:12:18:a2:d1:1f:5d:40:0e:
                    93:19:eb:a0:4b:49:f5:1e:f6:8b:f9:6f:37:96:e4:
                    07:04:71:bc:da:d4:e0:3f:3d:4e:3e:71:40:e8:39:
                    27:ab:c8:2d:b4:22:45:51:32:8a:c4:21:10:84:fe:
                    ba:74:3e:72:8e:64:66:24:f6:a2:7a:f9:10:29:9d:
                    48:59:57:a9:0a:59:b4:00:60:5c:e1:93:4f:53:23:
                    a1:2e:a3:a3:eb:49:2c:8a:d1:2d:ba:bb:57:c3:a4:
                    5f:78:85:4b:8d:b0:6a:89:f0:cc:ba:be:60:89:a8:
                    9c:49
                Exponent: 65537 (0x10001)
        X509v3 extensions:
            X509v3 Subject Key Identifier: 
                72:41:94:01:8B:5E:D8:39:1C:E1:A1:6F:76:49:3E:9F:93:09:60:3A
            X509v3 Authority Key Identifier: 
                7A:10:56:B4:5F:2F:4E:7E:28:92:1A:46:EE:EB:8F:1E:A0:B6:3B:02
            Authority Information Access: 
                CA Issuers - URI:http://url-for-aia/Intermediate.cer
            X509v3 CRL Distribution Points: 
                Full Name:
                  URI:http://url-for-crl/Intermediate.crl
            X509v3 Key Usage: critical
                Digital Signature, Key Encipherment
            X509v3 Extended Key Usage: 
                TLS Web Server Authentication, TLS Web Client Authentication
    Signature Algorithm: sha256WithRSAEncryption
    Signature Value:
        4f:df:0e:3e:51:bd:91:c4:3a:c6:bb:cb:65:fd:d2:f4:55:8f:
        07:ae:f5:a8:01:4e:de:a6:38:e6:f4:3c:60:aa:ec:ae:b3:b3:
        b6:b1:1e:42:cf:26:25:cf:ca:38:03:33:a9:0b:13:1d:a7:a5:
        81:f7:c1:7d:08:dd:ff:71:78:07:78:ce:1b:4d:07:7e:c7:b4:
        b4:06:f0:f5:48:b7:03:39:ad:c5:cd:a9:d8:b6:44:71:18:01:
        a5:e3:ff:54:d3:2d:81:1c:cd:c3:12:0d:bc:10:bc:1f:03:7a:
        37:e3:98:8f:af:72:98:ac:24:f0:f0:25:4c:4d:bc:4c:68:7f:
        5e:5b:51:0a:16:93:89:9e:52:df:9d:71:9a:35:f4:4f:64:cf:
        6a:16:bd:b9:46:a2:cd:8d:2a:eb:45:ec:2b:8b:cf:98:5e:58:
        fd:ec:fd:29:a3:69:4c:90:ec:97:3f:c4:6a:7b:37:90:9a:a8:
        c5:d7:42:c2:80:24:ff:56:a2:75:57:73:75:ec:2a:36:ad:6c:
        87:cf:82:49:62:5f:78:e2:af:64:72:a9:15:d4:b5:04:8b:78:
        3b:9f:6f:3a:33:d2:35:97:bf:c7:64:81:57:cc:83:c1:44:00:
        96:d3:91:d6:9a:c3:f6:a1:4e:2c:be:d1:8b:0e:e8:bd:a3:15:
        48:80:98:d0
-----BEGIN CERTIFICATE-----
MIIDoDCCAoigAwIBAgIUajOne59lueDSvki69/igP70FbxAwDQYJKoZIhvcNAQEL
BQAwFzEVMBMGA1UEAwwMSW50ZXJtZWRpYXRlMB4XDTIyMTAwNTEyMDAwMFoXDTIz
MTAwNTEyMDAwMFowETEPMA0GA1UEAwwGVGFyZ2V0MIIBIjANBgkqhkiG9w0BAQEF
AAOCAQ8AMIIBCgKCAQEAs30HKTPf6ut4f4jvE3j/QhCmrpyNnsZIN3ekLCeBzamy
VLWEzQqhkBEoHYUPmoikoXU2QlMZcU3aFwKfgJRYVYcjR0e+imQV1hVv/nOi5+ha
AUgzriGhfKM6WPwsJfWr/7s9/+EvYth57OXWsDPczmjK9Za3Dl8igAnoymwUZISX
qcC/V+StQkbGWActEhii0R9dQA6TGeugS0n1HvaL+W83luQHBHG82tTgPz1OPnFA
6Dknq8gttCJFUTKKxCEQhP66dD5yjmRmJPaievkQKZ1IWVepClm0AGBc4ZNPUyOh
LqOj60ksitEturtXw6RfeIVLjbBqifDMur5giaicSQIDAQABo4HpMIHmMB0GA1Ud
DgQWBBRyQZQBi17YORzhoW92ST6fkwlgOjAfBgNVHSMEGDAWgBR6EFa0Xy9OfiiS
Gkbu648eoLY7AjA/BggrBgEFBQcBAQQzMDEwLwYIKwYBBQUHMAKGI2h0dHA6Ly91
cmwtZm9yLWFpYS9JbnRlcm1lZGlhdGUuY2VyMDQGA1UdHwQtMCswKaAnoCWGI2h0
dHA6Ly91cmwtZm9yLWNybC9JbnRlcm1lZGlhdGUuY3JsMA4GA1UdDwEB/wQEAwIF
oDAdBgNVHSUEFjAUBggrBgEFBQcDAQYIKwYBBQUHAwIwDQYJKoZIhvcNAQELBQAD
ggEBAE/fDj5RvZHEOsa7y2X90vRVjweu9agBTt6mOOb0PGCq7K6zs7axHkLPJiXP
yjgDM6kLEx2npYH3wX0I3f9xeAd4zhtNB37HtLQG8PVItwM5rcXNqdi2RHEYAaXj
/1TTLYEczcMSDbwQvB8DejfjmI+vcpisJPDwJUxNvExof15bUQoWk4meUt+dcZo1
9E9kz2oWvblGos2NKutF7CuLz5heWP3s/SmjaUyQ7Jc/xGp7N5CaqMXXQsKAJP9W
onVXc3XsKjatbIfPgkliX3jir2RyqRXUtQSLeDufbzoz0jWXv8dkgVfMg8FEAJbT
kdaaw/ahTiy+0YsO6L2jFUiAmNA=
-----END CERTIFICATE-----

Certificate:
    Data:
        Version: 3 (0x2)
        Serial Number:
            17:c3:5e:ff:9e:fa:1b:f7:ec:b7:42:5e:7c:00:3a:7e:d7:5e:08:56
        Signature Algorithm: sha256WithRSAEncryption
        Issuer: CN=Root
        Validity
            Not Before: Oct  5 12:00:00 2022 GMT
            Not After : Oct  5 12:00:00 2023 GMT
        Subject: CN=Intermediate
        Subject Public Key Info:
            Public Key Algorithm: rsaEncryption
                Public-Key: (2048 bit)
                Modulus:
                    00:bb:be:bc:29:e3:c0:a2:2b:12:a7:b2:77:ff:30:
                    a1:03:d7:b9:aa:0b:7d:b4:2a:4b:e4:cb:72:cb:5e:
                    ff:34:16:06:51:e2:e5:bf:a0:ae:0b:19:34:c3:45:
                    b1:2b:df:94:3c:9c:00:1c:bf:1f:69:a5:a6:08:04:
                    20:c9:0a:0d:c2:69:0b:a6:63:63:ab:9b:76:5b:d0:
                    1e:d1:20:32:02:bc:4d:4b:02:7e:8a:6c:90:34:b1:
                    2b:ae:88:da:99:fd:e0:77:f6:97:54:dc:f5:53:64:
                    83:87:70:f9:03:c4:aa:45:2c:78:bc:b0:9b:fa:11:
                    eb:a0:8c:a4:62:12:c2:82:ee:70:83:a8:8f:19:26:
                    1c:f0:60:e4:17:20:bf:4c:d8:76:90:42:0d:cd:82:
                    fe:e9:38:39:ca:d8:72:c0:8f:cf:98:4d:af:47:82:
                    77:63:a7:6e:c0:e8:ac:f8:4c:a8:b1:b0:20:09:03:
                    74:67:cc:24:5f:91:24:4a:38:05:ca:64:3e:b7:e0:
                    03:a5:79:44:71:32:19:31:cb:0a:02:84:39:8a:a7:
                    10:c7:6b:60:72:81:16:3f:9c:ac:f8:af:46:c4:21:
                    f4:88:30:a8:8d:62:82:1c:36:8d:b0:d9:00:bb:b5:
                    8c:e5:7a:89:de:6c:fd:3f:f0:e1:12:50:8c:1c:02:
                    1f:e9
                Exponent: 65537 (0x10001)
        X509v3 extensions:
            X509v3 Subject Key Identifier: 
                7A:10:56:B4:5F:2F:4E:7E:28:92:1A:46:EE:EB:8F:1E:A0:B6:3B:02
            X509v3 Authority Key Identifier: 
                9E:16:CB:63:0C:02:2E:E7:DC:BA:AA:D5:D2:10:B0:E0:F7:2D:14:6D
            Authority Information Access: 
                CA Issuers - URI:http://url-for-aia/Root.cer
            X509v3 CRL Distribution Points: 
                Full Name:
                  URI:http://url-for-crl/Root.crl
            X509v3 Key Usage: critical
                Certificate Sign, CRL Sign
            X509v3 Basic Constraints: critical
                CA:TRUE
    Signature Algorithm: sha256WithRSAEncryption
    Signature Value:
        28:25:47:6c:36:86:a4:0d:0c:93:d6:b5:92:9e:94:4f:f9:09:
        59:2b:32:09:47:e7:51:b9:84:77:58:b9:8d:6a:7a:b7:1b:01:
        0b:48:ba:3c:bc:47:34:1b:71:a7:25:8a:1d:3f:49:6d:61:55:
        3d:03:16:c0:46:21:e5:ac:03:ac:f0:4e:74:4d:07:36:49:9d:
        64:e9:4f:f0:3f:fa:11:6c:cb:ff:31:10:98:08:64:8d:2d:e8:
        bd:e9:f0:e7:e3:2b:11:b3:1d:78:8e:dd:dd:dc:03:f8:d8:ed:
        84:bf:f0:c2:9d:0c:3c:55:a3:9c:04:44:0b:fb:59:fe:ea:de:
        ec:bc:f0:ad:a3:03:6e:a3:06:0e:0a:b9:13:57:fc:b0:10:53:
        14:29:ff:53:e4:80:75:10:60:a4:62:a9:12:90:d6:c4:16:ac:
        bf:68:95:35:01:ab:13:51:fe:3c:6c:ff:7a:af:e3:90:45:84:
        32:d2:56:fd:81:b8:1c:a4:b3:09:54:dd:d2:91:61:01:a3:75:
        a5:a6:f6:01:ac:4e:8f:43:98:6c:49:a9:f2:6f:24:ad:10:f1:
        bf:61:d2:bd:80:42:f2:42:62:a3:a6:43:1f:84:55:0f:b2:ef:
        97:7c:db:82:71:4a:51:22:9b:b6:ed:85:0e:40:a0:82:38:0a:
        3b:01:9f:21
-----BEGIN CERTIFICATE-----
MIIDgDCCAmigAwIBAgIUF8Ne/576G/fst0JefAA6ftdeCFYwDQYJKoZIhvcNAQEL
BQAwDzENMAsGA1UEAwwEUm9vdDAeFw0yMjEwMDUxMjAwMDBaFw0yMzEwMDUxMjAw
MDBaMBcxFTATBgNVBAMMDEludGVybWVkaWF0ZTCCASIwDQYJKoZIhvcNAQEBBQAD
ggEPADCCAQoCggEBALu+vCnjwKIrEqeyd/8woQPXuaoLfbQqS+TLcste/zQWBlHi
5b+grgsZNMNFsSvflDycABy/H2mlpggEIMkKDcJpC6ZjY6ubdlvQHtEgMgK8TUsC
fopskDSxK66I2pn94Hf2l1Tc9VNkg4dw+QPEqkUseLywm/oR66CMpGISwoLucIOo
jxkmHPBg5Bcgv0zYdpBCDc2C/uk4OcrYcsCPz5hNr0eCd2OnbsDorPhMqLGwIAkD
dGfMJF+RJEo4BcpkPrfgA6V5RHEyGTHLCgKEOYqnEMdrYHKBFj+crPivRsQh9Igw
qI1ighw2jbDZALu1jOV6id5s/T/w4RJQjBwCH+kCAwEAAaOByzCByDAdBgNVHQ4E
FgQUehBWtF8vTn4okhpG7uuPHqC2OwIwHwYDVR0jBBgwFoAUnhbLYwwCLufcuqrV
0hCw4PctFG0wNwYIKwYBBQUHAQEEKzApMCcGCCsGAQUFBzAChhtodHRwOi8vdXJs
LWZvci1haWEvUm9vdC5jZXIwLAYDVR0fBCUwIzAhoB+gHYYbaHR0cDovL3VybC1m
b3ItY3JsL1Jvb3QuY3JsMA4GA1UdDwEB/wQEAwIBBjAPBgNVHRMBAf8EBTADAQH/
MA0GCSqGSIb3DQEBCwUAA4IBAQAoJUdsNoakDQyT1rWSnpRP+QlZKzIJR+dRuYR3
WLmNanq3GwELSLo8vEc0G3GnJYodP0ltYVU9AxbARiHlrAOs8E50TQc2SZ1k6U/w
P/oRbMv/MRCYCGSNLei96fDn4ysRsx14jt3d3AP42O2Ev/DCnQw8VaOcBEQL+1n+
6t7svPCtowNuowYOCrkTV/ywEFMUKf9T5IB1EGCkYqkSkNbEFqy/aJU1AasTUf48
bP96r+OQRYQy0lb9gbgcpLMJVN3SkWEBo3WlpvYBrE6PQ5hsSanybyStEPG/YdK9
gELyQmKjpkMfhFUPsu+XfNuCcUpRIpu27YUOQKCCOAo7AZ8h
-----END CERTIFICATE-----

Certificate:
    Data:
        Version: 3 (0x2)
        Serial Number:
            17:c3:5e:ff:9e:fa:1b:f7:ec:b7:42:5e:7c:00:3a:7e:d7:5e:08:55
        Signature Algorithm: sha256WithRSAEncryption
        Issuer: CN=Root
        Validity
            Not Before: Oct  5 12:00:00 2022 GMT
            Not After : Oct  5 12:00:00 2023 GMT
        Subject: CN=Root
        Subject Public Key Info:
            Public Key Algorithm: rsaEncryption
                Public-Key: (2048 bit)
                Modulus:
                    00:a8:a5:0e:06:b7:99:51:ad:fd:57:50:ba:00:3c:
                    ce:4b:a5:f8:a1:6d:00:ae:32:93:30:ec:a3:1b:58:
                    e3:09:5e:4e:61:fa:7f:f1:21:1a:a6:8d:bd:72:21:
                    e6:6d:82:33:7e:20:be:66:54:a6:42:92:18:db:43:
                    ef:09:93:d8:b4:6e:64:78:ce:b4:3b:9f:44:62:9f:
                    73:dd:e9:0f:11:ce:9a:a1:82:dd:32:04:71:f2:46:
                    03:e2:a1:7c:36:2f:78:de:97:b8:7b:da:3a:6a:b8:
                    81:7c:d1:76:17:72:3c:a6:ba:74:4b:38:db:6b:47:
                    d3:52:f1:e0:ad:17:4f:48:fe:2b:7a:a5:28:aa:52:
                    12:4c:f6:c2:4e:23:b5:b2:eb:9c:e1:6b:91:05:b0:
                    a7:3f:64:6f:bc:08:96:78:de:9f:ed:27:5b:d8:33:
                    b6:80:aa:80:40:a7:a3:c4:96:37:71:9a:ef:a6:2b:
                    5d:07:e9:8d:e5:9b:84:4a:ac:db:52:68:b9:80:74:
                    be:ce:a7:c2:fe:b7:45:37:b2:c2:e9:0f:f9:54:15:
                    ab:7e:e9:c6:86:05:4a:26:f8:b6:3f:ec:a7:0a:4e:
                    00:a1:73:3e:f3:db:77:38:0f:bc:37:9b:7c:cb:4d:
                    fc:ab:4b:d1:a2:ff:7d:1d:b1:d2:14:0d:74:bc:a4:
                    8d:11
                Exponent: 65537 (0x10001)
        X509v3 extensions:
            X509v3 Subject Key Identifier: 
                9E:16:CB:63:0C:02:2E:E7:DC:BA:AA:D5:D2:10:B0:E0:F7:2D:14:6D
            X509v3 Authority Key Identifier: 
                9E:16:CB:63:0C:02:2E:E7:DC:BA:AA:D5:D2:10:B0:E0:F7:2D:14:6D
            Authority Information Access: 
                CA Issuers - URI:http://url-for-aia/Root.cer
            X509v3 CRL Distribution Points: 
                Full Name:
                  URI:http://url-for-crl/Root.crl
            X509v3 Key Usage: critical
                Certificate Sign, CRL Sign
            X509v3 Basic Constraints: critical
                CA:FALSE
    Signature Algorithm: sha256WithRSAEncryption
    Signature Value:
        77:6c:97:45:39:f6:f8:0d:51:3f:9c:e9:8a:11:f4:4e:06:7c:
        92:35:2c:f1:41:fd:ee:9f:e1:a7:48:fa:7a:9a:73:80:53:8e:
        15:e9:96:47:2a:55:20:46:f3:16:3a:4c:43:5c:e9:01:17:07:
        86:41:86:3b:49:b3:12:b8:10:fd:51:2f:dc:39:ae:d4:45:ff:
        f6:7f:bf:1b:22:3f:26:05:e4:86:75:03:f8:c8:f8:6c:74:7d:
        53:54:c8:ef:14:c2:1b:21:0c:bd:f5:58:15:8b:9a:6a:75:9d:
        3c:a2:99:b7:08:2a:0d:1a:c5:3a:53:69:57:de:e9:18:f2:31:
        0b:b2:4d:b5:d7:ac:cf:37:c3:db:84:b7:57:8f:2b:df:fc:d7:
        80:23:e8:09:fc:01:48:dd:21:cf:04:88:6d:5d:b0:fc:eb:dd:
        c8:ff:ba:af:be:d5:d0:55:54:8b:e6:96:e9:ff:93:04:68:01:
        0a:f4:dd:55:f3:c4:f9:7b:2f:b5:7f:9f:e3:28:25:16:27:a1:
        e1:a0:bb:4a:91:b6:8e:65:78:98:fd:97:87:eb:7d:bb:04:48:
        56:79:8a:3d:ea:bf:73:12:5d:75:f6:00:4c:b3:86:00:f4:b3:
        21:4a:db:f4:22:f8:89:34:c6:33:1d:5e:84:bf:4a:84:7c:1f:
        49:9c:22:f9
-----BEGIN CERTIFICATE-----
MIIDdTCCAl2gAwIBAgIUF8Ne/576G/fst0JefAA6ftdeCFUwDQYJKoZIhvcNAQEL
BQAwDzENMAsGA1UEAwwEUm9vdDAeFw0yMjEwMDUxMjAwMDBaFw0yMzEwMDUxMjAw
MDBaMA8xDTALBgNVBAMMBFJvb3QwggEiMA0GCSqGSIb3DQEBAQUAA4IBDwAwggEK
AoIBAQCopQ4Gt5lRrf1XULoAPM5LpfihbQCuMpMw7KMbWOMJXk5h+n/xIRqmjb1y
IeZtgjN+IL5mVKZCkhjbQ+8Jk9i0bmR4zrQ7n0Rin3Pd6Q8Rzpqhgt0yBHHyRgPi
oXw2L3jel7h72jpquIF80XYXcjymunRLONtrR9NS8eCtF09I/it6pSiqUhJM9sJO
I7Wy65zha5EFsKc/ZG+8CJZ43p/tJ1vYM7aAqoBAp6PEljdxmu+mK10H6Y3lm4RK
rNtSaLmAdL7Op8L+t0U3ssLpD/lUFat+6caGBUom+LY/7KcKTgChcz7z23c4D7w3
m3zLTfyrS9Gi/30dsdIUDXS8pI0RAgMBAAGjgcgwgcUwHQYDVR0OBBYEFJ4Wy2MM
Ai7n3Lqq1dIQsOD3LRRtMB8GA1UdIwQYMBaAFJ4Wy2MMAi7n3Lqq1dIQsOD3LRRt
MDcGCCsGAQUFBwEBBCswKTAnBggrBgEFBQcwAoYbaHR0cDovL3VybC1mb3ItYWlh
L1Jvb3QuY2VyMCwGA1UdHwQlMCMwIaAfoB2GG2h0dHA6Ly91cmwtZm9yLWNybC9S
b290LmNybDAOBgNVHQ8BAf8EBAMCAQYwDAYDVR0TAQH/BAIwADANBgkqhkiG9w0B
AQsFAAOCAQEAd2yXRTn2+A1RP5zpihH0TgZ8kjUs8UH97p/hp0j6eppzgFOOFemW
RypVIEbzFjpMQ1zpARcHhkGGO0mzErgQ/VEv3Dmu1EX/9n+/GyI/JgXkhnUD+Mj4
bHR9U1TI7xTCGyEMvfVYFYuaanWdPKKZtwgqDRrFOlNpV97pGPIxC7JNtdeszzfD
24S3V48r3/zXgCPoCfwBSN0hzwSIbV2w/OvdyP+6r77V0FVUi+aW6f+TBGgBCvTd
VfPE+XsvtX+f4yglFieh4aC7SpG2jmV4mP2Xh+t9uwRIVnmKPeq/cxJddfYATLOG
APSzIUrb9CL4iTTGMx1ehL9KhHwfSZwi+Q==
-----END CERTIFICATE-----
