[Created by: generate-chains.py]

Certificate chain where the root certificate contains a basic constraints
extension that indicates it is NOT a CA.

Certificate:
    Data:
        Version: 3 (0x2)
        Serial Number:
            6a:33:a7:7b:9f:65:b9:e0:d2:be:48:ba:f7:f8:a0:3f:bd:05:6f:10
        Signature Algorithm: sha256WithRSAEncryption
        Issuer: CN=Intermediate
        Validity
            Not Before: Nov  3 12:00:00 2020 GMT
            Not After : Nov  3 12:00:00 2021 GMT
        Subject: CN=Target
        Subject Public Key Info:
            Public Key Algorithm: rsaEncryption
                RSA Public-Key: (2048 bit)
                Modulus:
                    00:b3:7d:07:29:33:df:ea:eb:78:7f:88:ef:13:78:
                    ff:42:10:a6:ae:9c:8d:9e:c6:48:37:77:a4:2c:27:
                    81:cd:a9:b2:54:b5:84:cd:0a:a1:90:11:28:1d:85:
                    0f:9a:88:a4:a1:75:36:42:53:19:71:4d:da:17:02:
                    9f:80:94:58:55:87:23:47:47:be:8a:64:15:d6:15:
                    6f:fe:73:a2:e7:e8:5a:01:48:33:ae:21:a1:7c:a3:
                    3a:58:fc:2c:25:f5:ab:ff:bb:3d:ff:e1:2f:62:d8:
                    79:ec:e5:d6:b0:33:dc:ce:68:ca:f5:96:b7:0e:5f:
                    22:80:09:e8:ca:6c:14:64:84:97:a9:c0:bf:57:e4:
                    ad:42:46:c6:58:07:2d:12:18:a2:d1:1f:5d:40:0e:
                    93:19:eb:a0:4b:49:f5:1e:f6:8b:f9:6f:37:96:e4:
                    07:04:71:bc:da:d4:e0:3f:3d:4e:3e:71:40:e8:39:
                    27:ab:c8:2d:b4:22:45:51:32:8a:c4:21:10:84:fe:
                    ba:74:3e:72:8e:64:66:24:f6:a2:7a:f9:10:29:9d:
                    48:59:57:a9:0a:59:b4:00:60:5c:e1:93:4f:53:23:
                    a1:2e:a3:a3:eb:49:2c:8a:d1:2d:ba:bb:57:c3:a4:
                    5f:78:85:4b:8d:b0:6a:89:f0:cc:ba:be:60:89:a8:
                    9c:49
                Exponent: 65537 (0x10001)
        X509v3 extensions:
            X509v3 Subject Key Identifier: 
                72:41:94:01:8B:5E:D8:39:1C:E1:A1:6F:76:49:3E:9F:93:09:60:3A
            X509v3 Authority Key Identifier: 
                keyid:7A:10:56:B4:5F:2F:4E:7E:28:92:1A:46:EE:EB:8F:1E:A0:B6:3B:02

            Authority Information Access: 
                CA Issuers - URI:http://url-for-aia/Intermediate.cer

            X509v3 CRL Distribution Points: 

                Full Name:
                  URI:http://url-for-crl/Intermediate.crl

            X509v3 Key Usage: critical
                Digital Signature, Key Encipherment
            X509v3 Extended Key Usage: 
                TLS Web Server Authentication, TLS Web Client Authentication
    Signature Algorithm: sha256WithRSAEncryption
         53:5d:b1:fb:16:7d:a4:f9:32:a5:fe:77:7f:1a:a0:88:dc:8a:
         f9:f5:ca:d0:f3:93:42:fe:4d:d5:d8:01:76:22:8b:54:31:05:
         f5:9e:c3:7a:3b:eb:ed:1e:4d:e3:1c:93:6c:a9:f0:6f:57:2b:
         7e:fd:03:55:f3:2f:95:27:d9:f4:ce:38:81:25:b6:eb:35:c1:
         49:0f:d6:c1:01:5b:4d:12:a5:6a:c5:8d:31:64:83:70:ad:79:
         74:ba:68:db:17:b5:64:d6:d0:54:f7:5a:00:24:2d:35:0e:88:
         aa:be:4f:b3:ea:a9:f7:81:c4:3a:e1:93:7b:01:e1:55:c8:46:
         00:50:32:5a:17:f2:91:b7:9f:ec:28:9a:44:1c:f7:bd:2a:3d:
         40:0d:52:77:d1:d8:bb:9c:a3:74:70:b2:dc:7d:4c:e3:0e:42:
         ac:a0:5e:61:ef:b2:71:89:7e:d8:cd:71:dd:19:a4:a4:00:bf:
         25:d3:44:71:11:e7:b9:18:f5:e2:15:9b:99:18:c3:d7:3a:fd:
         40:11:d2:f5:d7:60:5e:dc:48:f1:93:85:be:33:a5:71:56:aa:
         a3:75:ba:29:d2:12:85:13:0c:06:e6:83:d7:f5:0f:ff:58:4d:
         2b:09:e6:3e:17:cb:14:e7:00:75:f0:65:80:42:e6:82:9f:e2:
         49:bd:95:9a
-----BEGIN CERTIFICATE-----
MIIDoDCCAoigAwIBAgIUajOne59lueDSvki69/igP70FbxAwDQYJKoZIhvcNAQEL
BQAwFzEVMBMGA1UEAwwMSW50ZXJtZWRpYXRlMB4XDTIwMTEwMzEyMDAwMFoXDTIx
MTEwMzEyMDAwMFowETEPMA0GA1UEAwwGVGFyZ2V0MIIBIjANBgkqhkiG9w0BAQEF
AAOCAQ8AMIIBCgKCAQEAs30HKTPf6ut4f4jvE3j/QhCmrpyNnsZIN3ekLCeBzamy
VLWEzQqhkBEoHYUPmoikoXU2QlMZcU3aFwKfgJRYVYcjR0e+imQV1hVv/nOi5+ha
AUgzriGhfKM6WPwsJfWr/7s9/+EvYth57OXWsDPczmjK9Za3Dl8igAnoymwUZISX
qcC/V+StQkbGWActEhii0R9dQA6TGeugS0n1HvaL+W83luQHBHG82tTgPz1OPnFA
6Dknq8gttCJFUTKKxCEQhP66dD5yjmRmJPaievkQKZ1IWVepClm0AGBc4ZNPUyOh
LqOj60ksitEturtXw6RfeIVLjbBqifDMur5giaicSQIDAQABo4HpMIHmMB0GA1Ud
DgQWBBRyQZQBi17YORzhoW92ST6fkwlgOjAfBgNVHSMEGDAWgBR6EFa0Xy9OfiiS
Gkbu648eoLY7AjA/BggrBgEFBQcBAQQzMDEwLwYIKwYBBQUHMAKGI2h0dHA6Ly91
cmwtZm9yLWFpYS9JbnRlcm1lZGlhdGUuY2VyMDQGA1UdHwQtMCswKaAnoCWGI2h0
dHA6Ly91cmwtZm9yLWNybC9JbnRlcm1lZGlhdGUuY3JsMA4GA1UdDwEB/wQEAwIF
oDAdBgNVHSUEFjAUBggrBgEFBQcDAQYIKwYBBQUHAwIwDQYJKoZIhvcNAQELBQAD
ggEBAFNdsfsWfaT5MqX+d38aoIjcivn1ytDzk0L+TdXYAXYii1QxBfWew3o76+0e
TeMck2yp8G9XK379A1XzL5Un2fTOOIEltus1wUkP1sEBW00SpWrFjTFkg3CteXS6
aNsXtWTW0FT3WgAkLTUOiKq+T7PqqfeBxDrhk3sB4VXIRgBQMloX8pG3n+womkQc
970qPUANUnfR2Luco3Rwstx9TOMOQqygXmHvsnGJftjNcd0ZpKQAvyXTRHER57kY
9eIVm5kYw9c6/UAR0vXXYF7cSPGThb4zpXFWqqN1uinSEoUTDAbmg9f1D/9YTSsJ
5j4XyxTnAHXwZYBC5oKf4km9lZo=
-----END CERTIFICATE-----

Certificate:
    Data:
        Version: 3 (0x2)
        Serial Number:
            17:c3:5e:ff:9e:fa:1b:f7:ec:b7:42:5e:7c:00:3a:7e:d7:5e:08:56
        Signature Algorithm: sha256WithRSAEncryption
        Issuer: CN=Root
        Validity
            Not Before: Nov  3 12:00:00 2020 GMT
            Not After : Nov  3 12:00:00 2021 GMT
        Subject: CN=Intermediate
        Subject Public Key Info:
            Public Key Algorithm: rsaEncryption
                RSA Public-Key: (2048 bit)
                Modulus:
                    00:bb:be:bc:29:e3:c0:a2:2b:12:a7:b2:77:ff:30:
                    a1:03:d7:b9:aa:0b:7d:b4:2a:4b:e4:cb:72:cb:5e:
                    ff:34:16:06:51:e2:e5:bf:a0:ae:0b:19:34:c3:45:
                    b1:2b:df:94:3c:9c:00:1c:bf:1f:69:a5:a6:08:04:
                    20:c9:0a:0d:c2:69:0b:a6:63:63:ab:9b:76:5b:d0:
                    1e:d1:20:32:02:bc:4d:4b:02:7e:8a:6c:90:34:b1:
                    2b:ae:88:da:99:fd:e0:77:f6:97:54:dc:f5:53:64:
                    83:87:70:f9:03:c4:aa:45:2c:78:bc:b0:9b:fa:11:
                    eb:a0:8c:a4:62:12:c2:82:ee:70:83:a8:8f:19:26:
                    1c:f0:60:e4:17:20:bf:4c:d8:76:90:42:0d:cd:82:
                    fe:e9:38:39:ca:d8:72:c0:8f:cf:98:4d:af:47:82:
                    77:63:a7:6e:c0:e8:ac:f8:4c:a8:b1:b0:20:09:03:
                    74:67:cc:24:5f:91:24:4a:38:05:ca:64:3e:b7:e0:
                    03:a5:79:44:71:32:19:31:cb:0a:02:84:39:8a:a7:
                    10:c7:6b:60:72:81:16:3f:9c:ac:f8:af:46:c4:21:
                    f4:88:30:a8:8d:62:82:1c:36:8d:b0:d9:00:bb:b5:
                    8c:e5:7a:89:de:6c:fd:3f:f0:e1:12:50:8c:1c:02:
                    1f:e9
                Exponent: 65537 (0x10001)
        X509v3 extensions:
            X509v3 Subject Key Identifier: 
                7A:10:56:B4:5F:2F:4E:7E:28:92:1A:46:EE:EB:8F:1E:A0:B6:3B:02
            X509v3 Authority Key Identifier: 
                keyid:9E:16:CB:63:0C:02:2E:E7:DC:BA:AA:D5:D2:10:B0:E0:F7:2D:14:6D

            Authority Information Access: 
                CA Issuers - URI:http://url-for-aia/Root.cer

            X509v3 CRL Distribution Points: 

                Full Name:
                  URI:http://url-for-crl/Root.crl

            X509v3 Key Usage: critical
                Certificate Sign, CRL Sign
            X509v3 Basic Constraints: critical
                CA:TRUE
    Signature Algorithm: sha256WithRSAEncryption
         31:d3:32:11:f1:c8:01:e1:27:91:79:d4:16:4c:fc:a7:a5:7f:
         fb:fa:28:1c:e2:bd:7e:25:c2:d0:38:64:b8:45:0a:71:ac:8a:
         f6:dd:96:3c:db:ca:bb:3c:5d:53:12:07:20:51:d4:a9:0f:e7:
         a9:2c:e0:18:72:52:27:1f:bb:29:5c:6c:5b:dc:aa:cf:d5:f9:
         82:85:e6:cb:98:ed:d0:9d:e4:7d:7f:c8:e3:d0:a6:be:22:54:
         ae:4b:10:b7:01:10:bd:46:99:69:e0:2e:64:75:8d:65:14:f9:
         db:1a:b4:d2:47:3a:00:56:ca:ca:7c:4c:68:49:e5:6b:7f:b4:
         83:4d:f2:1f:36:0c:55:fc:f0:3e:1f:cd:45:d1:55:81:2f:14:
         fb:35:41:3e:f1:ed:34:1b:01:0a:b0:33:ad:0d:42:4c:38:cb:
         68:e8:b3:aa:e9:74:80:72:af:f8:8d:87:f6:47:3e:6e:54:7a:
         c8:17:30:96:18:63:39:dd:ef:70:a5:8f:b8:0e:c9:0a:b6:5d:
         ca:98:0a:43:fd:f8:c0:44:bd:aa:bf:29:1f:c5:4d:cc:fc:ea:
         e9:84:fe:3c:ce:dc:0c:23:43:7b:91:93:e8:e7:48:9e:f8:75:
         e2:82:9a:0f:11:ef:00:7a:8e:81:eb:36:e2:e5:d6:2f:bd:e4:
         41:2f:32:2c
-----BEGIN CERTIFICATE-----
MIIDgDCCAmigAwIBAgIUF8Ne/576G/fst0JefAA6ftdeCFYwDQYJKoZIhvcNAQEL
BQAwDzENMAsGA1UEAwwEUm9vdDAeFw0yMDExMDMxMjAwMDBaFw0yMTExMDMxMjAw
MDBaMBcxFTATBgNVBAMMDEludGVybWVkaWF0ZTCCASIwDQYJKoZIhvcNAQEBBQAD
ggEPADCCAQoCggEBALu+vCnjwKIrEqeyd/8woQPXuaoLfbQqS+TLcste/zQWBlHi
5b+grgsZNMNFsSvflDycABy/H2mlpggEIMkKDcJpC6ZjY6ubdlvQHtEgMgK8TUsC
fopskDSxK66I2pn94Hf2l1Tc9VNkg4dw+QPEqkUseLywm/oR66CMpGISwoLucIOo
jxkmHPBg5Bcgv0zYdpBCDc2C/uk4OcrYcsCPz5hNr0eCd2OnbsDorPhMqLGwIAkD
dGfMJF+RJEo4BcpkPrfgA6V5RHEyGTHLCgKEOYqnEMdrYHKBFj+crPivRsQh9Igw
qI1ighw2jbDZALu1jOV6id5s/T/w4RJQjBwCH+kCAwEAAaOByzCByDAdBgNVHQ4E
FgQUehBWtF8vTn4okhpG7uuPHqC2OwIwHwYDVR0jBBgwFoAUnhbLYwwCLufcuqrV
0hCw4PctFG0wNwYIKwYBBQUHAQEEKzApMCcGCCsGAQUFBzAChhtodHRwOi8vdXJs
LWZvci1haWEvUm9vdC5jZXIwLAYDVR0fBCUwIzAhoB+gHYYbaHR0cDovL3VybC1m
b3ItY3JsL1Jvb3QuY3JsMA4GA1UdDwEB/wQEAwIBBjAPBgNVHRMBAf8EBTADAQH/
MA0GCSqGSIb3DQEBCwUAA4IBAQAx0zIR8cgB4SeRedQWTPynpX/7+igc4r1+JcLQ
OGS4RQpxrIr23ZY828q7PF1TEgcgUdSpD+epLOAYclInH7spXGxb3KrP1fmChebL
mO3QneR9f8jj0Ka+IlSuSxC3ARC9Rplp4C5kdY1lFPnbGrTSRzoAVsrKfExoSeVr
f7SDTfIfNgxV/PA+H81F0VWBLxT7NUE+8e00GwEKsDOtDUJMOMto6LOq6XSAcq/4
jYf2Rz5uVHrIFzCWGGM53e9wpY+4DskKtl3KmApD/fjARL2qvykfxU3M/OrphP48
ztwMI0N7kZPo50ie+HXigpoPEe8Aeo6B6zbi5dYvveRBLzIs
-----END CERTIFICATE-----

Certificate:
    Data:
        Version: 3 (0x2)
        Serial Number:
            17:c3:5e:ff:9e:fa:1b:f7:ec:b7:42:5e:7c:00:3a:7e:d7:5e:08:55
        Signature Algorithm: sha256WithRSAEncryption
        Issuer: CN=Root
        Validity
            Not Before: Nov  3 12:00:00 2020 GMT
            Not After : Nov  3 12:00:00 2021 GMT
        Subject: CN=Root
        Subject Public Key Info:
            Public Key Algorithm: rsaEncryption
                RSA Public-Key: (2048 bit)
                Modulus:
                    00:a8:a5:0e:06:b7:99:51:ad:fd:57:50:ba:00:3c:
                    ce:4b:a5:f8:a1:6d:00:ae:32:93:30:ec:a3:1b:58:
                    e3:09:5e:4e:61:fa:7f:f1:21:1a:a6:8d:bd:72:21:
                    e6:6d:82:33:7e:20:be:66:54:a6:42:92:18:db:43:
                    ef:09:93:d8:b4:6e:64:78:ce:b4:3b:9f:44:62:9f:
                    73:dd:e9:0f:11:ce:9a:a1:82:dd:32:04:71:f2:46:
                    03:e2:a1:7c:36:2f:78:de:97:b8:7b:da:3a:6a:b8:
                    81:7c:d1:76:17:72:3c:a6:ba:74:4b:38:db:6b:47:
                    d3:52:f1:e0:ad:17:4f:48:fe:2b:7a:a5:28:aa:52:
                    12:4c:f6:c2:4e:23:b5:b2:eb:9c:e1:6b:91:05:b0:
                    a7:3f:64:6f:bc:08:96:78:de:9f:ed:27:5b:d8:33:
                    b6:80:aa:80:40:a7:a3:c4:96:37:71:9a:ef:a6:2b:
                    5d:07:e9:8d:e5:9b:84:4a:ac:db:52:68:b9:80:74:
                    be:ce:a7:c2:fe:b7:45:37:b2:c2:e9:0f:f9:54:15:
                    ab:7e:e9:c6:86:05:4a:26:f8:b6:3f:ec:a7:0a:4e:
                    00:a1:73:3e:f3:db:77:38:0f:bc:37:9b:7c:cb:4d:
                    fc:ab:4b:d1:a2:ff:7d:1d:b1:d2:14:0d:74:bc:a4:
                    8d:11
                Exponent: 65537 (0x10001)
        X509v3 extensions:
            X509v3 Subject Key Identifier: 
                9E:16:CB:63:0C:02:2E:E7:DC:BA:AA:D5:D2:10:B0:E0:F7:2D:14:6D
            X509v3 Authority Key Identifier: 
                keyid:9E:16:CB:63:0C:02:2E:E7:DC:BA:AA:D5:D2:10:B0:E0:F7:2D:14:6D

            Authority Information Access: 
                CA Issuers - URI:http://url-for-aia/Root.cer

            X509v3 CRL Distribution Points: 

                Full Name:
                  URI:http://url-for-crl/Root.crl

            X509v3 Key Usage: critical
                Certificate Sign, CRL Sign
            X509v3 Basic Constraints: critical
                CA:FALSE
    Signature Algorithm: sha256WithRSAEncryption
         2e:76:93:68:cf:a2:7a:63:0b:30:b1:4b:e6:b2:7f:38:35:59:
         11:bf:51:44:96:4b:71:23:b3:fe:b2:56:5b:3a:fb:2d:ab:01:
         c4:9e:d9:69:85:71:0e:88:8b:de:d1:03:16:6a:02:56:a3:70:
         6b:89:ba:bf:61:e8:5f:c8:1b:2a:17:0f:de:3c:ea:53:b7:79:
         6e:2c:35:52:cb:e7:4a:e4:79:84:3d:03:1e:93:f4:f8:99:fc:
         17:07:17:8c:a0:b2:da:f4:40:c0:e9:a6:30:38:41:5b:e8:ea:
         0b:61:16:82:42:62:fc:0a:46:46:04:ab:3a:43:04:11:a2:d7:
         e3:de:5e:60:fd:0c:bd:6e:c5:75:f9:70:15:6d:5f:16:ea:33:
         ad:36:b7:67:80:8d:92:3b:af:37:17:19:af:fb:38:06:90:0c:
         4b:f7:c7:07:da:e6:81:ee:42:0c:30:b0:2e:f0:30:d5:53:0b:
         ac:0f:c6:1c:86:4e:41:31:aa:2d:3f:e2:de:98:3e:4b:26:8a:
         1d:55:ec:6d:0b:2c:7a:4a:1c:4a:78:e4:34:be:e8:dd:db:67:
         65:be:20:61:54:4f:d7:67:ae:55:32:42:d8:e6:3a:20:0d:d5:
         e9:e7:02:4f:b3:f8:d4:0a:ca:3a:13:82:21:d4:42:0a:3f:f2:
         5d:07:96:48
-----BEGIN CERTIFICATE-----
MIIDdTCCAl2gAwIBAgIUF8Ne/576G/fst0JefAA6ftdeCFUwDQYJKoZIhvcNAQEL
BQAwDzENMAsGA1UEAwwEUm9vdDAeFw0yMDExMDMxMjAwMDBaFw0yMTExMDMxMjAw
MDBaMA8xDTALBgNVBAMMBFJvb3QwggEiMA0GCSqGSIb3DQEBAQUAA4IBDwAwggEK
AoIBAQCopQ4Gt5lRrf1XULoAPM5LpfihbQCuMpMw7KMbWOMJXk5h+n/xIRqmjb1y
IeZtgjN+IL5mVKZCkhjbQ+8Jk9i0bmR4zrQ7n0Rin3Pd6Q8Rzpqhgt0yBHHyRgPi
oXw2L3jel7h72jpquIF80XYXcjymunRLONtrR9NS8eCtF09I/it6pSiqUhJM9sJO
I7Wy65zha5EFsKc/ZG+8CJZ43p/tJ1vYM7aAqoBAp6PEljdxmu+mK10H6Y3lm4RK
rNtSaLmAdL7Op8L+t0U3ssLpD/lUFat+6caGBUom+LY/7KcKTgChcz7z23c4D7w3
m3zLTfyrS9Gi/30dsdIUDXS8pI0RAgMBAAGjgcgwgcUwHQYDVR0OBBYEFJ4Wy2MM
Ai7n3Lqq1dIQsOD3LRRtMB8GA1UdIwQYMBaAFJ4Wy2MMAi7n3Lqq1dIQsOD3LRRt
MDcGCCsGAQUFBwEBBCswKTAnBggrBgEFBQcwAoYbaHR0cDovL3VybC1mb3ItYWlh
L1Jvb3QuY2VyMCwGA1UdHwQlMCMwIaAfoB2GG2h0dHA6Ly91cmwtZm9yLWNybC9S
b290LmNybDAOBgNVHQ8BAf8EBAMCAQYwDAYDVR0TAQH/BAIwADANBgkqhkiG9w0B
AQsFAAOCAQEALnaTaM+iemMLMLFL5rJ/ODVZEb9RRJZLcSOz/rJWWzr7LasBxJ7Z
aYVxDoiL3tEDFmoCVqNwa4m6v2HoX8gbKhcP3jzqU7d5biw1UsvnSuR5hD0DHpP0
+Jn8FwcXjKCy2vRAwOmmMDhBW+jqC2EWgkJi/ApGRgSrOkMEEaLX495eYP0MvW7F
dflwFW1fFuozrTa3Z4CNkjuvNxcZr/s4BpAMS/fHB9rmge5CDDCwLvAw1VMLrA/G
HIZOQTGqLT/i3pg+SyaKHVXsbQssekocSnjkNL7o3dtnZb4gYVRP12euVTJC2OY6
IA3V6ecCT7P41ArKOhOCIdRCCj/yXQeWSA==
-----END CERTIFICATE-----
