Certificate:
    Data:
        Version: 3 (0x2)
        Serial Number:
            45:e6:bb:03:83:33:c3:85:65:48:e6:ff:45:51
        Signature Algorithm: sha384WithRSAEncryption
        Issuer: OU = GlobalSign Root CA - R6, O = GlobalSign, CN = GlobalSign
        Validity
            Not Before: Dec 10 00:00:00 2014 GMT
            Not After : Dec 10 00:00:00 2034 GMT
        Subject: OU = GlobalSign Root CA - R6, O = GlobalSign, CN = GlobalSign
        Subject Public Key Info:
            Public Key Algorithm: rsaEncryption
                RSA Public-Key: (4096 bit)
                Modulus:
                    00:95:07:e8:73:ca:66:f9:ec:14:ca:7b:3c:f7:0d:
                    08:f1:b4:45:0b:2c:82:b4:48:c6:eb:5b:3c:ae:83:
                    b8:41:92:33:14:a4:6f:7f:e9:2a:cc:c6:b0:88:6b:
                    c5:b6:89:d1:c6:b2:ff:14:ce:51:14:21:ec:4a:dd:
                    1b:5a:c6:d6:87:ee:4d:3a:15:06:ed:64:66:0b:92:
                    80:ca:44:de:73:94:4e:f3:a7:89:7f:4f:78:63:08:
                    c8:12:50:6d:42:66:2f:4d:b9:79:28:4d:52:1a:8a:
                    1a:80:b7:19:81:0e:7e:c4:8a:bc:64:4c:21:1c:43:
                    68:d7:3d:3c:8a:c5:b2:66:d5:90:9a:b7:31:06:c5:
                    be:e2:6d:32:06:a6:1e:f9:b9:eb:aa:a3:b8:bf:be:
                    82:63:50:d0:f0:18:89:df:e4:0f:79:f5:ea:a2:1f:
                    2a:d2:70:2e:7b:e7:bc:93:bb:6d:53:e2:48:7c:8c:
                    10:07:38:ff:66:b2:77:61:7e:e0:ea:8c:3c:aa:b4:
                    a4:f6:f3:95:4a:12:07:6d:fd:8c:b2:89:cf:d0:a0:
                    61:77:c8:58:74:b0:d4:23:3a:f7:5d:3a:ca:a2:db:
                    9d:09:de:5d:44:2d:90:f1:81:cd:57:92:fa:7e:bc:
                    50:04:63:34:df:6b:93:18:be:6b:36:b2:39:e4:ac:
                    24:36:b7:f0:ef:b6:1c:13:57:93:b6:de:b2:f8:e2:
                    85:b7:73:a2:b8:35:aa:45:f2:e0:9d:36:a1:6f:54:
                    8a:f1:72:56:6e:2e:88:c5:51:42:44:15:94:ee:a3:
                    c5:38:96:9b:4e:4e:5a:0b:47:f3:06:36:49:77:30:
                    bc:71:37:e5:a6:ec:21:08:75:fc:e6:61:16:3f:77:
                    d5:d9:91:97:84:0a:6c:d4:02:4d:74:c0:14:ed:fd:
                    39:fb:83:f2:5e:14:a1:04:b0:0b:e9:fe:ee:8f:e1:
                    6e:0b:b2:08:b3:61:66:09:6a:b1:06:3a:65:96:59:
                    c0:f0:35:fd:c9:da:28:8d:1a:11:87:70:81:0a:a8:
                    9a:75:1d:9e:3a:86:05:00:9e:db:80:d6:25:f9:dc:
                    05:9e:27:59:4c:76:39:5b:ea:f9:a5:a1:d8:83:0f:
                    d1:ff:df:30:11:f9:85:cf:33:48:f5:ca:6d:64:14:
                    2c:7a:58:4f:d3:4b:08:49:c5:95:64:1a:63:0e:79:
                    3d:f5:b3:8c:ca:58:ad:9c:42:45:79:6e:0e:87:19:
                    5c:54:b1:65:b6:bf:8c:9b:dc:13:e9:0d:6f:b8:2e:
                    dc:67:6e:c9:8b:11:b5:84:14:8a:00:19:70:83:79:
                    91:97:91:d4:1a:27:bf:37:1e:32:07:d8:14:63:3c:
                    28:4c:af
                Exponent: 65537 (0x10001)
        X509v3 extensions:
            X509v3 Key Usage: critical
                Certificate Sign, CRL Sign
            X509v3 Basic Constraints: critical
                CA:TRUE
            X509v3 Subject Key Identifier: 
                AE:6C:05:A3:93:13:E2:A2:E7:E2:D7:1C:D6:C7:F0:7F:C8:67:53:A0
            X509v3 Authority Key Identifier: 
                keyid:AE:6C:05:A3:93:13:E2:A2:E7:E2:D7:1C:D6:C7:F0:7F:C8:67:53:A0

    Signature Algorithm: sha384WithRSAEncryption
         83:25:ed:e8:d1:fd:95:52:cd:9e:c0:04:a0:91:69:e6:5c:d0:
         84:de:dc:ad:a2:4f:e8:47:78:d6:65:98:a9:5b:a8:3c:87:7c:
         02:8a:d1:6e:b7:16:73:e6:5f:c0:54:98:d5:74:be:c1:cd:e2:
         11:91:ad:23:18:3d:dd:e1:72:44:96:b4:95:5e:c0:7b:8e:99:
         78:16:43:13:56:57:b3:a2:b3:3b:b5:77:dc:40:72:ac:a3:eb:
         9b:35:3e:b1:08:21:a1:e7:c4:43:37:79:32:be:b5:e7:9c:2c:
         4c:bc:43:29:99:8e:30:d3:ac:21:e0:e3:1d:fa:d8:07:33:76:
         54:00:22:2a:b9:4d:20:2e:70:68:da:e5:53:fc:83:5c:d3:9d:
         f2:ff:44:0c:44:66:f2:d2:e3:bd:46:00:1a:6d:02:ba:25:5d:
         8d:a1:31:51:dd:54:46:1c:4d:db:99:96:ef:1a:1c:04:5c:a6:
         15:ef:78:e0:79:fe:5d:db:3e:aa:4c:55:fd:9a:15:a9:6f:e1:
         a6:fb:df:70:30:e9:c3:ee:42:46:ed:c2:93:05:89:fa:7d:63:
         7b:3f:d0:71:81:7c:00:e8:98:ae:0e:78:34:c3:25:fb:af:0a:
         9f:20:6b:dd:3b:13:8f:12:8c:e2:41:1a:48:7a:73:a0:77:69:
         c7:b6:5c:7f:82:c8:1e:fe:58:1b:28:2b:a8:6c:ad:5e:6d:c0:
         05:d2:7b:b7:eb:80:fe:25:37:fe:02:9b:68:ac:42:5d:c3:ee:
         f5:cc:dc:f0:50:75:d2:36:69:9c:e6:7b:04:df:6e:06:69:b6:
         de:0a:09:48:59:87:eb:7b:14:60:7a:64:aa:69:43:ef:91:c7:
         4c:ec:18:dd:6c:ef:53:2d:8c:99:e1:5e:f2:72:3e:cf:54:c8:
         bd:67:ec:a4:0f:4c:45:ff:d3:b9:30:23:07:4c:8f:10:bf:86:
         96:d9:99:5a:b4:99:57:1c:a4:cc:bb:15:89:53:ba:2c:05:0f:
         e4:c4:9e:19:b1:18:34:d5:4c:9d:ba:ed:f7:1f:af:24:95:04:
         78:a8:03:bb:ee:81:e5:da:5f:7c:8b:4a:a1:90:74:25:a7:b3:
         3e:4b:c8:2c:56:bd:c7:c8:ef:38:e2:5c:92:f0:79:f7:9c:84:
         ba:74:2d:61:01:20:7e:7e:d1:f2:4f:07:59:5f:8b:2d:43:52:
         eb:46:0c:94:e1:f5:66:47:79:77:d5:54:5b:1f:ad:24:37:cb:
         45:5a:4e:a0:44:48:c8:d8:b0:99:c5:15:84:09:f6:d6:49:49:
         c0:65:b8:e6:1a:71:6e:a0:a8:f1:82:e8:45:3e:6c:d6:02:d7:
         0a:67:83:05:5a:c9:a4:10
-----BEGIN CERTIFICATE-----
MIIFgzCCA2ugAwIBAgIORea7A4Mzw4VlSOb/RVEwDQYJKoZIhvcNAQEMBQAwTDEg
MB4GA1UECxMXR2xvYmFsU2lnbiBSb290IENBIC0gUjYxEzARBgNVBAoTCkdsb2Jh
bFNpZ24xEzARBgNVBAMTCkdsb2JhbFNpZ24wHhcNMTQxMjEwMDAwMDAwWhcNMzQx
MjEwMDAwMDAwWjBMMSAwHgYDVQQLExdHbG9iYWxTaWduIFJvb3QgQ0EgLSBSNjET
MBEGA1UEChMKR2xvYmFsU2lnbjETMBEGA1UEAxMKR2xvYmFsU2lnbjCCAiIwDQYJ
KoZIhvcNAQEBBQADggIPADCCAgoCggIBAJUH6HPKZvnsFMp7PPcNCPG0RQssgrRI
xutbPK6DuEGSMxSkb3/pKszGsIhrxbaJ0cay/xTOURQh7ErdG1rG1ofuTToVBu1k
ZguSgMpE3nOUTvOniX9PeGMIyBJQbUJmL025eShNUhqKGoC3GYEOfsSKvGRMIRxD
aNc9PIrFsmbVkJq3MQbFvuJtMgamHvm566qjuL++gmNQ0PAYid/kD3n16qIfKtJw
LnvnvJO7bVPiSHyMEAc4/2ayd2F+4OqMPKq0pPbzlUoSB239jLKJz9CgYXfIWHSw
1CM69106yqLbnQneXUQtkPGBzVeS+n68UARjNN9rkxi+azayOeSsJDa38O+2HBNX
k7besvjihbdzorg1qkXy4J02oW9UivFyVm4uiMVRQkQVlO6jxTiWm05OWgtH8wY2
SXcwvHE35absIQh1/OZhFj931dmRl4QKbNQCTXTAFO39OfuD8l4UoQSwC+n+7o/h
bguyCLNhZglqsQY6ZZZZwPA1/cnaKI0aEYdwgQqomnUdnjqGBQCe24DWJfncBZ4n
WUx2OVvq+aWh2IMP0f/fMBH5hc8zSPXKbWQULHpYT9NLCEnFlWQaYw55PfWzjMpY
rZxCRXluDocZXFSxZba/jJvcE+kNb7gu3GduyYsRtYQUigAZcIN5kZeR1Bonvzce
MgfYFGM8KEyvAgMBAAGjYzBhMA4GA1UdDwEB/wQEAwIBBjAPBgNVHRMBAf8EBTAD
AQH/MB0GA1UdDgQWBBSubAWjkxPioufi1xzWx/B/yGdToDAfBgNVHSMEGDAWgBSu
bAWjkxPioufi1xzWx/B/yGdToDANBgkqhkiG9w0BAQwFAAOCAgEAgyXt6NH9lVLN
nsAEoJFp5lzQhN7craJP6Ed41mWYqVuoPId8AorRbrcWc+ZfwFSY1XS+wc3iEZGt
Ixg93eFyRJa0lV7Ae46ZeBZDE1ZXs6KzO7V33EByrKPrmzU+sQghoefEQzd5Mr61
55wsTLxDKZmOMNOsIeDjHfrYBzN2VAAiKrlNIC5waNrlU/yDXNOd8v9EDERm8tLj
vUYAGm0CuiVdjaExUd1URhxN25mW7xocBFymFe944Hn+Xds+qkxV/ZoVqW/hpvvf
cDDpw+5CRu3CkwWJ+n1jez/QcYF8AOiYrg54NMMl+68KnyBr3TsTjxKM4kEaSHpz
oHdpx7Zcf4LIHv5YGygrqGytXm3ABdJ7t+uA/iU3/gKbaKxCXcPu9czc8FB10jZp
nOZ7BN9uBmm23goJSFmH63sUYHpkqmlD75HHTOwY3WzvUy2MmeFe8nI+z1TIvWfs
pA9MRf/TuTAjB0yPEL+GltmZWrSZVxykzLsViVO6LAUP5MSeGbEYNNVMnbrt9x+v
JJUEeKgDu+6B5dpffItKoZB0JaezPkvILFa9x8jvOOJckvB595yEunQtYQEgfn7R
8k8HWV+LLUNS60YMlOH1Zkd5d9VUWx+tJDfLRVpOoERIyNiwmcUVhAn21klJwGW4
5hpxbqCo8YLoRT5s1gLXCmeDBVrJpBA=
-----END CERTIFICATE-----
