Certificate:
    Data:
        Version: 3 (0x2)
        Serial Number: 6248227494352943350 (0x56b629cd34bc78f6)
        Signature Algorithm: sha256WithRSAEncryption
        Issuer: C = US, ST = Texas, L = Houston, O = SSL Corporation, CN = SSL.com EV Root Certification Authority RSA R2
        Validity
            Not Before: May 31 18:14:37 2017 GMT
            Not After : May 30 18:14:37 2042 GMT
        Subject: C = US, ST = Texas, L = Houston, O = SSL Corporation, CN = SSL.com EV Root Certification Authority RSA R2
        Subject Public Key Info:
            Public Key Algorithm: rsaEncryption
                RSA Public-Key: (4096 bit)
                Modulus:
                    00:8f:36:65:40:e1:d6:4d:c0:d7:b4:e9:46:da:6b:
                    ea:33:47:cd:4c:f9:7d:7d:be:bd:2d:3d:f0:db:78:
                    e1:86:a5:d9:ba:09:57:68:ed:57:3e:a0:d0:08:41:
                    83:e7:28:41:24:1f:e3:72:15:d0:01:1a:fb:5e:70:
                    23:b2:cb:9f:39:e3:cf:c5:4e:c6:92:6d:26:c6:7b:
                    bb:b3:da:27:9d:0a:86:e9:81:37:05:fe:f0:71:71:
                    ec:c3:1c:e9:63:a2:17:14:9d:ef:1b:67:d3:85:55:
                    02:02:d6:49:c9:cc:5a:e1:b1:f7:6f:32:9f:c9:d4:
                    3b:88:41:a8:9c:bd:cb:ab:db:6d:7b:09:1f:a2:4c:
                    72:90:da:2b:08:fc:cf:3c:54:ce:67:0f:a8:cf:5d:
                    96:19:0b:c4:e3:72:eb:ad:d1:7d:1d:27:ef:92:eb:
                    10:bf:5b:eb:3b:af:cf:80:dd:c1:d2:96:04:5b:7a:
                    7e:a4:a9:3c:38:76:a4:62:8e:a0:39:5e:ea:77:cf:
                    5d:00:59:8f:66:2c:3e:07:a2:a3:05:26:11:69:97:
                    ea:85:b7:0f:96:0b:4b:c8:40:e1:50:ba:2e:8a:cb:
                    f7:0f:9a:22:e7:7f:9a:37:13:cd:f2:4d:13:6b:21:
                    d1:c0:cc:22:f2:a1:46:f6:44:69:9c:ca:61:35:07:
                    00:6f:d6:61:08:11:ea:ba:b8:f6:e9:b3:60:e5:4d:
                    b9:ec:9f:14:66:c9:57:58:db:cd:87:69:f8:8a:86:
                    12:03:47:bf:66:13:76:ac:77:7d:34:24:85:83:cd:
                    d7:aa:9c:90:1a:9f:21:2c:7f:78:b7:64:b8:d8:e8:
                    a6:f4:78:b3:55:cb:84:d2:32:c4:78:ae:a3:8f:61:
                    dd:ce:08:53:ad:ec:88:fc:15:e4:9a:0d:e6:9f:1a:
                    77:ce:4c:8f:b8:14:15:3d:62:9c:86:38:06:00:66:
                    12:e4:59:76:5a:53:c0:02:98:a2:10:2b:68:44:7b:
                    8e:79:ce:33:4a:76:aa:5b:81:16:1b:b5:8a:d8:d0:
                    00:7b:5e:62:b4:09:d6:86:63:0e:a6:05:95:49:ba:
                    28:8b:88:93:b2:34:1c:d8:a4:55:6e:b7:1c:d0:de:
                    99:55:3b:23:f4:22:e0:f9:29:66:26:ec:20:50:77:
                    db:4a:0b:8f:be:e5:02:60:70:41:5e:d4:ae:50:39:
                    22:14:26:cb:b2:3b:73:74:55:47:07:79:81:39:a8:
                    30:13:44:e5:04:8a:ae:96:13:25:42:0f:b9:53:c4:
                    9b:fc:cd:e4:1c:de:3c:fa:ab:d6:06:4a:1f:67:a6:
                    98:30:1c:dd:2c:db:dc:18:95:57:66:c6:ff:5c:8b:
                    56:f5:77
                Exponent: 65537 (0x10001)
        X509v3 extensions:
            X509v3 Basic Constraints: critical
                CA:TRUE
            X509v3 Authority Key Identifier: 
                keyid:F9:60:BB:D4:E3:D5:34:F6:B8:F5:06:80:25:A7:73:DB:46:69:A8:9E

            X509v3 Subject Key Identifier: 
                F9:60:BB:D4:E3:D5:34:F6:B8:F5:06:80:25:A7:73:DB:46:69:A8:9E
            X509v3 Key Usage: critical
                Digital Signature, Certificate Sign, CRL Sign
    Signature Algorithm: sha256WithRSAEncryption
         56:b3:8e:cb:0a:9d:49:8e:bf:a4:c4:91:bb:66:17:05:51:98:
         75:fb:e5:50:2c:7a:9e:f1:14:fa:ab:d3:8a:3e:ff:91:29:8f:
         63:8b:d8:b4:a9:54:01:0d:be:93:86:2f:f9:4a:6d:c7:5e:f5:
         57:f9:ca:55:1c:12:be:47:0f:36:c5:df:6a:b7:db:75:c2:47:
         25:7f:b9:f1:63:f8:68:2d:55:04:d1:f2:8d:b0:a4:cf:bc:3c:
         5e:1f:78:e7:a5:a0:20:70:b0:04:c5:b7:f7:72:a7:de:22:0d:
         bd:33:25:46:8c:64:92:26:e3:3e:2e:63:96:da:9b:8c:3d:f8:
         18:09:d7:03:cc:7d:86:82:e0:ca:04:07:51:50:d7:ff:92:d5:
         0c:ef:da:86:9f:99:d7:eb:b7:af:68:e2:39:26:94:ba:68:b7:
         bf:83:d3:ea:7a:67:3d:62:67:ae:25:e5:72:e8:e2:e4:ec:ae:
         12:f6:4b:2b:3c:9f:e9:b0:40:f3:38:54:b3:fd:b7:68:c8:da:
         c6:8f:51:3c:b2:fb:91:dc:1c:e7:9b:9d:e1:b7:0d:72:8f:e2:
         a4:c4:a9:78:f9:eb:14:ac:c6:43:05:c2:65:39:28:18:02:c3:
         82:b2:9d:05:be:65:ed:96:5f:65:74:3c:fb:09:35:2e:7b:9c:
         13:fd:1b:0f:5d:c7:6d:81:3a:56:0f:cc:3b:e1:af:02:2f:22:
         ac:46:ca:46:3c:a0:1c:4c:d6:44:b4:5e:2e:5c:15:66:09:e1:
         26:29:fe:c6:52:61:ba:b1:73:ff:c3:0c:9c:e5:6c:6a:94:3f:
         14:ca:40:16:95:84:f3:59:a9:ac:5f:4c:61:93:6d:d1:3b:cc:
         a2:95:0c:22:a6:67:67:44:2e:b9:d9:d2:8a:41:b3:66:0b:5a:
         fb:7d:23:a5:f2:1a:b0:ff:de:9b:83:94:2e:d1:3f:df:92:b7:
         91:af:05:3b:65:c7:a0:6c:b1:cd:62:12:c3:90:1b:e3:25:ce:
         34:bc:6f:77:76:b1:10:c3:f7:05:1a:c0:d6:af:74:62:48:17:
         77:92:69:90:61:1c:de:95:80:74:54:8f:18:1c:c3:f3:03:d0:
         bf:a4:43:75:86:53:18:7a:0a:2e:09:1c:36:9f:91:fd:82:8a:
         22:4b:d1:0e:50:25:dd:cb:03:0c:17:c9:83:00:08:4e:35:4d:
         8a:8b:ed:f0:02:94:66:2c:44:7f:cb:95:27:96:17:ad:09:30:
         ac:b6:71:17:6e:8b:17:f6:1c:09:d4:2d:3b:98:a5:71:d3:54:
         13:d9:60:f3:f5:4b:66:4f:fa:f1:ee:20:12:8d:b4:ac:57:b1:
         45:63:a1:ac:76:a9:c2:fb
-----BEGIN CERTIFICATE-----
MIIF6zCCA9OgAwIBAgIIVrYpzTS8ePYwDQYJKoZIhvcNAQELBQAwgYIxCzAJBgNV
BAYTAlVTMQ4wDAYDVQQIDAVUZXhhczEQMA4GA1UEBwwHSG91c3RvbjEYMBYGA1UE
CgwPU1NMIENvcnBvcmF0aW9uMTcwNQYDVQQDDC5TU0wuY29tIEVWIFJvb3QgQ2Vy
dGlmaWNhdGlvbiBBdXRob3JpdHkgUlNBIFIyMB4XDTE3MDUzMTE4MTQzN1oXDTQy
MDUzMDE4MTQzN1owgYIxCzAJBgNVBAYTAlVTMQ4wDAYDVQQIDAVUZXhhczEQMA4G
A1UEBwwHSG91c3RvbjEYMBYGA1UECgwPU1NMIENvcnBvcmF0aW9uMTcwNQYDVQQD
DC5TU0wuY29tIEVWIFJvb3QgQ2VydGlmaWNhdGlvbiBBdXRob3JpdHkgUlNBIFIy
MIICIjANBgkqhkiG9w0BAQEFAAOCAg8AMIICCgKCAgEAjzZlQOHWTcDXtOlG2mvq
M0fNTPl9fb69LT3w23jhhqXZuglXaO1XPqDQCEGD5yhBJB/jchXQARr7XnAjssuf
OePPxU7Gkm0mxnu7s9onnQqG6YE3Bf7wcXHswxzpY6IXFJ3vG2fThVUCAtZJycxa
4bH3bzKfydQ7iEGonL3Lq9ttewkfokxykNorCPzPPFTOZw+oz12WGQvE43LrrdF9
HSfvkusQv1vrO6/PgN3B0pYEW3p+pKk8OHakYo6gOV7qd89dAFmPZiw+B6KjBSYR
aZfqhbcPlgtLyEDhULouisv3D5oi53+aNxPN8k0TayHRwMwi8qFG9kRpnMphNQcA
b9ZhCBHqurj26bNg5U257J8UZslXWNvNh2n4ioYSA0e/ZhN2rHd9NCSFg83XqpyQ
Gp8hLH94t2S42Oim9HizVcuE0jLEeK6jj2HdzghTreyI/BXkmg3mnxp3zkyPuBQV
PWKchjgGAGYS5Fl2WlPAApiiECtoRHuOec4zSnaqW4EWG7WK2NAAe15itAnWhmMO
pgWVSbooi4iTsjQc2KRVbrcc0N6ZVTsj9CLg+SlmJuwgUHfbSguPvuUCYHBBXtSu
UDkiFCbLsjtzdFVHB3mBOagwE0TlBIqulhMlQg+5U8Sb/M3kHN48+qvWBkofZ6aY
MBzdLNvcGJVXZsb/XItW9XcCAwEAAaNjMGEwDwYDVR0TAQH/BAUwAwEB/zAfBgNV
HSMEGDAWgBT5YLvU49U09rj1BoAlp3PbRmmonjAdBgNVHQ4EFgQU+WC71OPVNPa4
9QaAJadz20ZpqJ4wDgYDVR0PAQH/BAQDAgGGMA0GCSqGSIb3DQEBCwUAA4ICAQBW
s47LCp1Jjr+kxJG7ZhcFUZh1++VQLHqe8RT6q9OKPv+RKY9ji9i0qVQBDb6Thi/5
Sm3HXvVX+cpVHBK+Rw82xd9qt9t1wkclf7nxY/hoLVUE0fKNsKTPvDxeH3jnpaAg
cLAExbf3cqfeIg29MyVGjGSSJuM+LmOW2puMPfgYCdcDzH2GguDKBAdRUNf/ktUM
79qGn5nX67evaOI5JpS6aLe/g9Pqemc9YmeuJeVy6OLk7K4S9ksrPJ/psEDzOFSz
/bdoyNrGj1E8svuR3Bznm53htw1yj+KkxKl4+esUrMZDBcJlOSgYAsOCsp0FvmXt
ll9ldDz7CTUue5wT/RsPXcdtgTpWD8w74a8CLyKsRspGPKAcTNZEtF4uXBVmCeEm
Kf7GUmG6sXP/wwyc5WxqlD8UykAWlYTzWamsX0xhk23RO8yilQwipmdnRC652dKK
QbNmC1r7fSOl8hqw/96bg5Qu0T/fkreRrwU7ZcegbLHNYhLDkBvjJc40vG93drEQ
w/cFGsDWr3RiSBd3kmmQYRzelYB0VI8YHMPzA9C/pEN1hlMYegouCRw2n5H9gooi
S9EOUCXdywMMF8mDAAhONU2Ki+3wApRmLER/y5UnlhetCTCstnEXbosX9hwJ1C07
mKVx01QT2WDz9UtmT/rx7iASjbSsV7FFY6GsdqnC+w==
-----END CERTIFICATE-----
