Certificate:
    Data:
        Version: 3 (0x2)
        Serial Number: 8495723813297216424 (0x75e6dfcbc1685ba8)
        Signature Algorithm: ecdsa-with-SHA256
        Issuer: C = US, ST = Texas, L = Houston, O = SSL Corporation, CN = SSL.com Root Certification Authority ECC
        Validity
            Not Before: Feb 12 18:14:03 2016 GMT
            Not After : Feb 12 18:14:03 2041 GMT
        Subject: C = US, ST = Texas, L = Houston, O = SSL Corporation, CN = SSL.com Root Certification Authority ECC
        Subject Public Key Info:
            Public Key Algorithm: id-ecPublicKey
                Public-Key: (384 bit)
                pub:
                    04:45:6e:a9:50:c4:a6:23:36:9e:5f:28:8d:17:cb:
                    96:22:64:3f:dc:7a:8e:1d:cc:08:b3:a2:71:24:ba:
                    8e:49:b9:04:1b:47:96:58:ab:2d:95:c8:ed:9e:08:
                    35:c8:27:eb:89:8c:53:58:eb:62:8a:fe:f0:5b:0f:
                    6b:31:52:63:41:3b:89:cd:ec:ec:b6:8d:19:d3:34:
                    07:dc:bb:c6:06:7f:c2:45:95:ec:cb:7f:a8:23:e0:
                    09:e9:81:fa:f3:47:d3
                ASN1 OID: secp384r1
                NIST CURVE: P-384
        X509v3 extensions:
            X509v3 Subject Key Identifier: 
                82:D1:85:73:30:E7:35:04:D3:8E:02:92:FB:E5:A4:D1:C4:21:E8:CD
            X509v3 Basic Constraints: critical
                CA:TRUE
            X509v3 Authority Key Identifier: 
                keyid:82:D1:85:73:30:E7:35:04:D3:8E:02:92:FB:E5:A4:D1:C4:21:E8:CD

            X509v3 Key Usage: critical
                Digital Signature, Certificate Sign, CRL Sign
    Signature Algorithm: ecdsa-with-SHA256
         30:64:02:30:6f:e7:eb:59:11:a4:60:cf:61:b0:96:7b:ed:05:
         f9:2f:13:91:dc:ed:e5:fc:50:6b:11:46:46:b3:1c:21:00:62:
         bb:be:c3:e7:e8:cd:07:99:f9:0d:0b:5d:72:3e:c4:aa:02:30:
         1f:bc:ba:0b:e2:30:24:fb:7c:6d:80:55:0a:99:3e:80:0d:33:
         e5:66:a3:b3:a3:bb:a5:d5:8b:8f:09:2c:a6:5d:7e:e2:f0:07:
         08:68:6d:d2:7c:69:6e:5f:df:e5:6a:65
-----BEGIN CERTIFICATE-----
MIICjTCCAhSgAwIBAgIIdebfy8FoW6gwCgYIKoZIzj0EAwIwfDELMAkGA1UEBhMC
VVMxDjAMBgNVBAgMBVRleGFzMRAwDgYDVQQHDAdIb3VzdG9uMRgwFgYDVQQKDA9T
U0wgQ29ycG9yYXRpb24xMTAvBgNVBAMMKFNTTC5jb20gUm9vdCBDZXJ0aWZpY2F0
aW9uIEF1dGhvcml0eSBFQ0MwHhcNMTYwMjEyMTgxNDAzWhcNNDEwMjEyMTgxNDAz
WjB8MQswCQYDVQQGEwJVUzEOMAwGA1UECAwFVGV4YXMxEDAOBgNVBAcMB0hvdXN0
b24xGDAWBgNVBAoMD1NTTCBDb3Jwb3JhdGlvbjExMC8GA1UEAwwoU1NMLmNvbSBS
b290IENlcnRpZmljYXRpb24gQXV0aG9yaXR5IEVDQzB2MBAGByqGSM49AgEGBSuB
BAAiA2IABEVuqVDEpiM2nl8ojRfLliJkP9x6jh3MCLOicSS6jkm5BBtHllirLZXI
7Z4INcgn64mMU1jrYor+8FsPazFSY0E7ic3s7LaNGdM0B9y7xgZ/wkWV7Mt/qCPg
CemB+vNH06NjMGEwHQYDVR0OBBYEFILRhXMw5zUE044CkvvlpNHEIejNMA8GA1Ud
EwEB/wQFMAMBAf8wHwYDVR0jBBgwFoAUgtGFczDnNQTTjgKS++Wk0cQh6M0wDgYD
VR0PAQH/BAQDAgGGMAoGCCqGSM49BAMCA2cAMGQCMG/n61kRpGDPYbCWe+0F+S8T
kdzt5fxQaxFGRrMcIQBiu77D5+jNB5n5DQtdcj7EqgIwH7y6C+IwJPt8bYBVCpk+
gA0z5Wajs6O7pdWLjwkspl1+4vAHCGht0nxpbl/f5Wpl
-----END CERTIFICATE-----
