Certificate:
    Data:
        Version: 3 (0x2)
        Serial Number:
            08:bd:85:97:6c:99:27:a4:80:68:47:3b
        Signature Algorithm: ecdsa-with-SHA384
        Issuer: C = US, ST = Illinois, L = Chicago, O = "Trustwave Holdings, Inc.", CN = Trustwave Global ECC P384 Certification Authority
        Validity
            Not Before: Aug 23 19:36:43 2017 GMT
            Not After : Aug 23 19:36:43 2042 GMT
        Subject: C = US, ST = Illinois, L = Chicago, O = "Trustwave Holdings, Inc.", CN = Trustwave Global ECC P384 Certification Authority
        Subject Public Key Info:
            Public Key Algorithm: id-ecPublicKey
                Public-Key: (384 bit)
                pub:
                    04:6b:da:0d:75:35:08:31:47:05:ae:45:99:55:f1:
                    11:13:2e:4a:f8:10:31:23:a3:7e:83:d3:7f:28:08:
                    3a:26:1a:3a:cf:97:82:1f:80:b7:27:09:8f:d1:8e:
                    30:c4:0a:9b:0e:ac:58:04:ab:f7:36:7d:94:23:a4:
                    9b:0a:8a:8b:ab:eb:fd:39:25:66:f1:5e:fe:8c:ae:
                    8d:41:79:9d:09:60:ce:28:a9:d3:8a:6d:f3:d6:45:
                    d4:f2:98:84:38:65:a0
                ASN1 OID: secp384r1
                NIST CURVE: P-384
        X509v3 extensions:
            X509v3 Basic Constraints: critical
                CA:TRUE
            X509v3 Key Usage: critical
                Certificate Sign, CRL Sign
            X509v3 Subject Key Identifier: 
                55:A9:84:89:D2:C1:32:BD:18:CB:6C:A6:07:4E:C8:E7:9D:BE:82:90
    Signature Algorithm: ecdsa-with-SHA384
         30:64:02:30:37:01:92:97:45:12:7e:a0:f3:3e:ad:19:3a:72:
         dd:f4:50:93:03:12:be:44:d2:4f:41:a4:8c:9c:9d:1f:a3:f6:
         c2:92:e7:48:14:fe:4e:9b:a5:91:57:ae:c6:37:72:bb:02:30:
         67:25:0a:b1:0c:5e:ee:a9:63:92:6f:e5:90:0b:fe:66:22:ca:
         47:fd:8a:31:f7:83:fe:7a:bf:10:be:18:2b:1e:8f:f6:29:1e:
         94:59:ef:8e:21:37:cb:51:98:a5:6e:4b
-----BEGIN CERTIFICATE-----
MIICnTCCAiSgAwIBAgIMCL2Fl2yZJ6SAaEc7MAoGCCqGSM49BAMDMIGRMQswCQYD
VQQGEwJVUzERMA8GA1UECBMISWxsaW5vaXMxEDAOBgNVBAcTB0NoaWNhZ28xITAf
BgNVBAoTGFRydXN0d2F2ZSBIb2xkaW5ncywgSW5jLjE6MDgGA1UEAxMxVHJ1c3R3
YXZlIEdsb2JhbCBFQ0MgUDM4NCBDZXJ0aWZpY2F0aW9uIEF1dGhvcml0eTAeFw0x
NzA4MjMxOTM2NDNaFw00MjA4MjMxOTM2NDNaMIGRMQswCQYDVQQGEwJVUzERMA8G
A1UECBMISWxsaW5vaXMxEDAOBgNVBAcTB0NoaWNhZ28xITAfBgNVBAoTGFRydXN0
d2F2ZSBIb2xkaW5ncywgSW5jLjE6MDgGA1UEAxMxVHJ1c3R3YXZlIEdsb2JhbCBF
Q0MgUDM4NCBDZXJ0aWZpY2F0aW9uIEF1dGhvcml0eTB2MBAGByqGSM49AgEGBSuB
BAAiA2IABGvaDXU1CDFHBa5FmVXxERMuSvgQMSOjfoPTfygIOiYaOs+Xgh+AtycJ
j9GOMMQKmw6sWASr9zZ9lCOkmwqKi6vr/TklZvFe/oyujUF5nQlgziip04pt89ZF
1PKYhDhloKNDMEEwDwYDVR0TAQH/BAUwAwEB/zAPBgNVHQ8BAf8EBQMDBwYAMB0G
A1UdDgQWBBRVqYSJ0sEyvRjLbKYHTsjnnb6CkDAKBggqhkjOPQQDAwNnADBkAjA3
AZKXRRJ+oPM+rRk6ct30UJMDEr5E0k9BpIycnR+j9sKS50gU/k6bpZFXrsY3crsC
MGclCrEMXu6pY5Jv5ZAL/mYiykf9ijH3g/56vxC+GCsej/YpHpRZ744hN8tRmKVu
Sw==
-----END CERTIFICATE-----
