Certificate:
    Data:
        Version: 3 (0x2)
        Serial Number:
            08:16:5f:8a:4c:a5:ec:00:c9:93:40:df:c4:c6:ae:23:b8:1c:5a:a4
        Signature Algorithm: sha256WithRSAEncryption
        Issuer: C = HK, ST = Hong Kong, L = Hong Kong, O = Hongkong Post, CN = Hongkong Post Root CA 3
        Validity
            Not Before: Jun  3 02:29:46 2017 GMT
            Not After : Jun  3 02:29:46 2042 GMT
        Subject: C = HK, ST = Hong Kong, L = Hong Kong, O = Hongkong Post, CN = Hongkong Post Root CA 3
        Subject Public Key Info:
            Public Key Algorithm: rsaEncryption
                RSA Public-Key: (4096 bit)
                Modulus:
                    00:b3:88:d7:ea:ce:0f:20:4e:be:e6:d6:03:6d:ee:
                    59:fc:c2:57:df:29:68:a1:83:0e:3e:68:c7:68:58:
                    9c:1c:60:4b:89:43:0c:b9:d4:15:b2:ee:c1:4e:75:
                    e9:b5:a7:ef:e5:e9:35:99:e4:cc:1c:e7:4b:5f:8d:
                    33:30:20:33:53:d9:a6:bb:d5:3e:13:8e:e9:1f:87:
                    49:ad:50:2d:50:ca:18:be:01:58:a2:13:70:96:bb:
                    89:88:56:80:5c:f8:bd:2c:3c:e1:4c:57:88:bb:d3:
                    b9:95:ef:cb:c7:f6:da:31:74:28:a6:e6:54:89:f5:
                    41:31:ca:e5:26:1a:cd:82:e0:70:da:3b:29:bb:d5:
                    03:f5:99:ba:55:f5:64:d1:60:0e:b3:89:49:b8:8a:
                    2f:05:d2:84:45:28:7c:8f:68:50:12:78:fc:0b:b5:
                    53:cb:c2:98:1c:84:a3:9e:b0:be:23:a4:da:dc:c8:
                    2b:1e:da:6e:45:1e:89:98:da:f9:00:2e:06:e9:0c:
                    3b:70:d5:50:25:88:99:cb:cd:73:60:f7:d5:ff:35:
                    67:c5:a1:bc:5e:ab:cd:4a:b8:45:eb:c8:68:1e:0d:
                    0d:14:46:12:e3:d2:64:62:8a:42:98:bc:b4:c6:08:
                    08:f8:fd:a8:4c:64:9c:76:01:bd:2f:a9:6c:33:0f:
                    d8:3f:28:b8:3c:69:01:42:86:7e:69:c1:c9:06:ca:
                    e5:7a:46:65:e9:c2:d6:50:41:2e:3f:b7:e4:ed:6c:
                    d7:bf:26:01:11:a2:16:29:4a:6b:34:06:90:ec:13:
                    d2:b6:fb:6a:76:d2:3c:ed:f0:d6:2d:dd:e1:15:ec:
                    a3:9b:2f:2c:c9:3e:2b:e4:69:3b:ff:72:25:b1:36:
                    86:5b:c7:7f:6b:8b:55:1b:4a:c5:20:61:3d:ae:cb:
                    50:e1:08:3a:be:b0:8f:63:41:53:30:08:59:3c:98:
                    1d:77:ba:63:91:7a:ca:10:50:60:bf:f0:d7:bc:95:
                    87:8f:97:c5:fe:97:6a:01:94:a3:7c:5b:85:1d:2a:
                    39:3a:d0:54:a1:d1:39:71:9d:fd:21:f9:b5:7b:f0:
                    e2:e0:02:8f:6e:96:24:25:2c:a0:1e:2c:a8:c4:89:
                    a7:ef:ed:99:06:2f:b6:0a:4c:4f:db:a2:cc:37:1a:
                    af:47:85:2d:8a:5f:c4:34:34:4c:00:fd:18:93:67:
                    13:d1:37:e6:48:b4:8b:06:c5:57:7b:19:86:0a:79:
                    cb:00:c9:52:af:42:ff:37:8f:e1:a3:1e:7a:3d:50:
                    ab:63:06:e7:15:b5:3f:b6:45:37:94:37:b1:7e:f2:
                    48:c3:7f:c5:75:fe:97:8d:45:8f:1a:a7:1a:72:28:
                    1a:40:0f
                Exponent: 65537 (0x10001)
        X509v3 extensions:
            X509v3 Basic Constraints: critical
                CA:TRUE
            X509v3 Key Usage: critical
                Certificate Sign, CRL Sign
            X509v3 Authority Key Identifier: 
                keyid:17:9D:CD:1E:8B:D6:39:2B:70:D3:5C:D4:A0:B8:1F:B0:00:FC:C5:61

            X509v3 Subject Key Identifier: 
                17:9D:CD:1E:8B:D6:39:2B:70:D3:5C:D4:A0:B8:1F:B0:00:FC:C5:61
    Signature Algorithm: sha256WithRSAEncryption
         56:d5:7b:6e:e6:22:01:d2:42:9b:18:d5:0e:d7:66:23:5c:e3:
         fe:a0:c7:92:d2:e9:94:ad:4b:a2:c6:ec:12:7c:74:d5:48:d2:
         59:14:99:c0:eb:b9:d1:eb:f4:48:30:5b:ad:a7:57:73:99:a9:
         d3:e5:b7:d1:2e:59:24:58:dc:68:2e:2e:62:d8:6a:e4:70:0b:
         2d:20:50:20:a4:32:95:d1:00:98:bb:d3:fd:f7:32:f2:49:ae:
         c6:7a:e0:47:be:6e:ce:cb:a3:72:3a:2d:69:5d:cb:c8:e8:45:
         39:d4:fa:42:c1:11:4c:77:5d:92:fb:6a:ff:58:44:e5:eb:81:
         9e:af:a0:99:ad:be:a9:01:66:cb:38:1d:3c:df:43:1f:f4:4d:
         6e:b4:ba:17:46:fc:7d:fd:87:81:79:6a:0d:33:0f:fa:2f:f8:
         14:b9:80:b3:5d:4d:aa:97:e1:f9:e4:18:c5:f8:d5:38:8c:26:
         3c:fd:f2:28:e2:ee:5a:49:88:2c:df:79:3d:8e:9e:90:3c:bd:
         41:4a:3a:dd:5b:f6:9a:b4:ce:3f:25:30:7f:32:7d:a2:03:94:
         d0:dc:7a:a1:52:de:6e:93:8d:18:26:fd:55:ac:bd:8f:9b:d2:
         cf:af:e7:86:2c:cb:1f:09:6f:a3:6f:a9:84:d4:73:bf:4d:a1:
         74:1b:4e:23:60:f2:cc:0e:aa:7f:a4:9c:4c:25:a8:b2:66:3b:
         38:ff:d9:94:30:f6:72:84:be:68:55:10:0f:c6:73:2c:16:69:
         93:07:fe:b1:45:ed:bb:a2:55:6a:b0:da:b5:4a:02:25:27:85:
         d7:b7:b7:86:44:16:89:6c:80:2b:3e:97:a9:9c:d5:7e:55:4c:
         c6:de:45:10:1c:ea:e9:3b:9f:03:53:ee:ee:7a:01:02:16:78:
         d4:e8:c2:be:46:76:88:13:3f:22:bb:48:12:1d:52:00:b4:02:
         7e:21:1a:1e:9c:25:f4:f3:3d:5e:1e:d2:1c:f9:b3:2d:b6:f7:
         37:5c:c6:cb:21:4e:b0:f7:99:47:18:85:c1:2b:ba:55:ae:06:
         ea:d0:07:b2:dc:ab:d0:82:96:75:ce:d2:50:fe:99:e7:cf:2f:
         9f:e7:76:d1:61:2a:fb:21:bb:31:d0:aa:9f:47:a4:b2:22:ca:
         16:3a:50:57:c4:5b:43:67:c5:65:62:03:49:01:eb:43:d9:d8:
         f8:9e:ad:cf:b1:63:0e:45:f4:a0:5a:2c:9b:2d:c5:a6:c0:ad:
         a8:47:f4:27:4c:38:0d:2e:1b:49:3b:52:f4:e8:88:83:2b:54:
         28:d4:f2:35:52:b4:32:83:62:69:64:0c:91:9c:9f:97:ea:74:
         16:fd:1f:11:06:9a:9b:f4
-----BEGIN CERTIFICATE-----
MIIFzzCCA7egAwIBAgIUCBZfikyl7ADJk0DfxMauI7gcWqQwDQYJKoZIhvcNAQEL
BQAwbzELMAkGA1UEBhMCSEsxEjAQBgNVBAgTCUhvbmcgS29uZzESMBAGA1UEBxMJ
SG9uZyBLb25nMRYwFAYDVQQKEw1Ib25na29uZyBQb3N0MSAwHgYDVQQDExdIb25n
a29uZyBQb3N0IFJvb3QgQ0EgMzAeFw0xNzA2MDMwMjI5NDZaFw00MjA2MDMwMjI5
NDZaMG8xCzAJBgNVBAYTAkhLMRIwEAYDVQQIEwlIb25nIEtvbmcxEjAQBgNVBAcT
CUhvbmcgS29uZzEWMBQGA1UEChMNSG9uZ2tvbmcgUG9zdDEgMB4GA1UEAxMXSG9u
Z2tvbmcgUG9zdCBSb290IENBIDMwggIiMA0GCSqGSIb3DQEBAQUAA4ICDwAwggIK
AoICAQCziNfqzg8gTr7m1gNt7ln8wlffKWihgw4+aMdoWJwcYEuJQwy51BWy7sFO
dem1p+/l6TWZ5Mwc50tfjTMwIDNT2aa71T4Tjukfh0mtUC1Qyhi+AViiE3CWu4mI
VoBc+L0sPOFMV4i707mV78vH9toxdCim5lSJ9UExyuUmGs2C4HDaOym71QP1mbpV
9WTRYA6ziUm4ii8F0oRFKHyPaFASePwLtVPLwpgchKOesL4jpNrcyCse2m5FHomY
2vkALgbpDDtw1VAliJnLzXNg99X/NWfFobxeq81KuEXryGgeDQ0URhLj0mRiikKY
vLTGCAj4/ahMZJx2Ab0vqWwzD9g/KLg8aQFChn5pwckGyuV6RmXpwtZQQS4/t+Tt
bNe/JgERohYpSms0BpDsE9K2+2p20jzt8NYt3eEV7KObLyzJPivkaTv/ciWxNoZb
x39ri1UbSsUgYT2uy1DhCDq+sI9jQVMwCFk8mB13umOResoQUGC/8Ne8lYePl8X+
l2oBlKN8W4UdKjk60FSh0Tlxnf0h+bV78OLgAo9uliQlLKAeLKjEiafv7ZkGL7YK
TE/bosw3Gq9HhS2KX8Q0NEwA/RiTZxPRN+ZItIsGxVd7GYYKecsAyVKvQv83j+Gj
Hno9UKtjBucVtT+2RTeUN7F+8kjDf8V1/peNRY8apxpyKBpADwIDAQABo2MwYTAP
BgNVHRMBAf8EBTADAQH/MA4GA1UdDwEB/wQEAwIBBjAfBgNVHSMEGDAWgBQXnc0e
i9Y5K3DTXNSguB+wAPzFYTAdBgNVHQ4EFgQUF53NHovWOStw01zUoLgfsAD8xWEw
DQYJKoZIhvcNAQELBQADggIBAFbVe27mIgHSQpsY1Q7XZiNc4/6gx5LS6ZStS6LG
7BJ8dNVI0lkUmcDrudHr9EgwW62nV3OZqdPlt9EuWSRY3GguLmLYauRwCy0gUCCk
MpXRAJi70/33MvJJrsZ64Ee+bs7Lo3I6LWldy8joRTnU+kLBEUx3XZL7av9YROXr
gZ6voJmtvqkBZss4HTzfQx/0TW60uhdG/H39h4F5ag0zD/ov+BS5gLNdTaqX4fnk
GMX41TiMJjz98iji7lpJiCzfeT2OnpA8vUFKOt1b9pq0zj8lMH8yfaIDlNDceqFS
3m6TjRgm/VWsvY+b0s+v54Ysyx8Jb6NvqYTUc79NoXQbTiNg8swOqn+knEwlqLJm
Ozj/2ZQw9nKEvmhVEA/GcywWaZMH/rFF7buiVWqw2rVKAiUnhde3t4ZEFolsgCs+
l6mc1X5VTMbeRRAc6uk7nwNT7u56AQIWeNTowr5GdogTPyK7SBIdUgC0An4hGh6c
JfTzPV4e0hz5sy229zdcxsshTrD3mUcYhcErulWuBurQB7Lcq9CClnXO0lD+mefP
L5/ndtFhKvshuzHQqp9HpLIiyhY6UFfEW0NnxWViA0kB60PZ2Pierc+xYw5F9KBa
LJstxabArahH9CdMOA0uG0k7UvToiIMrVCjU8jVStDKDYmlkDJGcn5fqdBb9HxEG
mpv0
-----END CERTIFICATE-----
