Certificate:
    Data:
        Version: 3 (0x2)
        Serial Number:
            11:00:34:b6:4e:c6:36:2d:36
        Signature Algorithm: sha256WithRSAEncryption
        Issuer: C = RO, O = CERTSIGN SA, OU = certSIGN ROOT CA G2
        Validity
            Not Before: Feb  6 09:27:35 2017 GMT
            Not After : Feb  6 09:27:35 2042 GMT
        Subject: C = RO, O = CERTSIGN SA, OU = certSIGN ROOT CA G2
        Subject Public Key Info:
            Public Key Algorithm: rsaEncryption
                RSA Public-Key: (4096 bit)
                Modulus:
                    00:c0:c5:75:19:91:7d:44:74:74:87:fe:0e:3b:96:
                    dc:d8:01:16:cc:ee:63:91:e7:0b:6f:ce:3b:0a:69:
                    1a:7c:c2:e3:af:82:8e:86:d7:5e:8f:57:eb:d3:21:
                    59:fd:39:37:42:30:be:50:ea:b6:0f:a9:88:d8:2e:
                    2d:69:21:e7:d1:37:18:4e:7d:91:d5:16:5f:6b:5b:
                    00:c2:39:43:0d:36:85:52:b9:53:65:0f:1d:42:e5:
                    8f:cf:05:d3:ee:dc:0c:1a:d9:b8:8b:78:22:67:e4:
                    69:b0:68:c5:3c:e4:6c:5a:46:e7:cd:c7:fa:ef:c4:
                    ec:4b:bd:6a:a4:ac:fd:cc:28:51:ef:92:b4:29:ab:
                    ab:35:9a:4c:e4:c4:08:c6:26:cc:f8:69:9f:e4:9c:
                    f0:29:d3:5c:f9:c6:16:25:9e:23:c3:20:c1:3d:0f:
                    3f:38:40:b0:fe:82:44:38:aa:5a:1a:8a:6b:63:58:
                    38:b4:15:d3:b6:11:69:7b:1e:54:ee:8c:1a:22:ac:
                    72:97:3f:23:59:9b:c9:22:84:c1:07:4f:cc:7f:e2:
                    57:ca:12:70:bb:a6:65:f3:69:75:63:bd:95:fb:1b:
                    97:cd:e4:a8:af:f6:d1:4e:a8:d9:8a:71:24:cd:36:
                    3d:bc:96:c4:f1:6c:a9:ae:e5:cf:0d:6e:28:0d:b0:
                    0e:b5:ca:51:7b:78:14:c3:20:2f:7f:fb:14:55:e1:
                    11:99:fd:d5:0a:a1:9e:02:e3:62:5f:eb:35:4b:2c:
                    b8:72:e8:3e:3d:4f:ac:2c:bb:2e:86:e2:a3:76:8f:
                    e5:93:2a:cf:a5:ab:c8:5c:8d:4b:06:ff:12:46:ac:
                    78:cb:14:07:35:e0:a9:df:8b:e9:af:15:4f:16:89:
                    5b:bd:f6:8d:c6:59:ae:88:85:0e:c1:89:eb:1f:67:
                    c5:45:8e:ff:6d:37:36:2b:78:66:83:91:51:2b:3d:
                    ff:51:77:76:62:a1:ec:67:3e:3e:81:83:e0:56:a9:
                    50:1f:1f:7a:99:ab:63:bf:84:17:77:f1:0d:3b:df:
                    f7:9c:61:b3:35:98:8a:3a:b2:ec:3c:1a:37:3f:7e:
                    8f:92:cf:d9:12:14:64:da:10:02:15:41:ff:4f:c4:
                    eb:1c:a3:c9:fa:99:f7:46:e9:e1:18:d9:b1:b8:32:
                    2d:cb:14:0c:50:d8:83:65:83:ee:b9:5c:cf:cb:05:
                    5a:4c:fa:19:97:6b:d6:5d:13:d3:c2:5c:54:bc:32:
                    73:a0:78:f5:f1:6d:1e:cb:9f:a5:a6:9f:22:dc:d1:
                    51:9e:82:79:64:60:29:13:3e:a3:fd:4f:72:6a:ab:
                    e2:d4:e5:b8:24:55:2c:44:4b:8a:88:44:9c:ca:84:
                    d3:2a:3b
                Exponent: 65537 (0x10001)
        X509v3 extensions:
            X509v3 Basic Constraints: critical
                CA:TRUE
            X509v3 Key Usage: critical
                Certificate Sign, CRL Sign
            X509v3 Subject Key Identifier: 
                82:21:2D:66:C6:D7:A0:E0:15:EB:CE:4C:09:77:C4:60:9E:54:6E:03
    Signature Algorithm: sha256WithRSAEncryption
         60:de:1a:b8:e7:f2:60:82:d5:03:33:81:cb:06:8a:f1:22:49:
         e9:e8:ea:91:7f:c6:33:5e:68:19:03:86:3b:43:01:cf:07:70:
         e4:08:1e:65:85:91:e6:11:22:b7:f5:02:23:8e:ae:b9:1e:7d:
         1f:7e:6c:e6:bd:25:d5:95:1a:f2:05:a6:af:85:02:6f:ae:f8:
         d6:31:ff:25:c9:4a:c8:c7:8a:a9:d9:9f:4b:49:9b:11:57:99:
         92:43:11:de:b6:33:a4:cc:d7:8d:64:7d:d4:cd:3c:28:2c:b4:
         9a:96:ea:4d:f5:c4:44:c4:25:aa:20:80:d8:29:55:f7:e0:41:
         fc:06:26:ff:b9:36:f5:43:14:03:66:78:e1:11:b1:da:20:5f:
         46:00:78:00:21:a5:1e:00:28:61:78:6f:a8:01:01:8f:9d:34:
         9a:ff:f4:38:90:fb:b8:d1:b3:72:06:c9:71:e6:81:c5:79:ed:
         0b:a6:79:f2:13:0b:9c:f7:5d:0e:7b:24:93:b4:48:db:86:5f:
         de:50:86:78:e7:40:e6:31:a8:90:76:70:61:af:9c:37:2c:11:
         b5:82:b7:aa:ae:24:34:5b:72:0c:69:0d:cd:59:9f:f6:71:af:
         9c:0b:d1:0a:38:f9:06:22:83:53:25:0c:fc:51:c4:e6:be:e2:
         39:95:0b:24:ad:af:d1:95:e4:96:d7:74:64:6b:71:4e:02:3c:
         aa:85:f3:20:a3:43:39:76:5b:6c:50:fe:9a:9c:14:1e:65:14:
         8a:15:bd:a3:82:45:5a:49:56:6a:d2:9c:b1:63:32:e5:61:e0:
         53:22:0e:a7:0a:49:ea:cb:7e:1f:a8:e2:62:80:f6:10:45:52:
         98:06:18:de:a5:cd:2f:7f:aa:d4:e9:3e:08:72:ec:23:03:02:
         3c:a6:aa:d8:bc:67:74:3d:14:17:fb:54:4b:17:e3:d3:79:3d:
         6d:6b:49:c9:28:0e:2e:74:50:bf:0c:d9:46:3a:10:86:c9:a7:
         3f:e9:a0:ec:7f:eb:a5:77:58:69:71:e6:83:0a:37:f2:86:49:
         6a:be:79:08:90:f6:02:16:64:3e:e5:da:4c:7e:0c:34:c9:f9:
         5f:b6:b3:28:51:a7:a7:2b:aa:49:fa:8d:65:29:4e:e3:6b:13:
         a7:94:a3:2d:51:6d:78:0c:44:cb:df:de:08:6f:ce:a3:64:ab:
         d3:95:84:d4:b9:52:54:72:7b:96:25:cc:bc:69:e3:48:6e:0d:
         d0:c7:9d:27:9a:aa:f8:13:92:dd:1e:df:63:9f:35:a9:16:36:
         ec:8c:b8:83:f4:3d:89:8f:cd:b4:17:5e:d7:b3:17:41:10:5d:
         27:73:60:85:57:49:22:07
-----BEGIN CERTIFICATE-----
MIIFRzCCAy+gAwIBAgIJEQA0tk7GNi02MA0GCSqGSIb3DQEBCwUAMEExCzAJBgNV
BAYTAlJPMRQwEgYDVQQKEwtDRVJUU0lHTiBTQTEcMBoGA1UECxMTY2VydFNJR04g
Uk9PVCBDQSBHMjAeFw0xNzAyMDYwOTI3MzVaFw00MjAyMDYwOTI3MzVaMEExCzAJ
BgNVBAYTAlJPMRQwEgYDVQQKEwtDRVJUU0lHTiBTQTEcMBoGA1UECxMTY2VydFNJ
R04gUk9PVCBDQSBHMjCCAiIwDQYJKoZIhvcNAQEBBQADggIPADCCAgoCggIBAMDF
dRmRfUR0dIf+DjuW3NgBFszuY5HnC2/OOwppGnzC46+CjobXXo9X69MhWf05N0Iw
vlDqtg+piNguLWkh59E3GE59kdUWX2tbAMI5Qw02hVK5U2UPHULlj88F0+7cDBrZ
uIt4ImfkabBoxTzkbFpG583H+u/E7Eu9aqSs/cwoUe+StCmrqzWaTOTECMYmzPhp
n+Sc8CnTXPnGFiWeI8MgwT0PPzhAsP6CRDiqWhqKa2NYOLQV07YRaXseVO6MGiKs
cpc/I1mbySKEwQdPzH/iV8oScLumZfNpdWO9lfsbl83kqK/20U6o2YpxJM02PbyW
xPFsqa7lzw1uKA2wDrXKUXt4FMMgL3/7FFXhEZn91QqhngLjYl/rNUssuHLoPj1P
rCy7Lobio3aP5ZMqz6WryFyNSwb/EkaseMsUBzXgqd+L6a8VTxaJW732jcZZroiF
DsGJ6x9nxUWO/203Nit4ZoORUSs9/1F3dmKh7Gc+PoGD4FapUB8fepmrY7+EF3fx
DTvf95xhszWYijqy7DwaNz9+j5LP2RIUZNoQAhVB/0/E6xyjyfqZ90bp4RjZsbgy
LcsUDFDYg2WD7rlcz8sFWkz6GZdr1l0T08JcVLwyc6B49fFtHsufpaafItzRUZ6C
eWRgKRM+o/1Pcmqr4tTluCRVLERLiohEnMqE0yo7AgMBAAGjQjBAMA8GA1UdEwEB
/wQFMAMBAf8wDgYDVR0PAQH/BAQDAgEGMB0GA1UdDgQWBBSCIS1mxteg4BXrzkwJ
d8RgnlRuAzANBgkqhkiG9w0BAQsFAAOCAgEAYN4auOfyYILVAzOBywaK8SJJ6ejq
kX/GM15oGQOGO0MBzwdw5AgeZYWR5hEit/UCI46uuR59H35s5r0l1ZUa8gWmr4UC
b6741jH/JclKyMeKqdmfS0mbEVeZkkMR3rYzpMzXjWR91M08KCy0mpbqTfXERMQl
qiCA2ClV9+BB/AYm/7k29UMUA2Z44RGx2iBfRgB4ACGlHgAoYXhvqAEBj500mv/0
OJD7uNGzcgbJceaBxXntC6Z58hMLnPddDnskk7RI24Zf3lCGeOdA5jGokHZwYa+c
NywRtYK3qq4kNFtyDGkNzVmf9nGvnAvRCjj5BiKDUyUM/FHE5r7iOZULJK2v0ZXk
ltd0ZGtxTgI8qoXzIKNDOXZbbFD+mpwUHmUUihW9o4JFWklWatKcsWMy5WHgUyIO
pwpJ6st+H6jiYoD2EEVSmAYY3qXNL3+q1Ok+CHLsIwMCPKaq2LxndD0UF/tUSxfj
03k9bWtJySgOLnRQvwzZRjoQhsmnP+mg7H/rpXdYaXHmgwo38oZJar55CJD2AhZk
PuXaTH4MNMn5X7azKFGnpyuqSfqNZSlO42sTp5SjLVFteAxEy9/eCG/Oo2Sr05WE
1LlSVHJ7liXMvGnjSG4N0MedJ5qq+BOS3R7fY581qRY27Iy4g/Q9iY/NtBde17MX
QRBdJ3NghVdJIgc=
-----END CERTIFICATE-----
