Certificate:
    Data:
        Version: 3 (0x2)
        Serial Number: 946069240 (0x3863def8)
        Signature Algorithm: sha1WithRSAEncryption
        Issuer: O = Entrust.net, OU = www.entrust.net/CPS_2048 incorp. by ref. (limits liab.), OU = (c) 1999 Entrust.net Limited, CN = Entrust.net Certification Authority (2048)
        Validity
            Not Before: Dec 24 17:50:51 1999 GMT
            Not After : Jul 24 14:15:12 2029 GMT
        Subject: O = Entrust.net, OU = www.entrust.net/CPS_2048 incorp. by ref. (limits liab.), OU = (c) 1999 Entrust.net Limited, CN = Entrust.net Certification Authority (2048)
        Subject Public Key Info:
            Public Key Algorithm: rsaEncryption
                RSA Public-Key: (2048 bit)
                Modulus:
                    00:ad:4d:4b:a9:12:86:b2:ea:a3:20:07:15:16:64:
                    2a:2b:4b:d1:bf:0b:4a:4d:8e:ed:80:76:a5:67:b7:
                    78:40:c0:73:42:c8:68:c0:db:53:2b:dd:5e:b8:76:
                    98:35:93:8b:1a:9d:7c:13:3a:0e:1f:5b:b7:1e:cf:
                    e5:24:14:1e:b1:81:a9:8d:7d:b8:cc:6b:4b:03:f1:
                    02:0c:dc:ab:a5:40:24:00:7f:74:94:a1:9d:08:29:
                    b3:88:0b:f5:87:77:9d:55:cd:e4:c3:7e:d7:6a:64:
                    ab:85:14:86:95:5b:97:32:50:6f:3d:c8:ba:66:0c:
                    e3:fc:bd:b8:49:c1:76:89:49:19:fd:c0:a8:bd:89:
                    a3:67:2f:c6:9f:bc:71:19:60:b8:2d:e9:2c:c9:90:
                    76:66:7b:94:e2:af:78:d6:65:53:5d:3c:d6:9c:b2:
                    cf:29:03:f9:2f:a4:50:b2:d4:48:ce:05:32:55:8a:
                    fd:b2:64:4c:0e:e4:98:07:75:db:7f:df:b9:08:55:
                    60:85:30:29:f9:7b:48:a4:69:86:e3:35:3f:1e:86:
                    5d:7a:7a:15:bd:ef:00:8e:15:22:54:17:00:90:26:
                    93:bc:0e:49:68:91:bf:f8:47:d3:9d:95:42:c1:0e:
                    4d:df:6f:26:cf:c3:18:21:62:66:43:70:d6:d5:c0:
                    07:e1
                Exponent: 65537 (0x10001)
        X509v3 extensions:
            X509v3 Key Usage: critical
                Certificate Sign, CRL Sign
            X509v3 Basic Constraints: critical
                CA:TRUE
            X509v3 Subject Key Identifier: 
                55:E4:81:D1:11:80:BE:D8:89:B9:08:A3:31:F9:A1:24:09:16:B9:70
    Signature Algorithm: sha1WithRSAEncryption
         3b:9b:8f:56:9b:30:e7:53:99:7c:7a:79:a7:4d:97:d7:19:95:
         90:fb:06:1f:ca:33:7c:46:63:8f:96:66:24:fa:40:1b:21:27:
         ca:e6:72:73:f2:4f:fe:31:99:fd:c8:0c:4c:68:53:c6:80:82:
         13:98:fa:b6:ad:da:5d:3d:f1:ce:6e:f6:15:11:94:82:0c:ee:
         3f:95:af:11:ab:0f:d7:2f:de:1f:03:8f:57:2c:1e:c9:bb:9a:
         1a:44:95:eb:18:4f:a6:1f:cd:7d:57:10:2f:9b:04:09:5a:84:
         b5:6e:d8:1d:3a:e1:d6:9e:d1:6c:79:5e:79:1c:14:c5:e3:d0:
         4c:93:3b:65:3c:ed:df:3d:be:a6:e5:95:1a:c3:b5:19:c3:bd:
         5e:5b:bb:ff:23:ef:68:19:cb:12:93:27:5c:03:2d:6f:30:d0:
         1e:b6:1a:ac:de:5a:f7:d1:aa:a8:27:a6:fe:79:81:c4:79:99:
         33:57:ba:12:b0:a9:e0:42:6c:93:ca:56:de:fe:6d:84:0b:08:
         8b:7e:8d:ea:d7:98:21:c6:f3:e7:3c:79:2f:5e:9c:d1:4c:15:
         8d:e1:ec:22:37:cc:9a:43:0b:97:dc:80:90:8d:b3:67:9b:6f:
         48:08:15:56:cf:bf:f1:2b:7c:5e:9a:76:e9:59:90:c5:7c:83:
         35:11:65:51
-----BEGIN CERTIFICATE-----
MIIEKjCCAxKgAwIBAgIEOGPe+DANBgkqhkiG9w0BAQUFADCBtDEUMBIGA1UEChML
RW50cnVzdC5uZXQxQDA+BgNVBAsUN3d3dy5lbnRydXN0Lm5ldC9DUFNfMjA0OCBp
bmNvcnAuIGJ5IHJlZi4gKGxpbWl0cyBsaWFiLikxJTAjBgNVBAsTHChjKSAxOTk5
IEVudHJ1c3QubmV0IExpbWl0ZWQxMzAxBgNVBAMTKkVudHJ1c3QubmV0IENlcnRp
ZmljYXRpb24gQXV0aG9yaXR5ICgyMDQ4KTAeFw05OTEyMjQxNzUwNTFaFw0yOTA3
MjQxNDE1MTJaMIG0MRQwEgYDVQQKEwtFbnRydXN0Lm5ldDFAMD4GA1UECxQ3d3d3
LmVudHJ1c3QubmV0L0NQU18yMDQ4IGluY29ycC4gYnkgcmVmLiAobGltaXRzIGxp
YWIuKTElMCMGA1UECxMcKGMpIDE5OTkgRW50cnVzdC5uZXQgTGltaXRlZDEzMDEG
A1UEAxMqRW50cnVzdC5uZXQgQ2VydGlmaWNhdGlvbiBBdXRob3JpdHkgKDIwNDgp
MIIBIjANBgkqhkiG9w0BAQEFAAOCAQ8AMIIBCgKCAQEArU1LqRKGsuqjIAcVFmQq
K0vRvwtKTY7tgHalZ7d4QMBzQshowNtTK91euHaYNZOLGp18EzoOH1u3Hs/lJBQe
sYGpjX24zGtLA/ECDNyrpUAkAH90lKGdCCmziAv1h3edVc3kw37XamSrhRSGlVuX
MlBvPci6Zgzj/L24ScF2iUkZ/cCovYmjZy/Gn7xxGWC4LeksyZB2ZnuU4q941mVT
XTzWnLLPKQP5L6RQstRIzgUyVYr9smRMDuSYB3Xbf9+5CFVghTAp+XtIpGmG4zU/
HoZdenoVve8AjhUiVBcAkCaTvA5JaJG/+EfTnZVCwQ5N328mz8MYIWJmQ3DW1cAH
4QIDAQABo0IwQDAOBgNVHQ8BAf8EBAMCAQYwDwYDVR0TAQH/BAUwAwEB/zAdBgNV
HQ4EFgQUVeSB0RGAvtiJuQijMfmhJAkWuXAwDQYJKoZIhvcNAQEFBQADggEBADub
j1abMOdTmXx6eadNl9cZlZD7Bh/KM3xGY4+WZiT6QBshJ8rmcnPyT/4xmf3IDExo
U8aAghOY+rat2l098c5u9hURlIIM7j+VrxGrD9cv3h8Dj1csHsm7mhpElesYT6Yf
zX1XEC+bBAlahLVu2B064dae0Wx5XnkcFMXj0EyTO2U87d89vqbllRrDtRnDvV5b
u/8j72gZyxKTJ1wDLW8w0B62GqzeWvfRqqgnpv55gcR5mTNXuhKwqeBCbJPKVt7+
bYQLCIt+jerXmCHG8+c8eS9enNFMFY3h7CI3zJpDC5fcgJCNs2ebb0gIFVbPv/Er
fF6adulZkMV8gzURZVE=
-----END CERTIFICATE-----
