Certificate:
    Data:
        Version: 3 (0x2)
        Serial Number:
            6e:47:a9:c8:8b:94:b6:e8:bb:3b:2a:d8:a2:b2:c1:99
        Signature Algorithm: ecdsa-with-SHA384
        Issuer: C = US, O = Google Trust Services LLC, CN = GTS Root R4
        Validity
            Not Before: Jun 22 00:00:00 2016 GMT
            Not After : Jun 22 00:00:00 2036 GMT
        Subject: C = US, O = Google Trust Services LLC, CN = GTS Root R4
        Subject Public Key Info:
            Public Key Algorithm: id-ecPublicKey
                Public-Key: (384 bit)
                pub:
                    04:f3:74:73:a7:68:8b:60:ae:43:b8:35:c5:81:30:
                    7b:4b:49:9d:fb:c1:61:ce:e6:de:46:bd:6b:d5:61:
                    18:35:ae:40:dd:73:f7:89:91:30:5a:eb:3c:ee:85:
                    7c:a2:40:76:3b:a9:c6:b8:47:d8:2a:e7:92:91:6a:
                    73:e9:b1:72:39:9f:29:9f:a2:98:d3:5f:5e:58:86:
                    65:0f:a1:84:65:06:d1:dc:8b:c9:c7:73:c8:8c:6a:
                    2f:e5:c4:ab:d1:1d:8a
                ASN1 OID: secp384r1
                NIST CURVE: P-384
        X509v3 extensions:
            X509v3 Key Usage: critical
                Certificate Sign, CRL Sign
            X509v3 Basic Constraints: critical
                CA:TRUE
            X509v3 Subject Key Identifier: 
                80:4C:D6:EB:74:FF:49:36:A3:D5:D8:FC:B5:3E:C5:6A:F0:94:1D:8C
    Signature Algorithm: ecdsa-with-SHA384
         30:64:02:30:6a:50:52:74:08:c4:70:dc:9e:50:74:21:e8:8d:
         7a:21:c3:4f:96:6e:15:d1:22:35:61:2d:fa:08:37:ee:19:6d:
         ad:db:b2:cc:7d:07:34:f5:60:19:2c:b5:34:d9:6f:20:02:30:
         03:71:b1:ba:a3:60:0b:86:ed:9a:08:6a:95:68:9f:e2:b3:e1:
         93:64:7c:5e:93:a6:df:79:2d:8d:85:e3:94:cf:23:5d:71:cc:
         f2:b0:4d:d6:fe:99:c8:94:a9:75:a2:e3
-----BEGIN CERTIFICATE-----
MIICCjCCAZGgAwIBAgIQbkepyIuUtui7OyrYorLBmTAKBggqhkjOPQQDAzBHMQsw
CQYDVQQGEwJVUzEiMCAGA1UEChMZR29vZ2xlIFRydXN0IFNlcnZpY2VzIExMQzEU
MBIGA1UEAxMLR1RTIFJvb3QgUjQwHhcNMTYwNjIyMDAwMDAwWhcNMzYwNjIyMDAw
MDAwWjBHMQswCQYDVQQGEwJVUzEiMCAGA1UEChMZR29vZ2xlIFRydXN0IFNlcnZp
Y2VzIExMQzEUMBIGA1UEAxMLR1RTIFJvb3QgUjQwdjAQBgcqhkjOPQIBBgUrgQQA
IgNiAATzdHOnaItgrkO4NcWBMHtLSZ37wWHO5t5GvWvVYRg1rkDdc/eJkTBa6zzu
hXyiQHY7qca4R9gq55KRanPpsXI5nymfopjTX15YhmUPoYRlBtHci8nHc8iMai/l
xKvRHYqjQjBAMA4GA1UdDwEB/wQEAwIBBjAPBgNVHRMBAf8EBTADAQH/MB0GA1Ud
DgQWBBSATNbrdP9JNqPV2Py1PsVq8JQdjDAKBggqhkjOPQQDAwNnADBkAjBqUFJ0
CMRw3J5QdCHojXohw0+WbhXRIjVhLfoIN+4Zba3bssx9BzT1YBkstTTZbyACMANx
sbqjYAuG7ZoIapVon+Kz4ZNkfF6Tpt95LY2F45TPI11xzPKwTdb+mciUqXWi4w==
-----END CERTIFICATE-----
