Certificate:
    Data:
        Version: 3 (0x2)
        Serial Number: 29 (0x1d)
        Signature Algorithm: sha1WithRSAEncryption
        Issuer: C = FI, O = Sonera, CN = Sonera Class2 CA
        Validity
            Not Before: Apr  6 07:29:40 2001 GMT
            Not After : Apr  6 07:29:40 2021 GMT
        Subject: C = FI, O = Sonera, CN = Sonera Class2 CA
        Subject Public Key Info:
            Public Key Algorithm: rsaEncryption
                RSA Public-Key: (2048 bit)
                Modulus:
                    00:90:17:4a:35:9d:ca:f0:0d:96:c7:44:fa:16:37:
                    fc:48:bd:bd:7f:80:2d:35:3b:e1:6f:a8:67:a9:bf:
                    03:1c:4d:8c:6f:32:47:d5:41:68:a4:13:04:c1:35:
                    0c:9a:84:43:fc:5c:1d:ff:89:b3:e8:17:18:cd:91:
                    5f:fb:89:e3:ea:bf:4e:5d:7c:1b:26:d3:75:79:ed:
                    e6:84:e3:57:e5:ad:29:c4:f4:3a:28:e7:a5:7b:84:
                    36:69:b3:fd:5e:76:bd:a3:2d:99:d3:90:4e:23:28:
                    7d:18:63:f1:54:3b:26:9d:76:5b:97:42:b2:ff:ae:
                    f0:4e:ec:dd:39:95:4e:83:06:7f:e7:49:40:c8:c5:
                    01:b2:54:5a:66:1d:3d:fc:f9:e9:3c:0a:9e:81:b8:
                    70:f0:01:8b:e4:23:54:7c:c8:ae:f8:90:1e:00:96:
                    72:d4:54:cf:61:23:bc:ea:fb:9d:02:95:d1:b6:b9:
                    71:3a:69:08:3f:0f:b4:e1:42:c7:88:f5:3f:98:a8:
                    a7:ba:1c:e0:71:71:ef:58:57:81:50:7a:5c:6b:74:
                    46:0e:83:03:98:c3:8e:a8:6e:f2:76:32:6e:27:83:
                    c2:73:f3:dc:18:e8:b4:93:ea:75:44:6b:04:60:20:
                    71:57:87:9d:f3:be:a0:90:23:3d:8a:24:e1:da:21:
                    db:c3
                Exponent: 65537 (0x10001)
        X509v3 extensions:
            X509v3 Basic Constraints: critical
                CA:TRUE
            X509v3 Subject Key Identifier: 
                4A:A0:AA:58:84:D3:5E:3C
            X509v3 Key Usage: 
                Certificate Sign, CRL Sign
    Signature Algorithm: sha1WithRSAEncryption
         5a:ce:87:f9:16:72:15:57:4b:1d:d9:9b:e7:a2:26:30:ec:93:
         67:df:d6:2d:d2:34:af:f7:38:a5:ce:ab:16:b9:ab:2f:7c:35:
         cb:ac:d0:0f:b4:4c:2b:fc:80:ef:6b:8c:91:5f:36:76:f7:db:
         b3:1b:19:ea:f4:b2:11:fd:61:71:44:bf:28:b3:3a:1d:bf:b3:
         43:e8:9f:bf:dc:31:08:71:b0:9d:8d:d6:34:47:32:90:c6:65:
         24:f7:a0:4a:7c:04:73:8f:39:6f:17:8c:72:b5:bd:4b:c8:7a:
         f8:7b:83:c3:28:4e:9c:09:ea:67:3f:b2:67:04:1b:c3:14:da:
         f8:e7:49:24:91:d0:1d:6a:fa:61:39:ef:6b:e7:21:75:06:07:
         d8:12:b4:21:20:70:42:71:81:da:3c:9a:36:be:a6:5b:0d:6a:
         6c:9a:1f:91:7b:f9:f9:ef:42:ba:4e:4e:9e:cc:0c:8d:94:dc:
         d9:45:9c:5e:ec:42:50:63:ae:f4:5d:c4:b1:12:dc:ca:3b:a8:
         2e:9d:14:5a:05:75:b7:ec:d7:63:e2:ba:35:b6:04:08:91:e8:
         da:9d:9c:f6:66:b5:18:ac:0a:a6:54:26:34:33:d2:1b:c1:d4:
         7f:1a:3a:8e:0b:aa:32:6e:db:fc:4f:25:9f:d9:32:c7:96:5a:
         70:ac:df:4c
-----BEGIN CERTIFICATE-----
MIIDIDCCAgigAwIBAgIBHTANBgkqhkiG9w0BAQUFADA5MQswCQYDVQQGEwJGSTEP
MA0GA1UEChMGU29uZXJhMRkwFwYDVQQDExBTb25lcmEgQ2xhc3MyIENBMB4XDTAx
MDQwNjA3Mjk0MFoXDTIxMDQwNjA3Mjk0MFowOTELMAkGA1UEBhMCRkkxDzANBgNV
BAoTBlNvbmVyYTEZMBcGA1UEAxMQU29uZXJhIENsYXNzMiBDQTCCASIwDQYJKoZI
hvcNAQEBBQADggEPADCCAQoCggEBAJAXSjWdyvANlsdE+hY3/Ei9vX+ALTU74W+o
Z6m/AxxNjG8yR9VBaKQTBME1DJqEQ/xcHf+Js+gXGM2RX/uJ4+q/Tl18GybTdXnt
5oTjV+WtKcT0OijnpXuENmmz/V52vaMtmdOQTiMofRhj8VQ7Jp12W5dCsv+u8E7s
3TmVToMGf+dJQMjFAbJUWmYdPfz56TwKnoG4cPABi+QjVHzIrviQHgCWctRUz2Ej
vOr7nQKV0ba5cTppCD8PtOFCx4j1P5iop7oc4HFx71hXgVB6XGt0Rg6DA5jDjqhu
8nYybieDwnPz3BjotJPqdURrBGAgcVeHnfO+oJAjPYok4doh28MCAwEAAaMzMDEw
DwYDVR0TAQH/BAUwAwEB/zARBgNVHQ4ECgQISqCqWITTXjwwCwYDVR0PBAQDAgEG
MA0GCSqGSIb3DQEBBQUAA4IBAQBazof5FnIVV0sd2ZvnoiYw7JNn39Yt0jSv9zil
zqsWuasvfDXLrNAPtEwr/IDva4yRXzZ299uzGxnq9LIR/WFxRL8oszodv7ND6J+/
3DEIcbCdjdY0RzKQxmUk96BKfARzjzlvF4xytb1LyHr4e4PDKE6cCepnP7JnBBvD
FNr450kkkdAdavphOe9r5yF1BgfYErQhIHBCcYHaPJo2vqZbDWpsmh+Re/n570K6
Tk6ezAyNlNzZRZxe7EJQY670XcSxEtzKO6gunRRaBXW37Ndj4ro1tgQIkejanZz2
ZrUYrAqmVCY0M9IbwdR/GjqOC6oybtv8TyWf2TLHllpwrN9M
-----END CERTIFICATE-----
