Certificate:
    Data:
        Version: 3 (0x2)
        Serial Number:
            21:2a:56:0c:ae:da:0c:ab:40:45:bf:2b:a2:2d:3a:ea
        Signature Algorithm: ecdsa-with-SHA384
        Issuer: C = CH, O = WISeKey, OU = OISTE Foundation Endorsed, CN = OISTE WISeKey Global Root GC CA
        Validity
            Not Before: May  9 09:48:34 2017 GMT
            Not After : May  9 09:58:33 2042 GMT
        Subject: C = CH, O = WISeKey, OU = OISTE Foundation Endorsed, CN = OISTE WISeKey Global Root GC CA
        Subject Public Key Info:
            Public Key Algorithm: id-ecPublicKey
                Public-Key: (384 bit)
                pub:
                    04:4c:e9:50:c0:c6:0f:72:18:bc:d8:f1:ba:b3:89:
                    e2:79:4a:a3:16:a7:6b:54:24:db:51:ff:ea:f4:09:
                    24:c3:0b:22:9f:cb:6a:27:82:81:0d:d2:c0:af:31:
                    e4:74:82:6e:ca:25:d9:8c:75:9d:f1:db:d0:9a:a2:
                    4b:21:7e:16:a7:63:90:d2:39:d4:b1:87:78:5f:18:
                    96:0f:50:1b:35:37:0f:6a:c6:dc:d9:13:4d:a4:8e:
                    90:37:e6:bd:5b:31:91
                ASN1 OID: secp384r1
                NIST CURVE: P-384
        X509v3 extensions:
            X509v3 Key Usage: critical
                Certificate Sign, CRL Sign
            X509v3 Basic Constraints: critical
                CA:TRUE
            X509v3 Subject Key Identifier: 
                48:87:14:AC:E3:C3:9E:90:60:3A:D7:CA:89:EE:D3:AD:8C:B4:50:66
            1.3.6.1.4.1.311.21.1: 
                ...
    Signature Algorithm: ecdsa-with-SHA384
         30:65:02:30:26:c7:69:5b:dc:d5:e7:b2:e7:c8:0c:8c:8c:c3:
         dd:79:8c:1b:63:d5:c9:52:94:4e:4d:82:4a:73:1e:b2:80:84:
         a9:25:c0:4c:5a:6d:49:29:60:78:13:e2:7e:48:eb:64:02:31:
         00:db:34:20:32:08:ff:9a:49:02:b6:88:de:14:af:5d:6c:99:
         71:8d:1a:3f:8b:d7:e0:a2:36:86:1c:07:82:3a:76:53:fd:c2:
         a2:ed:ef:7b:b0:80:4f:58:0f:4b:53:39:bd
-----BEGIN CERTIFICATE-----
MIICaTCCAe+gAwIBAgIQISpWDK7aDKtARb8roi066jAKBggqhkjOPQQDAzBtMQsw
CQYDVQQGEwJDSDEQMA4GA1UEChMHV0lTZUtleTEiMCAGA1UECxMZT0lTVEUgRm91
bmRhdGlvbiBFbmRvcnNlZDEoMCYGA1UEAxMfT0lTVEUgV0lTZUtleSBHbG9iYWwg
Um9vdCBHQyBDQTAeFw0xNzA1MDkwOTQ4MzRaFw00MjA1MDkwOTU4MzNaMG0xCzAJ
BgNVBAYTAkNIMRAwDgYDVQQKEwdXSVNlS2V5MSIwIAYDVQQLExlPSVNURSBGb3Vu
ZGF0aW9uIEVuZG9yc2VkMSgwJgYDVQQDEx9PSVNURSBXSVNlS2V5IEdsb2JhbCBS
b290IEdDIENBMHYwEAYHKoZIzj0CAQYFK4EEACIDYgAETOlQwMYPchi82PG6s4ni
eUqjFqdrVCTbUf/q9Akkwwsin8tqJ4KBDdLArzHkdIJuyiXZjHWd8dvQmqJLIX4W
p2OQ0jnUsYd4XxiWD1AbNTcPasbc2RNNpI6QN+a9WzGRo1QwUjAOBgNVHQ8BAf8E
BAMCAQYwDwYDVR0TAQH/BAUwAwEB/zAdBgNVHQ4EFgQUSIcUrOPDnpBgOtfKie7T
rYy0UGYwEAYJKwYBBAGCNxUBBAMCAQAwCgYIKoZIzj0EAwMDaAAwZQIwJsdpW9zV
57LnyAyMjMPdeYwbY9XJUpROTYJKcx6ygISpJcBMWm1JKWB4E+J+SOtkAjEA2zQg
Mgj/mkkCtojeFK9dbJlxjRo/i9fgojaGHAeCOnZT/cKi7e97sIBPWA9LUzm9
-----END CERTIFICATE-----
