Certificate:
    Data:
        Version: 3 (0x2)
        Serial Number:
            78:58:5f:2e:ad:2c:19:4b:e3:37:07:35:34:13:28:b5:96:d4:65:93
        Signature Algorithm: sha256WithRSAEncryption
        Issuer: C = BM, O = QuoVadis Limited, CN = QuoVadis Root CA 1 G3
        Validity
            Not Before: Jan 12 17:27:44 2012 GMT
            Not After : Jan 12 17:27:44 2042 GMT
        Subject: C = BM, O = QuoVadis Limited, CN = QuoVadis Root CA 1 G3
        Subject Public Key Info:
            Public Key Algorithm: rsaEncryption
                RSA Public-Key: (4096 bit)
                Modulus:
                    00:a0:be:50:10:8e:e9:f2:6c:40:b4:04:9c:85:b9:
                    31:ca:dc:2d:e4:11:a9:04:3c:1b:55:c1:e7:58:30:
                    1d:24:b4:c3:ef:85:de:8c:2c:e1:c1:3d:df:82:e6:
                    4f:ad:47:87:6c:ec:5b:49:c1:4a:d5:bb:8f:ec:87:
                    ac:7f:82:9a:86:ec:3d:03:99:52:01:d2:35:9e:ac:
                    da:f0:53:c9:66:3c:d4:ac:02:01:da:24:d3:3b:a8:
                    02:46:af:a4:1c:e3:f8:73:58:76:b7:f6:0e:90:0d:
                    b5:f0:cf:cc:fa:f9:c6:4c:e5:c3:86:30:0a:8d:17:
                    7e:35:eb:c5:df:bb:0e:9c:c0:8d:87:e3:88:38:85:
                    67:fa:3e:c7:ab:e0:13:9c:05:18:98:cf:93:f5:b1:
                    92:b4:fc:23:d3:cf:d5:c4:27:49:e0:9e:3c:9b:08:
                    a3:8b:5d:2a:21:e0:fc:39:aa:53:da:7d:7e:cf:1a:
                    09:53:bc:5d:05:04:cf:a1:4a:8f:8b:76:82:0d:a1:
                    f8:d2:c7:14:77:5b:90:36:07:81:9b:3e:06:fa:52:
                    5e:63:c5:a6:00:fe:a5:e9:52:1b:52:b5:92:39:72:
                    03:09:62:bd:b0:60:16:6e:a6:dd:25:c2:03:66:dd:
                    f3:04:d1:40:e2:4e:8b:86:f4:6f:e5:83:a0:27:84:
                    5e:04:c1:f5:90:bd:30:3d:c4:ef:a8:69:bc:38:9b:
                    a4:a4:96:d1:62:da:69:c0:01:96:ae:cb:c4:51:34:
                    ea:0c:aa:ff:21:8e:59:8f:4a:5c:e4:61:9a:a7:d2:
                    e9:2a:78:8d:51:3d:3a:15:ee:a2:59:8e:a9:5c:de:
                    c5:f9:90:22:e5:88:45:71:dd:91:99:6c:7a:9f:3d:
                    3d:98:7c:5e:f6:be:16:68:a0:5e:ae:0b:23:fc:5a:
                    0f:aa:22:76:2d:c9:a1:10:1d:e4:d3:44:23:90:88:
                    9f:c6:2a:e6:d7:f5:9a:b3:58:1e:2f:30:89:08:1b:
                    54:a2:b5:98:23:ec:08:77:1c:95:5d:61:d1:cb:89:
                    9c:5f:a2:4a:91:9a:ef:21:aa:49:16:08:a8:bd:61:
                    28:31:c9:74:ad:85:f6:d9:c5:b1:8b:d1:e5:10:32:
                    4d:5f:8b:20:3a:3c:49:1f:33:85:59:0d:db:cb:09:
                    75:43:69:73:fb:6b:71:7d:f0:df:c4:4c:7d:c6:a3:
                    2e:c8:95:79:cb:73:a2:8e:4e:4d:24:fb:5e:e4:04:
                    be:72:1b:a6:27:2d:49:5a:99:7a:d7:5c:09:20:b7:
                    7f:94:b9:4f:f1:0d:1c:5e:88:42:1b:11:b7:e7:91:
                    db:9e:6c:f4:6a:df:8c:06:98:03:ad:cc:28:ef:a5:
                    47:f3:53
                Exponent: 65537 (0x10001)
        X509v3 extensions:
            X509v3 Basic Constraints: critical
                CA:TRUE
            X509v3 Key Usage: critical
                Certificate Sign, CRL Sign
            X509v3 Subject Key Identifier: 
                A3:97:D6:F3:5E:A2:10:E1:AB:45:9F:3C:17:64:3C:EE:01:70:9C:CC
    Signature Algorithm: sha256WithRSAEncryption
         18:fa:5b:75:fc:3e:7a:c7:5f:77:c7:ca:df:cf:5f:c3:12:c4:
         40:5d:d4:32:aa:b8:6a:d7:d5:15:15:46:98:23:a5:e6:90:5b:
         18:99:4c:e3:ad:42:a3:82:31:36:88:cd:e9:fb:c4:04:96:48:
         8b:01:c7:8d:01:cf:5b:33:06:96:46:66:74:1d:4f:ed:c1:b6:
         b9:b4:0d:61:cc:63:7e:d7:2e:77:8c:96:1c:2a:23:68:6b:85:
         57:76:70:33:13:fe:e1:4f:a6:23:77:18:fa:1a:8c:e8:bd:65:
         c9:cf:3f:f4:c9:17:dc:eb:c7:bc:c0:04:2e:2d:46:2f:69:66:
         c3:1b:8f:fe:ec:3e:d3:ca:94:bf:76:0a:25:0d:a9:7b:02:1c:
         a9:d0:3b:5f:0b:c0:81:3a:3d:64:e1:bf:a7:2d:4e:bd:4d:c4:
         d8:29:c6:22:18:d0:c5:ac:72:02:82:3f:aa:3a:a2:3a:22:97:
         31:dd:08:63:c3:75:14:b9:60:28:2d:5b:68:e0:16:a9:66:82:
         23:51:f5:eb:53:d8:31:9b:7b:e9:b7:9d:4b:eb:88:16:cf:f9:
         5d:38:8a:49:30:8f:ed:f1:eb:19:f4:77:1a:31:18:4d:67:54:
         6c:2f:6f:65:f9:db:3d:ec:21:ec:5e:f4:f4:8b:ca:60:65:54:
         d1:71:64:f4:f9:a6:a3:81:33:36:33:71:f0:a4:78:5f:4e:ad:
         83:21:de:34:49:8d:e8:59:ac:9d:f2:76:5a:36:f2:13:f4:af:
         e0:09:c7:61:2a:6c:f7:e0:9d:ae:bb:86:4a:28:6f:2e:ee:b4:
         79:cd:90:33:c3:b3:76:fa:f5:f0:6c:9d:01:90:fa:9e:90:f6:
         9c:72:cf:47:da:c3:1f:e4:35:20:53:f2:54:d1:df:61:83:a6:
         02:e2:25:38:de:85:32:2d:5e:73:90:52:5d:42:c4:ce:3d:4b:
         e1:f9:19:84:1d:d5:a2:50:cc:41:fb:41:14:c3:bd:d6:c9:5a:
         a3:63:66:02:80:bd:05:3a:3b:47:9c:ec:00:26:4c:f5:88:51:
         bf:a8:23:7f:18:07:b0:0b:ed:8b:26:a1:64:d3:61:4a:eb:5c:
         9f:de:b3:af:67:03:b3:1f:dd:6d:5d:69:68:69:ab:5e:3a:ec:
         7c:69:bc:c7:3b:85:4e:9e:15:b9:b4:15:4f:c3:95:7a:58:d7:
         c9:6c:e9:6c:b9:f3:29:63:5e:b4:2c:f0:2d:3d:ed:5a:65:e0:
         a9:5b:40:c2:48:99:81:6d:9e:1f:06:2a:3c:12:b4:8b:0f:9b:
         a2:24:f0:a6:8d:d6:7a:e0:4b:b6:64:96:63:95:84:c2:4a:cd:
         1c:2e:24:87:33:60:e5:c3
-----BEGIN CERTIFICATE-----
MIIFYDCCA0igAwIBAgIUeFhfLq0sGUvjNwc1NBMotZbUZZMwDQYJKoZIhvcNAQEL
BQAwSDELMAkGA1UEBhMCQk0xGTAXBgNVBAoTEFF1b1ZhZGlzIExpbWl0ZWQxHjAc
BgNVBAMTFVF1b1ZhZGlzIFJvb3QgQ0EgMSBHMzAeFw0xMjAxMTIxNzI3NDRaFw00
MjAxMTIxNzI3NDRaMEgxCzAJBgNVBAYTAkJNMRkwFwYDVQQKExBRdW9WYWRpcyBM
aW1pdGVkMR4wHAYDVQQDExVRdW9WYWRpcyBSb290IENBIDEgRzMwggIiMA0GCSqG
SIb3DQEBAQUAA4ICDwAwggIKAoICAQCgvlAQjunybEC0BJyFuTHK3C3kEakEPBtV
wedYMB0ktMPvhd6MLOHBPd+C5k+tR4ds7FtJwUrVu4/sh6x/gpqG7D0DmVIB0jWe
rNrwU8lmPNSsAgHaJNM7qAJGr6Qc4/hzWHa39g6QDbXwz8z6+cZM5cOGMAqNF341
68Xfuw6cwI2H44g4hWf6Pser4BOcBRiYz5P1sZK0/CPTz9XEJ0ngnjybCKOLXSoh
4Pw5qlPafX7PGglTvF0FBM+hSo+LdoINofjSxxR3W5A2B4GbPgb6Ul5jxaYA/qXp
UhtStZI5cgMJYr2wYBZupt0lwgNm3fME0UDiTouG9G/lg6AnhF4EwfWQvTA9xO+o
abw4m6SkltFi2mnAAZauy8RRNOoMqv8hjlmPSlzkYZqn0ukqeI1RPToV7qJZjqlc
3sX5kCLliEVx3ZGZbHqfPT2YfF72vhZooF6uCyP8Wg+qInYtyaEQHeTTRCOQiJ/G
KubX9ZqzWB4vMIkIG1SitZgj7Ah3HJVdYdHLiZxfokqRmu8hqkkWCKi9YSgxyXSt
hfbZxbGL0eUQMk1fiyA6PEkfM4VZDdvLCXVDaXP7a3F98N/ETH3Goy7IlXnLc6KO
Tk0k+17kBL5yG6YnLUlamXrXXAkgt3+UuU/xDRxeiEIbEbfnkduebPRq34wGmAOt
zCjvpUfzUwIDAQABo0IwQDAPBgNVHRMBAf8EBTADAQH/MA4GA1UdDwEB/wQEAwIB
BjAdBgNVHQ4EFgQUo5fW816iEOGrRZ88F2Q87gFwnMwwDQYJKoZIhvcNAQELBQAD
ggIBABj6W3X8PnrHX3fHyt/PX8MSxEBd1DKquGrX1RUVRpgjpeaQWxiZTOOtQqOC
MTaIzen7xASWSIsBx40Bz1szBpZGZnQdT+3Btrm0DWHMY37XLneMlhwqI2hrhVd2
cDMT/uFPpiN3GPoajOi9ZcnPP/TJF9zrx7zABC4tRi9pZsMbj/7sPtPKlL92CiUN
qXsCHKnQO18LwIE6PWThv6ctTr1NxNgpxiIY0MWscgKCP6o6ojoilzHdCGPDdRS5
YCgtW2jgFqlmgiNR9etT2DGbe+m3nUvriBbP+V04ikkwj+3x6xn0dxoxGE1nVGwv
b2X52z3sIexe9PSLymBlVNFxZPT5pqOBMzYzcfCkeF9OrYMh3jRJjehZrJ3ydlo2
8hP0r+AJx2EqbPfgna67hkooby7utHnNkDPDs3b69fBsnQGQ+p6Q9pxyz0fawx/k
NSBT8lTR32GDpgLiJTjehTItXnOQUl1CxM49S+H5GYQd1aJQzEH7QRTDvdbJWqNj
ZgKAvQU6O0ec7AAmTPWIUb+oI38YB7AL7YsmoWTTYUrrXJ/es69nA7Mf3W1daWhp
q1467HxpvMc7hU6eFbm0FU/DlXpY18ls6Wy58yljXrQs8C097Vpl4KlbQMJImYFt
nh8GKjwStIsPm6Ik8KaN1nrgS7ZklmOVhMJKzRwuJIczYOXD
-----END CERTIFICATE-----
