Certificate:
    Data:
        Version: 3 (0x2)
        Serial Number:
            05:f7:0e:86:da:49:f3:46:35:2e:ba:b2
        Signature Algorithm: sha256WithRSAEncryption
        Issuer: C = US, ST = Illinois, L = Chicago, O = "Trustwave Holdings, Inc.", CN = Trustwave Global Certification Authority
        Validity
            Not Before: Aug 23 19:34:12 2017 GMT
            Not After : Aug 23 19:34:12 2042 GMT
        Subject: C = US, ST = Illinois, L = Chicago, O = "Trustwave Holdings, Inc.", CN = Trustwave Global Certification Authority
        Subject Public Key Info:
            Public Key Algorithm: rsaEncryption
                RSA Public-Key: (4096 bit)
                Modulus:
                    00:b9:5d:51:28:4b:3c:37:92:d1:82:ce:bd:1d:bd:
                    cd:dd:b8:ab:cf:0a:3e:e1:5d:e5:dc:aa:09:b9:57:
                    02:3e:e6:63:61:df:f2:0f:82:63:ae:a3:f7:ac:73:
                    d1:7c:e7:b3:0b:af:08:00:09:59:7f:cd:29:2a:88:
                    93:87:17:18:80:ed:88:b2:b4:b6:10:1f:2d:d6:5f:
                    55:a2:13:5d:d1:c6:eb:06:56:89:88:fe:ac:32:9d:
                    fd:5c:c3:05:c7:6e:ee:86:89:ba:88:03:9d:72:21:
                    86:90:ae:8f:03:a5:dc:9f:88:28:cb:a3:92:49:0f:
                    ec:d0:0f:e2:6d:44:4f:80:6a:b2:d4:e7:a0:0a:53:
                    01:ba:8e:97:91:76:6e:bc:fc:d5:6b:36:e6:40:88:
                    d6:7b:2f:5f:05:e8:2c:6d:11:f3:e7:b2:be:92:44:
                    4c:d2:97:a4:fe:d2:72:81:43:07:9c:e9:11:3e:f5:
                    8b:1a:59:7d:1f:68:58:dd:04:00:2c:96:f3:43:b3:
                    7e:98:19:74:d9:9c:73:d9:18:be:41:c7:34:79:d9:
                    f4:62:c2:43:b9:b3:27:b0:22:cb:f9:3d:52:c7:30:
                    47:b3:c9:3e:b8:6a:e2:e7:e8:81:70:5e:42:8b:4f:
                    26:a5:fe:3a:c2:20:6e:bb:f8:16:8e:cd:0c:a9:b4:
                    1b:6c:76:10:e1:58:79:46:3e:54:ce:80:a8:57:09:
                    37:29:1b:99:13:8f:0c:c8:d6:2c:1c:fb:05:e8:08:
                    95:3d:65:46:dc:ee:cd:69:e2:4d:8f:87:28:4e:34:
                    0b:3e:cf:14:d9:bb:dd:b6:50:9a:ad:77:d4:19:d6:
                    da:1a:88:c8:4e:1b:27:75:d8:b2:08:f1:ae:83:30:
                    b9:11:0e:cd:87:f0:84:8d:15:72:7c:a1:ef:cc:f2:
                    88:61:ba:f4:69:bb:0c:8c:0b:75:57:04:b8:4e:2a:
                    14:2e:3d:0f:1c:1e:32:a6:62:36:ee:66:e2:22:b8:
                    05:40:63:10:22:f3:33:1d:74:72:8a:2c:f5:39:29:
                    a0:d3:e7:1b:80:84:2d:c5:3d:e3:4d:b1:fd:1a:6f:
                    ba:65:07:3b:58:ec:42:45:26:fb:d8:da:25:72:c4:
                    f6:00:b1:22:79:bd:e3:7c:59:62:4a:9c:05:6f:3d:
                    ce:e6:d6:47:63:99:c6:24:6f:72:12:c8:ac:7f:90:
                    b4:0b:91:70:e8:b7:e6:16:10:71:17:ce:de:06:4f:
                    48:41:7d:35:4a:a3:89:f2:c9:4b:7b:41:11:6d:67:
                    b7:08:98:4c:e5:11:19:ae:42:80:dc:fb:90:05:d4:
                    f8:50:ca:be:e4:ad:c7:c2:94:d7:16:9d:e6:17:8f:
                    af:36:fb
                Exponent: 65537 (0x10001)
        X509v3 extensions:
            X509v3 Basic Constraints: critical
                CA:TRUE
            X509v3 Subject Key Identifier: 
                99:E0:19:67:0D:62:DB:76:B3:DA:3D:B8:5B:E8:FD:42:D2:31:0E:87
            X509v3 Key Usage: critical
                Certificate Sign, CRL Sign
    Signature Algorithm: sha256WithRSAEncryption
         98:73:70:e2:b0:d3:ed:39:ec:4c:60:d9:a9:12:86:17:1e:96:
         d0:e8:54:28:3b:64:2d:21:a6:f8:9d:56:13:6a:48:3d:4f:c7:
         3e:29:db:6d:58:83:54:3d:87:7d:23:05:d4:e4:1c:dc:e8:38:
         65:86:c5:75:a7:5a:db:35:05:bd:77:de:bb:29:37:40:05:07:
         c3:94:52:9f:ca:64:dd:f1:1b:2b:dc:46:0a:10:02:31:fd:4a:
         68:0d:07:64:90:e6:1e:f5:2a:a1:a8:bb:3c:5d:f9:a3:08:0b:
         11:0c:f1:3f:2d:10:94:6f:fe:e2:34:87:83:d6:cf:e5:1b:35:
         6d:d2:03:e1:b0:0d:a8:a0:aa:46:27:82:36:a7:15:b6:08:a6:
         42:54:57:b6:99:5a:e2:0b:79:90:d7:57:12:51:35:19:88:41:
         68:25:d4:37:17:84:15:fb:01:72:dc:95:de:52:26:20:98:26:
         e2:76:f5:27:6f:fa:00:3b:4a:61:d9:0d:cb:51:93:2a:fd:16:
         06:96:a7:23:9a:23:48:fe:51:bd:b6:c4:b0:b1:54:ce:de:6c:
         41:ad:16:67:7e:db:fd:38:cd:b9:38:4e:b2:c1:60:cb:9d:17:
         df:58:9e:7a:62:b2:26:8f:74:95:9b:e4:5b:1d:d2:0f:dd:98:
         1c:9b:59:b9:23:d3:31:a0:a6:ff:38:dd:cf:20:4f:e9:58:56:
         3a:67:c3:d1:f6:99:99:9d:ba:36:b6:80:2f:88:47:4f:86:bf:
         44:3a:80:e4:37:1c:a6:ba:ea:97:98:11:d0:84:62:47:64:1e:
         aa:ee:40:bf:34:b1:9c:8f:4e:e1:f2:92:4f:1f:8e:f3:9e:97:
         de:f3:a6:79:6a:89:71:4f:4b:27:17:48:fe:ec:f4:50:0f:4f:
         49:7d:cc:45:e3:bd:7a:40:c5:41:dc:61:56:27:06:69:e5:72:
         41:81:d3:b6:01:89:a0:2f:3a:72:79:fe:3a:30:bf:41:ec:c7:
         62:3e:91:4b:c7:d9:31:76:42:f9:f7:3c:63:ec:26:8c:73:0c:
         7d:1a:1d:ea:a8:7c:87:a8:c2:27:7c:e1:33:41:0f:cf:cf:fc:
         00:a0:22:80:9e:4a:a7:6f:00:b0:41:45:b7:22:ca:68:48:c5:
         42:a2:ae:dd:1d:f2:e0:6e:4e:05:58:b1:c0:90:16:2a:a4:3d:
         10:40:be:8f:62:63:83:a9:9c:82:7d:2d:02:e9:83:30:7c:cb:
         27:c9:fd:1e:66:00:b0:2e:d3:21:2f:8e:33:16:6c:98:ed:10:
         a8:07:d6:cc:93:cf:db:d1:69:1c:e4:ca:c9:e0:b6:9c:e9:ce:
         71:71:de:6c:3f:16:a4:79
-----BEGIN CERTIFICATE-----
MIIF2jCCA8KgAwIBAgIMBfcOhtpJ80Y1LrqyMA0GCSqGSIb3DQEBCwUAMIGIMQsw
CQYDVQQGEwJVUzERMA8GA1UECAwISWxsaW5vaXMxEDAOBgNVBAcMB0NoaWNhZ28x
ITAfBgNVBAoMGFRydXN0d2F2ZSBIb2xkaW5ncywgSW5jLjExMC8GA1UEAwwoVHJ1
c3R3YXZlIEdsb2JhbCBDZXJ0aWZpY2F0aW9uIEF1dGhvcml0eTAeFw0xNzA4MjMx
OTM0MTJaFw00MjA4MjMxOTM0MTJaMIGIMQswCQYDVQQGEwJVUzERMA8GA1UECAwI
SWxsaW5vaXMxEDAOBgNVBAcMB0NoaWNhZ28xITAfBgNVBAoMGFRydXN0d2F2ZSBI
b2xkaW5ncywgSW5jLjExMC8GA1UEAwwoVHJ1c3R3YXZlIEdsb2JhbCBDZXJ0aWZp
Y2F0aW9uIEF1dGhvcml0eTCCAiIwDQYJKoZIhvcNAQEBBQADggIPADCCAgoCggIB
ALldUShLPDeS0YLOvR29zd24q88KPuFd5dyqCblXAj7mY2Hf8g+CY66j96xz0Xzn
swuvCAAJWX/NKSqIk4cXGIDtiLK0thAfLdZfVaITXdHG6wZWiYj+rDKd/VzDBcdu
7oaJuogDnXIhhpCujwOl3J+IKMujkkkP7NAP4m1ET4BqstTnoApTAbqOl5F2brz8
1Ws25kCI1nsvXwXoLG0R8+eyvpJETNKXpP7ScoFDB5zpET71ixpZfR9oWN0EACyW
80OzfpgZdNmcc9kYvkHHNHnZ9GLCQ7mzJ7Aiy/k9UscwR7PJPrhq4ufogXBeQotP
JqX+OsIgbrv4Fo7NDKm0G2x2EOFYeUY+VM6AqFcJNykbmROPDMjWLBz7BegIlT1l
RtzuzWniTY+HKE40Cz7PFNm73bZQmq131BnW2hqIyE4bJ3XYsgjxroMwuREOzYfw
hI0Vcnyh78zyiGG69Gm7DIwLdVcEuE4qFC49DxweMqZiNu5m4iK4BUBjECLzMx10
coos9TkpoNPnG4CELcU9402x/RpvumUHO1jsQkUm+9jaJXLE9gCxInm943xZYkqc
BW89zubWR2OZxiRvchLIrH+QtAuRcOi35hYQcRfO3gZPSEF9NUqjifLJS3tBEW1n
twiYTOURGa5CgNz7kAXU+FDKvuStx8KU1xad5hePrzb7AgMBAAGjQjBAMA8GA1Ud
EwEB/wQFMAMBAf8wHQYDVR0OBBYEFJngGWcNYtt2s9o9uFvo/ULSMQ6HMA4GA1Ud
DwEB/wQEAwIBBjANBgkqhkiG9w0BAQsFAAOCAgEAmHNw4rDT7TnsTGDZqRKGFx6W
0OhUKDtkLSGm+J1WE2pIPU/HPinbbViDVD2HfSMF1OQc3Og4ZYbFdada2zUFvXfe
uyk3QAUHw5RSn8pk3fEbK9xGChACMf1KaA0HZJDmHvUqoai7PF35owgLEQzxPy0Q
lG/+4jSHg9bP5Rs1bdID4bANqKCqRieCNqcVtgimQlRXtpla4gt5kNdXElE1GYhB
aCXUNxeEFfsBctyV3lImIJgm4nb1J2/6ADtKYdkNy1GTKv0WBpanI5ojSP5RvbbE
sLFUzt5sQa0WZ37b/TjNuThOssFgy50X31ieemKyJo90lZvkWx3SD92YHJtZuSPT
MaCm/zjdzyBP6VhWOmfD0faZmZ26NraAL4hHT4a/RDqA5Dccprrql5gR0IRiR2Qe
qu5AvzSxnI9O4fKSTx+O856X3vOmeWqJcU9LJxdI/uz0UA9PSX3MReO9ekDFQdxh
VicGaeVyQYHTtgGJoC86cnn+OjC/QezHYj6RS8fZMXZC+fc8Y+wmjHMMfRod6qh8
h6jCJ3zhM0EPz8/8AKAigJ5Kp28AsEFFtyLKaEjFQqKu3R3y4G5OBVixwJAWKqQ9
EEC+j2Jjg6mcgn0tAumDMHzLJ8n9HmYAsC7TIS+OMxZsmO0QqAfWzJPP29FpHOTK
yeC2nOnOcXHebD8WpHk=
-----END CERTIFICATE-----
