Certificate:
    Data:
        Version: 3 (0x2)
        Serial Number:
            5d:df:b1:da:5a:a3:ed:5d:be:5a:65:20:65:03:90:ef
        Signature Algorithm: sha256WithRSAEncryption
        Issuer: C = CN, O = UniTrust, CN = UCA Global G2 Root
        Validity
            Not Before: Mar 11 00:00:00 2016 GMT
            Not After : Dec 31 00:00:00 2040 GMT
        Subject: C = CN, O = UniTrust, CN = UCA Global G2 Root
        Subject Public Key Info:
            Public Key Algorithm: rsaEncryption
                RSA Public-Key: (4096 bit)
                Modulus:
                    00:c5:e6:2b:6f:7c:ef:26:05:27:a3:81:24:da:6f:
                    cb:01:f9:99:9a:a9:32:c2:22:87:61:41:91:3b:cb:
                    c3:68:1b:06:c5:4c:a9:2b:c1:67:17:22:1d:2b:ed:
                    f9:29:89:93:a2:78:bd:92:6b:a0:a3:0d:a2:7e:ca:
                    93:b3:a6:d1:8c:35:d5:75:f9:17:f6:cf:45:c5:e5:
                    7a:ec:77:93:a0:8f:23:ae:0e:1a:03:7f:be:d4:d0:
                    ed:2e:7b:ab:46:23:5b:ff:2c:e6:54:7a:94:c0:2a:
                    15:f0:c9:8d:b0:7a:3b:24:e1:d7:68:e2:31:3c:06:
                    33:46:b6:54:11:a6:a5:2f:22:54:2a:58:0d:01:02:
                    f1:fa:15:51:67:6c:c0:fa:d7:b6:1b:7f:d1:56:88:
                    2f:1a:3a:8d:3b:bb:82:11:e0:47:00:d0:52:87:ab:
                    fb:86:7e:0f:24:6b:40:9d:34:67:bc:8d:c7:2d:86:
                    6f:79:3e:8e:a9:3c:17:4b:7f:b0:99:e3:b0:71:60:
                    dc:0b:f5:64:c3:ce:43:bc:6d:71:b9:d2:de:27:5b:
                    8a:e8:d8:c6:ae:e1:59:7d:cf:28:2d:35:b8:95:56:
                    1a:f1:b2:58:4b:b7:12:37:c8:7c:b3:ed:4b:80:e1:
                    8d:fa:32:23:b6:6f:b7:48:95:08:b1:44:4e:85:8c:
                    3a:02:54:20:2f:df:bf:57:4f:3b:3a:90:21:d7:c1:
                    26:35:54:20:ec:c7:3f:47:ec:ef:5a:bf:4b:7a:c1:
                    ad:3b:17:50:5c:62:d8:0f:4b:4a:dc:2b:fa:6e:bc:
                    73:92:cd:ec:c7:50:e8:41:96:d7:a9:7e:6d:d8:e9:
                    1d:8f:8a:b5:b9:58:92:ba:4a:92:2b:0c:56:fd:80:
                    eb:08:f0:5e:29:6e:1b:1c:0c:af:8f:93:89:ad:db:
                    bd:a3:9e:21:ca:89:19:ec:df:b5:c3:1a:eb:16:fe:
                    78:36:4c:d6:6e:d0:3e:17:1c:90:17:6b:26:ba:fb:
                    7a:2f:bf:11:1c:18:0e:2d:73:03:8f:a0:e5:35:a0:
                    5a:e2:4c:75:1d:71:e1:39:38:53:78:40:cc:83:93:
                    d7:0a:9e:9d:5b:8f:8a:e4:e5:e0:48:e4:48:b2:47:
                    cd:4e:2a:75:2a:7b:f2:22:f6:c9:be:09:91:96:57:
                    7a:88:88:ac:ee:70:ac:f9:dc:29:e3:0c:1c:3b:12:
                    4e:44:d6:a7:4e:b0:26:c8:f3:d9:1a:97:91:68:ea:
                    ef:8d:46:06:d2:56:45:58:9a:3c:0c:0f:83:b8:05:
                    25:c3:39:cf:3b:a4:34:89:b7:79:12:2f:47:c5:e7:
                    a9:97:69:fc:a6:77:67:b5:df:7b:f1:7a:65:15:e4:
                    61:56:65
                Exponent: 65537 (0x10001)
        X509v3 extensions:
            X509v3 Key Usage: critical
                Certificate Sign, CRL Sign
            X509v3 Basic Constraints: critical
                CA:TRUE
            X509v3 Subject Key Identifier: 
                81:C4:8C:CC:F5:E4:30:FF:A5:0C:08:5F:8C:15:67:21:74:01:DF:DF
    Signature Algorithm: sha256WithRSAEncryption
         13:65:22:f5:8e:2b:ad:44:e4:cb:ff:b9:68:e6:c3:80:48:3d:
         04:7b:fa:23:2f:7a:ed:36:da:b2:ce:6d:f6:e6:9e:e5:5f:58:
         8f:cb:37:32:a1:c8:65:b6:ae:38:3d:35:1b:3e:bc:3b:b6:04:
         d0:bc:f9:49:f5:9b:f7:85:c5:36:b6:cb:bc:f8:c8:39:d5:e4:
         5f:07:bd:15:54:97:74:ca:ca:ed:4f:ba:ba:64:76:9f:81:b8:
         84:45:49:4c:8d:6f:a2:eb:b1:cc:d1:c3:94:da:44:c2:e6:e2:
         ea:18:e8:a2:1f:27:05:ba:d7:e5:d6:a9:cd:dd:ef:76:98:8d:
         00:0e:cd:1b:fa:03:b7:8e:80:58:0e:27:3f:52:fb:94:a2:ca:
         5e:65:c9:d6:84:da:b9:35:71:f3:26:c0:4f:77:e6:81:27:d2:
         77:3b:9a:14:6f:79:f4:f6:d0:e1:d3:94:ba:d0:57:51:bd:27:
         05:0d:c1:fd:c8:12:30:ee:6f:8d:11:2b:08:9d:d4:d4:bf:80:
         45:14:9a:88:44:da:30:ea:b4:a7:e3:ee:ef:5b:82:d5:3e:d6:
         ad:78:92:db:5c:3c:f3:d8:ad:fa:b8:6b:7f:c4:36:28:b6:02:
         15:8a:54:2c:9c:b0:17:73:8e:d0:37:a3:14:3c:98:95:00:0c:
         29:05:5b:9e:49:49:b1:5f:c7:e3:cb:cf:27:65:8e:35:17:b7:
         57:c8:30:d9:41:5b:b9:14:b6:e8:c2:0f:94:31:a7:94:98:cc:
         6a:eb:b5:e1:27:f5:10:a8:01:e8:8e:12:62:e8:88:cc:b5:7f:
         46:97:c0:9b:10:66:38:1a:36:46:5f:22:68:3d:df:c9:c6:13:
         27:ab:53:06:ac:a2:3c:86:06:65:6f:b1:7e:b1:29:44:9a:a3:
         ba:49:69:28:69:8f:d7:e5:5f:ad:04:86:64:6f:1a:a0:0c:c5:
         08:62:ce:80:a3:d0:f3:ec:68:de:be:33:c7:17:5b:7f:80:c4:
         4c:4c:b1:a6:84:8a:c3:3b:b8:09:cd:14:81:ba:18:e3:54:57:
         36:fe:db:2f:7c:47:a1:3a:33:c8:f9:58:3b:44:4f:b1:ca:02:
         89:04:96:28:68:c5:4b:b8:26:89:bb:d6:33:2f:50:d5:fe:9a:
         89:ba:18:32:92:54:c6:5b:e0:9d:f9:5e:e5:0d:22:9b:f6:da:
         e2:c8:21:b2:62:21:aa:86:40:b2:2e:64:d3:5f:c8:e3:7e:11:
         67:45:1f:05:fe:e3:a2:ef:b3:a8:b3:f3:7d:8f:f8:0c:1f:22:
         1f:2d:70:b4:b8:01:34:76:30:00:e5:23:78:a7:56:d7:50:1f:
         8a:fb:06:f5:c2:19:f0:d0
-----BEGIN CERTIFICATE-----
MIIFRjCCAy6gAwIBAgIQXd+x2lqj7V2+WmUgZQOQ7zANBgkqhkiG9w0BAQsFADA9
MQswCQYDVQQGEwJDTjERMA8GA1UECgwIVW5pVHJ1c3QxGzAZBgNVBAMMElVDQSBH
bG9iYWwgRzIgUm9vdDAeFw0xNjAzMTEwMDAwMDBaFw00MDEyMzEwMDAwMDBaMD0x
CzAJBgNVBAYTAkNOMREwDwYDVQQKDAhVbmlUcnVzdDEbMBkGA1UEAwwSVUNBIEds
b2JhbCBHMiBSb290MIICIjANBgkqhkiG9w0BAQEFAAOCAg8AMIICCgKCAgEAxeYr
b3zvJgUno4Ek2m/LAfmZmqkywiKHYUGRO8vDaBsGxUypK8FnFyIdK+35KYmToni9
kmugow2ifsqTs6bRjDXVdfkX9s9FxeV67HeToI8jrg4aA3++1NDtLnurRiNb/yzm
VHqUwCoV8MmNsHo7JOHXaOIxPAYzRrZUEaalLyJUKlgNAQLx+hVRZ2zA+te2G3/R
VogvGjqNO7uCEeBHANBSh6v7hn4PJGtAnTRnvI3HLYZveT6OqTwXS3+wmeOwcWDc
C/Vkw85DvG1xudLeJ1uK6NjGruFZfc8oLTW4lVYa8bJYS7cSN8h8s+1LgOGN+jIj
tm+3SJUIsUROhYw6AlQgL9+/V087OpAh18EmNVQg7Mc/R+zvWr9LesGtOxdQXGLY
D0tK3Cv6brxzks3sx1DoQZbXqX5t2Okdj4q1uViSukqSKwxW/YDrCPBeKW4bHAyv
j5OJrdu9o54hyokZ7N+1wxrrFv54NkzWbtA+FxyQF2smuvt6L78RHBgOLXMDj6Dl
NaBa4kx1HXHhOThTeEDMg5PXCp6dW4+K5OXgSORIskfNTip1KnvyIvbJvgmRlld6
iIis7nCs+dwp4wwcOxJORNanTrAmyPPZGpeRaOrvjUYG0lZFWJo8DA+DuAUlwznP
O6Q0ibd5Ei9Hxeepl2n8pndntd978XplFeRhVmUCAwEAAaNCMEAwDgYDVR0PAQH/
BAQDAgEGMA8GA1UdEwEB/wQFMAMBAf8wHQYDVR0OBBYEFIHEjMz15DD/pQwIX4wV
ZyF0Ad/fMA0GCSqGSIb3DQEBCwUAA4ICAQATZSL1jiutROTL/7lo5sOASD0Ee/oj
L3rtNtqyzm325p7lX1iPyzcyochltq44PTUbPrw7tgTQvPlJ9Zv3hcU2tsu8+Mg5
1eRfB70VVJd0ysrtT7q6ZHafgbiERUlMjW+i67HM0cOU2kTC5uLqGOiiHycFutfl
1qnN3e92mI0ADs0b+gO3joBYDic/UvuUospeZcnWhNq5NXHzJsBPd+aBJ9J3O5oU
b3n09tDh05S60FdRvScFDcH9yBIw7m+NESsIndTUv4BFFJqIRNow6rSn4+7vW4LV
PtateJLbXDzz2K36uGt/xDYotgIVilQsnLAXc47QN6MUPJiVAAwpBVueSUmxX8fj
y88nZY41F7dXyDDZQVu5FLbowg+UMaeUmMxq67XhJ/UQqAHojhJi6IjMtX9Gl8Cb
EGY4GjZGXyJoPd/JxhMnq1MGrKI8hgZlb7F+sSlEmqO6SWkoaY/X5V+tBIZkbxqg
DMUIYs6Ao9Dz7GjevjPHF1t/gMRMTLGmhIrDO7gJzRSBuhjjVFc2/tsvfEehOjPI
+Vg7RE+xygKJBJYoaMVLuCaJu9YzL1DV/pqJuhgyklTGW+Cd+V7lDSKb9triyCGy
YiGqhkCyLmTTX8jjfhFnRR8F/uOi77Oos/N9j/gMHyIfLXC0uAE0djAA5SN4p1bX
UB+K+wb1whnw0A==
-----END CERTIFICATE-----
