Certificate:
    Data:
        Version: 3 (0x2)
        Serial Number:
            3e:8a:5d:07:ec:55:d2:32:d5:b7:e3:b6:5f:01:eb:2d:dc:e4:d6:e4
        Signature Algorithm: sha256WithRSAEncryption
        Issuer: C = PL, O = Krajowa Izba Rozliczeniowa S.A., CN = SZAFIR ROOT CA2
        Validity
            Not Before: Oct 19 07:43:30 2015 GMT
            Not After : Oct 19 07:43:30 2035 GMT
        Subject: C = PL, O = Krajowa Izba Rozliczeniowa S.A., CN = SZAFIR ROOT CA2
        Subject Public Key Info:
            Public Key Algorithm: rsaEncryption
                RSA Public-Key: (2048 bit)
                Modulus:
                    00:b7:bc:3e:50:a8:4b:cd:40:b5:ce:61:e7:96:ca:
                    b4:a1:da:0c:22:b0:fa:b5:7b:76:00:77:8c:0b:cf:
                    7d:a8:86:cc:26:51:e4:20:3d:85:0c:d6:58:e3:e7:
                    f4:2a:18:9d:da:d1:ae:26:ee:eb:53:dc:f4:90:d6:
                    13:4a:0c:90:3c:c3:f4:da:d2:8e:0d:92:3a:dc:b1:
                    b1:ff:38:de:c3:ba:2d:5f:80:b9:02:bd:4a:9d:1b:
                    0f:b4:c3:c2:c1:67:03:dd:dc:1b:9c:3d:b3:b0:de:
                    00:1e:a8:34:47:bb:9a:eb:fe:0b:14:bd:36:84:da:
                    0d:20:bf:fa:5b:cb:a9:16:20:ad:39:60:ee:2f:75:
                    b6:e7:97:9c:f9:3e:fd:7e:4d:6f:4d:2f:ef:88:0d:
                    6a:fa:dd:f1:3d:6e:20:a5:a0:12:b4:4d:70:b9:ce:
                    d7:72:3b:89:93:a7:80:84:1c:27:49:72:49:b5:ff:
                    3b:95:9e:c1:cc:c8:01:ec:e8:0e:8a:0a:96:e7:b3:
                    a6:87:e5:d6:f9:05:2b:0d:97:40:70:3c:ba:ac:75:
                    5a:9c:d5:4d:9d:02:0a:d2:4b:9b:66:4b:46:07:17:
                    65:ad:9f:6c:88:00:dc:22:89:e0:e1:64:d4:67:bc:
                    31:79:61:3c:bb:ca:41:cd:5c:6a:00:c8:3c:38:8e:
                    58:af
                Exponent: 65537 (0x10001)
        X509v3 extensions:
            X509v3 Basic Constraints: critical
                CA:TRUE
            X509v3 Key Usage: critical
                Certificate Sign, CRL Sign
            X509v3 Subject Key Identifier: 
                2E:16:A9:4A:18:B5:CB:CC:F5:6F:50:F3:23:5F:F8:5D:E7:AC:F0:C8
    Signature Algorithm: sha256WithRSAEncryption
         b5:73:f8:03:dc:59:5b:1d:76:e9:a3:2a:7b:90:28:b2:4d:c0:
         33:4f:aa:9a:b1:d4:b8:e4:27:ff:a9:96:99:ce:46:e0:6d:7c:
         4c:a2:38:a4:06:70:f0:f4:41:11:ec:3f:47:8d:3f:72:87:f9:
         3b:fd:a4:6f:2b:53:00:e0:ff:39:b9:6a:07:0e:eb:1d:1c:f6:
         a2:72:90:cb:82:3d:11:82:8b:d2:bb:9f:2a:af:21:e6:63:86:
         9d:79:19:ef:f7:bb:0c:35:90:c3:8a:ed:4f:0f:f5:cc:12:d9:
         a4:3e:bb:a0:fc:20:95:5f:4f:26:2f:11:23:83:4e:75:07:0f:
         bf:9b:d1:b4:1d:e9:10:04:fe:ca:60:8f:a2:4c:b8:ad:cf:e1:
         90:0f:cd:ae:0a:c7:5d:7b:b7:50:d2:d4:61:fa:d5:15:db:d7:
         9f:87:51:54:eb:a5:e3:eb:c9:85:a0:25:20:37:fb:8e:ce:0c:
         34:84:e1:3c:81:b2:77:4e:43:a5:88:5f:86:67:a1:3d:e6:b4:
         5c:61:b6:3e:db:fe:b7:28:c5:a2:07:ae:b5:ca:ca:8d:2a:12:
         ef:97:ed:c2:30:a4:c9:2a:7a:fb:f3:4d:23:1b:99:33:34:a0:
         2e:f5:a9:0b:3f:d4:5d:e1:cf:84:9f:e2:19:c2:5f:8a:d6:20:
         1e:e3:73:b7
-----BEGIN CERTIFICATE-----
MIIDcjCCAlqgAwIBAgIUPopdB+xV0jLVt+O2XwHrLdzk1uQwDQYJKoZIhvcNAQEL
BQAwUTELMAkGA1UEBhMCUEwxKDAmBgNVBAoMH0tyYWpvd2EgSXpiYSBSb3psaWN6
ZW5pb3dhIFMuQS4xGDAWBgNVBAMMD1NaQUZJUiBST09UIENBMjAeFw0xNTEwMTkw
NzQzMzBaFw0zNTEwMTkwNzQzMzBaMFExCzAJBgNVBAYTAlBMMSgwJgYDVQQKDB9L
cmFqb3dhIEl6YmEgUm96bGljemVuaW93YSBTLkEuMRgwFgYDVQQDDA9TWkFGSVIg
Uk9PVCBDQTIwggEiMA0GCSqGSIb3DQEBAQUAA4IBDwAwggEKAoIBAQC3vD5QqEvN
QLXOYeeWyrSh2gwisPq1e3YAd4wLz32ohswmUeQgPYUM1ljj5/QqGJ3a0a4m7utT
3PSQ1hNKDJA8w/Ta0o4NkjrcsbH/ON7Dui1fgLkCvUqdGw+0w8LBZwPd3BucPbOw
3gAeqDRHu5rr/gsUvTaE2g0gv/pby6kWIK05YO4vdbbnl5z5Pv1+TW9NL++IDWr6
3fE9biCloBK0TXC5ztdyO4mTp4CEHCdJckm1/zuVnsHMyAHs6A6KCpbns6aH5db5
BSsNl0BwPLqsdVqc1U2dAgrSS5tmS0YHF2Wtn2yIANwiieDhZNRnvDF5YTy7ykHN
XGoAyDw4jlivAgMBAAGjQjBAMA8GA1UdEwEB/wQFMAMBAf8wDgYDVR0PAQH/BAQD
AgEGMB0GA1UdDgQWBBQuFqlKGLXLzPVvUPMjX/hd56zwyDANBgkqhkiG9w0BAQsF
AAOCAQEAtXP4A9xZWx126aMqe5Aosk3AM0+qmrHUuOQn/6mWmc5G4G18TKI4pAZw
8PRBEew/R40/cof5O/2kbytTAOD/OblqBw7rHRz2onKQy4I9EYKL0rufKq8h5mOG
nXkZ7/e7DDWQw4rtTw/1zBLZpD67oPwglV9PJi8RI4NOdQcPv5vRtB3pEAT+ymCP
oky4rc/hkA/NrgrHXXu3UNLUYfrVFdvXn4dRVOul4+vJhaAlIDf7js4MNIThPIGy
d05DpYhfhmehPea0XGG2Ptv+tyjFogeutcrKjSoS75ftwjCkySp6+/NNIxuZMzSg
LvWpCz/UXeHPhJ/iGcJfitYgHuNztw==
-----END CERTIFICATE-----
