Certificate:
    Data:
        Version: 3 (0x2)
        Serial Number:
            21:d6:d0:4a:4f:25:0f:c9:32:37:fc:aa:5e:12:8d:e9
        Signature Algorithm: sha512WithRSAEncryption
        Issuer: C = PL, O = Unizeto Technologies S.A., OU = Certum Certification Authority, CN = Certum Trusted Network CA 2
        Validity
            Not Before: Oct  6 08:39:56 2011 GMT
            Not After : Oct  6 08:39:56 2046 GMT
        Subject: C = PL, O = Unizeto Technologies S.A., OU = Certum Certification Authority, CN = Certum Trusted Network CA 2
        Subject Public Key Info:
            Public Key Algorithm: rsaEncryption
                RSA Public-Key: (4096 bit)
                Modulus:
                    00:bd:f9:78:f8:e6:d5:80:0c:64:9d:86:1b:96:64:
                    67:3f:22:3a:1e:75:01:7d:ef:fb:5c:67:8c:c9:cc:
                    5c:6b:a9:91:e6:b9:42:e5:20:4b:9b:da:9b:7b:b9:
                    99:5d:d9:9b:80:4b:d7:84:40:2b:27:d3:e8:ba:30:
                    bb:3e:09:1a:a7:49:95:ef:2b:40:24:c2:97:c7:a7:
                    ee:9b:25:ef:a8:0a:00:97:85:5a:aa:9d:dc:29:c9:
                    e2:35:07:eb:70:4d:4a:d6:c1:b3:56:b8:a1:41:38:
                    9b:d1:fb:31:7f:8f:e0:5f:e1:b1:3f:0f:8e:16:49:
                    60:d7:06:8d:18:f9:aa:26:10:ab:2a:d3:d0:d1:67:
                    8d:1b:46:be:47:30:d5:2e:72:d1:c5:63:da:e7:63:
                    79:44:7e:4b:63:24:89:86:2e:34:3f:29:4c:52:8b:
                    2a:a7:c0:e2:91:28:89:b9:c0:5b:f9:1d:d9:e7:27:
                    ad:ff:9a:02:97:c1:c6:50:92:9b:02:2c:bd:a9:b9:
                    34:59:0a:bf:84:4a:ff:df:fe:b3:9f:eb:d9:9e:e0:
                    98:23:ec:a6:6b:77:16:2a:db:cc:ad:3b:1c:a4:87:
                    dc:46:73:5e:19:62:68:45:57:e4:90:82:42:bb:42:
                    d6:f0:61:e0:c1:a3:3d:66:a3:5d:f4:18:ee:88:c9:
                    8d:17:45:29:99:32:75:02:31:ee:29:26:c8:6b:02:
                    e6:b5:62:45:7f:37:15:5a:23:68:89:d4:3e:de:4e:
                    27:b0:f0:40:0c:bc:4d:17:cb:4d:a2:b3:1e:d0:06:
                    5a:dd:f6:93:cf:57:75:99:f5:fa:86:1a:67:78:b3:
                    bf:96:fe:34:dc:bd:e7:52:56:e5:b3:e5:75:7b:d7:
                    41:91:05:dc:5d:69:e3:95:0d:43:b9:fc:83:96:39:
                    95:7b:6c:80:5a:4f:13:72:c6:d7:7d:29:7a:44:ba:
                    52:a4:2a:d5:41:46:09:20:fe:22:a0:b6:5b:30:8d:
                    bc:89:0c:d5:d7:70:f8:87:52:fd:da:ef:ac:51:2e:
                    07:b3:4e:fe:d0:09:da:70:ef:98:fa:56:e6:6d:db:
                    b5:57:4b:dc:e5:2c:25:15:c8:9e:2e:78:4e:f8:da:
                    9c:9e:86:2c:ca:57:f3:1a:e5:c8:92:8b:1a:82:96:
                    7a:c3:bc:50:12:69:d8:0e:5a:46:8b:3a:eb:26:fa:
                    23:c9:b6:b0:81:be:42:00:a4:f8:d6:fe:30:2e:c7:
                    d2:46:f6:e5:8e:75:fd:f2:cc:b9:d0:87:5b:cc:06:
                    10:60:bb:83:35:b7:5e:67:de:47:ec:99:48:f1:a4:
                    a1:15:fe:ad:8c:62:8e:39:55:4f:39:16:b9:b1:63:
                    9d:ff:b7
                Exponent: 65537 (0x10001)
        X509v3 extensions:
            X509v3 Basic Constraints: critical
                CA:TRUE
            X509v3 Subject Key Identifier: 
                B6:A1:54:39:02:C3:A0:3F:8E:8A:BC:FA:D4:F8:1C:A6:D1:3A:0E:FD
            X509v3 Key Usage: critical
                Certificate Sign, CRL Sign
    Signature Algorithm: sha512WithRSAEncryption
         71:a5:0e:ce:e4:e9:bf:3f:38:d5:89:5a:c4:02:61:fb:4c:c5:
         14:17:2d:8b:4f:53:6b:10:17:fc:65:84:c7:10:49:90:de:db:
         c7:26:93:88:26:6f:70:d6:02:5e:39:a0:f7:8f:ab:96:b5:a5:
         13:5c:81:14:6d:0e:81:82:11:1b:8a:4e:c6:4f:a5:dd:62:1e:
         44:df:09:59:f4:5b:77:0b:37:e9:8b:20:c6:f8:0a:4e:2e:58:
         1c:eb:33:d0:cf:86:60:c9:da:fb:80:2f:9e:4c:60:84:78:3d:
         21:64:d6:fb:41:1f:18:0f:e7:c9:75:71:bd:bd:5c:de:34:87:
         3e:41:b0:0e:f6:b9:d6:3f:09:13:96:14:2f:de:9a:1d:5a:b9:
         56:ce:35:3a:b0:5f:70:4d:5e:e3:29:f1:23:28:72:59:b6:ab:
         c2:8c:66:26:1c:77:2c:26:76:35:8b:28:a7:69:a0:f9:3b:f5:
         23:dd:85:10:74:c9:90:03:56:91:e7:af:ba:47:d4:12:97:11:
         22:e3:a2:49:94:6c:e7:b7:94:4b:ba:2d:a4:da:33:8b:4c:a6:
         44:ff:5a:3c:c6:1d:64:d8:b5:31:e4:a6:3c:7a:a8:57:0b:db:
         ed:61:1a:cb:f1:ce:73:77:63:a4:87:6f:4c:51:38:d6:e4:5f:
         c7:9f:b6:81:2a:e4:85:48:79:58:5e:3b:f8:db:02:82:67:c1:
         39:db:c3:74:4b:3d:36:1e:f9:29:93:88:68:5b:a8:44:19:21:
         f0:a7:e8:81:0d:2c:e8:93:36:b4:37:b2:ca:b0:1b:26:7a:9a:
         25:1f:9a:9a:80:9e:4b:2a:3f:fb:a3:9a:fe:73:32:71:c2:9e:
         c6:72:e1:8a:68:27:f1:e4:0f:b4:c4:4c:a5:61:93:f8:97:10:
         07:2a:30:25:a9:b9:c8:71:b8:ef:68:cc:2d:7e:f5:e0:7e:0f:
         82:a8:6f:b6:ba:6c:83:43:77:cd:8a:92:17:a1:9e:5b:78:16:
         3d:45:e2:33:72:dd:e1:66:ca:99:d3:c9:c5:26:fd:0d:68:04:
         46:ae:b6:d9:9b:8c:be:19:be:b1:c6:f2:19:e3:5c:02:ca:2c:
         d8:6f:4a:07:d9:c9:35:da:40:75:f2:c4:a7:19:6f:9e:42:10:
         98:75:e6:95:8b:60:bc:ed:c5:12:d7:8a:ce:d5:98:5c:56:96:
         03:c5:ee:77:06:35:ff:cf:e4:ee:3f:13:61:ee:db:da:2d:85:
         f0:cd:ae:9d:b2:18:09:45:c3:92:a1:72:17:fc:47:b6:a0:0b:
         2c:f1:c4:de:43:68:08:6a:5f:3b:f0:76:63:fb:cc:06:2c:a6:
         c6:e2:0e:b5:b9:be:24:8f
-----BEGIN CERTIFICATE-----
MIIF0jCCA7qgAwIBAgIQIdbQSk8lD8kyN/yqXhKN6TANBgkqhkiG9w0BAQ0FADCB
gDELMAkGA1UEBhMCUEwxIjAgBgNVBAoTGVVuaXpldG8gVGVjaG5vbG9naWVzIFMu
QS4xJzAlBgNVBAsTHkNlcnR1bSBDZXJ0aWZpY2F0aW9uIEF1dGhvcml0eTEkMCIG
A1UEAxMbQ2VydHVtIFRydXN0ZWQgTmV0d29yayBDQSAyMCIYDzIwMTExMDA2MDgz
OTU2WhgPMjA0NjEwMDYwODM5NTZaMIGAMQswCQYDVQQGEwJQTDEiMCAGA1UEChMZ
VW5pemV0byBUZWNobm9sb2dpZXMgUy5BLjEnMCUGA1UECxMeQ2VydHVtIENlcnRp
ZmljYXRpb24gQXV0aG9yaXR5MSQwIgYDVQQDExtDZXJ0dW0gVHJ1c3RlZCBOZXR3
b3JrIENBIDIwggIiMA0GCSqGSIb3DQEBAQUAA4ICDwAwggIKAoICAQC9+Xj45tWA
DGSdhhuWZGc/IjoedQF97/tcZ4zJzFxrqZHmuULlIEub2pt7uZld2ZuAS9eEQCsn
0+i6MLs+CRqnSZXvK0AkwpfHp+6bJe+oCgCXhVqqndwpyeI1B+twTUrWwbNWuKFB
OJvR+zF/j+Bf4bE/D44WSWDXBo0Y+aomEKsq09DRZ40bRr5HMNUuctHFY9rnY3lE
fktjJImGLjQ/KUxSiyqnwOKRKIm5wFv5HdnnJ63/mgKXwcZQkpsCLL2puTRZCr+E
Sv/f/rOf69me4Jgj7KZrdxYq28ytOxykh9xGc14ZYmhFV+SQgkK7QtbwYeDBoz1m
o130GO6IyY0XRSmZMnUCMe4pJshrAua1YkV/NxVaI2iJ1D7eTiew8EAMvE0Xy02i
sx7QBlrd9pPPV3WZ9fqGGmd4s7+W/jTcvedSVuWz5XV710GRBdxdaeOVDUO5/IOW
OZV7bIBaTxNyxtd9KXpEulKkKtVBRgkg/iKgtlswjbyJDNXXcPiHUv3a76xRLgez
Tv7QCdpw75j6VuZt27VXS9zlLCUVyJ4ueE742pyehizKV/Ma5ciSixqClnrDvFAS
adgOWkaLOusm+iPJtrCBvkIApPjW/jAux9JG9uWOdf3yzLnQh1vMBhBgu4M1t15n
3kfsmUjxpKEV/q2MYo45VU85FrmxY53/twIDAQABo0IwQDAPBgNVHRMBAf8EBTAD
AQH/MB0GA1UdDgQWBBS2oVQ5AsOgP46KvPrU+Bym0ToO/TAOBgNVHQ8BAf8EBAMC
AQYwDQYJKoZIhvcNAQENBQADggIBAHGlDs7k6b8/ONWJWsQCYftMxRQXLYtPU2sQ
F/xlhMcQSZDe28cmk4gmb3DWAl45oPePq5a1pRNcgRRtDoGCERuKTsZPpd1iHkTf
CVn0W3cLN+mLIMb4Ck4uWBzrM9DPhmDJ2vuAL55MYIR4PSFk1vtBHxgP58l1cb29
XN40hz5BsA72udY/CROWFC/emh1auVbONTqwX3BNXuMp8SMoclm2q8KMZiYcdywm
djWLKKdpoPk79SPdhRB0yZADVpHnr7pH1BKXESLjokmUbOe3lEu6LaTaM4tMpkT/
WjzGHWTYtTHkpjx6qFcL2+1hGsvxznN3Y6SHb0xRONbkX8eftoEq5IVIeVheO/jb
AoJnwTnbw3RLPTYe+SmTiGhbqEQZIfCn6IENLOiTNrQ3ssqwGyZ6miUfmpqAnksq
P/ujmv5zMnHCnsZy4YpoJ/HkD7TETKVhk/iXEAcqMCWpuchxuO9ozC1+9eB+D4Ko
b7a6bINDd82Kkhehnlt4Fj1F4jNy3eFmypnTycUm/Q1oBEauttmbjL4ZvrHG8hnj
XALKLNhvSgfZyTXaQHXyxKcZb55CEJh15pWLYLztxRLXis7VmFxWlgPF7ncGNf/P
5O4/E2Hu29othfDNrp2yGAlFw5Khchf8R7agCyzxxN5DaAhqXzvwdmP7zAYspsbi
DrW5viSP
-----END CERTIFICATE-----
