Certificate:
    Data:
        Version: 3 (0x2)
        Serial Number: 0 (0x0)
        Signature Algorithm: sha1WithRSAEncryption
        Issuer: C = GR, O = Hellenic Academic and Research Institutions Cert. Authority, CN = Hellenic Academic and Research Institutions RootCA 2011
        Validity
            Not Before: Dec  6 13:49:52 2011 GMT
            Not After : Dec  1 13:49:52 2031 GMT
        Subject: C = GR, O = Hellenic Academic and Research Institutions Cert. Authority, CN = Hellenic Academic and Research Institutions RootCA 2011
        Subject Public Key Info:
            Public Key Algorithm: rsaEncryption
                RSA Public-Key: (2048 bit)
                Modulus:
                    00:a9:53:00:e3:2e:a6:f6:8e:fa:60:d8:2d:95:3e:
                    f8:2c:2a:54:4e:cd:b9:84:61:94:58:4f:8f:3d:8b:
                    e4:43:f3:75:89:8d:51:e4:c3:37:d2:8a:88:4d:79:
                    1e:b7:12:dd:43:78:4a:8a:92:e6:d7:48:d5:0f:a4:
                    3a:29:44:35:b8:07:f6:68:1d:55:cd:38:51:f0:8c:
                    24:31:85:af:83:c9:7d:e9:77:af:ed:1a:7b:9d:17:
                    f9:b3:9d:38:50:0f:a6:5a:79:91:80:af:37:ae:a6:
                    d3:31:fb:b5:26:09:9d:3c:5a:ef:51:c5:2b:df:96:
                    5d:eb:32:1e:02:da:70:49:ec:6e:0c:c8:9a:37:8d:
                    f7:f1:36:60:4b:26:2c:82:9e:d0:78:f3:0d:0f:63:
                    a4:51:30:e1:f9:2b:27:12:07:d8:ea:bd:18:62:98:
                    b0:59:37:7d:be:ee:f3:20:51:42:5a:83:ef:93:ba:
                    69:15:f1:62:9d:9f:99:39:82:a1:b7:74:2e:8b:d4:
                    c5:0b:7b:2f:f0:c8:0a:da:3d:79:0a:9a:93:1c:a5:
                    28:72:73:91:43:9a:a7:d1:4d:85:84:b9:a9:74:8f:
                    14:40:c7:dc:de:ac:41:64:6c:b4:19:9b:02:63:6d:
                    24:64:8f:44:b2:25:ea:ce:5d:74:0c:63:32:5c:8d:
                    87:e5
                Exponent: 65537 (0x10001)
        X509v3 extensions:
            X509v3 Basic Constraints: critical
                CA:TRUE
            X509v3 Key Usage: 
                Certificate Sign, CRL Sign
            X509v3 Subject Key Identifier: 
                A6:91:42:FD:13:61:4A:23:9E:08:A4:29:E5:D8:13:04:23:EE:41:25
            X509v3 Name Constraints: 
                Permitted:
                  DNS:.gr
                  DNS:.eu
                  DNS:.edu
                  DNS:.org
                  email:.gr
                  email:.eu
                  email:.edu
                  email:.org

    Signature Algorithm: sha1WithRSAEncryption
         1f:ef:79:41:e1:7b:6e:3f:b2:8c:86:37:42:4a:4e:1c:37:1e:
         8d:66:ba:24:81:c9:4f:12:0f:21:c0:03:97:86:25:6d:5d:d3:
         22:29:a8:6c:a2:0d:a9:eb:3d:06:5b:99:3a:c7:cc:c3:9a:34:
         7f:ab:0e:c8:4e:1c:e1:fa:e4:dc:cd:0d:be:bf:24:fe:6c:e7:
         6b:c2:0d:c8:06:9e:4e:8d:61:28:a6:6a:fd:e5:f6:62:ea:18:
         3c:4e:a0:53:9d:b2:3a:9c:eb:a5:9c:91:16:b6:4d:82:e0:0c:
         05:48:a9:6c:f5:cc:f8:cb:9d:49:b4:f0:02:a5:fd:70:03:ed:
         8a:21:a5:ae:13:86:49:c3:33:73:be:87:3b:74:8b:17:45:26:
         4c:16:91:83:fe:67:7d:cd:4d:63:67:fa:f3:03:12:96:78:06:
         8d:b1:67:ed:8e:3f:be:9f:4f:02:f5:b3:09:2f:f3:4c:87:df:
         2a:cb:95:7c:01:cc:ac:36:7a:bf:a2:73:7a:f7:8f:c1:b5:9a:
         a1:14:b2:8f:33:9f:0d:ef:22:dc:66:7b:84:bd:45:17:06:3d:
         3c:ca:b9:77:34:8f:ca:ea:cf:3f:31:3e:e3:88:e3:80:49:25:
         c8:97:b5:9d:9a:99:4d:b0:3c:f8:4a:00:9b:64:dd:9f:39:4b:
         d1:27:d7:b8
-----BEGIN CERTIFICATE-----
MIIEMTCCAxmgAwIBAgIBADANBgkqhkiG9w0BAQUFADCBlTELMAkGA1UEBhMCR1Ix
RDBCBgNVBAoTO0hlbGxlbmljIEFjYWRlbWljIGFuZCBSZXNlYXJjaCBJbnN0aXR1
dGlvbnMgQ2VydC4gQXV0aG9yaXR5MUAwPgYDVQQDEzdIZWxsZW5pYyBBY2FkZW1p
YyBhbmQgUmVzZWFyY2ggSW5zdGl0dXRpb25zIFJvb3RDQSAyMDExMB4XDTExMTIw
NjEzNDk1MloXDTMxMTIwMTEzNDk1MlowgZUxCzAJBgNVBAYTAkdSMUQwQgYDVQQK
EztIZWxsZW5pYyBBY2FkZW1pYyBhbmQgUmVzZWFyY2ggSW5zdGl0dXRpb25zIENl
cnQuIEF1dGhvcml0eTFAMD4GA1UEAxM3SGVsbGVuaWMgQWNhZGVtaWMgYW5kIFJl
c2VhcmNoIEluc3RpdHV0aW9ucyBSb290Q0EgMjAxMTCCASIwDQYJKoZIhvcNAQEB
BQADggEPADCCAQoCggEBAKlTAOMupvaO+mDYLZU++CwqVE7NuYRhlFhPjz2L5EPz
dYmNUeTDN9KKiE15HrcS3UN4SoqS5tdI1Q+kOilENbgH9mgdVc04UfCMJDGFr4PJ
fel3r+0ae50X+bOdOFAPplp5kYCvN66m0zH7tSYJnTxa71HFK9+WXesyHgLacEns
bgzImjeN9/E2YEsmLIKe0HjzDQ9jpFEw4fkrJxIH2Oq9GGKYsFk3fb7u8yBRQlqD
75O6aRXxYp2fmTmCobd0LovUxQt7L/DICto9eQqakxylKHJzkUOap9FNhYS5qXSP
FEDH3N6sQWRstBmbAmNtJGSPRLIl6s5ddAxjMlyNh+UCAwEAAaOBiTCBhjAPBgNV
HRMBAf8EBTADAQH/MAsGA1UdDwQEAwIBBjAdBgNVHQ4EFgQUppFC/RNhSiOeCKQp
5dgTBCPuQSUwRwYDVR0eBEAwPqA8MAWCAy5ncjAFggMuZXUwBoIELmVkdTAGggQu
b3JnMAWBAy5ncjAFgQMuZXUwBoEELmVkdTAGgQQub3JnMA0GCSqGSIb3DQEBBQUA
A4IBAQAf73lB4XtuP7KMhjdCSk4cNx6NZrokgclPEg8hwAOXhiVtXdMiKahsog2p
6z0GW5k6x8zDmjR/qw7IThzh+uTczQ2+vyT+bOdrwg3IBp5OjWEopmr95fZi6hg8
TqBTnbI6nOulnJEWtk2C4AwFSKls9cz4y51JtPACpf1wA+2KIaWuE4ZJwzNzvoc7
dIsXRSZMFpGD/md9zU1jZ/rzAxKWeAaNsWftjj++n08C9bMJL/NMh98qy5V8Acys
Nnq/onN694/BtZqhFLKPM58N7yLcZnuEvUUXBj08yrl3NI/K6s8/MT7jiOOASSXI
l7WdmplNsDz4SgCbZN2fOUvRJ9e4
-----END CERTIFICATE-----
