Certificate:
    Data:
        Version: 3 (0x2)
        Serial Number: 1 (0x1)
        Signature Algorithm: sha1WithRSAEncryption
        Issuer: C = JP, O = "Japan Certification Services, Inc.", CN = SecureSign RootCA11
        Validity
            Not Before: Apr  8 04:56:47 2009 GMT
            Not After : Apr  8 04:56:47 2029 GMT
        Subject: C = JP, O = "Japan Certification Services, Inc.", CN = SecureSign RootCA11
        Subject Public Key Info:
            Public Key Algorithm: rsaEncryption
                RSA Public-Key: (2048 bit)
                Modulus:
                    00:fd:77:aa:a5:1c:90:05:3b:cb:4c:9b:33:8b:5a:
                    14:45:a4:e7:90:16:d1:df:57:d2:21:10:a4:17:fd:
                    df:ac:d6:1f:a7:e4:db:7c:f7:ec:df:b8:03:da:94:
                    58:fd:5d:72:7c:8c:3f:5f:01:67:74:15:96:e3:02:
                    3c:87:db:ae:cb:01:8e:c2:f3:66:c6:85:45:f4:02:
                    c6:3a:b5:62:b2:af:fa:9c:bf:a4:e6:d4:80:30:98:
                    f3:0d:b6:93:8f:a9:d4:d8:36:f2:b0:fc:8a:ca:2c:
                    a1:15:33:95:31:da:c0:1b:f2:ee:62:99:86:63:3f:
                    bf:dd:93:2a:83:a8:76:b9:13:1f:b7:ce:4e:42:85:
                    8f:22:e7:2e:1a:f2:95:09:b2:05:b5:44:4e:77:a1:
                    20:bd:a9:f2:4e:0a:7d:50:ad:f5:05:0d:45:4f:46:
                    71:fd:28:3e:53:fb:04:d8:2d:d7:65:1d:4a:1b:fa:
                    cf:3b:b0:31:9a:35:6e:c8:8b:06:d3:00:91:f2:94:
                    08:65:4c:b1:34:06:00:7a:89:e2:f0:c7:03:59:cf:
                    d5:d6:e8:a7:32:b3:e6:98:40:86:c5:cd:27:12:8b:
                    cc:7b:ce:b7:11:3c:62:60:07:23:3e:2b:40:6e:94:
                    80:09:6d:b6:b3:6f:77:6f:35:08:50:fb:02:87:c5:
                    3e:89
                Exponent: 65537 (0x10001)
        X509v3 extensions:
            X509v3 Subject Key Identifier: 
                5B:F8:4D:4F:B2:A5:86:D4:3A:D2:F1:63:9A:A0:BE:09:F6:57:B7:DE
            X509v3 Key Usage: critical
                Certificate Sign, CRL Sign
            X509v3 Basic Constraints: critical
                CA:TRUE
    Signature Algorithm: sha1WithRSAEncryption
         a0:a1:38:16:66:2e:a7:56:1f:21:9c:06:fa:1d:ed:b9:22:c5:
         38:26:d8:4e:4f:ec:a3:7f:79:de:46:21:a1:87:77:8f:07:08:
         9a:b2:a4:c5:af:0f:32:98:0b:7c:66:29:b6:9b:7d:25:52:49:
         43:ab:4c:2e:2b:6e:7a:70:af:16:0e:e3:02:6c:fb:42:e6:18:
         9d:45:d8:55:c8:e8:3b:dd:e7:e1:f4:2e:0b:1c:34:5c:6c:58:
         4a:fb:8c:88:50:5f:95:1c:bf:ed:ab:22:b5:65:b3:85:ba:9e:
         0f:b8:ad:e5:7a:1b:8a:50:3a:1d:bd:0d:bc:7b:54:50:0b:b9:
         42:af:55:a0:18:81:ad:65:99:ef:be:e4:9c:bf:c4:85:ab:41:
         b2:54:6f:dc:25:cd:ed:78:e2:8e:0c:8d:09:49:dd:63:7b:5a:
         69:96:02:21:a8:bd:52:59:e9:7d:35:cb:c8:52:ca:7f:81:fe:
         d9:6b:d3:f7:11:ed:25:df:f8:e7:f9:a4:fa:72:97:84:53:0d:
         a5:d0:32:18:51:76:59:14:6c:0f:eb:ec:5f:80:8c:75:43:83:
         c3:85:98:ff:4c:9e:2d:0d:e4:77:83:93:4e:b5:96:07:8b:28:
         13:9b:8c:19:8d:41:27:49:40:ee:de:e6:23:44:39:dc:a1:22:
         d6:ba:03:f2
-----BEGIN CERTIFICATE-----
MIIDbTCCAlWgAwIBAgIBATANBgkqhkiG9w0BAQUFADBYMQswCQYDVQQGEwJKUDEr
MCkGA1UEChMiSmFwYW4gQ2VydGlmaWNhdGlvbiBTZXJ2aWNlcywgSW5jLjEcMBoG
A1UEAxMTU2VjdXJlU2lnbiBSb290Q0ExMTAeFw0wOTA0MDgwNDU2NDdaFw0yOTA0
MDgwNDU2NDdaMFgxCzAJBgNVBAYTAkpQMSswKQYDVQQKEyJKYXBhbiBDZXJ0aWZp
Y2F0aW9uIFNlcnZpY2VzLCBJbmMuMRwwGgYDVQQDExNTZWN1cmVTaWduIFJvb3RD
QTExMIIBIjANBgkqhkiG9w0BAQEFAAOCAQ8AMIIBCgKCAQEA/XeqpRyQBTvLTJsz
i1oURaTnkBbR31fSIRCkF/3frNYfp+TbfPfs37gD2pRY/V1yfIw/XwFndBWW4wI8
h9uuywGOwvNmxoVF9ALGOrVisq/6nL+k5tSAMJjzDbaTj6nU2DbysPyKyiyhFTOV
MdrAG/LuYpmGYz+/3ZMqg6h2uRMft85OQoWPIucuGvKVCbIFtUROd6EgvanyTgp9
UK31BQ1FT0Zx/Sg+U/sE2C3XZR1KG/rPO7AxmjVuyIsG0wCR8pQIZUyxNAYAeoni
8McDWc/V1uinMrPmmECGxc0nEovMe863ETxiYAcjPitAbpSACW22s293bzUIUPsC
h8U+iQIDAQABo0IwQDAdBgNVHQ4EFgQUW/hNT7KlhtQ60vFjmqC+CfZXt94wDgYD
VR0PAQH/BAQDAgEGMA8GA1UdEwEB/wQFMAMBAf8wDQYJKoZIhvcNAQEFBQADggEB
AKChOBZmLqdWHyGcBvod7bkixTgm2E5P7KN/ed5GIaGHd48HCJqypMWvDzKYC3xm
KbabfSVSSUOrTC4rbnpwrxYO4wJs+0LmGJ1F2FXI6Dvd5+H0LgscNFxsWEr7jIhQ
X5Ucv+2rIrVls4W6ng+4reV6G4pQOh29Dbx7VFALuUKvVaAYga1lme++5Jy/xIWr
QbJUb9wlze144o4MjQlJ3WN7WmmWAiGovVJZ6X01y8hSyn+B/tlr0/cR7SXf+Of5
pPpyl4RTDaXQMhhRdlkUbA/r7F+AjHVDg8OFmP9Mni0N5HeDk061lgeLKBObjBmN
QSdJQO7e5iNEOdyhIta6A/I=
-----END CERTIFICATE-----
