Certificate:
    Data:
        Version: 3 (0x2)
        Serial Number: 9009899650740120186 (0x7d0997fef047ea7a)
        Signature Algorithm: sha256WithRSAEncryption
        Issuer: C = CN, O = "GUANG DONG CERTIFICATE AUTHORITY CO.,LTD.", CN = GDCA TrustAUTH R5 ROOT
        Validity
            Not Before: Nov 26 05:13:15 2014 GMT
            Not After : Dec 31 15:59:59 2040 GMT
        Subject: C = CN, O = "GUANG DONG CERTIFICATE AUTHORITY CO.,LTD.", CN = GDCA TrustAUTH R5 ROOT
        Subject Public Key Info:
            Public Key Algorithm: rsaEncryption
                RSA Public-Key: (4096 bit)
                Modulus:
                    00:d9:a3:16:f0:c8:74:74:77:9b:ef:33:0d:3b:06:
                    7e:55:fc:b5:60:8f:76:86:12:42:7d:56:66:3e:88:
                    82:ed:72:63:0e:9e:8b:dd:34:2c:02:51:51:c3:19:
                    fd:59:54:84:c9:f1:6b:b3:4c:b0:e9:e8:46:5d:38:
                    c6:a2:a7:2e:11:57:ba:82:15:a2:9c:8f:6d:b0:99:
                    4a:0a:f2:eb:89:70:63:4e:79:c4:b7:5b:bd:a2:5d:
                    b1:f2:41:02:2b:ad:a9:3a:a3:ec:79:0a:ec:5f:3a:
                    e3:fd:ef:80:3c:ad:34:9b:1a:ab:88:26:7b:56:a2:
                    82:86:1f:eb:35:89:83:7f:5f:ae:29:4e:3d:b6:6e:
                    ec:ae:c1:f0:27:9b:ae:e3:f4:ec:ef:ae:7f:f7:86:
                    3d:72:7a:eb:a5:fb:59:4e:a7:eb:95:8c:22:39:79:
                    e1:2d:08:8f:cc:bc:91:b8:41:f7:14:c1:23:a9:c3:
                    ad:9a:45:44:b3:b2:d7:2c:cd:c6:29:e2:50:10:ae:
                    5c:cb:82:8e:17:18:36:7d:97:e6:88:9a:b0:4d:34:
                    09:f4:2c:b9:5a:66:2a:b0:17:9b:9e:1e:76:9d:4a:
                    66:31:41:df:3f:fb:c5:06:ef:1b:b6:7e:1a:46:36:
                    f7:64:63:3b:e3:39:18:23:e7:67:75:14:d5:75:57:
                    92:37:bd:be:6a:1b:26:50:f2:36:26:06:90:c5:70:
                    01:64:6d:76:66:e1:91:db:6e:07:c0:61:80:2e:b2:
                    2e:2f:8c:70:a7:d1:3b:3c:b3:91:e4:6e:b6:c4:3b:
                    70:f2:6c:92:97:09:cd:47:7d:18:c0:f3:bb:9e:0f:
                    d6:8b:ae:07:b6:5a:0f:ce:0b:0c:47:a7:e5:3e:b8:
                    bd:7d:c7:9b:35:a0:61:97:3a:41:75:17:cc:2b:96:
                    77:2a:92:21:1e:d9:95:76:20:67:68:cf:0d:bd:df:
                    d6:1f:09:6a:9a:e2:cc:73:71:a4:2f:7d:12:80:b7:
                    53:30:46:5e:4b:54:99:0f:67:c9:a5:c8:f2:20:c1:
                    82:ec:9d:11:df:c2:02:fb:1a:3b:d1:ed:20:9a:ef:
                    65:64:92:10:0d:2a:e2:de:70:f1:18:67:82:8c:61:
                    de:b8:bc:d1:2f:9c:fb:0f:d0:2b:ed:1b:76:b9:e4:
                    39:55:f8:f8:a1:1d:b8:aa:80:00:4c:82:e7:b2:7f:
                    09:b8:bc:30:a0:2f:0d:f5:52:9e:8e:f7:92:b3:0a:
                    00:1d:00:54:97:06:e0:b1:07:d9:c7:0f:5c:65:7d:
                    3c:6d:59:57:e4:ed:a5:8d:e9:40:53:9f:15:4b:a0:
                    71:f6:1a:21:e3:da:70:06:21:58:14:87:85:77:79:
                    aa:82:79
                Exponent: 65537 (0x10001)
        X509v3 extensions:
            X509v3 Subject Key Identifier: 
                E2:C9:40:9F:4D:CE:E8:9A:A1:7C:CF:0E:3F:65:C5:29:88:6A:19:51
            X509v3 Basic Constraints: critical
                CA:TRUE
            X509v3 Key Usage: critical
                Digital Signature, Certificate Sign, CRL Sign
    Signature Algorithm: sha256WithRSAEncryption
         d1:49:57:e0:a7:cc:68:58:ba:01:0f:2b:19:cd:8d:b0:61:45:
         ac:11:ed:63:50:69:f8:1f:7f:be:16:8f:fd:9d:eb:0b:aa:32:
         47:76:d2:67:24:ed:bd:7c:33:32:97:2a:c7:05:86:66:0d:17:
         7d:14:15:1b:d4:eb:fd:1f:9a:f6:5e:97:69:b7:1a:25:a4:0a:
         b3:91:3f:5f:36:ac:8b:ec:57:a8:3e:e7:81:8a:18:57:39:85:
         74:1a:42:c7:e9:5b:13:5f:8f:f9:08:e9:92:74:8d:f5:47:d2:
         ab:3b:d6:fb:78:66:4e:36:7d:f9:e9:92:e9:04:de:fd:49:63:
         fc:6d:fb:14:71:93:67:2f:47:4a:b7:b9:ff:1e:2a:73:70:46:
         30:bf:5a:f2:2f:79:a5:e1:8d:0c:d9:f9:b2:63:37:8c:37:65:
         85:70:6a:5c:5b:09:72:b9:ad:63:3c:b1:dd:f8:fc:32:bf:37:
         86:e4:bb:8e:98:27:7e:ba:1f:16:e1:70:11:f2:03:df:25:62:
         32:27:26:18:32:84:9f:ff:00:3a:13:ba:9a:4d:f4:4f:b8:14:
         70:22:b1:ca:2b:90:ce:29:c1:70:f4:2f:9d:7f:f2:90:1e:d6:
         5a:df:b7:46:fc:e6:86:fa:cb:e0:20:76:7a:ba:a6:cb:f5:7c:
         de:62:a5:b1:8b:ee:de:82:66:8a:4e:3a:30:1f:3f:80:cb:ad:
         27:ba:0c:5e:d7:d0:b1:56:ca:77:71:b2:b5:75:a1:50:a9:40:
         43:17:c2:28:d9:cf:52:8b:5b:c8:63:d4:42:3e:a0:33:7a:46:
         2e:f7:0a:20:46:54:7e:6a:4f:31:f1:81:7e:42:74:38:65:73:
         27:ee:c6:7c:b8:8e:d7:a5:3a:d7:98:a1:9c:8c:10:55:d3:db:
         4b:ec:40:90:f2:cd:6e:57:d2:62:0e:7c:57:93:b1:a7:6d:cd:
         9d:83:bb:2a:e7:e5:b6:3b:71:58:ad:fd:d1:45:bc:5a:91:ee:
         53:15:6f:d3:45:09:75:6e:ba:90:5d:1e:04:cf:37:df:1e:a8:
         66:b1:8c:e6:20:6a:ef:fc:48:4e:74:98:42:af:29:6f:2e:6a:
         c7:fb:7d:d1:66:31:22:cc:86:00:7e:66:83:0c:42:f4:bd:34:
         92:c3:1a:ea:4f:ca:7e:72:4d:0b:70:8c:a6:48:bb:a6:a1:14:
         f6:fb:58:44:99:14:ae:aa:0b:93:69:a0:29:25:4a:a5:cb:2b:
         dd:8a:66:07:16:78:15:57:71:1b:ec:f5:47:84:f3:9e:31:37:
         7a:d5:7f:24:ad:e4:bc:fd:fd:cc:6e:83:e8:0c:a8:b7:41:6c:
         07:dd:bd:3c:86:97:2f:d2
-----BEGIN CERTIFICATE-----
MIIFiDCCA3CgAwIBAgIIfQmX/vBH6nowDQYJKoZIhvcNAQELBQAwYjELMAkGA1UE
BhMCQ04xMjAwBgNVBAoMKUdVQU5HIERPTkcgQ0VSVElGSUNBVEUgQVVUSE9SSVRZ
IENPLixMVEQuMR8wHQYDVQQDDBZHRENBIFRydXN0QVVUSCBSNSBST09UMB4XDTE0
MTEyNjA1MTMxNVoXDTQwMTIzMTE1NTk1OVowYjELMAkGA1UEBhMCQ04xMjAwBgNV
BAoMKUdVQU5HIERPTkcgQ0VSVElGSUNBVEUgQVVUSE9SSVRZIENPLixMVEQuMR8w
HQYDVQQDDBZHRENBIFRydXN0QVVUSCBSNSBST09UMIICIjANBgkqhkiG9w0BAQEF
AAOCAg8AMIICCgKCAgEA2aMW8Mh0dHeb7zMNOwZ+Vfy1YI92hhJCfVZmPoiC7XJj
Dp6L3TQsAlFRwxn9WVSEyfFrs0yw6ehGXTjGoqcuEVe6ghWinI9tsJlKCvLriXBj
TnnEt1u9ol2x8kECK62pOqPseQrsXzrj/e+APK00mxqriCZ7VqKChh/rNYmDf1+u
KU49tm7srsHwJ5uu4/Ts765/94Y9cnrrpftZTqfrlYwiOXnhLQiPzLyRuEH3FMEj
qcOtmkVEs7LXLM3GKeJQEK5cy4KOFxg2fZfmiJqwTTQJ9Cy5WmYqsBebnh52nUpm
MUHfP/vFBu8btn4aRjb3ZGM74zkYI+dndRTVdVeSN72+ahsmUPI2JgaQxXABZG12
ZuGR224HwGGALrIuL4xwp9E7PLOR5G62xDtw8mySlwnNR30YwPO7ng/Wi64HtloP
zgsMR6flPri9fcebNaBhlzpBdRfMK5Z3KpIhHtmVdiBnaM8Nvd/WHwlqmuLMc3Gk
L30SgLdTMEZeS1SZD2fJpcjyIMGC7J0R38IC+xo70e0gmu9lZJIQDSri3nDxGGeC
jGHeuLzRL5z7D9Ar7Rt2ueQ5Vfj4oR24qoAATILnsn8JuLwwoC8N9VKejveSswoA
HQBUlwbgsQfZxw9cZX08bVlX5O2ljelAU58VS6Bx9hoh49pwBiFYFIeFd3mqgnkC
AwEAAaNCMEAwHQYDVR0OBBYEFOLJQJ9NzuiaoXzPDj9lxSmIahlRMA8GA1UdEwEB
/wQFMAMBAf8wDgYDVR0PAQH/BAQDAgGGMA0GCSqGSIb3DQEBCwUAA4ICAQDRSVfg
p8xoWLoBDysZzY2wYUWsEe1jUGn4H3++Fo/9nesLqjJHdtJnJO29fDMylyrHBYZm
DRd9FBUb1Ov9H5r2XpdptxolpAqzkT9fNqyL7FeoPueBihhXOYV0GkLH6VsTX4/5
COmSdI31R9KrO9b7eGZONn356ZLpBN79SWP8bfsUcZNnL0dKt7n/HipzcEYwv1ry
L3ml4Y0M2fmyYzeMN2WFcGpcWwlyua1jPLHd+PwyvzeG5LuOmCd+uh8W4XAR8gPf
JWIyJyYYMoSf/wA6E7qaTfRPuBRwIrHKK5DOKcFw9C+df/KQHtZa37dG/OaG+svg
IHZ6uqbL9XzeYqWxi+7egmaKTjowHz+Ay60nugxe19CxVsp3cbK1daFQqUBDF8Io
2c9Si1vIY9RCPqAzekYu9wogRlR+ak8x8YF+QnQ4ZXMn7sZ8uI7XpTrXmKGcjBBV
09tL7ECQ8s1uV9JiDnxXk7Gnbc2dg7sq5+W2O3FYrf3RRbxake5TFW/TRQl1brqQ
XR4EzzffHqhmsYzmIGrv/EhOdJhCrylvLmrH+33RZjEizIYAfmaDDEL0vTSSwxrq
T8p+ck0LcIymSLumoRT2+1hEmRSuqguTaaApJUqlyyvdimYHFngVV3Eb7PVHhPOe
MTd61X8kreS8/f3MboPoDKi3QWwH3b08hpcv0g==
-----END CERTIFICATE-----
