Certificate:
    Data:
        Version: 3 (0x2)
        Serial Number:
            15:c8:bd:65:47:5c:af:b8:97:00:5e:e4:06:d2:bc:9d
        Signature Algorithm: sha1WithRSAEncryption
        Issuer: C = TW, O = "Chunghwa Telecom Co., Ltd.", OU = ePKI Root Certification Authority
        Validity
            Not Before: Dec 20 02:31:27 2004 GMT
            Not After : Dec 20 02:31:27 2034 GMT
        Subject: C = TW, O = "Chunghwa Telecom Co., Ltd.", OU = ePKI Root Certification Authority
        Subject Public Key Info:
            Public Key Algorithm: rsaEncryption
                RSA Public-Key: (4096 bit)
                Modulus:
                    00:e1:25:0f:ee:8d:db:88:33:75:67:cd:ad:1f:7d:
                    3a:4e:6d:9d:d3:2f:14:f3:63:74:cb:01:21:6a:37:
                    ea:84:50:07:4b:26:5b:09:43:6c:21:9e:6a:c8:d5:
                    03:f5:60:69:8f:cc:f0:22:e4:1f:e7:f7:6a:22:31:
                    b7:2c:15:f2:e0:fe:00:6a:43:ff:87:65:c6:b5:1a:
                    c1:a7:4c:6d:22:70:21:8a:31:f2:97:74:89:09:12:
                    26:1c:9e:ca:d9:12:a2:95:3c:da:e9:67:bf:08:a0:
                    64:e3:d6:42:b7:45:ef:97:f4:f6:f5:d7:b5:4a:15:
                    02:58:7d:98:58:4b:60:bc:cd:d7:0d:9a:13:33:53:
                    d1:61:f9:7a:d5:d7:78:b3:9a:33:f7:00:86:ce:1d:
                    4d:94:38:af:a8:ec:78:51:70:8a:5c:10:83:51:21:
                    f7:11:3d:34:86:5e:e5:48:cd:97:81:82:35:4c:19:
                    ec:65:f6:6b:c5:05:a1:ee:47:13:d6:b3:21:27:94:
                    10:0a:d9:24:3b:ba:be:44:13:46:30:3f:97:3c:d8:
                    d7:d7:6a:ee:3b:38:e3:2b:d4:97:0e:b9:1b:e7:07:
                    49:7f:37:2a:f9:77:78:cf:54:ed:5b:46:9d:a3:80:
                    0e:91:43:c1:d6:5b:5f:14:ba:9f:a6:8d:24:47:40:
                    59:bf:72:38:b2:36:6c:37:ff:99:d1:5d:0e:59:0a:
                    ab:69:f7:c0:b2:04:45:7a:54:00:ae:be:53:f6:b5:
                    e7:e1:f8:3c:a3:31:d2:a9:fe:21:52:64:c5:a6:67:
                    f0:75:07:06:94:14:81:55:c6:27:e4:01:8f:17:c1:
                    6a:71:d7:be:4b:fb:94:58:7d:7e:11:33:b1:42:f7:
                    62:6c:18:d6:cf:09:68:3e:7f:6c:f6:1e:8f:62:ad:
                    a5:63:db:09:a7:1f:22:42:41:1e:6f:99:8a:3e:d7:
                    f9:3f:40:7a:79:b0:a5:01:92:d2:9d:3d:08:15:a5:
                    10:01:2d:b3:32:76:a8:95:0d:b3:7a:9a:fb:07:10:
                    78:11:6f:e1:8f:c7:ba:0f:25:1a:74:2a:e5:1c:98:
                    41:99:df:21:87:e8:95:06:6a:0a:b3:6a:47:76:65:
                    f6:3a:cf:8f:62:17:19:7b:0a:28:cd:1a:d2:83:1e:
                    21:c7:2c:bf:be:ff:61:68:b7:67:1b:bb:78:4d:8d:
                    ce:67:e5:e4:c1:8e:b7:23:66:e2:9d:90:75:34:98:
                    a9:36:2b:8a:9a:94:b9:9d:ec:cc:8a:b1:f8:25:89:
                    5c:5a:b6:2f:8c:1f:6d:79:24:a7:52:68:c3:84:35:
                    e2:66:8d:63:0e:25:4d:d5:19:b2:e6:79:37:a7:22:
                    9d:54:31
                Exponent: 65537 (0x10001)
        X509v3 extensions:
            X509v3 Subject Key Identifier: 
                1E:0C:F7:B6:67:F2:E1:92:26:09:45:C0:55:39:2E:77:3F:42:4A:A2
            X509v3 Basic Constraints: 
                CA:TRUE
            setCext-hashedRoot: 
                0/0-...0...+......0...g*.....E...
V|.[x....S.....
    Signature Algorithm: sha1WithRSAEncryption
         09:b3:83:53:59:01:3e:95:49:b9:f1:81:ba:f9:76:20:23:b5:
         27:60:74:d4:6a:99:34:5e:6c:00:53:d9:9f:f2:a6:b1:24:07:
         44:6a:2a:c6:a5:8e:78:12:e8:47:d9:58:1b:13:2a:5e:79:9b:
         9f:0a:2a:67:a6:25:3f:06:69:56:73:c3:8a:66:48:fb:29:81:
         57:74:06:ca:9c:ea:28:e8:38:67:26:2b:f1:d5:b5:3f:65:93:
         f8:36:5d:8e:8d:8d:40:20:87:19:ea:ef:27:c0:3d:b4:39:0f:
         25:7b:68:50:74:55:9c:0c:59:7d:5a:3d:41:94:25:52:08:e0:
         47:2c:15:31:19:d5:bf:07:55:c6:bb:12:b5:97:f4:5f:83:85:
         ba:71:c1:d9:6c:81:11:76:0a:0a:b0:bf:82:97:f7:ea:3d:fa:
         fa:ec:2d:a9:28:94:3b:56:dd:d2:51:2e:ae:c0:bd:08:15:8c:
         77:52:34:96:d6:9b:ac:d3:1d:8e:61:0f:35:7b:9b:ae:39:69:
         0b:62:60:40:20:36:8f:af:fb:36:ee:2d:08:4a:1d:b8:bf:9b:
         5c:f8:ea:a5:1b:a0:73:a6:d8:f8:6e:e0:33:04:5f:68:aa:27:
         87:ed:d9:c1:90:9c:ed:bd:e3:6a:35:af:63:df:ab:18:d9:ba:
         e6:e9:4a:ea:50:8a:0f:61:93:1e:e2:2d:19:e2:30:94:35:92:
         5d:0e:b6:07:af:19:80:8f:47:90:51:4b:2e:4d:dd:85:e2:d2:
         0a:52:0a:17:9a:fc:1a:b0:50:02:e5:01:a3:63:37:21:4c:44:
         c4:9b:51:99:11:0e:73:9c:06:8f:54:2e:a7:28:5e:44:39:87:
         56:2d:37:bd:85:44:94:e1:0c:4b:2c:9c:c3:92:85:34:61:cb:
         0f:b8:9b:4a:43:52:fe:34:3a:7d:b8:e9:29:dc:76:a9:c8:30:
         f8:14:71:80:c6:1e:36:48:74:22:41:5c:87:82:e8:18:71:8b:
         41:89:44:e7:7e:58:5b:a8:b8:8d:13:e9:a7:6c:c3:47:ed:b3:
         1a:9d:62:ae:8d:82:ea:94:9e:dd:59:10:c3:ad:dd:e2:4d:e3:
         31:d5:c7:ec:e8:f2:b0:fe:92:1e:16:0a:1a:fc:d9:f3:f8:27:
         b6:c9:be:1d:b4:6c:64:90:7f:f4:e4:c4:5b:d7:37:ae:42:0e:
         dd:a4:1a:6f:7c:88:54:c5:16:6e:e1:7a:68:2e:f8:3a:bf:0d:
         a4:3c:89:3b:78:a7:4e:63:83:04:21:08:67:8d:f2:82:49:d0:
         5b:fd:b1:cd:0f:83:84:d4:3e:20:85:f7:4a:3d:2b:9c:fd:2a:
         0a:09:4d:ea:81:f8:11:9c
-----BEGIN CERTIFICATE-----
MIIFsDCCA5igAwIBAgIQFci9ZUdcr7iXAF7kBtK8nTANBgkqhkiG9w0BAQUFADBe
MQswCQYDVQQGEwJUVzEjMCEGA1UECgwaQ2h1bmdod2EgVGVsZWNvbSBDby4sIEx0
ZC4xKjAoBgNVBAsMIWVQS0kgUm9vdCBDZXJ0aWZpY2F0aW9uIEF1dGhvcml0eTAe
Fw0wNDEyMjAwMjMxMjdaFw0zNDEyMjAwMjMxMjdaMF4xCzAJBgNVBAYTAlRXMSMw
IQYDVQQKDBpDaHVuZ2h3YSBUZWxlY29tIENvLiwgTHRkLjEqMCgGA1UECwwhZVBL
SSBSb290IENlcnRpZmljYXRpb24gQXV0aG9yaXR5MIICIjANBgkqhkiG9w0BAQEF
AAOCAg8AMIICCgKCAgEA4SUP7o3biDN1Z82tH306Tm2d0y8U82N0ywEhajfqhFAH
SyZbCUNsIZ5qyNUD9WBpj8zwIuQf5/dqIjG3LBXy4P4AakP/h2XGtRrBp0xtInAh
ijHyl3SJCRImHJ7K2RKilTza6We/CKBk49ZCt0Xvl/T29de1ShUCWH2YWEtgvM3X
DZoTM1PRYfl61dd4s5oz9wCGzh1NlDivqOx4UXCKXBCDUSH3ET00hl7lSM2XgYI1
TBnsZfZrxQWh7kcT1rMhJ5QQCtkkO7q+RBNGMD+XPNjX12ruOzjjK9SXDrkb5wdJ
fzcq+Xd4z1TtW0ado4AOkUPB1ltfFLqfpo0kR0BZv3I4sjZsN/+Z0V0OWQqraffA
sgRFelQArr5T9rXn4fg8ozHSqf4hUmTFpmfwdQcGlBSBVcYn5AGPF8Fqcde+S/uU
WH1+ETOxQvdibBjWzwloPn9s9h6PYq2lY9sJpx8iQkEeb5mKPtf5P0B6ebClAZLS
nT0IFaUQAS2zMnaolQ2zepr7BxB4EW/hj8e6DyUadCrlHJhBmd8hh+iVBmoKs2pH
dmX2Os+PYhcZewoozRrSgx4hxyy/vv9haLdnG7t4TY3OZ+XkwY63I2binZB1NJip
NiuKmpS5nezMirH4JYlcWrYvjB9teSSnUmjDhDXiZo1jDiVN1Rmy5nk3pyKdVDEC
AwEAAaNqMGgwHQYDVR0OBBYEFB4M97Zn8uGSJglFwFU5Lnc/QkqiMAwGA1UdEwQF
MAMBAf8wOQYEZyoHAAQxMC8wLQIBADAJBgUrDgMCGgUAMAcGBWcqAwAABBRFsMLH
ClZ87lt4DJX5GFPBphzYEDANBgkqhkiG9w0BAQUFAAOCAgEACbODU1kBPpVJufGB
uvl2ICO1J2B01GqZNF5sAFPZn/KmsSQHRGoqxqWOeBLoR9lYGxMqXnmbnwoqZ6Yl
PwZpVnPDimZI+ymBV3QGypzqKOg4ZyYr8dW1P2WT+DZdjo2NQCCHGervJ8A9tDkP
JXtoUHRVnAxZfVo9QZQlUgjgRywVMRnVvwdVxrsStZf0X4OFunHB2WyBEXYKCrC/
gpf36j36+uwtqSiUO1bd0lEursC9CBWMd1I0ltabrNMdjmEPNXubrjlpC2JgQCA2
j6/7Nu4tCEoduL+bXPjqpRugc6bY+G7gMwRfaKonh+3ZwZCc7b3jajWvY9+rGNm6
5ulK6lCKD2GTHuItGeIwlDWSXQ62B68ZgI9HkFFLLk3dheLSClIKF5r8GrBQAuUB
o2M3IUxExJtRmREOc5wGj1QupyheRDmHVi03vYVElOEMSyycw5KFNGHLD7ibSkNS
/jQ6fbjpKdx2qcgw+BRxgMYeNkh0IkFch4LoGHGLQYlE535YW6i4jRPpp2zDR+2z
Gp1iro2C6pSe3VkQw63d4k3jMdXH7OjysP6SHhYKGvzZ8/gntsm+HbRsZJB/9OTE
W9c3rkIO3aQab3yIVMUWbuF6aC74Or8NpDyJO3inTmODBCEIZ43ygknQW/2xzQ+D
hNQ+IIX3Sj0rnP0qCglN6oH4EZw=
-----END CERTIFICATE-----
