Certificate:
    Data:
        Version: 3 (0x2)
        Serial Number:
            6e:47:a9:c6:5a:b3:e7:20:c5:30:9a:3f:68:52:f2:6f
        Signature Algorithm: sha384WithRSAEncryption
        Issuer: C = US, O = Google Trust Services LLC, CN = GTS Root R2
        Validity
            Not Before: Jun 22 00:00:00 2016 GMT
            Not After : Jun 22 00:00:00 2036 GMT
        Subject: C = US, O = Google Trust Services LLC, CN = GTS Root R2
        Subject Public Key Info:
            Public Key Algorithm: rsaEncryption
                RSA Public-Key: (4096 bit)
                Modulus:
                    00:ce:de:fd:a6:fb:ec:ec:14:34:3c:07:06:5a:6c:
                    59:f7:19:35:dd:f7:c1:9d:55:aa:d3:cd:3b:a4:93:
                    72:ef:0a:fa:6d:9d:f6:f0:85:80:5b:a1:48:52:9f:
                    39:c5:b7:ee:28:ac:ef:cb:76:68:14:b9:df:ad:01:
                    6c:99:1f:c4:22:1d:9f:fe:72:77:e0:2c:5b:af:e4:
                    04:bf:4f:72:a0:1a:34:98:e8:39:68:ec:95:25:7b:
                    76:a1:e6:69:b9:85:19:bd:89:8c:fe:ad:ed:36:ea:
                    73:bc:ff:83:e2:cb:7d:c1:d2:ce:4a:b3:8d:05:9e:
                    8b:49:93:df:c1:5b:d0:6e:5e:f0:2e:30:2e:82:fc:
                    fa:bc:b4:17:0a:48:e5:88:9b:c5:9b:6b:de:b0:ca:
                    b4:03:f0:da:f4:90:b8:65:64:f7:5c:4c:ad:e8:7e:
                    66:5e:99:d7:b8:c2:3e:c8:d0:13:9d:ad:ee:e4:45:
                    7b:89:55:f7:8a:1f:62:52:84:12:b3:c2:40:97:e3:
                    8a:1f:47:91:a6:74:5a:d2:f8:b1:63:28:10:b8:b3:
                    09:b8:56:77:40:a2:26:98:79:c6:fe:df:25:ee:3e:
                    e5:a0:7f:d4:61:0f:51:4b:3c:3f:8c:da:e1:70:74:
                    d8:c2:68:a1:f9:c1:0c:e9:a1:e2:7f:bb:55:3c:76:
                    06:ee:6a:4e:cc:92:88:30:4d:9a:bd:4f:0b:48:9a:
                    84:b5:98:a3:d5:fb:73:c1:57:61:dd:28:56:75:13:
                    ae:87:8e:e7:0c:51:09:10:75:88:4c:bc:8d:f9:7b:
                    3c:d4:22:48:1f:2a:dc:eb:6b:bb:44:b1:cb:33:71:
                    32:46:af:ad:4a:f1:8c:e8:74:3a:ac:e7:1a:22:73:
                    80:d2:30:f7:25:42:c7:22:3b:3b:12:ad:96:2e:c6:
                    c3:76:07:aa:20:b7:35:49:57:e9:92:49:e8:76:16:
                    72:31:67:2b:96:7e:8a:a3:c7:94:56:22:bf:6a:4b:
                    7e:01:21:b2:23:32:df:e4:9a:44:6d:59:5b:5d:f5:
                    00:a0:1c:9b:c6:78:97:8d:90:ff:9b:c8:aa:b4:af:
                    11:51:39:5e:d9:fb:67:ad:d5:5b:11:9d:32:9a:1b:
                    bd:d5:ba:5b:a5:c9:cb:25:69:53:55:27:5c:e0:ca:
                    36:cb:88:61:fb:1e:b7:d0:cb:ee:16:fb:d3:a6:4c:
                    de:92:a5:d4:e2:df:f5:06:54:de:2e:9d:4b:b4:93:
                    30:aa:81:ce:dd:1a:dc:51:73:0d:4f:70:e9:e5:b6:
                    16:21:19:79:b2:e6:89:0b:75:64:ca:d5:ab:bc:09:
                    c1:18:a1:ff:d4:54:a1:85:3c:fd:14:24:03:b2:87:
                    d3:a4:b7
                Exponent: 65537 (0x10001)
        X509v3 extensions:
            X509v3 Key Usage: critical
                Certificate Sign, CRL Sign
            X509v3 Basic Constraints: critical
                CA:TRUE
            X509v3 Subject Key Identifier: 
                BB:FF:CA:8E:23:9F:4F:99:CA:DB:E2:68:A6:A5:15:27:17:1E:D9:0E
    Signature Algorithm: sha384WithRSAEncryption
         b6:69:f0:a6:77:fe:9e:ee:0b:81:ad:e1:c0:a9:c7:f9:35:1d:
         40:82:ab:e6:04:b4:df:cb:f7:1d:0f:83:f0:7e:13:4d:8d:8c:
         ee:e3:33:22:c3:39:fc:40:df:6e:41:4b:42:53:be:16:88:f1:
         d2:38:5e:c4:68:99:1c:98:52:93:8c:e7:68:ed:1b:6a:73:7a:
         05:40:4d:7f:65:3b:d6:58:f1:ce:83:47:60:e3:ff:97:a9:9c:
         60:77:18:55:b5:7e:08:93:cf:d0:f6:3c:67:03:15:61:09:f9:
         81:79:f5:ec:53:a4:9f:c9:8f:01:8b:73:c4:77:76:dc:83:a2:
         f5:0c:49:1a:a8:76:de:92:9b:64:f8:b3:2c:c5:27:d3:07:c0:
         08:80:a4:98:92:e3:01:96:02:aa:02:ee:8f:3b:c5:d1:6d:0a:
         33:30:73:78:b9:4f:54:16:bf:0b:07:a1:a4:5c:e6:cb:c9:5c:
         84:8f:0f:e0:15:77:2c:7e:26:7e:da:c4:4b:db:a7:16:77:07:
         b0:cd:75:e8:72:42:d6:95:84:9d:86:83:f2:e4:90:cd:09:47:
         d4:8b:03:70:da:5a:c6:03:42:f4:ed:37:a2:f0:1b:50:54:4b:
         0e:d8:84:de:19:28:99:81:47:ae:09:1b:3f:48:d1:c3:6f:e2:
         b0:60:17:f5:ee:23:02:a5:da:00:5b:6d:90:ab:ee:a2:e9:1b:
         3b:e9:c7:44:27:45:8e:6b:9f:f5:a4:84:bc:77:f9:6b:97:ac:
         3e:51:45:a2:11:a6:cc:85:ee:0a:68:f2:3e:50:38:7a:24:62:
         1e:17:20:37:6d:6a:4d:b7:09:9b:c9:fc:a4:58:f5:b6:fb:9c:
         4e:18:bb:95:02:e7:a1:ad:9b:07:ee:36:6b:24:d2:39:86:c1:
         93:83:50:d2:81:46:a8:5f:62:57:2c:bb:6c:64:88:08:6e:ef:
         13:54:5f:dd:2d:c4:67:63:d3:cf:89:37:bf:9d:20:f4:fb:7a:
         83:9b:a0:1e:81:00:50:c2:e4:0c:22:59:52:10:ed:43:56:87:
         00:f8:14:52:a7:1d:8b:93:8c:a2:4d:46:7f:27:c6:71:9b:24:
         de:e4:da:86:8b:0d:7e:6b:20:c1:c0:9e:e1:65:d8:6a:a3:a6:
         e8:85:8b:3a:07:08:1c:ba:f5:8f:55:9a:18:75:7e:e5:ec:81:
         66:d1:21:73:a1:35:44:0b:80:3d:5b:9c:5e:6f:2a:17:96:d1:
         83:23:88:66:6d:e6:86:e2:70:32:2f:52:22:e7:c8:e7:7f:c4:
         2c:60:5d:2f:c3:af:9e:45:05:c3:84:02:b7:fd:2c:08:52:4f:
         82:dd:a3:f0:d4:86:09:02
-----BEGIN CERTIFICATE-----
MIIFWjCCA0KgAwIBAgIQbkepxlqz5yDFMJo/aFLybzANBgkqhkiG9w0BAQwFADBH
MQswCQYDVQQGEwJVUzEiMCAGA1UEChMZR29vZ2xlIFRydXN0IFNlcnZpY2VzIExM
QzEUMBIGA1UEAxMLR1RTIFJvb3QgUjIwHhcNMTYwNjIyMDAwMDAwWhcNMzYwNjIy
MDAwMDAwWjBHMQswCQYDVQQGEwJVUzEiMCAGA1UEChMZR29vZ2xlIFRydXN0IFNl
cnZpY2VzIExMQzEUMBIGA1UEAxMLR1RTIFJvb3QgUjIwggIiMA0GCSqGSIb3DQEB
AQUAA4ICDwAwggIKAoICAQDO3v2m++zsFDQ8BwZabFn3GTXd98GdVarTzTukk3Lv
CvptnfbwhYBboUhSnznFt+4orO/LdmgUud+tAWyZH8QiHZ/+cnfgLFuv5AS/T3Kg
GjSY6Dlo7JUle3ah5mm5hRm9iYz+re026nO8/4Piy33B0s5Ks40FnotJk9/BW9Bu
XvAuMC6C/Pq8tBcKSOWIm8Wba96wyrQD8Nr0kLhlZPdcTK3ofmZemde4wj7I0BOd
re7kRXuJVfeKH2JShBKzwkCX44ofR5GmdFrS+LFjKBC4swm4VndAoiaYecb+3yXu
PuWgf9RhD1FLPD+M2uFwdNjCaKH5wQzpoeJ/u1U8dgbuak7MkogwTZq9TwtImoS1
mKPV+3PBV2HdKFZ1E66HjucMUQkQdYhMvI35ezzUIkgfKtzra7tEscszcTJGr61K
8YzodDqs5xoic4DSMPclQsciOzsSrZYuxsN2B6ogtzVJV+mSSeh2FnIxZyuWfoqj
x5RWIr9qS34BIbIjMt/kmkRtWVtd9QCgHJvGeJeNkP+byKq0rxFROV7Z+2et1VsR
nTKaG73VululycslaVNVJ1zgyjbLiGH7HrfQy+4W+9OmTN6SpdTi3/UGVN4unUu0
kzCqgc7dGtxRcw1PcOnlthYhGXmy5okLdWTK1au8CcEYof/UVKGFPP0UJAOyh9Ok
twIDAQABo0IwQDAOBgNVHQ8BAf8EBAMCAQYwDwYDVR0TAQH/BAUwAwEB/zAdBgNV
HQ4EFgQUu//KjiOfT5nK2+JopqUVJxce2Q4wDQYJKoZIhvcNAQEMBQADggIBALZp
8KZ3/p7uC4Gt4cCpx/k1HUCCq+YEtN/L9x0Pg/B+E02NjO7jMyLDOfxA325BS0JT
vhaI8dI4XsRomRyYUpOM52jtG2pzegVATX9lO9ZY8c6DR2Dj/5epnGB3GFW1fgiT
z9D2PGcDFWEJ+YF59exTpJ/JjwGLc8R3dtyDovUMSRqodt6Sm2T4syzFJ9MHwAiA
pJiS4wGWAqoC7o87xdFtCjMwc3i5T1QWvwsHoaRc5svJXISPD+AVdyx+Jn7axEvb
pxZ3B7DNdehyQtaVhJ2Gg/LkkM0JR9SLA3DaWsYDQvTtN6LwG1BUSw7YhN4ZKJmB
R64JGz9I0cNv4rBgF/XuIwKl2gBbbZCr7qLpGzvpx0QnRY5rn/WkhLx3+WuXrD5R
RaIRpsyF7gpo8j5QOHokYh4XIDdtak23CZvJ/KRY9bb7nE4Yu5UC56GtmwfuNmsk
0jmGwZODUNKBRqhfYlcsu2xkiAhu7xNUX90txGdj08+JN7+dIPT7eoOboB6BAFDC
5AwiWVIQ7UNWhwD4FFKnHYuTjKJNRn8nxnGbJN7k2oaLDX5rIMHAnuFl2GqjpuiF
izoHCBy69Y9Vmhh1fuXsgWbRIXOhNUQLgD1bnF5vKheW0YMjiGZt5obicDIvUiLn
yOd/xCxgXS/Dr55FBcOEArf9LAhST4Ldo/DUhgkC
-----END CERTIFICATE-----
