Certificate:
    Data:
        Version: 3 (0x2)
        Serial Number: 1 (0x1)
        Signature Algorithm: sha1WithRSAEncryption
        Issuer: C = GB, ST = Greater Manchester, L = Salford, O = Comodo CA Limited, CN = AAA Certificate Services
        Validity
            Not Before: Jan  1 00:00:00 2004 GMT
            Not After : Dec 31 23:59:59 2028 GMT
        Subject: C = GB, ST = Greater Manchester, L = Salford, O = Comodo CA Limited, CN = AAA Certificate Services
        Subject Public Key Info:
            Public Key Algorithm: rsaEncryption
                RSA Public-Key: (2048 bit)
                Modulus:
                    00:be:40:9d:f4:6e:e1:ea:76:87:1c:4d:45:44:8e:
                    be:46:c8:83:06:9d:c1:2a:fe:18:1f:8e:e4:02:fa:
                    f3:ab:5d:50:8a:16:31:0b:9a:06:d0:c5:70:22:cd:
                    49:2d:54:63:cc:b6:6e:68:46:0b:53:ea:cb:4c:24:
                    c0:bc:72:4e:ea:f1:15:ae:f4:54:9a:12:0a:c3:7a:
                    b2:33:60:e2:da:89:55:f3:22:58:f3:de:dc:cf:ef:
                    83:86:a2:8c:94:4f:9f:68:f2:98:90:46:84:27:c7:
                    76:bf:e3:cc:35:2c:8b:5e:07:64:65:82:c0:48:b0:
                    a8:91:f9:61:9f:76:20:50:a8:91:c7:66:b5:eb:78:
                    62:03:56:f0:8a:1a:13:ea:31:a3:1e:a0:99:fd:38:
                    f6:f6:27:32:58:6f:07:f5:6b:b8:fb:14:2b:af:b7:
                    aa:cc:d6:63:5f:73:8c:da:05:99:a8:38:a8:cb:17:
                    78:36:51:ac:e9:9e:f4:78:3a:8d:cf:0f:d9:42:e2:
                    98:0c:ab:2f:9f:0e:01:de:ef:9f:99:49:f1:2d:df:
                    ac:74:4d:1b:98:b5:47:c5:e5:29:d1:f9:90:18:c7:
                    62:9c:be:83:c7:26:7b:3e:8a:25:c7:c0:dd:9d:e6:
                    35:68:10:20:9d:8f:d8:de:d2:c3:84:9c:0d:5e:e8:
                    2f:c9
                Exponent: 65537 (0x10001)
        X509v3 extensions:
            X509v3 Subject Key Identifier: 
                A0:11:0A:23:3E:96:F1:07:EC:E2:AF:29:EF:82:A5:7F:D0:30:A4:B4
            X509v3 Key Usage: critical
                Certificate Sign, CRL Sign
            X509v3 Basic Constraints: critical
                CA:TRUE
            X509v3 CRL Distribution Points: 

                Full Name:
                  URI:http://crl.comodoca.com/AAACertificateServices.crl

                Full Name:
                  URI:http://crl.comodo.net/AAACertificateServices.crl

    Signature Algorithm: sha1WithRSAEncryption
         08:56:fc:02:f0:9b:e8:ff:a4:fa:d6:7b:c6:44:80:ce:4f:c4:
         c5:f6:00:58:cc:a6:b6:bc:14:49:68:04:76:e8:e6:ee:5d:ec:
         02:0f:60:d6:8d:50:18:4f:26:4e:01:e3:e6:b0:a5:ee:bf:bc:
         74:54:41:bf:fd:fc:12:b8:c7:4f:5a:f4:89:60:05:7f:60:b7:
         05:4a:f3:f6:f1:c2:bf:c4:b9:74:86:b6:2d:7d:6b:cc:d2:f3:
         46:dd:2f:c6:e0:6a:c3:c3:34:03:2c:7d:96:dd:5a:c2:0e:a7:
         0a:99:c1:05:8b:ab:0c:2f:f3:5c:3a:cf:6c:37:55:09:87:de:
         53:40:6c:58:ef:fc:b6:ab:65:6e:04:f6:1b:dc:3c:e0:5a:15:
         c6:9e:d9:f1:59:48:30:21:65:03:6c:ec:e9:21:73:ec:9b:03:
         a1:e0:37:ad:a0:15:18:8f:fa:ba:02:ce:a7:2c:a9:10:13:2c:
         d4:e5:08:26:ab:22:97:60:f8:90:5e:74:d4:a2:9a:53:bd:f2:
         a9:68:e0:a2:6e:c2:d7:6c:b1:a3:0f:9e:bf:eb:68:e7:56:f2:
         ae:f2:e3:2b:38:3a:09:81:b5:6b:85:d7:be:2d:ed:3f:1a:b7:
         b2:63:e2:f5:62:2c:82:d4:6a:00:41:50:f1:39:83:9f:95:e9:
         36:96:98:6e
-----BEGIN CERTIFICATE-----
MIIEMjCCAxqgAwIBAgIBATANBgkqhkiG9w0BAQUFADB7MQswCQYDVQQGEwJHQjEb
MBkGA1UECAwSR3JlYXRlciBNYW5jaGVzdGVyMRAwDgYDVQQHDAdTYWxmb3JkMRow
GAYDVQQKDBFDb21vZG8gQ0EgTGltaXRlZDEhMB8GA1UEAwwYQUFBIENlcnRpZmlj
YXRlIFNlcnZpY2VzMB4XDTA0MDEwMTAwMDAwMFoXDTI4MTIzMTIzNTk1OVowezEL
MAkGA1UEBhMCR0IxGzAZBgNVBAgMEkdyZWF0ZXIgTWFuY2hlc3RlcjEQMA4GA1UE
BwwHU2FsZm9yZDEaMBgGA1UECgwRQ29tb2RvIENBIExpbWl0ZWQxITAfBgNVBAMM
GEFBQSBDZXJ0aWZpY2F0ZSBTZXJ2aWNlczCCASIwDQYJKoZIhvcNAQEBBQADggEP
ADCCAQoCggEBAL5AnfRu4ep2hxxNRUSOvkbIgwadwSr+GB+O5AL686tdUIoWMQua
BtDFcCLNSS1UY8y2bmhGC1Pqy0wkwLxyTurxFa70VJoSCsN6sjNg4tqJVfMiWPPe
3M/vg4aijJRPn2jymJBGhCfHdr/jzDUsi14HZGWCwEiwqJH5YZ92IFCokcdmtet4
YgNW8IoaE+oxox6gmf049vYnMlhvB/VruPsUK6+3qszWY19zjNoFmag4qMsXeDZR
rOme9Hg6jc8P2ULimAyrL58OAd7vn5lJ8S3frHRNG5i1R8XlKdH5kBjHYpy+g8cm
ez6KJcfA3Z3mNWgQIJ2P2N7Sw4ScDV7oL8kCAwEAAaOBwDCBvTAdBgNVHQ4EFgQU
oBEKIz6W8Qfs4q8p74Klf9AwpLQwDgYDVR0PAQH/BAQDAgEGMA8GA1UdEwEB/wQF
MAMBAf8wewYDVR0fBHQwcjA4oDagNIYyaHR0cDovL2NybC5jb21vZG9jYS5jb20v
QUFBQ2VydGlmaWNhdGVTZXJ2aWNlcy5jcmwwNqA0oDKGMGh0dHA6Ly9jcmwuY29t
b2RvLm5ldC9BQUFDZXJ0aWZpY2F0ZVNlcnZpY2VzLmNybDANBgkqhkiG9w0BAQUF
AAOCAQEACFb8AvCb6P+k+tZ7xkSAzk/ExfYAWMymtrwUSWgEdujm7l3sAg9g1o1Q
GE8mTgHj5rCl7r+8dFRBv/38ErjHT1r0iWAFf2C3BUrz9vHCv8S5dIa2LX1rzNLz
Rt0vxuBqw8M0Ayx9lt1awg6nCpnBBYurDC/zXDrPbDdVCYfeU0BsWO/8tqtlbgT2
G9w84FoVxp7Z8VlIMCFlA2zs6SFz7JsDoeA3raAVGI/6ugLOpyypEBMs1OUIJqsi
l2D4kF501KKaU73yqWjgom7C12yxow+ev+to51byrvLjKzg6CYG1a4XXvi3tPxq3
smPi9WIsgtRqAEFQ8TmDn5XpNpaYbg==
-----END CERTIFICATE-----
