Certificate:
    Data:
        Version: 3 (0x2)
        Serial Number:
            5d:93:8d:30:67:36:c8:06:1d:1a:c7:54:84:69:07
        Signature Algorithm: sha256WithRSAEncryption
        Issuer: C = ES, O = FNMT-RCM, OU = AC RAIZ FNMT-RCM
        Validity
            Not Before: Oct 29 15:59:56 2008 GMT
            Not After : Jan  1 00:00:00 2030 GMT
        Subject: C = ES, O = FNMT-RCM, OU = AC RAIZ FNMT-RCM
        Subject Public Key Info:
            Public Key Algorithm: rsaEncryption
                RSA Public-Key: (4096 bit)
                Modulus:
                    00:ba:71:80:7a:4c:86:6e:7f:c8:13:6d:c0:c6:7d:
                    1c:00:97:8f:2c:0c:23:bb:10:9a:40:a9:1a:b7:87:
                    88:f8:9b:56:6a:fb:e6:7b:8e:8b:92:8e:a7:25:5d:
                    59:11:db:36:2e:b7:51:17:1f:a9:08:1f:04:17:24:
                    58:aa:37:4a:18:df:e5:39:d4:57:fd:d7:c1:2c:91:
                    01:91:e2:22:d4:03:c0:58:fc:77:47:ec:8f:3e:74:
                    43:ba:ac:34:8d:4d:38:76:67:8e:b0:c8:6f:30:33:
                    58:71:5c:b4:f5:6b:6e:d4:01:50:b8:13:7e:6c:4a:
                    a3:49:d1:20:19:ee:bc:c0:29:18:65:a7:de:fe:ef:
                    dd:0a:90:21:e7:1a:67:92:42:10:98:5f:4f:30:bc:
                    3e:1c:45:b4:10:d7:68:40:14:c0:40:fa:e7:77:17:
                    7a:e6:0b:8f:65:5b:3c:d9:9a:52:db:b5:bd:9e:46:
                    cf:3d:eb:91:05:02:c0:96:b2:76:4c:4d:10:96:3b:
                    92:fa:9c:7f:0f:99:df:be:23:35:45:1e:02:5c:fe:
                    b5:a8:9b:99:25:da:5e:f3:22:c3:39:f5:e4:2a:2e:
                    d3:c6:1f:c4:6c:aa:c5:1c:6a:01:05:4a:2f:d2:c5:
                    c1:a8:34:26:5d:66:a5:d2:02:21:f9:18:b7:06:f5:
                    4e:99:6f:a8:ab:4c:51:e8:cf:50:18:c5:77:c8:39:
                    09:2c:49:92:32:99:a8:bb:17:17:79:b0:5a:c5:e6:
                    a3:c4:59:65:47:35:83:5e:a9:e8:35:0b:99:bb:e4:
                    cd:20:c6:9b:4a:06:39:b5:68:fc:22:ba:ee:55:8c:
                    2b:4e:ea:f3:b1:e3:fc:b6:99:9a:d5:42:fa:71:4d:
                    08:cf:87:1e:6a:71:7d:f9:d3:b4:e9:a5:71:81:7b:
                    c2:4e:47:96:a5:f6:76:85:a3:28:8f:e9:80:6e:81:
                    53:a5:6d:5f:b8:48:f9:c2:f9:36:a6:2e:49:ff:b8:
                    96:c2:8c:07:b3:9b:88:58:fc:eb:1b:1c:de:2d:70:
                    e2:97:92:30:a1:89:e3:bc:55:a8:27:d6:4b:ed:90:
                    ad:8b:fa:63:25:59:2d:a8:35:dd:ca:97:33:bc:e5:
                    cd:c7:9d:d1:ec:ef:5e:0e:4a:90:06:26:63:ad:b9:
                    d9:35:2d:07:ba:76:65:2c:ac:57:8f:7d:f4:07:94:
                    d7:81:02:96:5d:a3:07:49:d5:7a:d0:57:f9:1b:e7:
                    53:46:75:aa:b0:79:42:cb:68:71:08:e9:60:bd:39:
                    69:ce:f4:af:c3:56:40:c7:ad:52:a2:09:e4:6f:86:
                    47:8a:1f:eb:28:27:5d:83:20:af:04:c9:6c:56:9a:
                    8b:46:f5
                Exponent: 65537 (0x10001)
        X509v3 extensions:
            X509v3 Basic Constraints: critical
                CA:TRUE
            X509v3 Key Usage: critical
                Certificate Sign, CRL Sign
            X509v3 Subject Key Identifier: 
                F7:7D:C5:FD:C4:E8:9A:1B:77:64:A7:F5:1D:A0:CC:BF:87:60:9A:6D
            X509v3 Certificate Policies: 
                Policy: X509v3 Any Policy
                  CPS: http://www.cert.fnmt.es/dpcs/

    Signature Algorithm: sha256WithRSAEncryption
         07:90:4a:df:f3:23:4e:f0:c3:9c:51:65:9b:9c:22:a2:8a:0c:
         85:f3:73:29:6b:4d:fe:01:e2:a9:0c:63:01:bf:04:67:a5:9d:
         98:5f:fd:01:13:fa:ec:9a:62:e9:86:fe:b6:62:d2:6e:4c:94:
         fb:c0:75:45:7c:65:0c:f8:b2:37:cf:ac:0f:cf:8d:6f:f9:19:
         f7:8f:ec:1e:f2:70:9e:f0:ca:b8:ef:b7:ff:76:37:76:5b:f6:
         6e:88:f3:af:62:32:22:93:0d:3a:6a:8e:14:66:0c:2d:53:74:
         57:65:1e:d5:b2:dd:23:81:3b:a5:66:23:27:67:09:8f:e1:77:
         aa:43:cd:65:51:08:ed:51:58:fe:e6:39:f9:cb:47:84:a4:15:
         f1:76:bb:a4:ee:a4:3b:c4:5f:ef:b2:33:96:11:18:b7:c9:65:
         be:18:e1:a3:a4:dc:fa:18:f9:d3:bc:13:9b:39:7a:34:ba:d3:
         41:fb:fa:32:8a:2a:b7:2b:86:0b:69:83:38:be:cd:8a:2e:0b:
         70:ad:8d:26:92:ee:1e:f5:01:2b:0a:d9:d6:97:9b:6e:e0:a8:
         19:1c:3a:21:8b:0c:1e:40:ad:03:e7:dd:66:7e:f5:b9:20:0d:
         03:e8:96:f9:82:45:d4:39:e0:a0:00:5d:d7:98:e6:7d:9e:67:
         73:c3:9a:2a:f7:ab:8b:a1:3a:14:ef:34:bc:52:0e:89:98:9a:
         04:40:84:1d:7e:45:69:93:57:ce:eb:ce:f8:50:7c:4f:1c:6e:
         04:43:9b:f9:d6:3b:23:18:e9:ea:8e:d1:4d:46:8d:f1:3b:e4:
         6a:ca:ba:fb:23:b7:9b:fa:99:01:29:5a:58:5a:2d:e3:f9:d4:
         6d:0e:26:ad:c1:6e:34:bc:32:f8:0c:05:fa:65:a3:db:3b:37:
         83:22:e9:d6:dc:72:33:fd:5d:f2:20:bd:76:3c:23:da:28:f7:
         f9:1b:eb:59:64:d5:dc:5f:72:7e:20:fc:cd:89:b5:90:67:4d:
         62:7a:3f:4e:ad:1d:c3:39:fe:7a:f4:28:16:df:41:f6:48:80:
         05:d7:0f:51:79:ac:10:ab:d4:ec:03:66:e6:6a:b0:ba:31:92:
         42:40:6a:be:3a:d3:72:e1:6a:37:55:bc:ac:1d:95:b7:69:61:
         f2:43:91:74:e6:a0:d3:0a:24:46:a1:08:af:d6:da:45:19:96:
         d4:53:1d:5b:84:79:f0:c0:f7:47:ef:8b:8f:c5:06:ae:9d:4c:
         62:9d:ff:46:04:f8:d3:c9:b6:10:25:40:75:fe:16:aa:c9:4a:
         60:86:2f:ba:ef:30:77:e4:54:e2:b8:84:99:58:80:aa:13:8b:
         51:3a:4f:48:f6:8b:b6:b3
-----BEGIN CERTIFICATE-----
MIIFgzCCA2ugAwIBAgIPXZONMGc2yAYdGsdUhGkHMA0GCSqGSIb3DQEBCwUAMDsx
CzAJBgNVBAYTAkVTMREwDwYDVQQKDAhGTk1ULVJDTTEZMBcGA1UECwwQQUMgUkFJ
WiBGTk1ULVJDTTAeFw0wODEwMjkxNTU5NTZaFw0zMDAxMDEwMDAwMDBaMDsxCzAJ
BgNVBAYTAkVTMREwDwYDVQQKDAhGTk1ULVJDTTEZMBcGA1UECwwQQUMgUkFJWiBG
Tk1ULVJDTTCCAiIwDQYJKoZIhvcNAQEBBQADggIPADCCAgoCggIBALpxgHpMhm5/
yBNtwMZ9HACXjywMI7sQmkCpGreHiPibVmr75nuOi5KOpyVdWRHbNi63URcfqQgf
BBckWKo3Shjf5TnUV/3XwSyRAZHiItQDwFj8d0fsjz50Q7qsNI1NOHZnjrDIbzAz
WHFctPVrbtQBULgTfmxKo0nRIBnuvMApGGWn3v7v3QqQIecaZ5JCEJhfTzC8PhxF
tBDXaEAUwED653cXeuYLj2VbPNmaUtu1vZ5Gzz3rkQUCwJaydkxNEJY7kvqcfw+Z
374jNUUeAlz+taibmSXaXvMiwzn15Cou08YfxGyqxRxqAQVKL9LFwag0Jl1mpdIC
IfkYtwb1TplvqKtMUejPUBjFd8g5CSxJkjKZqLsXF3mwWsXmo8RZZUc1g16p6DUL
mbvkzSDGm0oGObVo/CK67lWMK07q87Hj/LaZmtVC+nFNCM+HHmpxffnTtOmlcYF7
wk5HlqX2doWjKI/pgG6BU6VtX7hI+cL5NqYuSf+4lsKMB7ObiFj86xsc3i1w4peS
MKGJ47xVqCfWS+2QrYv6YyVZLag13cqXM7zlzced0ezvXg5KkAYmY6252TUtB7p2
ZSysV4999AeU14ECll2jB0nVetBX+RvnU0Z1qrB5QstocQjpYL05ac70r8NWQMet
UqIJ5G+GR4of6ygnXYMgrwTJbFaai0b1AgMBAAGjgYMwgYAwDwYDVR0TAQH/BAUw
AwEB/zAOBgNVHQ8BAf8EBAMCAQYwHQYDVR0OBBYEFPd9xf3E6Jobd2Sn9R2gzL+H
YJptMD4GA1UdIAQ3MDUwMwYEVR0gADArMCkGCCsGAQUFBwIBFh1odHRwOi8vd3d3
LmNlcnQuZm5tdC5lcy9kcGNzLzANBgkqhkiG9w0BAQsFAAOCAgEAB5BK3/MjTvDD
nFFlm5wioooMhfNzKWtN/gHiqQxjAb8EZ6WdmF/9ARP67Jpi6Yb+tmLSbkyU+8B1
RXxlDPiyN8+sD8+Nb/kZ94/sHvJwnvDKuO+3/3Y3dlv2bojzr2IyIpMNOmqOFGYM
LVN0V2Ue1bLdI4E7pWYjJ2cJj+F3qkPNZVEI7VFY/uY5+ctHhKQV8Xa7pO6kO8Rf
77IzlhEYt8llvhjho6Tc+hj507wTmzl6NLrTQfv6MooqtyuGC2mDOL7Nii4LcK2N
JpLuHvUBKwrZ1pebbuCoGRw6IYsMHkCtA+fdZn71uSANA+iW+YJF1DngoABd15jm
fZ5nc8OaKveri6E6FO80vFIOiZiaBECEHX5FaZNXzuvO+FB8TxxuBEOb+dY7Ixjp
6o7RTUaN8Tvkasq6+yO3m/qZASlaWFot4/nUbQ4mrcFuNLwy+AwF+mWj2zs3gyLp
1txyM/1d8iC9djwj2ij3+RvrWWTV3F9yfiD8zYm1kGdNYno/Tq0dwzn+evQoFt9B
9kiABdcPUXmsEKvU7ANm5mqwujGSQkBqvjrTcuFqN1W8rB2Vt2lh8kORdOag0wok
RqEIr9baRRmW1FMdW4R58MD3R++Lj8UGrp1MYp3/RgT408m2ECVAdf4WqslKYIYv
uu8wd+RU4riEmViAqhOLUTpPSPaLtrM=
-----END CERTIFICATE-----
