[Created by: generate-chains.py]

Valid certificate chain where the target certificate contains a public key
with a 512-bit modulus (weak).

Certificate:
    Data:
        Version: 3 (0x2)
        Serial Number:
            67:e6:43:1c:a1:b5:ee:5f:34:22:dc:ea:e2:6b:c2:18:43:17:fb:dd
        Signature Algorithm: sha256WithRSAEncryption
        Issuer: CN=Intermediate
        Validity
            Not Before: Nov  3 12:00:00 2020 GMT
            Not After : Nov  3 12:00:00 2021 GMT
        Subject: CN=Target
        Subject Public Key Info:
            Public Key Algorithm: rsaEncryption
                RSA Public-Key: (512 bit)
                Modulus:
                    00:d5:13:bb:52:bf:ca:19:1a:06:19:68:07:1d:e6:
                    87:16:d3:f0:e0:12:ba:a2:b5:2a:3d:ed:b3:64:16:
                    06:a3:50:fc:b0:a4:49:f2:f9:ab:34:ad:4f:db:0a:
                    3d:2b:25:92:86:3f:94:df:fb:fc:54:f2:c7:6d:9e:
                    d2:10:e0:cd:0d
                Exponent: 65537 (0x10001)
        X509v3 extensions:
            X509v3 Subject Key Identifier: 
                E9:D8:44:8D:24:EE:A1:82:18:6F:21:FA:4E:EC:FB:DF:D1:91:57:9D
            X509v3 Authority Key Identifier: 
                keyid:CC:47:D8:FF:8B:67:33:FB:F5:CD:D0:A7:B6:12:A0:19:27:27:D1:57

            Authority Information Access: 
                CA Issuers - URI:http://url-for-aia/Intermediate.cer

            X509v3 CRL Distribution Points: 

                Full Name:
                  URI:http://url-for-crl/Intermediate.crl

            X509v3 Key Usage: critical
                Digital Signature, Key Encipherment
            X509v3 Extended Key Usage: 
                TLS Web Server Authentication, TLS Web Client Authentication
    Signature Algorithm: sha256WithRSAEncryption
         bc:46:62:8e:25:7d:bb:14:b5:c0:c1:17:bb:ac:9d:33:20:24:
         e8:1c:25:eb:58:01:40:c8:b6:f5:24:71:55:de:0b:e4:7d:dd:
         18:f6:96:ee:54:45:0d:b5:c7:d0:fa:b1:1a:61:2b:de:bc:6c:
         b1:57:12:a2:3a:19:ec:0b:7a:83:da:95:ad:ed:60:7a:28:79:
         ae:e4:6f:86:03:73:8f:b2:79:b3:ef:83:00:9c:31:f0:2a:2d:
         14:35:a3:2a:66:ea:65:98:0e:78:37:9c:e3:4a:05:95:cc:18:
         7d:e9:79:37:d1:1f:dc:57:42:7b:ee:43:44:05:2a:a4:04:f1:
         d8:fe:d0:88:80:cd:20:c6:2f:e8:45:19:e6:62:f5:d5:0c:97:
         97:f9:c7:21:bb:80:cd:90:21:86:4c:59:bb:ff:b6:ce:87:2b:
         90:13:11:81:26:f5:d5:f5:ca:3f:d7:61:f9:f1:ec:f5:b1:80:
         95:8a:4c:9d:31:21:5b:d6:8f:0f:b2:f0:a7:23:44:3d:6c:4b:
         7d:6b:63:f8:e9:cb:df:91:1f:05:3f:eb:96:5d:8f:bb:02:4a:
         42:72:ee:32:bb:fe:df:f3:89:36:0a:99:6d:ad:13:ea:55:f3:
         5d:4a:fd:11:3f:c4:47:9f:b5:d1:ac:f2:0d:f2:69:f1:8e:7d:
         83:e5:5f:8f
-----BEGIN CERTIFICATE-----
MIIC2DCCAcCgAwIBAgIUZ+ZDHKG17l80Itzq4mvCGEMX+90wDQYJKoZIhvcNAQEL
BQAwFzEVMBMGA1UEAwwMSW50ZXJtZWRpYXRlMB4XDTIwMTEwMzEyMDAwMFoXDTIx
MTEwMzEyMDAwMFowETEPMA0GA1UEAwwGVGFyZ2V0MFwwDQYJKoZIhvcNAQEBBQAD
SwAwSAJBANUTu1K/yhkaBhloBx3mhxbT8OASuqK1Kj3ts2QWBqNQ/LCkSfL5qzSt
T9sKPSslkoY/lN/7/FTyx22e0hDgzQ0CAwEAAaOB6TCB5jAdBgNVHQ4EFgQU6dhE
jSTuoYIYbyH6Tuz739GRV50wHwYDVR0jBBgwFoAUzEfY/4tnM/v1zdCnthKgGScn
0VcwPwYIKwYBBQUHAQEEMzAxMC8GCCsGAQUFBzAChiNodHRwOi8vdXJsLWZvci1h
aWEvSW50ZXJtZWRpYXRlLmNlcjA0BgNVHR8ELTArMCmgJ6AlhiNodHRwOi8vdXJs
LWZvci1jcmwvSW50ZXJtZWRpYXRlLmNybDAOBgNVHQ8BAf8EBAMCBaAwHQYDVR0l
BBYwFAYIKwYBBQUHAwEGCCsGAQUFBwMCMA0GCSqGSIb3DQEBCwUAA4IBAQC8RmKO
JX27FLXAwRe7rJ0zICToHCXrWAFAyLb1JHFV3gvkfd0Y9pbuVEUNtcfQ+rEaYSve
vGyxVxKiOhnsC3qD2pWt7WB6KHmu5G+GA3OPsnmz74MAnDHwKi0UNaMqZuplmA54
N5zjSgWVzBh96Xk30R/cV0J77kNEBSqkBPHY/tCIgM0gxi/oRRnmYvXVDJeX+cch
u4DNkCGGTFm7/7bOhyuQExGBJvXV9co/12H58ez1sYCVikydMSFb1o8PsvCnI0Q9
bEt9a2P46cvfkR8FP+uWXY+7AkpCcu4yu/7f84k2CpltrRPqVfNdSv0RP8RHn7XR
rPIN8mnxjn2D5V+P
-----END CERTIFICATE-----

Certificate:
    Data:
        Version: 3 (0x2)
        Serial Number:
            4e:42:88:cd:72:5f:2b:00:a2:67:88:f3:ee:8d:e7:a5:6b:77:3c:c6
        Signature Algorithm: sha256WithRSAEncryption
        Issuer: CN=Root
        Validity
            Not Before: Nov  3 12:00:00 2020 GMT
            Not After : Nov  3 12:00:00 2021 GMT
        Subject: CN=Intermediate
        Subject Public Key Info:
            Public Key Algorithm: rsaEncryption
                RSA Public-Key: (2048 bit)
                Modulus:
                    00:bf:5d:ac:94:a4:6d:90:41:e2:b8:a8:23:44:d3:
                    0b:a0:16:0f:a9:d1:86:a6:7d:16:1b:0a:74:78:ef:
                    7e:fd:66:74:8d:d7:9e:d4:6b:ec:82:a7:18:59:1b:
                    a6:36:7d:b3:69:ac:5d:70:74:88:37:49:2a:5b:d2:
                    eb:db:56:de:54:f7:35:5a:3c:b6:b2:69:23:c5:f6:
                    73:95:78:80:8c:62:95:0d:2f:8d:0e:64:e2:66:2a:
                    05:7e:fd:70:23:ad:00:39:6d:2d:33:a7:00:af:37:
                    74:41:bf:67:49:bd:51:c1:54:c8:d3:1e:87:f1:87:
                    13:7a:c0:e4:20:52:15:fc:f1:4c:9e:84:30:72:93:
                    df:0e:71:94:54:7c:12:4e:4a:31:a6:77:94:8b:98:
                    35:02:fa:1f:aa:e8:51:c6:a6:6c:b9:40:3b:2d:a3:
                    3f:01:33:7d:5b:60:b3:db:12:cc:1c:a1:7f:94:4b:
                    3b:b8:2a:13:a2:da:d4:cb:5a:b7:a9:60:90:19:b5:
                    d2:83:c0:a2:84:52:44:61:1f:26:ff:3e:e2:43:32:
                    15:a4:96:33:34:3b:7c:90:4b:f0:db:7d:e8:f4:34:
                    65:60:e1:09:06:5a:1c:8a:89:6c:cc:cc:81:c7:e5:
                    d5:56:24:d6:6f:a1:2c:c8:9f:77:ab:8b:17:0b:98:
                    fe:c5
                Exponent: 65537 (0x10001)
        X509v3 extensions:
            X509v3 Subject Key Identifier: 
                CC:47:D8:FF:8B:67:33:FB:F5:CD:D0:A7:B6:12:A0:19:27:27:D1:57
            X509v3 Authority Key Identifier: 
                keyid:BE:33:72:47:C2:B1:97:41:99:C0:31:57:52:56:0C:B5:53:78:5A:A4

            Authority Information Access: 
                CA Issuers - URI:http://url-for-aia/Root.cer

            X509v3 CRL Distribution Points: 

                Full Name:
                  URI:http://url-for-crl/Root.crl

            X509v3 Key Usage: critical
                Certificate Sign, CRL Sign
            X509v3 Basic Constraints: critical
                CA:TRUE
    Signature Algorithm: sha256WithRSAEncryption
         3a:7f:94:2c:95:be:93:b9:8b:f3:7d:93:b9:42:59:4a:dd:c0:
         dc:1b:97:97:f5:e4:06:c2:bf:5a:6f:04:2b:15:ed:09:05:05:
         db:e7:f1:88:84:f3:14:f3:d9:1d:f2:04:2e:8f:a6:4d:b5:8e:
         89:35:10:5c:cb:6a:8e:f3:0d:ae:92:3f:45:26:d6:ef:62:dc:
         ea:95:0c:af:3d:96:87:6c:91:47:c1:5f:ce:41:2c:c2:63:35:
         6a:78:92:25:2d:70:dc:dc:88:ba:dd:c5:d9:e4:e1:f4:92:d5:
         88:59:9f:dd:c5:51:18:0e:00:12:9e:78:7d:ba:d4:e5:a0:7c:
         c3:f1:bf:5f:45:08:0f:4d:3b:e1:e4:7e:10:24:6a:93:06:5d:
         c0:99:ce:1a:b0:95:a9:99:aa:3f:7d:41:a4:e1:ea:d2:fb:c8:
         76:f3:e3:5f:df:fb:f8:8b:18:86:81:6b:43:fb:5f:6a:c5:06:
         af:c1:2e:a2:58:16:b6:92:34:e2:43:b5:77:ff:5b:25:3d:5d:
         a4:eb:1e:71:95:3f:e7:31:2a:18:3e:67:25:a8:0f:2a:f0:73:
         ba:be:dd:51:f0:d8:9b:dc:a9:d4:52:b7:6a:76:1e:cf:6d:90:
         6e:c3:33:9c:66:8a:fd:dd:48:93:79:e4:1a:ee:2f:fd:af:b4:
         74:ff:15:35
-----BEGIN CERTIFICATE-----
MIIDgDCCAmigAwIBAgIUTkKIzXJfKwCiZ4jz7o3npWt3PMYwDQYJKoZIhvcNAQEL
BQAwDzENMAsGA1UEAwwEUm9vdDAeFw0yMDExMDMxMjAwMDBaFw0yMTExMDMxMjAw
MDBaMBcxFTATBgNVBAMMDEludGVybWVkaWF0ZTCCASIwDQYJKoZIhvcNAQEBBQAD
ggEPADCCAQoCggEBAL9drJSkbZBB4rioI0TTC6AWD6nRhqZ9FhsKdHjvfv1mdI3X
ntRr7IKnGFkbpjZ9s2msXXB0iDdJKlvS69tW3lT3NVo8trJpI8X2c5V4gIxilQ0v
jQ5k4mYqBX79cCOtADltLTOnAK83dEG/Z0m9UcFUyNMeh/GHE3rA5CBSFfzxTJ6E
MHKT3w5xlFR8Ek5KMaZ3lIuYNQL6H6roUcambLlAOy2jPwEzfVtgs9sSzByhf5RL
O7gqE6La1Mtat6lgkBm10oPAooRSRGEfJv8+4kMyFaSWMzQ7fJBL8Nt96PQ0ZWDh
CQZaHIqJbMzMgcfl1VYk1m+hLMifd6uLFwuY/sUCAwEAAaOByzCByDAdBgNVHQ4E
FgQUzEfY/4tnM/v1zdCnthKgGScn0VcwHwYDVR0jBBgwFoAUvjNyR8Kxl0GZwDFX
UlYMtVN4WqQwNwYIKwYBBQUHAQEEKzApMCcGCCsGAQUFBzAChhtodHRwOi8vdXJs
LWZvci1haWEvUm9vdC5jZXIwLAYDVR0fBCUwIzAhoB+gHYYbaHR0cDovL3VybC1m
b3ItY3JsL1Jvb3QuY3JsMA4GA1UdDwEB/wQEAwIBBjAPBgNVHRMBAf8EBTADAQH/
MA0GCSqGSIb3DQEBCwUAA4IBAQA6f5Qslb6TuYvzfZO5QllK3cDcG5eX9eQGwr9a
bwQrFe0JBQXb5/GIhPMU89kd8gQuj6ZNtY6JNRBcy2qO8w2ukj9FJtbvYtzqlQyv
PZaHbJFHwV/OQSzCYzVqeJIlLXDc3Ii63cXZ5OH0ktWIWZ/dxVEYDgASnnh9utTl
oHzD8b9fRQgPTTvh5H4QJGqTBl3Amc4asJWpmao/fUGk4erS+8h28+Nf3/v4ixiG
gWtD+19qxQavwS6iWBa2kjTiQ7V3/1slPV2k6x5xlT/nMSoYPmclqA8q8HO6vt1R
8Nib3KnUUrdqdh7PbZBuwzOcZor93UiTeeQa7i/9r7R0/xU1
-----END CERTIFICATE-----

Certificate:
    Data:
        Version: 3 (0x2)
        Serial Number:
            4e:42:88:cd:72:5f:2b:00:a2:67:88:f3:ee:8d:e7:a5:6b:77:3c:c5
        Signature Algorithm: sha256WithRSAEncryption
        Issuer: CN=Root
        Validity
            Not Before: Nov  3 12:00:00 2020 GMT
            Not After : Nov  3 12:00:00 2021 GMT
        Subject: CN=Root
        Subject Public Key Info:
            Public Key Algorithm: rsaEncryption
                RSA Public-Key: (2048 bit)
                Modulus:
                    00:ca:3f:f8:1f:42:8f:55:98:f8:9f:fb:94:03:42:
                    2a:c1:42:3a:2b:2a:f3:54:14:f3:fe:67:25:24:d3:
                    9a:7f:66:1a:60:0b:9d:d8:bd:65:71:b5:f5:d9:fe:
                    eb:f6:04:72:57:97:bc:23:b0:be:bd:ce:94:9e:58:
                    1a:10:e7:33:09:0b:57:a8:1c:6f:fa:f7:ce:d1:31:
                    34:90:1a:b4:60:2d:d2:7f:29:9b:4e:ec:f4:6e:99:
                    21:6b:98:9c:90:09:fc:bd:2f:55:c3:34:38:48:4a:
                    73:fe:58:e2:09:b9:d9:f9:53:f6:84:e2:5d:fc:eb:
                    3c:ba:92:f5:bc:97:cc:ef:43:54:f7:4f:c9:b4:2c:
                    86:95:32:a6:e8:91:f5:8e:31:f8:de:b5:d9:c9:3d:
                    4d:d7:24:4c:8c:58:aa:8a:c5:79:ab:e7:cd:3b:5c:
                    84:67:52:5a:88:33:c3:55:d5:a9:2e:c9:5b:61:7c:
                    87:05:c1:0b:d7:19:4a:fe:bd:ba:af:d7:e5:70:d1:
                    a4:92:08:d2:f2:ca:2b:b1:94:d0:84:57:f9:30:92:
                    fc:3a:67:82:10:6e:e3:89:9f:b3:df:75:6e:99:46:
                    bd:ce:b1:e8:ac:a2:3b:21:80:da:11:13:bd:df:93:
                    0e:0e:ee:5d:f5:39:a2:a8:f7:41:c8:cb:00:5c:ac:
                    ee:b1
                Exponent: 65537 (0x10001)
        X509v3 extensions:
            X509v3 Subject Key Identifier: 
                BE:33:72:47:C2:B1:97:41:99:C0:31:57:52:56:0C:B5:53:78:5A:A4
            X509v3 Authority Key Identifier: 
                keyid:BE:33:72:47:C2:B1:97:41:99:C0:31:57:52:56:0C:B5:53:78:5A:A4

            Authority Information Access: 
                CA Issuers - URI:http://url-for-aia/Root.cer

            X509v3 CRL Distribution Points: 

                Full Name:
                  URI:http://url-for-crl/Root.crl

            X509v3 Key Usage: critical
                Certificate Sign, CRL Sign
            X509v3 Basic Constraints: critical
                CA:TRUE
    Signature Algorithm: sha256WithRSAEncryption
         9c:b7:dc:ed:80:62:35:1e:c1:79:d6:0c:6b:72:95:ec:70:6e:
         de:4e:a0:63:3f:43:69:c6:31:d3:4c:05:f2:6a:19:f4:ff:4a:
         12:92:8a:72:a0:5c:f7:15:21:25:7c:18:57:f9:a8:ce:d0:af:
         96:1b:73:a8:60:5e:ec:4f:9b:f4:4a:55:fa:39:44:b7:cf:78:
         00:57:3b:c6:99:40:4d:37:b2:d8:59:2c:12:a8:c8:01:7c:13:
         5a:fe:db:55:e9:cb:68:0e:5d:de:96:47:5a:5f:85:66:13:ff:
         66:e8:9e:87:b4:e5:38:da:aa:66:93:23:1e:64:3c:b9:ef:25:
         a2:76:c8:a6:78:65:4c:01:1e:58:e5:0f:41:b8:68:27:1a:d4:
         1e:7a:1b:cb:c9:c1:0a:43:58:d0:3a:05:d9:bf:3f:3d:c1:6e:
         f7:df:cc:bb:c7:7f:bd:81:eb:94:5b:a3:b0:3e:6c:9c:28:87:
         8a:ac:ad:84:4a:21:07:53:1d:be:38:d0:1c:18:1d:1a:5c:f1:
         30:25:34:d4:9e:1f:24:7e:93:36:7b:8d:89:c0:47:2d:3f:e3:
         d5:fb:93:02:6f:82:85:fa:f8:c0:69:1f:0a:dc:5d:c3:23:59:
         39:5d:57:8c:5a:2d:26:a0:14:93:28:62:6c:d3:50:3d:be:81:
         ae:85:1d:a9
-----BEGIN CERTIFICATE-----
MIIDeDCCAmCgAwIBAgIUTkKIzXJfKwCiZ4jz7o3npWt3PMUwDQYJKoZIhvcNAQEL
BQAwDzENMAsGA1UEAwwEUm9vdDAeFw0yMDExMDMxMjAwMDBaFw0yMTExMDMxMjAw
MDBaMA8xDTALBgNVBAMMBFJvb3QwggEiMA0GCSqGSIb3DQEBAQUAA4IBDwAwggEK
AoIBAQDKP/gfQo9VmPif+5QDQirBQjorKvNUFPP+ZyUk05p/ZhpgC53YvWVxtfXZ
/uv2BHJXl7wjsL69zpSeWBoQ5zMJC1eoHG/6987RMTSQGrRgLdJ/KZtO7PRumSFr
mJyQCfy9L1XDNDhISnP+WOIJudn5U/aE4l386zy6kvW8l8zvQ1T3T8m0LIaVMqbo
kfWOMfjetdnJPU3XJEyMWKqKxXmr5807XIRnUlqIM8NV1akuyVthfIcFwQvXGUr+
vbqv1+Vw0aSSCNLyyiuxlNCEV/kwkvw6Z4IQbuOJn7PfdW6ZRr3OseisojshgNoR
E73fkw4O7l31OaKo90HIywBcrO6xAgMBAAGjgcswgcgwHQYDVR0OBBYEFL4zckfC
sZdBmcAxV1JWDLVTeFqkMB8GA1UdIwQYMBaAFL4zckfCsZdBmcAxV1JWDLVTeFqk
MDcGCCsGAQUFBwEBBCswKTAnBggrBgEFBQcwAoYbaHR0cDovL3VybC1mb3ItYWlh
L1Jvb3QuY2VyMCwGA1UdHwQlMCMwIaAfoB2GG2h0dHA6Ly91cmwtZm9yLWNybC9S
b290LmNybDAOBgNVHQ8BAf8EBAMCAQYwDwYDVR0TAQH/BAUwAwEB/zANBgkqhkiG
9w0BAQsFAAOCAQEAnLfc7YBiNR7BedYMa3KV7HBu3k6gYz9DacYx00wF8moZ9P9K
EpKKcqBc9xUhJXwYV/moztCvlhtzqGBe7E+b9EpV+jlEt894AFc7xplATTey2Fks
EqjIAXwTWv7bVenLaA5d3pZHWl+FZhP/Zuieh7TlONqqZpMjHmQ8ue8lonbIpnhl
TAEeWOUPQbhoJxrUHnoby8nBCkNY0DoF2b8/PcFu99/Mu8d/vYHrlFujsD5snCiH
iqythEohB1MdvjjQHBgdGlzxMCU01J4fJH6TNnuNicBHLT/j1fuTAm+Chfr4wGkf
CtxdwyNZOV1XjFotJqAUkyhibNNQPb6BroUdqQ==
-----END CERTIFICATE-----
