[Created by: generate-chains.py]

Valid certificate chain where the target certificate contains a public key
with a 512-bit modulus (weak).

Certificate:
    Data:
        Version: 3 (0x2)
        Serial Number:
            67:e6:43:1c:a1:b5:ee:5f:34:22:dc:ea:e2:6b:c2:18:43:17:fb:dd
        Signature Algorithm: sha256WithRSAEncryption
        Issuer: CN=Intermediate
        Validity
            Not Before: Oct  5 12:00:00 2022 GMT
            Not After : Oct  5 12:00:00 2023 GMT
        Subject: CN=Target
        Subject Public Key Info:
            Public Key Algorithm: rsaEncryption
                Public-Key: (512 bit)
                Modulus:
                    00:d5:13:bb:52:bf:ca:19:1a:06:19:68:07:1d:e6:
                    87:16:d3:f0:e0:12:ba:a2:b5:2a:3d:ed:b3:64:16:
                    06:a3:50:fc:b0:a4:49:f2:f9:ab:34:ad:4f:db:0a:
                    3d:2b:25:92:86:3f:94:df:fb:fc:54:f2:c7:6d:9e:
                    d2:10:e0:cd:0d
                Exponent: 65537 (0x10001)
        X509v3 extensions:
            X509v3 Subject Key Identifier: 
                E9:D8:44:8D:24:EE:A1:82:18:6F:21:FA:4E:EC:FB:DF:D1:91:57:9D
            X509v3 Authority Key Identifier: 
                CC:47:D8:FF:8B:67:33:FB:F5:CD:D0:A7:B6:12:A0:19:27:27:D1:57
            Authority Information Access: 
                CA Issuers - URI:http://url-for-aia/Intermediate.cer
            X509v3 CRL Distribution Points: 
                Full Name:
                  URI:http://url-for-crl/Intermediate.crl
            X509v3 Key Usage: critical
                Digital Signature, Key Encipherment
            X509v3 Extended Key Usage: 
                TLS Web Server Authentication, TLS Web Client Authentication
    Signature Algorithm: sha256WithRSAEncryption
    Signature Value:
        25:05:7b:2b:9e:7b:2d:88:93:72:85:88:43:38:1e:ca:b7:7d:
        e7:7b:11:6d:44:fb:c5:95:75:e9:e0:f1:58:e1:aa:78:4f:68:
        af:a0:0f:5a:79:31:fb:7b:21:55:8c:6b:15:c2:fa:fe:20:5c:
        95:aa:cf:70:86:c3:37:f1:a5:7d:69:7c:e0:2c:9e:9d:97:ce:
        21:be:5e:c4:41:92:43:67:ae:66:20:ae:bc:40:68:e1:0e:11:
        4a:db:a8:07:f1:c1:9c:76:d6:86:fa:6a:9b:86:4e:27:f3:83:
        8d:f5:75:b1:fa:52:77:56:41:e6:60:ba:82:33:9c:7c:dd:5a:
        95:b6:c5:22:13:be:72:55:97:4c:ba:6c:f9:83:77:8a:0c:24:
        2a:fa:89:2f:01:6d:6a:26:16:ae:4f:db:e1:01:95:b0:ea:03:
        f0:4f:f9:2f:e5:79:44:36:fb:b2:eb:56:75:86:0a:8f:c3:77:
        bb:d2:52:b4:75:db:1e:22:07:65:c4:73:9c:c5:ed:08:59:da:
        9a:e8:4c:2f:ac:bc:06:7d:25:63:6f:46:77:88:58:34:6d:f8:
        b6:4f:82:5b:fc:4c:da:06:47:83:1a:10:c9:ce:df:9e:25:76:
        be:9c:02:8a:10:c0:f2:28:0c:90:ee:64:47:e8:3a:e1:30:03:
        97:b6:d3:55
-----BEGIN CERTIFICATE-----
MIIC2DCCAcCgAwIBAgIUZ+ZDHKG17l80Itzq4mvCGEMX+90wDQYJKoZIhvcNAQEL
BQAwFzEVMBMGA1UEAwwMSW50ZXJtZWRpYXRlMB4XDTIyMTAwNTEyMDAwMFoXDTIz
MTAwNTEyMDAwMFowETEPMA0GA1UEAwwGVGFyZ2V0MFwwDQYJKoZIhvcNAQEBBQAD
SwAwSAJBANUTu1K/yhkaBhloBx3mhxbT8OASuqK1Kj3ts2QWBqNQ/LCkSfL5qzSt
T9sKPSslkoY/lN/7/FTyx22e0hDgzQ0CAwEAAaOB6TCB5jAdBgNVHQ4EFgQU6dhE
jSTuoYIYbyH6Tuz739GRV50wHwYDVR0jBBgwFoAUzEfY/4tnM/v1zdCnthKgGScn
0VcwPwYIKwYBBQUHAQEEMzAxMC8GCCsGAQUFBzAChiNodHRwOi8vdXJsLWZvci1h
aWEvSW50ZXJtZWRpYXRlLmNlcjA0BgNVHR8ELTArMCmgJ6AlhiNodHRwOi8vdXJs
LWZvci1jcmwvSW50ZXJtZWRpYXRlLmNybDAOBgNVHQ8BAf8EBAMCBaAwHQYDVR0l
BBYwFAYIKwYBBQUHAwEGCCsGAQUFBwMCMA0GCSqGSIb3DQEBCwUAA4IBAQAlBXsr
nnstiJNyhYhDOB7Kt33nexFtRPvFlXXp4PFY4ap4T2ivoA9aeTH7eyFVjGsVwvr+
IFyVqs9whsM38aV9aXzgLJ6dl84hvl7EQZJDZ65mIK68QGjhDhFK26gH8cGcdtaG
+mqbhk4n84ON9XWx+lJ3VkHmYLqCM5x83VqVtsUiE75yVZdMumz5g3eKDCQq+okv
AW1qJhauT9vhAZWw6gPwT/kv5XlENvuy61Z1hgqPw3e70lK0ddseIgdlxHOcxe0I
Wdqa6EwvrLwGfSVjb0Z3iFg0bfi2T4Jb/EzaBkeDGhDJzt+eJXa+nAKKEMDyKAyQ
7mRH6DrhMAOXttNV
-----END CERTIFICATE-----

Certificate:
    Data:
        Version: 3 (0x2)
        Serial Number:
            4e:42:88:cd:72:5f:2b:00:a2:67:88:f3:ee:8d:e7:a5:6b:77:3c:c6
        Signature Algorithm: sha256WithRSAEncryption
        Issuer: CN=Root
        Validity
            Not Before: Oct  5 12:00:00 2022 GMT
            Not After : Oct  5 12:00:00 2023 GMT
        Subject: CN=Intermediate
        Subject Public Key Info:
            Public Key Algorithm: rsaEncryption
                Public-Key: (2048 bit)
                Modulus:
                    00:bf:5d:ac:94:a4:6d:90:41:e2:b8:a8:23:44:d3:
                    0b:a0:16:0f:a9:d1:86:a6:7d:16:1b:0a:74:78:ef:
                    7e:fd:66:74:8d:d7:9e:d4:6b:ec:82:a7:18:59:1b:
                    a6:36:7d:b3:69:ac:5d:70:74:88:37:49:2a:5b:d2:
                    eb:db:56:de:54:f7:35:5a:3c:b6:b2:69:23:c5:f6:
                    73:95:78:80:8c:62:95:0d:2f:8d:0e:64:e2:66:2a:
                    05:7e:fd:70:23:ad:00:39:6d:2d:33:a7:00:af:37:
                    74:41:bf:67:49:bd:51:c1:54:c8:d3:1e:87:f1:87:
                    13:7a:c0:e4:20:52:15:fc:f1:4c:9e:84:30:72:93:
                    df:0e:71:94:54:7c:12:4e:4a:31:a6:77:94:8b:98:
                    35:02:fa:1f:aa:e8:51:c6:a6:6c:b9:40:3b:2d:a3:
                    3f:01:33:7d:5b:60:b3:db:12:cc:1c:a1:7f:94:4b:
                    3b:b8:2a:13:a2:da:d4:cb:5a:b7:a9:60:90:19:b5:
                    d2:83:c0:a2:84:52:44:61:1f:26:ff:3e:e2:43:32:
                    15:a4:96:33:34:3b:7c:90:4b:f0:db:7d:e8:f4:34:
                    65:60:e1:09:06:5a:1c:8a:89:6c:cc:cc:81:c7:e5:
                    d5:56:24:d6:6f:a1:2c:c8:9f:77:ab:8b:17:0b:98:
                    fe:c5
                Exponent: 65537 (0x10001)
        X509v3 extensions:
            X509v3 Subject Key Identifier: 
                CC:47:D8:FF:8B:67:33:FB:F5:CD:D0:A7:B6:12:A0:19:27:27:D1:57
            X509v3 Authority Key Identifier: 
                BE:33:72:47:C2:B1:97:41:99:C0:31:57:52:56:0C:B5:53:78:5A:A4
            Authority Information Access: 
                CA Issuers - URI:http://url-for-aia/Root.cer
            X509v3 CRL Distribution Points: 
                Full Name:
                  URI:http://url-for-crl/Root.crl
            X509v3 Key Usage: critical
                Certificate Sign, CRL Sign
            X509v3 Basic Constraints: critical
                CA:TRUE
    Signature Algorithm: sha256WithRSAEncryption
    Signature Value:
        c4:f5:90:0b:7a:51:78:78:ff:06:99:f5:3d:bd:b9:81:d7:e6:
        66:82:52:6c:86:42:88:c8:24:02:68:a4:a2:55:08:cf:09:f2:
        55:1f:49:ed:20:47:9f:09:9b:ec:3f:8b:78:17:ad:09:74:d1:
        31:78:54:60:21:41:55:ba:89:9b:6b:4b:44:2c:fc:17:59:8e:
        b9:c1:b9:57:2b:35:d6:8b:74:1c:a3:38:96:c3:a1:f0:08:fc:
        38:82:99:e9:a5:ef:8f:e5:05:ac:07:47:e2:93:e2:cd:e3:cd:
        5e:86:7c:51:b5:7e:5e:14:55:90:84:58:0f:3c:36:5a:f6:c8:
        ee:55:f2:c6:8a:6d:f8:15:19:b5:a2:93:be:39:20:5f:a4:fc:
        85:8e:cb:cc:db:3f:d8:71:57:98:6d:d5:e5:d5:8f:6d:ca:fc:
        02:f0:07:e8:0b:44:b6:26:d7:17:80:5b:1e:72:f7:b2:73:66:
        33:81:7a:e4:10:80:ca:55:cd:60:26:a5:a9:c0:5c:ad:94:8b:
        1c:b0:d3:8c:bf:e5:05:ef:55:50:0d:54:dd:bd:9f:21:cf:ef:
        4b:72:f6:35:57:65:65:16:30:af:d3:82:a3:1b:8b:1a:51:c5:
        59:37:48:54:42:5d:72:c8:35:26:c3:c8:c1:fe:a7:93:dd:e6:
        c1:cd:fe:07
-----BEGIN CERTIFICATE-----
MIIDgDCCAmigAwIBAgIUTkKIzXJfKwCiZ4jz7o3npWt3PMYwDQYJKoZIhvcNAQEL
BQAwDzENMAsGA1UEAwwEUm9vdDAeFw0yMjEwMDUxMjAwMDBaFw0yMzEwMDUxMjAw
MDBaMBcxFTATBgNVBAMMDEludGVybWVkaWF0ZTCCASIwDQYJKoZIhvcNAQEBBQAD
ggEPADCCAQoCggEBAL9drJSkbZBB4rioI0TTC6AWD6nRhqZ9FhsKdHjvfv1mdI3X
ntRr7IKnGFkbpjZ9s2msXXB0iDdJKlvS69tW3lT3NVo8trJpI8X2c5V4gIxilQ0v
jQ5k4mYqBX79cCOtADltLTOnAK83dEG/Z0m9UcFUyNMeh/GHE3rA5CBSFfzxTJ6E
MHKT3w5xlFR8Ek5KMaZ3lIuYNQL6H6roUcambLlAOy2jPwEzfVtgs9sSzByhf5RL
O7gqE6La1Mtat6lgkBm10oPAooRSRGEfJv8+4kMyFaSWMzQ7fJBL8Nt96PQ0ZWDh
CQZaHIqJbMzMgcfl1VYk1m+hLMifd6uLFwuY/sUCAwEAAaOByzCByDAdBgNVHQ4E
FgQUzEfY/4tnM/v1zdCnthKgGScn0VcwHwYDVR0jBBgwFoAUvjNyR8Kxl0GZwDFX
UlYMtVN4WqQwNwYIKwYBBQUHAQEEKzApMCcGCCsGAQUFBzAChhtodHRwOi8vdXJs
LWZvci1haWEvUm9vdC5jZXIwLAYDVR0fBCUwIzAhoB+gHYYbaHR0cDovL3VybC1m
b3ItY3JsL1Jvb3QuY3JsMA4GA1UdDwEB/wQEAwIBBjAPBgNVHRMBAf8EBTADAQH/
MA0GCSqGSIb3DQEBCwUAA4IBAQDE9ZALelF4eP8GmfU9vbmB1+ZmglJshkKIyCQC
aKSiVQjPCfJVH0ntIEefCZvsP4t4F60JdNExeFRgIUFVuomba0tELPwXWY65wblX
KzXWi3QcoziWw6HwCPw4gpnppe+P5QWsB0fik+LN481ehnxRtX5eFFWQhFgPPDZa
9sjuVfLGim34FRm1opO+OSBfpPyFjsvM2z/YcVeYbdXl1Y9tyvwC8AfoC0S2JtcX
gFsecveyc2YzgXrkEIDKVc1gJqWpwFytlIscsNOMv+UF71VQDVTdvZ8hz+9LcvY1
V2VlFjCv04KjG4saUcVZN0hUQl1yyDUmw8jB/qeT3ebBzf4H
-----END CERTIFICATE-----

Certificate:
    Data:
        Version: 3 (0x2)
        Serial Number:
            4e:42:88:cd:72:5f:2b:00:a2:67:88:f3:ee:8d:e7:a5:6b:77:3c:c5
        Signature Algorithm: sha256WithRSAEncryption
        Issuer: CN=Root
        Validity
            Not Before: Oct  5 12:00:00 2022 GMT
            Not After : Oct  5 12:00:00 2023 GMT
        Subject: CN=Root
        Subject Public Key Info:
            Public Key Algorithm: rsaEncryption
                Public-Key: (2048 bit)
                Modulus:
                    00:ca:3f:f8:1f:42:8f:55:98:f8:9f:fb:94:03:42:
                    2a:c1:42:3a:2b:2a:f3:54:14:f3:fe:67:25:24:d3:
                    9a:7f:66:1a:60:0b:9d:d8:bd:65:71:b5:f5:d9:fe:
                    eb:f6:04:72:57:97:bc:23:b0:be:bd:ce:94:9e:58:
                    1a:10:e7:33:09:0b:57:a8:1c:6f:fa:f7:ce:d1:31:
                    34:90:1a:b4:60:2d:d2:7f:29:9b:4e:ec:f4:6e:99:
                    21:6b:98:9c:90:09:fc:bd:2f:55:c3:34:38:48:4a:
                    73:fe:58:e2:09:b9:d9:f9:53:f6:84:e2:5d:fc:eb:
                    3c:ba:92:f5:bc:97:cc:ef:43:54:f7:4f:c9:b4:2c:
                    86:95:32:a6:e8:91:f5:8e:31:f8:de:b5:d9:c9:3d:
                    4d:d7:24:4c:8c:58:aa:8a:c5:79:ab:e7:cd:3b:5c:
                    84:67:52:5a:88:33:c3:55:d5:a9:2e:c9:5b:61:7c:
                    87:05:c1:0b:d7:19:4a:fe:bd:ba:af:d7:e5:70:d1:
                    a4:92:08:d2:f2:ca:2b:b1:94:d0:84:57:f9:30:92:
                    fc:3a:67:82:10:6e:e3:89:9f:b3:df:75:6e:99:46:
                    bd:ce:b1:e8:ac:a2:3b:21:80:da:11:13:bd:df:93:
                    0e:0e:ee:5d:f5:39:a2:a8:f7:41:c8:cb:00:5c:ac:
                    ee:b1
                Exponent: 65537 (0x10001)
        X509v3 extensions:
            X509v3 Subject Key Identifier: 
                BE:33:72:47:C2:B1:97:41:99:C0:31:57:52:56:0C:B5:53:78:5A:A4
            X509v3 Authority Key Identifier: 
                BE:33:72:47:C2:B1:97:41:99:C0:31:57:52:56:0C:B5:53:78:5A:A4
            Authority Information Access: 
                CA Issuers - URI:http://url-for-aia/Root.cer
            X509v3 CRL Distribution Points: 
                Full Name:
                  URI:http://url-for-crl/Root.crl
            X509v3 Key Usage: critical
                Certificate Sign, CRL Sign
            X509v3 Basic Constraints: critical
                CA:TRUE
    Signature Algorithm: sha256WithRSAEncryption
    Signature Value:
        06:ac:8f:95:3a:67:38:39:f6:19:30:f1:63:35:f8:61:bf:4a:
        4e:9a:76:f3:13:d6:57:0c:e1:bc:5e:e9:d2:6c:af:e2:c9:25:
        c1:ea:e2:9c:7c:04:66:db:6d:5b:d6:c4:17:70:c3:36:3a:8c:
        25:19:0f:6d:3d:7a:fa:45:0c:be:07:2f:5d:ed:83:b3:36:2a:
        cf:b1:ca:21:45:60:e9:c9:a0:b9:25:29:e4:12:d4:d1:27:0a:
        0b:f7:a6:44:d3:97:b5:89:23:2c:2f:6c:3a:ee:2f:70:c7:48:
        db:73:b1:8c:e5:52:bb:17:c3:71:bb:aa:1f:87:c5:34:2b:49:
        fa:00:2a:cc:01:05:d0:64:a0:50:55:3f:dd:13:68:80:21:fa:
        27:70:42:45:4c:f0:d9:da:5e:2f:f6:51:dd:98:a8:64:24:c6:
        f8:12:fe:5d:87:68:06:22:4f:c4:f8:4b:52:4a:75:d7:d8:97:
        22:52:a4:c7:d4:2c:32:67:80:55:79:5c:e7:2a:8f:2b:e4:22:
        fe:7a:ed:3e:07:63:02:af:be:e8:46:bb:3c:1f:fa:14:33:9f:
        27:16:b3:7e:a8:c8:9e:c4:8a:5a:10:a6:f6:62:e1:c8:c7:b6:
        57:72:fb:2e:8f:72:86:fe:fa:0e:b9:2f:61:b4:dd:7f:76:04:
        6d:c8:37:cd
-----BEGIN CERTIFICATE-----
MIIDeDCCAmCgAwIBAgIUTkKIzXJfKwCiZ4jz7o3npWt3PMUwDQYJKoZIhvcNAQEL
BQAwDzENMAsGA1UEAwwEUm9vdDAeFw0yMjEwMDUxMjAwMDBaFw0yMzEwMDUxMjAw
MDBaMA8xDTALBgNVBAMMBFJvb3QwggEiMA0GCSqGSIb3DQEBAQUAA4IBDwAwggEK
AoIBAQDKP/gfQo9VmPif+5QDQirBQjorKvNUFPP+ZyUk05p/ZhpgC53YvWVxtfXZ
/uv2BHJXl7wjsL69zpSeWBoQ5zMJC1eoHG/6987RMTSQGrRgLdJ/KZtO7PRumSFr
mJyQCfy9L1XDNDhISnP+WOIJudn5U/aE4l386zy6kvW8l8zvQ1T3T8m0LIaVMqbo
kfWOMfjetdnJPU3XJEyMWKqKxXmr5807XIRnUlqIM8NV1akuyVthfIcFwQvXGUr+
vbqv1+Vw0aSSCNLyyiuxlNCEV/kwkvw6Z4IQbuOJn7PfdW6ZRr3OseisojshgNoR
E73fkw4O7l31OaKo90HIywBcrO6xAgMBAAGjgcswgcgwHQYDVR0OBBYEFL4zckfC
sZdBmcAxV1JWDLVTeFqkMB8GA1UdIwQYMBaAFL4zckfCsZdBmcAxV1JWDLVTeFqk
MDcGCCsGAQUFBwEBBCswKTAnBggrBgEFBQcwAoYbaHR0cDovL3VybC1mb3ItYWlh
L1Jvb3QuY2VyMCwGA1UdHwQlMCMwIaAfoB2GG2h0dHA6Ly91cmwtZm9yLWNybC9S
b290LmNybDAOBgNVHQ8BAf8EBAMCAQYwDwYDVR0TAQH/BAUwAwEB/zANBgkqhkiG
9w0BAQsFAAOCAQEABqyPlTpnODn2GTDxYzX4Yb9KTpp28xPWVwzhvF7p0myv4skl
werinHwEZtttW9bEF3DDNjqMJRkPbT16+kUMvgcvXe2DszYqz7HKIUVg6cmguSUp
5BLU0ScKC/emRNOXtYkjLC9sOu4vcMdI23OxjOVSuxfDcbuqH4fFNCtJ+gAqzAEF
0GSgUFU/3RNogCH6J3BCRUzw2dpeL/ZR3ZioZCTG+BL+XYdoBiJPxPhLUkp119iX
IlKkx9QsMmeAVXlc5yqPK+Qi/nrtPgdjAq++6Ea7PB/6FDOfJxazfqjInsSKWhCm
9mLhyMe2V3L7Lo9yhv76DrkvYbTdf3YEbcg3zQ==
-----END CERTIFICATE-----
