[Created by: ./generate-chains.py]

Chain where the leaf has two policies and the intermediate has anyPolicy.

Certificate:
    Data:
        Version: 3 (0x2)
        Serial Number:
            6b:e1:0f:c9:fa:59:38:73:f8:5d:58:01:76:a1:f9:07:db:92:01:5c
        Signature Algorithm: sha256WithRSAEncryption
        Issuer: CN=Intermediate
        Validity
            Not Before: Oct  5 12:00:00 2022 GMT
            Not After : Oct  5 12:00:00 2023 GMT
        Subject: CN=Target
        Subject Public Key Info:
            Public Key Algorithm: rsaEncryption
                Public-Key: (2048 bit)
                Modulus:
                    00:a7:fb:0c:b8:75:eb:c8:c2:7a:0c:72:ee:89:76:
                    8c:a8:0c:54:51:5a:2d:69:42:9f:78:ea:57:3f:c0:
                    c2:4f:6d:b9:92:cf:41:f5:83:70:56:02:06:80:f6:
                    0b:61:3d:ff:d6:2c:0e:9d:59:fc:91:a6:47:fe:f0:
                    36:07:48:1e:18:5b:d1:59:50:e9:07:a7:a6:3b:0c:
                    53:e3:31:53:e0:3b:c3:1d:02:c4:6d:ed:a7:9d:bc:
                    a4:f6:1a:1a:c8:c4:51:28:60:11:2d:3f:2c:93:60:
                    d5:4e:44:83:e3:2b:ea:47:98:7a:c4:6e:6d:67:32:
                    2c:29:28:3f:b0:73:c1:b2:ce:fc:f6:15:e3:16:d5:
                    00:11:b4:98:91:43:42:d6:0f:ed:82:95:2f:23:69:
                    60:0e:9a:09:1b:9a:67:c1:a0:83:d4:74:80:6f:de:
                    67:34:73:d9:79:bb:83:6b:90:0c:a7:59:05:5c:96:
                    9b:e2:7e:f2:d7:6b:57:09:81:8b:6a:54:d2:58:50:
                    22:49:3c:ca:44:a1:a9:c9:41:50:39:d4:ad:78:3c:
                    e0:4b:74:ff:d6:04:61:6a:e5:4d:eb:2d:45:11:78:
                    a7:30:bc:12:31:c5:1e:e6:f8:dc:81:60:6f:0b:01:
                    bc:50:a2:c1:e4:6c:eb:87:b4:b5:89:86:b3:cc:0a:
                    68:d1
                Exponent: 65537 (0x10001)
        X509v3 extensions:
            X509v3 Subject Key Identifier: 
                9D:8B:D4:7E:BA:F1:1F:2F:2B:E6:6A:5E:E5:36:FD:A6:3E:F5:5F:B0
            X509v3 Authority Key Identifier: 
                DE:60:17:6D:1C:07:19:9D:2A:ED:85:01:D1:5F:20:9F:30:B6:35:87
            Authority Information Access: 
                CA Issuers - URI:http://url-for-aia/Intermediate.cer
            X509v3 CRL Distribution Points: 
                Full Name:
                  URI:http://url-for-crl/Intermediate.crl
            X509v3 Key Usage: critical
                Digital Signature, Key Encipherment
            X509v3 Extended Key Usage: 
                TLS Web Server Authentication, TLS Web Client Authentication
            X509v3 Certificate Policies: 
                Policy: 1.2.3.4
                Policy: 1.2.6.7
            X509v3 Subject Alternative Name: 
                DNS:test.example
    Signature Algorithm: sha256WithRSAEncryption
    Signature Value:
        34:0a:41:60:eb:6c:11:77:ee:5f:06:f4:da:d7:11:c5:46:2e:
        cb:5c:a3:3f:53:cc:81:6c:87:83:fa:e8:03:2c:80:60:61:57:
        92:2d:50:7a:b4:f2:e1:91:ba:c6:98:49:47:49:a5:79:62:f3:
        8a:04:c5:a9:52:28:39:e8:bb:d8:5b:67:9f:c9:2b:1a:d7:07:
        1d:29:18:1e:4b:27:5b:43:3e:03:df:ba:17:13:19:8e:f1:6c:
        38:8c:dd:bb:3b:39:9c:3f:e1:db:fa:6b:a4:65:f2:e0:77:9c:
        f5:33:12:9f:a3:e8:12:db:33:85:91:0b:79:a3:bc:87:8f:b1:
        b8:3d:80:40:ee:26:b9:b8:05:0c:cb:87:d5:b6:be:1c:df:04:
        b2:cc:9e:23:c3:df:2b:8d:46:b5:06:fb:73:b3:17:ce:8a:20:
        2d:b0:9d:6a:5d:f2:fb:9b:6c:85:5d:96:b6:3f:3b:b4:76:8f:
        af:7c:30:91:52:ec:8c:86:a0:5f:4a:37:60:9a:11:aa:8d:23:
        90:2b:e2:52:40:72:c4:15:c1:d9:5d:7c:4a:dc:3e:7e:a8:a6:
        e6:5c:40:5b:1d:56:c4:11:5b:d4:ce:eb:42:2b:d4:0c:87:c0:
        0f:7b:88:02:e2:0a:ea:d3:c6:4c:20:e8:b0:84:43:de:a6:3a:
        e6:66:e8:93
-----BEGIN CERTIFICATE-----
MIID1DCCArygAwIBAgIUa+EPyfpZOHP4XVgBdqH5B9uSAVwwDQYJKoZIhvcNAQEL
BQAwFzEVMBMGA1UEAwwMSW50ZXJtZWRpYXRlMB4XDTIyMTAwNTEyMDAwMFoXDTIz
MTAwNTEyMDAwMFowETEPMA0GA1UEAwwGVGFyZ2V0MIIBIjANBgkqhkiG9w0BAQEF
AAOCAQ8AMIIBCgKCAQEAp/sMuHXryMJ6DHLuiXaMqAxUUVotaUKfeOpXP8DCT225
ks9B9YNwVgIGgPYLYT3/1iwOnVn8kaZH/vA2B0geGFvRWVDpB6emOwxT4zFT4DvD
HQLEbe2nnbyk9hoayMRRKGARLT8sk2DVTkSD4yvqR5h6xG5tZzIsKSg/sHPBss78
9hXjFtUAEbSYkUNC1g/tgpUvI2lgDpoJG5pnwaCD1HSAb95nNHPZebuDa5AMp1kF
XJab4n7y12tXCYGLalTSWFAiSTzKRKGpyUFQOdSteDzgS3T/1gRhauVN6y1FEXin
MLwSMcUe5vjcgWBvCwG8UKLB5Gzrh7S1iYazzApo0QIDAQABo4IBHDCCARgwHQYD
VR0OBBYEFJ2L1H668R8vK+ZqXuU2/aY+9V+wMB8GA1UdIwQYMBaAFN5gF20cBxmd
Ku2FAdFfIJ8wtjWHMD8GCCsGAQUFBwEBBDMwMTAvBggrBgEFBQcwAoYjaHR0cDov
L3VybC1mb3ItYWlhL0ludGVybWVkaWF0ZS5jZXIwNAYDVR0fBC0wKzApoCegJYYj
aHR0cDovL3VybC1mb3ItY3JsL0ludGVybWVkaWF0ZS5jcmwwDgYDVR0PAQH/BAQD
AgWgMB0GA1UdJQQWMBQGCCsGAQUFBwMBBggrBgEFBQcDAjAXBgNVHSAEEDAOMAUG
AyoDBDAFBgMqBgcwFwYDVR0RBBAwDoIMdGVzdC5leGFtcGxlMA0GCSqGSIb3DQEB
CwUAA4IBAQA0CkFg62wRd+5fBvTa1xHFRi7LXKM/U8yBbIeD+ugDLIBgYVeSLVB6
tPLhkbrGmElHSaV5YvOKBMWpUig56LvYW2efySsa1wcdKRgeSydbQz4D37oXExmO
8Ww4jN27OzmcP+Hb+mukZfLgd5z1MxKfo+gS2zOFkQt5o7yHj7G4PYBA7ia5uAUM
y4fVtr4c3wSyzJ4jw98rjUa1BvtzsxfOiiAtsJ1qXfL7m2yFXZa2Pzu0do+vfDCR
UuyMhqBfSjdgmhGqjSOQK+JSQHLEFcHZXXxK3D5+qKbmXEBbHVbEEVvUzutCK9QM
h8APe4gC4grq08ZMIOiwhEPepjrmZuiT
-----END CERTIFICATE-----

Certificate:
    Data:
        Version: 3 (0x2)
        Serial Number:
            76:42:db:45:76:7f:b8:53:d5:02:1e:c2:90:7e:60:72:5a:78:fc:c8
        Signature Algorithm: sha256WithRSAEncryption
        Issuer: CN=Root
        Validity
            Not Before: Oct  5 12:00:00 2022 GMT
            Not After : Oct  5 12:00:00 2023 GMT
        Subject: CN=Intermediate
        Subject Public Key Info:
            Public Key Algorithm: rsaEncryption
                Public-Key: (2048 bit)
                Modulus:
                    00:b2:2f:54:6d:cb:bc:2b:71:f5:87:7a:7d:5d:ab:
                    c3:0e:bd:15:b0:a5:47:e4:2b:2a:a0:a0:0d:0f:65:
                    fc:84:85:2c:b4:24:a7:cf:87:9e:89:d9:f3:cf:de:
                    89:61:c7:64:42:65:5f:39:13:89:92:48:54:9c:33:
                    6b:8e:dc:dc:c6:4d:79:f8:63:37:f4:41:0d:57:ee:
                    5b:0d:6d:2f:6a:d6:78:d3:d3:f7:29:d0:fa:89:ec:
                    72:ec:11:49:fe:78:8f:38:ac:69:27:e3:f9:19:3d:
                    58:18:2e:2d:f6:7c:a5:30:1f:1d:79:65:b5:b1:4d:
                    05:6a:4b:dd:01:2e:a7:64:d1:16:23:07:05:1a:09:
                    6a:67:73:d0:f3:d9:c3:81:9e:99:ac:ee:58:06:b5:
                    d6:ce:df:0d:c4:14:42:cb:44:e1:7b:2a:1f:e6:38:
                    e6:00:4b:39:d1:89:0c:27:d6:e3:61:16:7e:44:8f:
                    25:65:8d:a6:a4:95:85:3e:13:c5:d6:14:83:c1:e3:
                    69:cf:88:ed:f7:74:9e:2b:8e:a7:5f:ad:d2:84:98:
                    06:14:85:88:54:0a:b6:9c:8a:8f:0b:d1:c4:2c:5e:
                    06:96:55:4a:92:7b:14:bb:aa:bf:cd:d4:a5:a8:ae:
                    ef:eb:d8:97:75:7b:a0:7a:b6:69:1c:27:37:f2:f9:
                    e5:09
                Exponent: 65537 (0x10001)
        X509v3 extensions:
            X509v3 Subject Key Identifier: 
                DE:60:17:6D:1C:07:19:9D:2A:ED:85:01:D1:5F:20:9F:30:B6:35:87
            X509v3 Authority Key Identifier: 
                E3:1C:57:80:6D:50:B5:5E:E3:27:A5:3F:E5:CC:E0:A9:45:56:C1:9E
            Authority Information Access: 
                CA Issuers - URI:http://url-for-aia/Root.cer
            X509v3 CRL Distribution Points: 
                Full Name:
                  URI:http://url-for-crl/Root.crl
            X509v3 Key Usage: critical
                Certificate Sign, CRL Sign
            X509v3 Basic Constraints: critical
                CA:TRUE
            X509v3 Certificate Policies: 
                Policy: X509v3 Any Policy
    Signature Algorithm: sha256WithRSAEncryption
    Signature Value:
        4c:50:f9:e3:cc:ba:df:6a:08:cd:25:80:19:7c:76:77:77:ce:
        d9:40:e3:c9:53:ad:2b:a6:f5:5b:2a:18:fa:b8:f2:11:76:59:
        e0:19:ae:87:5f:ca:c1:88:24:9a:ad:96:54:31:ad:f4:35:a3:
        40:3e:7c:6e:fa:6c:ab:91:bb:d1:8a:73:7f:4d:82:5d:6f:a0:
        26:db:61:4e:ec:11:a1:8a:29:20:ca:d6:45:34:c2:d8:f2:41:
        e3:54:09:b5:ba:4c:74:22:77:d9:df:b0:a4:32:7c:fd:c5:33:
        c4:41:8c:98:36:99:2d:ce:4e:87:b5:db:d0:6a:e3:45:cf:96:
        f6:21:88:c7:51:1a:41:89:45:53:5e:ea:0b:1a:be:1f:52:69:
        c7:3f:cd:be:a1:f9:3e:0c:5b:30:d8:24:0c:b9:e6:db:87:5e:
        56:b5:7d:a3:27:c7:64:bf:84:25:3b:48:06:36:1e:f4:99:e2:
        13:6b:65:2a:28:47:b1:8a:7e:93:e0:13:ce:83:de:ee:0c:d4:
        d5:a1:de:59:36:f6:81:3f:85:09:79:ac:2f:6d:b9:80:cb:ec:
        07:8e:12:46:90:64:1f:e5:27:0e:6d:83:47:08:8b:1d:d4:04:
        97:04:75:42:9d:28:1f:33:1c:e1:2b:60:97:33:87:1c:d7:72:
        49:a2:72:16
-----BEGIN CERTIFICATE-----
MIIDkzCCAnugAwIBAgIUdkLbRXZ/uFPVAh7CkH5gclp4/MgwDQYJKoZIhvcNAQEL
BQAwDzENMAsGA1UEAwwEUm9vdDAeFw0yMjEwMDUxMjAwMDBaFw0yMzEwMDUxMjAw
MDBaMBcxFTATBgNVBAMMDEludGVybWVkaWF0ZTCCASIwDQYJKoZIhvcNAQEBBQAD
ggEPADCCAQoCggEBALIvVG3LvCtx9Yd6fV2rww69FbClR+QrKqCgDQ9l/ISFLLQk
p8+HnonZ88/eiWHHZEJlXzkTiZJIVJwza47c3MZNefhjN/RBDVfuWw1tL2rWeNPT
9ynQ+onscuwRSf54jzisaSfj+Rk9WBguLfZ8pTAfHXlltbFNBWpL3QEup2TRFiMH
BRoJamdz0PPZw4GemazuWAa11s7fDcQUQstE4XsqH+Y45gBLOdGJDCfW42EWfkSP
JWWNpqSVhT4TxdYUg8Hjac+I7fd0niuOp1+t0oSYBhSFiFQKtpyKjwvRxCxeBpZV
SpJ7FLuqv83Upaiu7+vYl3V7oHq2aRwnN/L55QkCAwEAAaOB3jCB2zAdBgNVHQ4E
FgQU3mAXbRwHGZ0q7YUB0V8gnzC2NYcwHwYDVR0jBBgwFoAU4xxXgG1QtV7jJ6U/
5czgqUVWwZ4wNwYIKwYBBQUHAQEEKzApMCcGCCsGAQUFBzAChhtodHRwOi8vdXJs
LWZvci1haWEvUm9vdC5jZXIwLAYDVR0fBCUwIzAhoB+gHYYbaHR0cDovL3VybC1m
b3ItY3JsL1Jvb3QuY3JsMA4GA1UdDwEB/wQEAwIBBjAPBgNVHRMBAf8EBTADAQH/
MBEGA1UdIAQKMAgwBgYEVR0gADANBgkqhkiG9w0BAQsFAAOCAQEATFD548y632oI
zSWAGXx2d3fO2UDjyVOtK6b1WyoY+rjyEXZZ4Bmuh1/KwYgkmq2WVDGt9DWjQD58
bvpsq5G70Ypzf02CXW+gJtthTuwRoYopIMrWRTTC2PJB41QJtbpMdCJ32d+wpDJ8
/cUzxEGMmDaZLc5Oh7Xb0GrjRc+W9iGIx1EaQYlFU17qCxq+H1Jpxz/NvqH5Pgxb
MNgkDLnm24deVrV9oyfHZL+EJTtIBjYe9JniE2tlKihHsYp+k+ATzoPe7gzU1aHe
WTb2gT+FCXmsL225gMvsB44SRpBkH+UnDm2DRwiLHdQElwR1Qp0oHzMc4StglzOH
HNdySaJyFg==
-----END CERTIFICATE-----

Certificate:
    Data:
        Version: 3 (0x2)
        Serial Number:
            76:42:db:45:76:7f:b8:53:d5:02:1e:c2:90:7e:60:72:5a:78:fc:c7
        Signature Algorithm: sha256WithRSAEncryption
        Issuer: CN=Root
        Validity
            Not Before: Oct  5 12:00:00 2022 GMT
            Not After : Oct  5 12:00:00 2023 GMT
        Subject: CN=Root
        Subject Public Key Info:
            Public Key Algorithm: rsaEncryption
                Public-Key: (2048 bit)
                Modulus:
                    00:9a:8f:40:d0:8f:a9:e6:69:43:b2:9a:c5:a9:f9:
                    0f:20:56:10:59:91:36:08:26:d2:eb:0c:e6:82:de:
                    a5:90:ca:67:dc:f8:17:bc:71:91:9c:f3:46:eb:71:
                    65:f5:a5:e0:9c:5e:e5:09:2f:a2:9c:5d:49:29:20:
                    d0:bb:58:c3:ac:9d:4c:a4:df:8a:06:40:13:93:63:
                    1d:24:d8:5c:01:57:0c:34:ea:47:ae:31:1a:21:d7:
                    cf:29:73:44:96:97:01:c8:36:57:77:4c:1d:e0:bc:
                    5a:93:06:3b:d5:45:3f:98:09:8c:db:cc:f2:eb:90:
                    28:53:94:9f:8d:fd:97:75:ca:c7:fe:92:cf:58:1b:
                    93:66:37:12:c2:6b:bb:38:a2:43:24:dc:41:c3:b3:
                    3c:69:f9:a1:7b:ad:7d:92:b3:22:a5:31:df:34:86:
                    62:43:d8:11:3d:dd:7c:1b:24:9f:0d:2a:0f:c5:1c:
                    7d:c4:fe:55:4d:33:7a:0a:ef:98:55:64:3f:a7:c6:
                    40:d3:f7:e0:2d:68:f8:83:0f:c3:8d:c4:65:89:1c:
                    ab:c8:0d:30:6c:da:dd:8d:a2:8f:ac:96:d8:de:41:
                    e7:b8:3d:d4:5b:8f:c3:3d:87:6b:d6:7f:bb:4d:23:
                    d5:08:60:bc:d2:54:85:fe:4f:b4:49:cf:18:32:74:
                    a1:3f
                Exponent: 65537 (0x10001)
        X509v3 extensions:
            X509v3 Subject Key Identifier: 
                E3:1C:57:80:6D:50:B5:5E:E3:27:A5:3F:E5:CC:E0:A9:45:56:C1:9E
            X509v3 Authority Key Identifier: 
                E3:1C:57:80:6D:50:B5:5E:E3:27:A5:3F:E5:CC:E0:A9:45:56:C1:9E
            Authority Information Access: 
                CA Issuers - URI:http://url-for-aia/Root.cer
            X509v3 CRL Distribution Points: 
                Full Name:
                  URI:http://url-for-crl/Root.crl
            X509v3 Key Usage: critical
                Certificate Sign, CRL Sign
            X509v3 Basic Constraints: critical
                CA:TRUE
    Signature Algorithm: sha256WithRSAEncryption
    Signature Value:
        97:c7:b3:ff:02:5e:b2:97:c3:44:bc:f2:b3:e3:0d:66:38:42:
        73:d6:3c:3f:0f:ee:11:95:93:95:4d:9c:2a:47:ba:99:68:5d:
        5b:0a:6d:8c:a9:db:b2:bb:da:06:fa:a2:23:7b:9a:ac:70:f6:
        24:6d:9b:a5:35:84:6e:c9:23:95:b6:df:c6:d6:ee:4f:a9:3e:
        60:86:de:90:4a:89:7d:ef:c7:23:c4:ad:63:5a:d3:6d:c1:3d:
        80:47:34:be:d9:e0:39:ff:6f:e8:58:74:c5:89:20:92:3e:3a:
        26:ab:5b:2c:ca:24:76:65:9c:a4:99:5b:a1:5f:9c:f1:a4:f7:
        a8:6b:98:88:84:e3:a6:79:43:1d:f7:5d:6e:39:ad:e1:29:6c:
        d4:e9:39:6a:e5:6a:c5:9e:52:2e:b2:65:97:1e:db:e0:05:89:
        0b:c0:b5:77:71:a7:de:75:b2:b7:01:8d:cb:d3:92:a8:78:21:
        d4:67:a9:a4:fe:06:b3:24:89:9f:28:41:30:25:0d:f9:79:d6:
        97:9b:e5:99:e2:e7:92:35:26:b0:08:77:c9:27:9e:b1:80:d3:
        80:ee:7b:10:53:9f:f5:f7:e7:c4:58:1a:5f:85:8b:6f:ed:54:
        8a:8e:07:a6:96:e4:bd:36:52:ea:a7:90:46:93:32:91:7f:87:
        86:f8:34:c0
-----BEGIN CERTIFICATE-----
MIIDeDCCAmCgAwIBAgIUdkLbRXZ/uFPVAh7CkH5gclp4/McwDQYJKoZIhvcNAQEL
BQAwDzENMAsGA1UEAwwEUm9vdDAeFw0yMjEwMDUxMjAwMDBaFw0yMzEwMDUxMjAw
MDBaMA8xDTALBgNVBAMMBFJvb3QwggEiMA0GCSqGSIb3DQEBAQUAA4IBDwAwggEK
AoIBAQCaj0DQj6nmaUOymsWp+Q8gVhBZkTYIJtLrDOaC3qWQymfc+Be8cZGc80br
cWX1peCcXuUJL6KcXUkpINC7WMOsnUyk34oGQBOTYx0k2FwBVww06keuMRoh188p
c0SWlwHINld3TB3gvFqTBjvVRT+YCYzbzPLrkChTlJ+N/Zd1ysf+ks9YG5NmNxLC
a7s4okMk3EHDszxp+aF7rX2SsyKlMd80hmJD2BE93XwbJJ8NKg/FHH3E/lVNM3oK
75hVZD+nxkDT9+AtaPiDD8ONxGWJHKvIDTBs2t2Noo+sltjeQee4PdRbj8M9h2vW
f7tNI9UIYLzSVIX+T7RJzxgydKE/AgMBAAGjgcswgcgwHQYDVR0OBBYEFOMcV4Bt
ULVe4yelP+XM4KlFVsGeMB8GA1UdIwQYMBaAFOMcV4BtULVe4yelP+XM4KlFVsGe
MDcGCCsGAQUFBwEBBCswKTAnBggrBgEFBQcwAoYbaHR0cDovL3VybC1mb3ItYWlh
L1Jvb3QuY2VyMCwGA1UdHwQlMCMwIaAfoB2GG2h0dHA6Ly91cmwtZm9yLWNybC9S
b290LmNybDAOBgNVHQ8BAf8EBAMCAQYwDwYDVR0TAQH/BAUwAwEB/zANBgkqhkiG
9w0BAQsFAAOCAQEAl8ez/wJespfDRLzys+MNZjhCc9Y8Pw/uEZWTlU2cKke6mWhd
WwptjKnbsrvaBvqiI3uarHD2JG2bpTWEbskjlbbfxtbuT6k+YIbekEqJfe/HI8St
Y1rTbcE9gEc0vtngOf9v6Fh0xYkgkj46JqtbLMokdmWcpJlboV+c8aT3qGuYiITj
pnlDHfddbjmt4Sls1Ok5auVqxZ5SLrJllx7b4AWJC8C1d3Gn3nWytwGNy9OSqHgh
1GeppP4GsySJnyhBMCUN+XnWl5vlmeLnkjUmsAh3ySeesYDTgO57EFOf9ffnxFga
X4WLb+1Uio4HppbkvTZS6qeQRpMykX+Hhvg0wA==
-----END CERTIFICATE-----
