[Created by: ./generate-chains.py]

Chain where the leaf has two policies and the intermediate has anyPolicy.

Certificate:
    Data:
        Version: 3 (0x2)
        Serial Number:
            6b:e1:0f:c9:fa:59:38:73:f8:5d:58:01:76:a1:f9:07:db:92:01:5c
        Signature Algorithm: sha256WithRSAEncryption
        Issuer: CN=Intermediate
        Validity
            Not Before: Nov  3 12:00:00 2020 GMT
            Not After : Nov  3 12:00:00 2021 GMT
        Subject: CN=Target
        Subject Public Key Info:
            Public Key Algorithm: rsaEncryption
                RSA Public-Key: (2048 bit)
                Modulus:
                    00:a7:fb:0c:b8:75:eb:c8:c2:7a:0c:72:ee:89:76:
                    8c:a8:0c:54:51:5a:2d:69:42:9f:78:ea:57:3f:c0:
                    c2:4f:6d:b9:92:cf:41:f5:83:70:56:02:06:80:f6:
                    0b:61:3d:ff:d6:2c:0e:9d:59:fc:91:a6:47:fe:f0:
                    36:07:48:1e:18:5b:d1:59:50:e9:07:a7:a6:3b:0c:
                    53:e3:31:53:e0:3b:c3:1d:02:c4:6d:ed:a7:9d:bc:
                    a4:f6:1a:1a:c8:c4:51:28:60:11:2d:3f:2c:93:60:
                    d5:4e:44:83:e3:2b:ea:47:98:7a:c4:6e:6d:67:32:
                    2c:29:28:3f:b0:73:c1:b2:ce:fc:f6:15:e3:16:d5:
                    00:11:b4:98:91:43:42:d6:0f:ed:82:95:2f:23:69:
                    60:0e:9a:09:1b:9a:67:c1:a0:83:d4:74:80:6f:de:
                    67:34:73:d9:79:bb:83:6b:90:0c:a7:59:05:5c:96:
                    9b:e2:7e:f2:d7:6b:57:09:81:8b:6a:54:d2:58:50:
                    22:49:3c:ca:44:a1:a9:c9:41:50:39:d4:ad:78:3c:
                    e0:4b:74:ff:d6:04:61:6a:e5:4d:eb:2d:45:11:78:
                    a7:30:bc:12:31:c5:1e:e6:f8:dc:81:60:6f:0b:01:
                    bc:50:a2:c1:e4:6c:eb:87:b4:b5:89:86:b3:cc:0a:
                    68:d1
                Exponent: 65537 (0x10001)
        X509v3 extensions:
            X509v3 Subject Key Identifier: 
                9D:8B:D4:7E:BA:F1:1F:2F:2B:E6:6A:5E:E5:36:FD:A6:3E:F5:5F:B0
            X509v3 Authority Key Identifier: 
                keyid:DE:60:17:6D:1C:07:19:9D:2A:ED:85:01:D1:5F:20:9F:30:B6:35:87

            Authority Information Access: 
                CA Issuers - URI:http://url-for-aia/Intermediate.cer

            X509v3 CRL Distribution Points: 

                Full Name:
                  URI:http://url-for-crl/Intermediate.crl

            X509v3 Key Usage: critical
                Digital Signature, Key Encipherment
            X509v3 Extended Key Usage: 
                TLS Web Server Authentication, TLS Web Client Authentication
            X509v3 Certificate Policies: 
                Policy: 1.2.3.4
                Policy: 1.2.6.7

            X509v3 Subject Alternative Name: 
                DNS:test.example
    Signature Algorithm: sha256WithRSAEncryption
         4f:ef:50:62:00:27:46:eb:b9:a4:c3:97:fa:50:7b:06:03:d1:
         cb:b0:b2:c0:de:a4:10:89:2c:aa:07:f6:72:26:98:2f:fa:97:
         f5:66:a9:b8:f3:4b:90:7c:58:8f:9a:4e:b8:aa:12:2c:80:70:
         27:b4:4e:b3:53:c2:62:18:cb:85:25:e5:d9:a9:b4:c0:59:5c:
         15:9e:ce:b0:7c:19:e6:1e:0b:9f:2e:13:18:fa:c4:6f:a4:28:
         ee:59:42:de:c8:97:20:21:f6:1f:00:8a:99:10:48:c9:7c:60:
         6e:51:d7:15:5d:40:e2:20:8d:60:00:88:80:40:71:d1:c0:70:
         00:91:a1:ee:79:8e:70:33:a5:63:61:a1:f8:eb:6d:71:b7:9d:
         4b:b2:90:ad:b1:8c:ac:a2:13:3c:7a:a9:39:b5:23:76:02:8c:
         83:06:3c:b1:67:cc:31:cc:91:90:1e:fe:2c:8b:be:75:81:10:
         54:8c:8e:67:22:52:56:df:ad:75:dd:da:bc:ca:a7:82:48:0a:
         14:88:00:e2:94:e0:78:f5:0f:fc:67:95:d2:d7:43:20:f5:35:
         c8:56:2f:e0:2e:be:a2:6b:66:f6:3a:fb:ab:9c:24:e4:1e:76:
         20:84:7c:e1:31:b0:c4:93:72:85:d0:77:ca:7b:cb:fb:64:19:
         73:19:c0:68
-----BEGIN CERTIFICATE-----
MIID1DCCArygAwIBAgIUa+EPyfpZOHP4XVgBdqH5B9uSAVwwDQYJKoZIhvcNAQEL
BQAwFzEVMBMGA1UEAwwMSW50ZXJtZWRpYXRlMB4XDTIwMTEwMzEyMDAwMFoXDTIx
MTEwMzEyMDAwMFowETEPMA0GA1UEAwwGVGFyZ2V0MIIBIjANBgkqhkiG9w0BAQEF
AAOCAQ8AMIIBCgKCAQEAp/sMuHXryMJ6DHLuiXaMqAxUUVotaUKfeOpXP8DCT225
ks9B9YNwVgIGgPYLYT3/1iwOnVn8kaZH/vA2B0geGFvRWVDpB6emOwxT4zFT4DvD
HQLEbe2nnbyk9hoayMRRKGARLT8sk2DVTkSD4yvqR5h6xG5tZzIsKSg/sHPBss78
9hXjFtUAEbSYkUNC1g/tgpUvI2lgDpoJG5pnwaCD1HSAb95nNHPZebuDa5AMp1kF
XJab4n7y12tXCYGLalTSWFAiSTzKRKGpyUFQOdSteDzgS3T/1gRhauVN6y1FEXin
MLwSMcUe5vjcgWBvCwG8UKLB5Gzrh7S1iYazzApo0QIDAQABo4IBHDCCARgwHQYD
VR0OBBYEFJ2L1H668R8vK+ZqXuU2/aY+9V+wMB8GA1UdIwQYMBaAFN5gF20cBxmd
Ku2FAdFfIJ8wtjWHMD8GCCsGAQUFBwEBBDMwMTAvBggrBgEFBQcwAoYjaHR0cDov
L3VybC1mb3ItYWlhL0ludGVybWVkaWF0ZS5jZXIwNAYDVR0fBC0wKzApoCegJYYj
aHR0cDovL3VybC1mb3ItY3JsL0ludGVybWVkaWF0ZS5jcmwwDgYDVR0PAQH/BAQD
AgWgMB0GA1UdJQQWMBQGCCsGAQUFBwMBBggrBgEFBQcDAjAXBgNVHSAEEDAOMAUG
AyoDBDAFBgMqBgcwFwYDVR0RBBAwDoIMdGVzdC5leGFtcGxlMA0GCSqGSIb3DQEB
CwUAA4IBAQBP71BiACdG67mkw5f6UHsGA9HLsLLA3qQQiSyqB/ZyJpgv+pf1Zqm4
80uQfFiPmk64qhIsgHAntE6zU8JiGMuFJeXZqbTAWVwVns6wfBnmHgufLhMY+sRv
pCjuWULeyJcgIfYfAIqZEEjJfGBuUdcVXUDiII1gAIiAQHHRwHAAkaHueY5wM6Vj
YaH4621xt51LspCtsYysohM8eqk5tSN2AoyDBjyxZ8wxzJGQHv4si751gRBUjI5n
IlJW36113dq8yqeCSAoUiADilOB49Q/8Z5XS10Mg9TXIVi/gLr6ia2b2OvurnCTk
HnYghHzhMbDEk3KF0HfKe8v7ZBlzGcBo
-----END CERTIFICATE-----

Certificate:
    Data:
        Version: 3 (0x2)
        Serial Number:
            76:42:db:45:76:7f:b8:53:d5:02:1e:c2:90:7e:60:72:5a:78:fc:c8
        Signature Algorithm: sha256WithRSAEncryption
        Issuer: CN=Root
        Validity
            Not Before: Nov  3 12:00:00 2020 GMT
            Not After : Nov  3 12:00:00 2021 GMT
        Subject: CN=Intermediate
        Subject Public Key Info:
            Public Key Algorithm: rsaEncryption
                RSA Public-Key: (2048 bit)
                Modulus:
                    00:b2:2f:54:6d:cb:bc:2b:71:f5:87:7a:7d:5d:ab:
                    c3:0e:bd:15:b0:a5:47:e4:2b:2a:a0:a0:0d:0f:65:
                    fc:84:85:2c:b4:24:a7:cf:87:9e:89:d9:f3:cf:de:
                    89:61:c7:64:42:65:5f:39:13:89:92:48:54:9c:33:
                    6b:8e:dc:dc:c6:4d:79:f8:63:37:f4:41:0d:57:ee:
                    5b:0d:6d:2f:6a:d6:78:d3:d3:f7:29:d0:fa:89:ec:
                    72:ec:11:49:fe:78:8f:38:ac:69:27:e3:f9:19:3d:
                    58:18:2e:2d:f6:7c:a5:30:1f:1d:79:65:b5:b1:4d:
                    05:6a:4b:dd:01:2e:a7:64:d1:16:23:07:05:1a:09:
                    6a:67:73:d0:f3:d9:c3:81:9e:99:ac:ee:58:06:b5:
                    d6:ce:df:0d:c4:14:42:cb:44:e1:7b:2a:1f:e6:38:
                    e6:00:4b:39:d1:89:0c:27:d6:e3:61:16:7e:44:8f:
                    25:65:8d:a6:a4:95:85:3e:13:c5:d6:14:83:c1:e3:
                    69:cf:88:ed:f7:74:9e:2b:8e:a7:5f:ad:d2:84:98:
                    06:14:85:88:54:0a:b6:9c:8a:8f:0b:d1:c4:2c:5e:
                    06:96:55:4a:92:7b:14:bb:aa:bf:cd:d4:a5:a8:ae:
                    ef:eb:d8:97:75:7b:a0:7a:b6:69:1c:27:37:f2:f9:
                    e5:09
                Exponent: 65537 (0x10001)
        X509v3 extensions:
            X509v3 Subject Key Identifier: 
                DE:60:17:6D:1C:07:19:9D:2A:ED:85:01:D1:5F:20:9F:30:B6:35:87
            X509v3 Authority Key Identifier: 
                keyid:E3:1C:57:80:6D:50:B5:5E:E3:27:A5:3F:E5:CC:E0:A9:45:56:C1:9E

            Authority Information Access: 
                CA Issuers - URI:http://url-for-aia/Root.cer

            X509v3 CRL Distribution Points: 

                Full Name:
                  URI:http://url-for-crl/Root.crl

            X509v3 Key Usage: critical
                Certificate Sign, CRL Sign
            X509v3 Basic Constraints: critical
                CA:TRUE
            X509v3 Certificate Policies: 
                Policy: X509v3 Any Policy

    Signature Algorithm: sha256WithRSAEncryption
         97:4e:47:7b:56:24:d7:fe:b3:01:d3:1e:9c:28:0a:0a:62:ba:
         31:a1:1f:14:45:5d:78:84:a1:de:9f:97:99:fa:8a:3a:06:d7:
         fd:49:bd:2d:7b:26:39:90:93:34:3d:b1:6f:96:9d:b2:f0:00:
         ee:d6:1f:f6:5f:3e:dd:d4:e2:2b:b1:e5:28:ee:1b:0a:ac:81:
         d6:9c:f1:95:f6:ce:09:ea:cc:8d:1e:52:ad:5d:43:76:01:e1:
         5e:2a:af:b4:40:76:1b:83:d8:c0:5f:53:2e:60:ba:a1:40:e2:
         a5:58:b7:6b:f2:bf:19:cd:4b:10:b4:5c:05:5a:c1:26:46:22:
         03:65:ac:5e:99:da:c9:3c:ba:f9:13:a5:f3:f8:f6:d6:bf:02:
         f4:15:19:80:e3:29:83:eb:1e:d4:bf:c2:c7:d2:48:72:f5:2d:
         17:e7:94:28:ac:55:da:ab:94:9f:e5:e3:28:81:77:d2:9f:c6:
         2c:2d:60:8e:d5:fc:22:54:ad:15:bb:6f:6c:92:15:96:52:56:
         f2:f4:f0:81:b8:1f:59:19:92:46:7e:6a:fe:88:b9:91:78:79:
         0d:73:a7:8f:fb:f4:cb:93:7c:54:9a:a0:4b:c7:4f:2e:9b:53:
         f6:2c:d8:3a:6f:4c:f2:e8:f2:18:8b:a2:5e:ad:bc:e3:a1:d6:
         fe:37:b2:fc
-----BEGIN CERTIFICATE-----
MIIDkzCCAnugAwIBAgIUdkLbRXZ/uFPVAh7CkH5gclp4/MgwDQYJKoZIhvcNAQEL
BQAwDzENMAsGA1UEAwwEUm9vdDAeFw0yMDExMDMxMjAwMDBaFw0yMTExMDMxMjAw
MDBaMBcxFTATBgNVBAMMDEludGVybWVkaWF0ZTCCASIwDQYJKoZIhvcNAQEBBQAD
ggEPADCCAQoCggEBALIvVG3LvCtx9Yd6fV2rww69FbClR+QrKqCgDQ9l/ISFLLQk
p8+HnonZ88/eiWHHZEJlXzkTiZJIVJwza47c3MZNefhjN/RBDVfuWw1tL2rWeNPT
9ynQ+onscuwRSf54jzisaSfj+Rk9WBguLfZ8pTAfHXlltbFNBWpL3QEup2TRFiMH
BRoJamdz0PPZw4GemazuWAa11s7fDcQUQstE4XsqH+Y45gBLOdGJDCfW42EWfkSP
JWWNpqSVhT4TxdYUg8Hjac+I7fd0niuOp1+t0oSYBhSFiFQKtpyKjwvRxCxeBpZV
SpJ7FLuqv83Upaiu7+vYl3V7oHq2aRwnN/L55QkCAwEAAaOB3jCB2zAdBgNVHQ4E
FgQU3mAXbRwHGZ0q7YUB0V8gnzC2NYcwHwYDVR0jBBgwFoAU4xxXgG1QtV7jJ6U/
5czgqUVWwZ4wNwYIKwYBBQUHAQEEKzApMCcGCCsGAQUFBzAChhtodHRwOi8vdXJs
LWZvci1haWEvUm9vdC5jZXIwLAYDVR0fBCUwIzAhoB+gHYYbaHR0cDovL3VybC1m
b3ItY3JsL1Jvb3QuY3JsMA4GA1UdDwEB/wQEAwIBBjAPBgNVHRMBAf8EBTADAQH/
MBEGA1UdIAQKMAgwBgYEVR0gADANBgkqhkiG9w0BAQsFAAOCAQEAl05He1Yk1/6z
AdMenCgKCmK6MaEfFEVdeISh3p+XmfqKOgbX/Um9LXsmOZCTND2xb5adsvAA7tYf
9l8+3dTiK7HlKO4bCqyB1pzxlfbOCerMjR5SrV1DdgHhXiqvtEB2G4PYwF9TLmC6
oUDipVi3a/K/Gc1LELRcBVrBJkYiA2WsXpnayTy6+ROl8/j21r8C9BUZgOMpg+se
1L/Cx9JIcvUtF+eUKKxV2quUn+XjKIF30p/GLC1gjtX8IlStFbtvbJIVllJW8vTw
gbgfWRmSRn5q/oi5kXh5DXOnj/v0y5N8VJqgS8dPLptT9izYOm9M8ujyGIuiXq28
46HW/jey/A==
-----END CERTIFICATE-----

Certificate:
    Data:
        Version: 3 (0x2)
        Serial Number:
            76:42:db:45:76:7f:b8:53:d5:02:1e:c2:90:7e:60:72:5a:78:fc:c7
        Signature Algorithm: sha256WithRSAEncryption
        Issuer: CN=Root
        Validity
            Not Before: Nov  3 12:00:00 2020 GMT
            Not After : Nov  3 12:00:00 2021 GMT
        Subject: CN=Root
        Subject Public Key Info:
            Public Key Algorithm: rsaEncryption
                RSA Public-Key: (2048 bit)
                Modulus:
                    00:9a:8f:40:d0:8f:a9:e6:69:43:b2:9a:c5:a9:f9:
                    0f:20:56:10:59:91:36:08:26:d2:eb:0c:e6:82:de:
                    a5:90:ca:67:dc:f8:17:bc:71:91:9c:f3:46:eb:71:
                    65:f5:a5:e0:9c:5e:e5:09:2f:a2:9c:5d:49:29:20:
                    d0:bb:58:c3:ac:9d:4c:a4:df:8a:06:40:13:93:63:
                    1d:24:d8:5c:01:57:0c:34:ea:47:ae:31:1a:21:d7:
                    cf:29:73:44:96:97:01:c8:36:57:77:4c:1d:e0:bc:
                    5a:93:06:3b:d5:45:3f:98:09:8c:db:cc:f2:eb:90:
                    28:53:94:9f:8d:fd:97:75:ca:c7:fe:92:cf:58:1b:
                    93:66:37:12:c2:6b:bb:38:a2:43:24:dc:41:c3:b3:
                    3c:69:f9:a1:7b:ad:7d:92:b3:22:a5:31:df:34:86:
                    62:43:d8:11:3d:dd:7c:1b:24:9f:0d:2a:0f:c5:1c:
                    7d:c4:fe:55:4d:33:7a:0a:ef:98:55:64:3f:a7:c6:
                    40:d3:f7:e0:2d:68:f8:83:0f:c3:8d:c4:65:89:1c:
                    ab:c8:0d:30:6c:da:dd:8d:a2:8f:ac:96:d8:de:41:
                    e7:b8:3d:d4:5b:8f:c3:3d:87:6b:d6:7f:bb:4d:23:
                    d5:08:60:bc:d2:54:85:fe:4f:b4:49:cf:18:32:74:
                    a1:3f
                Exponent: 65537 (0x10001)
        X509v3 extensions:
            X509v3 Subject Key Identifier: 
                E3:1C:57:80:6D:50:B5:5E:E3:27:A5:3F:E5:CC:E0:A9:45:56:C1:9E
            X509v3 Authority Key Identifier: 
                keyid:E3:1C:57:80:6D:50:B5:5E:E3:27:A5:3F:E5:CC:E0:A9:45:56:C1:9E

            Authority Information Access: 
                CA Issuers - URI:http://url-for-aia/Root.cer

            X509v3 CRL Distribution Points: 

                Full Name:
                  URI:http://url-for-crl/Root.crl

            X509v3 Key Usage: critical
                Certificate Sign, CRL Sign
            X509v3 Basic Constraints: critical
                CA:TRUE
    Signature Algorithm: sha256WithRSAEncryption
         87:71:30:01:fa:fb:76:e7:9d:ea:97:90:26:8d:ae:b4:0d:10:
         78:59:e5:d2:07:66:fa:59:dd:6a:67:bb:68:ba:51:94:00:f9:
         77:fe:2c:a3:92:f7:a0:98:b4:00:54:3f:de:4f:0c:64:c3:8c:
         69:c5:2e:f0:e8:36:3d:74:e6:0e:57:64:be:b2:37:8c:26:72:
         56:30:18:ed:12:cc:55:11:d7:b9:b9:da:22:66:c4:66:d3:44:
         f8:88:e4:fe:07:2a:c1:69:0b:f8:54:2b:a3:9d:28:9c:cb:9d:
         f3:68:7c:c8:3e:9b:24:fc:26:0a:8c:47:f1:be:81:52:18:f6:
         c0:90:d4:17:1b:b9:ae:61:c5:8b:e7:a5:1b:e5:e7:0f:4d:fc:
         87:5e:fc:82:a9:52:f8:96:5c:f3:c9:7f:46:81:c4:6e:f0:c5:
         18:01:a6:d6:27:b4:47:36:d2:39:af:50:e0:1f:8f:d5:63:50:
         cc:47:10:f2:a7:7f:33:7e:ca:a3:d9:32:76:87:4e:8c:10:54:
         e3:b6:43:be:c1:3a:92:a2:f5:28:20:d5:c0:c7:e8:22:99:60:
         69:ff:d2:71:4b:6f:1a:d3:bb:dc:a6:e8:36:2f:dc:89:d3:d1:
         65:7c:52:3a:1c:ed:31:80:72:dd:d2:52:8c:5b:1f:0e:17:ce:
         c9:aa:18:f6
-----BEGIN CERTIFICATE-----
MIIDeDCCAmCgAwIBAgIUdkLbRXZ/uFPVAh7CkH5gclp4/McwDQYJKoZIhvcNAQEL
BQAwDzENMAsGA1UEAwwEUm9vdDAeFw0yMDExMDMxMjAwMDBaFw0yMTExMDMxMjAw
MDBaMA8xDTALBgNVBAMMBFJvb3QwggEiMA0GCSqGSIb3DQEBAQUAA4IBDwAwggEK
AoIBAQCaj0DQj6nmaUOymsWp+Q8gVhBZkTYIJtLrDOaC3qWQymfc+Be8cZGc80br
cWX1peCcXuUJL6KcXUkpINC7WMOsnUyk34oGQBOTYx0k2FwBVww06keuMRoh188p
c0SWlwHINld3TB3gvFqTBjvVRT+YCYzbzPLrkChTlJ+N/Zd1ysf+ks9YG5NmNxLC
a7s4okMk3EHDszxp+aF7rX2SsyKlMd80hmJD2BE93XwbJJ8NKg/FHH3E/lVNM3oK
75hVZD+nxkDT9+AtaPiDD8ONxGWJHKvIDTBs2t2Noo+sltjeQee4PdRbj8M9h2vW
f7tNI9UIYLzSVIX+T7RJzxgydKE/AgMBAAGjgcswgcgwHQYDVR0OBBYEFOMcV4Bt
ULVe4yelP+XM4KlFVsGeMB8GA1UdIwQYMBaAFOMcV4BtULVe4yelP+XM4KlFVsGe
MDcGCCsGAQUFBwEBBCswKTAnBggrBgEFBQcwAoYbaHR0cDovL3VybC1mb3ItYWlh
L1Jvb3QuY2VyMCwGA1UdHwQlMCMwIaAfoB2GG2h0dHA6Ly91cmwtZm9yLWNybC9S
b290LmNybDAOBgNVHQ8BAf8EBAMCAQYwDwYDVR0TAQH/BAUwAwEB/zANBgkqhkiG
9w0BAQsFAAOCAQEAh3EwAfr7dued6peQJo2utA0QeFnl0gdm+lndame7aLpRlAD5
d/4so5L3oJi0AFQ/3k8MZMOMacUu8Og2PXTmDldkvrI3jCZyVjAY7RLMVRHXubna
ImbEZtNE+Ijk/gcqwWkL+FQro50onMud82h8yD6bJPwmCoxH8b6BUhj2wJDUFxu5
rmHFi+elG+XnD038h178gqlS+JZc88l/RoHEbvDFGAGm1ie0RzbSOa9Q4B+P1WNQ
zEcQ8qd/M37Ko9kydodOjBBU47ZDvsE6kqL1KCDVwMfoIplgaf/ScUtvGtO73Kbo
Ni/cidPRZXxSOhztMYBy3dJSjFsfDhfOyaoY9g==
-----END CERTIFICATE-----
