[Created by: generate-chains.py]

Certificate chain where the target certificate uses a EC key and has the single key usage keyAgreement

Certificate:
    Data:
        Version: 3 (0x2)
        Serial Number:
            72:41:46:e2:6f:47:ae:e6:ef:ca:22:1e:bc:61:9b:ed:27:e8:61:41
        Signature Algorithm: sha256WithRSAEncryption
        Issuer: CN=Intermediate
        Validity
            Not Before: Nov  3 12:00:00 2020 GMT
            Not After : Nov  3 12:00:00 2021 GMT
        Subject: CN=Target
        Subject Public Key Info:
            Public Key Algorithm: id-ecPublicKey
                Public-Key: (384 bit)
                pub:
                    04:6a:64:c7:4b:c6:a0:87:b5:c2:07:13:ac:b8:0d:
                    37:95:90:e4:e2:82:95:31:6f:62:e5:1f:b0:59:30:
                    e9:2b:c6:e0:b4:83:9b:54:9d:61:56:d6:04:10:b7:
                    f3:b9:5e:31:e6:cf:af:40:0e:aa:7a:2a:d8:1c:ee:
                    5d:d1:5c:17:64:c7:37:f7:34:3d:42:6c:10:0c:ad:
                    e3:27:a9:ef:e6:02:48:66:0f:61:92:37:fe:26:53:
                    2c:9f:79:a7:29:7c:4c
                ASN1 OID: secp384r1
                NIST CURVE: P-384
        X509v3 extensions:
            X509v3 Subject Key Identifier: 
                DE:7D:41:4C:94:83:61:60:ED:FA:58:3C:92:33:58:E5:79:C2:07:A0
            X509v3 Authority Key Identifier: 
                keyid:80:14:1E:04:C6:A0:C4:28:25:30:28:59:BD:40:1A:65:07:05:18:38

            Authority Information Access: 
                CA Issuers - URI:http://url-for-aia/Intermediate.cer

            X509v3 CRL Distribution Points: 

                Full Name:
                  URI:http://url-for-crl/Intermediate.crl

            X509v3 Key Usage: critical
                Key Agreement
            X509v3 Extended Key Usage: 
                TLS Web Server Authentication
    Signature Algorithm: sha256WithRSAEncryption
         7f:00:3b:79:52:66:87:e5:91:3a:1c:2b:f3:21:bb:78:6d:83:
         33:65:01:97:c3:2f:46:07:8b:8d:db:0b:00:6e:17:98:2f:9f:
         e7:93:09:f0:c2:db:1f:f4:4f:22:e9:d7:42:78:d7:51:8d:44:
         7d:e1:d9:04:4d:0c:3b:07:87:c6:8a:36:95:59:58:e0:8c:43:
         09:1a:e7:b1:83:06:79:f2:f8:24:f6:bb:df:95:6a:22:5b:5f:
         08:c0:c9:b9:7d:b1:f8:68:45:8d:14:53:a4:51:10:bf:70:6a:
         fe:af:57:e2:5b:b6:0e:1a:8a:d9:7b:a9:07:d8:8c:79:90:b6:
         cd:cc:8a:55:7e:a5:e8:3e:f0:99:01:7d:52:ea:1f:ea:9b:99:
         14:2e:80:5b:8c:0d:f6:be:b9:b0:dd:54:21:a3:c4:90:b7:ca:
         58:17:b6:67:bf:fe:81:50:f4:93:95:57:4b:13:a2:37:91:65:
         f2:01:6b:4e:26:4f:f8:fe:0d:fa:d1:bb:f7:a4:51:4b:33:7d:
         a1:11:fd:c4:83:23:8d:44:ca:c8:33:87:0c:a3:7e:f1:51:92:
         64:0d:7e:9f:c3:51:a8:cc:f8:39:f4:89:50:4e:f0:91:3d:96:
         7c:d9:34:48:7b:b4:fd:a6:c0:d4:91:81:dc:ef:11:fb:10:cc:
         32:23:c4:a9
-----BEGIN CERTIFICATE-----
MIIC6DCCAdCgAwIBAgIUckFG4m9HrubvyiIevGGb7SfoYUEwDQYJKoZIhvcNAQEL
BQAwFzEVMBMGA1UEAwwMSW50ZXJtZWRpYXRlMB4XDTIwMTEwMzEyMDAwMFoXDTIx
MTEwMzEyMDAwMFowETEPMA0GA1UEAwwGVGFyZ2V0MHYwEAYHKoZIzj0CAQYFK4EE
ACIDYgAEamTHS8agh7XCBxOsuA03lZDk4oKVMW9i5R+wWTDpK8bgtIObVJ1hVtYE
ELfzuV4x5s+vQA6qeirYHO5d0VwXZMc39zQ9QmwQDK3jJ6nv5gJIZg9hkjf+JlMs
n3mnKXxMo4HfMIHcMB0GA1UdDgQWBBTefUFMlINhYO36WDySM1jlecIHoDAfBgNV
HSMEGDAWgBSAFB4ExqDEKCUwKFm9QBplBwUYODA/BggrBgEFBQcBAQQzMDEwLwYI
KwYBBQUHMAKGI2h0dHA6Ly91cmwtZm9yLWFpYS9JbnRlcm1lZGlhdGUuY2VyMDQG
A1UdHwQtMCswKaAnoCWGI2h0dHA6Ly91cmwtZm9yLWNybC9JbnRlcm1lZGlhdGUu
Y3JsMA4GA1UdDwEB/wQEAwIDCDATBgNVHSUEDDAKBggrBgEFBQcDATANBgkqhkiG
9w0BAQsFAAOCAQEAfwA7eVJmh+WROhwr8yG7eG2DM2UBl8MvRgeLjdsLAG4XmC+f
55MJ8MLbH/RPIunXQnjXUY1EfeHZBE0MOweHxoo2lVlY4IxDCRrnsYMGefL4JPa7
35VqIltfCMDJuX2x+GhFjRRTpFEQv3Bq/q9X4lu2DhqK2XupB9iMeZC2zcyKVX6l
6D7wmQF9Uuof6puZFC6AW4wN9r65sN1UIaPEkLfKWBe2Z7/+gVD0k5VXSxOiN5Fl
8gFrTiZP+P4N+tG796RRSzN9oRH9xIMjjUTKyDOHDKN+8VGSZA1+n8NRqMz4OfSJ
UE7wkT2WfNk0SHu0/abA1JGB3O8R+xDMMiPEqQ==
-----END CERTIFICATE-----

Certificate:
    Data:
        Version: 3 (0x2)
        Serial Number:
            31:2c:98:11:ad:7d:7c:47:ab:8a:21:e3:43:a7:12:a0:c9:a9:32:4f
        Signature Algorithm: sha256WithRSAEncryption
        Issuer: CN=Root
        Validity
            Not Before: Nov  3 12:00:00 2020 GMT
            Not After : Nov  3 12:00:00 2021 GMT
        Subject: CN=Intermediate
        Subject Public Key Info:
            Public Key Algorithm: rsaEncryption
                RSA Public-Key: (2048 bit)
                Modulus:
                    00:ad:ea:23:0c:dc:31:55:3d:23:7a:a3:0f:5e:16:
                    9e:62:44:e4:28:bf:0b:b0:76:a3:5e:71:e7:a9:85:
                    52:1e:ae:3b:2b:21:0d:95:35:73:c2:c0:a0:78:13:
                    d3:fc:27:57:8a:98:de:83:e3:8f:a3:13:a5:20:a7:
                    a9:bf:c8:f5:02:1b:08:1a:2e:a5:04:7a:11:24:a1:
                    59:11:3d:c0:3b:57:35:62:cd:2a:41:cd:5c:15:35:
                    ac:c8:66:f8:a9:f2:d4:1c:0c:b4:dc:9d:7b:99:f9:
                    07:1b:c9:f0:03:6a:6c:71:d8:e6:cb:7a:ec:c7:a7:
                    b7:36:0b:f0:49:22:37:22:f4:77:f3:1a:a6:57:59:
                    0b:6c:6a:3b:b8:d1:47:df:48:ac:54:ee:82:1e:39:
                    14:dc:a6:9c:ab:33:b7:87:4f:3b:70:55:af:db:40:
                    e5:26:a9:0f:bc:59:8f:61:92:47:0a:34:73:de:fb:
                    25:fa:f1:bd:a4:03:35:93:5e:57:a3:a3:3f:13:e6:
                    09:68:c5:51:29:20:53:b8:5e:fa:8a:ce:e8:0a:ef:
                    9e:07:6e:55:f7:f6:c1:e7:12:9f:22:c1:72:b8:2a:
                    af:25:34:eb:08:28:36:73:8e:f6:80:70:21:16:8a:
                    81:2b:69:47:62:c5:ef:7e:dd:80:7c:09:4e:6d:57:
                    86:4f
                Exponent: 65537 (0x10001)
        X509v3 extensions:
            X509v3 Subject Key Identifier: 
                80:14:1E:04:C6:A0:C4:28:25:30:28:59:BD:40:1A:65:07:05:18:38
            X509v3 Authority Key Identifier: 
                keyid:71:50:52:35:92:69:F7:54:B1:8A:0C:C1:93:87:3E:84:E9:BE:5C:80

            Authority Information Access: 
                CA Issuers - URI:http://url-for-aia/Root.cer

            X509v3 CRL Distribution Points: 

                Full Name:
                  URI:http://url-for-crl/Root.crl

            X509v3 Key Usage: critical
                Certificate Sign, CRL Sign
            X509v3 Basic Constraints: critical
                CA:TRUE
    Signature Algorithm: sha256WithRSAEncryption
         67:eb:4e:80:cb:2c:24:dd:69:53:bb:95:7b:27:09:83:dc:54:
         7a:a2:cc:33:d1:90:5f:18:da:97:3b:d7:d8:be:b4:c1:25:bd:
         34:5a:03:07:de:34:60:8e:d4:29:1d:08:f1:92:81:f7:6b:8c:
         92:94:e1:ec:90:d2:0f:ae:0f:13:26:c4:b0:1c:81:e4:98:c6:
         5e:fb:f0:f3:e8:aa:4b:f7:d1:8a:65:5a:88:51:b7:11:ea:90:
         78:4c:65:6d:43:d2:ef:f6:4d:0f:3b:06:e0:07:e3:7a:72:ca:
         92:b9:4a:f3:06:21:a9:90:e6:ac:90:31:de:dc:70:4f:52:26:
         3a:aa:96:35:3a:83:cf:cc:bd:90:83:98:f3:7e:c7:61:52:43:
         8f:8b:24:86:da:1c:0d:cd:c3:86:53:97:41:80:a8:57:e5:6d:
         03:88:41:77:32:99:eb:34:b1:ef:df:2b:08:18:95:68:61:58:
         0f:cd:e1:7f:a5:ba:ad:34:a7:97:06:4c:3a:8a:79:c5:51:06:
         25:69:30:64:d6:7a:93:a9:9a:a3:64:f2:52:1a:0c:92:fd:07:
         75:b0:d8:20:1f:2e:d9:96:bd:23:33:6a:3e:d7:f2:89:69:bb:
         9b:9b:47:3f:dc:62:30:f8:28:38:4d:63:d6:af:7c:4e:c3:ba:
         01:5b:5a:3a
-----BEGIN CERTIFICATE-----
MIIDgDCCAmigAwIBAgIUMSyYEa19fEeriiHjQ6cSoMmpMk8wDQYJKoZIhvcNAQEL
BQAwDzENMAsGA1UEAwwEUm9vdDAeFw0yMDExMDMxMjAwMDBaFw0yMTExMDMxMjAw
MDBaMBcxFTATBgNVBAMMDEludGVybWVkaWF0ZTCCASIwDQYJKoZIhvcNAQEBBQAD
ggEPADCCAQoCggEBAK3qIwzcMVU9I3qjD14WnmJE5Ci/C7B2o15x56mFUh6uOysh
DZU1c8LAoHgT0/wnV4qY3oPjj6MTpSCnqb/I9QIbCBoupQR6ESShWRE9wDtXNWLN
KkHNXBU1rMhm+Kny1BwMtNyde5n5BxvJ8ANqbHHY5st67MentzYL8EkiNyL0d/Ma
pldZC2xqO7jRR99IrFTugh45FNymnKszt4dPO3BVr9tA5SapD7xZj2GSRwo0c977
JfrxvaQDNZNeV6OjPxPmCWjFUSkgU7he+orO6ArvngduVff2wecSnyLBcrgqryU0
6wgoNnOO9oBwIRaKgStpR2LF737dgHwJTm1Xhk8CAwEAAaOByzCByDAdBgNVHQ4E
FgQUgBQeBMagxCglMChZvUAaZQcFGDgwHwYDVR0jBBgwFoAUcVBSNZJp91SxigzB
k4c+hOm+XIAwNwYIKwYBBQUHAQEEKzApMCcGCCsGAQUFBzAChhtodHRwOi8vdXJs
LWZvci1haWEvUm9vdC5jZXIwLAYDVR0fBCUwIzAhoB+gHYYbaHR0cDovL3VybC1m
b3ItY3JsL1Jvb3QuY3JsMA4GA1UdDwEB/wQEAwIBBjAPBgNVHRMBAf8EBTADAQH/
MA0GCSqGSIb3DQEBCwUAA4IBAQBn606Ayywk3WlTu5V7JwmD3FR6oswz0ZBfGNqX
O9fYvrTBJb00WgMH3jRgjtQpHQjxkoH3a4ySlOHskNIPrg8TJsSwHIHkmMZe+/Dz
6KpL99GKZVqIUbcR6pB4TGVtQ9Lv9k0POwbgB+N6csqSuUrzBiGpkOaskDHe3HBP
UiY6qpY1OoPPzL2Qg5jzfsdhUkOPiySG2hwNzcOGU5dBgKhX5W0DiEF3MpnrNLHv
3ysIGJVoYVgPzeF/pbqtNKeXBkw6innFUQYlaTBk1nqTqZqjZPJSGgyS/Qd1sNgg
Hy7Zlr0jM2o+1/KJabubm0c/3GIw+Cg4TWPWr3xOw7oBW1o6
-----END CERTIFICATE-----

Certificate:
    Data:
        Version: 3 (0x2)
        Serial Number:
            31:2c:98:11:ad:7d:7c:47:ab:8a:21:e3:43:a7:12:a0:c9:a9:32:4e
        Signature Algorithm: sha256WithRSAEncryption
        Issuer: CN=Root
        Validity
            Not Before: Nov  3 12:00:00 2020 GMT
            Not After : Nov  3 12:00:00 2021 GMT
        Subject: CN=Root
        Subject Public Key Info:
            Public Key Algorithm: rsaEncryption
                RSA Public-Key: (2048 bit)
                Modulus:
                    00:b2:df:0b:0b:a2:8a:9c:9c:68:ad:24:f9:f9:e6:
                    95:ef:e4:71:1e:00:fb:ec:bf:b1:cb:6e:d6:40:30:
                    42:7a:38:87:9e:5b:cd:58:3e:b7:31:5c:8d:0d:84:
                    7a:be:ef:e6:98:ba:4e:c5:ae:2b:2f:66:b2:b2:3f:
                    e7:c0:a8:8b:75:60:61:2a:67:8a:d2:55:72:83:e2:
                    ff:de:76:d6:63:58:79:ba:91:c1:80:e1:06:1b:35:
                    9c:b3:e9:19:f8:c7:21:80:dd:9e:04:18:35:de:df:
                    00:80:21:09:06:3c:6c:9a:de:10:d1:fd:4d:2f:27:
                    5e:56:24:44:67:88:48:e4:25:52:cc:c7:17:3f:69:
                    1f:76:fc:b1:83:45:48:5d:37:da:80:3e:3d:7f:f6:
                    8d:ec:83:00:d6:2f:c4:41:5d:79:ae:ad:14:4c:24:
                    b3:5e:1e:fe:ed:e8:39:17:4a:4b:ca:eb:10:5d:6e:
                    af:38:58:b1:12:a5:69:bd:bd:63:dd:f5:21:71:2c:
                    36:37:72:51:3b:3a:de:8f:1e:a0:e2:6b:45:da:02:
                    ad:7e:04:b7:d3:c8:64:34:c6:f4:08:a0:e5:c9:02:
                    1b:6f:42:22:be:d3:8b:7b:63:6e:39:c4:97:17:c6:
                    9a:ba:9e:26:9b:e1:65:a6:4d:4a:93:5e:b2:4e:18:
                    9d:c1
                Exponent: 65537 (0x10001)
        X509v3 extensions:
            X509v3 Subject Key Identifier: 
                71:50:52:35:92:69:F7:54:B1:8A:0C:C1:93:87:3E:84:E9:BE:5C:80
            X509v3 Authority Key Identifier: 
                keyid:71:50:52:35:92:69:F7:54:B1:8A:0C:C1:93:87:3E:84:E9:BE:5C:80

            Authority Information Access: 
                CA Issuers - URI:http://url-for-aia/Root.cer

            X509v3 CRL Distribution Points: 

                Full Name:
                  URI:http://url-for-crl/Root.crl

            X509v3 Key Usage: critical
                Certificate Sign, CRL Sign
            X509v3 Basic Constraints: critical
                CA:TRUE
    Signature Algorithm: sha256WithRSAEncryption
         63:0b:a6:91:2b:8c:0a:8d:d1:7e:3d:7e:7a:50:c8:1b:1f:28:
         55:4d:ba:a1:5b:c6:31:38:58:5b:99:ec:3a:10:c7:3c:96:a0:
         4a:6f:c2:ff:bb:ef:ae:a0:89:05:96:83:44:ea:da:d7:69:63:
         ae:27:65:25:86:9a:34:ac:37:bd:66:a1:88:cf:ca:35:bd:2d:
         11:bb:d8:a4:0a:37:53:4e:59:82:3b:e1:11:81:0c:7e:cb:3f:
         46:68:7a:53:de:d1:39:bb:88:ce:75:07:32:db:a0:f2:e3:b5:
         f4:50:d8:5f:69:18:26:d3:20:55:2f:f2:35:40:f4:c7:59:18:
         03:de:c9:07:57:81:5b:de:48:dc:cd:a9:a2:b3:0f:00:15:2d:
         5f:c0:13:2d:71:65:5f:ab:2e:26:2e:eb:39:cc:36:c6:ab:d4:
         90:0e:78:4a:50:09:a0:16:a3:e1:09:43:51:83:55:3f:6e:0a:
         ee:1f:da:18:77:b5:46:39:6d:44:b2:89:b7:e6:af:25:b3:4f:
         7c:3f:07:2a:b0:28:c6:ab:c4:9c:9b:ab:04:80:5e:46:26:2c:
         0c:9d:0c:33:e1:1f:43:03:36:dc:9e:a7:fc:8c:ad:10:61:92:
         e3:d6:af:ec:c3:c5:62:07:fc:bb:a7:29:a3:8c:5c:20:3f:1f:
         1e:a5:b2:e6
-----BEGIN CERTIFICATE-----
MIIDeDCCAmCgAwIBAgIUMSyYEa19fEeriiHjQ6cSoMmpMk4wDQYJKoZIhvcNAQEL
BQAwDzENMAsGA1UEAwwEUm9vdDAeFw0yMDExMDMxMjAwMDBaFw0yMTExMDMxMjAw
MDBaMA8xDTALBgNVBAMMBFJvb3QwggEiMA0GCSqGSIb3DQEBAQUAA4IBDwAwggEK
AoIBAQCy3wsLooqcnGitJPn55pXv5HEeAPvsv7HLbtZAMEJ6OIeeW81YPrcxXI0N
hHq+7+aYuk7FrisvZrKyP+fAqIt1YGEqZ4rSVXKD4v/edtZjWHm6kcGA4QYbNZyz
6Rn4xyGA3Z4EGDXe3wCAIQkGPGya3hDR/U0vJ15WJERniEjkJVLMxxc/aR92/LGD
RUhdN9qAPj1/9o3sgwDWL8RBXXmurRRMJLNeHv7t6DkXSkvK6xBdbq84WLESpWm9
vWPd9SFxLDY3clE7Ot6PHqDia0XaAq1+BLfTyGQ0xvQIoOXJAhtvQiK+04t7Y245
xJcXxpq6niab4WWmTUqTXrJOGJ3BAgMBAAGjgcswgcgwHQYDVR0OBBYEFHFQUjWS
afdUsYoMwZOHPoTpvlyAMB8GA1UdIwQYMBaAFHFQUjWSafdUsYoMwZOHPoTpvlyA
MDcGCCsGAQUFBwEBBCswKTAnBggrBgEFBQcwAoYbaHR0cDovL3VybC1mb3ItYWlh
L1Jvb3QuY2VyMCwGA1UdHwQlMCMwIaAfoB2GG2h0dHA6Ly91cmwtZm9yLWNybC9S
b290LmNybDAOBgNVHQ8BAf8EBAMCAQYwDwYDVR0TAQH/BAUwAwEB/zANBgkqhkiG
9w0BAQsFAAOCAQEAYwumkSuMCo3Rfj1+elDIGx8oVU26oVvGMThYW5nsOhDHPJag
Sm/C/7vvrqCJBZaDROra12ljridlJYaaNKw3vWahiM/KNb0tEbvYpAo3U05Zgjvh
EYEMfss/Rmh6U97RObuIznUHMtug8uO19FDYX2kYJtMgVS/yNUD0x1kYA97JB1eB
W95I3M2porMPABUtX8ATLXFlX6suJi7rOcw2xqvUkA54SlAJoBaj4QlDUYNVP24K
7h/aGHe1RjltRLKJt+avJbNPfD8HKrAoxqvEnJurBIBeRiYsDJ0MM+EfQwM23J6n
/IytEGGS49av7MPFYgf8u6cpo4xcID8fHqWy5g==
-----END CERTIFICATE-----
