[Created by: generate-chains.py]

Certificate chain where the target certificate uses a EC key and has the single key usage keyEncipherment

Certificate:
    Data:
        Version: 3 (0x2)
        Serial Number:
            72:41:46:e2:6f:47:ae:e6:ef:ca:22:1e:bc:61:9b:ed:27:e8:61:42
        Signature Algorithm: sha256WithRSAEncryption
        Issuer: CN=Intermediate
        Validity
            Not Before: Nov  3 12:00:00 2020 GMT
            Not After : Nov  3 12:00:00 2021 GMT
        Subject: CN=Target
        Subject Public Key Info:
            Public Key Algorithm: id-ecPublicKey
                Public-Key: (384 bit)
                pub:
                    04:6a:64:c7:4b:c6:a0:87:b5:c2:07:13:ac:b8:0d:
                    37:95:90:e4:e2:82:95:31:6f:62:e5:1f:b0:59:30:
                    e9:2b:c6:e0:b4:83:9b:54:9d:61:56:d6:04:10:b7:
                    f3:b9:5e:31:e6:cf:af:40:0e:aa:7a:2a:d8:1c:ee:
                    5d:d1:5c:17:64:c7:37:f7:34:3d:42:6c:10:0c:ad:
                    e3:27:a9:ef:e6:02:48:66:0f:61:92:37:fe:26:53:
                    2c:9f:79:a7:29:7c:4c
                ASN1 OID: secp384r1
                NIST CURVE: P-384
        X509v3 extensions:
            X509v3 Subject Key Identifier: 
                DE:7D:41:4C:94:83:61:60:ED:FA:58:3C:92:33:58:E5:79:C2:07:A0
            X509v3 Authority Key Identifier: 
                keyid:80:14:1E:04:C6:A0:C4:28:25:30:28:59:BD:40:1A:65:07:05:18:38

            Authority Information Access: 
                CA Issuers - URI:http://url-for-aia/Intermediate.cer

            X509v3 CRL Distribution Points: 

                Full Name:
                  URI:http://url-for-crl/Intermediate.crl

            X509v3 Key Usage: critical
                Key Encipherment
            X509v3 Extended Key Usage: 
                TLS Web Server Authentication
    Signature Algorithm: sha256WithRSAEncryption
         38:b6:df:be:42:20:3f:8e:ea:0e:18:39:03:74:21:b1:74:26:
         ad:0b:ec:a3:c2:24:00:a2:68:b7:d3:63:d7:18:cf:06:e9:de:
         f1:5e:6e:66:c6:14:3a:f5:f1:4f:1c:3f:b9:7e:a6:f0:fe:d5:
         0d:df:85:69:49:d9:73:01:31:96:b1:0b:a1:c4:fe:30:e5:8c:
         e3:cb:ad:60:f3:12:cf:9b:24:bc:29:f1:4c:e6:bf:36:29:27:
         78:31:dc:21:d4:4f:40:c9:a1:30:a9:1a:20:12:dc:39:61:22:
         64:9d:3d:45:d1:bf:04:1b:b8:f3:6b:fc:35:48:ca:5a:31:97:
         b3:4c:b9:5c:65:91:01:58:82:53:9d:71:2f:40:ba:d8:52:ed:
         c9:98:59:ad:6f:a9:e9:68:29:91:a2:ec:ac:66:24:f2:de:b7:
         b6:20:91:c1:5d:8e:0e:ac:72:81:03:f2:76:71:59:71:1e:26:
         2d:25:a0:9c:c6:f7:4a:67:10:fd:cf:b5:e5:c7:59:42:bb:75:
         0a:e3:51:31:9d:9b:9b:f6:36:35:29:4d:69:23:96:55:8f:18:
         3a:97:93:eb:f5:f5:c9:7f:6d:42:9d:36:26:2f:1f:72:75:7e:
         b5:e4:27:58:e3:b5:09:9d:71:0f:18:f3:98:dd:f5:9c:c5:74:
         79:a2:82:82
-----BEGIN CERTIFICATE-----
MIIC6DCCAdCgAwIBAgIUckFG4m9HrubvyiIevGGb7SfoYUIwDQYJKoZIhvcNAQEL
BQAwFzEVMBMGA1UEAwwMSW50ZXJtZWRpYXRlMB4XDTIwMTEwMzEyMDAwMFoXDTIx
MTEwMzEyMDAwMFowETEPMA0GA1UEAwwGVGFyZ2V0MHYwEAYHKoZIzj0CAQYFK4EE
ACIDYgAEamTHS8agh7XCBxOsuA03lZDk4oKVMW9i5R+wWTDpK8bgtIObVJ1hVtYE
ELfzuV4x5s+vQA6qeirYHO5d0VwXZMc39zQ9QmwQDK3jJ6nv5gJIZg9hkjf+JlMs
n3mnKXxMo4HfMIHcMB0GA1UdDgQWBBTefUFMlINhYO36WDySM1jlecIHoDAfBgNV
HSMEGDAWgBSAFB4ExqDEKCUwKFm9QBplBwUYODA/BggrBgEFBQcBAQQzMDEwLwYI
KwYBBQUHMAKGI2h0dHA6Ly91cmwtZm9yLWFpYS9JbnRlcm1lZGlhdGUuY2VyMDQG
A1UdHwQtMCswKaAnoCWGI2h0dHA6Ly91cmwtZm9yLWNybC9JbnRlcm1lZGlhdGUu
Y3JsMA4GA1UdDwEB/wQEAwIFIDATBgNVHSUEDDAKBggrBgEFBQcDATANBgkqhkiG
9w0BAQsFAAOCAQEAOLbfvkIgP47qDhg5A3QhsXQmrQvso8IkAKJot9Nj1xjPBune
8V5uZsYUOvXxTxw/uX6m8P7VDd+FaUnZcwExlrELocT+MOWM48utYPMSz5skvCnx
TOa/NikneDHcIdRPQMmhMKkaIBLcOWEiZJ09RdG/BBu482v8NUjKWjGXs0y5XGWR
AViCU51xL0C62FLtyZhZrW+p6WgpkaLsrGYk8t63tiCRwV2ODqxygQPydnFZcR4m
LSWgnMb3SmcQ/c+15cdZQrt1CuNRMZ2bm/Y2NSlNaSOWVY8YOpeT6/X1yX9tQp02
Ji8fcnV+teQnWOO1CZ1xDxjzmN31nMV0eaKCgg==
-----END CERTIFICATE-----

Certificate:
    Data:
        Version: 3 (0x2)
        Serial Number:
            31:2c:98:11:ad:7d:7c:47:ab:8a:21:e3:43:a7:12:a0:c9:a9:32:4f
        Signature Algorithm: sha256WithRSAEncryption
        Issuer: CN=Root
        Validity
            Not Before: Nov  3 12:00:00 2020 GMT
            Not After : Nov  3 12:00:00 2021 GMT
        Subject: CN=Intermediate
        Subject Public Key Info:
            Public Key Algorithm: rsaEncryption
                RSA Public-Key: (2048 bit)
                Modulus:
                    00:ad:ea:23:0c:dc:31:55:3d:23:7a:a3:0f:5e:16:
                    9e:62:44:e4:28:bf:0b:b0:76:a3:5e:71:e7:a9:85:
                    52:1e:ae:3b:2b:21:0d:95:35:73:c2:c0:a0:78:13:
                    d3:fc:27:57:8a:98:de:83:e3:8f:a3:13:a5:20:a7:
                    a9:bf:c8:f5:02:1b:08:1a:2e:a5:04:7a:11:24:a1:
                    59:11:3d:c0:3b:57:35:62:cd:2a:41:cd:5c:15:35:
                    ac:c8:66:f8:a9:f2:d4:1c:0c:b4:dc:9d:7b:99:f9:
                    07:1b:c9:f0:03:6a:6c:71:d8:e6:cb:7a:ec:c7:a7:
                    b7:36:0b:f0:49:22:37:22:f4:77:f3:1a:a6:57:59:
                    0b:6c:6a:3b:b8:d1:47:df:48:ac:54:ee:82:1e:39:
                    14:dc:a6:9c:ab:33:b7:87:4f:3b:70:55:af:db:40:
                    e5:26:a9:0f:bc:59:8f:61:92:47:0a:34:73:de:fb:
                    25:fa:f1:bd:a4:03:35:93:5e:57:a3:a3:3f:13:e6:
                    09:68:c5:51:29:20:53:b8:5e:fa:8a:ce:e8:0a:ef:
                    9e:07:6e:55:f7:f6:c1:e7:12:9f:22:c1:72:b8:2a:
                    af:25:34:eb:08:28:36:73:8e:f6:80:70:21:16:8a:
                    81:2b:69:47:62:c5:ef:7e:dd:80:7c:09:4e:6d:57:
                    86:4f
                Exponent: 65537 (0x10001)
        X509v3 extensions:
            X509v3 Subject Key Identifier: 
                80:14:1E:04:C6:A0:C4:28:25:30:28:59:BD:40:1A:65:07:05:18:38
            X509v3 Authority Key Identifier: 
                keyid:71:50:52:35:92:69:F7:54:B1:8A:0C:C1:93:87:3E:84:E9:BE:5C:80

            Authority Information Access: 
                CA Issuers - URI:http://url-for-aia/Root.cer

            X509v3 CRL Distribution Points: 

                Full Name:
                  URI:http://url-for-crl/Root.crl

            X509v3 Key Usage: critical
                Certificate Sign, CRL Sign
            X509v3 Basic Constraints: critical
                CA:TRUE
    Signature Algorithm: sha256WithRSAEncryption
         67:eb:4e:80:cb:2c:24:dd:69:53:bb:95:7b:27:09:83:dc:54:
         7a:a2:cc:33:d1:90:5f:18:da:97:3b:d7:d8:be:b4:c1:25:bd:
         34:5a:03:07:de:34:60:8e:d4:29:1d:08:f1:92:81:f7:6b:8c:
         92:94:e1:ec:90:d2:0f:ae:0f:13:26:c4:b0:1c:81:e4:98:c6:
         5e:fb:f0:f3:e8:aa:4b:f7:d1:8a:65:5a:88:51:b7:11:ea:90:
         78:4c:65:6d:43:d2:ef:f6:4d:0f:3b:06:e0:07:e3:7a:72:ca:
         92:b9:4a:f3:06:21:a9:90:e6:ac:90:31:de:dc:70:4f:52:26:
         3a:aa:96:35:3a:83:cf:cc:bd:90:83:98:f3:7e:c7:61:52:43:
         8f:8b:24:86:da:1c:0d:cd:c3:86:53:97:41:80:a8:57:e5:6d:
         03:88:41:77:32:99:eb:34:b1:ef:df:2b:08:18:95:68:61:58:
         0f:cd:e1:7f:a5:ba:ad:34:a7:97:06:4c:3a:8a:79:c5:51:06:
         25:69:30:64:d6:7a:93:a9:9a:a3:64:f2:52:1a:0c:92:fd:07:
         75:b0:d8:20:1f:2e:d9:96:bd:23:33:6a:3e:d7:f2:89:69:bb:
         9b:9b:47:3f:dc:62:30:f8:28:38:4d:63:d6:af:7c:4e:c3:ba:
         01:5b:5a:3a
-----BEGIN CERTIFICATE-----
MIIDgDCCAmigAwIBAgIUMSyYEa19fEeriiHjQ6cSoMmpMk8wDQYJKoZIhvcNAQEL
BQAwDzENMAsGA1UEAwwEUm9vdDAeFw0yMDExMDMxMjAwMDBaFw0yMTExMDMxMjAw
MDBaMBcxFTATBgNVBAMMDEludGVybWVkaWF0ZTCCASIwDQYJKoZIhvcNAQEBBQAD
ggEPADCCAQoCggEBAK3qIwzcMVU9I3qjD14WnmJE5Ci/C7B2o15x56mFUh6uOysh
DZU1c8LAoHgT0/wnV4qY3oPjj6MTpSCnqb/I9QIbCBoupQR6ESShWRE9wDtXNWLN
KkHNXBU1rMhm+Kny1BwMtNyde5n5BxvJ8ANqbHHY5st67MentzYL8EkiNyL0d/Ma
pldZC2xqO7jRR99IrFTugh45FNymnKszt4dPO3BVr9tA5SapD7xZj2GSRwo0c977
JfrxvaQDNZNeV6OjPxPmCWjFUSkgU7he+orO6ArvngduVff2wecSnyLBcrgqryU0
6wgoNnOO9oBwIRaKgStpR2LF737dgHwJTm1Xhk8CAwEAAaOByzCByDAdBgNVHQ4E
FgQUgBQeBMagxCglMChZvUAaZQcFGDgwHwYDVR0jBBgwFoAUcVBSNZJp91SxigzB
k4c+hOm+XIAwNwYIKwYBBQUHAQEEKzApMCcGCCsGAQUFBzAChhtodHRwOi8vdXJs
LWZvci1haWEvUm9vdC5jZXIwLAYDVR0fBCUwIzAhoB+gHYYbaHR0cDovL3VybC1m
b3ItY3JsL1Jvb3QuY3JsMA4GA1UdDwEB/wQEAwIBBjAPBgNVHRMBAf8EBTADAQH/
MA0GCSqGSIb3DQEBCwUAA4IBAQBn606Ayywk3WlTu5V7JwmD3FR6oswz0ZBfGNqX
O9fYvrTBJb00WgMH3jRgjtQpHQjxkoH3a4ySlOHskNIPrg8TJsSwHIHkmMZe+/Dz
6KpL99GKZVqIUbcR6pB4TGVtQ9Lv9k0POwbgB+N6csqSuUrzBiGpkOaskDHe3HBP
UiY6qpY1OoPPzL2Qg5jzfsdhUkOPiySG2hwNzcOGU5dBgKhX5W0DiEF3MpnrNLHv
3ysIGJVoYVgPzeF/pbqtNKeXBkw6innFUQYlaTBk1nqTqZqjZPJSGgyS/Qd1sNgg
Hy7Zlr0jM2o+1/KJabubm0c/3GIw+Cg4TWPWr3xOw7oBW1o6
-----END CERTIFICATE-----

Certificate:
    Data:
        Version: 3 (0x2)
        Serial Number:
            31:2c:98:11:ad:7d:7c:47:ab:8a:21:e3:43:a7:12:a0:c9:a9:32:4e
        Signature Algorithm: sha256WithRSAEncryption
        Issuer: CN=Root
        Validity
            Not Before: Nov  3 12:00:00 2020 GMT
            Not After : Nov  3 12:00:00 2021 GMT
        Subject: CN=Root
        Subject Public Key Info:
            Public Key Algorithm: rsaEncryption
                RSA Public-Key: (2048 bit)
                Modulus:
                    00:b2:df:0b:0b:a2:8a:9c:9c:68:ad:24:f9:f9:e6:
                    95:ef:e4:71:1e:00:fb:ec:bf:b1:cb:6e:d6:40:30:
                    42:7a:38:87:9e:5b:cd:58:3e:b7:31:5c:8d:0d:84:
                    7a:be:ef:e6:98:ba:4e:c5:ae:2b:2f:66:b2:b2:3f:
                    e7:c0:a8:8b:75:60:61:2a:67:8a:d2:55:72:83:e2:
                    ff:de:76:d6:63:58:79:ba:91:c1:80:e1:06:1b:35:
                    9c:b3:e9:19:f8:c7:21:80:dd:9e:04:18:35:de:df:
                    00:80:21:09:06:3c:6c:9a:de:10:d1:fd:4d:2f:27:
                    5e:56:24:44:67:88:48:e4:25:52:cc:c7:17:3f:69:
                    1f:76:fc:b1:83:45:48:5d:37:da:80:3e:3d:7f:f6:
                    8d:ec:83:00:d6:2f:c4:41:5d:79:ae:ad:14:4c:24:
                    b3:5e:1e:fe:ed:e8:39:17:4a:4b:ca:eb:10:5d:6e:
                    af:38:58:b1:12:a5:69:bd:bd:63:dd:f5:21:71:2c:
                    36:37:72:51:3b:3a:de:8f:1e:a0:e2:6b:45:da:02:
                    ad:7e:04:b7:d3:c8:64:34:c6:f4:08:a0:e5:c9:02:
                    1b:6f:42:22:be:d3:8b:7b:63:6e:39:c4:97:17:c6:
                    9a:ba:9e:26:9b:e1:65:a6:4d:4a:93:5e:b2:4e:18:
                    9d:c1
                Exponent: 65537 (0x10001)
        X509v3 extensions:
            X509v3 Subject Key Identifier: 
                71:50:52:35:92:69:F7:54:B1:8A:0C:C1:93:87:3E:84:E9:BE:5C:80
            X509v3 Authority Key Identifier: 
                keyid:71:50:52:35:92:69:F7:54:B1:8A:0C:C1:93:87:3E:84:E9:BE:5C:80

            Authority Information Access: 
                CA Issuers - URI:http://url-for-aia/Root.cer

            X509v3 CRL Distribution Points: 

                Full Name:
                  URI:http://url-for-crl/Root.crl

            X509v3 Key Usage: critical
                Certificate Sign, CRL Sign
            X509v3 Basic Constraints: critical
                CA:TRUE
    Signature Algorithm: sha256WithRSAEncryption
         63:0b:a6:91:2b:8c:0a:8d:d1:7e:3d:7e:7a:50:c8:1b:1f:28:
         55:4d:ba:a1:5b:c6:31:38:58:5b:99:ec:3a:10:c7:3c:96:a0:
         4a:6f:c2:ff:bb:ef:ae:a0:89:05:96:83:44:ea:da:d7:69:63:
         ae:27:65:25:86:9a:34:ac:37:bd:66:a1:88:cf:ca:35:bd:2d:
         11:bb:d8:a4:0a:37:53:4e:59:82:3b:e1:11:81:0c:7e:cb:3f:
         46:68:7a:53:de:d1:39:bb:88:ce:75:07:32:db:a0:f2:e3:b5:
         f4:50:d8:5f:69:18:26:d3:20:55:2f:f2:35:40:f4:c7:59:18:
         03:de:c9:07:57:81:5b:de:48:dc:cd:a9:a2:b3:0f:00:15:2d:
         5f:c0:13:2d:71:65:5f:ab:2e:26:2e:eb:39:cc:36:c6:ab:d4:
         90:0e:78:4a:50:09:a0:16:a3:e1:09:43:51:83:55:3f:6e:0a:
         ee:1f:da:18:77:b5:46:39:6d:44:b2:89:b7:e6:af:25:b3:4f:
         7c:3f:07:2a:b0:28:c6:ab:c4:9c:9b:ab:04:80:5e:46:26:2c:
         0c:9d:0c:33:e1:1f:43:03:36:dc:9e:a7:fc:8c:ad:10:61:92:
         e3:d6:af:ec:c3:c5:62:07:fc:bb:a7:29:a3:8c:5c:20:3f:1f:
         1e:a5:b2:e6
-----BEGIN CERTIFICATE-----
MIIDeDCCAmCgAwIBAgIUMSyYEa19fEeriiHjQ6cSoMmpMk4wDQYJKoZIhvcNAQEL
BQAwDzENMAsGA1UEAwwEUm9vdDAeFw0yMDExMDMxMjAwMDBaFw0yMTExMDMxMjAw
MDBaMA8xDTALBgNVBAMMBFJvb3QwggEiMA0GCSqGSIb3DQEBAQUAA4IBDwAwggEK
AoIBAQCy3wsLooqcnGitJPn55pXv5HEeAPvsv7HLbtZAMEJ6OIeeW81YPrcxXI0N
hHq+7+aYuk7FrisvZrKyP+fAqIt1YGEqZ4rSVXKD4v/edtZjWHm6kcGA4QYbNZyz
6Rn4xyGA3Z4EGDXe3wCAIQkGPGya3hDR/U0vJ15WJERniEjkJVLMxxc/aR92/LGD
RUhdN9qAPj1/9o3sgwDWL8RBXXmurRRMJLNeHv7t6DkXSkvK6xBdbq84WLESpWm9
vWPd9SFxLDY3clE7Ot6PHqDia0XaAq1+BLfTyGQ0xvQIoOXJAhtvQiK+04t7Y245
xJcXxpq6niab4WWmTUqTXrJOGJ3BAgMBAAGjgcswgcgwHQYDVR0OBBYEFHFQUjWS
afdUsYoMwZOHPoTpvlyAMB8GA1UdIwQYMBaAFHFQUjWSafdUsYoMwZOHPoTpvlyA
MDcGCCsGAQUFBwEBBCswKTAnBggrBgEFBQcwAoYbaHR0cDovL3VybC1mb3ItYWlh
L1Jvb3QuY2VyMCwGA1UdHwQlMCMwIaAfoB2GG2h0dHA6Ly91cmwtZm9yLWNybC9S
b290LmNybDAOBgNVHQ8BAf8EBAMCAQYwDwYDVR0TAQH/BAUwAwEB/zANBgkqhkiG
9w0BAQsFAAOCAQEAYwumkSuMCo3Rfj1+elDIGx8oVU26oVvGMThYW5nsOhDHPJag
Sm/C/7vvrqCJBZaDROra12ljridlJYaaNKw3vWahiM/KNb0tEbvYpAo3U05Zgjvh
EYEMfss/Rmh6U97RObuIznUHMtug8uO19FDYX2kYJtMgVS/yNUD0x1kYA97JB1eB
W95I3M2porMPABUtX8ATLXFlX6suJi7rOcw2xqvUkA54SlAJoBaj4QlDUYNVP24K
7h/aGHe1RjltRLKJt+avJbNPfD8HKrAoxqvEnJurBIBeRiYsDJ0MM+EfQwM23J6n
/IytEGGS49av7MPFYgf8u6cpo4xcID8fHqWy5g==
-----END CERTIFICATE-----
