[Created by: generate-chains.py]

Certificate chain where the target certificate uses a RSA key and has the single key usage digitalSignature

Certificate:
    Data:
        Version: 3 (0x2)
        Serial Number:
            72:41:46:e2:6f:47:ae:e6:ef:ca:22:1e:bc:61:9b:ed:27:e8:61:44
        Signature Algorithm: sha256WithRSAEncryption
        Issuer: CN=Intermediate
        Validity
            Not Before: Nov  3 12:00:00 2020 GMT
            Not After : Nov  3 12:00:00 2021 GMT
        Subject: CN=Target
        Subject Public Key Info:
            Public Key Algorithm: rsaEncryption
                RSA Public-Key: (2048 bit)
                Modulus:
                    00:c8:f4:c3:ff:ae:99:44:dc:07:19:62:59:1d:ba:
                    0e:13:d0:78:b6:a0:7f:ca:74:4f:a4:c2:5c:de:04:
                    e2:ea:22:d9:28:4d:45:54:14:4c:e8:56:d4:7b:8a:
                    64:fa:f9:e4:14:23:c0:ad:cc:25:63:38:59:55:00:
                    51:e2:82:ac:ae:47:3b:da:e2:95:79:1c:b5:96:ca:
                    d2:4a:3c:f7:b8:7a:cc:9e:e2:8d:d0:17:0b:bc:6e:
                    0e:3c:c2:05:3a:21:64:00:db:c3:08:b5:e6:cf:78:
                    5d:2b:3c:ba:54:a9:5a:64:4e:1b:d8:3a:eb:14:d3:
                    5a:ad:da:6f:d6:a2:e1:7e:0f:ff:ce:71:85:14:c7:
                    fe:54:65:f9:c6:47:73:ae:6e:9b:81:e7:55:cb:7e:
                    ea:76:a8:48:f9:62:25:40:0e:d1:cf:90:8f:68:f7:
                    94:20:69:a4:14:8a:14:24:53:3d:55:b8:5a:31:ae:
                    7c:36:74:d2:c2:2c:ce:7b:e9:83:69:56:16:ec:f9:
                    bb:7c:b0:14:6f:95:12:da:7c:b0:23:b8:5d:41:dc:
                    bc:ad:24:d9:b6:6a:3f:82:6c:74:a0:73:68:5a:d3:
                    e4:f2:0a:93:b9:1c:ee:bb:ce:e2:d8:86:86:8e:e0:
                    24:58:e3:ec:f5:e3:84:36:e9:a6:62:72:5c:4b:0c:
                    9c:15
                Exponent: 65537 (0x10001)
        X509v3 extensions:
            X509v3 Subject Key Identifier: 
                F1:A9:E2:E9:58:C3:31:AD:E2:60:9B:55:C0:A2:0A:80:7B:15:10:2D
            X509v3 Authority Key Identifier: 
                keyid:80:14:1E:04:C6:A0:C4:28:25:30:28:59:BD:40:1A:65:07:05:18:38

            Authority Information Access: 
                CA Issuers - URI:http://url-for-aia/Intermediate.cer

            X509v3 CRL Distribution Points: 

                Full Name:
                  URI:http://url-for-crl/Intermediate.crl

            X509v3 Key Usage: critical
                Digital Signature
            X509v3 Extended Key Usage: 
                TLS Web Server Authentication
    Signature Algorithm: sha256WithRSAEncryption
         98:0c:f9:d2:07:ab:b1:5d:08:8e:f6:96:b2:29:3f:c8:3f:d2:
         a1:6d:f9:67:53:d5:e9:6e:fa:67:fb:10:fe:42:b0:e1:38:2f:
         90:6a:5f:a6:66:f2:07:97:b1:82:6e:08:9f:28:3c:51:ed:71:
         d5:07:96:9d:d2:55:c3:84:96:50:81:e5:23:cc:b8:5a:21:a8:
         ef:c1:f5:51:ec:13:83:a6:b8:17:17:7a:ba:fa:ee:75:4f:5b:
         f4:5b:9a:55:18:ba:61:c1:1f:88:6e:96:e0:de:1e:16:2f:2b:
         08:63:ba:46:7c:ac:97:44:91:ea:d5:cb:cd:a3:e8:1a:f8:09:
         92:e5:bb:f1:77:1c:6c:27:f2:3e:b7:b7:6f:15:07:fb:cb:28:
         5f:fc:49:57:a7:48:ca:ca:66:4c:c8:1c:79:09:e8:f2:2b:7d:
         3f:bb:10:7c:a2:26:13:76:2d:dc:13:cc:81:37:c0:f8:02:31:
         38:46:3a:88:e6:31:2c:6a:4d:7b:ec:24:d3:b3:4b:ce:3b:99:
         0c:c0:ba:31:89:19:9c:41:8a:03:3f:67:d6:06:51:94:d8:ad:
         60:6b:58:a9:6c:f6:08:39:23:35:4a:10:06:c7:e9:63:82:2b:
         0e:95:ec:11:5c:f0:1c:e3:44:df:72:af:fb:84:ee:a7:9a:b4:
         12:31:6a:e2
-----BEGIN CERTIFICATE-----
MIIDljCCAn6gAwIBAgIUckFG4m9HrubvyiIevGGb7SfoYUQwDQYJKoZIhvcNAQEL
BQAwFzEVMBMGA1UEAwwMSW50ZXJtZWRpYXRlMB4XDTIwMTEwMzEyMDAwMFoXDTIx
MTEwMzEyMDAwMFowETEPMA0GA1UEAwwGVGFyZ2V0MIIBIjANBgkqhkiG9w0BAQEF
AAOCAQ8AMIIBCgKCAQEAyPTD/66ZRNwHGWJZHboOE9B4tqB/ynRPpMJc3gTi6iLZ
KE1FVBRM6FbUe4pk+vnkFCPArcwlYzhZVQBR4oKsrkc72uKVeRy1lsrSSjz3uHrM
nuKN0BcLvG4OPMIFOiFkANvDCLXmz3hdKzy6VKlaZE4b2DrrFNNardpv1qLhfg//
znGFFMf+VGX5xkdzrm6bgedVy37qdqhI+WIlQA7Rz5CPaPeUIGmkFIoUJFM9Vbha
Ma58NnTSwizOe+mDaVYW7Pm7fLAUb5US2nywI7hdQdy8rSTZtmo/gmx0oHNoWtPk
8gqTuRzuu87i2IaGjuAkWOPs9eOENummYnJcSwycFQIDAQABo4HfMIHcMB0GA1Ud
DgQWBBTxqeLpWMMxreJgm1XAogqAexUQLTAfBgNVHSMEGDAWgBSAFB4ExqDEKCUw
KFm9QBplBwUYODA/BggrBgEFBQcBAQQzMDEwLwYIKwYBBQUHMAKGI2h0dHA6Ly91
cmwtZm9yLWFpYS9JbnRlcm1lZGlhdGUuY2VyMDQGA1UdHwQtMCswKaAnoCWGI2h0
dHA6Ly91cmwtZm9yLWNybC9JbnRlcm1lZGlhdGUuY3JsMA4GA1UdDwEB/wQEAwIH
gDATBgNVHSUEDDAKBggrBgEFBQcDATANBgkqhkiG9w0BAQsFAAOCAQEAmAz50ger
sV0IjvaWsik/yD/SoW35Z1PV6W76Z/sQ/kKw4TgvkGpfpmbyB5exgm4Inyg8Ue1x
1QeWndJVw4SWUIHlI8y4WiGo78H1UewTg6a4Fxd6uvrudU9b9FuaVRi6YcEfiG6W
4N4eFi8rCGO6Rnysl0SR6tXLzaPoGvgJkuW78XccbCfyPre3bxUH+8soX/xJV6dI
yspmTMgceQno8it9P7sQfKImE3Yt3BPMgTfA+AIxOEY6iOYxLGpNe+wk07NLzjuZ
DMC6MYkZnEGKAz9n1gZRlNitYGtYqWz2CDkjNUoQBsfpY4IrDpXsEVzwHONE33Kv
+4Tup5q0EjFq4g==
-----END CERTIFICATE-----

Certificate:
    Data:
        Version: 3 (0x2)
        Serial Number:
            31:2c:98:11:ad:7d:7c:47:ab:8a:21:e3:43:a7:12:a0:c9:a9:32:4f
        Signature Algorithm: sha256WithRSAEncryption
        Issuer: CN=Root
        Validity
            Not Before: Nov  3 12:00:00 2020 GMT
            Not After : Nov  3 12:00:00 2021 GMT
        Subject: CN=Intermediate
        Subject Public Key Info:
            Public Key Algorithm: rsaEncryption
                RSA Public-Key: (2048 bit)
                Modulus:
                    00:ad:ea:23:0c:dc:31:55:3d:23:7a:a3:0f:5e:16:
                    9e:62:44:e4:28:bf:0b:b0:76:a3:5e:71:e7:a9:85:
                    52:1e:ae:3b:2b:21:0d:95:35:73:c2:c0:a0:78:13:
                    d3:fc:27:57:8a:98:de:83:e3:8f:a3:13:a5:20:a7:
                    a9:bf:c8:f5:02:1b:08:1a:2e:a5:04:7a:11:24:a1:
                    59:11:3d:c0:3b:57:35:62:cd:2a:41:cd:5c:15:35:
                    ac:c8:66:f8:a9:f2:d4:1c:0c:b4:dc:9d:7b:99:f9:
                    07:1b:c9:f0:03:6a:6c:71:d8:e6:cb:7a:ec:c7:a7:
                    b7:36:0b:f0:49:22:37:22:f4:77:f3:1a:a6:57:59:
                    0b:6c:6a:3b:b8:d1:47:df:48:ac:54:ee:82:1e:39:
                    14:dc:a6:9c:ab:33:b7:87:4f:3b:70:55:af:db:40:
                    e5:26:a9:0f:bc:59:8f:61:92:47:0a:34:73:de:fb:
                    25:fa:f1:bd:a4:03:35:93:5e:57:a3:a3:3f:13:e6:
                    09:68:c5:51:29:20:53:b8:5e:fa:8a:ce:e8:0a:ef:
                    9e:07:6e:55:f7:f6:c1:e7:12:9f:22:c1:72:b8:2a:
                    af:25:34:eb:08:28:36:73:8e:f6:80:70:21:16:8a:
                    81:2b:69:47:62:c5:ef:7e:dd:80:7c:09:4e:6d:57:
                    86:4f
                Exponent: 65537 (0x10001)
        X509v3 extensions:
            X509v3 Subject Key Identifier: 
                80:14:1E:04:C6:A0:C4:28:25:30:28:59:BD:40:1A:65:07:05:18:38
            X509v3 Authority Key Identifier: 
                keyid:71:50:52:35:92:69:F7:54:B1:8A:0C:C1:93:87:3E:84:E9:BE:5C:80

            Authority Information Access: 
                CA Issuers - URI:http://url-for-aia/Root.cer

            X509v3 CRL Distribution Points: 

                Full Name:
                  URI:http://url-for-crl/Root.crl

            X509v3 Key Usage: critical
                Certificate Sign, CRL Sign
            X509v3 Basic Constraints: critical
                CA:TRUE
    Signature Algorithm: sha256WithRSAEncryption
         67:eb:4e:80:cb:2c:24:dd:69:53:bb:95:7b:27:09:83:dc:54:
         7a:a2:cc:33:d1:90:5f:18:da:97:3b:d7:d8:be:b4:c1:25:bd:
         34:5a:03:07:de:34:60:8e:d4:29:1d:08:f1:92:81:f7:6b:8c:
         92:94:e1:ec:90:d2:0f:ae:0f:13:26:c4:b0:1c:81:e4:98:c6:
         5e:fb:f0:f3:e8:aa:4b:f7:d1:8a:65:5a:88:51:b7:11:ea:90:
         78:4c:65:6d:43:d2:ef:f6:4d:0f:3b:06:e0:07:e3:7a:72:ca:
         92:b9:4a:f3:06:21:a9:90:e6:ac:90:31:de:dc:70:4f:52:26:
         3a:aa:96:35:3a:83:cf:cc:bd:90:83:98:f3:7e:c7:61:52:43:
         8f:8b:24:86:da:1c:0d:cd:c3:86:53:97:41:80:a8:57:e5:6d:
         03:88:41:77:32:99:eb:34:b1:ef:df:2b:08:18:95:68:61:58:
         0f:cd:e1:7f:a5:ba:ad:34:a7:97:06:4c:3a:8a:79:c5:51:06:
         25:69:30:64:d6:7a:93:a9:9a:a3:64:f2:52:1a:0c:92:fd:07:
         75:b0:d8:20:1f:2e:d9:96:bd:23:33:6a:3e:d7:f2:89:69:bb:
         9b:9b:47:3f:dc:62:30:f8:28:38:4d:63:d6:af:7c:4e:c3:ba:
         01:5b:5a:3a
-----BEGIN CERTIFICATE-----
MIIDgDCCAmigAwIBAgIUMSyYEa19fEeriiHjQ6cSoMmpMk8wDQYJKoZIhvcNAQEL
BQAwDzENMAsGA1UEAwwEUm9vdDAeFw0yMDExMDMxMjAwMDBaFw0yMTExMDMxMjAw
MDBaMBcxFTATBgNVBAMMDEludGVybWVkaWF0ZTCCASIwDQYJKoZIhvcNAQEBBQAD
ggEPADCCAQoCggEBAK3qIwzcMVU9I3qjD14WnmJE5Ci/C7B2o15x56mFUh6uOysh
DZU1c8LAoHgT0/wnV4qY3oPjj6MTpSCnqb/I9QIbCBoupQR6ESShWRE9wDtXNWLN
KkHNXBU1rMhm+Kny1BwMtNyde5n5BxvJ8ANqbHHY5st67MentzYL8EkiNyL0d/Ma
pldZC2xqO7jRR99IrFTugh45FNymnKszt4dPO3BVr9tA5SapD7xZj2GSRwo0c977
JfrxvaQDNZNeV6OjPxPmCWjFUSkgU7he+orO6ArvngduVff2wecSnyLBcrgqryU0
6wgoNnOO9oBwIRaKgStpR2LF737dgHwJTm1Xhk8CAwEAAaOByzCByDAdBgNVHQ4E
FgQUgBQeBMagxCglMChZvUAaZQcFGDgwHwYDVR0jBBgwFoAUcVBSNZJp91SxigzB
k4c+hOm+XIAwNwYIKwYBBQUHAQEEKzApMCcGCCsGAQUFBzAChhtodHRwOi8vdXJs
LWZvci1haWEvUm9vdC5jZXIwLAYDVR0fBCUwIzAhoB+gHYYbaHR0cDovL3VybC1m
b3ItY3JsL1Jvb3QuY3JsMA4GA1UdDwEB/wQEAwIBBjAPBgNVHRMBAf8EBTADAQH/
MA0GCSqGSIb3DQEBCwUAA4IBAQBn606Ayywk3WlTu5V7JwmD3FR6oswz0ZBfGNqX
O9fYvrTBJb00WgMH3jRgjtQpHQjxkoH3a4ySlOHskNIPrg8TJsSwHIHkmMZe+/Dz
6KpL99GKZVqIUbcR6pB4TGVtQ9Lv9k0POwbgB+N6csqSuUrzBiGpkOaskDHe3HBP
UiY6qpY1OoPPzL2Qg5jzfsdhUkOPiySG2hwNzcOGU5dBgKhX5W0DiEF3MpnrNLHv
3ysIGJVoYVgPzeF/pbqtNKeXBkw6innFUQYlaTBk1nqTqZqjZPJSGgyS/Qd1sNgg
Hy7Zlr0jM2o+1/KJabubm0c/3GIw+Cg4TWPWr3xOw7oBW1o6
-----END CERTIFICATE-----

Certificate:
    Data:
        Version: 3 (0x2)
        Serial Number:
            31:2c:98:11:ad:7d:7c:47:ab:8a:21:e3:43:a7:12:a0:c9:a9:32:4e
        Signature Algorithm: sha256WithRSAEncryption
        Issuer: CN=Root
        Validity
            Not Before: Nov  3 12:00:00 2020 GMT
            Not After : Nov  3 12:00:00 2021 GMT
        Subject: CN=Root
        Subject Public Key Info:
            Public Key Algorithm: rsaEncryption
                RSA Public-Key: (2048 bit)
                Modulus:
                    00:b2:df:0b:0b:a2:8a:9c:9c:68:ad:24:f9:f9:e6:
                    95:ef:e4:71:1e:00:fb:ec:bf:b1:cb:6e:d6:40:30:
                    42:7a:38:87:9e:5b:cd:58:3e:b7:31:5c:8d:0d:84:
                    7a:be:ef:e6:98:ba:4e:c5:ae:2b:2f:66:b2:b2:3f:
                    e7:c0:a8:8b:75:60:61:2a:67:8a:d2:55:72:83:e2:
                    ff:de:76:d6:63:58:79:ba:91:c1:80:e1:06:1b:35:
                    9c:b3:e9:19:f8:c7:21:80:dd:9e:04:18:35:de:df:
                    00:80:21:09:06:3c:6c:9a:de:10:d1:fd:4d:2f:27:
                    5e:56:24:44:67:88:48:e4:25:52:cc:c7:17:3f:69:
                    1f:76:fc:b1:83:45:48:5d:37:da:80:3e:3d:7f:f6:
                    8d:ec:83:00:d6:2f:c4:41:5d:79:ae:ad:14:4c:24:
                    b3:5e:1e:fe:ed:e8:39:17:4a:4b:ca:eb:10:5d:6e:
                    af:38:58:b1:12:a5:69:bd:bd:63:dd:f5:21:71:2c:
                    36:37:72:51:3b:3a:de:8f:1e:a0:e2:6b:45:da:02:
                    ad:7e:04:b7:d3:c8:64:34:c6:f4:08:a0:e5:c9:02:
                    1b:6f:42:22:be:d3:8b:7b:63:6e:39:c4:97:17:c6:
                    9a:ba:9e:26:9b:e1:65:a6:4d:4a:93:5e:b2:4e:18:
                    9d:c1
                Exponent: 65537 (0x10001)
        X509v3 extensions:
            X509v3 Subject Key Identifier: 
                71:50:52:35:92:69:F7:54:B1:8A:0C:C1:93:87:3E:84:E9:BE:5C:80
            X509v3 Authority Key Identifier: 
                keyid:71:50:52:35:92:69:F7:54:B1:8A:0C:C1:93:87:3E:84:E9:BE:5C:80

            Authority Information Access: 
                CA Issuers - URI:http://url-for-aia/Root.cer

            X509v3 CRL Distribution Points: 

                Full Name:
                  URI:http://url-for-crl/Root.crl

            X509v3 Key Usage: critical
                Certificate Sign, CRL Sign
            X509v3 Basic Constraints: critical
                CA:TRUE
    Signature Algorithm: sha256WithRSAEncryption
         63:0b:a6:91:2b:8c:0a:8d:d1:7e:3d:7e:7a:50:c8:1b:1f:28:
         55:4d:ba:a1:5b:c6:31:38:58:5b:99:ec:3a:10:c7:3c:96:a0:
         4a:6f:c2:ff:bb:ef:ae:a0:89:05:96:83:44:ea:da:d7:69:63:
         ae:27:65:25:86:9a:34:ac:37:bd:66:a1:88:cf:ca:35:bd:2d:
         11:bb:d8:a4:0a:37:53:4e:59:82:3b:e1:11:81:0c:7e:cb:3f:
         46:68:7a:53:de:d1:39:bb:88:ce:75:07:32:db:a0:f2:e3:b5:
         f4:50:d8:5f:69:18:26:d3:20:55:2f:f2:35:40:f4:c7:59:18:
         03:de:c9:07:57:81:5b:de:48:dc:cd:a9:a2:b3:0f:00:15:2d:
         5f:c0:13:2d:71:65:5f:ab:2e:26:2e:eb:39:cc:36:c6:ab:d4:
         90:0e:78:4a:50:09:a0:16:a3:e1:09:43:51:83:55:3f:6e:0a:
         ee:1f:da:18:77:b5:46:39:6d:44:b2:89:b7:e6:af:25:b3:4f:
         7c:3f:07:2a:b0:28:c6:ab:c4:9c:9b:ab:04:80:5e:46:26:2c:
         0c:9d:0c:33:e1:1f:43:03:36:dc:9e:a7:fc:8c:ad:10:61:92:
         e3:d6:af:ec:c3:c5:62:07:fc:bb:a7:29:a3:8c:5c:20:3f:1f:
         1e:a5:b2:e6
-----BEGIN CERTIFICATE-----
MIIDeDCCAmCgAwIBAgIUMSyYEa19fEeriiHjQ6cSoMmpMk4wDQYJKoZIhvcNAQEL
BQAwDzENMAsGA1UEAwwEUm9vdDAeFw0yMDExMDMxMjAwMDBaFw0yMTExMDMxMjAw
MDBaMA8xDTALBgNVBAMMBFJvb3QwggEiMA0GCSqGSIb3DQEBAQUAA4IBDwAwggEK
AoIBAQCy3wsLooqcnGitJPn55pXv5HEeAPvsv7HLbtZAMEJ6OIeeW81YPrcxXI0N
hHq+7+aYuk7FrisvZrKyP+fAqIt1YGEqZ4rSVXKD4v/edtZjWHm6kcGA4QYbNZyz
6Rn4xyGA3Z4EGDXe3wCAIQkGPGya3hDR/U0vJ15WJERniEjkJVLMxxc/aR92/LGD
RUhdN9qAPj1/9o3sgwDWL8RBXXmurRRMJLNeHv7t6DkXSkvK6xBdbq84WLESpWm9
vWPd9SFxLDY3clE7Ot6PHqDia0XaAq1+BLfTyGQ0xvQIoOXJAhtvQiK+04t7Y245
xJcXxpq6niab4WWmTUqTXrJOGJ3BAgMBAAGjgcswgcgwHQYDVR0OBBYEFHFQUjWS
afdUsYoMwZOHPoTpvlyAMB8GA1UdIwQYMBaAFHFQUjWSafdUsYoMwZOHPoTpvlyA
MDcGCCsGAQUFBwEBBCswKTAnBggrBgEFBQcwAoYbaHR0cDovL3VybC1mb3ItYWlh
L1Jvb3QuY2VyMCwGA1UdHwQlMCMwIaAfoB2GG2h0dHA6Ly91cmwtZm9yLWNybC9S
b290LmNybDAOBgNVHQ8BAf8EBAMCAQYwDwYDVR0TAQH/BAUwAwEB/zANBgkqhkiG
9w0BAQsFAAOCAQEAYwumkSuMCo3Rfj1+elDIGx8oVU26oVvGMThYW5nsOhDHPJag
Sm/C/7vvrqCJBZaDROra12ljridlJYaaNKw3vWahiM/KNb0tEbvYpAo3U05Zgjvh
EYEMfss/Rmh6U97RObuIznUHMtug8uO19FDYX2kYJtMgVS/yNUD0x1kYA97JB1eB
W95I3M2porMPABUtX8ATLXFlX6suJi7rOcw2xqvUkA54SlAJoBaj4QlDUYNVP24K
7h/aGHe1RjltRLKJt+avJbNPfD8HKrAoxqvEnJurBIBeRiYsDJ0MM+EfQwM23J6n
/IytEGGS49av7MPFYgf8u6cpo4xcID8fHqWy5g==
-----END CERTIFICATE-----
