[Created by: generate-chains.py]

Certificate chain where the target certificate uses a RSA key and has the single key usage digitalSignature

Certificate:
    Data:
        Version: 3 (0x2)
        Serial Number:
            72:41:46:e2:6f:47:ae:e6:ef:ca:22:1e:bc:61:9b:ed:27:e8:61:44
        Signature Algorithm: sha256WithRSAEncryption
        Issuer: CN=Intermediate
        Validity
            Not Before: Oct  5 12:00:00 2022 GMT
            Not After : Oct  5 12:00:00 2023 GMT
        Subject: CN=Target
        Subject Public Key Info:
            Public Key Algorithm: rsaEncryption
                Public-Key: (2048 bit)
                Modulus:
                    00:c8:f4:c3:ff:ae:99:44:dc:07:19:62:59:1d:ba:
                    0e:13:d0:78:b6:a0:7f:ca:74:4f:a4:c2:5c:de:04:
                    e2:ea:22:d9:28:4d:45:54:14:4c:e8:56:d4:7b:8a:
                    64:fa:f9:e4:14:23:c0:ad:cc:25:63:38:59:55:00:
                    51:e2:82:ac:ae:47:3b:da:e2:95:79:1c:b5:96:ca:
                    d2:4a:3c:f7:b8:7a:cc:9e:e2:8d:d0:17:0b:bc:6e:
                    0e:3c:c2:05:3a:21:64:00:db:c3:08:b5:e6:cf:78:
                    5d:2b:3c:ba:54:a9:5a:64:4e:1b:d8:3a:eb:14:d3:
                    5a:ad:da:6f:d6:a2:e1:7e:0f:ff:ce:71:85:14:c7:
                    fe:54:65:f9:c6:47:73:ae:6e:9b:81:e7:55:cb:7e:
                    ea:76:a8:48:f9:62:25:40:0e:d1:cf:90:8f:68:f7:
                    94:20:69:a4:14:8a:14:24:53:3d:55:b8:5a:31:ae:
                    7c:36:74:d2:c2:2c:ce:7b:e9:83:69:56:16:ec:f9:
                    bb:7c:b0:14:6f:95:12:da:7c:b0:23:b8:5d:41:dc:
                    bc:ad:24:d9:b6:6a:3f:82:6c:74:a0:73:68:5a:d3:
                    e4:f2:0a:93:b9:1c:ee:bb:ce:e2:d8:86:86:8e:e0:
                    24:58:e3:ec:f5:e3:84:36:e9:a6:62:72:5c:4b:0c:
                    9c:15
                Exponent: 65537 (0x10001)
        X509v3 extensions:
            X509v3 Subject Key Identifier: 
                F1:A9:E2:E9:58:C3:31:AD:E2:60:9B:55:C0:A2:0A:80:7B:15:10:2D
            X509v3 Authority Key Identifier: 
                80:14:1E:04:C6:A0:C4:28:25:30:28:59:BD:40:1A:65:07:05:18:38
            Authority Information Access: 
                CA Issuers - URI:http://url-for-aia/Intermediate.cer
            X509v3 CRL Distribution Points: 
                Full Name:
                  URI:http://url-for-crl/Intermediate.crl
            X509v3 Key Usage: critical
                Digital Signature
            X509v3 Extended Key Usage: 
                TLS Web Server Authentication
    Signature Algorithm: sha256WithRSAEncryption
    Signature Value:
        22:76:5d:64:6a:a3:d0:fe:e2:60:d8:4e:32:ab:f2:49:5d:e7:
        8a:91:54:3b:f2:79:e8:55:2a:2c:d7:b8:03:d0:3b:c8:a8:10:
        66:dc:ed:c7:29:46:1f:76:43:f0:43:99:9b:55:51:ef:3f:e1:
        c3:87:f0:ef:16:dc:98:ab:4e:b7:9f:8e:6d:8a:ac:aa:8a:4f:
        c7:50:4b:0b:4b:47:f7:db:4e:af:c4:68:1a:9f:fb:23:e4:f6:
        7d:df:53:40:67:3e:26:44:f8:4e:c8:a5:25:7c:53:45:16:88:
        a0:ba:c9:3f:30:b3:87:01:0f:9c:5b:e2:46:d9:bc:54:8d:35:
        9a:30:85:74:0a:b6:e2:68:4b:ad:b0:5c:08:ba:b5:23:dd:73:
        bf:8d:68:ed:70:33:57:91:5a:6f:2a:da:ff:1a:81:01:b7:2b:
        61:f3:2f:45:9e:fe:71:79:d4:a2:35:76:11:5d:df:5f:a2:a2:
        6b:a4:3d:d9:63:20:80:53:0c:b9:4a:ec:15:92:30:2c:cd:70:
        70:24:77:c6:b5:c8:44:67:4b:4e:a7:e8:60:dc:ff:0c:29:15:
        5f:d4:ef:fc:5c:de:f3:36:43:fe:ab:72:11:d6:60:e7:4b:3e:
        22:79:b1:82:d6:34:b3:7c:4c:79:65:e4:77:9a:a4:9a:9c:46:
        00:37:fb:c4
-----BEGIN CERTIFICATE-----
MIIDljCCAn6gAwIBAgIUckFG4m9HrubvyiIevGGb7SfoYUQwDQYJKoZIhvcNAQEL
BQAwFzEVMBMGA1UEAwwMSW50ZXJtZWRpYXRlMB4XDTIyMTAwNTEyMDAwMFoXDTIz
MTAwNTEyMDAwMFowETEPMA0GA1UEAwwGVGFyZ2V0MIIBIjANBgkqhkiG9w0BAQEF
AAOCAQ8AMIIBCgKCAQEAyPTD/66ZRNwHGWJZHboOE9B4tqB/ynRPpMJc3gTi6iLZ
KE1FVBRM6FbUe4pk+vnkFCPArcwlYzhZVQBR4oKsrkc72uKVeRy1lsrSSjz3uHrM
nuKN0BcLvG4OPMIFOiFkANvDCLXmz3hdKzy6VKlaZE4b2DrrFNNardpv1qLhfg//
znGFFMf+VGX5xkdzrm6bgedVy37qdqhI+WIlQA7Rz5CPaPeUIGmkFIoUJFM9Vbha
Ma58NnTSwizOe+mDaVYW7Pm7fLAUb5US2nywI7hdQdy8rSTZtmo/gmx0oHNoWtPk
8gqTuRzuu87i2IaGjuAkWOPs9eOENummYnJcSwycFQIDAQABo4HfMIHcMB0GA1Ud
DgQWBBTxqeLpWMMxreJgm1XAogqAexUQLTAfBgNVHSMEGDAWgBSAFB4ExqDEKCUw
KFm9QBplBwUYODA/BggrBgEFBQcBAQQzMDEwLwYIKwYBBQUHMAKGI2h0dHA6Ly91
cmwtZm9yLWFpYS9JbnRlcm1lZGlhdGUuY2VyMDQGA1UdHwQtMCswKaAnoCWGI2h0
dHA6Ly91cmwtZm9yLWNybC9JbnRlcm1lZGlhdGUuY3JsMA4GA1UdDwEB/wQEAwIH
gDATBgNVHSUEDDAKBggrBgEFBQcDATANBgkqhkiG9w0BAQsFAAOCAQEAInZdZGqj
0P7iYNhOMqvySV3nipFUO/J56FUqLNe4A9A7yKgQZtztxylGH3ZD8EOZm1VR7z/h
w4fw7xbcmKtOt5+ObYqsqopPx1BLC0tH99tOr8RoGp/7I+T2fd9TQGc+JkT4Tsil
JXxTRRaIoLrJPzCzhwEPnFviRtm8VI01mjCFdAq24mhLrbBcCLq1I91zv41o7XAz
V5Fabyra/xqBAbcrYfMvRZ7+cXnUojV2EV3fX6Kia6Q92WMggFMMuUrsFZIwLM1w
cCR3xrXIRGdLTqfoYNz/DCkVX9Tv/Fze8zZD/qtyEdZg50s+InmxgtY0s3xMeWXk
d5qkmpxGADf7xA==
-----END CERTIFICATE-----

Certificate:
    Data:
        Version: 3 (0x2)
        Serial Number:
            31:2c:98:11:ad:7d:7c:47:ab:8a:21:e3:43:a7:12:a0:c9:a9:32:4f
        Signature Algorithm: sha256WithRSAEncryption
        Issuer: CN=Root
        Validity
            Not Before: Oct  5 12:00:00 2022 GMT
            Not After : Oct  5 12:00:00 2023 GMT
        Subject: CN=Intermediate
        Subject Public Key Info:
            Public Key Algorithm: rsaEncryption
                Public-Key: (2048 bit)
                Modulus:
                    00:ad:ea:23:0c:dc:31:55:3d:23:7a:a3:0f:5e:16:
                    9e:62:44:e4:28:bf:0b:b0:76:a3:5e:71:e7:a9:85:
                    52:1e:ae:3b:2b:21:0d:95:35:73:c2:c0:a0:78:13:
                    d3:fc:27:57:8a:98:de:83:e3:8f:a3:13:a5:20:a7:
                    a9:bf:c8:f5:02:1b:08:1a:2e:a5:04:7a:11:24:a1:
                    59:11:3d:c0:3b:57:35:62:cd:2a:41:cd:5c:15:35:
                    ac:c8:66:f8:a9:f2:d4:1c:0c:b4:dc:9d:7b:99:f9:
                    07:1b:c9:f0:03:6a:6c:71:d8:e6:cb:7a:ec:c7:a7:
                    b7:36:0b:f0:49:22:37:22:f4:77:f3:1a:a6:57:59:
                    0b:6c:6a:3b:b8:d1:47:df:48:ac:54:ee:82:1e:39:
                    14:dc:a6:9c:ab:33:b7:87:4f:3b:70:55:af:db:40:
                    e5:26:a9:0f:bc:59:8f:61:92:47:0a:34:73:de:fb:
                    25:fa:f1:bd:a4:03:35:93:5e:57:a3:a3:3f:13:e6:
                    09:68:c5:51:29:20:53:b8:5e:fa:8a:ce:e8:0a:ef:
                    9e:07:6e:55:f7:f6:c1:e7:12:9f:22:c1:72:b8:2a:
                    af:25:34:eb:08:28:36:73:8e:f6:80:70:21:16:8a:
                    81:2b:69:47:62:c5:ef:7e:dd:80:7c:09:4e:6d:57:
                    86:4f
                Exponent: 65537 (0x10001)
        X509v3 extensions:
            X509v3 Subject Key Identifier: 
                80:14:1E:04:C6:A0:C4:28:25:30:28:59:BD:40:1A:65:07:05:18:38
            X509v3 Authority Key Identifier: 
                71:50:52:35:92:69:F7:54:B1:8A:0C:C1:93:87:3E:84:E9:BE:5C:80
            Authority Information Access: 
                CA Issuers - URI:http://url-for-aia/Root.cer
            X509v3 CRL Distribution Points: 
                Full Name:
                  URI:http://url-for-crl/Root.crl
            X509v3 Key Usage: critical
                Certificate Sign, CRL Sign
            X509v3 Basic Constraints: critical
                CA:TRUE
    Signature Algorithm: sha256WithRSAEncryption
    Signature Value:
        ab:68:9e:08:32:92:af:48:97:3e:60:5d:11:fd:5f:3f:71:fb:
        de:2a:c5:ec:51:66:7a:eb:38:2c:39:18:07:1a:40:47:ed:2a:
        ad:84:78:0d:71:7e:f9:a5:09:5b:a6:83:e7:f1:ca:86:76:e4:
        ba:c2:86:a9:5f:d8:54:df:cf:c3:5f:60:b4:1a:07:72:8c:bf:
        77:2c:32:5e:90:90:25:f1:77:ec:1c:8d:2a:1a:53:77:7d:09:
        dd:45:b1:9b:a4:15:f4:ab:92:b2:ac:68:07:e8:05:06:ff:9a:
        98:ef:0c:90:4b:95:d7:98:40:0e:8e:06:82:9a:75:3a:77:78:
        27:ab:f9:3a:72:7a:65:75:b9:c1:ae:6d:15:46:3a:dc:93:ac:
        20:60:d5:50:d2:cf:72:20:17:e7:4a:04:23:d4:c6:0e:30:6c:
        d7:c2:ca:32:a1:84:06:61:99:20:fc:ff:9c:c4:96:5b:31:3c:
        14:81:28:23:0a:59:38:ba:c8:a9:6a:da:15:22:fe:87:23:3d:
        86:21:a6:38:cf:bc:e4:b7:cd:1b:2a:d6:d4:bc:f4:e3:c7:41:
        4d:4d:06:e2:9d:b4:f5:78:fe:6e:09:4d:1e:1c:fa:e8:ec:c0:
        70:55:5d:e6:bb:ca:61:47:43:d4:97:a3:4f:db:b4:d8:43:0f:
        c1:0d:77:55
-----BEGIN CERTIFICATE-----
MIIDgDCCAmigAwIBAgIUMSyYEa19fEeriiHjQ6cSoMmpMk8wDQYJKoZIhvcNAQEL
BQAwDzENMAsGA1UEAwwEUm9vdDAeFw0yMjEwMDUxMjAwMDBaFw0yMzEwMDUxMjAw
MDBaMBcxFTATBgNVBAMMDEludGVybWVkaWF0ZTCCASIwDQYJKoZIhvcNAQEBBQAD
ggEPADCCAQoCggEBAK3qIwzcMVU9I3qjD14WnmJE5Ci/C7B2o15x56mFUh6uOysh
DZU1c8LAoHgT0/wnV4qY3oPjj6MTpSCnqb/I9QIbCBoupQR6ESShWRE9wDtXNWLN
KkHNXBU1rMhm+Kny1BwMtNyde5n5BxvJ8ANqbHHY5st67MentzYL8EkiNyL0d/Ma
pldZC2xqO7jRR99IrFTugh45FNymnKszt4dPO3BVr9tA5SapD7xZj2GSRwo0c977
JfrxvaQDNZNeV6OjPxPmCWjFUSkgU7he+orO6ArvngduVff2wecSnyLBcrgqryU0
6wgoNnOO9oBwIRaKgStpR2LF737dgHwJTm1Xhk8CAwEAAaOByzCByDAdBgNVHQ4E
FgQUgBQeBMagxCglMChZvUAaZQcFGDgwHwYDVR0jBBgwFoAUcVBSNZJp91SxigzB
k4c+hOm+XIAwNwYIKwYBBQUHAQEEKzApMCcGCCsGAQUFBzAChhtodHRwOi8vdXJs
LWZvci1haWEvUm9vdC5jZXIwLAYDVR0fBCUwIzAhoB+gHYYbaHR0cDovL3VybC1m
b3ItY3JsL1Jvb3QuY3JsMA4GA1UdDwEB/wQEAwIBBjAPBgNVHRMBAf8EBTADAQH/
MA0GCSqGSIb3DQEBCwUAA4IBAQCraJ4IMpKvSJc+YF0R/V8/cfveKsXsUWZ66zgs
ORgHGkBH7SqthHgNcX75pQlbpoPn8cqGduS6woapX9hU38/DX2C0GgdyjL93LDJe
kJAl8XfsHI0qGlN3fQndRbGbpBX0q5KyrGgH6AUG/5qY7wyQS5XXmEAOjgaCmnU6
d3gnq/k6cnpldbnBrm0VRjrck6wgYNVQ0s9yIBfnSgQj1MYOMGzXwsoyoYQGYZkg
/P+cxJZbMTwUgSgjClk4usipatoVIv6HIz2GIaY4z7zkt80bKtbUvPTjx0FNTQbi
nbT1eP5uCU0eHPro7MBwVV3mu8phR0PUl6NP27TYQw/BDXdV
-----END CERTIFICATE-----

Certificate:
    Data:
        Version: 3 (0x2)
        Serial Number:
            31:2c:98:11:ad:7d:7c:47:ab:8a:21:e3:43:a7:12:a0:c9:a9:32:4e
        Signature Algorithm: sha256WithRSAEncryption
        Issuer: CN=Root
        Validity
            Not Before: Oct  5 12:00:00 2022 GMT
            Not After : Oct  5 12:00:00 2023 GMT
        Subject: CN=Root
        Subject Public Key Info:
            Public Key Algorithm: rsaEncryption
                Public-Key: (2048 bit)
                Modulus:
                    00:b2:df:0b:0b:a2:8a:9c:9c:68:ad:24:f9:f9:e6:
                    95:ef:e4:71:1e:00:fb:ec:bf:b1:cb:6e:d6:40:30:
                    42:7a:38:87:9e:5b:cd:58:3e:b7:31:5c:8d:0d:84:
                    7a:be:ef:e6:98:ba:4e:c5:ae:2b:2f:66:b2:b2:3f:
                    e7:c0:a8:8b:75:60:61:2a:67:8a:d2:55:72:83:e2:
                    ff:de:76:d6:63:58:79:ba:91:c1:80:e1:06:1b:35:
                    9c:b3:e9:19:f8:c7:21:80:dd:9e:04:18:35:de:df:
                    00:80:21:09:06:3c:6c:9a:de:10:d1:fd:4d:2f:27:
                    5e:56:24:44:67:88:48:e4:25:52:cc:c7:17:3f:69:
                    1f:76:fc:b1:83:45:48:5d:37:da:80:3e:3d:7f:f6:
                    8d:ec:83:00:d6:2f:c4:41:5d:79:ae:ad:14:4c:24:
                    b3:5e:1e:fe:ed:e8:39:17:4a:4b:ca:eb:10:5d:6e:
                    af:38:58:b1:12:a5:69:bd:bd:63:dd:f5:21:71:2c:
                    36:37:72:51:3b:3a:de:8f:1e:a0:e2:6b:45:da:02:
                    ad:7e:04:b7:d3:c8:64:34:c6:f4:08:a0:e5:c9:02:
                    1b:6f:42:22:be:d3:8b:7b:63:6e:39:c4:97:17:c6:
                    9a:ba:9e:26:9b:e1:65:a6:4d:4a:93:5e:b2:4e:18:
                    9d:c1
                Exponent: 65537 (0x10001)
        X509v3 extensions:
            X509v3 Subject Key Identifier: 
                71:50:52:35:92:69:F7:54:B1:8A:0C:C1:93:87:3E:84:E9:BE:5C:80
            X509v3 Authority Key Identifier: 
                71:50:52:35:92:69:F7:54:B1:8A:0C:C1:93:87:3E:84:E9:BE:5C:80
            Authority Information Access: 
                CA Issuers - URI:http://url-for-aia/Root.cer
            X509v3 CRL Distribution Points: 
                Full Name:
                  URI:http://url-for-crl/Root.crl
            X509v3 Key Usage: critical
                Certificate Sign, CRL Sign
            X509v3 Basic Constraints: critical
                CA:TRUE
    Signature Algorithm: sha256WithRSAEncryption
    Signature Value:
        3f:bc:78:37:b1:01:0d:4d:d0:e5:3f:dd:d0:c5:9f:28:39:6b:
        42:aa:3d:55:ea:ee:da:7d:69:1f:d1:20:15:32:cc:c8:d3:4e:
        01:1d:4f:68:24:eb:57:8e:e2:55:e0:65:f9:7f:db:52:71:f0:
        99:b5:1c:88:a3:3d:26:8f:27:70:cc:16:1c:62:01:4b:c2:3e:
        ff:c7:61:43:42:65:e8:4d:4c:8a:9d:a0:c8:f5:d0:38:b5:1a:
        51:0d:15:04:b8:e8:99:45:39:19:fb:3f:1f:8c:5d:fd:87:56:
        fa:5a:5e:a2:0a:e9:44:00:55:5a:38:23:53:b5:eb:d7:4b:05:
        70:96:1a:cf:b9:d8:99:fd:af:86:fa:25:4e:39:76:28:57:d5:
        3a:39:aa:b7:7d:84:da:c6:e3:0a:0a:d8:c7:10:a9:ae:f5:3d:
        75:cf:c1:d2:1e:d0:b6:9c:0c:88:e0:ff:58:c1:0c:e7:58:71:
        a4:98:2c:fb:5f:d6:b7:ef:cb:61:13:07:00:b6:e7:8b:d4:27:
        08:ba:89:c8:de:9d:2b:1c:53:2a:d1:34:14:44:92:4d:a1:b6:
        d8:4b:ab:cd:b4:6d:09:d2:2e:df:35:bb:38:6e:9f:fa:8c:76:
        04:e5:63:c0:52:35:6f:8a:8d:d8:bb:b8:33:cc:74:f2:47:7e:
        72:5b:a5:4d
-----BEGIN CERTIFICATE-----
MIIDeDCCAmCgAwIBAgIUMSyYEa19fEeriiHjQ6cSoMmpMk4wDQYJKoZIhvcNAQEL
BQAwDzENMAsGA1UEAwwEUm9vdDAeFw0yMjEwMDUxMjAwMDBaFw0yMzEwMDUxMjAw
MDBaMA8xDTALBgNVBAMMBFJvb3QwggEiMA0GCSqGSIb3DQEBAQUAA4IBDwAwggEK
AoIBAQCy3wsLooqcnGitJPn55pXv5HEeAPvsv7HLbtZAMEJ6OIeeW81YPrcxXI0N
hHq+7+aYuk7FrisvZrKyP+fAqIt1YGEqZ4rSVXKD4v/edtZjWHm6kcGA4QYbNZyz
6Rn4xyGA3Z4EGDXe3wCAIQkGPGya3hDR/U0vJ15WJERniEjkJVLMxxc/aR92/LGD
RUhdN9qAPj1/9o3sgwDWL8RBXXmurRRMJLNeHv7t6DkXSkvK6xBdbq84WLESpWm9
vWPd9SFxLDY3clE7Ot6PHqDia0XaAq1+BLfTyGQ0xvQIoOXJAhtvQiK+04t7Y245
xJcXxpq6niab4WWmTUqTXrJOGJ3BAgMBAAGjgcswgcgwHQYDVR0OBBYEFHFQUjWS
afdUsYoMwZOHPoTpvlyAMB8GA1UdIwQYMBaAFHFQUjWSafdUsYoMwZOHPoTpvlyA
MDcGCCsGAQUFBwEBBCswKTAnBggrBgEFBQcwAoYbaHR0cDovL3VybC1mb3ItYWlh
L1Jvb3QuY2VyMCwGA1UdHwQlMCMwIaAfoB2GG2h0dHA6Ly91cmwtZm9yLWNybC9S
b290LmNybDAOBgNVHQ8BAf8EBAMCAQYwDwYDVR0TAQH/BAUwAwEB/zANBgkqhkiG
9w0BAQsFAAOCAQEAP7x4N7EBDU3Q5T/d0MWfKDlrQqo9Veru2n1pH9EgFTLMyNNO
AR1PaCTrV47iVeBl+X/bUnHwmbUciKM9Jo8ncMwWHGIBS8I+/8dhQ0Jl6E1Mip2g
yPXQOLUaUQ0VBLjomUU5Gfs/H4xd/YdW+lpeogrpRABVWjgjU7Xr10sFcJYaz7nY
mf2vhvolTjl2KFfVOjmqt32E2sbjCgrYxxCprvU9dc/B0h7QtpwMiOD/WMEM51hx
pJgs+1/Wt+/LYRMHALbni9QnCLqJyN6dKxxTKtE0FESSTaG22EurzbRtCdIu3zW7
OG6f+ox2BOVjwFI1b4qN2Lu4M8x08kd+clulTQ==
-----END CERTIFICATE-----
