[Created by: ./generate-chains.py]

Certificate chain where the target was signed by a different
certificate with a different key. The target lacks an
authorityKeyIdentifier extension as some verifiers will not try verifying with
the bogus intermediate if the authorityKeyIdentifier does not match the
intermediate's subjectKeyIdentifier.


Certificate:
    Data:
        Version: 3 (0x2)
        Serial Number:
            2c:6b:f0:a5:aa:60:49:5e:d6:8b:7f:f5:b2:89:be:f7:78:1d:89:d2
        Signature Algorithm: sha256WithRSAEncryption
        Issuer: CN=Intermediate
        Validity
            Not Before: Mar 10 12:00:00 2018 GMT
            Not After : Jan  1 12:00:00 2021 GMT
        Subject: CN=Target
        Subject Public Key Info:
            Public Key Algorithm: rsaEncryption
                RSA Public-Key: (2048 bit)
                Modulus:
                    00:b6:34:1b:30:e4:7d:b9:40:ec:8c:d8:b7:d5:4d:
                    a0:0c:85:66:25:a7:bf:16:c2:d8:4e:6a:b5:d1:3c:
                    c1:63:a8:ff:96:24:87:59:14:9b:e0:00:8b:75:7a:
                    52:5d:7d:a5:1d:fc:1d:f8:4b:eb:e3:74:b5:8d:e8:
                    43:8d:dc:b9:3d:d5:47:86:fb:c7:d8:56:b6:91:03:
                    76:56:ba:f9:35:6b:b6:71:44:51:a2:7c:24:02:e5:
                    f0:7c:67:34:21:e0:10:31:54:f9:6d:96:43:33:a6:
                    bb:ca:4c:f8:31:a4:16:93:6d:15:50:0a:5e:43:77:
                    ab:2d:4b:ce:79:80:ec:95:0c:a2:9b:7a:72:7d:f5:
                    a6:4a:28:14:a3:b8:eb:8f:88:84:08:e5:00:86:30:
                    aa:53:6f:b2:9e:5f:85:85:29:dd:94:aa:94:28:8a:
                    ca:50:13:f9:ac:08:64:8c:b9:80:65:ff:65:c1:a6:
                    48:75:df:b0:9a:8c:0b:c8:d0:07:a9:8b:9f:16:69:
                    51:81:c9:8a:33:81:3f:04:57:2c:06:53:c6:2e:c7:
                    4c:99:6d:65:2b:a4:c0:b6:6a:ca:37:05:38:2a:64:
                    b0:7f:e5:ad:3b:90:77:bd:86:53:34:18:00:46:6a:
                    37:0f:85:39:c5:95:96:ab:bd:a3:81:09:69:40:22:
                    09:b7
                Exponent: 65537 (0x10001)
        X509v3 extensions:
            X509v3 Subject Key Identifier: 
                7A:1C:A0:65:5A:CD:B7:F6:57:2D:AA:6C:C2:A7:B0:AE:60:FE:61:02
            Authority Information Access: 
                CA Issuers - URI:http://url-for-aia/Intermediate.cer

            X509v3 CRL Distribution Points: 

                Full Name:
                  URI:http://url-for-crl/Intermediate.crl

            X509v3 Key Usage: critical
                Digital Signature, Key Encipherment
            X509v3 Extended Key Usage: 
                TLS Web Server Authentication, TLS Web Client Authentication
            X509v3 Subject Alternative Name: 
                DNS:test.example
    Signature Algorithm: sha256WithRSAEncryption
         2a:23:a3:92:57:3e:c2:ef:a2:1a:ef:d2:48:9a:50:71:32:68:
         6a:53:ff:c9:09:78:f2:8d:fa:fc:3b:76:e6:d3:f4:c4:37:bc:
         b0:57:7e:74:c5:d4:4b:75:5e:04:03:f6:fa:2c:ed:32:df:af:
         69:db:c6:c4:2f:b2:d1:9e:3d:83:4d:95:12:1c:e8:76:92:94:
         60:3a:9b:3c:1e:a9:9e:7a:85:d4:f4:91:ef:cb:3b:f8:e8:8a:
         31:cb:c2:ac:67:c0:73:4e:97:35:14:f8:a2:9a:05:ab:b1:b2:
         a0:a3:47:9d:49:05:03:25:c8:58:8d:15:f6:63:7a:d1:5b:20:
         b8:88:59:9b:cd:7d:ce:8c:72:0a:b4:39:b5:c4:73:bb:a2:8a:
         68:fb:7e:2e:75:5d:03:b0:c8:e7:6c:7e:3c:2a:45:d1:75:0a:
         5b:fc:2f:3b:fd:48:cd:f0:43:59:c5:9b:b6:85:d2:3c:b3:29:
         f4:5b:2b:f0:16:46:90:e6:f7:99:72:84:fd:c2:76:2e:1d:2b:
         e7:88:03:b4:62:4e:b7:92:c5:0c:99:bc:03:dd:7a:bd:1e:2f:
         68:c8:9a:28:17:e8:a9:fe:0f:73:1d:e5:f8:19:9f:11:0e:e6:
         e3:4e:a1:fc:af:c8:71:12:75:f3:80:b8:07:cd:c1:ce:5a:ba:
         e5:b4:5a:a7
-----BEGIN CERTIFICATE-----
MIIDmDCCAoCgAwIBAgIULGvwpapgSV7Wi3/1som+93gdidIwDQYJKoZIhvcNAQEL
BQAwFzEVMBMGA1UEAwwMSW50ZXJtZWRpYXRlMB4XDTE4MDMxMDEyMDAwMFoXDTIx
MDEwMTEyMDAwMFowETEPMA0GA1UEAwwGVGFyZ2V0MIIBIjANBgkqhkiG9w0BAQEF
AAOCAQ8AMIIBCgKCAQEAtjQbMOR9uUDsjNi31U2gDIVmJae/FsLYTmq10TzBY6j/
liSHWRSb4ACLdXpSXX2lHfwd+Evr43S1jehDjdy5PdVHhvvH2Fa2kQN2Vrr5NWu2
cURRonwkAuXwfGc0IeAQMVT5bZZDM6a7ykz4MaQWk20VUApeQ3erLUvOeYDslQyi
m3pyffWmSigUo7jrj4iECOUAhjCqU2+ynl+FhSndlKqUKIrKUBP5rAhkjLmAZf9l
waZIdd+wmowLyNAHqYufFmlRgcmKM4E/BFcsBlPGLsdMmW1lK6TAtmrKNwU4KmSw
f+WtO5B3vYZTNBgARmo3D4U5xZWWq72jgQlpQCIJtwIDAQABo4HhMIHeMB0GA1Ud
DgQWBBR6HKBlWs239lctqmzCp7CuYP5hAjA/BggrBgEFBQcBAQQzMDEwLwYIKwYB
BQUHMAKGI2h0dHA6Ly91cmwtZm9yLWFpYS9JbnRlcm1lZGlhdGUuY2VyMDQGA1Ud
HwQtMCswKaAnoCWGI2h0dHA6Ly91cmwtZm9yLWNybC9JbnRlcm1lZGlhdGUuY3Js
MA4GA1UdDwEB/wQEAwIFoDAdBgNVHSUEFjAUBggrBgEFBQcDAQYIKwYBBQUHAwIw
FwYDVR0RBBAwDoIMdGVzdC5leGFtcGxlMA0GCSqGSIb3DQEBCwUAA4IBAQAqI6OS
Vz7C76Ia79JImlBxMmhqU//JCXjyjfr8O3bm0/TEN7ywV350xdRLdV4EA/b6LO0y
369p28bEL7LRnj2DTZUSHOh2kpRgOps8HqmeeoXU9JHvyzv46Ioxy8KsZ8BzTpc1
FPiimgWrsbKgo0edSQUDJchYjRX2Y3rRWyC4iFmbzX3OjHIKtDm1xHO7oopo+34u
dV0DsMjnbH48KkXRdQpb/C87/UjN8ENZxZu2hdI8syn0WyvwFkaQ5veZcoT9wnYu
HSvniAO0Yk63ksUMmbwD3Xq9Hi9oyJooF+ip/g9zHeX4GZ8RDubjTqH8r8hxEnXz
gLgHzcHOWrrltFqn
-----END CERTIFICATE-----

Certificate:
    Data:
        Version: 3 (0x2)
        Serial Number:
            7d:8c:81:7c:3f:7c:cd:c0:85:4b:99:ee:b9:df:b6:b1:07:4e:88:46
        Signature Algorithm: sha256WithRSAEncryption
        Issuer: CN=Root
        Validity
            Not Before: Mar 10 12:00:00 2018 GMT
            Not After : Jan  1 12:00:00 2021 GMT
        Subject: CN=Intermediate
        Subject Public Key Info:
            Public Key Algorithm: rsaEncryption
                RSA Public-Key: (2048 bit)
                Modulus:
                    00:b4:e3:56:b9:b0:39:df:ba:72:ab:22:55:10:91:
                    0b:ac:73:32:70:19:51:96:6b:17:ba:78:a2:c8:77:
                    cc:d2:b2:0e:9d:de:b5:3f:6b:8a:49:80:b9:a6:23:
                    9e:96:82:ff:41:65:bd:86:e3:bd:a4:bf:b9:19:85:
                    f2:0a:c8:3a:b7:87:d5:d6:6f:2e:c3:72:35:36:46:
                    98:ec:d9:fd:0e:61:cb:0a:d4:65:c5:5d:a7:e0:cd:
                    6f:ed:92:40:03:62:1b:00:c6:c2:02:1a:de:f1:67:
                    d5:f6:0b:82:aa:7f:dc:72:08:5e:be:81:57:1d:66:
                    9a:82:bb:d5:b1:78:de:f7:6f:b2:d7:26:5c:b5:47:
                    65:32:91:41:70:0f:3e:23:89:70:e3:0a:be:aa:a9:
                    dd:0e:e2:6e:8d:49:30:af:bb:ad:bb:3e:4d:0f:6d:
                    43:c2:3c:41:20:26:68:af:a7:ec:83:6c:2e:2d:43:
                    7e:16:5b:93:8e:b4:6c:ba:e7:26:8c:d1:60:93:4b:
                    78:10:e6:a6:cb:97:b9:4f:fb:fc:3f:f0:68:a1:22:
                    f0:20:bf:5f:21:89:a8:5b:8b:fb:7d:a9:b2:ed:13:
                    a3:3c:d1:4c:c7:e5:ba:8c:ca:8c:76:f6:89:aa:8f:
                    6d:44:0a:a4:d1:18:66:65:e5:04:25:b1:86:84:e4:
                    2a:73
                Exponent: 65537 (0x10001)
        X509v3 extensions:
            X509v3 Subject Key Identifier: 
                51:9D:BA:B2:87:A5:E9:E6:E3:E1:DB:F3:1B:0C:67:CB:6C:D1:C5:A8
            X509v3 Authority Key Identifier: 
                keyid:FA:79:49:F6:69:64:80:41:9B:1E:E6:2C:39:F8:36:2C:0F:F4:82:66

            Authority Information Access: 
                CA Issuers - URI:http://url-for-aia/Root.cer

            X509v3 CRL Distribution Points: 

                Full Name:
                  URI:http://url-for-crl/Root.crl

            X509v3 Key Usage: critical
                Certificate Sign, CRL Sign
            X509v3 Basic Constraints: critical
                CA:TRUE
    Signature Algorithm: sha256WithRSAEncryption
         91:57:96:f1:f3:ef:ff:53:3f:b6:5b:8c:8a:3d:3e:b3:ec:b5:
         29:f7:f8:7a:05:30:c5:32:6a:a5:d0:95:dc:84:4b:53:48:cc:
         89:38:f2:f3:0c:3d:ec:40:7f:26:f5:5f:6d:ce:e2:81:7b:79:
         32:c9:52:ab:66:9f:9c:d3:ae:3f:6e:bd:b6:59:38:a0:c9:f8:
         a2:f1:6f:dd:39:21:8d:7c:91:cf:b6:e9:59:d5:97:5f:a5:75:
         9c:30:5c:7e:39:bf:6a:30:14:96:4f:f4:c8:cc:76:da:3f:fa:
         da:c0:8a:49:f8:d1:a5:60:7a:68:48:20:ea:74:37:fc:ba:a7:
         cd:25:c5:d0:a8:b8:4b:7e:47:72:b8:b2:33:4b:a7:67:36:ba:
         87:68:6c:ae:4b:27:24:4e:14:51:c5:13:e1:14:3a:f7:64:ee:
         c4:fc:9a:2f:4e:17:25:f6:b6:46:d8:55:39:31:c4:81:40:05:
         eb:3e:3f:b2:0a:67:e5:64:63:f9:a6:e0:04:75:fc:31:de:6a:
         c9:d0:42:8c:61:df:62:9a:c3:fa:0b:d4:cc:37:cf:2e:74:f9:
         e9:f8:86:fb:d5:37:2f:85:49:06:f7:d3:5b:9f:89:07:4b:83:
         c0:f3:66:c0:29:11:2e:d9:f2:11:ab:87:3f:e6:54:96:0e:e7:
         a9:fe:3f:52
-----BEGIN CERTIFICATE-----
MIIDgDCCAmigAwIBAgIUfYyBfD98zcCFS5nuud+2sQdOiEYwDQYJKoZIhvcNAQEL
BQAwDzENMAsGA1UEAwwEUm9vdDAeFw0xODAzMTAxMjAwMDBaFw0yMTAxMDExMjAw
MDBaMBcxFTATBgNVBAMMDEludGVybWVkaWF0ZTCCASIwDQYJKoZIhvcNAQEBBQAD
ggEPADCCAQoCggEBALTjVrmwOd+6cqsiVRCRC6xzMnAZUZZrF7p4osh3zNKyDp3e
tT9rikmAuaYjnpaC/0FlvYbjvaS/uRmF8grIOreH1dZvLsNyNTZGmOzZ/Q5hywrU
ZcVdp+DNb+2SQANiGwDGwgIa3vFn1fYLgqp/3HIIXr6BVx1mmoK71bF43vdvstcm
XLVHZTKRQXAPPiOJcOMKvqqp3Q7ibo1JMK+7rbs+TQ9tQ8I8QSAmaK+n7INsLi1D
fhZbk460bLrnJozRYJNLeBDmpsuXuU/7/D/waKEi8CC/XyGJqFuL+32psu0TozzR
TMfluozKjHb2iaqPbUQKpNEYZmXlBCWxhoTkKnMCAwEAAaOByzCByDAdBgNVHQ4E
FgQUUZ26soel6ebj4dvzGwxny2zRxagwHwYDVR0jBBgwFoAU+nlJ9mlkgEGbHuYs
Ofg2LA/0gmYwNwYIKwYBBQUHAQEEKzApMCcGCCsGAQUFBzAChhtodHRwOi8vdXJs
LWZvci1haWEvUm9vdC5jZXIwLAYDVR0fBCUwIzAhoB+gHYYbaHR0cDovL3VybC1m
b3ItY3JsL1Jvb3QuY3JsMA4GA1UdDwEB/wQEAwIBBjAPBgNVHRMBAf8EBTADAQH/
MA0GCSqGSIb3DQEBCwUAA4IBAQCRV5bx8+//Uz+2W4yKPT6z7LUp9/h6BTDFMmql
0JXchEtTSMyJOPLzDD3sQH8m9V9tzuKBe3kyyVKrZp+c064/br22WTigyfii8W/d
OSGNfJHPtulZ1ZdfpXWcMFx+Ob9qMBSWT/TIzHbaP/rawIpJ+NGlYHpoSCDqdDf8
uqfNJcXQqLhLfkdyuLIzS6dnNrqHaGyuSyckThRRxRPhFDr3ZO7E/JovThcl9rZG
2FU5McSBQAXrPj+yCmflZGP5puAEdfwx3mrJ0EKMYd9imsP6C9TMN88udPnp+Ib7
1TcvhUkG99Nbn4kHS4PA82bAKREu2fIRq4c/5lSWDuep/j9S
-----END CERTIFICATE-----

Certificate:
    Data:
        Version: 3 (0x2)
        Serial Number:
            7d:8c:81:7c:3f:7c:cd:c0:85:4b:99:ee:b9:df:b6:b1:07:4e:88:44
        Signature Algorithm: sha256WithRSAEncryption
        Issuer: CN=Root
        Validity
            Not Before: Mar 10 12:00:00 2018 GMT
            Not After : Jan  1 12:00:00 2021 GMT
        Subject: CN=Root
        Subject Public Key Info:
            Public Key Algorithm: rsaEncryption
                RSA Public-Key: (2048 bit)
                Modulus:
                    00:ba:f9:00:80:eb:0d:65:6c:30:78:a7:66:72:14:
                    df:06:ab:f7:a6:30:bc:62:50:81:94:e1:45:f7:47:
                    38:1f:35:99:9a:b9:26:e5:7b:32:a3:71:df:02:84:
                    22:a0:09:32:13:6b:05:5a:8c:3b:2a:59:1a:89:0e:
                    08:58:d0:a5:74:bf:96:7a:16:67:00:22:23:7c:07:
                    37:f8:da:e3:7c:8e:a2:d6:81:18:fb:51:b1:f5:e5:
                    0d:c5:28:4f:17:59:25:42:08:e8:f0:14:1d:8d:03:
                    d7:1c:48:94:f3:2f:70:2d:c4:03:7c:06:c5:ca:dd:
                    15:d3:1b:d4:c8:e4:af:e7:c0:a9:90:f9:a4:c6:d3:
                    e6:28:0f:b0:34:a4:aa:7b:a6:df:45:2e:8f:cc:ba:
                    e1:86:e6:98:74:22:07:cd:33:a3:8e:d3:79:5a:28:
                    a1:d4:a1:e6:b2:7d:c3:6d:9c:61:67:ce:ca:74:b6:
                    6f:d7:32:4c:c9:f8:d8:f2:f0:60:97:3d:2b:e2:b4:
                    67:6c:69:08:23:bd:8a:71:65:a9:3e:62:7f:15:76:
                    08:0e:cb:a9:b2:68:51:5e:5c:19:b0:83:8f:41:98:
                    d8:b1:0e:ef:26:ac:c5:f7:e6:34:8d:71:5f:1e:bd:
                    d4:db:c5:69:47:47:7c:91:88:d0:8b:c4:e1:7a:61:
                    a4:45
                Exponent: 65537 (0x10001)
        X509v3 extensions:
            X509v3 Subject Key Identifier: 
                FA:79:49:F6:69:64:80:41:9B:1E:E6:2C:39:F8:36:2C:0F:F4:82:66
            X509v3 Authority Key Identifier: 
                keyid:FA:79:49:F6:69:64:80:41:9B:1E:E6:2C:39:F8:36:2C:0F:F4:82:66

            Authority Information Access: 
                CA Issuers - URI:http://url-for-aia/Root.cer

            X509v3 CRL Distribution Points: 

                Full Name:
                  URI:http://url-for-crl/Root.crl

            X509v3 Key Usage: critical
                Certificate Sign, CRL Sign
            X509v3 Basic Constraints: critical
                CA:TRUE
    Signature Algorithm: sha256WithRSAEncryption
         5b:6a:00:db:f4:34:b6:f2:45:79:17:1e:5d:66:b0:d5:56:aa:
         96:b8:f5:f6:79:20:c1:db:15:da:0d:5a:e0:03:06:4c:8b:c0:
         0f:10:71:d9:05:94:b7:ef:3d:28:f4:5c:bc:4d:ba:a4:22:2e:
         dd:25:8c:75:80:99:47:21:eb:d6:e5:0e:6f:fe:e4:41:37:8d:
         08:af:59:5d:b8:74:f7:62:a8:4e:76:5d:13:c2:8d:17:77:76:
         c7:cb:43:fd:b9:61:5c:f6:62:4c:c1:d9:47:4c:d7:b5:9b:7c:
         77:c7:40:0b:0f:d6:18:07:08:61:77:85:34:f8:10:a4:bb:0b:
         a9:d4:43:07:a1:20:a4:ba:98:78:e4:d7:78:3c:bd:83:5e:23:
         eb:cb:8d:f4:0d:80:f8:b4:0e:a1:e0:35:82:a5:0a:bc:16:53:
         5a:4b:51:df:96:d9:79:ed:45:f6:c4:7a:3e:c7:9c:c5:57:08:
         5b:8f:b2:20:f2:2d:54:b8:3a:5a:2b:4e:c1:2d:f0:cc:dd:d1:
         40:78:70:c5:b6:b7:6d:3a:4d:81:96:ed:68:1f:26:d6:96:65:
         42:70:74:ca:e6:58:a9:04:4c:59:f6:c6:15:ec:5c:6a:e1:0b:
         c1:3a:99:bc:08:5e:04:fa:d6:93:8f:81:26:b9:e2:88:3b:2e:
         0f:69:fd:2a
-----BEGIN CERTIFICATE-----
MIIDeDCCAmCgAwIBAgIUfYyBfD98zcCFS5nuud+2sQdOiEQwDQYJKoZIhvcNAQEL
BQAwDzENMAsGA1UEAwwEUm9vdDAeFw0xODAzMTAxMjAwMDBaFw0yMTAxMDExMjAw
MDBaMA8xDTALBgNVBAMMBFJvb3QwggEiMA0GCSqGSIb3DQEBAQUAA4IBDwAwggEK
AoIBAQC6+QCA6w1lbDB4p2ZyFN8Gq/emMLxiUIGU4UX3RzgfNZmauSblezKjcd8C
hCKgCTITawVajDsqWRqJDghY0KV0v5Z6FmcAIiN8Bzf42uN8jqLWgRj7UbH15Q3F
KE8XWSVCCOjwFB2NA9ccSJTzL3AtxAN8BsXK3RXTG9TI5K/nwKmQ+aTG0+YoD7A0
pKp7pt9FLo/MuuGG5ph0IgfNM6OO03laKKHUoeayfcNtnGFnzsp0tm/XMkzJ+Njy
8GCXPSvitGdsaQgjvYpxZak+Yn8VdggOy6myaFFeXBmwg49BmNixDu8mrMX35jSN
cV8evdTbxWlHR3yRiNCLxOF6YaRFAgMBAAGjgcswgcgwHQYDVR0OBBYEFPp5SfZp
ZIBBmx7mLDn4NiwP9IJmMB8GA1UdIwQYMBaAFPp5SfZpZIBBmx7mLDn4NiwP9IJm
MDcGCCsGAQUFBwEBBCswKTAnBggrBgEFBQcwAoYbaHR0cDovL3VybC1mb3ItYWlh
L1Jvb3QuY2VyMCwGA1UdHwQlMCMwIaAfoB2GG2h0dHA6Ly91cmwtZm9yLWNybC9S
b290LmNybDAOBgNVHQ8BAf8EBAMCAQYwDwYDVR0TAQH/BAUwAwEB/zANBgkqhkiG
9w0BAQsFAAOCAQEAW2oA2/Q0tvJFeRceXWaw1Vaqlrj19nkgwdsV2g1a4AMGTIvA
DxBx2QWUt+89KPRcvE26pCIu3SWMdYCZRyHr1uUOb/7kQTeNCK9ZXbh092KoTnZd
E8KNF3d2x8tD/blhXPZiTMHZR0zXtZt8d8dACw/WGAcIYXeFNPgQpLsLqdRDB6Eg
pLqYeOTXeDy9g14j68uN9A2A+LQOoeA1gqUKvBZTWktR35bZee1F9sR6PsecxVcI
W4+yIPItVLg6WitOwS3wzN3RQHhwxba3bTpNgZbtaB8m1pZlQnB0yuZYqQRMWfbG
FexcauELwTqZvAheBPrWk4+BJrniiDsuD2n9Kg==
-----END CERTIFICATE-----
