[Created by: generate-chains.py]

Certificate chain where the target was signed by a different
certificate with a different key. The target lacks an
authorityKeyIdentifier extension as some verifiers will not try verifying with
the bogus intermediate if the authorityKeyIdentifier does not match the
intermediate's subjectKeyIdentifier.


Certificate:
    Data:
        Version: 3 (0x2)
        Serial Number:
            2c:6b:f0:a5:aa:60:49:5e:d6:8b:7f:f5:b2:89:be:f7:78:1d:89:d2
        Signature Algorithm: sha256WithRSAEncryption
        Issuer: CN=Intermediate
        Validity
            Not Before: Nov  3 12:00:00 2020 GMT
            Not After : Nov  3 12:00:00 2021 GMT
        Subject: CN=Target
        Subject Public Key Info:
            Public Key Algorithm: rsaEncryption
                RSA Public-Key: (2048 bit)
                Modulus:
                    00:b6:34:1b:30:e4:7d:b9:40:ec:8c:d8:b7:d5:4d:
                    a0:0c:85:66:25:a7:bf:16:c2:d8:4e:6a:b5:d1:3c:
                    c1:63:a8:ff:96:24:87:59:14:9b:e0:00:8b:75:7a:
                    52:5d:7d:a5:1d:fc:1d:f8:4b:eb:e3:74:b5:8d:e8:
                    43:8d:dc:b9:3d:d5:47:86:fb:c7:d8:56:b6:91:03:
                    76:56:ba:f9:35:6b:b6:71:44:51:a2:7c:24:02:e5:
                    f0:7c:67:34:21:e0:10:31:54:f9:6d:96:43:33:a6:
                    bb:ca:4c:f8:31:a4:16:93:6d:15:50:0a:5e:43:77:
                    ab:2d:4b:ce:79:80:ec:95:0c:a2:9b:7a:72:7d:f5:
                    a6:4a:28:14:a3:b8:eb:8f:88:84:08:e5:00:86:30:
                    aa:53:6f:b2:9e:5f:85:85:29:dd:94:aa:94:28:8a:
                    ca:50:13:f9:ac:08:64:8c:b9:80:65:ff:65:c1:a6:
                    48:75:df:b0:9a:8c:0b:c8:d0:07:a9:8b:9f:16:69:
                    51:81:c9:8a:33:81:3f:04:57:2c:06:53:c6:2e:c7:
                    4c:99:6d:65:2b:a4:c0:b6:6a:ca:37:05:38:2a:64:
                    b0:7f:e5:ad:3b:90:77:bd:86:53:34:18:00:46:6a:
                    37:0f:85:39:c5:95:96:ab:bd:a3:81:09:69:40:22:
                    09:b7
                Exponent: 65537 (0x10001)
        X509v3 extensions:
            X509v3 Subject Key Identifier: 
                7A:1C:A0:65:5A:CD:B7:F6:57:2D:AA:6C:C2:A7:B0:AE:60:FE:61:02
            Authority Information Access: 
                CA Issuers - URI:http://url-for-aia/Intermediate.cer

            X509v3 CRL Distribution Points: 

                Full Name:
                  URI:http://url-for-crl/Intermediate.crl

            X509v3 Key Usage: critical
                Digital Signature, Key Encipherment
            X509v3 Extended Key Usage: 
                TLS Web Server Authentication, TLS Web Client Authentication
            X509v3 Subject Alternative Name: 
                DNS:test.example
    Signature Algorithm: sha256WithRSAEncryption
         26:e4:6d:3e:5d:c3:5f:08:01:4d:db:b2:a1:20:de:cb:43:c3:
         d2:fc:71:22:2b:10:6a:6b:65:14:c2:c0:f3:7f:9b:b6:29:39:
         5e:4c:a9:2d:c3:97:06:eb:c0:96:cf:00:65:bc:00:e8:6d:2d:
         4f:aa:0b:89:84:dd:b8:72:33:f0:c3:0c:63:47:ee:93:55:81:
         3d:fd:fb:4f:32:9b:d8:ed:8c:21:d8:49:dd:90:6d:a0:6d:7f:
         9f:4e:9a:ff:bd:c3:72:4a:3a:7b:c4:9f:e9:0f:3a:38:87:b2:
         4b:c0:fd:c5:38:fc:6b:ac:6f:5d:4f:20:16:3f:c2:9b:2f:56:
         e0:e8:b9:99:a6:5b:f4:fc:8b:0e:60:2d:26:7b:5a:08:3b:ba:
         79:87:bc:1f:10:3c:5e:33:27:4b:83:4f:3c:01:a0:8d:c0:4c:
         00:3c:75:2c:cb:b3:2d:77:57:97:2c:f5:a2:d5:bc:63:11:c7:
         97:9a:09:7c:93:4a:a9:4c:b4:77:a8:23:87:2e:b9:33:6f:c3:
         b1:a7:5a:82:0d:58:ac:f1:f2:87:47:ad:5b:fc:1d:8b:23:ab:
         03:23:23:5c:e3:0c:99:be:56:ca:d6:68:2f:73:20:3e:3c:52:
         a7:51:1d:93:42:d6:fe:f1:23:cb:7c:2e:5e:d0:18:81:c0:5f:
         7e:cc:2d:0e
-----BEGIN CERTIFICATE-----
MIIDmDCCAoCgAwIBAgIULGvwpapgSV7Wi3/1som+93gdidIwDQYJKoZIhvcNAQEL
BQAwFzEVMBMGA1UEAwwMSW50ZXJtZWRpYXRlMB4XDTIwMTEwMzEyMDAwMFoXDTIx
MTEwMzEyMDAwMFowETEPMA0GA1UEAwwGVGFyZ2V0MIIBIjANBgkqhkiG9w0BAQEF
AAOCAQ8AMIIBCgKCAQEAtjQbMOR9uUDsjNi31U2gDIVmJae/FsLYTmq10TzBY6j/
liSHWRSb4ACLdXpSXX2lHfwd+Evr43S1jehDjdy5PdVHhvvH2Fa2kQN2Vrr5NWu2
cURRonwkAuXwfGc0IeAQMVT5bZZDM6a7ykz4MaQWk20VUApeQ3erLUvOeYDslQyi
m3pyffWmSigUo7jrj4iECOUAhjCqU2+ynl+FhSndlKqUKIrKUBP5rAhkjLmAZf9l
waZIdd+wmowLyNAHqYufFmlRgcmKM4E/BFcsBlPGLsdMmW1lK6TAtmrKNwU4KmSw
f+WtO5B3vYZTNBgARmo3D4U5xZWWq72jgQlpQCIJtwIDAQABo4HhMIHeMB0GA1Ud
DgQWBBR6HKBlWs239lctqmzCp7CuYP5hAjA/BggrBgEFBQcBAQQzMDEwLwYIKwYB
BQUHMAKGI2h0dHA6Ly91cmwtZm9yLWFpYS9JbnRlcm1lZGlhdGUuY2VyMDQGA1Ud
HwQtMCswKaAnoCWGI2h0dHA6Ly91cmwtZm9yLWNybC9JbnRlcm1lZGlhdGUuY3Js
MA4GA1UdDwEB/wQEAwIFoDAdBgNVHSUEFjAUBggrBgEFBQcDAQYIKwYBBQUHAwIw
FwYDVR0RBBAwDoIMdGVzdC5leGFtcGxlMA0GCSqGSIb3DQEBCwUAA4IBAQAm5G0+
XcNfCAFN27KhIN7LQ8PS/HEiKxBqa2UUwsDzf5u2KTleTKktw5cG68CWzwBlvADo
bS1PqguJhN24cjPwwwxjR+6TVYE9/ftPMpvY7Ywh2EndkG2gbX+fTpr/vcNySjp7
xJ/pDzo4h7JLwP3FOPxrrG9dTyAWP8KbL1bg6LmZplv0/IsOYC0me1oIO7p5h7wf
EDxeMydLg088AaCNwEwAPHUsy7Mtd1eXLPWi1bxjEceXmgl8k0qpTLR3qCOHLrkz
b8Oxp1qCDVis8fKHR61b/B2LI6sDIyNc4wyZvlbK1mgvcyA+PFKnUR2TQtb+8SPL
fC5e0BiBwF9+zC0O
-----END CERTIFICATE-----

Certificate:
    Data:
        Version: 3 (0x2)
        Serial Number:
            7d:8c:81:7c:3f:7c:cd:c0:85:4b:99:ee:b9:df:b6:b1:07:4e:88:46
        Signature Algorithm: sha256WithRSAEncryption
        Issuer: CN=Root
        Validity
            Not Before: Nov  3 12:00:00 2020 GMT
            Not After : Nov  3 12:00:00 2021 GMT
        Subject: CN=Intermediate
        Subject Public Key Info:
            Public Key Algorithm: rsaEncryption
                RSA Public-Key: (2048 bit)
                Modulus:
                    00:b4:e3:56:b9:b0:39:df:ba:72:ab:22:55:10:91:
                    0b:ac:73:32:70:19:51:96:6b:17:ba:78:a2:c8:77:
                    cc:d2:b2:0e:9d:de:b5:3f:6b:8a:49:80:b9:a6:23:
                    9e:96:82:ff:41:65:bd:86:e3:bd:a4:bf:b9:19:85:
                    f2:0a:c8:3a:b7:87:d5:d6:6f:2e:c3:72:35:36:46:
                    98:ec:d9:fd:0e:61:cb:0a:d4:65:c5:5d:a7:e0:cd:
                    6f:ed:92:40:03:62:1b:00:c6:c2:02:1a:de:f1:67:
                    d5:f6:0b:82:aa:7f:dc:72:08:5e:be:81:57:1d:66:
                    9a:82:bb:d5:b1:78:de:f7:6f:b2:d7:26:5c:b5:47:
                    65:32:91:41:70:0f:3e:23:89:70:e3:0a:be:aa:a9:
                    dd:0e:e2:6e:8d:49:30:af:bb:ad:bb:3e:4d:0f:6d:
                    43:c2:3c:41:20:26:68:af:a7:ec:83:6c:2e:2d:43:
                    7e:16:5b:93:8e:b4:6c:ba:e7:26:8c:d1:60:93:4b:
                    78:10:e6:a6:cb:97:b9:4f:fb:fc:3f:f0:68:a1:22:
                    f0:20:bf:5f:21:89:a8:5b:8b:fb:7d:a9:b2:ed:13:
                    a3:3c:d1:4c:c7:e5:ba:8c:ca:8c:76:f6:89:aa:8f:
                    6d:44:0a:a4:d1:18:66:65:e5:04:25:b1:86:84:e4:
                    2a:73
                Exponent: 65537 (0x10001)
        X509v3 extensions:
            X509v3 Subject Key Identifier: 
                51:9D:BA:B2:87:A5:E9:E6:E3:E1:DB:F3:1B:0C:67:CB:6C:D1:C5:A8
            X509v3 Authority Key Identifier: 
                keyid:FA:79:49:F6:69:64:80:41:9B:1E:E6:2C:39:F8:36:2C:0F:F4:82:66

            Authority Information Access: 
                CA Issuers - URI:http://url-for-aia/Root.cer

            X509v3 CRL Distribution Points: 

                Full Name:
                  URI:http://url-for-crl/Root.crl

            X509v3 Key Usage: critical
                Certificate Sign, CRL Sign
            X509v3 Basic Constraints: critical
                CA:TRUE
    Signature Algorithm: sha256WithRSAEncryption
         9c:c4:76:ed:85:e2:19:0e:d6:73:4a:f0:1f:b6:df:ce:24:16:
         5b:64:5f:ed:f6:d8:44:73:88:87:0a:de:d7:af:41:0d:99:ea:
         c7:ab:81:42:44:bb:70:4b:bf:9f:01:9f:a8:ee:73:59:0b:68:
         8e:19:e9:7e:96:4b:1e:05:b9:e9:c9:3b:03:0f:4a:ae:58:94:
         42:21:d5:02:6f:7c:b6:e2:7a:83:ba:ae:8e:59:76:74:a7:f9:
         ba:91:a2:31:95:93:c6:22:8c:1e:a2:05:b1:d2:ff:ea:e1:07:
         cd:88:98:cc:da:f6:67:f2:d6:e9:6f:29:f9:17:85:99:f3:f8:
         ce:af:fd:e6:85:a6:50:6c:c0:6e:7b:de:ea:df:16:0e:31:b9:
         f2:d6:23:f3:a2:57:db:56:43:e2:15:7e:a3:d5:42:88:9e:03:
         d0:a4:0d:9c:4f:52:de:da:d9:29:dd:e8:fd:9e:8b:62:cd:14:
         eb:ef:2b:23:12:8e:8b:72:60:f7:af:a3:f5:c0:e3:a3:21:7b:
         91:8b:19:47:e7:71:02:06:e7:95:9c:68:50:dc:ae:a1:c1:ee:
         a7:92:86:90:7f:59:99:a9:bf:14:1e:93:4a:f0:fa:dd:34:8e:
         9c:65:36:e3:2c:27:b1:10:f6:1a:de:47:ba:24:a7:c0:12:9a:
         c2:42:cd:a7
-----BEGIN CERTIFICATE-----
MIIDgDCCAmigAwIBAgIUfYyBfD98zcCFS5nuud+2sQdOiEYwDQYJKoZIhvcNAQEL
BQAwDzENMAsGA1UEAwwEUm9vdDAeFw0yMDExMDMxMjAwMDBaFw0yMTExMDMxMjAw
MDBaMBcxFTATBgNVBAMMDEludGVybWVkaWF0ZTCCASIwDQYJKoZIhvcNAQEBBQAD
ggEPADCCAQoCggEBALTjVrmwOd+6cqsiVRCRC6xzMnAZUZZrF7p4osh3zNKyDp3e
tT9rikmAuaYjnpaC/0FlvYbjvaS/uRmF8grIOreH1dZvLsNyNTZGmOzZ/Q5hywrU
ZcVdp+DNb+2SQANiGwDGwgIa3vFn1fYLgqp/3HIIXr6BVx1mmoK71bF43vdvstcm
XLVHZTKRQXAPPiOJcOMKvqqp3Q7ibo1JMK+7rbs+TQ9tQ8I8QSAmaK+n7INsLi1D
fhZbk460bLrnJozRYJNLeBDmpsuXuU/7/D/waKEi8CC/XyGJqFuL+32psu0TozzR
TMfluozKjHb2iaqPbUQKpNEYZmXlBCWxhoTkKnMCAwEAAaOByzCByDAdBgNVHQ4E
FgQUUZ26soel6ebj4dvzGwxny2zRxagwHwYDVR0jBBgwFoAU+nlJ9mlkgEGbHuYs
Ofg2LA/0gmYwNwYIKwYBBQUHAQEEKzApMCcGCCsGAQUFBzAChhtodHRwOi8vdXJs
LWZvci1haWEvUm9vdC5jZXIwLAYDVR0fBCUwIzAhoB+gHYYbaHR0cDovL3VybC1m
b3ItY3JsL1Jvb3QuY3JsMA4GA1UdDwEB/wQEAwIBBjAPBgNVHRMBAf8EBTADAQH/
MA0GCSqGSIb3DQEBCwUAA4IBAQCcxHbtheIZDtZzSvAftt/OJBZbZF/t9thEc4iH
Ct7Xr0ENmerHq4FCRLtwS7+fAZ+o7nNZC2iOGel+lkseBbnpyTsDD0quWJRCIdUC
b3y24nqDuq6OWXZ0p/m6kaIxlZPGIoweogWx0v/q4QfNiJjM2vZn8tbpbyn5F4WZ
8/jOr/3mhaZQbMBue97q3xYOMbny1iPzolfbVkPiFX6j1UKIngPQpA2cT1Le2tkp
3ej9notizRTr7ysjEo6LcmD3r6P1wOOjIXuRixlH53ECBueVnGhQ3K6hwe6nkoaQ
f1mZqb8UHpNK8PrdNI6cZTbjLCexEPYa3ke6JKfAEprCQs2n
-----END CERTIFICATE-----

Certificate:
    Data:
        Version: 3 (0x2)
        Serial Number:
            7d:8c:81:7c:3f:7c:cd:c0:85:4b:99:ee:b9:df:b6:b1:07:4e:88:44
        Signature Algorithm: sha256WithRSAEncryption
        Issuer: CN=Root
        Validity
            Not Before: Nov  3 12:00:00 2020 GMT
            Not After : Nov  3 12:00:00 2021 GMT
        Subject: CN=Root
        Subject Public Key Info:
            Public Key Algorithm: rsaEncryption
                RSA Public-Key: (2048 bit)
                Modulus:
                    00:ba:f9:00:80:eb:0d:65:6c:30:78:a7:66:72:14:
                    df:06:ab:f7:a6:30:bc:62:50:81:94:e1:45:f7:47:
                    38:1f:35:99:9a:b9:26:e5:7b:32:a3:71:df:02:84:
                    22:a0:09:32:13:6b:05:5a:8c:3b:2a:59:1a:89:0e:
                    08:58:d0:a5:74:bf:96:7a:16:67:00:22:23:7c:07:
                    37:f8:da:e3:7c:8e:a2:d6:81:18:fb:51:b1:f5:e5:
                    0d:c5:28:4f:17:59:25:42:08:e8:f0:14:1d:8d:03:
                    d7:1c:48:94:f3:2f:70:2d:c4:03:7c:06:c5:ca:dd:
                    15:d3:1b:d4:c8:e4:af:e7:c0:a9:90:f9:a4:c6:d3:
                    e6:28:0f:b0:34:a4:aa:7b:a6:df:45:2e:8f:cc:ba:
                    e1:86:e6:98:74:22:07:cd:33:a3:8e:d3:79:5a:28:
                    a1:d4:a1:e6:b2:7d:c3:6d:9c:61:67:ce:ca:74:b6:
                    6f:d7:32:4c:c9:f8:d8:f2:f0:60:97:3d:2b:e2:b4:
                    67:6c:69:08:23:bd:8a:71:65:a9:3e:62:7f:15:76:
                    08:0e:cb:a9:b2:68:51:5e:5c:19:b0:83:8f:41:98:
                    d8:b1:0e:ef:26:ac:c5:f7:e6:34:8d:71:5f:1e:bd:
                    d4:db:c5:69:47:47:7c:91:88:d0:8b:c4:e1:7a:61:
                    a4:45
                Exponent: 65537 (0x10001)
        X509v3 extensions:
            X509v3 Subject Key Identifier: 
                FA:79:49:F6:69:64:80:41:9B:1E:E6:2C:39:F8:36:2C:0F:F4:82:66
            X509v3 Authority Key Identifier: 
                keyid:FA:79:49:F6:69:64:80:41:9B:1E:E6:2C:39:F8:36:2C:0F:F4:82:66

            Authority Information Access: 
                CA Issuers - URI:http://url-for-aia/Root.cer

            X509v3 CRL Distribution Points: 

                Full Name:
                  URI:http://url-for-crl/Root.crl

            X509v3 Key Usage: critical
                Certificate Sign, CRL Sign
            X509v3 Basic Constraints: critical
                CA:TRUE
    Signature Algorithm: sha256WithRSAEncryption
         62:40:69:ba:03:e7:1f:a9:c8:39:17:a3:ae:84:66:08:1d:6b:
         68:8c:d5:8d:fe:a0:de:2c:2c:0b:17:68:c1:f0:bd:0c:d7:3e:
         5b:85:87:8a:8e:f5:b2:20:f4:c7:44:92:b5:92:0a:4d:cd:80:
         28:dd:13:69:8f:d9:39:4d:47:87:1c:df:34:25:3d:39:a2:80:
         b6:27:55:93:8c:41:0a:3a:20:6d:2e:9b:a4:4e:9c:6b:37:6e:
         5d:5f:d4:1e:92:63:5f:be:77:d2:65:20:fb:6e:94:2b:fe:3e:
         72:0a:46:fc:81:35:09:1c:1d:06:cd:23:c7:2e:2b:04:b8:89:
         40:8f:9f:ba:dd:bb:bf:64:61:aa:09:49:f9:d1:44:2b:33:e2:
         af:3c:18:25:b4:50:c5:ab:e5:9c:04:c5:77:21:61:38:8e:fe:
         b7:69:2c:09:b9:35:b3:f3:44:2c:9e:5a:ed:9d:78:74:0f:f7:
         97:e6:ec:6f:81:3b:92:46:1b:4f:f2:e1:2c:d9:3a:36:01:0c:
         6b:1a:bd:a3:ab:58:dd:65:d3:08:08:57:f8:dc:49:4d:f0:ab:
         1d:82:a0:83:f9:41:e5:6b:62:71:9d:2a:5e:30:86:fe:d7:e1:
         dd:5a:47:ef:76:16:56:76:83:a6:91:59:56:1a:7c:f9:a7:20:
         c5:30:89:ad
-----BEGIN CERTIFICATE-----
MIIDeDCCAmCgAwIBAgIUfYyBfD98zcCFS5nuud+2sQdOiEQwDQYJKoZIhvcNAQEL
BQAwDzENMAsGA1UEAwwEUm9vdDAeFw0yMDExMDMxMjAwMDBaFw0yMTExMDMxMjAw
MDBaMA8xDTALBgNVBAMMBFJvb3QwggEiMA0GCSqGSIb3DQEBAQUAA4IBDwAwggEK
AoIBAQC6+QCA6w1lbDB4p2ZyFN8Gq/emMLxiUIGU4UX3RzgfNZmauSblezKjcd8C
hCKgCTITawVajDsqWRqJDghY0KV0v5Z6FmcAIiN8Bzf42uN8jqLWgRj7UbH15Q3F
KE8XWSVCCOjwFB2NA9ccSJTzL3AtxAN8BsXK3RXTG9TI5K/nwKmQ+aTG0+YoD7A0
pKp7pt9FLo/MuuGG5ph0IgfNM6OO03laKKHUoeayfcNtnGFnzsp0tm/XMkzJ+Njy
8GCXPSvitGdsaQgjvYpxZak+Yn8VdggOy6myaFFeXBmwg49BmNixDu8mrMX35jSN
cV8evdTbxWlHR3yRiNCLxOF6YaRFAgMBAAGjgcswgcgwHQYDVR0OBBYEFPp5SfZp
ZIBBmx7mLDn4NiwP9IJmMB8GA1UdIwQYMBaAFPp5SfZpZIBBmx7mLDn4NiwP9IJm
MDcGCCsGAQUFBwEBBCswKTAnBggrBgEFBQcwAoYbaHR0cDovL3VybC1mb3ItYWlh
L1Jvb3QuY2VyMCwGA1UdHwQlMCMwIaAfoB2GG2h0dHA6Ly91cmwtZm9yLWNybC9S
b290LmNybDAOBgNVHQ8BAf8EBAMCAQYwDwYDVR0TAQH/BAUwAwEB/zANBgkqhkiG
9w0BAQsFAAOCAQEAYkBpugPnH6nIORejroRmCB1raIzVjf6g3iwsCxdowfC9DNc+
W4WHio71siD0x0SStZIKTc2AKN0TaY/ZOU1HhxzfNCU9OaKAtidVk4xBCjogbS6b
pE6cazduXV/UHpJjX7530mUg+26UK/4+cgpG/IE1CRwdBs0jxy4rBLiJQI+fut27
v2RhqglJ+dFEKzPirzwYJbRQxavlnATFdyFhOI7+t2ksCbk1s/NELJ5a7Z14dA/3
l+bsb4E7kkYbT/LhLNk6NgEMaxq9o6tY3WXTCAhX+NxJTfCrHYKgg/lB5WticZ0q
XjCG/tfh3VpH73YWVnaDppFZVhp8+acgxTCJrQ==
-----END CERTIFICATE-----
