[Created by: generate-chains.py]

Certificate chain where the target was signed by a different
certificate with a different key. The target lacks an
authorityKeyIdentifier extension as some verifiers will not try verifying with
the bogus intermediate if the authorityKeyIdentifier does not match the
intermediate's subjectKeyIdentifier.


Certificate:
    Data:
        Version: 3 (0x2)
        Serial Number:
            2c:6b:f0:a5:aa:60:49:5e:d6:8b:7f:f5:b2:89:be:f7:78:1d:89:d2
        Signature Algorithm: sha256WithRSAEncryption
        Issuer: CN=Intermediate
        Validity
            Not Before: Oct  5 12:00:00 2022 GMT
            Not After : Oct  5 12:00:00 2023 GMT
        Subject: CN=Target
        Subject Public Key Info:
            Public Key Algorithm: rsaEncryption
                Public-Key: (2048 bit)
                Modulus:
                    00:b6:34:1b:30:e4:7d:b9:40:ec:8c:d8:b7:d5:4d:
                    a0:0c:85:66:25:a7:bf:16:c2:d8:4e:6a:b5:d1:3c:
                    c1:63:a8:ff:96:24:87:59:14:9b:e0:00:8b:75:7a:
                    52:5d:7d:a5:1d:fc:1d:f8:4b:eb:e3:74:b5:8d:e8:
                    43:8d:dc:b9:3d:d5:47:86:fb:c7:d8:56:b6:91:03:
                    76:56:ba:f9:35:6b:b6:71:44:51:a2:7c:24:02:e5:
                    f0:7c:67:34:21:e0:10:31:54:f9:6d:96:43:33:a6:
                    bb:ca:4c:f8:31:a4:16:93:6d:15:50:0a:5e:43:77:
                    ab:2d:4b:ce:79:80:ec:95:0c:a2:9b:7a:72:7d:f5:
                    a6:4a:28:14:a3:b8:eb:8f:88:84:08:e5:00:86:30:
                    aa:53:6f:b2:9e:5f:85:85:29:dd:94:aa:94:28:8a:
                    ca:50:13:f9:ac:08:64:8c:b9:80:65:ff:65:c1:a6:
                    48:75:df:b0:9a:8c:0b:c8:d0:07:a9:8b:9f:16:69:
                    51:81:c9:8a:33:81:3f:04:57:2c:06:53:c6:2e:c7:
                    4c:99:6d:65:2b:a4:c0:b6:6a:ca:37:05:38:2a:64:
                    b0:7f:e5:ad:3b:90:77:bd:86:53:34:18:00:46:6a:
                    37:0f:85:39:c5:95:96:ab:bd:a3:81:09:69:40:22:
                    09:b7
                Exponent: 65537 (0x10001)
        X509v3 extensions:
            X509v3 Subject Key Identifier: 
                7A:1C:A0:65:5A:CD:B7:F6:57:2D:AA:6C:C2:A7:B0:AE:60:FE:61:02
            Authority Information Access: 
                CA Issuers - URI:http://url-for-aia/Intermediate.cer
            X509v3 CRL Distribution Points: 
                Full Name:
                  URI:http://url-for-crl/Intermediate.crl
            X509v3 Key Usage: critical
                Digital Signature, Key Encipherment
            X509v3 Extended Key Usage: 
                TLS Web Server Authentication, TLS Web Client Authentication
            X509v3 Subject Alternative Name: 
                DNS:test.example
            X509v3 Authority Key Identifier: 
                FA:0C:22:45:65:B1:EF:F5:C5:71:DC:B4:99:28:DA:63:CD:DA:23:F9
    Signature Algorithm: sha256WithRSAEncryption
    Signature Value:
        6f:81:99:26:99:24:f1:21:1b:17:c1:e0:9d:91:5d:5e:45:c1:
        d5:fd:3b:30:49:73:31:1e:99:85:b9:3b:fe:04:64:0f:ca:b9:
        15:90:4f:e8:17:68:6e:7b:2e:bc:62:19:e7:dd:54:0f:5b:a4:
        b0:af:5b:73:69:37:8b:f2:bf:e5:3a:ec:f5:a8:e8:ff:07:70:
        8d:fd:2d:e4:3b:ec:ca:b5:da:97:c6:be:81:d0:f0:2e:8b:d9:
        b0:0c:9b:68:8c:6d:be:5b:94:5c:24:9f:2c:0a:3e:49:c2:77:
        3c:6e:02:15:f7:7d:52:64:4c:88:3b:f3:b3:97:3c:b4:1f:d2:
        45:7f:0d:32:55:83:f0:86:23:30:e4:0d:4e:10:8e:fd:e7:15:
        ae:6a:24:a5:43:7c:29:56:bd:af:ac:d2:db:4b:57:23:ac:1f:
        0f:d1:d6:54:f9:18:7c:b0:61:b2:e3:ee:ad:3c:6d:90:1f:14:
        ac:5d:d0:24:21:fe:e8:08:6c:d0:30:1a:38:fc:72:61:a6:e6:
        24:91:7a:85:ca:e9:6f:3f:f5:b5:e9:e1:62:28:a6:3e:21:ab:
        c5:31:07:a1:5d:f2:39:4d:44:65:31:ae:99:6c:5c:a2:4d:8e:
        d0:ed:45:61:96:10:3c:20:57:f9:96:91:34:a2:7b:f9:e8:07:
        49:e9:24:6b
-----BEGIN CERTIFICATE-----
MIIDujCCAqKgAwIBAgIULGvwpapgSV7Wi3/1som+93gdidIwDQYJKoZIhvcNAQEL
BQAwFzEVMBMGA1UEAwwMSW50ZXJtZWRpYXRlMB4XDTIyMTAwNTEyMDAwMFoXDTIz
MTAwNTEyMDAwMFowETEPMA0GA1UEAwwGVGFyZ2V0MIIBIjANBgkqhkiG9w0BAQEF
AAOCAQ8AMIIBCgKCAQEAtjQbMOR9uUDsjNi31U2gDIVmJae/FsLYTmq10TzBY6j/
liSHWRSb4ACLdXpSXX2lHfwd+Evr43S1jehDjdy5PdVHhvvH2Fa2kQN2Vrr5NWu2
cURRonwkAuXwfGc0IeAQMVT5bZZDM6a7ykz4MaQWk20VUApeQ3erLUvOeYDslQyi
m3pyffWmSigUo7jrj4iECOUAhjCqU2+ynl+FhSndlKqUKIrKUBP5rAhkjLmAZf9l
waZIdd+wmowLyNAHqYufFmlRgcmKM4E/BFcsBlPGLsdMmW1lK6TAtmrKNwU4KmSw
f+WtO5B3vYZTNBgARmo3D4U5xZWWq72jgQlpQCIJtwIDAQABo4IBAjCB/zAdBgNV
HQ4EFgQUehygZVrNt/ZXLapswqewrmD+YQIwPwYIKwYBBQUHAQEEMzAxMC8GCCsG
AQUFBzAChiNodHRwOi8vdXJsLWZvci1haWEvSW50ZXJtZWRpYXRlLmNlcjA0BgNV
HR8ELTArMCmgJ6AlhiNodHRwOi8vdXJsLWZvci1jcmwvSW50ZXJtZWRpYXRlLmNy
bDAOBgNVHQ8BAf8EBAMCBaAwHQYDVR0lBBYwFAYIKwYBBQUHAwEGCCsGAQUFBwMC
MBcGA1UdEQQQMA6CDHRlc3QuZXhhbXBsZTAfBgNVHSMEGDAWgBT6DCJFZbHv9cVx
3LSZKNpjzdoj+TANBgkqhkiG9w0BAQsFAAOCAQEAb4GZJpkk8SEbF8HgnZFdXkXB
1f07MElzMR6Zhbk7/gRkD8q5FZBP6BdobnsuvGIZ591UD1uksK9bc2k3i/K/5Trs
9ajo/wdwjf0t5DvsyrXal8a+gdDwLovZsAybaIxtvluUXCSfLAo+ScJ3PG4CFfd9
UmRMiDvzs5c8tB/SRX8NMlWD8IYjMOQNThCO/ecVrmokpUN8KVa9r6zS20tXI6wf
D9HWVPkYfLBhsuPurTxtkB8UrF3QJCH+6Ahs0DAaOPxyYabmJJF6hcrpbz/1tenh
YiimPiGrxTEHoV3yOU1EZTGumWxcok2O0O1FYZYQPCBX+ZaRNKJ7+egHSekkaw==
-----END CERTIFICATE-----

Certificate:
    Data:
        Version: 3 (0x2)
        Serial Number:
            7d:8c:81:7c:3f:7c:cd:c0:85:4b:99:ee:b9:df:b6:b1:07:4e:88:46
        Signature Algorithm: sha256WithRSAEncryption
        Issuer: CN=Root
        Validity
            Not Before: Oct  5 12:00:00 2022 GMT
            Not After : Oct  5 12:00:00 2023 GMT
        Subject: CN=Intermediate
        Subject Public Key Info:
            Public Key Algorithm: rsaEncryption
                Public-Key: (2048 bit)
                Modulus:
                    00:b4:e3:56:b9:b0:39:df:ba:72:ab:22:55:10:91:
                    0b:ac:73:32:70:19:51:96:6b:17:ba:78:a2:c8:77:
                    cc:d2:b2:0e:9d:de:b5:3f:6b:8a:49:80:b9:a6:23:
                    9e:96:82:ff:41:65:bd:86:e3:bd:a4:bf:b9:19:85:
                    f2:0a:c8:3a:b7:87:d5:d6:6f:2e:c3:72:35:36:46:
                    98:ec:d9:fd:0e:61:cb:0a:d4:65:c5:5d:a7:e0:cd:
                    6f:ed:92:40:03:62:1b:00:c6:c2:02:1a:de:f1:67:
                    d5:f6:0b:82:aa:7f:dc:72:08:5e:be:81:57:1d:66:
                    9a:82:bb:d5:b1:78:de:f7:6f:b2:d7:26:5c:b5:47:
                    65:32:91:41:70:0f:3e:23:89:70:e3:0a:be:aa:a9:
                    dd:0e:e2:6e:8d:49:30:af:bb:ad:bb:3e:4d:0f:6d:
                    43:c2:3c:41:20:26:68:af:a7:ec:83:6c:2e:2d:43:
                    7e:16:5b:93:8e:b4:6c:ba:e7:26:8c:d1:60:93:4b:
                    78:10:e6:a6:cb:97:b9:4f:fb:fc:3f:f0:68:a1:22:
                    f0:20:bf:5f:21:89:a8:5b:8b:fb:7d:a9:b2:ed:13:
                    a3:3c:d1:4c:c7:e5:ba:8c:ca:8c:76:f6:89:aa:8f:
                    6d:44:0a:a4:d1:18:66:65:e5:04:25:b1:86:84:e4:
                    2a:73
                Exponent: 65537 (0x10001)
        X509v3 extensions:
            X509v3 Subject Key Identifier: 
                51:9D:BA:B2:87:A5:E9:E6:E3:E1:DB:F3:1B:0C:67:CB:6C:D1:C5:A8
            X509v3 Authority Key Identifier: 
                FA:79:49:F6:69:64:80:41:9B:1E:E6:2C:39:F8:36:2C:0F:F4:82:66
            Authority Information Access: 
                CA Issuers - URI:http://url-for-aia/Root.cer
            X509v3 CRL Distribution Points: 
                Full Name:
                  URI:http://url-for-crl/Root.crl
            X509v3 Key Usage: critical
                Certificate Sign, CRL Sign
            X509v3 Basic Constraints: critical
                CA:TRUE
    Signature Algorithm: sha256WithRSAEncryption
    Signature Value:
        5a:33:e6:23:ca:ec:34:5a:0e:09:69:75:1b:ea:a1:ce:3e:b6:
        65:60:db:ff:f8:26:d9:69:30:ad:dd:f1:45:89:33:35:1a:c3:
        b9:02:73:bc:12:a5:ec:bc:ba:37:67:86:b9:2e:36:eb:a2:b6:
        67:39:88:52:01:a4:a6:0f:49:50:18:41:3c:46:34:8b:52:36:
        fa:7f:ee:7f:9f:01:87:11:11:1a:2f:90:40:d3:39:35:82:94:
        2b:49:62:a0:26:7e:be:42:5b:f7:62:b5:7f:1d:82:5e:e7:d0:
        8e:68:52:72:b2:c9:e4:0b:72:3b:78:eb:f8:71:14:94:12:0e:
        b7:5b:c1:b5:23:6a:ce:54:2d:44:74:60:8e:11:67:b9:45:ec:
        07:2f:ce:55:db:6d:5c:5b:a8:82:0d:40:da:65:77:6e:c9:51:
        13:07:ff:f0:4e:1b:9b:13:1f:44:77:82:3a:17:4d:43:a5:ba:
        c7:95:05:23:5b:b7:a2:a8:4e:bb:7c:b7:dc:f2:94:82:db:13:
        bd:c1:43:2f:a8:b4:3c:c6:f7:4c:75:fb:cb:6b:2c:03:af:f8:
        9c:27:05:ae:ee:fa:5b:29:8b:d9:a0:97:5d:f3:26:d8:c1:b0:
        3e:c8:c4:fb:7f:ef:b7:c0:0c:31:ae:1e:b4:3e:39:49:bd:77:
        0d:02:9d:95
-----BEGIN CERTIFICATE-----
MIIDgDCCAmigAwIBAgIUfYyBfD98zcCFS5nuud+2sQdOiEYwDQYJKoZIhvcNAQEL
BQAwDzENMAsGA1UEAwwEUm9vdDAeFw0yMjEwMDUxMjAwMDBaFw0yMzEwMDUxMjAw
MDBaMBcxFTATBgNVBAMMDEludGVybWVkaWF0ZTCCASIwDQYJKoZIhvcNAQEBBQAD
ggEPADCCAQoCggEBALTjVrmwOd+6cqsiVRCRC6xzMnAZUZZrF7p4osh3zNKyDp3e
tT9rikmAuaYjnpaC/0FlvYbjvaS/uRmF8grIOreH1dZvLsNyNTZGmOzZ/Q5hywrU
ZcVdp+DNb+2SQANiGwDGwgIa3vFn1fYLgqp/3HIIXr6BVx1mmoK71bF43vdvstcm
XLVHZTKRQXAPPiOJcOMKvqqp3Q7ibo1JMK+7rbs+TQ9tQ8I8QSAmaK+n7INsLi1D
fhZbk460bLrnJozRYJNLeBDmpsuXuU/7/D/waKEi8CC/XyGJqFuL+32psu0TozzR
TMfluozKjHb2iaqPbUQKpNEYZmXlBCWxhoTkKnMCAwEAAaOByzCByDAdBgNVHQ4E
FgQUUZ26soel6ebj4dvzGwxny2zRxagwHwYDVR0jBBgwFoAU+nlJ9mlkgEGbHuYs
Ofg2LA/0gmYwNwYIKwYBBQUHAQEEKzApMCcGCCsGAQUFBzAChhtodHRwOi8vdXJs
LWZvci1haWEvUm9vdC5jZXIwLAYDVR0fBCUwIzAhoB+gHYYbaHR0cDovL3VybC1m
b3ItY3JsL1Jvb3QuY3JsMA4GA1UdDwEB/wQEAwIBBjAPBgNVHRMBAf8EBTADAQH/
MA0GCSqGSIb3DQEBCwUAA4IBAQBaM+Yjyuw0Wg4JaXUb6qHOPrZlYNv/+CbZaTCt
3fFFiTM1GsO5AnO8EqXsvLo3Z4a5LjbrorZnOYhSAaSmD0lQGEE8RjSLUjb6f+5/
nwGHEREaL5BA0zk1gpQrSWKgJn6+Qlv3YrV/HYJe59COaFJyssnkC3I7eOv4cRSU
Eg63W8G1I2rOVC1EdGCOEWe5RewHL85V221cW6iCDUDaZXduyVETB//wThubEx9E
d4I6F01DpbrHlQUjW7eiqE67fLfc8pSC2xO9wUMvqLQ8xvdMdfvLaywDr/icJwWu
7vpbKYvZoJdd8ybYwbA+yMT7f++3wAwxrh60PjlJvXcNAp2V
-----END CERTIFICATE-----

Certificate:
    Data:
        Version: 3 (0x2)
        Serial Number:
            7d:8c:81:7c:3f:7c:cd:c0:85:4b:99:ee:b9:df:b6:b1:07:4e:88:44
        Signature Algorithm: sha256WithRSAEncryption
        Issuer: CN=Root
        Validity
            Not Before: Oct  5 12:00:00 2022 GMT
            Not After : Oct  5 12:00:00 2023 GMT
        Subject: CN=Root
        Subject Public Key Info:
            Public Key Algorithm: rsaEncryption
                Public-Key: (2048 bit)
                Modulus:
                    00:ba:f9:00:80:eb:0d:65:6c:30:78:a7:66:72:14:
                    df:06:ab:f7:a6:30:bc:62:50:81:94:e1:45:f7:47:
                    38:1f:35:99:9a:b9:26:e5:7b:32:a3:71:df:02:84:
                    22:a0:09:32:13:6b:05:5a:8c:3b:2a:59:1a:89:0e:
                    08:58:d0:a5:74:bf:96:7a:16:67:00:22:23:7c:07:
                    37:f8:da:e3:7c:8e:a2:d6:81:18:fb:51:b1:f5:e5:
                    0d:c5:28:4f:17:59:25:42:08:e8:f0:14:1d:8d:03:
                    d7:1c:48:94:f3:2f:70:2d:c4:03:7c:06:c5:ca:dd:
                    15:d3:1b:d4:c8:e4:af:e7:c0:a9:90:f9:a4:c6:d3:
                    e6:28:0f:b0:34:a4:aa:7b:a6:df:45:2e:8f:cc:ba:
                    e1:86:e6:98:74:22:07:cd:33:a3:8e:d3:79:5a:28:
                    a1:d4:a1:e6:b2:7d:c3:6d:9c:61:67:ce:ca:74:b6:
                    6f:d7:32:4c:c9:f8:d8:f2:f0:60:97:3d:2b:e2:b4:
                    67:6c:69:08:23:bd:8a:71:65:a9:3e:62:7f:15:76:
                    08:0e:cb:a9:b2:68:51:5e:5c:19:b0:83:8f:41:98:
                    d8:b1:0e:ef:26:ac:c5:f7:e6:34:8d:71:5f:1e:bd:
                    d4:db:c5:69:47:47:7c:91:88:d0:8b:c4:e1:7a:61:
                    a4:45
                Exponent: 65537 (0x10001)
        X509v3 extensions:
            X509v3 Subject Key Identifier: 
                FA:79:49:F6:69:64:80:41:9B:1E:E6:2C:39:F8:36:2C:0F:F4:82:66
            X509v3 Authority Key Identifier: 
                FA:79:49:F6:69:64:80:41:9B:1E:E6:2C:39:F8:36:2C:0F:F4:82:66
            Authority Information Access: 
                CA Issuers - URI:http://url-for-aia/Root.cer
            X509v3 CRL Distribution Points: 
                Full Name:
                  URI:http://url-for-crl/Root.crl
            X509v3 Key Usage: critical
                Certificate Sign, CRL Sign
            X509v3 Basic Constraints: critical
                CA:TRUE
    Signature Algorithm: sha256WithRSAEncryption
    Signature Value:
        a7:dd:62:2c:0b:67:31:1b:23:b9:11:4d:eb:85:61:ec:91:a8:
        60:b8:d1:24:f3:64:05:a8:6d:4d:c1:d4:cb:cf:55:39:c1:77:
        99:c7:dd:b9:d4:7f:3f:03:3a:8b:5b:48:95:ba:68:7e:56:c0:
        ee:9c:f7:89:1e:0f:df:26:cd:95:4b:41:22:b1:08:8c:a5:2d:
        3b:96:fc:ea:54:f0:cf:6a:03:49:8d:b1:08:3e:46:9e:cb:2d:
        00:d7:15:8d:c0:87:b1:01:04:8d:1c:02:60:66:6c:43:7a:2e:
        e2:5a:6a:02:4e:22:51:f6:1a:47:68:47:84:72:e7:ed:8a:43:
        de:03:be:4d:b6:1b:36:6e:2d:58:fa:e7:e1:4f:38:ba:ce:86:
        c0:71:ff:6a:19:c9:5d:ae:dd:cd:78:de:ef:08:f4:e4:3e:c9:
        77:04:c2:8b:dd:ce:95:5a:c2:92:bd:c3:b2:24:26:39:4f:80:
        f6:37:0f:6c:f9:71:69:35:89:93:23:e2:f3:37:48:c4:41:07:
        63:b3:a1:c0:55:2a:63:1f:37:49:6a:09:ba:3f:b0:36:5e:ab:
        68:e3:a6:90:1d:ea:9d:d4:a5:49:dc:ad:42:53:30:6a:e4:14:
        a4:fe:d1:04:82:96:63:18:82:34:0d:9d:89:8b:8b:dd:d1:a2:
        3b:b8:02:2f
-----BEGIN CERTIFICATE-----
MIIDeDCCAmCgAwIBAgIUfYyBfD98zcCFS5nuud+2sQdOiEQwDQYJKoZIhvcNAQEL
BQAwDzENMAsGA1UEAwwEUm9vdDAeFw0yMjEwMDUxMjAwMDBaFw0yMzEwMDUxMjAw
MDBaMA8xDTALBgNVBAMMBFJvb3QwggEiMA0GCSqGSIb3DQEBAQUAA4IBDwAwggEK
AoIBAQC6+QCA6w1lbDB4p2ZyFN8Gq/emMLxiUIGU4UX3RzgfNZmauSblezKjcd8C
hCKgCTITawVajDsqWRqJDghY0KV0v5Z6FmcAIiN8Bzf42uN8jqLWgRj7UbH15Q3F
KE8XWSVCCOjwFB2NA9ccSJTzL3AtxAN8BsXK3RXTG9TI5K/nwKmQ+aTG0+YoD7A0
pKp7pt9FLo/MuuGG5ph0IgfNM6OO03laKKHUoeayfcNtnGFnzsp0tm/XMkzJ+Njy
8GCXPSvitGdsaQgjvYpxZak+Yn8VdggOy6myaFFeXBmwg49BmNixDu8mrMX35jSN
cV8evdTbxWlHR3yRiNCLxOF6YaRFAgMBAAGjgcswgcgwHQYDVR0OBBYEFPp5SfZp
ZIBBmx7mLDn4NiwP9IJmMB8GA1UdIwQYMBaAFPp5SfZpZIBBmx7mLDn4NiwP9IJm
MDcGCCsGAQUFBwEBBCswKTAnBggrBgEFBQcwAoYbaHR0cDovL3VybC1mb3ItYWlh
L1Jvb3QuY2VyMCwGA1UdHwQlMCMwIaAfoB2GG2h0dHA6Ly91cmwtZm9yLWNybC9S
b290LmNybDAOBgNVHQ8BAf8EBAMCAQYwDwYDVR0TAQH/BAUwAwEB/zANBgkqhkiG
9w0BAQsFAAOCAQEAp91iLAtnMRsjuRFN64Vh7JGoYLjRJPNkBahtTcHUy89VOcF3
mcfdudR/PwM6i1tIlbpoflbA7pz3iR4P3ybNlUtBIrEIjKUtO5b86lTwz2oDSY2x
CD5GnsstANcVjcCHsQEEjRwCYGZsQ3ou4lpqAk4iUfYaR2hHhHLn7YpD3gO+TbYb
Nm4tWPrn4U84us6GwHH/ahnJXa7dzXje7wj05D7JdwTCi93OlVrCkr3DsiQmOU+A
9jcPbPlxaTWJkyPi8zdIxEEHY7OhwFUqYx83SWoJuj+wNl6raOOmkB3qndSlSdyt
QlMwauQUpP7RBIKWYxiCNA2diYuL3dGiO7gCLw==
-----END CERTIFICATE-----
