[Created by: generate-chains.py]

Certificate chain where the target certificate has an incorrect signature.

Certificate:
    Data:
        Version: 3 (0x2)
        Serial Number:
            64:12:b2:41:aa:b4:4c:d7:9a:e2:15:7a:bc:3b:e5:1c:2e:2f:6f:9a
        Signature Algorithm: sha256WithRSAEncryption
        Issuer: CN=Intermediate
        Validity
            Not Before: Oct  5 12:00:00 2022 GMT
            Not After : Oct  5 12:00:00 2023 GMT
        Subject: CN=Target
        Subject Public Key Info:
            Public Key Algorithm: rsaEncryption
                Public-Key: (2048 bit)
                Modulus:
                    00:a3:10:52:35:1d:ac:4e:a5:23:41:40:b1:1d:66:
                    30:25:bc:dd:a5:62:66:d1:74:db:5f:bd:5d:96:07:
                    08:94:c4:61:a4:e9:07:31:f9:e8:6a:52:f5:8a:3d:
                    1c:6d:00:c8:47:51:30:99:42:8b:27:11:48:e9:c6:
                    de:db:ff:7f:ee:6e:29:cf:48:77:1e:63:11:bc:2a:
                    81:fb:3a:5d:4e:d2:b8:0c:ce:68:6b:61:f2:bf:64:
                    da:aa:3f:06:74:47:77:72:08:d2:a3:c3:35:cf:e5:
                    dd:13:f7:d3:45:21:f5:9c:cf:7e:50:56:53:11:c8:
                    eb:90:f2:a2:eb:8f:9d:c1:07:c4:b8:4b:38:04:3d:
                    7f:be:73:36:3e:5f:c4:7e:37:a7:0c:88:8b:a8:63:
                    79:74:b4:2c:c6:7c:52:61:e1:03:d3:ff:4f:c5:50:
                    63:19:83:eb:f3:89:a3:91:e5:90:ab:80:43:18:3e:
                    c8:77:ac:69:97:cf:2f:5b:be:a9:59:89:99:3a:5d:
                    87:c4:4f:97:4a:60:18:ea:ea:a5:b7:1e:61:57:98:
                    50:55:91:13:34:0d:03:65:a4:f4:bb:63:e6:bb:3e:
                    9f:03:84:f7:e6:63:d0:f3:82:5b:0c:96:b1:32:f2:
                    2f:2a:55:5b:24:a6:b6:33:62:6e:ed:0b:f2:77:f8:
                    f8:f3
                Exponent: 65537 (0x10001)
        X509v3 extensions:
            X509v3 Subject Key Identifier: 
                19:59:39:C0:2B:03:0A:9B:BF:AA:A8:AB:B2:FB:AF:95:88:63:CA:6E
            X509v3 Authority Key Identifier: 
                CC:47:D8:FF:8B:67:33:FB:F5:CD:D0:A7:B6:12:A0:19:27:27:D1:57
            Authority Information Access: 
                CA Issuers - URI:http://url-for-aia/Intermediate.cer
            X509v3 CRL Distribution Points: 
                Full Name:
                  URI:http://url-for-crl/Intermediate.crl
            X509v3 Key Usage: critical
                Digital Signature, Key Encipherment
            X509v3 Extended Key Usage: 
                TLS Web Server Authentication, TLS Web Client Authentication
    Signature Algorithm: sha256WithRSAEncryption
    Signature Value:
        a7:ab:a3:19:92:10:4d:a6:6a:ac:96:31:ca:e0:77:9d:a6:e9:
        b5:26:23:7e:05:5a:9e:ea:ad:8b:5c:9e:ab:d8:d7:c8:68:1e:
        d8:7e:64:cc:0a:53:c3:96:10:f6:e0:2f:df:70:71:05:7c:db:
        81:34:2a:48:8e:b4:17:78:24:7a:1b:f1:d1:7c:33:2e:62:7a:
        01:78:d0:04:e4:01:91:31:d7:74:16:c7:ec:60:02:c8:c3:14:
        68:f5:89:fb:34:5a:17:2d:27:8b:7c:cd:43:de:af:49:68:6b:
        a2:72:75:3d:d1:1f:27:19:58:3c:5d:97:55:1c:d9:4a:eb:ee:
        5d:79:ce:fc:66:33:ca:c6:ef:21:13:2d:26:75:e7:ea:36:6e:
        b2:ce:63:ad:ba:22:c1:d1:55:8b:35:dd:0b:c3:b9:1c:17:be:
        6f:92:27:8e:7a:71:fc:38:e6:2c:2c:2b:0c:17:fd:72:c9:cc:
        4a:48:f6:ab:d2:50:75:48:56:6c:8f:2f:5a:14:e0:77:06:78:
        3a:c2:67:3c:70:94:d4:8f:fc:b1:68:b1:ad:e9:a8:d5:36:46:
        ac:de:b4:9d:1a:d3:b5:3d:10:55:ff:60:9d:1e:6b:02:47:46:
        72:6d:36:f5:aa:bb:9b:1f:f0:26:b0:72:49:f7:f0:47:4a:d9:
        4f:eb:63:40
-----BEGIN CERTIFICATE-----
MIIDoDCCAoigAwIBAgIUZBKyQaq0TNea4hV6vDvlHC4vb5owDQYJKoZIhvcNAQEL
BQAwFzEVMBMGA1UEAwwMSW50ZXJtZWRpYXRlMB4XDTIyMTAwNTEyMDAwMFoXDTIz
MTAwNTEyMDAwMFowETEPMA0GA1UEAwwGVGFyZ2V0MIIBIjANBgkqhkiG9w0BAQEF
AAOCAQ8AMIIBCgKCAQEAoxBSNR2sTqUjQUCxHWYwJbzdpWJm0XTbX71dlgcIlMRh
pOkHMfnoalL1ij0cbQDIR1EwmUKLJxFI6cbe2/9/7m4pz0h3HmMRvCqB+zpdTtK4
DM5oa2Hyv2Taqj8GdEd3cgjSo8M1z+XdE/fTRSH1nM9+UFZTEcjrkPKi64+dwQfE
uEs4BD1/vnM2Pl/EfjenDIiLqGN5dLQsxnxSYeED0/9PxVBjGYPr84mjkeWQq4BD
GD7Id6xpl88vW76pWYmZOl2HxE+XSmAY6uqltx5hV5hQVZETNA0DZaT0u2Pmuz6f
A4T35mPQ84JbDJaxMvIvKlVbJKa2M2Ju7Qvyd/j48wIDAQABo4HpMIHmMB0GA1Ud
DgQWBBQZWTnAKwMKm7+qqKuy+6+ViGPKbjAfBgNVHSMEGDAWgBTMR9j/i2cz+/XN
0Ke2EqAZJyfRVzA/BggrBgEFBQcBAQQzMDEwLwYIKwYBBQUHMAKGI2h0dHA6Ly91
cmwtZm9yLWFpYS9JbnRlcm1lZGlhdGUuY2VyMDQGA1UdHwQtMCswKaAnoCWGI2h0
dHA6Ly91cmwtZm9yLWNybC9JbnRlcm1lZGlhdGUuY3JsMA4GA1UdDwEB/wQEAwIF
oDAdBgNVHSUEFjAUBggrBgEFBQcDAQYIKwYBBQUHAwIwDQYJKoZIhvcNAQELBQAD
ggEBAKeroxmSEE2maqyWMcrgd52m6bUmI34FWp7qrYtcnqvY18hoHth+ZMwKU8OW
EPbgL99wcQV824E0KkiOtBd4JHob8dF8My5iegF40ATkAZEx13QWx+xgAsjDFGj1
ifs0WhctJ4t8zUPer0loa6JydT3RHycZWDxdl1Uc2Urr7l15zvxmM8rG7yETLSZ1
5+o2brLOY626IsHRVYs13QvDuRwXvm+SJ456cfw45iwsKwwX/XLJzEpI9qvSUHVI
VmyPL1oU4HcGeDrCZzxwlNSP/LFosa3pqNU2RqzetJ0a07U9EFX/YJ0eawJHRnJt
NvWqu5sf8Cawckn38EdK2U/rY0A=
-----END CERTIFICATE-----

Certificate:
    Data:
        Version: 3 (0x2)
        Serial Number:
            6a:9f:ff:3a:b6:b8:fe:7d:22:0c:6a:3b:9d:e9:cc:59:3d:d5:60:ed
        Signature Algorithm: sha256WithRSAEncryption
        Issuer: CN=Root
        Validity
            Not Before: Oct  5 12:00:00 2022 GMT
            Not After : Oct  5 12:00:00 2023 GMT
        Subject: CN=Intermediate
        Subject Public Key Info:
            Public Key Algorithm: rsaEncryption
                Public-Key: (2048 bit)
                Modulus:
                    00:e8:a7:ff:7c:21:83:d4:bd:ed:f4:09:73:79:69:
                    0c:ec:79:18:79:54:2e:a6:87:f3:7b:65:e8:73:6a:
                    a5:af:fd:00:6b:c9:ed:86:50:18:f0:4c:d9:12:17:
                    3a:23:ae:7a:49:3d:71:7c:6e:da:4f:7b:ed:55:73:
                    e8:71:5c:72:13:84:8f:83:aa:30:4f:0a:bc:38:51:
                    75:47:67:c3:6c:5e:e8:af:96:07:4a:0c:f7:5d:c1:
                    82:ea:02:e2:c3:da:57:68:2c:03:1a:a0:d9:51:05:
                    ef:ec:67:cc:fd:c4:09:b4:f7:2f:c7:5a:df:84:7f:
                    15:60:32:9d:17:4e:4b:3c:15:48:a7:42:a1:f5:d4:
                    04:82:bb:cc:18:3a:ab:07:d1:66:82:9b:0d:b0:ef:
                    d8:47:18:71:78:e6:07:47:97:29:24:0c:7a:12:ab:
                    2f:4b:14:ec:35:7a:d2:a3:2a:16:0c:0b:91:5a:e2:
                    f2:64:93:85:1d:e2:27:7e:7e:cd:eb:5f:83:d7:07:
                    0c:06:b8:8f:44:91:0c:37:d8:86:65:23:1a:fe:8f:
                    69:3e:bb:20:bb:ef:1b:18:1b:fd:2f:bf:5b:d3:be:
                    da:2d:9f:9a:57:6b:4b:73:3f:34:04:99:5d:a1:73:
                    b5:08:d1:bb:9a:5c:88:a0:f8:65:1c:e7:7f:f3:95:
                    d0:fd
                Exponent: 65537 (0x10001)
        X509v3 extensions:
            X509v3 Subject Key Identifier: 
                1E:51:BA:4C:14:B3:B7:2B:E2:AE:4C:1C:35:21:7C:DB:92:18:AB:53
            X509v3 Authority Key Identifier: 
                5B:22:4E:B0:32:77:9B:92:26:9B:3B:E9:76:31:CE:FB:43:87:A3:2A
            Authority Information Access: 
                CA Issuers - URI:http://url-for-aia/Root.cer
            X509v3 CRL Distribution Points: 
                Full Name:
                  URI:http://url-for-crl/Root.crl
            X509v3 Key Usage: critical
                Certificate Sign, CRL Sign
            X509v3 Basic Constraints: critical
                CA:TRUE
    Signature Algorithm: sha256WithRSAEncryption
    Signature Value:
        04:3e:06:e4:01:26:0a:dc:5f:35:a6:5b:e7:83:39:4e:38:39:
        b0:e5:af:72:c4:03:d2:c3:03:a4:ad:91:2b:56:fb:fa:a4:1d:
        93:a9:13:27:5f:98:39:33:67:46:82:4e:ea:c6:d4:d8:ea:d3:
        95:f2:ad:bf:8d:55:23:ee:08:93:d0:3c:b5:f0:d8:57:1b:7f:
        e3:93:63:25:e7:79:82:30:df:e7:d6:49:66:72:50:2c:9c:51:
        c8:60:14:1b:53:19:18:0d:84:54:c0:53:b2:35:60:55:7b:93:
        37:cc:73:4c:e9:28:0e:25:38:0b:74:36:3d:7d:1e:a6:8e:70:
        96:ec:97:84:5f:5d:7b:5d:87:00:75:bc:29:b8:a2:92:57:07:
        91:3d:4e:ae:c5:d6:93:aa:d8:a2:76:21:a5:c2:d5:fe:a4:a1:
        27:3c:ab:e2:e8:54:cd:b0:5f:11:a3:1a:73:5b:ef:95:ed:39:
        79:2a:7a:82:ef:32:4b:db:7a:95:ad:60:d5:cb:64:8d:7b:2c:
        43:5a:b2:4b:c9:25:e7:31:3e:2a:8b:6c:1d:ce:6d:99:bb:0c:
        ee:63:e3:77:86:f2:92:65:d9:e2:1d:20:bf:4c:a7:a2:cc:ac:
        15:63:45:2e:d9:1e:8f:30:c4:55:a2:b2:ab:36:ba:ec:9c:9b:
        06:b0:78:82
-----BEGIN CERTIFICATE-----
MIIDgDCCAmigAwIBAgIUap//Ora4/n0iDGo7nenMWT3VYO0wDQYJKoZIhvcNAQEL
BQAwDzENMAsGA1UEAwwEUm9vdDAeFw0yMjEwMDUxMjAwMDBaFw0yMzEwMDUxMjAw
MDBaMBcxFTATBgNVBAMMDEludGVybWVkaWF0ZTCCASIwDQYJKoZIhvcNAQEBBQAD
ggEPADCCAQoCggEBAOin/3whg9S97fQJc3lpDOx5GHlULqaH83tl6HNqpa/9AGvJ
7YZQGPBM2RIXOiOuekk9cXxu2k977VVz6HFcchOEj4OqME8KvDhRdUdnw2xe6K+W
B0oM913BguoC4sPaV2gsAxqg2VEF7+xnzP3ECbT3L8da34R/FWAynRdOSzwVSKdC
ofXUBIK7zBg6qwfRZoKbDbDv2EcYcXjmB0eXKSQMehKrL0sU7DV60qMqFgwLkVri
8mSThR3iJ35+zetfg9cHDAa4j0SRDDfYhmUjGv6PaT67ILvvGxgb/S+/W9O+2i2f
mldrS3M/NASZXaFztQjRu5pciKD4ZRznf/OV0P0CAwEAAaOByzCByDAdBgNVHQ4E
FgQUHlG6TBSztyvirkwcNSF825IYq1MwHwYDVR0jBBgwFoAUWyJOsDJ3m5Immzvp
djHO+0OHoyowNwYIKwYBBQUHAQEEKzApMCcGCCsGAQUFBzAChhtodHRwOi8vdXJs
LWZvci1haWEvUm9vdC5jZXIwLAYDVR0fBCUwIzAhoB+gHYYbaHR0cDovL3VybC1m
b3ItY3JsL1Jvb3QuY3JsMA4GA1UdDwEB/wQEAwIBBjAPBgNVHRMBAf8EBTADAQH/
MA0GCSqGSIb3DQEBCwUAA4IBAQAEPgbkASYK3F81plvngzlOODmw5a9yxAPSwwOk
rZErVvv6pB2TqRMnX5g5M2dGgk7qxtTY6tOV8q2/jVUj7giT0Dy18NhXG3/jk2Ml
53mCMN/n1klmclAsnFHIYBQbUxkYDYRUwFOyNWBVe5M3zHNM6SgOJTgLdDY9fR6m
jnCW7JeEX117XYcAdbwpuKKSVweRPU6uxdaTqtiidiGlwtX+pKEnPKvi6FTNsF8R
oxpzW++V7Tl5KnqC7zJL23qVrWDVy2SNeyxDWrJLySXnMT4qi2wdzm2ZuwzuY+N3
hvKSZdniHSC/TKeizKwVY0Uu2R6PMMRVorKrNrrsnJsGsHiC
-----END CERTIFICATE-----

Certificate:
    Data:
        Version: 3 (0x2)
        Serial Number:
            6a:9f:ff:3a:b6:b8:fe:7d:22:0c:6a:3b:9d:e9:cc:59:3d:d5:60:eb
        Signature Algorithm: sha256WithRSAEncryption
        Issuer: CN=Root
        Validity
            Not Before: Oct  5 12:00:00 2022 GMT
            Not After : Oct  5 12:00:00 2023 GMT
        Subject: CN=Root
        Subject Public Key Info:
            Public Key Algorithm: rsaEncryption
                Public-Key: (2048 bit)
                Modulus:
                    00:df:f9:b3:49:5f:c8:1f:a6:a5:bc:9e:5d:08:17:
                    7e:a5:87:b6:d2:53:a6:c2:ce:73:29:cb:f4:35:07:
                    26:c5:b0:ef:87:ca:a0:64:db:7f:e4:2c:05:da:81:
                    8e:98:b8:80:d2:f1:c3:e5:d6:6c:1a:ac:90:8f:f0:
                    4d:43:fd:09:f4:eb:17:fa:c4:cb:da:2a:56:7e:b6:
                    d2:ce:6d:5f:d5:ec:01:67:af:02:3a:d6:18:a2:61:
                    43:f6:ff:45:10:c4:8e:c1:15:1b:a0:88:77:45:82:
                    39:10:f8:d7:2c:26:13:df:20:62:0f:9a:5d:69:d1:
                    ae:4e:c2:28:30:0c:dd:d5:6e:8e:23:d0:45:f3:4f:
                    2c:9a:f6:f7:d4:fd:b8:6e:28:32:74:57:94:5d:f8:
                    3f:51:ef:11:21:09:27:3c:05:46:86:78:63:f6:c5:
                    0d:7c:28:e5:b7:1a:66:f4:91:59:f2:91:16:a2:7b:
                    0a:34:e7:30:78:72:73:10:dc:b7:60:cd:d3:ea:8b:
                    09:0e:7c:9c:01:f9:f5:d8:ce:35:86:8f:60:e4:00:
                    38:98:81:ac:36:1a:25:7e:c6:59:bd:79:53:5b:83:
                    f0:72:50:78:a2:3f:53:45:fc:64:56:40:ed:64:5d:
                    7d:df:62:4f:a0:01:25:19:59:9f:84:e6:c7:21:04:
                    b8:2f
                Exponent: 65537 (0x10001)
        X509v3 extensions:
            X509v3 Subject Key Identifier: 
                5B:22:4E:B0:32:77:9B:92:26:9B:3B:E9:76:31:CE:FB:43:87:A3:2A
            X509v3 Authority Key Identifier: 
                5B:22:4E:B0:32:77:9B:92:26:9B:3B:E9:76:31:CE:FB:43:87:A3:2A
            Authority Information Access: 
                CA Issuers - URI:http://url-for-aia/Root.cer
            X509v3 CRL Distribution Points: 
                Full Name:
                  URI:http://url-for-crl/Root.crl
            X509v3 Key Usage: critical
                Certificate Sign, CRL Sign
            X509v3 Basic Constraints: critical
                CA:TRUE
    Signature Algorithm: sha256WithRSAEncryption
    Signature Value:
        b9:dd:90:c3:1d:b6:bb:06:96:c7:fa:d6:09:b6:83:29:b6:40:
        8f:21:90:06:dc:41:05:20:5f:71:c7:5e:bf:c7:12:bb:0a:14:
        14:94:e3:3f:5c:90:ae:f8:be:b0:ba:28:58:b4:ae:d9:8c:16:
        4b:87:61:29:d0:c8:0f:76:77:ca:dd:ce:fc:ce:42:c1:f5:dd:
        ad:52:e8:a7:0f:c3:a4:f3:07:24:8f:13:55:e4:9d:29:62:bf:
        23:d4:9a:2b:09:a2:14:cb:45:66:67:82:17:71:a5:1c:b3:b0:
        6c:bb:9b:c1:3d:7f:62:ed:3d:d5:12:b1:da:8f:f4:64:ea:13:
        ef:e3:25:0e:a9:e0:e2:85:48:7a:5f:2a:3d:94:aa:ae:6f:6c:
        a1:c5:87:df:2c:48:46:8c:1b:14:24:e8:94:02:a5:12:ee:cf:
        40:b8:1a:5e:b0:5c:cc:ad:73:a7:2e:40:f2:dc:cf:aa:61:ac:
        72:43:50:88:e1:7b:e3:9e:bb:9a:a6:17:c4:fb:a8:7d:bb:39:
        74:65:fb:2d:70:6b:25:b9:eb:71:98:41:dd:42:12:33:3c:f8:
        ff:11:5d:bb:7f:c4:57:fd:69:60:2b:35:91:4e:99:52:d0:a7:
        c1:45:de:f6:e4:7a:9d:2c:6e:77:df:64:96:af:54:f8:5f:ef:
        93:dd:5b:10
-----BEGIN CERTIFICATE-----
MIIDeDCCAmCgAwIBAgIUap//Ora4/n0iDGo7nenMWT3VYOswDQYJKoZIhvcNAQEL
BQAwDzENMAsGA1UEAwwEUm9vdDAeFw0yMjEwMDUxMjAwMDBaFw0yMzEwMDUxMjAw
MDBaMA8xDTALBgNVBAMMBFJvb3QwggEiMA0GCSqGSIb3DQEBAQUAA4IBDwAwggEK
AoIBAQDf+bNJX8gfpqW8nl0IF36lh7bSU6bCznMpy/Q1BybFsO+HyqBk23/kLAXa
gY6YuIDS8cPl1mwarJCP8E1D/Qn06xf6xMvaKlZ+ttLObV/V7AFnrwI61hiiYUP2
/0UQxI7BFRugiHdFgjkQ+NcsJhPfIGIPml1p0a5OwigwDN3Vbo4j0EXzTyya9vfU
/bhuKDJ0V5Rd+D9R7xEhCSc8BUaGeGP2xQ18KOW3Gmb0kVnykRaiewo05zB4cnMQ
3LdgzdPqiwkOfJwB+fXYzjWGj2DkADiYgaw2GiV+xlm9eVNbg/ByUHiiP1NF/GRW
QO1kXX3fYk+gASUZWZ+E5schBLgvAgMBAAGjgcswgcgwHQYDVR0OBBYEFFsiTrAy
d5uSJps76XYxzvtDh6MqMB8GA1UdIwQYMBaAFFsiTrAyd5uSJps76XYxzvtDh6Mq
MDcGCCsGAQUFBwEBBCswKTAnBggrBgEFBQcwAoYbaHR0cDovL3VybC1mb3ItYWlh
L1Jvb3QuY2VyMCwGA1UdHwQlMCMwIaAfoB2GG2h0dHA6Ly91cmwtZm9yLWNybC9S
b290LmNybDAOBgNVHQ8BAf8EBAMCAQYwDwYDVR0TAQH/BAUwAwEB/zANBgkqhkiG
9w0BAQsFAAOCAQEAud2Qwx22uwaWx/rWCbaDKbZAjyGQBtxBBSBfccdev8cSuwoU
FJTjP1yQrvi+sLooWLSu2YwWS4dhKdDID3Z3yt3O/M5CwfXdrVLopw/DpPMHJI8T
VeSdKWK/I9SaKwmiFMtFZmeCF3GlHLOwbLubwT1/Yu091RKx2o/0ZOoT7+MlDqng
4oVIel8qPZSqrm9socWH3yxIRowbFCTolAKlEu7PQLgaXrBczK1zpy5A8tzPqmGs
ckNQiOF74567mqYXxPuofbs5dGX7LXBrJbnrcZhB3UISMzz4/xFdu3/EV/1pYCs1
kU6ZUtCnwUXe9uR6nSxud99klq9U+F/vk91bEA==
-----END CERTIFICATE-----
