[Created by: generate-chains.py]

Certificate chain where the target certificate has an incorrect signature.

Certificate:
    Data:
        Version: 3 (0x2)
        Serial Number:
            64:12:b2:41:aa:b4:4c:d7:9a:e2:15:7a:bc:3b:e5:1c:2e:2f:6f:9a
        Signature Algorithm: sha256WithRSAEncryption
        Issuer: CN=Intermediate
        Validity
            Not Before: Nov  3 12:00:00 2020 GMT
            Not After : Nov  3 12:00:00 2021 GMT
        Subject: CN=Target
        Subject Public Key Info:
            Public Key Algorithm: rsaEncryption
                RSA Public-Key: (2048 bit)
                Modulus:
                    00:a3:10:52:35:1d:ac:4e:a5:23:41:40:b1:1d:66:
                    30:25:bc:dd:a5:62:66:d1:74:db:5f:bd:5d:96:07:
                    08:94:c4:61:a4:e9:07:31:f9:e8:6a:52:f5:8a:3d:
                    1c:6d:00:c8:47:51:30:99:42:8b:27:11:48:e9:c6:
                    de:db:ff:7f:ee:6e:29:cf:48:77:1e:63:11:bc:2a:
                    81:fb:3a:5d:4e:d2:b8:0c:ce:68:6b:61:f2:bf:64:
                    da:aa:3f:06:74:47:77:72:08:d2:a3:c3:35:cf:e5:
                    dd:13:f7:d3:45:21:f5:9c:cf:7e:50:56:53:11:c8:
                    eb:90:f2:a2:eb:8f:9d:c1:07:c4:b8:4b:38:04:3d:
                    7f:be:73:36:3e:5f:c4:7e:37:a7:0c:88:8b:a8:63:
                    79:74:b4:2c:c6:7c:52:61:e1:03:d3:ff:4f:c5:50:
                    63:19:83:eb:f3:89:a3:91:e5:90:ab:80:43:18:3e:
                    c8:77:ac:69:97:cf:2f:5b:be:a9:59:89:99:3a:5d:
                    87:c4:4f:97:4a:60:18:ea:ea:a5:b7:1e:61:57:98:
                    50:55:91:13:34:0d:03:65:a4:f4:bb:63:e6:bb:3e:
                    9f:03:84:f7:e6:63:d0:f3:82:5b:0c:96:b1:32:f2:
                    2f:2a:55:5b:24:a6:b6:33:62:6e:ed:0b:f2:77:f8:
                    f8:f3
                Exponent: 65537 (0x10001)
        X509v3 extensions:
            X509v3 Subject Key Identifier: 
                19:59:39:C0:2B:03:0A:9B:BF:AA:A8:AB:B2:FB:AF:95:88:63:CA:6E
            X509v3 Authority Key Identifier: 
                keyid:CC:47:D8:FF:8B:67:33:FB:F5:CD:D0:A7:B6:12:A0:19:27:27:D1:57

            Authority Information Access: 
                CA Issuers - URI:http://url-for-aia/Intermediate.cer

            X509v3 CRL Distribution Points: 

                Full Name:
                  URI:http://url-for-crl/Intermediate.crl

            X509v3 Key Usage: critical
                Digital Signature, Key Encipherment
            X509v3 Extended Key Usage: 
                TLS Web Server Authentication, TLS Web Client Authentication
    Signature Algorithm: sha256WithRSAEncryption
         14:01:34:37:07:0f:dc:74:ae:a3:35:09:d6:cb:98:e5:a2:e9:
         ff:ba:76:54:b7:cb:03:3e:e7:5f:26:de:44:47:a4:19:9e:22:
         22:84:ac:fe:44:df:dd:6a:f4:ca:32:6b:de:25:be:b1:29:02:
         f8:d6:28:93:d5:a6:be:9a:70:29:89:60:ea:70:af:d5:3e:8f:
         64:3a:39:68:5d:18:3d:d2:5b:38:eb:14:b5:4c:bb:93:0c:7a:
         c8:75:ad:e2:93:9e:fe:f7:3d:9f:05:6d:e2:d2:75:eb:54:c9:
         a8:6e:cd:35:b8:e3:43:da:75:43:80:38:05:eb:bc:35:70:81:
         f3:1a:79:9f:89:6c:2e:71:64:c1:13:47:62:79:6a:a3:a8:8c:
         9c:a8:97:6c:91:e8:06:d3:24:e8:41:62:68:52:e8:29:bd:6e:
         76:92:33:9b:bb:da:31:6e:b8:f4:34:4a:c2:5c:ee:42:69:e7:
         57:76:e3:28:69:40:03:6c:4a:33:25:82:85:76:ac:10:b3:1c:
         37:10:53:be:f3:8a:c5:be:7c:b2:0c:f5:43:bb:77:e4:35:7a:
         19:f7:15:58:f7:14:17:20:38:b4:2c:34:c7:02:91:aa:3a:98:
         b9:0d:33:74:67:71:a0:93:be:8c:44:77:79:91:bd:cc:c6:c9:
         d2:ac:b8:15
-----BEGIN CERTIFICATE-----
MIIDoDCCAoigAwIBAgIUZBKyQaq0TNea4hV6vDvlHC4vb5owDQYJKoZIhvcNAQEL
BQAwFzEVMBMGA1UEAwwMSW50ZXJtZWRpYXRlMB4XDTIwMTEwMzEyMDAwMFoXDTIx
MTEwMzEyMDAwMFowETEPMA0GA1UEAwwGVGFyZ2V0MIIBIjANBgkqhkiG9w0BAQEF
AAOCAQ8AMIIBCgKCAQEAoxBSNR2sTqUjQUCxHWYwJbzdpWJm0XTbX71dlgcIlMRh
pOkHMfnoalL1ij0cbQDIR1EwmUKLJxFI6cbe2/9/7m4pz0h3HmMRvCqB+zpdTtK4
DM5oa2Hyv2Taqj8GdEd3cgjSo8M1z+XdE/fTRSH1nM9+UFZTEcjrkPKi64+dwQfE
uEs4BD1/vnM2Pl/EfjenDIiLqGN5dLQsxnxSYeED0/9PxVBjGYPr84mjkeWQq4BD
GD7Id6xpl88vW76pWYmZOl2HxE+XSmAY6uqltx5hV5hQVZETNA0DZaT0u2Pmuz6f
A4T35mPQ84JbDJaxMvIvKlVbJKa2M2Ju7Qvyd/j48wIDAQABo4HpMIHmMB0GA1Ud
DgQWBBQZWTnAKwMKm7+qqKuy+6+ViGPKbjAfBgNVHSMEGDAWgBTMR9j/i2cz+/XN
0Ke2EqAZJyfRVzA/BggrBgEFBQcBAQQzMDEwLwYIKwYBBQUHMAKGI2h0dHA6Ly91
cmwtZm9yLWFpYS9JbnRlcm1lZGlhdGUuY2VyMDQGA1UdHwQtMCswKaAnoCWGI2h0
dHA6Ly91cmwtZm9yLWNybC9JbnRlcm1lZGlhdGUuY3JsMA4GA1UdDwEB/wQEAwIF
oDAdBgNVHSUEFjAUBggrBgEFBQcDAQYIKwYBBQUHAwIwDQYJKoZIhvcNAQELBQAD
ggEBABQBNDcHD9x0rqM1CdbLmOWi6f+6dlS3ywM+518m3kRHpBmeIiKErP5E391q
9Moya94lvrEpAvjWKJPVpr6acCmJYOpwr9U+j2Q6OWhdGD3SWzjrFLVMu5MMesh1
reKTnv73PZ8FbeLSdetUyahuzTW440PadUOAOAXrvDVwgfMaeZ+JbC5xZMETR2J5
aqOojJyol2yR6AbTJOhBYmhS6Cm9bnaSM5u72jFuuPQ0SsJc7kJp51d24yhpQANs
SjMlgoV2rBCzHDcQU77zisW+fLIM9UO7d+Q1ehn3FVj3FBcgOLQsNMcCkao6mLkN
M3RncaCTvoxEd3mRvczGydKsuBU=
-----END CERTIFICATE-----

Certificate:
    Data:
        Version: 3 (0x2)
        Serial Number:
            6a:9f:ff:3a:b6:b8:fe:7d:22:0c:6a:3b:9d:e9:cc:59:3d:d5:60:ed
        Signature Algorithm: sha256WithRSAEncryption
        Issuer: CN=Root
        Validity
            Not Before: Nov  3 12:00:00 2020 GMT
            Not After : Nov  3 12:00:00 2021 GMT
        Subject: CN=Intermediate
        Subject Public Key Info:
            Public Key Algorithm: rsaEncryption
                RSA Public-Key: (2048 bit)
                Modulus:
                    00:e8:a7:ff:7c:21:83:d4:bd:ed:f4:09:73:79:69:
                    0c:ec:79:18:79:54:2e:a6:87:f3:7b:65:e8:73:6a:
                    a5:af:fd:00:6b:c9:ed:86:50:18:f0:4c:d9:12:17:
                    3a:23:ae:7a:49:3d:71:7c:6e:da:4f:7b:ed:55:73:
                    e8:71:5c:72:13:84:8f:83:aa:30:4f:0a:bc:38:51:
                    75:47:67:c3:6c:5e:e8:af:96:07:4a:0c:f7:5d:c1:
                    82:ea:02:e2:c3:da:57:68:2c:03:1a:a0:d9:51:05:
                    ef:ec:67:cc:fd:c4:09:b4:f7:2f:c7:5a:df:84:7f:
                    15:60:32:9d:17:4e:4b:3c:15:48:a7:42:a1:f5:d4:
                    04:82:bb:cc:18:3a:ab:07:d1:66:82:9b:0d:b0:ef:
                    d8:47:18:71:78:e6:07:47:97:29:24:0c:7a:12:ab:
                    2f:4b:14:ec:35:7a:d2:a3:2a:16:0c:0b:91:5a:e2:
                    f2:64:93:85:1d:e2:27:7e:7e:cd:eb:5f:83:d7:07:
                    0c:06:b8:8f:44:91:0c:37:d8:86:65:23:1a:fe:8f:
                    69:3e:bb:20:bb:ef:1b:18:1b:fd:2f:bf:5b:d3:be:
                    da:2d:9f:9a:57:6b:4b:73:3f:34:04:99:5d:a1:73:
                    b5:08:d1:bb:9a:5c:88:a0:f8:65:1c:e7:7f:f3:95:
                    d0:fd
                Exponent: 65537 (0x10001)
        X509v3 extensions:
            X509v3 Subject Key Identifier: 
                1E:51:BA:4C:14:B3:B7:2B:E2:AE:4C:1C:35:21:7C:DB:92:18:AB:53
            X509v3 Authority Key Identifier: 
                keyid:5B:22:4E:B0:32:77:9B:92:26:9B:3B:E9:76:31:CE:FB:43:87:A3:2A

            Authority Information Access: 
                CA Issuers - URI:http://url-for-aia/Root.cer

            X509v3 CRL Distribution Points: 

                Full Name:
                  URI:http://url-for-crl/Root.crl

            X509v3 Key Usage: critical
                Certificate Sign, CRL Sign
            X509v3 Basic Constraints: critical
                CA:TRUE
    Signature Algorithm: sha256WithRSAEncryption
         d3:5e:04:41:be:b5:4d:2f:53:3e:85:85:7e:8a:05:ac:24:1e:
         ed:3f:51:dd:4c:0b:44:50:f1:fa:da:44:31:37:5f:20:74:9f:
         73:cf:dc:6e:6a:76:79:ee:04:2b:67:da:14:f7:3d:20:5c:99:
         5f:93:f8:b2:6a:2e:4e:0e:cf:7c:82:25:1e:b5:76:1d:70:50:
         3b:d8:cf:66:6d:14:6b:61:c6:a0:5f:2a:2a:5b:97:fc:7e:cb:
         29:3c:8a:57:7b:eb:e6:1c:f2:ef:a4:bd:46:4c:6a:47:e7:3a:
         16:57:d7:eb:7e:64:8a:a3:05:65:14:5c:22:e6:72:25:b6:2e:
         78:24:fd:d2:d0:2b:5d:d9:1a:11:04:50:be:f8:d6:20:cd:43:
         af:c2:15:a0:57:6b:8a:71:2d:20:ad:f8:76:a2:2d:a0:58:c6:
         2f:ba:f5:77:98:cb:0c:87:f5:1b:06:cd:26:e3:66:0b:ef:97:
         5e:3e:2d:d1:cc:9f:d6:58:46:78:58:4c:90:9b:95:54:b9:bb:
         87:45:9a:80:89:c4:0e:86:da:c4:87:61:a5:b3:5a:2a:2b:e5:
         e8:b5:df:63:ef:1f:9e:56:a7:f1:04:34:61:00:63:14:75:06:
         22:81:15:ca:65:30:73:7f:31:80:05:d7:b3:f8:fb:24:e6:0f:
         b6:08:13:a0
-----BEGIN CERTIFICATE-----
MIIDgDCCAmigAwIBAgIUap//Ora4/n0iDGo7nenMWT3VYO0wDQYJKoZIhvcNAQEL
BQAwDzENMAsGA1UEAwwEUm9vdDAeFw0yMDExMDMxMjAwMDBaFw0yMTExMDMxMjAw
MDBaMBcxFTATBgNVBAMMDEludGVybWVkaWF0ZTCCASIwDQYJKoZIhvcNAQEBBQAD
ggEPADCCAQoCggEBAOin/3whg9S97fQJc3lpDOx5GHlULqaH83tl6HNqpa/9AGvJ
7YZQGPBM2RIXOiOuekk9cXxu2k977VVz6HFcchOEj4OqME8KvDhRdUdnw2xe6K+W
B0oM913BguoC4sPaV2gsAxqg2VEF7+xnzP3ECbT3L8da34R/FWAynRdOSzwVSKdC
ofXUBIK7zBg6qwfRZoKbDbDv2EcYcXjmB0eXKSQMehKrL0sU7DV60qMqFgwLkVri
8mSThR3iJ35+zetfg9cHDAa4j0SRDDfYhmUjGv6PaT67ILvvGxgb/S+/W9O+2i2f
mldrS3M/NASZXaFztQjRu5pciKD4ZRznf/OV0P0CAwEAAaOByzCByDAdBgNVHQ4E
FgQUHlG6TBSztyvirkwcNSF825IYq1MwHwYDVR0jBBgwFoAUWyJOsDJ3m5Immzvp
djHO+0OHoyowNwYIKwYBBQUHAQEEKzApMCcGCCsGAQUFBzAChhtodHRwOi8vdXJs
LWZvci1haWEvUm9vdC5jZXIwLAYDVR0fBCUwIzAhoB+gHYYbaHR0cDovL3VybC1m
b3ItY3JsL1Jvb3QuY3JsMA4GA1UdDwEB/wQEAwIBBjAPBgNVHRMBAf8EBTADAQH/
MA0GCSqGSIb3DQEBCwUAA4IBAQDTXgRBvrVNL1M+hYV+igWsJB7tP1HdTAtEUPH6
2kQxN18gdJ9zz9xuanZ57gQrZ9oU9z0gXJlfk/iyai5ODs98giUetXYdcFA72M9m
bRRrYcagXyoqW5f8fsspPIpXe+vmHPLvpL1GTGpH5zoWV9frfmSKowVlFFwi5nIl
ti54JP3S0Ctd2RoRBFC++NYgzUOvwhWgV2uKcS0grfh2oi2gWMYvuvV3mMsMh/Ub
Bs0m42YL75dePi3RzJ/WWEZ4WEyQm5VUubuHRZqAicQOhtrEh2Gls1oqK+Xotd9j
7x+eVqfxBDRhAGMUdQYigRXKZTBzfzGABdez+Psk5g+2CBOg
-----END CERTIFICATE-----

Certificate:
    Data:
        Version: 3 (0x2)
        Serial Number:
            6a:9f:ff:3a:b6:b8:fe:7d:22:0c:6a:3b:9d:e9:cc:59:3d:d5:60:eb
        Signature Algorithm: sha256WithRSAEncryption
        Issuer: CN=Root
        Validity
            Not Before: Nov  3 12:00:00 2020 GMT
            Not After : Nov  3 12:00:00 2021 GMT
        Subject: CN=Root
        Subject Public Key Info:
            Public Key Algorithm: rsaEncryption
                RSA Public-Key: (2048 bit)
                Modulus:
                    00:df:f9:b3:49:5f:c8:1f:a6:a5:bc:9e:5d:08:17:
                    7e:a5:87:b6:d2:53:a6:c2:ce:73:29:cb:f4:35:07:
                    26:c5:b0:ef:87:ca:a0:64:db:7f:e4:2c:05:da:81:
                    8e:98:b8:80:d2:f1:c3:e5:d6:6c:1a:ac:90:8f:f0:
                    4d:43:fd:09:f4:eb:17:fa:c4:cb:da:2a:56:7e:b6:
                    d2:ce:6d:5f:d5:ec:01:67:af:02:3a:d6:18:a2:61:
                    43:f6:ff:45:10:c4:8e:c1:15:1b:a0:88:77:45:82:
                    39:10:f8:d7:2c:26:13:df:20:62:0f:9a:5d:69:d1:
                    ae:4e:c2:28:30:0c:dd:d5:6e:8e:23:d0:45:f3:4f:
                    2c:9a:f6:f7:d4:fd:b8:6e:28:32:74:57:94:5d:f8:
                    3f:51:ef:11:21:09:27:3c:05:46:86:78:63:f6:c5:
                    0d:7c:28:e5:b7:1a:66:f4:91:59:f2:91:16:a2:7b:
                    0a:34:e7:30:78:72:73:10:dc:b7:60:cd:d3:ea:8b:
                    09:0e:7c:9c:01:f9:f5:d8:ce:35:86:8f:60:e4:00:
                    38:98:81:ac:36:1a:25:7e:c6:59:bd:79:53:5b:83:
                    f0:72:50:78:a2:3f:53:45:fc:64:56:40:ed:64:5d:
                    7d:df:62:4f:a0:01:25:19:59:9f:84:e6:c7:21:04:
                    b8:2f
                Exponent: 65537 (0x10001)
        X509v3 extensions:
            X509v3 Subject Key Identifier: 
                5B:22:4E:B0:32:77:9B:92:26:9B:3B:E9:76:31:CE:FB:43:87:A3:2A
            X509v3 Authority Key Identifier: 
                keyid:5B:22:4E:B0:32:77:9B:92:26:9B:3B:E9:76:31:CE:FB:43:87:A3:2A

            Authority Information Access: 
                CA Issuers - URI:http://url-for-aia/Root.cer

            X509v3 CRL Distribution Points: 

                Full Name:
                  URI:http://url-for-crl/Root.crl

            X509v3 Key Usage: critical
                Certificate Sign, CRL Sign
            X509v3 Basic Constraints: critical
                CA:TRUE
    Signature Algorithm: sha256WithRSAEncryption
         4a:13:bb:71:3c:cf:e6:a7:72:c5:e5:8c:0b:9d:f2:e2:7e:c7:
         4b:30:8e:d8:f2:c1:bc:40:f2:27:2e:32:4e:eb:5e:82:46:f9:
         dd:ff:1f:cb:ea:64:99:63:9d:a7:67:ed:ef:ab:9a:a5:91:82:
         86:56:e7:e0:1f:07:00:7f:2b:12:da:3b:a0:c5:d4:b3:8e:df:
         e3:3f:58:d7:1d:2e:7c:a0:76:0f:0d:0b:31:42:f4:8a:ea:29:
         4a:68:3f:0a:87:35:ed:40:f7:21:b3:1d:02:73:b7:1f:80:57:
         68:70:e8:57:1a:c5:d4:8d:a0:ce:da:ef:91:bf:0b:b0:50:0e:
         ed:55:7b:19:33:93:bf:86:ac:30:11:f6:3c:f0:91:1c:97:f4:
         b7:6e:fc:b5:8f:68:42:95:b3:c6:90:22:ad:d2:e8:ca:3e:ab:
         e7:34:e3:08:f0:f2:58:bc:80:12:c1:4c:8d:7e:b4:98:f4:e7:
         0b:f4:c3:ca:6d:79:0b:60:09:fc:c2:c5:bf:22:36:c3:3a:8d:
         4b:53:7f:e4:6d:25:c1:34:71:fb:cc:1d:35:2d:3a:db:b9:65:
         45:26:bb:d9:d0:b8:b0:e5:08:8f:3a:ff:87:86:85:51:d5:bc:
         ca:e8:2f:da:a9:55:52:fe:b6:26:19:06:c2:21:52:bf:e9:c0:
         cb:26:c8:42
-----BEGIN CERTIFICATE-----
MIIDeDCCAmCgAwIBAgIUap//Ora4/n0iDGo7nenMWT3VYOswDQYJKoZIhvcNAQEL
BQAwDzENMAsGA1UEAwwEUm9vdDAeFw0yMDExMDMxMjAwMDBaFw0yMTExMDMxMjAw
MDBaMA8xDTALBgNVBAMMBFJvb3QwggEiMA0GCSqGSIb3DQEBAQUAA4IBDwAwggEK
AoIBAQDf+bNJX8gfpqW8nl0IF36lh7bSU6bCznMpy/Q1BybFsO+HyqBk23/kLAXa
gY6YuIDS8cPl1mwarJCP8E1D/Qn06xf6xMvaKlZ+ttLObV/V7AFnrwI61hiiYUP2
/0UQxI7BFRugiHdFgjkQ+NcsJhPfIGIPml1p0a5OwigwDN3Vbo4j0EXzTyya9vfU
/bhuKDJ0V5Rd+D9R7xEhCSc8BUaGeGP2xQ18KOW3Gmb0kVnykRaiewo05zB4cnMQ
3LdgzdPqiwkOfJwB+fXYzjWGj2DkADiYgaw2GiV+xlm9eVNbg/ByUHiiP1NF/GRW
QO1kXX3fYk+gASUZWZ+E5schBLgvAgMBAAGjgcswgcgwHQYDVR0OBBYEFFsiTrAy
d5uSJps76XYxzvtDh6MqMB8GA1UdIwQYMBaAFFsiTrAyd5uSJps76XYxzvtDh6Mq
MDcGCCsGAQUFBwEBBCswKTAnBggrBgEFBQcwAoYbaHR0cDovL3VybC1mb3ItYWlh
L1Jvb3QuY2VyMCwGA1UdHwQlMCMwIaAfoB2GG2h0dHA6Ly91cmwtZm9yLWNybC9S
b290LmNybDAOBgNVHQ8BAf8EBAMCAQYwDwYDVR0TAQH/BAUwAwEB/zANBgkqhkiG
9w0BAQsFAAOCAQEAShO7cTzP5qdyxeWMC53y4n7HSzCO2PLBvEDyJy4yTutegkb5
3f8fy+pkmWOdp2ft76uapZGChlbn4B8HAH8rEto7oMXUs47f4z9Y1x0ufKB2Dw0L
MUL0iuopSmg/Coc17UD3IbMdAnO3H4BXaHDoVxrF1I2gztrvkb8LsFAO7VV7GTOT
v4asMBH2PPCRHJf0t278tY9oQpWzxpAirdLoyj6r5zTjCPDyWLyAEsFMjX60mPTn
C/TDym15C2AJ/MLFvyI2wzqNS1N/5G0lwTRx+8wdNS0627llRSa72dC4sOUIjzr/
h4aFUdW8yugv2qlVUv62JhkGwiFSv+nAyybIQg==
-----END CERTIFICATE-----
