[Created by: generate-chains.py]

Certificate chain where the intermediate sets pathlen=0, and is followed by
a self-issued intermediate.

Certificate:
    Data:
        Version: 3 (0x2)
        Serial Number:
            57:c3:57:03:79:49:32:ce:56:f8:86:e8:81:fd:69:ad:fa:5f:fe:8d
        Signature Algorithm: sha256WithRSAEncryption
        Issuer: CN=Intermediate
        Validity
            Not Before: Nov  3 12:00:00 2020 GMT
            Not After : Nov  3 12:00:00 2021 GMT
        Subject: CN=Target
        Subject Public Key Info:
            Public Key Algorithm: rsaEncryption
                RSA Public-Key: (2048 bit)
                Modulus:
                    00:be:6c:86:21:26:6b:16:22:36:2b:5b:b1:d4:52:
                    28:74:2d:76:f3:1b:3b:01:17:dd:e1:18:e3:02:06:
                    a7:88:93:ad:32:59:53:ff:5d:c5:cd:1a:78:70:fb:
                    2e:d9:ba:f9:fa:75:53:fc:02:a8:3c:9b:e0:f4:50:
                    00:4f:30:0b:b3:d6:04:6a:b6:ef:85:0b:42:35:29:
                    77:fa:91:16:0e:ed:34:8a:f3:d2:5e:e9:66:66:57:
                    9b:6f:71:30:16:88:18:7a:f3:fc:61:79:06:d5:e8:
                    b9:18:d6:b9:20:bf:b9:9a:dd:c5:de:64:7d:44:fd:
                    3f:2a:a0:23:31:4d:a7:4c:42:65:ad:9b:38:b6:35:
                    51:f7:4a:58:84:b3:92:cb:98:36:a3:92:0c:33:85:
                    64:18:f2:06:c4:11:a6:12:a9:7c:da:ea:36:59:90:
                    9c:87:a4:60:39:9d:29:e3:21:91:c4:ae:9a:f9:f2:
                    ec:ad:f8:44:55:5c:3a:21:52:81:58:a1:e0:3a:5b:
                    9e:2d:61:62:7f:51:58:44:87:80:41:00:e9:6c:ed:
                    a7:ff:a0:7c:b4:17:33:7c:78:54:ca:92:81:d1:56:
                    75:b1:3a:b7:27:6a:77:e8:0c:30:71:bd:db:b1:06:
                    19:e9:d6:99:d6:41:d2:c6:90:3d:72:31:fc:e7:03:
                    38:35
                Exponent: 65537 (0x10001)
        X509v3 extensions:
            X509v3 Subject Key Identifier: 
                BF:95:3A:85:28:C1:82:8F:C9:0C:81:29:EA:8A:F8:1E:73:80:F8:7F
            X509v3 Authority Key Identifier: 
                keyid:0C:50:93:FA:6E:53:C4:76:18:87:E2:39:87:0B:AA:8E:31:01:3D:69

            Authority Information Access: 
                CA Issuers - URI:http://url-for-aia/Intermediate.cer

            X509v3 CRL Distribution Points: 

                Full Name:
                  URI:http://url-for-crl/Intermediate.crl

            X509v3 Key Usage: critical
                Digital Signature, Key Encipherment
            X509v3 Extended Key Usage: 
                TLS Web Server Authentication, TLS Web Client Authentication
    Signature Algorithm: sha256WithRSAEncryption
         af:2b:79:92:12:d4:2e:18:10:1e:0e:5d:5a:08:a0:9e:34:dc:
         89:6b:24:53:fa:58:b4:3a:a4:9d:9a:95:30:55:f2:09:45:fe:
         8c:bb:c0:0e:b0:4a:27:82:a3:ad:8e:cd:47:06:ae:e0:4c:b3:
         32:8f:90:42:0f:b7:ef:86:c7:fc:13:70:b3:76:c4:55:47:43:
         af:78:89:c1:50:4b:64:c5:03:9f:c3:a1:20:2b:4c:05:ec:2f:
         59:ff:98:b6:e9:28:21:12:d4:b6:63:a2:1c:36:8f:24:ae:21:
         d0:9b:64:28:1f:62:4a:90:a3:07:32:7b:cd:b2:28:51:01:0e:
         60:5f:b4:a4:b6:31:79:e4:ee:57:88:b1:6c:5d:24:7c:86:8d:
         ef:61:dc:9e:4d:45:90:8b:07:93:80:a3:6b:7c:52:32:5e:ca:
         9e:1b:ee:8b:5c:1f:11:ff:69:e3:60:98:48:5b:7b:31:b6:1b:
         63:92:c7:e1:b5:a8:90:66:95:ea:ca:d6:b7:b9:93:12:d6:5a:
         6a:05:90:2d:5e:a1:c4:f3:20:04:16:97:b1:82:24:22:29:3a:
         8d:b8:0d:ec:c2:85:15:a3:a6:f1:37:25:14:c3:ec:2d:ab:84:
         fe:3a:e5:4b:9f:0d:ac:bf:a8:04:98:b9:3b:88:9b:23:b6:42:
         a6:bb:6a:df
-----BEGIN CERTIFICATE-----
MIIDoDCCAoigAwIBAgIUV8NXA3lJMs5W+Ibogf1prfpf/o0wDQYJKoZIhvcNAQEL
BQAwFzEVMBMGA1UEAwwMSW50ZXJtZWRpYXRlMB4XDTIwMTEwMzEyMDAwMFoXDTIx
MTEwMzEyMDAwMFowETEPMA0GA1UEAwwGVGFyZ2V0MIIBIjANBgkqhkiG9w0BAQEF
AAOCAQ8AMIIBCgKCAQEAvmyGISZrFiI2K1ux1FIodC128xs7ARfd4RjjAganiJOt
MllT/13FzRp4cPsu2br5+nVT/AKoPJvg9FAATzALs9YEarbvhQtCNSl3+pEWDu00
ivPSXulmZlebb3EwFogYevP8YXkG1ei5GNa5IL+5mt3F3mR9RP0/KqAjMU2nTEJl
rZs4tjVR90pYhLOSy5g2o5IMM4VkGPIGxBGmEql82uo2WZCch6RgOZ0p4yGRxK6a
+fLsrfhEVVw6IVKBWKHgOlueLWFif1FYRIeAQQDpbO2n/6B8tBczfHhUypKB0VZ1
sTq3J2p36Awwcb3bsQYZ6daZ1kHSxpA9cjH85wM4NQIDAQABo4HpMIHmMB0GA1Ud
DgQWBBS/lTqFKMGCj8kMgSnqivgec4D4fzAfBgNVHSMEGDAWgBQMUJP6blPEdhiH
4jmHC6qOMQE9aTA/BggrBgEFBQcBAQQzMDEwLwYIKwYBBQUHMAKGI2h0dHA6Ly91
cmwtZm9yLWFpYS9JbnRlcm1lZGlhdGUuY2VyMDQGA1UdHwQtMCswKaAnoCWGI2h0
dHA6Ly91cmwtZm9yLWNybC9JbnRlcm1lZGlhdGUuY3JsMA4GA1UdDwEB/wQEAwIF
oDAdBgNVHSUEFjAUBggrBgEFBQcDAQYIKwYBBQUHAwIwDQYJKoZIhvcNAQELBQAD
ggEBAK8reZIS1C4YEB4OXVoIoJ403IlrJFP6WLQ6pJ2alTBV8glF/oy7wA6wSieC
o62OzUcGruBMszKPkEIPt++Gx/wTcLN2xFVHQ694icFQS2TFA5/DoSArTAXsL1n/
mLbpKCES1LZjohw2jySuIdCbZCgfYkqQowcye82yKFEBDmBftKS2MXnk7leIsWxd
JHyGje9h3J5NRZCLB5OAo2t8UjJeyp4b7otcHxH/aeNgmEhbezG2G2OSx+G1qJBm
lerK1re5kxLWWmoFkC1eocTzIAQWl7GCJCIpOo24DezChRWjpvE3JRTD7C2rhP46
5UufDay/qASYuTuImyO2Qqa7at8=
-----END CERTIFICATE-----

Certificate:
    Data:
        Version: 3 (0x2)
        Serial Number:
            57:c3:57:03:79:49:32:ce:56:f8:86:e8:81:fd:69:ad:fa:5f:fe:8c
        Signature Algorithm: sha256WithRSAEncryption
        Issuer: CN=Intermediate
        Validity
            Not Before: Nov  3 12:00:00 2020 GMT
            Not After : Nov  3 12:00:00 2021 GMT
        Subject: CN=Intermediate
        Subject Public Key Info:
            Public Key Algorithm: rsaEncryption
                RSA Public-Key: (2048 bit)
                Modulus:
                    00:bb:cd:84:14:6c:0b:68:76:9e:7d:d5:f7:55:ac:
                    5a:2b:6d:71:ad:aa:34:2a:dc:b4:b0:c2:37:23:5b:
                    05:01:08:b6:9b:fb:97:ce:3c:eb:fe:2f:b2:5e:6b:
                    07:bb:5f:29:fb:b1:25:55:5c:dd:9f:de:89:bd:29:
                    37:e8:a7:8a:99:c3:50:82:32:10:bb:2d:19:bc:a8:
                    47:21:3d:0a:66:b6:8d:ab:42:3a:94:50:7f:c3:19:
                    7f:ea:28:89:c2:9d:a8:87:d5:1b:42:63:9a:9f:9e:
                    06:72:41:ee:64:ee:ac:1e:21:f6:3e:3d:e5:f6:d1:
                    04:dd:7e:61:cb:e5:65:99:c1:49:97:13:c4:11:96:
                    3b:62:f0:46:ad:20:5d:52:5c:16:d6:59:29:e2:9e:
                    91:15:f1:23:0d:fb:3c:86:90:50:05:2d:63:81:cc:
                    39:25:62:cc:00:18:b4:0e:1a:a0:d8:ca:4b:e0:b6:
                    ea:33:83:8a:2e:ab:6c:6f:41:9e:ec:43:92:d1:83:
                    b6:d0:45:e7:a8:8d:28:6b:a4:b5:f7:53:8b:8a:dc:
                    3e:b0:df:9f:d4:70:4e:c2:2c:1a:a5:4d:6c:5d:2e:
                    94:35:84:b9:5d:e9:df:22:fd:55:6e:05:ff:eb:b6:
                    10:0c:28:a3:5b:49:c1:98:63:8f:5d:fa:83:4e:11:
                    cd:13
                Exponent: 65537 (0x10001)
        X509v3 extensions:
            X509v3 Subject Key Identifier: 
                0C:50:93:FA:6E:53:C4:76:18:87:E2:39:87:0B:AA:8E:31:01:3D:69
            X509v3 Authority Key Identifier: 
                keyid:4E:47:5F:93:57:FE:5F:F3:92:73:A6:6A:55:7C:1A:FB:F9:16:85:36

            Authority Information Access: 
                CA Issuers - URI:http://url-for-aia/Intermediate.cer

            X509v3 CRL Distribution Points: 

                Full Name:
                  URI:http://url-for-crl/Intermediate.crl

            X509v3 Key Usage: critical
                Certificate Sign, CRL Sign
            X509v3 Basic Constraints: critical
                CA:TRUE, pathlen:0
    Signature Algorithm: sha256WithRSAEncryption
         33:4c:e0:b9:df:09:a9:a0:27:88:3c:ca:83:1d:bd:a1:66:aa:
         d3:35:50:93:01:0f:8d:be:60:8c:9d:a1:d5:48:22:0c:f6:9d:
         3f:f4:15:32:aa:32:bf:dd:09:32:c3:2d:b2:d2:6b:00:37:cd:
         20:60:ac:13:07:05:26:3f:ea:39:bc:32:1f:7f:fa:7f:20:6c:
         e6:4f:83:b5:a6:42:c0:08:a0:b4:ce:5d:2b:b0:c1:bc:e2:c1:
         e6:cc:dd:12:46:ef:0a:dc:23:30:8a:c1:cf:6e:e8:e3:10:fb:
         a4:a6:0a:d7:60:41:31:88:35:05:d0:af:5b:90:ec:01:c0:f0:
         ed:65:ea:fc:ad:f5:e8:0f:47:84:8b:a6:9b:bb:0b:2e:58:7f:
         79:f0:ee:62:a2:1b:98:40:08:9e:4b:9c:55:b3:75:05:31:4d:
         8f:5c:a3:79:f0:0a:3c:74:3d:5f:8e:dc:3c:65:05:6b:eb:04:
         91:bb:3a:09:cd:77:75:06:ab:da:69:b2:2b:56:c5:0a:ab:82:
         ff:36:d0:c5:35:ca:bd:d2:0b:65:16:60:31:36:fd:fb:e0:c7:
         1e:a8:0f:6c:99:d4:33:64:0b:b0:18:27:7e:ed:8f:02:d0:c2:
         fd:09:8e:49:79:fd:7f:9c:4c:62:9c:1f:e8:9f:52:af:95:c7:
         a7:2d:1a:7c
-----BEGIN CERTIFICATE-----
MIIDmzCCAoOgAwIBAgIUV8NXA3lJMs5W+Ibogf1prfpf/owwDQYJKoZIhvcNAQEL
BQAwFzEVMBMGA1UEAwwMSW50ZXJtZWRpYXRlMB4XDTIwMTEwMzEyMDAwMFoXDTIx
MTEwMzEyMDAwMFowFzEVMBMGA1UEAwwMSW50ZXJtZWRpYXRlMIIBIjANBgkqhkiG
9w0BAQEFAAOCAQ8AMIIBCgKCAQEAu82EFGwLaHaefdX3VaxaK21xrao0Kty0sMI3
I1sFAQi2m/uXzjzr/i+yXmsHu18p+7ElVVzdn96JvSk36KeKmcNQgjIQuy0ZvKhH
IT0KZraNq0I6lFB/wxl/6iiJwp2oh9UbQmOan54GckHuZO6sHiH2Pj3l9tEE3X5h
y+VlmcFJlxPEEZY7YvBGrSBdUlwW1lkp4p6RFfEjDfs8hpBQBS1jgcw5JWLMABi0
Dhqg2MpL4LbqM4OKLqtsb0Ge7EOS0YO20EXnqI0oa6S191OLitw+sN+f1HBOwiwa
pU1sXS6UNYS5XenfIv1VbgX/67YQDCijW0nBmGOPXfqDThHNEwIDAQABo4HeMIHb
MB0GA1UdDgQWBBQMUJP6blPEdhiH4jmHC6qOMQE9aTAfBgNVHSMEGDAWgBROR1+T
V/5f85JzpmpVfBr7+RaFNjA/BggrBgEFBQcBAQQzMDEwLwYIKwYBBQUHMAKGI2h0
dHA6Ly91cmwtZm9yLWFpYS9JbnRlcm1lZGlhdGUuY2VyMDQGA1UdHwQtMCswKaAn
oCWGI2h0dHA6Ly91cmwtZm9yLWNybC9JbnRlcm1lZGlhdGUuY3JsMA4GA1UdDwEB
/wQEAwIBBjASBgNVHRMBAf8ECDAGAQH/AgEAMA0GCSqGSIb3DQEBCwUAA4IBAQAz
TOC53wmpoCeIPMqDHb2hZqrTNVCTAQ+NvmCMnaHVSCIM9p0/9BUyqjK/3Qkywy2y
0msAN80gYKwTBwUmP+o5vDIff/p/IGzmT4O1pkLACKC0zl0rsMG84sHmzN0SRu8K
3CMwisHPbujjEPukpgrXYEExiDUF0K9bkOwBwPDtZer8rfXoD0eEi6abuwsuWH95
8O5iohuYQAieS5xVs3UFMU2PXKN58Ao8dD1fjtw8ZQVr6wSRuzoJzXd1BqvaabIr
VsUKq4L/NtDFNcq90gtlFmAxNv374MceqA9smdQzZAuwGCd+7Y8C0ML9CY5Jef1/
nExinB/on1KvlcenLRp8
-----END CERTIFICATE-----

Certificate:
    Data:
        Version: 3 (0x2)
        Serial Number:
            38:35:95:e6:ac:68:24:65:1f:52:3f:6e:18:3b:86:7c:da:73:de:30
        Signature Algorithm: sha256WithRSAEncryption
        Issuer: CN=Root
        Validity
            Not Before: Nov  3 12:00:00 2020 GMT
            Not After : Nov  3 12:00:00 2021 GMT
        Subject: CN=Intermediate
        Subject Public Key Info:
            Public Key Algorithm: rsaEncryption
                RSA Public-Key: (2048 bit)
                Modulus:
                    00:cf:6c:3c:e9:bb:09:74:83:4d:d6:c8:58:96:d9:
                    3b:ee:6d:f2:fd:9e:11:e5:80:e5:35:50:51:70:0d:
                    95:a9:f9:0e:96:df:33:db:94:6f:a3:7d:2a:80:d2:
                    a4:3b:fa:34:e0:bd:44:e5:07:a6:09:02:40:3b:6f:
                    11:a7:54:88:0f:22:09:58:27:97:4a:7f:55:e3:03:
                    5c:c2:13:fb:62:4b:0b:b0:fb:5b:20:c1:57:fc:a4:
                    32:4d:97:71:f7:5c:f1:63:6c:21:7b:a8:6e:ce:9f:
                    e5:50:66:40:b1:e9:23:df:52:b4:b6:de:aa:99:75:
                    f0:d2:ec:26:60:37:89:c9:a2:dc:b0:f5:33:e9:0e:
                    0f:0e:bd:f3:72:65:1e:4f:9c:c6:1b:32:34:98:de:
                    04:c0:dd:28:24:ec:f7:dc:e5:54:7a:a5:1a:b0:1a:
                    31:96:d3:43:f0:df:4b:52:41:9c:8e:34:22:50:fc:
                    44:bb:a5:fb:c0:c5:59:8a:bb:32:42:29:fc:73:cb:
                    a1:85:54:7f:5a:db:bd:ec:0d:99:76:c0:c5:72:9f:
                    0d:28:e9:ca:65:9f:a1:69:b6:07:20:01:64:c7:03:
                    0f:ff:ab:a1:f1:df:5b:a4:da:7e:e5:79:68:19:a2:
                    63:e0:87:37:05:5d:f7:88:5d:11:c6:1d:d8:18:0a:
                    0c:23
                Exponent: 65537 (0x10001)
        X509v3 extensions:
            X509v3 Subject Key Identifier: 
                4E:47:5F:93:57:FE:5F:F3:92:73:A6:6A:55:7C:1A:FB:F9:16:85:36
            X509v3 Authority Key Identifier: 
                keyid:A0:D4:A1:BC:4B:2D:3E:83:D7:0D:0C:E2:BE:E6:3A:C5:40:4D:4E:DC

            Authority Information Access: 
                CA Issuers - URI:http://url-for-aia/Root.cer

            X509v3 CRL Distribution Points: 

                Full Name:
                  URI:http://url-for-crl/Root.crl

            X509v3 Key Usage: critical
                Certificate Sign, CRL Sign
            X509v3 Basic Constraints: critical
                CA:TRUE, pathlen:0
    Signature Algorithm: sha256WithRSAEncryption
         3c:f2:5e:fa:d3:50:aa:b7:3e:6d:bd:95:2c:04:a4:ed:2f:cf:
         de:da:82:4c:50:6d:79:fd:59:5e:c1:97:48:93:9d:11:4e:e9:
         2a:1d:d1:d2:b0:c2:0a:14:3d:5c:cb:71:8c:6a:49:2a:39:fb:
         7c:80:e1:38:d9:d8:ae:50:69:e9:d5:1a:3b:b1:f6:df:c8:08:
         a7:c5:25:07:c5:1c:fc:08:65:ea:1a:65:32:d4:3f:f0:e3:aa:
         85:e4:3b:75:a6:ed:68:cf:8e:ec:ad:78:18:fc:a5:3c:af:5c:
         ad:7e:5e:4b:29:4a:95:77:d1:6d:3c:38:51:9e:f6:31:02:68:
         d1:17:c8:e5:63:af:84:5d:87:fb:03:93:90:df:fb:fe:9d:0c:
         63:79:07:07:ba:04:af:a2:f7:de:04:50:95:d2:5c:99:ee:4e:
         59:a0:10:7e:92:36:6d:21:b8:f8:cb:aa:50:10:26:89:cf:69:
         21:c2:60:ff:d4:94:78:4a:ec:8d:e6:87:cc:d2:43:2b:94:29:
         ca:db:45:62:5d:87:f3:50:4d:ad:d5:88:cf:fd:db:d1:eb:b1:
         19:c4:ec:a4:b5:79:f1:12:57:a1:21:0a:26:7f:04:8b:a6:dc:
         88:fe:ac:e3:59:1d:74:6c:3b:6a:e3:c8:4e:83:96:87:e7:9a:
         43:b4:43:ea
-----BEGIN CERTIFICATE-----
MIIDgzCCAmugAwIBAgIUODWV5qxoJGUfUj9uGDuGfNpz3jAwDQYJKoZIhvcNAQEL
BQAwDzENMAsGA1UEAwwEUm9vdDAeFw0yMDExMDMxMjAwMDBaFw0yMTExMDMxMjAw
MDBaMBcxFTATBgNVBAMMDEludGVybWVkaWF0ZTCCASIwDQYJKoZIhvcNAQEBBQAD
ggEPADCCAQoCggEBAM9sPOm7CXSDTdbIWJbZO+5t8v2eEeWA5TVQUXANlan5Dpbf
M9uUb6N9KoDSpDv6NOC9ROUHpgkCQDtvEadUiA8iCVgnl0p/VeMDXMIT+2JLC7D7
WyDBV/ykMk2Xcfdc8WNsIXuobs6f5VBmQLHpI99StLbeqpl18NLsJmA3icmi3LD1
M+kODw6983JlHk+cxhsyNJjeBMDdKCTs99zlVHqlGrAaMZbTQ/DfS1JBnI40IlD8
RLul+8DFWYq7MkIp/HPLoYVUf1rbvewNmXbAxXKfDSjpymWfoWm2ByABZMcDD/+r
ofHfW6TafuV5aBmiY+CHNwVd94hdEcYd2BgKDCMCAwEAAaOBzjCByzAdBgNVHQ4E
FgQUTkdfk1f+X/OSc6ZqVXwa+/kWhTYwHwYDVR0jBBgwFoAUoNShvEstPoPXDQzi
vuY6xUBNTtwwNwYIKwYBBQUHAQEEKzApMCcGCCsGAQUFBzAChhtodHRwOi8vdXJs
LWZvci1haWEvUm9vdC5jZXIwLAYDVR0fBCUwIzAhoB+gHYYbaHR0cDovL3VybC1m
b3ItY3JsL1Jvb3QuY3JsMA4GA1UdDwEB/wQEAwIBBjASBgNVHRMBAf8ECDAGAQH/
AgEAMA0GCSqGSIb3DQEBCwUAA4IBAQA88l7601Cqtz5tvZUsBKTtL8/e2oJMUG15
/VlewZdIk50RTukqHdHSsMIKFD1cy3GMakkqOft8gOE42diuUGnp1Ro7sfbfyAin
xSUHxRz8CGXqGmUy1D/w46qF5Dt1pu1oz47srXgY/KU8r1ytfl5LKUqVd9FtPDhR
nvYxAmjRF8jlY6+EXYf7A5OQ3/v+nQxjeQcHugSvovfeBFCV0lyZ7k5ZoBB+kjZt
Ibj4y6pQECaJz2khwmD/1JR4SuyN5ofM0kMrlCnK20ViXYfzUE2t1YjP/dvR67EZ
xOyktXnxElehIQomfwSLptyI/qzjWR10bDtq48hOg5aH55pDtEPq
-----END CERTIFICATE-----

Certificate:
    Data:
        Version: 3 (0x2)
        Serial Number:
            38:35:95:e6:ac:68:24:65:1f:52:3f:6e:18:3b:86:7c:da:73:de:2f
        Signature Algorithm: sha256WithRSAEncryption
        Issuer: CN=Root
        Validity
            Not Before: Nov  3 12:00:00 2020 GMT
            Not After : Nov  3 12:00:00 2021 GMT
        Subject: CN=Root
        Subject Public Key Info:
            Public Key Algorithm: rsaEncryption
                RSA Public-Key: (2048 bit)
                Modulus:
                    00:de:61:1e:7e:20:61:c0:eb:1c:13:ee:75:3c:36:
                    f0:5d:4b:ef:d2:83:20:1b:d5:bb:6e:70:cf:2f:4a:
                    4e:13:b1:a7:66:9c:19:fe:7f:5c:69:85:0a:64:3e:
                    05:4e:a3:71:bf:70:70:9a:dd:45:18:14:9b:b6:40:
                    39:75:24:67:c3:bf:18:60:be:c9:b4:07:a9:81:f7:
                    1b:d9:4c:96:66:eb:dc:ef:7b:fd:c5:27:68:fd:9b:
                    94:7e:52:ac:ac:4e:65:60:7b:12:d4:6a:de:0f:81:
                    cc:3c:cd:cf:39:f5:f5:28:9f:e1:ee:65:02:66:f8:
                    0d:df:b0:20:45:03:13:16:d2:c7:f2:f7:c9:c7:c9:
                    0d:03:d0:ec:5c:79:a4:54:99:e5:62:52:6c:aa:83:
                    df:42:d5:f7:83:29:ce:90:32:06:71:80:78:e1:fb:
                    a6:d4:25:02:c5:b1:bd:43:68:fa:8d:c6:cc:10:18:
                    02:58:3d:32:df:65:a8:47:75:cb:88:0e:fa:0e:33:
                    60:bd:d1:fe:0c:e4:29:60:f3:28:fb:91:45:f3:ba:
                    b7:fc:ec:63:ba:b9:2d:4e:fc:95:8e:3d:fb:9d:87:
                    dd:0b:5c:ff:a8:75:3d:66:2c:cd:ec:4a:fd:c8:24:
                    4b:0f:a9:0d:aa:81:69:56:00:c4:ef:97:e1:7d:38:
                    6f:b5
                Exponent: 65537 (0x10001)
        X509v3 extensions:
            X509v3 Subject Key Identifier: 
                A0:D4:A1:BC:4B:2D:3E:83:D7:0D:0C:E2:BE:E6:3A:C5:40:4D:4E:DC
            X509v3 Authority Key Identifier: 
                keyid:A0:D4:A1:BC:4B:2D:3E:83:D7:0D:0C:E2:BE:E6:3A:C5:40:4D:4E:DC

            Authority Information Access: 
                CA Issuers - URI:http://url-for-aia/Root.cer

            X509v3 CRL Distribution Points: 

                Full Name:
                  URI:http://url-for-crl/Root.crl

            X509v3 Key Usage: critical
                Certificate Sign, CRL Sign
            X509v3 Basic Constraints: critical
                CA:TRUE
    Signature Algorithm: sha256WithRSAEncryption
         ab:35:c1:7d:97:a5:3a:e1:61:d8:1b:40:f5:53:ae:f8:c1:c5:
         e4:41:b7:80:c4:18:fa:7c:0c:9f:ae:5c:a4:1b:c0:86:8c:52:
         02:1d:89:df:1a:d2:c5:df:a6:a2:1e:dc:96:45:5e:75:fd:80:
         84:7d:7c:b6:1d:93:4f:13:91:48:ce:2a:84:27:0f:27:3d:8a:
         fd:63:a5:0a:64:dc:ba:34:bb:97:4e:7d:f4:f4:03:61:fd:7d:
         03:1a:ef:90:1a:0b:f7:e5:ff:04:af:21:34:1a:96:80:82:ac:
         93:8d:1a:2d:34:38:8b:5e:01:51:0e:e4:7b:cb:2f:86:56:84:
         1e:6b:9b:63:f4:85:8b:2e:fd:5a:d6:4e:c7:56:32:58:b1:ea:
         d5:1c:29:58:5d:a2:36:01:87:74:d4:09:c5:e7:45:81:fd:f5:
         99:1d:66:00:b4:37:6e:17:b4:c7:d7:23:f4:72:76:57:88:11:
         22:7e:84:a6:77:37:66:ee:64:6d:a1:a5:9d:8a:51:5e:33:af:
         42:16:b6:77:c4:44:8e:0a:a8:9b:5b:79:26:68:f6:19:b5:be:
         9a:4b:8e:1a:d8:38:05:84:1d:db:c7:67:a4:f9:ab:f5:d3:07:
         2d:dd:c5:ec:2d:04:0c:3d:8c:d8:02:d8:84:eb:6b:50:a4:58:
         b5:f6:cd:12
-----BEGIN CERTIFICATE-----
MIIDeDCCAmCgAwIBAgIUODWV5qxoJGUfUj9uGDuGfNpz3i8wDQYJKoZIhvcNAQEL
BQAwDzENMAsGA1UEAwwEUm9vdDAeFw0yMDExMDMxMjAwMDBaFw0yMTExMDMxMjAw
MDBaMA8xDTALBgNVBAMMBFJvb3QwggEiMA0GCSqGSIb3DQEBAQUAA4IBDwAwggEK
AoIBAQDeYR5+IGHA6xwT7nU8NvBdS+/SgyAb1btucM8vSk4TsadmnBn+f1xphQpk
PgVOo3G/cHCa3UUYFJu2QDl1JGfDvxhgvsm0B6mB9xvZTJZm69zve/3FJ2j9m5R+
UqysTmVgexLUat4Pgcw8zc859fUon+HuZQJm+A3fsCBFAxMW0sfy98nHyQ0D0Oxc
eaRUmeViUmyqg99C1feDKc6QMgZxgHjh+6bUJQLFsb1DaPqNxswQGAJYPTLfZahH
dcuIDvoOM2C90f4M5Clg8yj7kUXzurf87GO6uS1O/JWOPfudh90LXP+odT1mLM3s
Sv3IJEsPqQ2qgWlWAMTvl+F9OG+1AgMBAAGjgcswgcgwHQYDVR0OBBYEFKDUobxL
LT6D1w0M4r7mOsVATU7cMB8GA1UdIwQYMBaAFKDUobxLLT6D1w0M4r7mOsVATU7c
MDcGCCsGAQUFBwEBBCswKTAnBggrBgEFBQcwAoYbaHR0cDovL3VybC1mb3ItYWlh
L1Jvb3QuY2VyMCwGA1UdHwQlMCMwIaAfoB2GG2h0dHA6Ly91cmwtZm9yLWNybC9S
b290LmNybDAOBgNVHQ8BAf8EBAMCAQYwDwYDVR0TAQH/BAUwAwEB/zANBgkqhkiG
9w0BAQsFAAOCAQEAqzXBfZelOuFh2BtA9VOu+MHF5EG3gMQY+nwMn65cpBvAhoxS
Ah2J3xrSxd+moh7clkVedf2AhH18th2TTxORSM4qhCcPJz2K/WOlCmTcujS7l059
9PQDYf19AxrvkBoL9+X/BK8hNBqWgIKsk40aLTQ4i14BUQ7ke8svhlaEHmubY/SF
iy79WtZOx1YyWLHq1RwpWF2iNgGHdNQJxedFgf31mR1mALQ3bhe0x9cj9HJ2V4gR
In6Epnc3Zu5kbaGlnYpRXjOvQha2d8REjgqom1t5Jmj2GbW+mkuOGtg4BYQd28dn
pPmr9dMHLd3F7C0EDD2M2ALYhOtrUKRYtfbNEg==
-----END CERTIFICATE-----
