[Created by: generate-chains.py]

Certificate chain where the intermediate sets pathlen=0, and is followed by
a self-issued intermediate.

Certificate:
    Data:
        Version: 3 (0x2)
        Serial Number:
            57:c3:57:03:79:49:32:ce:56:f8:86:e8:81:fd:69:ad:fa:5f:fe:8d
        Signature Algorithm: sha256WithRSAEncryption
        Issuer: CN=Intermediate
        Validity
            Not Before: Oct  5 12:00:00 2022 GMT
            Not After : Oct  5 12:00:00 2023 GMT
        Subject: CN=Target
        Subject Public Key Info:
            Public Key Algorithm: rsaEncryption
                Public-Key: (2048 bit)
                Modulus:
                    00:be:6c:86:21:26:6b:16:22:36:2b:5b:b1:d4:52:
                    28:74:2d:76:f3:1b:3b:01:17:dd:e1:18:e3:02:06:
                    a7:88:93:ad:32:59:53:ff:5d:c5:cd:1a:78:70:fb:
                    2e:d9:ba:f9:fa:75:53:fc:02:a8:3c:9b:e0:f4:50:
                    00:4f:30:0b:b3:d6:04:6a:b6:ef:85:0b:42:35:29:
                    77:fa:91:16:0e:ed:34:8a:f3:d2:5e:e9:66:66:57:
                    9b:6f:71:30:16:88:18:7a:f3:fc:61:79:06:d5:e8:
                    b9:18:d6:b9:20:bf:b9:9a:dd:c5:de:64:7d:44:fd:
                    3f:2a:a0:23:31:4d:a7:4c:42:65:ad:9b:38:b6:35:
                    51:f7:4a:58:84:b3:92:cb:98:36:a3:92:0c:33:85:
                    64:18:f2:06:c4:11:a6:12:a9:7c:da:ea:36:59:90:
                    9c:87:a4:60:39:9d:29:e3:21:91:c4:ae:9a:f9:f2:
                    ec:ad:f8:44:55:5c:3a:21:52:81:58:a1:e0:3a:5b:
                    9e:2d:61:62:7f:51:58:44:87:80:41:00:e9:6c:ed:
                    a7:ff:a0:7c:b4:17:33:7c:78:54:ca:92:81:d1:56:
                    75:b1:3a:b7:27:6a:77:e8:0c:30:71:bd:db:b1:06:
                    19:e9:d6:99:d6:41:d2:c6:90:3d:72:31:fc:e7:03:
                    38:35
                Exponent: 65537 (0x10001)
        X509v3 extensions:
            X509v3 Subject Key Identifier: 
                BF:95:3A:85:28:C1:82:8F:C9:0C:81:29:EA:8A:F8:1E:73:80:F8:7F
            X509v3 Authority Key Identifier: 
                0C:50:93:FA:6E:53:C4:76:18:87:E2:39:87:0B:AA:8E:31:01:3D:69
            Authority Information Access: 
                CA Issuers - URI:http://url-for-aia/Intermediate.cer
            X509v3 CRL Distribution Points: 
                Full Name:
                  URI:http://url-for-crl/Intermediate.crl
            X509v3 Key Usage: critical
                Digital Signature, Key Encipherment
            X509v3 Extended Key Usage: 
                TLS Web Server Authentication, TLS Web Client Authentication
    Signature Algorithm: sha256WithRSAEncryption
    Signature Value:
        a3:b1:62:67:79:b8:b3:5f:87:a7:2a:37:98:9e:64:d3:0a:72:
        d6:7f:b2:ae:38:a0:11:3e:45:3c:9b:0b:ab:f1:b7:f8:0b:07:
        ce:ff:58:6b:75:48:5b:a8:f1:b7:e6:d5:d6:10:18:59:c0:af:
        90:6d:22:b0:d6:7d:9c:d7:b2:38:93:e0:57:7c:5d:95:52:12:
        e2:61:b8:f2:0f:0c:05:28:59:94:d3:bd:15:c3:dc:41:1b:e7:
        f0:b1:b1:c0:cf:a0:1b:04:73:54:87:ac:fd:87:33:9b:90:34:
        2a:d9:22:8c:3c:a6:e7:cc:c4:90:c3:8f:27:97:45:5f:7c:4e:
        3c:ea:b5:e9:f8:bc:fa:89:12:36:f2:bd:14:62:ee:1f:06:d5:
        f3:b2:08:c8:d2:fd:d4:5d:62:2b:99:dc:61:6d:b5:91:e5:64:
        de:7d:b0:d5:40:74:8c:45:ef:14:43:06:27:b9:c5:50:c4:ef:
        82:27:df:27:f7:fd:14:9a:e6:f6:0c:2a:15:c4:4b:45:2b:79:
        05:a4:05:3b:a8:bf:4e:ca:19:0d:a3:4c:fa:b0:a0:c6:bb:c1:
        c7:9f:f0:0f:2d:d6:cf:ed:4d:dc:20:54:fe:69:68:40:83:c9:
        d3:5a:6b:c5:0c:a1:df:2f:2e:85:a6:4f:65:d9:4f:a4:69:dd:
        a4:35:cf:49
-----BEGIN CERTIFICATE-----
MIIDoDCCAoigAwIBAgIUV8NXA3lJMs5W+Ibogf1prfpf/o0wDQYJKoZIhvcNAQEL
BQAwFzEVMBMGA1UEAwwMSW50ZXJtZWRpYXRlMB4XDTIyMTAwNTEyMDAwMFoXDTIz
MTAwNTEyMDAwMFowETEPMA0GA1UEAwwGVGFyZ2V0MIIBIjANBgkqhkiG9w0BAQEF
AAOCAQ8AMIIBCgKCAQEAvmyGISZrFiI2K1ux1FIodC128xs7ARfd4RjjAganiJOt
MllT/13FzRp4cPsu2br5+nVT/AKoPJvg9FAATzALs9YEarbvhQtCNSl3+pEWDu00
ivPSXulmZlebb3EwFogYevP8YXkG1ei5GNa5IL+5mt3F3mR9RP0/KqAjMU2nTEJl
rZs4tjVR90pYhLOSy5g2o5IMM4VkGPIGxBGmEql82uo2WZCch6RgOZ0p4yGRxK6a
+fLsrfhEVVw6IVKBWKHgOlueLWFif1FYRIeAQQDpbO2n/6B8tBczfHhUypKB0VZ1
sTq3J2p36Awwcb3bsQYZ6daZ1kHSxpA9cjH85wM4NQIDAQABo4HpMIHmMB0GA1Ud
DgQWBBS/lTqFKMGCj8kMgSnqivgec4D4fzAfBgNVHSMEGDAWgBQMUJP6blPEdhiH
4jmHC6qOMQE9aTA/BggrBgEFBQcBAQQzMDEwLwYIKwYBBQUHMAKGI2h0dHA6Ly91
cmwtZm9yLWFpYS9JbnRlcm1lZGlhdGUuY2VyMDQGA1UdHwQtMCswKaAnoCWGI2h0
dHA6Ly91cmwtZm9yLWNybC9JbnRlcm1lZGlhdGUuY3JsMA4GA1UdDwEB/wQEAwIF
oDAdBgNVHSUEFjAUBggrBgEFBQcDAQYIKwYBBQUHAwIwDQYJKoZIhvcNAQELBQAD
ggEBAKOxYmd5uLNfh6cqN5ieZNMKctZ/sq44oBE+RTybC6vxt/gLB87/WGt1SFuo
8bfm1dYQGFnAr5BtIrDWfZzXsjiT4Fd8XZVSEuJhuPIPDAUoWZTTvRXD3EEb5/Cx
scDPoBsEc1SHrP2HM5uQNCrZIow8pufMxJDDjyeXRV98Tjzqten4vPqJEjbyvRRi
7h8G1fOyCMjS/dRdYiuZ3GFttZHlZN59sNVAdIxF7xRDBie5xVDE74In3yf3/RSa
5vYMKhXES0UreQWkBTuov07KGQ2jTPqwoMa7wcef8A8t1s/tTdwgVP5paECDydNa
a8UMod8vLoWmT2XZT6Rp3aQ1z0k=
-----END CERTIFICATE-----

Certificate:
    Data:
        Version: 3 (0x2)
        Serial Number:
            57:c3:57:03:79:49:32:ce:56:f8:86:e8:81:fd:69:ad:fa:5f:fe:8c
        Signature Algorithm: sha256WithRSAEncryption
        Issuer: CN=Intermediate
        Validity
            Not Before: Oct  5 12:00:00 2022 GMT
            Not After : Oct  5 12:00:00 2023 GMT
        Subject: CN=Intermediate
        Subject Public Key Info:
            Public Key Algorithm: rsaEncryption
                Public-Key: (2048 bit)
                Modulus:
                    00:bb:cd:84:14:6c:0b:68:76:9e:7d:d5:f7:55:ac:
                    5a:2b:6d:71:ad:aa:34:2a:dc:b4:b0:c2:37:23:5b:
                    05:01:08:b6:9b:fb:97:ce:3c:eb:fe:2f:b2:5e:6b:
                    07:bb:5f:29:fb:b1:25:55:5c:dd:9f:de:89:bd:29:
                    37:e8:a7:8a:99:c3:50:82:32:10:bb:2d:19:bc:a8:
                    47:21:3d:0a:66:b6:8d:ab:42:3a:94:50:7f:c3:19:
                    7f:ea:28:89:c2:9d:a8:87:d5:1b:42:63:9a:9f:9e:
                    06:72:41:ee:64:ee:ac:1e:21:f6:3e:3d:e5:f6:d1:
                    04:dd:7e:61:cb:e5:65:99:c1:49:97:13:c4:11:96:
                    3b:62:f0:46:ad:20:5d:52:5c:16:d6:59:29:e2:9e:
                    91:15:f1:23:0d:fb:3c:86:90:50:05:2d:63:81:cc:
                    39:25:62:cc:00:18:b4:0e:1a:a0:d8:ca:4b:e0:b6:
                    ea:33:83:8a:2e:ab:6c:6f:41:9e:ec:43:92:d1:83:
                    b6:d0:45:e7:a8:8d:28:6b:a4:b5:f7:53:8b:8a:dc:
                    3e:b0:df:9f:d4:70:4e:c2:2c:1a:a5:4d:6c:5d:2e:
                    94:35:84:b9:5d:e9:df:22:fd:55:6e:05:ff:eb:b6:
                    10:0c:28:a3:5b:49:c1:98:63:8f:5d:fa:83:4e:11:
                    cd:13
                Exponent: 65537 (0x10001)
        X509v3 extensions:
            X509v3 Subject Key Identifier: 
                0C:50:93:FA:6E:53:C4:76:18:87:E2:39:87:0B:AA:8E:31:01:3D:69
            X509v3 Authority Key Identifier: 
                4E:47:5F:93:57:FE:5F:F3:92:73:A6:6A:55:7C:1A:FB:F9:16:85:36
            Authority Information Access: 
                CA Issuers - URI:http://url-for-aia/Intermediate.cer
            X509v3 CRL Distribution Points: 
                Full Name:
                  URI:http://url-for-crl/Intermediate.crl
            X509v3 Key Usage: critical
                Certificate Sign, CRL Sign
            X509v3 Basic Constraints: critical
                CA:TRUE, pathlen:0
    Signature Algorithm: sha256WithRSAEncryption
    Signature Value:
        72:d3:f9:d5:0a:b8:5a:cb:5c:00:4e:8b:2b:1d:aa:9d:5e:a8:
        b3:46:15:34:82:0b:99:4f:0c:93:91:77:87:21:2b:6f:91:4d:
        2c:33:a0:49:65:c1:98:09:00:f6:60:bc:a7:b4:e7:bb:aa:27:
        b9:a6:24:c4:c6:a0:d2:d0:a3:79:e0:14:b1:9a:15:26:36:66:
        03:26:0f:63:47:e5:3f:35:3d:7e:fb:68:6b:08:5c:00:4a:b6:
        3e:f1:5d:68:bc:a1:d8:cd:5a:3a:16:3b:78:80:c1:8e:1d:e1:
        2c:54:8b:20:9b:2f:ee:c2:9b:12:9a:b8:93:a2:cd:2c:d9:22:
        a4:f1:29:a1:bc:62:62:1b:61:50:a8:17:57:71:17:34:6c:5e:
        9c:83:86:96:b7:75:f5:5b:26:33:5b:bc:5f:5f:96:0e:cd:4a:
        0f:80:8d:9e:69:b7:8e:05:f5:44:f7:e7:1c:01:fb:09:79:98:
        58:02:ec:00:96:f3:a9:8b:c3:3b:43:41:f8:ae:f5:6a:c0:93:
        39:94:73:df:1e:d5:d7:4d:d6:6a:f7:f8:32:bd:ff:ea:59:ea:
        21:ae:b9:3d:cb:a9:f4:3b:7b:a5:10:0e:e4:1c:8c:c5:51:d6:
        b4:aa:55:dd:16:c2:c6:24:e7:68:14:e8:cd:8c:7b:4a:3d:66:
        71:4d:de:71
-----BEGIN CERTIFICATE-----
MIIDmzCCAoOgAwIBAgIUV8NXA3lJMs5W+Ibogf1prfpf/owwDQYJKoZIhvcNAQEL
BQAwFzEVMBMGA1UEAwwMSW50ZXJtZWRpYXRlMB4XDTIyMTAwNTEyMDAwMFoXDTIz
MTAwNTEyMDAwMFowFzEVMBMGA1UEAwwMSW50ZXJtZWRpYXRlMIIBIjANBgkqhkiG
9w0BAQEFAAOCAQ8AMIIBCgKCAQEAu82EFGwLaHaefdX3VaxaK21xrao0Kty0sMI3
I1sFAQi2m/uXzjzr/i+yXmsHu18p+7ElVVzdn96JvSk36KeKmcNQgjIQuy0ZvKhH
IT0KZraNq0I6lFB/wxl/6iiJwp2oh9UbQmOan54GckHuZO6sHiH2Pj3l9tEE3X5h
y+VlmcFJlxPEEZY7YvBGrSBdUlwW1lkp4p6RFfEjDfs8hpBQBS1jgcw5JWLMABi0
Dhqg2MpL4LbqM4OKLqtsb0Ge7EOS0YO20EXnqI0oa6S191OLitw+sN+f1HBOwiwa
pU1sXS6UNYS5XenfIv1VbgX/67YQDCijW0nBmGOPXfqDThHNEwIDAQABo4HeMIHb
MB0GA1UdDgQWBBQMUJP6blPEdhiH4jmHC6qOMQE9aTAfBgNVHSMEGDAWgBROR1+T
V/5f85JzpmpVfBr7+RaFNjA/BggrBgEFBQcBAQQzMDEwLwYIKwYBBQUHMAKGI2h0
dHA6Ly91cmwtZm9yLWFpYS9JbnRlcm1lZGlhdGUuY2VyMDQGA1UdHwQtMCswKaAn
oCWGI2h0dHA6Ly91cmwtZm9yLWNybC9JbnRlcm1lZGlhdGUuY3JsMA4GA1UdDwEB
/wQEAwIBBjASBgNVHRMBAf8ECDAGAQH/AgEAMA0GCSqGSIb3DQEBCwUAA4IBAQBy
0/nVCrhay1wATosrHaqdXqizRhU0gguZTwyTkXeHIStvkU0sM6BJZcGYCQD2YLyn
tOe7qie5piTExqDS0KN54BSxmhUmNmYDJg9jR+U/NT1++2hrCFwASrY+8V1ovKHY
zVo6Fjt4gMGOHeEsVIsgmy/uwpsSmriTos0s2SKk8SmhvGJiG2FQqBdXcRc0bF6c
g4aWt3X1WyYzW7xfX5YOzUoPgI2eabeOBfVE9+ccAfsJeZhYAuwAlvOpi8M7Q0H4
rvVqwJM5lHPfHtXXTdZq9/gyvf/qWeohrrk9y6n0O3ulEA7kHIzFUda0qlXdFsLG
JOdoFOjNjHtKPWZxTd5x
-----END CERTIFICATE-----

Certificate:
    Data:
        Version: 3 (0x2)
        Serial Number:
            38:35:95:e6:ac:68:24:65:1f:52:3f:6e:18:3b:86:7c:da:73:de:30
        Signature Algorithm: sha256WithRSAEncryption
        Issuer: CN=Root
        Validity
            Not Before: Oct  5 12:00:00 2022 GMT
            Not After : Oct  5 12:00:00 2023 GMT
        Subject: CN=Intermediate
        Subject Public Key Info:
            Public Key Algorithm: rsaEncryption
                Public-Key: (2048 bit)
                Modulus:
                    00:cf:6c:3c:e9:bb:09:74:83:4d:d6:c8:58:96:d9:
                    3b:ee:6d:f2:fd:9e:11:e5:80:e5:35:50:51:70:0d:
                    95:a9:f9:0e:96:df:33:db:94:6f:a3:7d:2a:80:d2:
                    a4:3b:fa:34:e0:bd:44:e5:07:a6:09:02:40:3b:6f:
                    11:a7:54:88:0f:22:09:58:27:97:4a:7f:55:e3:03:
                    5c:c2:13:fb:62:4b:0b:b0:fb:5b:20:c1:57:fc:a4:
                    32:4d:97:71:f7:5c:f1:63:6c:21:7b:a8:6e:ce:9f:
                    e5:50:66:40:b1:e9:23:df:52:b4:b6:de:aa:99:75:
                    f0:d2:ec:26:60:37:89:c9:a2:dc:b0:f5:33:e9:0e:
                    0f:0e:bd:f3:72:65:1e:4f:9c:c6:1b:32:34:98:de:
                    04:c0:dd:28:24:ec:f7:dc:e5:54:7a:a5:1a:b0:1a:
                    31:96:d3:43:f0:df:4b:52:41:9c:8e:34:22:50:fc:
                    44:bb:a5:fb:c0:c5:59:8a:bb:32:42:29:fc:73:cb:
                    a1:85:54:7f:5a:db:bd:ec:0d:99:76:c0:c5:72:9f:
                    0d:28:e9:ca:65:9f:a1:69:b6:07:20:01:64:c7:03:
                    0f:ff:ab:a1:f1:df:5b:a4:da:7e:e5:79:68:19:a2:
                    63:e0:87:37:05:5d:f7:88:5d:11:c6:1d:d8:18:0a:
                    0c:23
                Exponent: 65537 (0x10001)
        X509v3 extensions:
            X509v3 Subject Key Identifier: 
                4E:47:5F:93:57:FE:5F:F3:92:73:A6:6A:55:7C:1A:FB:F9:16:85:36
            X509v3 Authority Key Identifier: 
                A0:D4:A1:BC:4B:2D:3E:83:D7:0D:0C:E2:BE:E6:3A:C5:40:4D:4E:DC
            Authority Information Access: 
                CA Issuers - URI:http://url-for-aia/Root.cer
            X509v3 CRL Distribution Points: 
                Full Name:
                  URI:http://url-for-crl/Root.crl
            X509v3 Key Usage: critical
                Certificate Sign, CRL Sign
            X509v3 Basic Constraints: critical
                CA:TRUE, pathlen:0
    Signature Algorithm: sha256WithRSAEncryption
    Signature Value:
        52:94:34:70:5c:99:b3:4f:85:ff:3c:2f:9b:a2:93:1b:1d:cc:
        50:0f:76:c8:24:a8:57:62:18:32:8e:44:92:ee:02:86:25:50:
        d1:43:5c:cf:1e:86:a1:a5:2b:0c:50:35:6c:8b:2f:f7:12:81:
        30:80:79:50:20:ad:72:50:e9:0f:ef:e2:79:92:4f:74:c0:1c:
        79:ff:63:df:f8:ca:b6:f6:6d:28:bb:0f:ca:66:16:bf:18:af:
        c1:c3:e0:1f:ed:01:a1:1b:af:6a:43:c3:0d:ec:6b:fe:8a:7a:
        50:dd:2c:9b:aa:74:79:52:90:1f:ce:ed:0a:b0:4e:3d:aa:fd:
        48:01:45:23:35:d1:0d:a9:f3:e7:09:89:79:dd:ab:26:91:8c:
        06:9b:32:6b:d2:e6:60:0e:84:5d:49:7e:65:bd:d7:ae:9a:8b:
        09:d5:71:f5:19:44:93:9a:ec:9e:94:50:73:9a:a3:b8:ae:ca:
        83:07:03:e7:b3:f7:83:5f:17:65:dd:f4:96:67:aa:2d:46:c4:
        4f:18:70:92:95:8d:a2:b8:2e:5c:23:3d:8d:cf:4e:f0:52:04:
        3f:41:ff:8a:16:10:72:e1:ee:8a:42:d3:d3:f9:5c:03:39:2e:
        f9:9a:64:bf:76:85:5a:8e:f2:14:42:9f:71:3e:24:3d:76:9b:
        b0:f9:f0:8f
-----BEGIN CERTIFICATE-----
MIIDgzCCAmugAwIBAgIUODWV5qxoJGUfUj9uGDuGfNpz3jAwDQYJKoZIhvcNAQEL
BQAwDzENMAsGA1UEAwwEUm9vdDAeFw0yMjEwMDUxMjAwMDBaFw0yMzEwMDUxMjAw
MDBaMBcxFTATBgNVBAMMDEludGVybWVkaWF0ZTCCASIwDQYJKoZIhvcNAQEBBQAD
ggEPADCCAQoCggEBAM9sPOm7CXSDTdbIWJbZO+5t8v2eEeWA5TVQUXANlan5Dpbf
M9uUb6N9KoDSpDv6NOC9ROUHpgkCQDtvEadUiA8iCVgnl0p/VeMDXMIT+2JLC7D7
WyDBV/ykMk2Xcfdc8WNsIXuobs6f5VBmQLHpI99StLbeqpl18NLsJmA3icmi3LD1
M+kODw6983JlHk+cxhsyNJjeBMDdKCTs99zlVHqlGrAaMZbTQ/DfS1JBnI40IlD8
RLul+8DFWYq7MkIp/HPLoYVUf1rbvewNmXbAxXKfDSjpymWfoWm2ByABZMcDD/+r
ofHfW6TafuV5aBmiY+CHNwVd94hdEcYd2BgKDCMCAwEAAaOBzjCByzAdBgNVHQ4E
FgQUTkdfk1f+X/OSc6ZqVXwa+/kWhTYwHwYDVR0jBBgwFoAUoNShvEstPoPXDQzi
vuY6xUBNTtwwNwYIKwYBBQUHAQEEKzApMCcGCCsGAQUFBzAChhtodHRwOi8vdXJs
LWZvci1haWEvUm9vdC5jZXIwLAYDVR0fBCUwIzAhoB+gHYYbaHR0cDovL3VybC1m
b3ItY3JsL1Jvb3QuY3JsMA4GA1UdDwEB/wQEAwIBBjASBgNVHRMBAf8ECDAGAQH/
AgEAMA0GCSqGSIb3DQEBCwUAA4IBAQBSlDRwXJmzT4X/PC+bopMbHcxQD3bIJKhX
YhgyjkSS7gKGJVDRQ1zPHoahpSsMUDVsiy/3EoEwgHlQIK1yUOkP7+J5kk90wBx5
/2Pf+Mq29m0ouw/KZha/GK/Bw+Af7QGhG69qQ8MN7Gv+inpQ3SybqnR5UpAfzu0K
sE49qv1IAUUjNdENqfPnCYl53asmkYwGmzJr0uZgDoRdSX5lvdeumosJ1XH1GUST
muyelFBzmqO4rsqDBwPns/eDXxdl3fSWZ6otRsRPGHCSlY2iuC5cIz2Nz07wUgQ/
Qf+KFhBy4e6KQtPT+VwDOS75mmS/doVajvIUQp9xPiQ9dpuw+fCP
-----END CERTIFICATE-----

Certificate:
    Data:
        Version: 3 (0x2)
        Serial Number:
            38:35:95:e6:ac:68:24:65:1f:52:3f:6e:18:3b:86:7c:da:73:de:2f
        Signature Algorithm: sha256WithRSAEncryption
        Issuer: CN=Root
        Validity
            Not Before: Oct  5 12:00:00 2022 GMT
            Not After : Oct  5 12:00:00 2023 GMT
        Subject: CN=Root
        Subject Public Key Info:
            Public Key Algorithm: rsaEncryption
                Public-Key: (2048 bit)
                Modulus:
                    00:de:61:1e:7e:20:61:c0:eb:1c:13:ee:75:3c:36:
                    f0:5d:4b:ef:d2:83:20:1b:d5:bb:6e:70:cf:2f:4a:
                    4e:13:b1:a7:66:9c:19:fe:7f:5c:69:85:0a:64:3e:
                    05:4e:a3:71:bf:70:70:9a:dd:45:18:14:9b:b6:40:
                    39:75:24:67:c3:bf:18:60:be:c9:b4:07:a9:81:f7:
                    1b:d9:4c:96:66:eb:dc:ef:7b:fd:c5:27:68:fd:9b:
                    94:7e:52:ac:ac:4e:65:60:7b:12:d4:6a:de:0f:81:
                    cc:3c:cd:cf:39:f5:f5:28:9f:e1:ee:65:02:66:f8:
                    0d:df:b0:20:45:03:13:16:d2:c7:f2:f7:c9:c7:c9:
                    0d:03:d0:ec:5c:79:a4:54:99:e5:62:52:6c:aa:83:
                    df:42:d5:f7:83:29:ce:90:32:06:71:80:78:e1:fb:
                    a6:d4:25:02:c5:b1:bd:43:68:fa:8d:c6:cc:10:18:
                    02:58:3d:32:df:65:a8:47:75:cb:88:0e:fa:0e:33:
                    60:bd:d1:fe:0c:e4:29:60:f3:28:fb:91:45:f3:ba:
                    b7:fc:ec:63:ba:b9:2d:4e:fc:95:8e:3d:fb:9d:87:
                    dd:0b:5c:ff:a8:75:3d:66:2c:cd:ec:4a:fd:c8:24:
                    4b:0f:a9:0d:aa:81:69:56:00:c4:ef:97:e1:7d:38:
                    6f:b5
                Exponent: 65537 (0x10001)
        X509v3 extensions:
            X509v3 Subject Key Identifier: 
                A0:D4:A1:BC:4B:2D:3E:83:D7:0D:0C:E2:BE:E6:3A:C5:40:4D:4E:DC
            X509v3 Authority Key Identifier: 
                A0:D4:A1:BC:4B:2D:3E:83:D7:0D:0C:E2:BE:E6:3A:C5:40:4D:4E:DC
            Authority Information Access: 
                CA Issuers - URI:http://url-for-aia/Root.cer
            X509v3 CRL Distribution Points: 
                Full Name:
                  URI:http://url-for-crl/Root.crl
            X509v3 Key Usage: critical
                Certificate Sign, CRL Sign
            X509v3 Basic Constraints: critical
                CA:TRUE
    Signature Algorithm: sha256WithRSAEncryption
    Signature Value:
        8c:34:c1:1e:89:74:40:ad:84:b7:ba:53:8a:97:73:38:a4:28:
        78:9a:2e:59:23:06:9e:e8:0a:fc:d2:a5:2b:c7:ab:ae:da:e6:
        3b:f5:d5:34:16:33:c1:de:d8:71:44:a2:2f:b0:df:f3:b5:5c:
        d8:43:02:9b:16:8b:be:b9:ba:6e:77:6b:a4:2f:6f:fb:a0:43:
        29:23:a1:2a:ee:41:2b:24:66:a6:4c:5e:6c:3f:9a:95:cc:4d:
        95:3e:07:75:92:14:6c:77:67:6b:54:89:58:f5:bc:0a:56:f1:
        ca:02:07:bc:7b:26:3e:f5:1e:7e:f4:8e:01:cc:86:8a:3a:21:
        71:98:51:5e:16:5b:af:e5:d5:6f:15:f3:60:7c:e0:b5:69:7c:
        ef:7e:c7:54:c2:d0:53:f6:bf:19:ef:97:41:9c:d5:77:58:c2:
        40:12:89:97:25:bf:79:5a:cf:9d:00:63:5b:f4:78:c0:f4:8d:
        1f:81:17:78:3e:57:38:88:13:0a:f0:ea:7f:7d:c1:fc:9b:3e:
        de:36:ca:79:77:44:78:e2:9e:fd:7a:bf:06:38:31:33:bf:5c:
        37:83:c5:63:2e:df:ee:8f:e0:66:c3:aa:b6:21:5f:99:2f:28:
        72:fb:61:85:15:08:53:1a:30:f9:e3:16:03:7a:9d:87:39:f7:
        de:7e:15:b7
-----BEGIN CERTIFICATE-----
MIIDeDCCAmCgAwIBAgIUODWV5qxoJGUfUj9uGDuGfNpz3i8wDQYJKoZIhvcNAQEL
BQAwDzENMAsGA1UEAwwEUm9vdDAeFw0yMjEwMDUxMjAwMDBaFw0yMzEwMDUxMjAw
MDBaMA8xDTALBgNVBAMMBFJvb3QwggEiMA0GCSqGSIb3DQEBAQUAA4IBDwAwggEK
AoIBAQDeYR5+IGHA6xwT7nU8NvBdS+/SgyAb1btucM8vSk4TsadmnBn+f1xphQpk
PgVOo3G/cHCa3UUYFJu2QDl1JGfDvxhgvsm0B6mB9xvZTJZm69zve/3FJ2j9m5R+
UqysTmVgexLUat4Pgcw8zc859fUon+HuZQJm+A3fsCBFAxMW0sfy98nHyQ0D0Oxc
eaRUmeViUmyqg99C1feDKc6QMgZxgHjh+6bUJQLFsb1DaPqNxswQGAJYPTLfZahH
dcuIDvoOM2C90f4M5Clg8yj7kUXzurf87GO6uS1O/JWOPfudh90LXP+odT1mLM3s
Sv3IJEsPqQ2qgWlWAMTvl+F9OG+1AgMBAAGjgcswgcgwHQYDVR0OBBYEFKDUobxL
LT6D1w0M4r7mOsVATU7cMB8GA1UdIwQYMBaAFKDUobxLLT6D1w0M4r7mOsVATU7c
MDcGCCsGAQUFBwEBBCswKTAnBggrBgEFBQcwAoYbaHR0cDovL3VybC1mb3ItYWlh
L1Jvb3QuY2VyMCwGA1UdHwQlMCMwIaAfoB2GG2h0dHA6Ly91cmwtZm9yLWNybC9S
b290LmNybDAOBgNVHQ8BAf8EBAMCAQYwDwYDVR0TAQH/BAUwAwEB/zANBgkqhkiG
9w0BAQsFAAOCAQEAjDTBHol0QK2Et7pTipdzOKQoeJouWSMGnugK/NKlK8errtrm
O/XVNBYzwd7YcUSiL7Df87Vc2EMCmxaLvrm6bndrpC9v+6BDKSOhKu5BKyRmpkxe
bD+alcxNlT4HdZIUbHdna1SJWPW8ClbxygIHvHsmPvUefvSOAcyGijohcZhRXhZb
r+XVbxXzYHzgtWl8737HVMLQU/a/Ge+XQZzVd1jCQBKJlyW/eVrPnQBjW/R4wPSN
H4EXeD5XOIgTCvDqf33B/Js+3jbKeXdEeOKe/Xq/BjgxM79cN4PFYy7f7o/gZsOq
tiFfmS8ocvthhRUIUxow+eMWA3qdhzn33n4Vtw==
-----END CERTIFICATE-----
