[Created by: generate-chains.py]

Certificate chain where the intermediate used MD5 to sign the target
certificate.

Certificate:
    Data:
        Version: 3 (0x2)
        Serial Number:
            2f:d9:89:cf:ff:cd:53:9f:5d:75:66:a5:53:93:03:4c:a0:64:cf:c3
        Signature Algorithm: md5WithRSAEncryption
        Issuer: CN=Intermediate
        Validity
            Not Before: Oct  5 12:00:00 2022 GMT
            Not After : Oct  5 12:00:00 2023 GMT
        Subject: CN=Target
        Subject Public Key Info:
            Public Key Algorithm: rsaEncryption
                Public-Key: (2048 bit)
                Modulus:
                    00:a7:b8:bc:92:74:b1:bc:8f:5b:d5:3c:81:a6:8f:
                    d2:bf:7e:b8:f6:cd:49:5b:fd:18:ee:07:5c:32:cf:
                    f1:7f:51:06:98:53:91:16:4e:c0:2c:34:16:b8:12:
                    9d:10:5d:72:42:ec:00:e9:6b:4a:fb:17:bf:3a:35:
                    f9:a7:f5:50:df:80:bf:d9:6a:3d:74:93:4b:ce:13:
                    5f:57:3c:a1:60:55:10:e9:32:0f:84:ce:c2:d7:51:
                    be:16:b1:54:3f:86:5b:9e:9c:ec:5e:10:87:10:08:
                    ac:78:ee:da:97:5a:af:52:84:de:8d:2d:e4:91:30:
                    09:a1:e7:2b:8b:8b:b8:70:a0:43:0f:db:15:48:a5:
                    c2:94:af:f9:82:e4:86:57:d3:1c:e8:0c:71:11:06:
                    fe:f5:5e:ad:a6:26:d3:51:0b:f2:f0:5c:99:05:fe:
                    51:a1:d7:4a:e6:7f:f3:54:eb:82:07:f9:3a:83:bb:
                    c4:b5:41:07:df:76:95:9a:ed:04:34:4a:1f:bd:91:
                    19:78:6b:e0:24:4c:cc:ad:21:80:61:20:03:96:1c:
                    e8:d8:ca:e9:bc:ee:5f:93:eb:f8:48:ee:93:01:eb:
                    c3:a4:83:6b:3d:03:0e:fa:a7:aa:22:4d:66:40:8b:
                    ff:e4:9e:39:4f:b1:13:1f:ee:cd:70:21:10:26:96:
                    9b:03
                Exponent: 65537 (0x10001)
        X509v3 extensions:
            X509v3 Subject Key Identifier: 
                BF:EB:3A:84:42:B2:07:20:64:80:5F:29:BC:F8:61:4A:F6:05:54:0D
            X509v3 Authority Key Identifier: 
                EE:50:7B:40:71:90:A0:CE:F2:A3:28:0D:EC:1C:F2:D9:7E:A8:F3:0E
            Authority Information Access: 
                CA Issuers - URI:http://url-for-aia/Intermediate.cer
            X509v3 CRL Distribution Points: 
                Full Name:
                  URI:http://url-for-crl/Intermediate.crl
            X509v3 Key Usage: critical
                Digital Signature, Key Encipherment
            X509v3 Extended Key Usage: 
                TLS Web Server Authentication, TLS Web Client Authentication
    Signature Algorithm: md5WithRSAEncryption
    Signature Value:
        63:98:93:83:ad:df:dd:08:03:93:3c:26:bc:5e:a7:09:a4:35:
        e3:52:9c:6e:53:f7:de:74:81:e2:82:f2:28:76:2a:bb:ab:06:
        85:64:ad:22:6c:f2:cf:2f:46:54:ed:c7:d4:a0:2c:ac:7f:12:
        b1:06:36:88:0b:41:52:1d:70:6f:73:f0:28:ba:9b:5c:80:2c:
        5e:42:1b:17:1e:28:e1:b7:ec:67:96:2e:6f:4d:25:6d:f3:92:
        c6:65:88:2c:7c:e1:30:55:06:40:16:f1:a7:c1:e7:00:99:35:
        88:0a:b9:4f:30:a2:2e:27:0d:db:aa:e8:af:15:80:84:dc:48:
        3e:ec:31:cc:99:fd:de:e8:e2:63:26:91:10:42:66:24:68:c1:
        34:b2:dd:b5:bb:c8:6f:b3:99:38:47:90:f0:24:85:58:02:6d:
        d8:b5:0c:ca:05:c7:da:64:23:2f:cd:02:35:6b:27:56:2b:c5:
        87:e7:ee:9b:6e:08:0b:c1:73:11:ad:33:52:d2:1f:d7:08:39:
        d8:95:7b:92:94:48:9f:08:d4:92:f9:0a:14:ed:ca:b9:dc:05:
        6d:de:bc:cc:06:ce:b7:42:0e:46:6d:95:47:d7:2a:82:01:20:
        d1:95:f7:4d:b7:39:ab:c5:e2:72:b1:bd:ee:fb:fa:bf:df:ea:
        b7:c3:09:ef
-----BEGIN CERTIFICATE-----
MIIDoDCCAoigAwIBAgIUL9mJz//NU59ddWalU5MDTKBkz8MwDQYJKoZIhvcNAQEE
BQAwFzEVMBMGA1UEAwwMSW50ZXJtZWRpYXRlMB4XDTIyMTAwNTEyMDAwMFoXDTIz
MTAwNTEyMDAwMFowETEPMA0GA1UEAwwGVGFyZ2V0MIIBIjANBgkqhkiG9w0BAQEF
AAOCAQ8AMIIBCgKCAQEAp7i8knSxvI9b1TyBpo/Sv3649s1JW/0Y7gdcMs/xf1EG
mFORFk7ALDQWuBKdEF1yQuwA6WtK+xe/OjX5p/VQ34C/2Wo9dJNLzhNfVzyhYFUQ
6TIPhM7C11G+FrFUP4ZbnpzsXhCHEAiseO7al1qvUoTejS3kkTAJoecri4u4cKBD
D9sVSKXClK/5guSGV9Mc6AxxEQb+9V6tpibTUQvy8FyZBf5RoddK5n/zVOuCB/k6
g7vEtUEH33aVmu0ENEofvZEZeGvgJEzMrSGAYSADlhzo2MrpvO5fk+v4SO6TAevD
pINrPQMO+qeqIk1mQIv/5J45T7ETH+7NcCEQJpabAwIDAQABo4HpMIHmMB0GA1Ud
DgQWBBS/6zqEQrIHIGSAXym8+GFK9gVUDTAfBgNVHSMEGDAWgBTuUHtAcZCgzvKj
KA3sHPLZfqjzDjA/BggrBgEFBQcBAQQzMDEwLwYIKwYBBQUHMAKGI2h0dHA6Ly91
cmwtZm9yLWFpYS9JbnRlcm1lZGlhdGUuY2VyMDQGA1UdHwQtMCswKaAnoCWGI2h0
dHA6Ly91cmwtZm9yLWNybC9JbnRlcm1lZGlhdGUuY3JsMA4GA1UdDwEB/wQEAwIF
oDAdBgNVHSUEFjAUBggrBgEFBQcDAQYIKwYBBQUHAwIwDQYJKoZIhvcNAQEEBQAD
ggEBAGOYk4Ot390IA5M8JrxepwmkNeNSnG5T9950geKC8ih2KrurBoVkrSJs8s8v
RlTtx9SgLKx/ErEGNogLQVIdcG9z8Ci6m1yALF5CGxceKOG37GeWLm9NJW3zksZl
iCx84TBVBkAW8afB5wCZNYgKuU8woi4nDduq6K8VgITcSD7sMcyZ/d7o4mMmkRBC
ZiRowTSy3bW7yG+zmThHkPAkhVgCbdi1DMoFx9pkIy/NAjVrJ1YrxYfn7ptuCAvB
cxGtM1LSH9cIOdiVe5KUSJ8I1JL5ChTtyrncBW3evMwGzrdCDkZtlUfXKoIBINGV
9023OavF4nKxve77+r/f6rfDCe8=
-----END CERTIFICATE-----

Certificate:
    Data:
        Version: 3 (0x2)
        Serial Number:
            6e:60:d8:eb:62:e8:49:d5:85:e5:1c:23:ef:72:aa:9e:40:48:b4:9b
        Signature Algorithm: sha256WithRSAEncryption
        Issuer: CN=Root
        Validity
            Not Before: Oct  5 12:00:00 2022 GMT
            Not After : Oct  5 12:00:00 2023 GMT
        Subject: CN=Intermediate
        Subject Public Key Info:
            Public Key Algorithm: rsaEncryption
                Public-Key: (2048 bit)
                Modulus:
                    00:d9:cf:a3:72:11:43:a1:d1:78:59:5e:27:cb:ee:
                    f6:2e:52:4e:9d:79:d1:c4:1e:bd:bb:e9:d4:cb:5e:
                    95:9f:ba:0c:7c:aa:b3:1b:97:57:82:a9:6c:f1:e6:
                    89:4b:37:fc:68:8c:93:2b:c8:35:58:e4:f5:6a:c9:
                    9d:cc:a3:3f:25:98:a3:6f:81:6c:97:67:30:b8:7a:
                    ab:47:42:6a:7c:93:a1:c9:1d:3e:b9:02:fb:1c:71:
                    40:2d:9a:a3:46:35:5c:4e:db:a9:2d:9a:09:d6:d1:
                    9d:7c:99:93:a9:fd:25:98:90:ba:84:a7:74:bf:4f:
                    9a:8e:5b:a2:2e:6b:5d:23:c4:77:42:77:0b:8a:f4:
                    e1:55:21:66:18:43:a7:a6:08:41:99:42:cc:f3:1c:
                    90:93:21:12:5d:67:1d:af:fd:f0:f6:c1:ce:26:83:
                    85:02:6e:dc:ca:9a:d4:81:55:19:9c:57:a0:56:17:
                    4c:a7:1a:7b:f0:89:cf:9a:fd:27:56:9b:b6:24:00:
                    a4:8a:1b:82:5a:39:fc:3a:d1:e9:ae:03:0d:aa:8d:
                    95:c4:31:50:18:b5:0b:c5:4f:95:85:00:1d:de:e4:
                    d4:1f:fa:c3:90:12:47:d4:60:75:ca:5a:1b:37:22:
                    5a:21:14:21:89:8a:07:1b:10:5d:9f:35:b5:50:3f:
                    d2:29
                Exponent: 65537 (0x10001)
        X509v3 extensions:
            X509v3 Subject Key Identifier: 
                EE:50:7B:40:71:90:A0:CE:F2:A3:28:0D:EC:1C:F2:D9:7E:A8:F3:0E
            X509v3 Authority Key Identifier: 
                92:8E:AB:BC:5A:AD:A6:C8:EA:A3:7B:A6:23:5B:F4:4F:B0:FA:60:FA
            Authority Information Access: 
                CA Issuers - URI:http://url-for-aia/Root.cer
            X509v3 CRL Distribution Points: 
                Full Name:
                  URI:http://url-for-crl/Root.crl
            X509v3 Key Usage: critical
                Certificate Sign, CRL Sign
            X509v3 Basic Constraints: critical
                CA:TRUE
    Signature Algorithm: sha256WithRSAEncryption
    Signature Value:
        f4:64:90:a5:f3:e1:27:29:aa:39:72:e5:fb:d7:0c:ee:ff:9f:
        07:2f:6f:d2:cb:33:c1:25:07:c0:6b:65:70:3d:b8:09:a1:3d:
        e8:08:de:7c:31:64:97:1f:78:e0:96:4b:49:b4:95:10:47:28:
        75:f4:9a:10:c0:cd:c1:03:bc:fe:be:a3:26:86:ec:c7:d4:c6:
        5c:89:b9:68:55:3d:2e:a3:68:25:62:cc:9e:34:01:f1:92:fb:
        10:b1:85:d5:bb:7c:31:a7:b7:f5:0f:a7:e3:da:4b:f6:de:68:
        41:84:b0:5c:53:e3:20:9c:88:57:20:db:6c:1b:9e:b8:ef:95:
        15:c2:fd:b5:e8:0b:2a:64:5f:bb:09:e5:dc:82:fc:ee:65:05:
        56:3a:5d:85:40:43:19:c2:c7:dd:0f:f5:5b:d1:42:8c:8f:51:
        08:77:f6:6f:ac:1b:07:68:07:6e:a9:53:77:e8:d8:b9:85:d9:
        09:80:09:2d:1a:d3:d0:d7:f5:dd:d1:46:1a:1a:63:b5:46:3e:
        3d:e9:24:c3:ab:40:31:f4:95:9d:23:17:7a:60:9a:1a:aa:77:
        e9:c5:e9:4a:c1:5a:b9:7a:b5:80:23:1c:0e:f1:cd:12:e4:be:
        85:b5:2a:ee:a3:86:f0:0d:04:6d:56:54:9b:8f:39:93:0b:03:
        07:d7:31:f4
-----BEGIN CERTIFICATE-----
MIIDgDCCAmigAwIBAgIUbmDY62LoSdWF5Rwj73KqnkBItJswDQYJKoZIhvcNAQEL
BQAwDzENMAsGA1UEAwwEUm9vdDAeFw0yMjEwMDUxMjAwMDBaFw0yMzEwMDUxMjAw
MDBaMBcxFTATBgNVBAMMDEludGVybWVkaWF0ZTCCASIwDQYJKoZIhvcNAQEBBQAD
ggEPADCCAQoCggEBANnPo3IRQ6HReFleJ8vu9i5STp150cQevbvp1MtelZ+6DHyq
sxuXV4KpbPHmiUs3/GiMkyvINVjk9WrJncyjPyWYo2+BbJdnMLh6q0dCanyTockd
PrkC+xxxQC2ao0Y1XE7bqS2aCdbRnXyZk6n9JZiQuoSndL9Pmo5boi5rXSPEd0J3
C4r04VUhZhhDp6YIQZlCzPMckJMhEl1nHa/98PbBziaDhQJu3Mqa1IFVGZxXoFYX
TKcae/CJz5r9J1abtiQApIobglo5/DrR6a4DDaqNlcQxUBi1C8VPlYUAHd7k1B/6
w5ASR9RgdcpaGzciWiEUIYmKBxsQXZ81tVA/0ikCAwEAAaOByzCByDAdBgNVHQ4E
FgQU7lB7QHGQoM7yoygN7Bzy2X6o8w4wHwYDVR0jBBgwFoAUko6rvFqtpsjqo3um
I1v0T7D6YPowNwYIKwYBBQUHAQEEKzApMCcGCCsGAQUFBzAChhtodHRwOi8vdXJs
LWZvci1haWEvUm9vdC5jZXIwLAYDVR0fBCUwIzAhoB+gHYYbaHR0cDovL3VybC1m
b3ItY3JsL1Jvb3QuY3JsMA4GA1UdDwEB/wQEAwIBBjAPBgNVHRMBAf8EBTADAQH/
MA0GCSqGSIb3DQEBCwUAA4IBAQD0ZJCl8+EnKao5cuX71wzu/58HL2/SyzPBJQfA
a2VwPbgJoT3oCN58MWSXH3jglktJtJUQRyh19JoQwM3BA7z+vqMmhuzH1MZciblo
VT0uo2glYsyeNAHxkvsQsYXVu3wxp7f1D6fj2kv23mhBhLBcU+MgnIhXINtsG564
75UVwv216AsqZF+7CeXcgvzuZQVWOl2FQEMZwsfdD/Vb0UKMj1EId/ZvrBsHaAdu
qVN36Ni5hdkJgAktGtPQ1/Xd0UYaGmO1Rj496STDq0Ax9JWdIxd6YJoaqnfpxelK
wVq5erWAIxwO8c0S5L6FtSruo4bwDQRtVlSbjzmTCwMH1zH0
-----END CERTIFICATE-----

Certificate:
    Data:
        Version: 3 (0x2)
        Serial Number:
            6e:60:d8:eb:62:e8:49:d5:85:e5:1c:23:ef:72:aa:9e:40:48:b4:9a
        Signature Algorithm: sha256WithRSAEncryption
        Issuer: CN=Root
        Validity
            Not Before: Oct  5 12:00:00 2022 GMT
            Not After : Oct  5 12:00:00 2023 GMT
        Subject: CN=Root
        Subject Public Key Info:
            Public Key Algorithm: rsaEncryption
                Public-Key: (2048 bit)
                Modulus:
                    00:f6:22:a8:ce:1d:94:88:97:b9:e7:e7:ab:56:da:
                    1c:7c:06:27:7b:06:ac:a5:75:b0:b8:8b:44:d9:8f:
                    07:38:8f:c8:15:46:49:46:c7:33:07:74:fa:4c:30:
                    a7:e6:48:eb:5c:03:14:0b:da:f9:66:be:0b:f4:04:
                    e2:d6:d8:79:cf:3c:0c:1d:61:27:4e:8e:0e:21:4f:
                    b6:2b:e0:bf:dd:67:0d:31:7b:38:36:8c:89:f0:50:
                    2c:35:f0:a6:1f:46:85:f2:78:59:2e:e0:f0:a3:a5:
                    d7:d5:25:a9:6e:d3:6e:6f:80:57:64:a0:c0:d3:75:
                    94:62:72:99:1f:a3:df:6e:b9:e3:39:6b:d3:94:83:
                    db:99:91:fa:d3:98:e2:c0:e3:66:71:1c:ff:ee:40:
                    14:75:eb:47:79:21:01:b5:60:86:81:1e:40:c7:e6:
                    b8:48:95:2c:07:50:49:40:65:9f:c4:91:6c:00:ee:
                    cc:98:1e:c5:d2:ef:fe:09:74:f2:b8:d9:91:48:01:
                    48:27:d9:50:b5:4f:44:e8:f3:fa:03:12:08:a5:fa:
                    b9:55:b1:45:59:76:87:c9:d4:c4:d7:65:ad:b4:c5:
                    82:79:ea:f0:b7:5c:75:18:4d:33:4c:bc:f6:05:e8:
                    22:30:6b:5b:d8:2a:14:2a:6a:11:7c:48:6a:7c:0e:
                    e7:e9
                Exponent: 65537 (0x10001)
        X509v3 extensions:
            X509v3 Subject Key Identifier: 
                92:8E:AB:BC:5A:AD:A6:C8:EA:A3:7B:A6:23:5B:F4:4F:B0:FA:60:FA
            X509v3 Authority Key Identifier: 
                92:8E:AB:BC:5A:AD:A6:C8:EA:A3:7B:A6:23:5B:F4:4F:B0:FA:60:FA
            Authority Information Access: 
                CA Issuers - URI:http://url-for-aia/Root.cer
            X509v3 CRL Distribution Points: 
                Full Name:
                  URI:http://url-for-crl/Root.crl
            X509v3 Key Usage: critical
                Certificate Sign, CRL Sign
            X509v3 Basic Constraints: critical
                CA:TRUE
    Signature Algorithm: sha256WithRSAEncryption
    Signature Value:
        c9:f4:14:5a:cf:2f:aa:5f:af:b6:c8:25:4b:60:41:33:07:9b:
        ec:82:d3:6d:36:8f:c7:3f:64:b3:5e:00:08:09:b6:25:15:06:
        2d:8f:cb:1c:cd:56:4b:c7:ee:71:e9:12:09:df:87:68:96:88:
        a6:fb:52:7d:71:c1:a3:e9:3b:ad:58:64:c7:1d:43:01:4d:fa:
        29:f4:52:29:26:c0:a2:2d:6c:b1:f4:91:9e:e1:0a:7a:df:8d:
        ab:fc:a6:e5:9e:80:13:e0:42:aa:6c:b8:b1:6e:16:16:57:b7:
        68:8f:a2:b0:81:52:89:0a:a8:62:b7:dc:5e:d1:35:bc:45:d7:
        40:1b:44:71:f1:82:24:90:c1:c0:c1:14:ed:7b:82:bb:a4:43:
        35:a2:59:40:2f:46:42:c0:e8:59:02:67:cf:0b:2d:ca:a6:66:
        d2:6a:56:06:3c:35:05:03:84:5a:f5:2b:c9:ea:8c:13:57:df:
        a0:17:34:ab:da:2b:05:3f:f5:9e:0d:e8:a4:31:5e:41:24:23:
        f2:30:40:c5:d8:ec:5d:a8:c0:61:59:de:d8:eb:2c:13:11:59:
        40:c6:c5:22:ec:8c:33:b1:3f:73:32:59:d9:13:a7:47:0b:3b:
        c2:f4:d7:3b:66:be:c8:b5:1c:85:66:3d:3e:27:f9:71:a3:e0:
        54:aa:1f:ce
-----BEGIN CERTIFICATE-----
MIIDeDCCAmCgAwIBAgIUbmDY62LoSdWF5Rwj73KqnkBItJowDQYJKoZIhvcNAQEL
BQAwDzENMAsGA1UEAwwEUm9vdDAeFw0yMjEwMDUxMjAwMDBaFw0yMzEwMDUxMjAw
MDBaMA8xDTALBgNVBAMMBFJvb3QwggEiMA0GCSqGSIb3DQEBAQUAA4IBDwAwggEK
AoIBAQD2IqjOHZSIl7nn56tW2hx8Bid7BqyldbC4i0TZjwc4j8gVRklGxzMHdPpM
MKfmSOtcAxQL2vlmvgv0BOLW2HnPPAwdYSdOjg4hT7Yr4L/dZw0xezg2jInwUCw1
8KYfRoXyeFku4PCjpdfVJalu025vgFdkoMDTdZRicpkfo99uueM5a9OUg9uZkfrT
mOLA42ZxHP/uQBR160d5IQG1YIaBHkDH5rhIlSwHUElAZZ/EkWwA7syYHsXS7/4J
dPK42ZFIAUgn2VC1T0To8/oDEgil+rlVsUVZdofJ1MTXZa20xYJ56vC3XHUYTTNM
vPYF6CIwa1vYKhQqahF8SGp8DufpAgMBAAGjgcswgcgwHQYDVR0OBBYEFJKOq7xa
rabI6qN7piNb9E+w+mD6MB8GA1UdIwQYMBaAFJKOq7xarabI6qN7piNb9E+w+mD6
MDcGCCsGAQUFBwEBBCswKTAnBggrBgEFBQcwAoYbaHR0cDovL3VybC1mb3ItYWlh
L1Jvb3QuY2VyMCwGA1UdHwQlMCMwIaAfoB2GG2h0dHA6Ly91cmwtZm9yLWNybC9S
b290LmNybDAOBgNVHQ8BAf8EBAMCAQYwDwYDVR0TAQH/BAUwAwEB/zANBgkqhkiG
9w0BAQsFAAOCAQEAyfQUWs8vql+vtsglS2BBMweb7ILTbTaPxz9ks14ACAm2JRUG
LY/LHM1WS8fucekSCd+HaJaIpvtSfXHBo+k7rVhkxx1DAU36KfRSKSbAoi1ssfSR
nuEKet+Nq/ym5Z6AE+BCqmy4sW4WFle3aI+isIFSiQqoYrfcXtE1vEXXQBtEcfGC
JJDBwMEU7XuCu6RDNaJZQC9GQsDoWQJnzwstyqZm0mpWBjw1BQOEWvUryeqME1ff
oBc0q9orBT/1ng3opDFeQSQj8jBAxdjsXajAYVne2OssExFZQMbFIuyMM7E/czJZ
2ROnRws7wvTXO2a+yLUchWY9Pif5caPgVKofzg==
-----END CERTIFICATE-----
