[Created by: generate-chains.py]

Certificate chain where the intermediate used MD5 to sign the target
certificate.

Certificate:
    Data:
        Version: 3 (0x2)
        Serial Number:
            2f:d9:89:cf:ff:cd:53:9f:5d:75:66:a5:53:93:03:4c:a0:64:cf:c3
        Signature Algorithm: md5WithRSAEncryption
        Issuer: CN=Intermediate
        Validity
            Not Before: Nov  3 12:00:00 2020 GMT
            Not After : Nov  3 12:00:00 2021 GMT
        Subject: CN=Target
        Subject Public Key Info:
            Public Key Algorithm: rsaEncryption
                RSA Public-Key: (2048 bit)
                Modulus:
                    00:a7:b8:bc:92:74:b1:bc:8f:5b:d5:3c:81:a6:8f:
                    d2:bf:7e:b8:f6:cd:49:5b:fd:18:ee:07:5c:32:cf:
                    f1:7f:51:06:98:53:91:16:4e:c0:2c:34:16:b8:12:
                    9d:10:5d:72:42:ec:00:e9:6b:4a:fb:17:bf:3a:35:
                    f9:a7:f5:50:df:80:bf:d9:6a:3d:74:93:4b:ce:13:
                    5f:57:3c:a1:60:55:10:e9:32:0f:84:ce:c2:d7:51:
                    be:16:b1:54:3f:86:5b:9e:9c:ec:5e:10:87:10:08:
                    ac:78:ee:da:97:5a:af:52:84:de:8d:2d:e4:91:30:
                    09:a1:e7:2b:8b:8b:b8:70:a0:43:0f:db:15:48:a5:
                    c2:94:af:f9:82:e4:86:57:d3:1c:e8:0c:71:11:06:
                    fe:f5:5e:ad:a6:26:d3:51:0b:f2:f0:5c:99:05:fe:
                    51:a1:d7:4a:e6:7f:f3:54:eb:82:07:f9:3a:83:bb:
                    c4:b5:41:07:df:76:95:9a:ed:04:34:4a:1f:bd:91:
                    19:78:6b:e0:24:4c:cc:ad:21:80:61:20:03:96:1c:
                    e8:d8:ca:e9:bc:ee:5f:93:eb:f8:48:ee:93:01:eb:
                    c3:a4:83:6b:3d:03:0e:fa:a7:aa:22:4d:66:40:8b:
                    ff:e4:9e:39:4f:b1:13:1f:ee:cd:70:21:10:26:96:
                    9b:03
                Exponent: 65537 (0x10001)
        X509v3 extensions:
            X509v3 Subject Key Identifier: 
                BF:EB:3A:84:42:B2:07:20:64:80:5F:29:BC:F8:61:4A:F6:05:54:0D
            X509v3 Authority Key Identifier: 
                keyid:EE:50:7B:40:71:90:A0:CE:F2:A3:28:0D:EC:1C:F2:D9:7E:A8:F3:0E

            Authority Information Access: 
                CA Issuers - URI:http://url-for-aia/Intermediate.cer

            X509v3 CRL Distribution Points: 

                Full Name:
                  URI:http://url-for-crl/Intermediate.crl

            X509v3 Key Usage: critical
                Digital Signature, Key Encipherment
            X509v3 Extended Key Usage: 
                TLS Web Server Authentication, TLS Web Client Authentication
    Signature Algorithm: md5WithRSAEncryption
         d5:94:f0:52:46:fc:a6:9e:2a:99:0e:f8:d5:73:54:13:6f:a0:
         72:2c:ec:1a:5b:63:0c:0b:4f:e2:46:d7:c3:39:64:03:24:6e:
         26:2b:2d:60:f9:e6:7b:1e:37:19:43:6e:e1:de:24:49:5f:e5:
         40:98:4c:50:8c:b1:4c:71:fb:63:77:72:83:05:ee:6e:48:a0:
         6e:5c:14:c1:3c:b7:2b:fe:09:ce:d6:ec:bd:c0:b0:7c:be:bf:
         50:cf:d7:52:85:52:bb:f1:87:ca:1d:8d:34:63:ba:a3:be:31:
         e4:ab:db:6f:48:2b:7c:15:c1:e5:51:92:0a:05:1a:86:a5:76:
         2a:1c:40:d4:2e:fc:f3:97:83:88:4f:6d:f0:2d:a2:fe:42:d4:
         ee:06:2d:c5:89:0f:d9:7f:b6:61:03:58:fa:e0:32:94:44:e2:
         44:0a:45:d2:18:03:3e:7b:14:4b:3d:c1:e8:bb:17:68:fe:59:
         68:41:f0:29:7a:72:ff:77:5a:7f:c6:ce:7b:1e:f1:17:9d:bb:
         ff:dd:b8:b6:a9:34:57:f0:49:e3:ed:e7:86:7d:39:8b:b9:f3:
         08:b2:52:09:c0:80:ff:8f:ad:24:d4:ef:69:84:45:7c:08:18:
         46:94:28:48:08:4f:45:a1:fb:b6:f3:16:b2:c5:fa:93:50:8c:
         89:fc:4c:27
-----BEGIN CERTIFICATE-----
MIIDoDCCAoigAwIBAgIUL9mJz//NU59ddWalU5MDTKBkz8MwDQYJKoZIhvcNAQEE
BQAwFzEVMBMGA1UEAwwMSW50ZXJtZWRpYXRlMB4XDTIwMTEwMzEyMDAwMFoXDTIx
MTEwMzEyMDAwMFowETEPMA0GA1UEAwwGVGFyZ2V0MIIBIjANBgkqhkiG9w0BAQEF
AAOCAQ8AMIIBCgKCAQEAp7i8knSxvI9b1TyBpo/Sv3649s1JW/0Y7gdcMs/xf1EG
mFORFk7ALDQWuBKdEF1yQuwA6WtK+xe/OjX5p/VQ34C/2Wo9dJNLzhNfVzyhYFUQ
6TIPhM7C11G+FrFUP4ZbnpzsXhCHEAiseO7al1qvUoTejS3kkTAJoecri4u4cKBD
D9sVSKXClK/5guSGV9Mc6AxxEQb+9V6tpibTUQvy8FyZBf5RoddK5n/zVOuCB/k6
g7vEtUEH33aVmu0ENEofvZEZeGvgJEzMrSGAYSADlhzo2MrpvO5fk+v4SO6TAevD
pINrPQMO+qeqIk1mQIv/5J45T7ETH+7NcCEQJpabAwIDAQABo4HpMIHmMB0GA1Ud
DgQWBBS/6zqEQrIHIGSAXym8+GFK9gVUDTAfBgNVHSMEGDAWgBTuUHtAcZCgzvKj
KA3sHPLZfqjzDjA/BggrBgEFBQcBAQQzMDEwLwYIKwYBBQUHMAKGI2h0dHA6Ly91
cmwtZm9yLWFpYS9JbnRlcm1lZGlhdGUuY2VyMDQGA1UdHwQtMCswKaAnoCWGI2h0
dHA6Ly91cmwtZm9yLWNybC9JbnRlcm1lZGlhdGUuY3JsMA4GA1UdDwEB/wQEAwIF
oDAdBgNVHSUEFjAUBggrBgEFBQcDAQYIKwYBBQUHAwIwDQYJKoZIhvcNAQEEBQAD
ggEBANWU8FJG/KaeKpkO+NVzVBNvoHIs7BpbYwwLT+JG18M5ZAMkbiYrLWD55nse
NxlDbuHeJElf5UCYTFCMsUxx+2N3coMF7m5IoG5cFME8tyv+Cc7W7L3AsHy+v1DP
11KFUrvxh8odjTRjuqO+MeSr229IK3wVweVRkgoFGoaldiocQNQu/POXg4hPbfAt
ov5C1O4GLcWJD9l/tmEDWPrgMpRE4kQKRdIYAz57FEs9wei7F2j+WWhB8Cl6cv93
Wn/Gznse8Redu//duLapNFfwSePt54Z9OYu58wiyUgnAgP+PrSTU72mERXwIGEaU
KEgIT0Wh+7bzFrLF+pNQjIn8TCc=
-----END CERTIFICATE-----

Certificate:
    Data:
        Version: 3 (0x2)
        Serial Number:
            6e:60:d8:eb:62:e8:49:d5:85:e5:1c:23:ef:72:aa:9e:40:48:b4:9b
        Signature Algorithm: sha256WithRSAEncryption
        Issuer: CN=Root
        Validity
            Not Before: Nov  3 12:00:00 2020 GMT
            Not After : Nov  3 12:00:00 2021 GMT
        Subject: CN=Intermediate
        Subject Public Key Info:
            Public Key Algorithm: rsaEncryption
                RSA Public-Key: (2048 bit)
                Modulus:
                    00:d9:cf:a3:72:11:43:a1:d1:78:59:5e:27:cb:ee:
                    f6:2e:52:4e:9d:79:d1:c4:1e:bd:bb:e9:d4:cb:5e:
                    95:9f:ba:0c:7c:aa:b3:1b:97:57:82:a9:6c:f1:e6:
                    89:4b:37:fc:68:8c:93:2b:c8:35:58:e4:f5:6a:c9:
                    9d:cc:a3:3f:25:98:a3:6f:81:6c:97:67:30:b8:7a:
                    ab:47:42:6a:7c:93:a1:c9:1d:3e:b9:02:fb:1c:71:
                    40:2d:9a:a3:46:35:5c:4e:db:a9:2d:9a:09:d6:d1:
                    9d:7c:99:93:a9:fd:25:98:90:ba:84:a7:74:bf:4f:
                    9a:8e:5b:a2:2e:6b:5d:23:c4:77:42:77:0b:8a:f4:
                    e1:55:21:66:18:43:a7:a6:08:41:99:42:cc:f3:1c:
                    90:93:21:12:5d:67:1d:af:fd:f0:f6:c1:ce:26:83:
                    85:02:6e:dc:ca:9a:d4:81:55:19:9c:57:a0:56:17:
                    4c:a7:1a:7b:f0:89:cf:9a:fd:27:56:9b:b6:24:00:
                    a4:8a:1b:82:5a:39:fc:3a:d1:e9:ae:03:0d:aa:8d:
                    95:c4:31:50:18:b5:0b:c5:4f:95:85:00:1d:de:e4:
                    d4:1f:fa:c3:90:12:47:d4:60:75:ca:5a:1b:37:22:
                    5a:21:14:21:89:8a:07:1b:10:5d:9f:35:b5:50:3f:
                    d2:29
                Exponent: 65537 (0x10001)
        X509v3 extensions:
            X509v3 Subject Key Identifier: 
                EE:50:7B:40:71:90:A0:CE:F2:A3:28:0D:EC:1C:F2:D9:7E:A8:F3:0E
            X509v3 Authority Key Identifier: 
                keyid:92:8E:AB:BC:5A:AD:A6:C8:EA:A3:7B:A6:23:5B:F4:4F:B0:FA:60:FA

            Authority Information Access: 
                CA Issuers - URI:http://url-for-aia/Root.cer

            X509v3 CRL Distribution Points: 

                Full Name:
                  URI:http://url-for-crl/Root.crl

            X509v3 Key Usage: critical
                Certificate Sign, CRL Sign
            X509v3 Basic Constraints: critical
                CA:TRUE
    Signature Algorithm: sha256WithRSAEncryption
         7b:c4:4d:48:88:bb:df:81:0f:73:9e:58:34:c3:96:44:b5:d5:
         27:12:3c:c1:ee:15:4b:d6:7b:64:58:16:02:d8:21:98:17:b2:
         33:15:c1:ac:14:6d:ff:bf:1b:d5:eb:0d:5e:0a:9d:60:5d:b6:
         f6:db:c8:ea:8e:4b:83:bc:e3:20:8e:ef:b4:03:2f:d5:54:37:
         63:f8:36:dd:7d:25:2e:dc:f4:ec:6d:96:39:d4:ce:77:cd:cb:
         1b:60:c1:c6:c0:1d:ad:af:23:78:29:37:7d:0f:fd:0a:a1:a7:
         3f:ff:eb:c8:e5:81:50:30:80:c4:13:20:8c:9f:34:f4:8c:96:
         d1:60:86:63:5c:69:3d:05:7f:b0:5f:c8:72:9d:22:72:e7:5a:
         6d:81:95:2d:4e:e9:b6:5b:0d:fc:b5:0d:73:78:2f:01:9b:f8:
         aa:51:11:20:9a:f6:c5:9b:7b:b1:b8:e4:5f:78:c8:25:2c:59:
         9d:96:4c:98:34:13:f7:f4:57:d0:82:34:6c:ad:9e:37:71:52:
         83:a4:68:dd:c0:8a:f7:b5:79:bd:ab:d7:02:b7:e8:68:e1:dd:
         8f:d2:d7:ca:ff:52:61:e4:82:94:ad:bb:d3:b6:18:c2:c8:8f:
         b3:c4:eb:2b:09:c2:a5:5c:20:57:a0:c8:d4:ac:77:e8:8b:a7:
         9e:fa:d1:e1
-----BEGIN CERTIFICATE-----
MIIDgDCCAmigAwIBAgIUbmDY62LoSdWF5Rwj73KqnkBItJswDQYJKoZIhvcNAQEL
BQAwDzENMAsGA1UEAwwEUm9vdDAeFw0yMDExMDMxMjAwMDBaFw0yMTExMDMxMjAw
MDBaMBcxFTATBgNVBAMMDEludGVybWVkaWF0ZTCCASIwDQYJKoZIhvcNAQEBBQAD
ggEPADCCAQoCggEBANnPo3IRQ6HReFleJ8vu9i5STp150cQevbvp1MtelZ+6DHyq
sxuXV4KpbPHmiUs3/GiMkyvINVjk9WrJncyjPyWYo2+BbJdnMLh6q0dCanyTockd
PrkC+xxxQC2ao0Y1XE7bqS2aCdbRnXyZk6n9JZiQuoSndL9Pmo5boi5rXSPEd0J3
C4r04VUhZhhDp6YIQZlCzPMckJMhEl1nHa/98PbBziaDhQJu3Mqa1IFVGZxXoFYX
TKcae/CJz5r9J1abtiQApIobglo5/DrR6a4DDaqNlcQxUBi1C8VPlYUAHd7k1B/6
w5ASR9RgdcpaGzciWiEUIYmKBxsQXZ81tVA/0ikCAwEAAaOByzCByDAdBgNVHQ4E
FgQU7lB7QHGQoM7yoygN7Bzy2X6o8w4wHwYDVR0jBBgwFoAUko6rvFqtpsjqo3um
I1v0T7D6YPowNwYIKwYBBQUHAQEEKzApMCcGCCsGAQUFBzAChhtodHRwOi8vdXJs
LWZvci1haWEvUm9vdC5jZXIwLAYDVR0fBCUwIzAhoB+gHYYbaHR0cDovL3VybC1m
b3ItY3JsL1Jvb3QuY3JsMA4GA1UdDwEB/wQEAwIBBjAPBgNVHRMBAf8EBTADAQH/
MA0GCSqGSIb3DQEBCwUAA4IBAQB7xE1IiLvfgQ9znlg0w5ZEtdUnEjzB7hVL1ntk
WBYC2CGYF7IzFcGsFG3/vxvV6w1eCp1gXbb228jqjkuDvOMgju+0Ay/VVDdj+Dbd
fSUu3PTsbZY51M53zcsbYMHGwB2tryN4KTd9D/0Koac//+vI5YFQMIDEEyCMnzT0
jJbRYIZjXGk9BX+wX8hynSJy51ptgZUtTum2Ww38tQ1zeC8Bm/iqUREgmvbFm3ux
uORfeMglLFmdlkyYNBP39FfQgjRsrZ43cVKDpGjdwIr3tXm9q9cCt+ho4d2P0tfK
/1Jh5IKUrbvTthjCyI+zxOsrCcKlXCBXoMjUrHfoi6ee+tHh
-----END CERTIFICATE-----

Certificate:
    Data:
        Version: 3 (0x2)
        Serial Number:
            6e:60:d8:eb:62:e8:49:d5:85:e5:1c:23:ef:72:aa:9e:40:48:b4:9a
        Signature Algorithm: sha256WithRSAEncryption
        Issuer: CN=Root
        Validity
            Not Before: Nov  3 12:00:00 2020 GMT
            Not After : Nov  3 12:00:00 2021 GMT
        Subject: CN=Root
        Subject Public Key Info:
            Public Key Algorithm: rsaEncryption
                RSA Public-Key: (2048 bit)
                Modulus:
                    00:f6:22:a8:ce:1d:94:88:97:b9:e7:e7:ab:56:da:
                    1c:7c:06:27:7b:06:ac:a5:75:b0:b8:8b:44:d9:8f:
                    07:38:8f:c8:15:46:49:46:c7:33:07:74:fa:4c:30:
                    a7:e6:48:eb:5c:03:14:0b:da:f9:66:be:0b:f4:04:
                    e2:d6:d8:79:cf:3c:0c:1d:61:27:4e:8e:0e:21:4f:
                    b6:2b:e0:bf:dd:67:0d:31:7b:38:36:8c:89:f0:50:
                    2c:35:f0:a6:1f:46:85:f2:78:59:2e:e0:f0:a3:a5:
                    d7:d5:25:a9:6e:d3:6e:6f:80:57:64:a0:c0:d3:75:
                    94:62:72:99:1f:a3:df:6e:b9:e3:39:6b:d3:94:83:
                    db:99:91:fa:d3:98:e2:c0:e3:66:71:1c:ff:ee:40:
                    14:75:eb:47:79:21:01:b5:60:86:81:1e:40:c7:e6:
                    b8:48:95:2c:07:50:49:40:65:9f:c4:91:6c:00:ee:
                    cc:98:1e:c5:d2:ef:fe:09:74:f2:b8:d9:91:48:01:
                    48:27:d9:50:b5:4f:44:e8:f3:fa:03:12:08:a5:fa:
                    b9:55:b1:45:59:76:87:c9:d4:c4:d7:65:ad:b4:c5:
                    82:79:ea:f0:b7:5c:75:18:4d:33:4c:bc:f6:05:e8:
                    22:30:6b:5b:d8:2a:14:2a:6a:11:7c:48:6a:7c:0e:
                    e7:e9
                Exponent: 65537 (0x10001)
        X509v3 extensions:
            X509v3 Subject Key Identifier: 
                92:8E:AB:BC:5A:AD:A6:C8:EA:A3:7B:A6:23:5B:F4:4F:B0:FA:60:FA
            X509v3 Authority Key Identifier: 
                keyid:92:8E:AB:BC:5A:AD:A6:C8:EA:A3:7B:A6:23:5B:F4:4F:B0:FA:60:FA

            Authority Information Access: 
                CA Issuers - URI:http://url-for-aia/Root.cer

            X509v3 CRL Distribution Points: 

                Full Name:
                  URI:http://url-for-crl/Root.crl

            X509v3 Key Usage: critical
                Certificate Sign, CRL Sign
            X509v3 Basic Constraints: critical
                CA:TRUE
    Signature Algorithm: sha256WithRSAEncryption
         2e:8b:f6:67:2b:ac:13:2d:7b:5d:3b:ec:d6:6d:d4:85:e9:ae:
         66:11:ad:ee:a2:15:db:ad:3f:c5:26:b1:4b:d1:70:fd:db:88:
         9d:e7:aa:7a:49:50:1f:84:37:97:d9:ee:95:78:be:9a:01:08:
         23:75:c7:cd:f7:58:7d:cb:18:94:10:9d:97:5d:7e:99:76:53:
         31:0f:a8:58:b3:24:45:cc:e0:09:e0:db:cc:8d:ab:29:48:54:
         4c:4c:30:70:da:5a:3c:4f:ea:ea:3b:83:13:68:e4:89:7f:1a:
         ca:59:4e:ab:53:c7:31:fa:be:22:dc:ae:3f:f8:6b:e5:c2:1b:
         fe:b0:0b:15:af:83:05:e5:5a:30:a5:32:15:47:3d:87:db:b7:
         07:47:36:0f:89:97:95:89:37:30:7a:f4:02:77:05:ca:62:6d:
         bc:3e:7c:99:6e:c8:d7:eb:2a:d6:5f:3e:7d:ee:4d:fd:2b:d4:
         37:22:26:ef:22:05:ee:6c:b9:2e:4d:29:8c:11:2a:94:0d:e5:
         e6:27:94:bd:9b:4d:8b:42:6c:ac:b0:4e:0e:84:b9:4d:f4:70:
         3a:c5:9a:aa:24:6a:89:b6:86:7d:55:81:95:88:0f:68:0e:57:
         86:df:29:91:e8:f9:70:bb:bc:f9:ea:ef:76:c3:2c:cb:f0:d6:
         97:12:c6:a2
-----BEGIN CERTIFICATE-----
MIIDeDCCAmCgAwIBAgIUbmDY62LoSdWF5Rwj73KqnkBItJowDQYJKoZIhvcNAQEL
BQAwDzENMAsGA1UEAwwEUm9vdDAeFw0yMDExMDMxMjAwMDBaFw0yMTExMDMxMjAw
MDBaMA8xDTALBgNVBAMMBFJvb3QwggEiMA0GCSqGSIb3DQEBAQUAA4IBDwAwggEK
AoIBAQD2IqjOHZSIl7nn56tW2hx8Bid7BqyldbC4i0TZjwc4j8gVRklGxzMHdPpM
MKfmSOtcAxQL2vlmvgv0BOLW2HnPPAwdYSdOjg4hT7Yr4L/dZw0xezg2jInwUCw1
8KYfRoXyeFku4PCjpdfVJalu025vgFdkoMDTdZRicpkfo99uueM5a9OUg9uZkfrT
mOLA42ZxHP/uQBR160d5IQG1YIaBHkDH5rhIlSwHUElAZZ/EkWwA7syYHsXS7/4J
dPK42ZFIAUgn2VC1T0To8/oDEgil+rlVsUVZdofJ1MTXZa20xYJ56vC3XHUYTTNM
vPYF6CIwa1vYKhQqahF8SGp8DufpAgMBAAGjgcswgcgwHQYDVR0OBBYEFJKOq7xa
rabI6qN7piNb9E+w+mD6MB8GA1UdIwQYMBaAFJKOq7xarabI6qN7piNb9E+w+mD6
MDcGCCsGAQUFBwEBBCswKTAnBggrBgEFBQcwAoYbaHR0cDovL3VybC1mb3ItYWlh
L1Jvb3QuY2VyMCwGA1UdHwQlMCMwIaAfoB2GG2h0dHA6Ly91cmwtZm9yLWNybC9S
b290LmNybDAOBgNVHQ8BAf8EBAMCAQYwDwYDVR0TAQH/BAUwAwEB/zANBgkqhkiG
9w0BAQsFAAOCAQEALov2ZyusEy17XTvs1m3UhemuZhGt7qIV260/xSaxS9Fw/duI
neeqeklQH4Q3l9nulXi+mgEII3XHzfdYfcsYlBCdl11+mXZTMQ+oWLMkRczgCeDb
zI2rKUhUTEwwcNpaPE/q6juDE2jkiX8ayllOq1PHMfq+ItyuP/hr5cIb/rALFa+D
BeVaMKUyFUc9h9u3B0c2D4mXlYk3MHr0AncFymJtvD58mW7I1+sq1l8+fe5N/SvU
NyIm7yIF7my5Lk0pjBEqlA3l5ieUvZtNi0JsrLBODoS5TfRwOsWaqiRqibaGfVWB
lYgPaA5Xht8pkej5cLu8+ervdsMsy/DWlxLGog==
-----END CERTIFICATE-----
