Certificate:
    Data:
        Version: 3 (0x2)
        Serial Number: 2 (0x2)
        Signature Algorithm: ecdsa-with-SHA256
        Issuer: CN=root_ca_cert_ec
        Validity
            Not Before: Sep 12 10:53:57 2024 GMT
            Not After : Sep 10 10:53:57 2034 GMT
        Subject: CN=intermediate_ca_cert_ec
        Subject Public Key Info:
            Public Key Algorithm: id-ecPublicKey
                Public-Key: (256 bit)
                pub:
                    04:69:c1:ae:d9:92:64:bf:b7:e7:f1:d7:f0:de:24:
                    d5:e7:a5:c5:f5:88:f0:da:42:5c:34:90:ec:a2:aa:
                    52:79:65:91:8e:5d:8b:02:42:25:15:c4:b4:5e:01:
                    fc:37:29:eb:5c:c3:e0:eb:5f:80:39:e8:fc:52:bc:
                    65:cf:f7:7c:df
                ASN1 OID: prime256v1
                NIST CURVE: P-256
        X509v3 extensions:
            X509v3 Basic Constraints: critical
                CA:TRUE
            X509v3 Subject Key Identifier: 
                08:39:3F:08:ED:D4:14:68:50:F5:1E:D5:98:07:42:B5:67:FE:90:8E
            X509v3 Authority Key Identifier: 
                D9:64:1D:23:FE:C0:E6:8B:56:A9:A4:73:5E:A3:35:0C:E3:5A:89:09
            X509v3 Key Usage: critical
                Certificate Sign, CRL Sign
    Signature Algorithm: ecdsa-with-SHA256
    Signature Value:
        30:45:02:21:00:b5:1f:fc:25:e3:dd:33:2e:6f:53:52:44:e6:
        f1:59:e1:23:55:f0:82:aa:9f:9a:15:2a:22:9e:16:a1:01:b8:
        c1:02:20:1e:22:3e:8d:5d:e1:34:a1:75:d5:ba:8b:03:58:0c:
        ac:eb:db:3f:29:9c:21:41:6c:e9:e8:06:3d:7d:6c:00:cb
-----BEGIN CERTIFICATE-----
MIIBjjCCATSgAwIBAgIBAjAKBggqhkjOPQQDAjAaMRgwFgYDVQQDDA9yb290X2Nh
X2NlcnRfZWMwHhcNMjQwOTEyMTA1MzU3WhcNMzQwOTEwMTA1MzU3WjAiMSAwHgYD
VQQDDBdpbnRlcm1lZGlhdGVfY2FfY2VydF9lYzBZMBMGByqGSM49AgEGCCqGSM49
AwEHA0IABGnBrtmSZL+35/HX8N4k1eelxfWI8NpCXDSQ7KKqUnllkY5diwJCJRXE
tF4B/Dcp61zD4OtfgDno/FK8Zc/3fN+jYzBhMA8GA1UdEwEB/wQFMAMBAf8wHQYD
VR0OBBYEFAg5Pwjt1BRoUPUe1ZgHQrVn/pCOMB8GA1UdIwQYMBaAFNlkHSP+wOaL
Vqmkc16jNQzjWokJMA4GA1UdDwEB/wQEAwIBBjAKBggqhkjOPQQDAgNIADBFAiEA
tR/8JePdMy5vU1JE5vFZ4SNV8IKqn5oVKiKeFqEBuMECIB4iPo1d4TShddW6iwNY
DKzr2z8pnCFBbOnoBj19bADL
-----END CERTIFICATE-----
