Certificate:
    Data:
        Version: 3 (0x2)
        Serial Number: 2 (0x2)
        Signature Algorithm: sha256WithRSAEncryption
        Issuer: CN=root_ca_cert
        Validity
            Not Before: Jul 18 09:31:32 2019 GMT
            Not After : Jul 15 09:31:32 2029 GMT
        Subject: CN=intermediate_ca_cert
        Subject Public Key Info:
            Public Key Algorithm: rsaEncryption
                RSA Public-Key: (2048 bit)
                Modulus:
                    00:9c:36:53:e3:22:02:c9:fa:57:e8:19:a1:fe:97:
                    34:6a:45:55:47:e9:6b:60:38:7e:4e:4b:ce:fd:8b:
                    8d:c4:74:53:2b:1b:bb:f0:1c:ce:5b:f4:4a:20:d8:
                    07:20:8a:6a:e5:bd:ff:a0:d1:dd:65:6b:cc:04:96:
                    46:bf:71:2d:bc:bb:15:bc:43:04:28:7a:07:b9:52:
                    bf:5d:f1:6e:74:4b:b1:64:15:ae:56:70:38:8b:64:
                    a1:2f:07:8e:49:db:49:42:b6:7f:23:22:12:0f:21:
                    63:d0:7b:a0:2a:ff:66:51:20:60:44:f3:5c:b5:b8:
                    b5:da:b2:ee:d5:17:c8:38:e2:b7:11:aa:f8:0b:05:
                    a2:76:3e:57:4b:9b:f4:5e:7b:ed:97:5a:3a:2a:dc:
                    d3:e2:ef:66:e7:7e:6d:87:72:6c:08:4a:df:d2:b1:
                    f2:1c:c8:4f:b7:96:49:ca:9b:f5:5b:ac:23:37:53:
                    4b:b8:8a:84:ce:cc:2e:b7:b4:ca:ee:4b:d1:71:fd:
                    a4:f2:53:6b:62:6d:26:35:28:cb:b6:c6:8b:9f:a6:
                    7a:6e:5b:8d:56:fe:5b:08:4a:2d:2a:f0:e9:a5:48:
                    5d:ce:97:8d:47:60:6d:70:10:dc:e6:84:6b:f2:98:
                    4c:be:8e:a8:d2:34:bb:27:12:9c:87:f2:5c:7b:ec:
                    15:e9
                Exponent: 65537 (0x10001)
        X509v3 extensions:
            X509v3 Basic Constraints: critical
                CA:TRUE
            X509v3 Subject Key Identifier: 
                98:83:CE:76:1F:C8:B7:83:1B:BC:B7:EA:95:DD:56:5D:EF:B4:50:70
            X509v3 Authority Key Identifier: 
                keyid:45:DA:86:F6:87:7F:4D:80:C5:95:50:32:E8:CB:3C:35:30:BD:93:71

            X509v3 Key Usage: critical
                Certificate Sign, CRL Sign
    Signature Algorithm: sha256WithRSAEncryption
         29:87:4f:f4:0e:67:be:1d:2f:b0:1e:cd:c8:b2:ce:ca:b7:a0:
         d3:b4:cf:11:ca:65:05:11:3d:c3:13:3d:a9:5d:f4:58:1b:9b:
         36:43:4f:f1:6d:0a:96:4c:b4:44:05:bd:f5:de:67:1b:50:17:
         96:cb:f9:f6:22:07:25:19:84:e8:4f:1a:a3:99:b7:ed:8d:ed:
         79:d5:2a:fe:fc:5c:5d:06:f1:27:1a:ce:65:a9:5c:ca:c0:d2:
         16:92:82:3b:47:b4:29:6d:7b:d8:2f:ee:c6:f9:40:93:04:af:
         37:fc:3e:ff:59:2a:06:95:2d:83:5d:09:7f:7f:68:aa:08:a3:
         cc:d2:99:77:b0:38:c5:ce:e0:c8:ed:a5:68:b9:3e:be:23:0a:
         df:f4:8f:58:e1:66:03:4b:c9:92:4e:33:1a:53:38:c1:99:05:
         c4:ae:95:62:08:c7:c1:c1:1a:d1:88:3f:81:0d:b6:e5:e9:e3:
         d7:b6:51:13:20:97:49:9f:3a:87:9d:2c:35:a3:9d:55:11:19:
         a7:32:6d:0b:4d:3b:47:9a:9d:30:39:0a:28:49:a4:38:86:fb:
         c2:df:e5:aa:f7:db:3f:fd:7e:f2:6e:c7:6c:76:86:07:99:07:
         25:97:80:39:60:83:49:29:c4:72:68:71:8f:7b:5d:3e:96:ae:
         04:de:fa:0c
-----BEGIN CERTIFICATE-----
MIIDFDCCAfygAwIBAgIBAjANBgkqhkiG9w0BAQsFADAXMRUwEwYDVQQDDAxyb290
X2NhX2NlcnQwHhcNMTkwNzE4MDkzMTMyWhcNMjkwNzE1MDkzMTMyWjAfMR0wGwYD
VQQDDBRpbnRlcm1lZGlhdGVfY2FfY2VydDCCASIwDQYJKoZIhvcNAQEBBQADggEP
ADCCAQoCggEBAJw2U+MiAsn6V+gZof6XNGpFVUfpa2A4fk5Lzv2LjcR0Uysbu/Ac
zlv0SiDYByCKauW9/6DR3WVrzASWRr9xLby7FbxDBCh6B7lSv13xbnRLsWQVrlZw
OItkoS8HjknbSUK2fyMiEg8hY9B7oCr/ZlEgYETzXLW4tdqy7tUXyDjitxGq+AsF
onY+V0ub9F577ZdaOirc0+LvZud+bYdybAhK39Kx8hzIT7eWScqb9VusIzdTS7iK
hM7MLre0yu5L0XH9pPJTa2JtJjUoy7bGi5+mem5bjVb+WwhKLSrw6aVIXc6XjUdg
bXAQ3OaEa/KYTL6OqNI0uycSnIfyXHvsFekCAwEAAaNjMGEwDwYDVR0TAQH/BAUw
AwEB/zAdBgNVHQ4EFgQUmIPOdh/It4MbvLfqld1WXe+0UHAwHwYDVR0jBBgwFoAU
RdqG9od/TYDFlVAy6Ms8NTC9k3EwDgYDVR0PAQH/BAQDAgEGMA0GCSqGSIb3DQEB
CwUAA4IBAQAph0/0Dme+HS+wHs3Iss7Kt6DTtM8RymUFET3DEz2pXfRYG5s2Q0/x
bQqWTLREBb313mcbUBeWy/n2IgclGYToTxqjmbftje151Sr+/FxdBvEnGs5lqVzK
wNIWkoI7R7QpbXvYL+7G+UCTBK83/D7/WSoGlS2DXQl/f2iqCKPM0pl3sDjFzuDI
7aVouT6+Iwrf9I9Y4WYDS8mSTjMaUzjBmQXErpViCMfBwRrRiD+BDbbl6ePXtlET
IJdJnzqHnSw1o51VERmnMm0LTTtHmp0wOQooSaQ4hvvC3+Wq99s//X7ybsdsdoYH
mQcll4A5YINJKcRyaHGPe10+lq4E3voM
-----END CERTIFICATE-----
