Certificate:
    Data:
        Version: 3 (0x2)
        Serial Number: 1 (0x1)
        Signature Algorithm: ecdsa-with-SHA256
        Issuer: CN=root_ca_cert_ec
        Validity
            Not Before: Sep 12 10:53:57 2024 GMT
            Not After : Sep 10 10:53:57 2034 GMT
        Subject: CN=127.0.0.1
        Subject Public Key Info:
            Public Key Algorithm: id-ecPublicKey
                Public-Key: (256 bit)
                pub:
                    04:ff:c0:2f:8e:db:94:fc:9c:d6:a3:5c:11:35:cf:
                    d3:43:5c:26:a9:5b:24:31:14:53:41:71:6d:39:3f:
                    f6:8b:f7:f8:8b:61:48:ad:b8:56:d5:78:c3:9f:3a:
                    62:ce:8f:d9:c2:e6:ac:d2:d8:ba:80:a4:0a:f7:6d:
                    89:56:9c:6a:73
                ASN1 OID: prime256v1
                NIST CURVE: P-256
        X509v3 extensions:
            X509v3 Basic Constraints: critical
                CA:FALSE
            X509v3 Subject Key Identifier: 
                C0:92:59:7B:9F:69:84:67:90:C2:05:F2:B7:5C:B4:11:AE:7E:CC:9E
            X509v3 Authority Key Identifier: 
                D9:64:1D:23:FE:C0:E6:8B:56:A9:A4:73:5E:A3:35:0C:E3:5A:89:09
            X509v3 Extended Key Usage: 
                TLS Web Server Authentication, TLS Web Client Authentication
            X509v3 Subject Alternative Name: 
                IP Address:127.0.0.1
    Signature Algorithm: ecdsa-with-SHA256
    Signature Value:
        30:46:02:21:00:85:da:68:5a:57:32:28:37:02:e9:d0:86:4a:
        bf:1e:16:74:60:8c:2e:28:70:bd:c9:3d:39:6a:89:c7:8a:c5:
        d5:02:21:00:f4:f1:5c:a0:2a:02:bd:42:87:82:1a:b9:c5:f3:
        5a:48:8d:c1:f1:ef:d4:04:38:52:40:72:11:46:c3:00:97:44
-----BEGIN CERTIFICATE-----
MIIBnzCCAUSgAwIBAgIBATAKBggqhkjOPQQDAjAaMRgwFgYDVQQDDA9yb290X2Nh
X2NlcnRfZWMwHhcNMjQwOTEyMTA1MzU3WhcNMzQwOTEwMTA1MzU3WjAUMRIwEAYD
VQQDDAkxMjcuMC4wLjEwWTATBgcqhkjOPQIBBggqhkjOPQMBBwNCAAT/wC+O25T8
nNajXBE1z9NDXCapWyQxFFNBcW05P/aL9/iLYUituFbVeMOfOmLOj9nC5qzS2LqA
pAr3bYlWnGpzo4GAMH4wDAYDVR0TAQH/BAIwADAdBgNVHQ4EFgQUwJJZe59phGeQ
wgXyt1y0Ea5+zJ4wHwYDVR0jBBgwFoAU2WQdI/7A5otWqaRzXqM1DONaiQkwHQYD
VR0lBBYwFAYIKwYBBQUHAwEGCCsGAQUFBwMCMA8GA1UdEQQIMAaHBH8AAAEwCgYI
KoZIzj0EAwIDSQAwRgIhAIXaaFpXMig3AunQhkq/HhZ0YIwuKHC9yT05aonHisXV
AiEA9PFcoCoCvUKHghq5xfNaSI3B8e/UBDhSQHIRRsMAl0Q=
-----END CERTIFICATE-----
