Certificate:
    Data:
        Version: 3 (0x2)
        Serial Number: 1 (0x1)
        Signature Algorithm: sha256WithRSAEncryption
        Issuer: CN=intermediate_ca_cert
        Validity
            Not Before: Jul 18 09:31:32 2019 GMT
            Not After : Jul 15 09:31:32 2029 GMT
        Subject: CN=127.0.0.1
        Subject Public Key Info:
            Public Key Algorithm: rsaEncryption
                RSA Public-Key: (2048 bit)
                Modulus:
                    00:ca:5f:9b:3c:f8:4c:20:81:be:60:70:72:92:88:
                    45:52:1b:bb:3f:12:5a:83:cb:d1:88:78:e9:c3:85:
                    e1:2d:64:11:4c:b6:9c:36:2e:e7:a7:c1:89:5e:e2:
                    d9:cc:a6:76:50:c5:fc:6a:58:e4:7c:d9:70:c9:1a:
                    64:5c:32:41:91:1a:05:e9:21:59:2b:38:65:d0:d5:
                    54:3a:95:a3:ad:07:de:4f:6b:c6:61:cc:90:50:12:
                    e0:91:bd:3a:73:61:4b:5b:f0:9c:c3:54:bd:70:db:
                    72:db:58:18:89:98:07:bf:77:aa:e6:44:9b:09:df:
                    f1:c6:21:4d:0e:52:e0:a4:62:c5:49:6c:44:ea:c3:
                    2c:8d:6f:45:5e:85:4a:78:98:cf:79:99:b0:71:08:
                    95:43:58:ca:7b:c3:28:88:da:f9:78:3e:b6:cf:aa:
                    f0:20:55:7e:55:7d:4a:72:e4:51:d6:c3:a8:f5:06:
                    48:3c:08:2b:c1:88:bb:07:c9:ef:a5:f4:3b:93:cd:
                    5f:d5:3f:c4:f2:ec:67:61:9e:ee:0e:51:65:0a:22:
                    df:33:57:d7:17:63:06:ba:b8:ff:90:38:96:02:41:
                    99:53:58:fd:31:7e:64:75:94:10:d4:23:a7:a4:2b:
                    87:f7:78:6d:bd:99:91:40:4d:c6:7c:5f:6b:61:ca:
                    e5:5b
                Exponent: 65537 (0x10001)
        X509v3 extensions:
            X509v3 Basic Constraints: critical
                CA:FALSE
            X509v3 Subject Key Identifier: 
                4C:5B:DC:F0:80:9E:D8:80:BB:72:FB:C5:DD:24:AF:FA:E7:CD:D4:8B
            X509v3 Authority Key Identifier: 
                keyid:98:83:CE:76:1F:C8:B7:83:1B:BC:B7:EA:95:DD:56:5D:EF:B4:50:70

            X509v3 Extended Key Usage: 
                TLS Web Server Authentication, TLS Web Client Authentication
            X509v3 Subject Alternative Name: 
                IP Address:127.0.0.1
    Signature Algorithm: sha256WithRSAEncryption
         0c:ee:3f:14:8b:82:f8:eb:ad:ba:8e:2d:47:41:98:8f:27:b8:
         33:c7:8e:4b:c3:0d:d5:40:0e:18:cc:a6:81:57:71:01:0f:55:
         05:27:dc:5e:bf:81:cb:a7:6d:e2:a2:bd:04:4e:ce:f8:da:0e:
         cb:6e:ab:ca:11:1e:19:43:51:f8:ae:a9:7d:f6:39:39:9d:88:
         e4:3b:90:0b:0e:32:96:15:54:97:16:33:ca:38:dd:1b:c0:f8:
         b6:66:2f:10:06:ed:c3:67:2c:a8:b9:df:d6:22:31:1a:9e:b9:
         63:a3:f2:48:db:18:1a:42:65:dd:e0:2f:7d:12:77:bf:a7:c2:
         49:0c:64:55:87:6d:28:c5:a9:07:e4:f7:4e:de:86:2b:ca:24:
         9e:16:cd:31:8a:73:bf:15:bb:f1:f2:db:54:e9:e4:93:9d:a3:
         17:82:a5:c1:ed:a4:0e:51:72:57:12:e6:7b:86:1c:81:ce:98:
         b9:81:56:cd:be:6e:27:aa:14:a8:0e:f2:aa:10:38:5b:61:fc:
         6d:bb:0a:74:c5:e8:89:6e:56:42:7d:8d:f5:0d:2d:79:b4:93:
         2a:1a:4f:37:d2:06:2b:1f:19:93:3e:08:a0:99:8d:fe:d3:25:
         cc:4b:eb:bb:71:6c:5c:c6:67:a8:37:48:54:f8:6a:7f:15:ef:
         94:15:c5:1b
-----BEGIN CERTIFICATE-----
MIIDLzCCAhegAwIBAgIBATANBgkqhkiG9w0BAQsFADAfMR0wGwYDVQQDDBRpbnRl
cm1lZGlhdGVfY2FfY2VydDAeFw0xOTA3MTgwOTMxMzJaFw0yOTA3MTUwOTMxMzJa
MBQxEjAQBgNVBAMMCTEyNy4wLjAuMTCCASIwDQYJKoZIhvcNAQEBBQADggEPADCC
AQoCggEBAMpfmzz4TCCBvmBwcpKIRVIbuz8SWoPL0Yh46cOF4S1kEUy2nDYu56fB
iV7i2cymdlDF/GpY5HzZcMkaZFwyQZEaBekhWSs4ZdDVVDqVo60H3k9rxmHMkFAS
4JG9OnNhS1vwnMNUvXDbcttYGImYB793quZEmwnf8cYhTQ5S4KRixUlsROrDLI1v
RV6FSniYz3mZsHEIlUNYynvDKIja+Xg+ts+q8CBVflV9SnLkUdbDqPUGSDwIK8GI
uwfJ76X0O5PNX9U/xPLsZ2Ge7g5RZQoi3zNX1xdjBrq4/5A4lgJBmVNY/TF+ZHWU
ENQjp6Qrh/d4bb2ZkUBNxnxfa2HK5VsCAwEAAaOBgDB+MAwGA1UdEwEB/wQCMAAw
HQYDVR0OBBYEFExb3PCAntiAu3L7xd0kr/rnzdSLMB8GA1UdIwQYMBaAFJiDznYf
yLeDG7y36pXdVl3vtFBwMB0GA1UdJQQWMBQGCCsGAQUFBwMBBggrBgEFBQcDAjAP
BgNVHREECDAGhwR/AAABMA0GCSqGSIb3DQEBCwUAA4IBAQAM7j8Ui4L46626ji1H
QZiPJ7gzx45Lww3VQA4YzKaBV3EBD1UFJ9xev4HLp23ior0ETs742g7LbqvKER4Z
Q1H4rql99jk5nYjkO5ALDjKWFVSXFjPKON0bwPi2Zi8QBu3DZyyoud/WIjEanrlj
o/JI2xgaQmXd4C99Ene/p8JJDGRVh20oxakH5PdO3oYryiSeFs0xinO/Fbvx8ttU
6eSTnaMXgqXB7aQOUXJXEuZ7hhyBzpi5gVbNvm4nqhSoDvKqEDhbYfxtuwp0xeiJ
blZCfY31DS15tJMqGk830gYrHxmTPgigmY3+0yXMS+u7cWxcxmeoN0hU+Gp/Fe+U
FcUb
-----END CERTIFICATE-----
