Certificate:
    Data:
        Version: 3 (0x2)
        Serial Number: 1 (0x1)
        Signature Algorithm: ecdsa-with-SHA256
        Issuer: CN=intermediate_ca_cert_ec
        Validity
            Not Before: Sep 12 10:53:57 2024 GMT
            Not After : Sep 10 10:53:57 2034 GMT
        Subject: CN=127.0.0.1
        Subject Public Key Info:
            Public Key Algorithm: id-ecPublicKey
                Public-Key: (256 bit)
                pub:
                    04:c6:d8:33:f2:21:21:a7:36:2e:a7:28:11:69:f7:
                    94:90:74:1f:69:08:84:25:60:fe:02:fb:cc:3c:c8:
                    c0:9e:d1:e9:21:e6:3e:a6:5a:b3:8c:3f:7a:02:f3:
                    b2:8d:e9:a2:6a:8e:2a:8a:09:a3:2a:cc:ca:c4:08:
                    4a:74:89:b9:6c
                ASN1 OID: prime256v1
                NIST CURVE: P-256
        X509v3 extensions:
            X509v3 Basic Constraints: critical
                CA:FALSE
            X509v3 Subject Key Identifier: 
                9B:D8:48:7E:41:B0:7F:BC:43:B5:1F:46:F7:F9:8D:AD:D1:40:01:2E
            X509v3 Authority Key Identifier: 
                08:39:3F:08:ED:D4:14:68:50:F5:1E:D5:98:07:42:B5:67:FE:90:8E
            X509v3 Extended Key Usage: 
                TLS Web Server Authentication, TLS Web Client Authentication
            X509v3 Subject Alternative Name: 
                IP Address:127.0.0.1
    Signature Algorithm: ecdsa-with-SHA256
    Signature Value:
        30:45:02:21:00:c7:83:08:0d:c6:ca:6a:7b:fb:cc:3e:a5:cd:
        66:31:0d:f0:69:3a:76:29:27:12:e8:6c:ac:3b:a8:33:5d:74:
        9a:02:20:5f:cd:8f:e3:19:4a:a3:ea:ea:ef:4f:7d:86:7e:cd:
        87:3d:6e:1c:52:73:b2:ec:a0:50:88:42:a6:fc:d8:c0:58
-----BEGIN CERTIFICATE-----
MIIBpjCCAUygAwIBAgIBATAKBggqhkjOPQQDAjAiMSAwHgYDVQQDDBdpbnRlcm1l
ZGlhdGVfY2FfY2VydF9lYzAeFw0yNDA5MTIxMDUzNTdaFw0zNDA5MTAxMDUzNTda
MBQxEjAQBgNVBAMMCTEyNy4wLjAuMTBZMBMGByqGSM49AgEGCCqGSM49AwEHA0IA
BMbYM/IhIac2LqcoEWn3lJB0H2kIhCVg/gL7zDzIwJ7R6SHmPqZas4w/egLzso3p
omqOKooJoyrMysQISnSJuWyjgYAwfjAMBgNVHRMBAf8EAjAAMB0GA1UdDgQWBBSb
2Eh+QbB/vEO1H0b3+Y2t0UABLjAfBgNVHSMEGDAWgBQIOT8I7dQUaFD1HtWYB0K1
Z/6QjjAdBgNVHSUEFjAUBggrBgEFBQcDAQYIKwYBBQUHAwIwDwYDVR0RBAgwBocE
fwAAATAKBggqhkjOPQQDAgNIADBFAiEAx4MIDcbKanv7zD6lzWYxDfBpOnYpJxLo
bKw7qDNddJoCIF/Nj+MZSqPq6u9PfYZ+zYc9bhxSc7LsoFCIQqb82MBY
-----END CERTIFICATE-----
