Certificate:
    Data:
        Version: 3 (0x2)
        Serial Number: 1 (0x1)
        Signature Algorithm: sha256WithRSAEncryption
        Issuer: CN=root_ca_cert
        Validity
            Not Before: Jul 18 09:31:32 2019 GMT
            Not After : Jul 15 09:31:32 2029 GMT
        Subject: CN=127.0.0.1
        Subject Public Key Info:
            Public Key Algorithm: rsaEncryption
                RSA Public-Key: (2048 bit)
                Modulus:
                    00:c1:a7:bd:52:43:f9:a9:6b:d6:01:44:93:37:d3:
                    0c:68:39:f4:5c:05:72:5d:16:34:f1:89:49:25:b8:
                    05:19:81:8b:a2:cd:97:05:74:b4:97:3e:d1:4b:09:
                    29:3b:1d:58:50:13:24:92:e1:da:7f:fc:a3:64:78:
                    14:a0:c3:29:8c:35:56:69:63:fa:a7:4e:10:2c:97:
                    52:91:30:62:1c:b1:2e:9b:8d:d8:0a:b2:4c:0f:29:
                    17:8a:47:57:28:31:93:db:b1:71:72:16:cb:e0:9e:
                    c9:ae:06:de:a4:0e:1c:ed:98:4e:66:02:54:ad:50:
                    1d:21:9c:68:a3:e2:4c:f6:a8:c6:57:e0:e7:40:62:
                    91:9d:8c:c8:74:5b:74:94:99:de:14:a8:82:84:32:
                    14:e8:e4:ed:3e:b4:22:e1:83:54:49:03:9c:35:f0:
                    8b:cc:0a:bc:a9:2b:0f:9f:e6:cc:5f:2c:56:3c:e6:
                    e5:c5:11:d7:6d:91:58:c9:c0:0b:28:f5:f3:0e:47:
                    b3:5c:0f:b9:20:a7:9e:37:e4:19:14:73:52:9c:76:
                    e3:ef:72:f8:a6:0e:3d:77:a5:6a:03:18:8a:ec:9f:
                    37:9d:58:f0:77:e9:d0:41:1b:35:23:9a:2f:1c:e0:
                    26:a7:f3:0b:d5:eb:22:68:b9:66:af:24:35:b7:8b:
                    7a:af
                Exponent: 65537 (0x10001)
        X509v3 extensions:
            X509v3 Basic Constraints: critical
                CA:FALSE
            X509v3 Subject Key Identifier: 
                2D:E2:46:99:F3:98:9D:07:A8:32:B5:7D:2B:63:F8:0F:86:EF:37:52
            X509v3 Authority Key Identifier: 
                keyid:45:DA:86:F6:87:7F:4D:80:C5:95:50:32:E8:CB:3C:35:30:BD:93:71

            X509v3 Extended Key Usage: 
                TLS Web Server Authentication, TLS Web Client Authentication
            X509v3 Subject Alternative Name: 
                IP Address:127.0.0.1
    Signature Algorithm: sha256WithRSAEncryption
         60:e0:7d:c6:c5:95:5b:1a:f2:22:a8:f2:6b:bc:f2:12:72:d5:
         a5:e2:03:c5:6e:53:70:ea:6c:98:97:18:0b:10:94:21:bf:87:
         49:16:63:18:d5:b3:08:4d:23:dd:36:98:8e:57:a5:28:55:41:
         04:c2:e9:5c:58:23:1c:e0:59:68:81:ec:94:74:07:7a:dc:b9:
         2a:9f:e0:86:42:d1:fa:95:fc:2f:5f:4c:0f:73:70:98:65:6a:
         24:d7:db:3a:88:e9:62:5a:be:07:e7:53:a1:55:6c:4b:c6:07:
         bd:05:75:e4:1a:70:c0:df:04:74:36:ec:43:dd:15:4f:2e:a0:
         ea:d8:4b:f6:cb:56:dc:0f:a5:06:7c:55:11:1e:41:b2:d0:52:
         a6:61:3a:91:1f:db:3e:a1:0a:c7:e9:11:0a:ad:6b:e8:99:11:
         64:15:be:ab:c1:6b:5b:03:e4:5d:cb:98:a3:b8:eb:77:b2:3a:
         71:13:0c:99:bb:58:32:54:87:23:5a:11:c7:e5:b9:79:cc:a2:
         7f:3d:ec:3a:6f:b0:35:19:82:69:9a:1a:ed:da:ae:f0:4a:b1:
         c1:60:06:eb:a8:f6:7c:be:64:58:fd:8f:2d:bb:2b:dc:f5:21:
         cb:14:48:5a:e7:b6:af:fe:04:14:8c:ad:2e:70:7e:ba:fc:a4:
         da:05:98:f1
-----BEGIN CERTIFICATE-----
MIIDJzCCAg+gAwIBAgIBATANBgkqhkiG9w0BAQsFADAXMRUwEwYDVQQDDAxyb290
X2NhX2NlcnQwHhcNMTkwNzE4MDkzMTMyWhcNMjkwNzE1MDkzMTMyWjAUMRIwEAYD
VQQDDAkxMjcuMC4wLjEwggEiMA0GCSqGSIb3DQEBAQUAA4IBDwAwggEKAoIBAQDB
p71SQ/mpa9YBRJM30wxoOfRcBXJdFjTxiUkluAUZgYuizZcFdLSXPtFLCSk7HVhQ
EySS4dp//KNkeBSgwymMNVZpY/qnThAsl1KRMGIcsS6bjdgKskwPKReKR1coMZPb
sXFyFsvgnsmuBt6kDhztmE5mAlStUB0hnGij4kz2qMZX4OdAYpGdjMh0W3SUmd4U
qIKEMhTo5O0+tCLhg1RJA5w18IvMCrypKw+f5sxfLFY85uXFEddtkVjJwAso9fMO
R7NcD7kgp5435BkUc1KcduPvcvimDj13pWoDGIrsnzedWPB36dBBGzUjmi8c4Can
8wvV6yJouWavJDW3i3qvAgMBAAGjgYAwfjAMBgNVHRMBAf8EAjAAMB0GA1UdDgQW
BBQt4kaZ85idB6gytX0rY/gPhu83UjAfBgNVHSMEGDAWgBRF2ob2h39NgMWVUDLo
yzw1ML2TcTAdBgNVHSUEFjAUBggrBgEFBQcDAQYIKwYBBQUHAwIwDwYDVR0RBAgw
BocEfwAAATANBgkqhkiG9w0BAQsFAAOCAQEAYOB9xsWVWxryIqjya7zyEnLVpeID
xW5TcOpsmJcYCxCUIb+HSRZjGNWzCE0j3TaYjlelKFVBBMLpXFgjHOBZaIHslHQH
ety5Kp/ghkLR+pX8L19MD3NwmGVqJNfbOojpYlq+B+dToVVsS8YHvQV15BpwwN8E
dDbsQ90VTy6g6thL9stW3A+lBnxVER5BstBSpmE6kR/bPqEKx+kRCq1r6JkRZBW+
q8FrWwPkXcuYo7jrd7I6cRMMmbtYMlSHI1oRx+W5ecyifz3sOm+wNRmCaZoa7dqu
8EqxwWAG66j2fL5kWP2PLbsr3PUhyxRIWue2r/4EFIytLnB+uvyk2gWY8Q==
-----END CERTIFICATE-----
