[Created by: generate-chains.py]

Certificate chain where the intermediate has a valid signature, however uses
MD5 in the signature algorithm.

Certificate:
    Data:
        Version: 3 (0x2)
        Serial Number:
            70:a7:83:31:c0:be:2b:86:e1:e6:72:7f:d3:1f:63:e7:80:79:6e:d5
        Signature Algorithm: sha256WithRSAEncryption
        Issuer: CN=Intermediate
        Validity
            Not Before: Oct  5 12:00:00 2022 GMT
            Not After : Oct  5 12:00:00 2023 GMT
        Subject: CN=Target
        Subject Public Key Info:
            Public Key Algorithm: rsaEncryption
                Public-Key: (2048 bit)
                Modulus:
                    00:c7:dd:eb:5a:f4:88:03:0a:d7:b6:29:95:e0:58:
                    03:c6:35:36:b0:9e:e8:09:94:21:ba:07:cf:70:cc:
                    52:c7:2c:fd:fe:c0:86:50:b3:0c:7b:46:cf:eb:a3:
                    bd:5a:29:32:58:81:09:ff:85:f8:b3:77:75:58:61:
                    22:f1:59:99:1f:0d:58:dd:ff:f5:a8:51:62:0a:58:
                    db:20:8e:fd:5a:43:96:8f:cd:8c:98:ca:f4:ef:4c:
                    f6:1e:48:dc:48:46:60:8c:67:0f:9a:41:2b:6b:72:
                    e2:ce:11:25:3d:21:99:fa:3f:ca:34:b8:ae:f1:29:
                    7a:ce:bc:1c:ce:98:50:d6:70:93:0a:a5:c4:7e:05:
                    34:46:f1:ef:36:59:90:62:c2:b8:b9:71:ed:df:c0:
                    f8:fd:ff:08:fa:db:05:7d:99:35:2a:65:08:e0:a1:
                    66:cb:7d:55:bc:72:d8:1f:7d:0c:11:e2:8b:11:51:
                    2e:88:b1:d1:72:5f:c5:6b:ac:f0:1e:3f:97:b8:0e:
                    d4:49:9d:a0:b5:be:23:79:b1:0f:19:90:c6:00:e1:
                    62:b4:d5:db:25:8c:11:01:92:9d:17:16:fd:ee:bf:
                    37:6a:2a:d9:b4:4d:83:0c:24:2c:f8:28:7f:52:9d:
                    6b:b3:ac:b2:2b:86:e8:fe:f8:a5:3a:cc:9d:eb:08:
                    f0:6f
                Exponent: 65537 (0x10001)
        X509v3 extensions:
            X509v3 Subject Key Identifier: 
                4A:A4:1B:84:D7:FB:A1:F1:FB:D4:71:87:01:11:63:87:06:5D:A6:D1
            X509v3 Authority Key Identifier: 
                A6:86:14:22:AB:40:E8:07:5F:13:64:F3:8D:60:DE:30:B4:0B:B3:31
            Authority Information Access: 
                CA Issuers - URI:http://url-for-aia/Intermediate.cer
            X509v3 CRL Distribution Points: 
                Full Name:
                  URI:http://url-for-crl/Intermediate.crl
            X509v3 Key Usage: critical
                Digital Signature, Key Encipherment
            X509v3 Extended Key Usage: 
                TLS Web Server Authentication, TLS Web Client Authentication
    Signature Algorithm: sha256WithRSAEncryption
    Signature Value:
        65:5f:eb:45:a5:7c:08:83:60:03:0b:23:9c:b0:83:61:c9:e5:
        20:b2:65:75:8d:f0:89:ad:f1:02:80:8d:f2:97:32:2a:26:e0:
        d8:95:fa:11:d6:fd:e2:41:e5:56:61:7a:5e:ee:2a:1c:f0:f9:
        1b:32:35:92:cf:b8:b1:9c:33:67:54:68:de:df:e7:3a:cb:c4:
        c3:c3:c4:aa:26:8c:1f:a0:f7:23:91:24:42:d6:04:b5:3c:6b:
        99:ab:52:4b:ed:f3:f3:28:3d:56:df:14:4b:70:3f:f2:fc:e7:
        7b:de:e4:bc:ec:a7:97:5f:e6:44:c3:16:ad:f9:dd:00:97:70:
        81:a8:c9:dc:87:47:95:66:e6:01:ef:48:6b:37:f7:db:15:51:
        29:7f:1d:14:9a:06:ed:72:9e:5a:5b:60:58:3a:ae:95:43:88:
        bf:fd:51:02:f4:7f:95:a3:45:63:fd:13:cf:a3:ee:36:02:99:
        e2:6f:b8:0a:76:92:85:b9:9d:43:f8:08:10:04:64:ba:19:6a:
        78:38:fc:03:08:4e:68:01:c0:29:ca:cb:b2:8b:fb:1f:fa:9e:
        64:ee:8e:57:6d:8c:fa:01:ba:91:9f:b8:1b:89:41:59:20:aa:
        a3:41:ae:32:5e:1a:ee:96:43:24:77:3c:d4:ba:93:32:e6:5d:
        ef:21:2c:63
-----BEGIN CERTIFICATE-----
MIIDoDCCAoigAwIBAgIUcKeDMcC+K4bh5nJ/0x9j54B5btUwDQYJKoZIhvcNAQEL
BQAwFzEVMBMGA1UEAwwMSW50ZXJtZWRpYXRlMB4XDTIyMTAwNTEyMDAwMFoXDTIz
MTAwNTEyMDAwMFowETEPMA0GA1UEAwwGVGFyZ2V0MIIBIjANBgkqhkiG9w0BAQEF
AAOCAQ8AMIIBCgKCAQEAx93rWvSIAwrXtimV4FgDxjU2sJ7oCZQhugfPcMxSxyz9
/sCGULMMe0bP66O9WikyWIEJ/4X4s3d1WGEi8VmZHw1Y3f/1qFFiCljbII79WkOW
j82MmMr070z2HkjcSEZgjGcPmkEra3LizhElPSGZ+j/KNLiu8Sl6zrwczphQ1nCT
CqXEfgU0RvHvNlmQYsK4uXHt38D4/f8I+tsFfZk1KmUI4KFmy31VvHLYH30MEeKL
EVEuiLHRcl/Fa6zwHj+XuA7USZ2gtb4jebEPGZDGAOFitNXbJYwRAZKdFxb97r83
airZtE2DDCQs+Ch/Up1rs6yyK4bo/vilOsyd6wjwbwIDAQABo4HpMIHmMB0GA1Ud
DgQWBBRKpBuE1/uh8fvUcYcBEWOHBl2m0TAfBgNVHSMEGDAWgBSmhhQiq0DoB18T
ZPONYN4wtAuzMTA/BggrBgEFBQcBAQQzMDEwLwYIKwYBBQUHMAKGI2h0dHA6Ly91
cmwtZm9yLWFpYS9JbnRlcm1lZGlhdGUuY2VyMDQGA1UdHwQtMCswKaAnoCWGI2h0
dHA6Ly91cmwtZm9yLWNybC9JbnRlcm1lZGlhdGUuY3JsMA4GA1UdDwEB/wQEAwIF
oDAdBgNVHSUEFjAUBggrBgEFBQcDAQYIKwYBBQUHAwIwDQYJKoZIhvcNAQELBQAD
ggEBAGVf60WlfAiDYAMLI5ywg2HJ5SCyZXWN8Imt8QKAjfKXMiom4NiV+hHW/eJB
5VZhel7uKhzw+RsyNZLPuLGcM2dUaN7f5zrLxMPDxKomjB+g9yORJELWBLU8a5mr
Ukvt8/MoPVbfFEtwP/L853ve5Lzsp5df5kTDFq353QCXcIGoydyHR5Vm5gHvSGs3
99sVUSl/HRSaBu1ynlpbYFg6rpVDiL/9UQL0f5WjRWP9E8+j7jYCmeJvuAp2koW5
nUP4CBAEZLoZang4/AMITmgBwCnKy7KL+x/6nmTujldtjPoBupGfuBuJQVkgqqNB
rjJeGu6WQyR3PNS6kzLmXe8hLGM=
-----END CERTIFICATE-----

Certificate:
    Data:
        Version: 3 (0x2)
        Serial Number:
            33:57:99:fd:87:a4:e1:51:aa:94:8f:97:f1:9d:32:d1:b0:22:c3:6d
        Signature Algorithm: md5WithRSAEncryption
        Issuer: CN=Root
        Validity
            Not Before: Oct  5 12:00:00 2022 GMT
            Not After : Oct  5 12:00:00 2023 GMT
        Subject: CN=Intermediate
        Subject Public Key Info:
            Public Key Algorithm: rsaEncryption
                Public-Key: (2048 bit)
                Modulus:
                    00:eb:61:9e:9d:4b:23:cc:8e:39:d9:ac:07:05:da:
                    32:34:de:2a:dd:2f:62:ed:87:ce:7c:59:c4:9d:8e:
                    28:76:d1:f2:65:60:91:3f:7b:63:a4:2f:50:c4:da:
                    12:5b:71:a0:97:4f:26:cf:e7:b2:01:84:67:57:f5:
                    86:36:54:68:0f:28:f0:ea:7b:ca:1e:1a:bc:7e:67:
                    cf:fd:14:63:ee:c1:33:92:01:70:bc:12:6b:7d:2c:
                    8d:02:34:8e:85:1a:e4:f5:99:b6:c8:d5:18:d9:04:
                    a6:f5:40:fc:96:50:e2:3f:87:a0:d6:72:be:a3:a3:
                    45:89:07:74:d0:2e:9c:0d:88:12:02:a3:ef:17:ad:
                    2c:2d:71:66:11:89:3f:cf:57:77:28:77:70:bb:0f:
                    39:b0:b1:34:9d:e9:f7:a2:56:af:57:7e:ed:44:f8:
                    be:78:3d:28:c5:0d:37:15:2c:f6:99:4e:05:70:ae:
                    c5:99:45:a7:3f:bd:83:79:6a:a3:67:ff:71:2d:60:
                    e2:08:91:23:45:40:b1:40:52:e1:3b:1d:5d:d1:e9:
                    c2:b0:b1:c4:fb:7c:af:9c:c1:95:f1:a5:23:16:19:
                    75:9f:ef:be:b8:79:a7:f4:c5:b2:47:ae:6d:1c:15:
                    9c:26:0f:b2:0f:ec:92:8d:5a:79:c9:9e:16:e0:70:
                    bc:ef
                Exponent: 65537 (0x10001)
        X509v3 extensions:
            X509v3 Subject Key Identifier: 
                A6:86:14:22:AB:40:E8:07:5F:13:64:F3:8D:60:DE:30:B4:0B:B3:31
            X509v3 Authority Key Identifier: 
                C4:01:16:E5:A0:16:10:29:62:67:7B:D1:22:42:6C:6F:15:2B:AF:96
            Authority Information Access: 
                CA Issuers - URI:http://url-for-aia/Root.cer
            X509v3 CRL Distribution Points: 
                Full Name:
                  URI:http://url-for-crl/Root.crl
            X509v3 Key Usage: critical
                Certificate Sign, CRL Sign
            X509v3 Basic Constraints: critical
                CA:TRUE
    Signature Algorithm: md5WithRSAEncryption
    Signature Value:
        49:37:c3:39:b3:63:b2:06:74:1c:39:d8:60:14:93:1f:76:8e:
        a3:c5:b4:f2:89:cc:18:06:54:fe:05:62:42:1c:04:83:72:00:
        76:8f:3b:4a:61:dc:ca:cb:a7:0d:f9:b5:b9:f9:5b:8a:44:97:
        de:4b:a0:6b:14:78:b8:f9:86:47:95:2e:b8:34:e3:f1:5f:ad:
        06:f1:2a:f2:da:85:83:60:b4:66:42:84:83:51:ff:f6:63:f7:
        20:69:3c:10:88:98:ef:38:cb:7a:70:f4:fe:ae:64:3e:3d:73:
        00:02:64:e7:69:e1:37:f0:9a:9c:73:36:59:31:23:f1:09:f7:
        78:aa:ff:72:a3:b4:d9:32:ea:42:69:a3:17:2f:9d:8d:c2:15:
        d8:fe:82:92:f0:ff:3c:f6:45:5e:ed:af:4c:9a:9c:2e:d0:19:
        6c:91:04:cb:80:e3:8a:60:18:05:78:2d:fb:f9:28:e7:07:d0:
        35:26:79:1b:e5:c3:3d:e7:dd:73:75:b1:0b:4f:29:81:e4:51:
        21:76:df:a4:c9:6a:5e:5c:59:cf:4d:d2:18:07:67:fc:a4:32:
        9d:37:3e:93:82:0a:af:7e:37:03:f1:5b:4d:38:c3:22:d6:ea:
        62:c8:41:53:9f:0b:5e:5d:2d:98:8f:a8:c5:20:65:f3:47:dc:
        c7:1c:7e:4f
-----BEGIN CERTIFICATE-----
MIIDgDCCAmigAwIBAgIUM1eZ/Yek4VGqlI+X8Z0y0bAiw20wDQYJKoZIhvcNAQEE
BQAwDzENMAsGA1UEAwwEUm9vdDAeFw0yMjEwMDUxMjAwMDBaFw0yMzEwMDUxMjAw
MDBaMBcxFTATBgNVBAMMDEludGVybWVkaWF0ZTCCASIwDQYJKoZIhvcNAQEBBQAD
ggEPADCCAQoCggEBAOthnp1LI8yOOdmsBwXaMjTeKt0vYu2HznxZxJ2OKHbR8mVg
kT97Y6QvUMTaEltxoJdPJs/nsgGEZ1f1hjZUaA8o8Op7yh4avH5nz/0UY+7BM5IB
cLwSa30sjQI0joUa5PWZtsjVGNkEpvVA/JZQ4j+HoNZyvqOjRYkHdNAunA2IEgKj
7xetLC1xZhGJP89Xdyh3cLsPObCxNJ3p96JWr1d+7UT4vng9KMUNNxUs9plOBXCu
xZlFpz+9g3lqo2f/cS1g4giRI0VAsUBS4TsdXdHpwrCxxPt8r5zBlfGlIxYZdZ/v
vrh5p/TFskeubRwVnCYPsg/sko1aecmeFuBwvO8CAwEAAaOByzCByDAdBgNVHQ4E
FgQUpoYUIqtA6AdfE2TzjWDeMLQLszEwHwYDVR0jBBgwFoAUxAEW5aAWECliZ3vR
IkJsbxUrr5YwNwYIKwYBBQUHAQEEKzApMCcGCCsGAQUFBzAChhtodHRwOi8vdXJs
LWZvci1haWEvUm9vdC5jZXIwLAYDVR0fBCUwIzAhoB+gHYYbaHR0cDovL3VybC1m
b3ItY3JsL1Jvb3QuY3JsMA4GA1UdDwEB/wQEAwIBBjAPBgNVHRMBAf8EBTADAQH/
MA0GCSqGSIb3DQEBBAUAA4IBAQBJN8M5s2OyBnQcOdhgFJMfdo6jxbTyicwYBlT+
BWJCHASDcgB2jztKYdzKy6cN+bW5+VuKRJfeS6BrFHi4+YZHlS64NOPxX60G8Sry
2oWDYLRmQoSDUf/2Y/cgaTwQiJjvOMt6cPT+rmQ+PXMAAmTnaeE38JqcczZZMSPx
Cfd4qv9yo7TZMupCaaMXL52NwhXY/oKS8P889kVe7a9Mmpwu0BlskQTLgOOKYBgF
eC37+SjnB9A1Jnkb5cM9591zdbELTymB5FEhdt+kyWpeXFnPTdIYB2f8pDKdNz6T
ggqvfjcD8VtNOMMi1upiyEFTnwteXS2Yj6jFIGXzR9zHHH5P
-----END CERTIFICATE-----

Certificate:
    Data:
        Version: 3 (0x2)
        Serial Number:
            33:57:99:fd:87:a4:e1:51:aa:94:8f:97:f1:9d:32:d1:b0:22:c3:6c
        Signature Algorithm: sha256WithRSAEncryption
        Issuer: CN=Root
        Validity
            Not Before: Oct  5 12:00:00 2022 GMT
            Not After : Oct  5 12:00:00 2023 GMT
        Subject: CN=Root
        Subject Public Key Info:
            Public Key Algorithm: rsaEncryption
                Public-Key: (2048 bit)
                Modulus:
                    00:cc:b2:cd:77:8f:be:c9:a5:17:ad:e5:ac:2d:b2:
                    c0:1f:33:5e:ed:d9:96:57:14:9b:a4:37:d8:a0:3d:
                    e4:2c:56:95:4d:75:68:4f:77:06:24:e0:0f:e9:b6:
                    de:6f:dd:a7:f6:93:dc:f3:48:10:fa:fb:90:b5:43:
                    42:0b:9d:d7:e9:0c:2c:69:7b:3a:4f:73:31:00:0c:
                    ba:15:cc:dd:77:a6:a9:f9:21:b8:97:aa:b7:a4:99:
                    6c:08:a0:8e:9f:b8:29:47:df:db:b9:b0:39:e5:4f:
                    be:47:2f:93:76:5b:6b:02:fe:ec:66:31:c2:de:8e:
                    0a:67:89:a4:70:cb:32:40:db:63:00:57:40:b4:8e:
                    b8:24:e4:de:33:62:24:7a:e5:b2:18:41:54:f7:98:
                    d9:f5:c8:23:1e:88:5a:a6:1c:7e:92:0f:92:56:49:
                    0e:5a:dc:49:4b:d1:f8:1b:73:b0:31:6f:37:7e:cf:
                    91:f4:40:e6:8b:36:11:fb:0f:79:ea:d2:80:f5:8e:
                    c1:24:d2:fe:2f:c1:58:6d:32:2e:04:64:b2:20:d2:
                    cd:a1:79:8b:08:25:8f:1e:89:fe:43:3f:bf:de:49:
                    f2:fa:bb:d7:52:6e:19:8f:4c:b6:6e:4f:59:48:63:
                    e2:c9:55:0f:58:89:93:85:e0:58:ee:80:16:5f:c4:
                    77:b9
                Exponent: 65537 (0x10001)
        X509v3 extensions:
            X509v3 Subject Key Identifier: 
                C4:01:16:E5:A0:16:10:29:62:67:7B:D1:22:42:6C:6F:15:2B:AF:96
            X509v3 Authority Key Identifier: 
                C4:01:16:E5:A0:16:10:29:62:67:7B:D1:22:42:6C:6F:15:2B:AF:96
            Authority Information Access: 
                CA Issuers - URI:http://url-for-aia/Root.cer
            X509v3 CRL Distribution Points: 
                Full Name:
                  URI:http://url-for-crl/Root.crl
            X509v3 Key Usage: critical
                Certificate Sign, CRL Sign
            X509v3 Basic Constraints: critical
                CA:TRUE
    Signature Algorithm: sha256WithRSAEncryption
    Signature Value:
        87:b8:b2:a1:5b:23:a3:93:fe:35:aa:fe:45:86:bc:64:60:cd:
        b5:d7:2b:d9:eb:ea:75:35:4d:88:0f:f6:4e:d5:e1:f0:3a:dd:
        22:ad:31:8f:b8:ab:6e:7b:84:45:54:76:10:07:d8:d1:1e:de:
        92:f9:94:f7:e6:ef:32:75:a1:9b:d6:23:24:73:29:b4:cc:85:
        1d:6f:ee:3e:f4:1e:5c:ad:86:21:69:94:d3:14:0e:b2:6c:f1:
        8e:b4:a9:72:06:de:4b:c2:38:79:db:fe:f4:38:cc:08:fd:47:
        82:69:f7:21:b1:b6:4f:ef:2a:6d:16:44:24:56:0f:a8:0b:d3:
        52:34:7a:24:c9:b4:ea:6a:35:d5:63:19:26:b7:13:c2:c4:eb:
        4f:c0:6b:63:a7:e2:81:de:46:22:ae:77:9e:a0:50:79:88:c9:
        e7:5f:14:f1:98:7f:26:88:a7:c7:43:7b:ec:f6:c7:bf:f4:44:
        fe:38:3c:a0:53:99:d5:18:67:74:cc:30:d4:40:10:ae:39:21:
        61:80:51:64:76:36:b1:06:9b:00:7e:54:9b:71:ab:d6:f0:17:
        2d:65:05:56:8a:13:16:d7:3a:ae:5d:3f:c4:9d:0f:7c:5d:98:
        b0:6b:0e:25:f4:60:8c:b5:ed:e7:58:d0:c9:12:7f:3b:e7:00:
        db:7f:13:5f
-----BEGIN CERTIFICATE-----
MIIDeDCCAmCgAwIBAgIUM1eZ/Yek4VGqlI+X8Z0y0bAiw2wwDQYJKoZIhvcNAQEL
BQAwDzENMAsGA1UEAwwEUm9vdDAeFw0yMjEwMDUxMjAwMDBaFw0yMzEwMDUxMjAw
MDBaMA8xDTALBgNVBAMMBFJvb3QwggEiMA0GCSqGSIb3DQEBAQUAA4IBDwAwggEK
AoIBAQDMss13j77JpRet5awtssAfM17t2ZZXFJukN9igPeQsVpVNdWhPdwYk4A/p
tt5v3af2k9zzSBD6+5C1Q0ILndfpDCxpezpPczEADLoVzN13pqn5IbiXqrekmWwI
oI6fuClH39u5sDnlT75HL5N2W2sC/uxmMcLejgpniaRwyzJA22MAV0C0jrgk5N4z
YiR65bIYQVT3mNn1yCMeiFqmHH6SD5JWSQ5a3ElL0fgbc7Axbzd+z5H0QOaLNhH7
D3nq0oD1jsEk0v4vwVhtMi4EZLIg0s2heYsIJY8eif5DP7/eSfL6u9dSbhmPTLZu
T1lIY+LJVQ9YiZOF4FjugBZfxHe5AgMBAAGjgcswgcgwHQYDVR0OBBYEFMQBFuWg
FhApYmd70SJCbG8VK6+WMB8GA1UdIwQYMBaAFMQBFuWgFhApYmd70SJCbG8VK6+W
MDcGCCsGAQUFBwEBBCswKTAnBggrBgEFBQcwAoYbaHR0cDovL3VybC1mb3ItYWlh
L1Jvb3QuY2VyMCwGA1UdHwQlMCMwIaAfoB2GG2h0dHA6Ly91cmwtZm9yLWNybC9S
b290LmNybDAOBgNVHQ8BAf8EBAMCAQYwDwYDVR0TAQH/BAUwAwEB/zANBgkqhkiG
9w0BAQsFAAOCAQEAh7iyoVsjo5P+Nar+RYa8ZGDNtdcr2evqdTVNiA/2TtXh8Drd
Iq0xj7irbnuERVR2EAfY0R7ekvmU9+bvMnWhm9YjJHMptMyFHW/uPvQeXK2GIWmU
0xQOsmzxjrSpcgbeS8I4edv+9DjMCP1Hgmn3IbG2T+8qbRZEJFYPqAvTUjR6JMm0
6mo11WMZJrcTwsTrT8BrY6figd5GIq53nqBQeYjJ518U8Zh/Joinx0N77PbHv/RE
/jg8oFOZ1RhndMww1EAQrjkhYYBRZHY2sQabAH5Um3Gr1vAXLWUFVooTFtc6rl0/
xJ0PfF2YsGsOJfRgjLXt51jQyRJ/O+cA238TXw==
-----END CERTIFICATE-----
