[Created by: generate-chains.py]

Certificate chain where the intermediate has a valid signature, however uses
MD5 in the signature algorithm.

Certificate:
    Data:
        Version: 3 (0x2)
        Serial Number:
            70:a7:83:31:c0:be:2b:86:e1:e6:72:7f:d3:1f:63:e7:80:79:6e:d5
        Signature Algorithm: sha256WithRSAEncryption
        Issuer: CN=Intermediate
        Validity
            Not Before: Nov  3 12:00:00 2020 GMT
            Not After : Nov  3 12:00:00 2021 GMT
        Subject: CN=Target
        Subject Public Key Info:
            Public Key Algorithm: rsaEncryption
                RSA Public-Key: (2048 bit)
                Modulus:
                    00:c7:dd:eb:5a:f4:88:03:0a:d7:b6:29:95:e0:58:
                    03:c6:35:36:b0:9e:e8:09:94:21:ba:07:cf:70:cc:
                    52:c7:2c:fd:fe:c0:86:50:b3:0c:7b:46:cf:eb:a3:
                    bd:5a:29:32:58:81:09:ff:85:f8:b3:77:75:58:61:
                    22:f1:59:99:1f:0d:58:dd:ff:f5:a8:51:62:0a:58:
                    db:20:8e:fd:5a:43:96:8f:cd:8c:98:ca:f4:ef:4c:
                    f6:1e:48:dc:48:46:60:8c:67:0f:9a:41:2b:6b:72:
                    e2:ce:11:25:3d:21:99:fa:3f:ca:34:b8:ae:f1:29:
                    7a:ce:bc:1c:ce:98:50:d6:70:93:0a:a5:c4:7e:05:
                    34:46:f1:ef:36:59:90:62:c2:b8:b9:71:ed:df:c0:
                    f8:fd:ff:08:fa:db:05:7d:99:35:2a:65:08:e0:a1:
                    66:cb:7d:55:bc:72:d8:1f:7d:0c:11:e2:8b:11:51:
                    2e:88:b1:d1:72:5f:c5:6b:ac:f0:1e:3f:97:b8:0e:
                    d4:49:9d:a0:b5:be:23:79:b1:0f:19:90:c6:00:e1:
                    62:b4:d5:db:25:8c:11:01:92:9d:17:16:fd:ee:bf:
                    37:6a:2a:d9:b4:4d:83:0c:24:2c:f8:28:7f:52:9d:
                    6b:b3:ac:b2:2b:86:e8:fe:f8:a5:3a:cc:9d:eb:08:
                    f0:6f
                Exponent: 65537 (0x10001)
        X509v3 extensions:
            X509v3 Subject Key Identifier: 
                4A:A4:1B:84:D7:FB:A1:F1:FB:D4:71:87:01:11:63:87:06:5D:A6:D1
            X509v3 Authority Key Identifier: 
                keyid:A6:86:14:22:AB:40:E8:07:5F:13:64:F3:8D:60:DE:30:B4:0B:B3:31

            Authority Information Access: 
                CA Issuers - URI:http://url-for-aia/Intermediate.cer

            X509v3 CRL Distribution Points: 

                Full Name:
                  URI:http://url-for-crl/Intermediate.crl

            X509v3 Key Usage: critical
                Digital Signature, Key Encipherment
            X509v3 Extended Key Usage: 
                TLS Web Server Authentication, TLS Web Client Authentication
    Signature Algorithm: sha256WithRSAEncryption
         6c:8d:54:4b:dd:98:01:e8:aa:50:70:99:df:ea:ef:8b:e6:92:
         f6:d3:8d:12:be:5d:46:8a:aa:09:47:0f:7c:24:c4:02:89:fa:
         c2:45:bf:18:41:9d:b6:bd:e7:15:6b:01:9d:cc:b9:3b:3e:95:
         61:64:e1:36:af:79:99:27:58:56:05:20:96:8d:d2:da:61:23:
         07:b9:fa:c3:dc:b4:8c:53:00:7d:8b:3c:f5:63:fd:3d:1d:d6:
         78:68:f8:2a:82:e3:a3:d2:69:44:30:02:dd:53:f6:bb:13:22:
         06:71:8e:a1:4e:a1:9d:ad:30:9e:8e:f4:5e:89:98:ca:ee:54:
         ee:23:4b:1d:08:a9:22:71:af:e1:47:67:c2:a9:30:f7:a1:27:
         b7:d9:17:ad:d4:e1:d0:7c:18:fe:cf:96:97:36:94:8b:ed:ce:
         19:49:15:6d:f8:50:e3:a1:d7:6e:35:e8:c1:7c:68:2f:bf:5f:
         57:fc:40:aa:3d:d2:99:e8:45:20:07:14:3d:0b:06:8e:21:00:
         f2:27:b3:57:f8:42:6a:d9:65:34:a7:21:d8:02:bf:1e:04:61:
         a7:8c:72:e1:43:cf:3c:87:c7:d9:76:28:21:d4:5a:68:20:82:
         f5:0b:df:e5:26:43:42:5c:36:d4:2b:49:4d:81:c2:02:1c:80:
         14:c7:33:b0
-----BEGIN CERTIFICATE-----
MIIDoDCCAoigAwIBAgIUcKeDMcC+K4bh5nJ/0x9j54B5btUwDQYJKoZIhvcNAQEL
BQAwFzEVMBMGA1UEAwwMSW50ZXJtZWRpYXRlMB4XDTIwMTEwMzEyMDAwMFoXDTIx
MTEwMzEyMDAwMFowETEPMA0GA1UEAwwGVGFyZ2V0MIIBIjANBgkqhkiG9w0BAQEF
AAOCAQ8AMIIBCgKCAQEAx93rWvSIAwrXtimV4FgDxjU2sJ7oCZQhugfPcMxSxyz9
/sCGULMMe0bP66O9WikyWIEJ/4X4s3d1WGEi8VmZHw1Y3f/1qFFiCljbII79WkOW
j82MmMr070z2HkjcSEZgjGcPmkEra3LizhElPSGZ+j/KNLiu8Sl6zrwczphQ1nCT
CqXEfgU0RvHvNlmQYsK4uXHt38D4/f8I+tsFfZk1KmUI4KFmy31VvHLYH30MEeKL
EVEuiLHRcl/Fa6zwHj+XuA7USZ2gtb4jebEPGZDGAOFitNXbJYwRAZKdFxb97r83
airZtE2DDCQs+Ch/Up1rs6yyK4bo/vilOsyd6wjwbwIDAQABo4HpMIHmMB0GA1Ud
DgQWBBRKpBuE1/uh8fvUcYcBEWOHBl2m0TAfBgNVHSMEGDAWgBSmhhQiq0DoB18T
ZPONYN4wtAuzMTA/BggrBgEFBQcBAQQzMDEwLwYIKwYBBQUHMAKGI2h0dHA6Ly91
cmwtZm9yLWFpYS9JbnRlcm1lZGlhdGUuY2VyMDQGA1UdHwQtMCswKaAnoCWGI2h0
dHA6Ly91cmwtZm9yLWNybC9JbnRlcm1lZGlhdGUuY3JsMA4GA1UdDwEB/wQEAwIF
oDAdBgNVHSUEFjAUBggrBgEFBQcDAQYIKwYBBQUHAwIwDQYJKoZIhvcNAQELBQAD
ggEBAGyNVEvdmAHoqlBwmd/q74vmkvbTjRK+XUaKqglHD3wkxAKJ+sJFvxhBnba9
5xVrAZ3MuTs+lWFk4TaveZknWFYFIJaN0tphIwe5+sPctIxTAH2LPPVj/T0d1nho
+CqC46PSaUQwAt1T9rsTIgZxjqFOoZ2tMJ6O9F6JmMruVO4jSx0IqSJxr+FHZ8Kp
MPehJ7fZF63U4dB8GP7Plpc2lIvtzhlJFW34UOOh12416MF8aC+/X1f8QKo90pno
RSAHFD0LBo4hAPIns1f4QmrZZTSnIdgCvx4EYaeMcuFDzzyHx9l2KCHUWmgggvUL
3+UmQ0JcNtQrSU2BwgIcgBTHM7A=
-----END CERTIFICATE-----

Certificate:
    Data:
        Version: 3 (0x2)
        Serial Number:
            33:57:99:fd:87:a4:e1:51:aa:94:8f:97:f1:9d:32:d1:b0:22:c3:6d
        Signature Algorithm: md5WithRSAEncryption
        Issuer: CN=Root
        Validity
            Not Before: Nov  3 12:00:00 2020 GMT
            Not After : Nov  3 12:00:00 2021 GMT
        Subject: CN=Intermediate
        Subject Public Key Info:
            Public Key Algorithm: rsaEncryption
                RSA Public-Key: (2048 bit)
                Modulus:
                    00:eb:61:9e:9d:4b:23:cc:8e:39:d9:ac:07:05:da:
                    32:34:de:2a:dd:2f:62:ed:87:ce:7c:59:c4:9d:8e:
                    28:76:d1:f2:65:60:91:3f:7b:63:a4:2f:50:c4:da:
                    12:5b:71:a0:97:4f:26:cf:e7:b2:01:84:67:57:f5:
                    86:36:54:68:0f:28:f0:ea:7b:ca:1e:1a:bc:7e:67:
                    cf:fd:14:63:ee:c1:33:92:01:70:bc:12:6b:7d:2c:
                    8d:02:34:8e:85:1a:e4:f5:99:b6:c8:d5:18:d9:04:
                    a6:f5:40:fc:96:50:e2:3f:87:a0:d6:72:be:a3:a3:
                    45:89:07:74:d0:2e:9c:0d:88:12:02:a3:ef:17:ad:
                    2c:2d:71:66:11:89:3f:cf:57:77:28:77:70:bb:0f:
                    39:b0:b1:34:9d:e9:f7:a2:56:af:57:7e:ed:44:f8:
                    be:78:3d:28:c5:0d:37:15:2c:f6:99:4e:05:70:ae:
                    c5:99:45:a7:3f:bd:83:79:6a:a3:67:ff:71:2d:60:
                    e2:08:91:23:45:40:b1:40:52:e1:3b:1d:5d:d1:e9:
                    c2:b0:b1:c4:fb:7c:af:9c:c1:95:f1:a5:23:16:19:
                    75:9f:ef:be:b8:79:a7:f4:c5:b2:47:ae:6d:1c:15:
                    9c:26:0f:b2:0f:ec:92:8d:5a:79:c9:9e:16:e0:70:
                    bc:ef
                Exponent: 65537 (0x10001)
        X509v3 extensions:
            X509v3 Subject Key Identifier: 
                A6:86:14:22:AB:40:E8:07:5F:13:64:F3:8D:60:DE:30:B4:0B:B3:31
            X509v3 Authority Key Identifier: 
                keyid:C4:01:16:E5:A0:16:10:29:62:67:7B:D1:22:42:6C:6F:15:2B:AF:96

            Authority Information Access: 
                CA Issuers - URI:http://url-for-aia/Root.cer

            X509v3 CRL Distribution Points: 

                Full Name:
                  URI:http://url-for-crl/Root.crl

            X509v3 Key Usage: critical
                Certificate Sign, CRL Sign
            X509v3 Basic Constraints: critical
                CA:TRUE
    Signature Algorithm: md5WithRSAEncryption
         ab:a8:ad:a5:eb:0f:02:58:36:67:30:2a:94:d7:64:a1:28:40:
         3c:13:29:52:99:ab:c9:a9:c5:a4:15:4d:9c:5b:33:db:14:30:
         8b:ba:15:25:ac:10:55:cb:ac:99:3b:5e:8f:e1:f2:5a:b6:3c:
         42:59:4c:ca:2a:4a:55:43:54:b2:77:34:ce:81:94:cf:40:61:
         96:de:ba:80:2a:a2:3a:d4:74:85:64:73:7a:ec:c5:7f:4e:29:
         8a:03:ca:78:47:f7:d9:b0:b2:43:07:db:23:0e:ca:3e:a8:ad:
         36:2e:04:b9:cc:f0:fc:5c:3e:41:bb:23:bf:7f:56:c7:1d:85:
         2e:9a:d5:6a:22:63:b8:7c:c3:8d:f2:0b:67:b0:28:de:78:a6:
         e3:4b:47:3e:7f:14:8a:dc:5d:54:48:ce:e1:36:d2:bf:72:d4:
         48:18:91:80:7b:39:10:b5:b5:7b:3e:95:b5:eb:89:4f:71:1e:
         ce:0c:62:fa:87:4e:88:45:96:9c:a7:b9:9f:d3:e1:79:79:d0:
         61:b0:0a:d1:d1:f5:89:16:14:6b:9f:89:ee:05:45:54:e1:ba:
         4f:3f:f8:ae:af:bc:1d:e5:ec:54:5d:c0:8b:bb:88:b2:db:ac:
         e5:da:3e:48:60:5c:21:ea:15:1e:78:3d:c1:95:f7:e7:f7:4b:
         81:2c:06:a7
-----BEGIN CERTIFICATE-----
MIIDgDCCAmigAwIBAgIUM1eZ/Yek4VGqlI+X8Z0y0bAiw20wDQYJKoZIhvcNAQEE
BQAwDzENMAsGA1UEAwwEUm9vdDAeFw0yMDExMDMxMjAwMDBaFw0yMTExMDMxMjAw
MDBaMBcxFTATBgNVBAMMDEludGVybWVkaWF0ZTCCASIwDQYJKoZIhvcNAQEBBQAD
ggEPADCCAQoCggEBAOthnp1LI8yOOdmsBwXaMjTeKt0vYu2HznxZxJ2OKHbR8mVg
kT97Y6QvUMTaEltxoJdPJs/nsgGEZ1f1hjZUaA8o8Op7yh4avH5nz/0UY+7BM5IB
cLwSa30sjQI0joUa5PWZtsjVGNkEpvVA/JZQ4j+HoNZyvqOjRYkHdNAunA2IEgKj
7xetLC1xZhGJP89Xdyh3cLsPObCxNJ3p96JWr1d+7UT4vng9KMUNNxUs9plOBXCu
xZlFpz+9g3lqo2f/cS1g4giRI0VAsUBS4TsdXdHpwrCxxPt8r5zBlfGlIxYZdZ/v
vrh5p/TFskeubRwVnCYPsg/sko1aecmeFuBwvO8CAwEAAaOByzCByDAdBgNVHQ4E
FgQUpoYUIqtA6AdfE2TzjWDeMLQLszEwHwYDVR0jBBgwFoAUxAEW5aAWECliZ3vR
IkJsbxUrr5YwNwYIKwYBBQUHAQEEKzApMCcGCCsGAQUFBzAChhtodHRwOi8vdXJs
LWZvci1haWEvUm9vdC5jZXIwLAYDVR0fBCUwIzAhoB+gHYYbaHR0cDovL3VybC1m
b3ItY3JsL1Jvb3QuY3JsMA4GA1UdDwEB/wQEAwIBBjAPBgNVHRMBAf8EBTADAQH/
MA0GCSqGSIb3DQEBBAUAA4IBAQCrqK2l6w8CWDZnMCqU12ShKEA8EylSmavJqcWk
FU2cWzPbFDCLuhUlrBBVy6yZO16P4fJatjxCWUzKKkpVQ1SydzTOgZTPQGGW3rqA
KqI61HSFZHN67MV/TimKA8p4R/fZsLJDB9sjDso+qK02LgS5zPD8XD5BuyO/f1bH
HYUumtVqImO4fMON8gtnsCjeeKbjS0c+fxSK3F1USM7hNtK/ctRIGJGAezkQtbV7
PpW164lPcR7ODGL6h06IRZacp7mf0+F5edBhsArR0fWJFhRrn4nuBUVU4bpPP/iu
r7wd5exUXcCLu4iy26zl2j5IYFwh6hUeeD3Blffn90uBLAan
-----END CERTIFICATE-----

Certificate:
    Data:
        Version: 3 (0x2)
        Serial Number:
            33:57:99:fd:87:a4:e1:51:aa:94:8f:97:f1:9d:32:d1:b0:22:c3:6c
        Signature Algorithm: sha256WithRSAEncryption
        Issuer: CN=Root
        Validity
            Not Before: Nov  3 12:00:00 2020 GMT
            Not After : Nov  3 12:00:00 2021 GMT
        Subject: CN=Root
        Subject Public Key Info:
            Public Key Algorithm: rsaEncryption
                RSA Public-Key: (2048 bit)
                Modulus:
                    00:cc:b2:cd:77:8f:be:c9:a5:17:ad:e5:ac:2d:b2:
                    c0:1f:33:5e:ed:d9:96:57:14:9b:a4:37:d8:a0:3d:
                    e4:2c:56:95:4d:75:68:4f:77:06:24:e0:0f:e9:b6:
                    de:6f:dd:a7:f6:93:dc:f3:48:10:fa:fb:90:b5:43:
                    42:0b:9d:d7:e9:0c:2c:69:7b:3a:4f:73:31:00:0c:
                    ba:15:cc:dd:77:a6:a9:f9:21:b8:97:aa:b7:a4:99:
                    6c:08:a0:8e:9f:b8:29:47:df:db:b9:b0:39:e5:4f:
                    be:47:2f:93:76:5b:6b:02:fe:ec:66:31:c2:de:8e:
                    0a:67:89:a4:70:cb:32:40:db:63:00:57:40:b4:8e:
                    b8:24:e4:de:33:62:24:7a:e5:b2:18:41:54:f7:98:
                    d9:f5:c8:23:1e:88:5a:a6:1c:7e:92:0f:92:56:49:
                    0e:5a:dc:49:4b:d1:f8:1b:73:b0:31:6f:37:7e:cf:
                    91:f4:40:e6:8b:36:11:fb:0f:79:ea:d2:80:f5:8e:
                    c1:24:d2:fe:2f:c1:58:6d:32:2e:04:64:b2:20:d2:
                    cd:a1:79:8b:08:25:8f:1e:89:fe:43:3f:bf:de:49:
                    f2:fa:bb:d7:52:6e:19:8f:4c:b6:6e:4f:59:48:63:
                    e2:c9:55:0f:58:89:93:85:e0:58:ee:80:16:5f:c4:
                    77:b9
                Exponent: 65537 (0x10001)
        X509v3 extensions:
            X509v3 Subject Key Identifier: 
                C4:01:16:E5:A0:16:10:29:62:67:7B:D1:22:42:6C:6F:15:2B:AF:96
            X509v3 Authority Key Identifier: 
                keyid:C4:01:16:E5:A0:16:10:29:62:67:7B:D1:22:42:6C:6F:15:2B:AF:96

            Authority Information Access: 
                CA Issuers - URI:http://url-for-aia/Root.cer

            X509v3 CRL Distribution Points: 

                Full Name:
                  URI:http://url-for-crl/Root.crl

            X509v3 Key Usage: critical
                Certificate Sign, CRL Sign
            X509v3 Basic Constraints: critical
                CA:TRUE
    Signature Algorithm: sha256WithRSAEncryption
         41:f1:9d:60:2f:d5:2b:e9:48:d7:aa:b9:26:56:e1:0c:a3:6a:
         d7:2f:30:5b:05:e0:4a:17:43:82:44:9e:3d:f0:78:b5:23:cc:
         17:a2:59:04:84:96:71:89:9f:1c:78:62:d6:cc:a8:e0:d0:40:
         95:2e:d8:22:39:8d:e3:f4:b9:f3:2f:62:0f:12:c3:99:e1:36:
         35:90:02:de:fa:cf:18:cf:1a:18:2c:3e:8a:e2:5c:a1:e1:5e:
         f8:2e:1b:9c:85:39:31:c2:62:e9:82:4d:75:11:e6:b9:82:39:
         18:aa:ad:c8:77:a9:78:a6:2e:7f:4c:ab:51:21:5a:38:57:a4:
         56:93:a0:d6:aa:7a:b7:63:42:74:7a:d0:58:cd:43:e1:5f:9a:
         ea:12:6d:b1:f4:96:35:e3:c8:6b:44:77:cf:d1:b9:72:52:c7:
         1f:dd:18:b5:64:6b:97:65:d3:73:3a:82:b6:0a:e1:57:d4:0a:
         58:a8:1b:75:ee:6e:6b:42:b6:99:53:95:cc:74:cc:29:73:33:
         de:a4:d1:76:cb:6c:ff:5b:e6:34:d6:85:13:92:68:dd:80:37:
         bf:fe:55:43:6d:f0:54:1a:43:71:30:f2:f9:fb:92:a6:61:d8:
         27:e3:88:94:bf:30:a4:21:89:59:9a:44:72:8d:fe:f9:0b:18:
         7f:86:3c:b4
-----BEGIN CERTIFICATE-----
MIIDeDCCAmCgAwIBAgIUM1eZ/Yek4VGqlI+X8Z0y0bAiw2wwDQYJKoZIhvcNAQEL
BQAwDzENMAsGA1UEAwwEUm9vdDAeFw0yMDExMDMxMjAwMDBaFw0yMTExMDMxMjAw
MDBaMA8xDTALBgNVBAMMBFJvb3QwggEiMA0GCSqGSIb3DQEBAQUAA4IBDwAwggEK
AoIBAQDMss13j77JpRet5awtssAfM17t2ZZXFJukN9igPeQsVpVNdWhPdwYk4A/p
tt5v3af2k9zzSBD6+5C1Q0ILndfpDCxpezpPczEADLoVzN13pqn5IbiXqrekmWwI
oI6fuClH39u5sDnlT75HL5N2W2sC/uxmMcLejgpniaRwyzJA22MAV0C0jrgk5N4z
YiR65bIYQVT3mNn1yCMeiFqmHH6SD5JWSQ5a3ElL0fgbc7Axbzd+z5H0QOaLNhH7
D3nq0oD1jsEk0v4vwVhtMi4EZLIg0s2heYsIJY8eif5DP7/eSfL6u9dSbhmPTLZu
T1lIY+LJVQ9YiZOF4FjugBZfxHe5AgMBAAGjgcswgcgwHQYDVR0OBBYEFMQBFuWg
FhApYmd70SJCbG8VK6+WMB8GA1UdIwQYMBaAFMQBFuWgFhApYmd70SJCbG8VK6+W
MDcGCCsGAQUFBwEBBCswKTAnBggrBgEFBQcwAoYbaHR0cDovL3VybC1mb3ItYWlh
L1Jvb3QuY2VyMCwGA1UdHwQlMCMwIaAfoB2GG2h0dHA6Ly91cmwtZm9yLWNybC9S
b290LmNybDAOBgNVHQ8BAf8EBAMCAQYwDwYDVR0TAQH/BAUwAwEB/zANBgkqhkiG
9w0BAQsFAAOCAQEAQfGdYC/VK+lI16q5JlbhDKNq1y8wWwXgShdDgkSePfB4tSPM
F6JZBISWcYmfHHhi1syo4NBAlS7YIjmN4/S58y9iDxLDmeE2NZAC3vrPGM8aGCw+
iuJcoeFe+C4bnIU5McJi6YJNdRHmuYI5GKqtyHepeKYuf0yrUSFaOFekVpOg1qp6
t2NCdHrQWM1D4V+a6hJtsfSWNePIa0R3z9G5clLHH90YtWRrl2XTczqCtgrhV9QK
WKgbde5ua0K2mVOVzHTMKXMz3qTRdsts/1vmNNaFE5Jo3YA3v/5VQ23wVBpDcTDy
+fuSpmHYJ+OIlL8wpCGJWZpEco3++QsYf4Y8tA==
-----END CERTIFICATE-----
