[Created by: generate-chains.py]

Certificate chain where the leaf certificate asserts the keyCertSign key
usage, however does not have CA=true in the basic constraints extension to
indicate it is a CA.

Certificate:
    Data:
        Version: 3 (0x2)
        Serial Number:
            0d:e0:65:d2:8a:72:7c:60:7d:f8:7e:88:6d:f0:a6:80:23:e1:38:a9
        Signature Algorithm: sha256WithRSAEncryption
        Issuer: CN=Intermediate
        Validity
            Not Before: Oct  5 12:00:00 2022 GMT
            Not After : Oct  5 12:00:00 2023 GMT
        Subject: CN=Target
        Subject Public Key Info:
            Public Key Algorithm: rsaEncryption
                Public-Key: (2048 bit)
                Modulus:
                    00:d5:97:4d:ce:b9:89:7b:00:4f:e4:1f:f6:b0:1d:
                    26:7d:c5:42:70:21:40:3a:a6:f9:07:5b:11:c6:fb:
                    0f:8e:79:46:78:ad:34:71:46:b4:fa:96:75:06:c8:
                    3e:c7:e9:1a:ae:f0:47:7f:4b:53:4a:f2:46:83:89:
                    92:b0:11:11:0c:04:7c:33:e1:4b:7e:b5:b5:b2:54:
                    a7:28:64:31:7b:e2:5c:4a:00:30:3f:8c:21:e0:61:
                    f6:15:e8:20:03:bf:ce:d3:b4:ec:6e:27:88:fb:a9:
                    b0:9a:73:79:26:46:55:a3:05:ac:25:ba:6f:24:3c:
                    17:7d:17:6c:25:ad:14:68:0b:fd:a6:d6:5f:5a:9a:
                    4a:9d:6d:86:e5:77:b9:50:9c:40:2b:40:af:1d:92:
                    4e:22:7a:c1:eb:57:17:16:4d:fa:12:e3:8c:25:8e:
                    8d:4b:74:4f:3e:67:cd:84:2a:63:46:43:3c:45:7f:
                    ad:bc:dd:5c:00:46:7e:25:36:43:d9:98:15:a1:f4:
                    f6:29:5d:54:9d:20:b8:b6:e1:4c:e3:f1:3c:91:47:
                    9d:eb:d7:f8:a2:f1:c5:f8:bc:7b:bf:bd:40:38:39:
                    01:3b:98:33:12:d9:de:c6:f9:eb:4b:e3:82:8e:98:
                    4b:28:1b:cd:ba:22:d5:b3:02:12:fc:40:86:ec:3e:
                    e7:51
                Exponent: 65537 (0x10001)
        X509v3 extensions:
            X509v3 Subject Key Identifier: 
                1B:6F:D1:A8:67:1C:5F:A0:86:1B:FF:7B:E0:F4:72:33:CF:7C:F0:26
            X509v3 Authority Key Identifier: 
                B2:C0:C2:33:FD:8F:F5:37:4B:52:85:82:DD:31:5D:CE:A2:99:71:D0
            Authority Information Access: 
                CA Issuers - URI:http://url-for-aia/Intermediate.cer
            X509v3 CRL Distribution Points: 
                Full Name:
                  URI:http://url-for-crl/Intermediate.crl
            X509v3 Key Usage: critical
                Digital Signature, Key Encipherment, Certificate Sign
            X509v3 Extended Key Usage: 
                TLS Web Server Authentication, TLS Web Client Authentication
    Signature Algorithm: sha256WithRSAEncryption
    Signature Value:
        0d:5e:18:18:50:a5:f7:c3:d6:1b:a5:70:6e:6b:fb:ff:0b:24:
        e2:58:03:6c:ee:a4:91:c6:e7:d8:70:d6:f6:b4:81:c0:1e:b5:
        a3:b3:89:07:65:21:ea:2f:16:6f:b1:3e:17:95:74:30:6a:cf:
        e9:ae:75:95:c9:89:f3:d5:d5:61:a7:26:2f:26:87:d0:c6:ad:
        d0:c6:21:3a:74:20:38:98:f5:26:21:c9:11:b5:7d:73:31:b5:
        5a:be:26:0d:86:82:44:61:1a:41:1f:2a:65:b8:1f:f9:5f:a4:
        d0:b8:24:d0:2b:90:99:00:85:cd:0a:38:66:86:f0:f5:a6:3e:
        45:ed:61:82:fc:6b:0c:dc:77:41:53:c4:bf:7f:f2:3e:4b:44:
        57:8c:d3:2a:19:11:7c:56:b6:80:d8:eb:9e:c4:8d:7c:b2:62:
        37:82:69:3b:62:37:84:f2:40:eb:f1:f3:86:be:ba:7e:78:4c:
        5e:8d:94:b1:0f:49:f3:4f:4d:1d:e2:1e:20:d3:17:bd:6c:2b:
        35:3b:e3:ce:ae:e3:d5:7e:d1:4a:75:63:01:04:45:67:02:24:
        cb:b5:75:3b:a5:d9:02:8f:68:7f:19:e5:f6:59:6b:7a:6b:28:
        34:6a:77:81:ae:39:ab:e5:83:17:a3:e2:3b:e2:69:39:9e:d3:
        a1:2e:3b:c4
-----BEGIN CERTIFICATE-----
MIIDoDCCAoigAwIBAgIUDeBl0opyfGB9+H6IbfCmgCPhOKkwDQYJKoZIhvcNAQEL
BQAwFzEVMBMGA1UEAwwMSW50ZXJtZWRpYXRlMB4XDTIyMTAwNTEyMDAwMFoXDTIz
MTAwNTEyMDAwMFowETEPMA0GA1UEAwwGVGFyZ2V0MIIBIjANBgkqhkiG9w0BAQEF
AAOCAQ8AMIIBCgKCAQEA1ZdNzrmJewBP5B/2sB0mfcVCcCFAOqb5B1sRxvsPjnlG
eK00cUa0+pZ1Bsg+x+karvBHf0tTSvJGg4mSsBERDAR8M+FLfrW1slSnKGQxe+Jc
SgAwP4wh4GH2FeggA7/O07TsbieI+6mwmnN5JkZVowWsJbpvJDwXfRdsJa0UaAv9
ptZfWppKnW2G5Xe5UJxAK0CvHZJOInrB61cXFk36EuOMJY6NS3RPPmfNhCpjRkM8
RX+tvN1cAEZ+JTZD2ZgVofT2KV1UnSC4tuFM4/E8kUed69f4ovHF+Lx7v71AODkB
O5gzEtnexvnrS+OCjphLKBvNuiLVswIS/ECG7D7nUQIDAQABo4HpMIHmMB0GA1Ud
DgQWBBQbb9GoZxxfoIYb/3vg9HIzz3zwJjAfBgNVHSMEGDAWgBSywMIz/Y/1N0tS
hYLdMV3Ooplx0DA/BggrBgEFBQcBAQQzMDEwLwYIKwYBBQUHMAKGI2h0dHA6Ly91
cmwtZm9yLWFpYS9JbnRlcm1lZGlhdGUuY2VyMDQGA1UdHwQtMCswKaAnoCWGI2h0
dHA6Ly91cmwtZm9yLWNybC9JbnRlcm1lZGlhdGUuY3JsMA4GA1UdDwEB/wQEAwIC
pDAdBgNVHSUEFjAUBggrBgEFBQcDAQYIKwYBBQUHAwIwDQYJKoZIhvcNAQELBQAD
ggEBAA1eGBhQpffD1hulcG5r+/8LJOJYA2zupJHG59hw1va0gcAetaOziQdlIeov
Fm+xPheVdDBqz+mudZXJifPV1WGnJi8mh9DGrdDGITp0IDiY9SYhyRG1fXMxtVq+
Jg2GgkRhGkEfKmW4H/lfpNC4JNArkJkAhc0KOGaG8PWmPkXtYYL8awzcd0FTxL9/
8j5LRFeM0yoZEXxWtoDY657EjXyyYjeCaTtiN4TyQOvx84a+un54TF6NlLEPSfNP
TR3iHiDTF71sKzU7486u49V+0Up1YwEERWcCJMu1dTul2QKPaH8Z5fZZa3prKDRq
d4GuOavlgxej4jviaTme06EuO8Q=
-----END CERTIFICATE-----

Certificate:
    Data:
        Version: 3 (0x2)
        Serial Number:
            03:1e:f6:e0:d5:64:b5:71:7d:eb:f5:6d:bf:03:da:71:a6:d9:eb:26
        Signature Algorithm: sha256WithRSAEncryption
        Issuer: CN=Root
        Validity
            Not Before: Oct  5 12:00:00 2022 GMT
            Not After : Oct  5 12:00:00 2023 GMT
        Subject: CN=Intermediate
        Subject Public Key Info:
            Public Key Algorithm: rsaEncryption
                Public-Key: (2048 bit)
                Modulus:
                    00:c6:14:bf:96:32:0d:cf:bb:58:2a:b4:3c:97:e5:
                    6c:22:92:ff:d3:14:e2:b9:0b:c9:fe:0d:09:d0:c6:
                    b5:48:ed:e0:2a:25:04:2e:16:08:6b:55:da:d1:f3:
                    b1:c1:1a:49:85:33:f4:bb:7c:d6:38:45:c8:af:4d:
                    d4:a9:43:a7:56:cf:9c:40:a5:2b:b8:13:7f:ee:6b:
                    fe:98:3b:ed:74:2a:5e:c7:9f:7c:e0:73:6c:a7:c4:
                    d8:f1:e3:55:79:6c:02:7c:b4:e8:3f:1a:93:57:62:
                    3a:86:5b:24:db:70:f2:fd:94:91:95:6b:68:72:73:
                    31:44:a5:36:32:e6:77:37:bb:e1:cb:6d:b5:aa:20:
                    3a:02:7e:ff:44:6d:79:e4:7d:e6:d3:72:92:e9:59:
                    92:57:ff:be:e8:e2:d9:84:47:f8:a9:f6:11:ee:cf:
                    5b:7f:92:d8:19:44:7f:96:40:52:19:09:80:af:2f:
                    36:65:14:9a:fe:ef:aa:aa:c9:00:fb:ac:d3:87:59:
                    14:ab:69:52:4c:4f:87:0f:74:49:ab:c5:f2:fb:73:
                    23:c0:91:c9:93:82:6f:28:8d:23:f9:2d:f3:92:cc:
                    f5:68:20:86:0d:37:35:d7:46:da:dd:4a:fc:92:3b:
                    32:a2:67:ba:f5:b3:49:13:76:e9:5e:78:a0:86:3e:
                    de:2d
                Exponent: 65537 (0x10001)
        X509v3 extensions:
            X509v3 Subject Key Identifier: 
                B2:C0:C2:33:FD:8F:F5:37:4B:52:85:82:DD:31:5D:CE:A2:99:71:D0
            X509v3 Authority Key Identifier: 
                24:DB:B4:DE:3E:3F:AA:1D:B0:57:7A:1D:7C:CD:86:E9:6B:D0:15:6F
            Authority Information Access: 
                CA Issuers - URI:http://url-for-aia/Root.cer
            X509v3 CRL Distribution Points: 
                Full Name:
                  URI:http://url-for-crl/Root.crl
            X509v3 Key Usage: critical
                Certificate Sign, CRL Sign
            X509v3 Basic Constraints: critical
                CA:TRUE
    Signature Algorithm: sha256WithRSAEncryption
    Signature Value:
        51:31:aa:de:0e:60:75:96:88:7e:92:62:13:ae:6f:7b:ae:11:
        d5:b8:54:c8:98:d0:fe:65:ae:a9:e7:77:91:06:97:c8:78:91:
        83:35:55:86:c3:e3:90:b0:06:65:44:ed:c5:ed:de:2b:3c:36:
        bb:4c:ca:45:e1:11:52:0a:79:2e:4a:b5:b1:03:30:e5:2d:ca:
        ec:f2:63:e8:c4:0d:8f:f4:5f:c7:a5:42:0e:10:e6:45:5f:3a:
        df:91:49:76:e4:d9:1d:d2:e6:f3:f3:55:19:d0:4e:16:93:3b:
        7d:98:56:d8:35:f8:1e:0e:d3:02:b9:c2:58:32:ca:e9:75:20:
        32:85:96:47:d7:18:9f:fd:76:b8:f4:e5:ae:f5:e4:55:d2:e2:
        79:5d:e0:ea:7e:89:a1:d6:ac:24:d6:e1:f9:e2:6e:53:7b:e5:
        c8:20:ba:6f:ec:bc:d6:86:a2:10:57:d0:3f:87:84:90:f1:ee:
        d8:4e:06:1e:f5:eb:0d:f4:cf:a8:60:21:d4:2d:d7:9a:dd:76:
        6c:18:e5:ae:ad:88:94:14:af:37:80:8a:88:d3:f6:a3:e2:19:
        33:f3:1a:44:7c:b5:aa:5b:31:0c:86:0d:af:c9:f5:ba:d9:f2:
        38:00:b3:3d:f9:dc:55:63:49:1e:66:7f:25:41:7c:85:2f:3a:
        e3:9e:1d:57
-----BEGIN CERTIFICATE-----
MIIDgDCCAmigAwIBAgIUAx724NVktXF96/VtvwPacabZ6yYwDQYJKoZIhvcNAQEL
BQAwDzENMAsGA1UEAwwEUm9vdDAeFw0yMjEwMDUxMjAwMDBaFw0yMzEwMDUxMjAw
MDBaMBcxFTATBgNVBAMMDEludGVybWVkaWF0ZTCCASIwDQYJKoZIhvcNAQEBBQAD
ggEPADCCAQoCggEBAMYUv5YyDc+7WCq0PJflbCKS/9MU4rkLyf4NCdDGtUjt4Col
BC4WCGtV2tHzscEaSYUz9Lt81jhFyK9N1KlDp1bPnEClK7gTf+5r/pg77XQqXsef
fOBzbKfE2PHjVXlsAny06D8ak1diOoZbJNtw8v2UkZVraHJzMUSlNjLmdze74ctt
taogOgJ+/0RteeR95tNykulZklf/vuji2YRH+Kn2Ee7PW3+S2BlEf5ZAUhkJgK8v
NmUUmv7vqqrJAPus04dZFKtpUkxPhw90SavF8vtzI8CRyZOCbyiNI/kt85LM9Wgg
hg03NddG2t1K/JI7MqJnuvWzSRN26V54oIY+3i0CAwEAAaOByzCByDAdBgNVHQ4E
FgQUssDCM/2P9TdLUoWC3TFdzqKZcdAwHwYDVR0jBBgwFoAUJNu03j4/qh2wV3od
fM2G6WvQFW8wNwYIKwYBBQUHAQEEKzApMCcGCCsGAQUFBzAChhtodHRwOi8vdXJs
LWZvci1haWEvUm9vdC5jZXIwLAYDVR0fBCUwIzAhoB+gHYYbaHR0cDovL3VybC1m
b3ItY3JsL1Jvb3QuY3JsMA4GA1UdDwEB/wQEAwIBBjAPBgNVHRMBAf8EBTADAQH/
MA0GCSqGSIb3DQEBCwUAA4IBAQBRMareDmB1loh+kmITrm97rhHVuFTImND+Za6p
53eRBpfIeJGDNVWGw+OQsAZlRO3F7d4rPDa7TMpF4RFSCnkuSrWxAzDlLcrs8mPo
xA2P9F/HpUIOEOZFXzrfkUl25Nkd0ubz81UZ0E4Wkzt9mFbYNfgeDtMCucJYMsrp
dSAyhZZH1xif/Xa49OWu9eRV0uJ5XeDqfomh1qwk1uH54m5Te+XIILpv7LzWhqIQ
V9A/h4SQ8e7YTgYe9esN9M+oYCHULdea3XZsGOWurYiUFK83gIqI0/aj4hkz8xpE
fLWqWzEMhg2vyfW62fI4ALM9+dxVY0keZn8lQXyFLzrjnh1X
-----END CERTIFICATE-----

Certificate:
    Data:
        Version: 3 (0x2)
        Serial Number:
            03:1e:f6:e0:d5:64:b5:71:7d:eb:f5:6d:bf:03:da:71:a6:d9:eb:25
        Signature Algorithm: sha256WithRSAEncryption
        Issuer: CN=Root
        Validity
            Not Before: Oct  5 12:00:00 2022 GMT
            Not After : Oct  5 12:00:00 2023 GMT
        Subject: CN=Root
        Subject Public Key Info:
            Public Key Algorithm: rsaEncryption
                Public-Key: (2048 bit)
                Modulus:
                    00:e4:4e:96:f6:de:02:05:e7:16:80:fa:ed:b1:3c:
                    f3:19:ea:7b:d2:fe:ed:93:b7:09:37:7d:c1:98:9b:
                    65:a9:84:09:72:cd:e5:d8:da:21:44:c2:2e:92:95:
                    12:fe:35:0c:66:34:ad:f3:4f:c5:2f:d0:2e:57:41:
                    1c:3b:ce:c9:51:17:05:eb:06:f7:4f:fb:6e:27:9d:
                    06:d8:10:87:f4:97:5f:0f:9d:5d:d7:2b:d3:3b:21:
                    5b:5a:8f:20:e0:97:16:7b:15:39:d6:3f:ff:1d:06:
                    53:74:62:78:68:5b:ed:c2:05:e7:86:8b:1a:63:3a:
                    d3:e4:a9:25:8f:0e:92:13:df:39:d6:31:82:bf:bd:
                    ef:d4:21:9d:0e:7f:c9:90:ef:1d:c5:f3:c4:00:1e:
                    4a:03:61:f4:5e:cf:e9:58:e5:12:49:37:31:49:89:
                    54:d8:59:40:78:eb:e2:3f:75:9c:a5:ff:1c:33:b8:
                    6c:26:26:5a:8f:28:12:1f:4e:81:e5:a6:aa:dd:c6:
                    d9:c9:94:6a:15:3c:9e:7a:59:29:92:cb:7a:f5:67:
                    c4:d4:dd:4c:c5:6e:fb:b3:c2:5a:9d:f1:0b:35:17:
                    92:b6:85:dc:fd:45:c5:3f:13:f3:cd:fc:bc:b6:59:
                    c0:17:0b:ce:b3:e1:47:d1:2f:34:74:a4:5c:ba:a9:
                    cf:0d
                Exponent: 65537 (0x10001)
        X509v3 extensions:
            X509v3 Subject Key Identifier: 
                24:DB:B4:DE:3E:3F:AA:1D:B0:57:7A:1D:7C:CD:86:E9:6B:D0:15:6F
            X509v3 Authority Key Identifier: 
                24:DB:B4:DE:3E:3F:AA:1D:B0:57:7A:1D:7C:CD:86:E9:6B:D0:15:6F
            Authority Information Access: 
                CA Issuers - URI:http://url-for-aia/Root.cer
            X509v3 CRL Distribution Points: 
                Full Name:
                  URI:http://url-for-crl/Root.crl
            X509v3 Key Usage: critical
                Certificate Sign, CRL Sign
            X509v3 Basic Constraints: critical
                CA:TRUE
    Signature Algorithm: sha256WithRSAEncryption
    Signature Value:
        da:69:cb:fe:61:8c:8b:b2:7f:57:ea:b8:79:86:45:70:fe:95:
        94:96:f9:b2:39:a9:63:e8:0b:04:ad:62:75:e2:74:78:29:19:
        ff:53:62:7f:a7:9c:37:f4:f8:24:2a:99:f3:3e:71:06:75:86:
        df:60:4c:d3:1c:0c:f0:bd:16:dd:61:b9:29:24:f3:cd:28:5b:
        a8:00:50:45:38:be:99:98:5d:de:4d:a5:94:1c:9c:11:a2:ba:
        09:1e:25:3f:bc:8f:c0:ea:d5:a6:3f:52:98:38:aa:5b:a7:54:
        bb:c0:44:3a:8f:f7:c4:a0:e3:13:b3:06:eb:bf:7c:b7:f0:97:
        5d:66:b8:23:71:a3:09:6e:9c:19:28:6b:e1:ce:d7:6b:47:87:
        9c:a8:b4:e8:0a:aa:4d:13:fb:88:ae:80:13:95:ae:3c:79:f2:
        73:80:1a:7b:22:25:86:9d:24:17:62:26:f2:73:0c:06:ca:e1:
        c0:3a:07:d3:6c:4a:27:bd:fd:db:73:4a:81:51:e5:1c:36:04:
        71:13:61:3d:0d:d2:c6:f0:7f:e2:86:46:93:7b:1a:e8:c3:46:
        16:6c:43:4e:8a:64:64:9b:c5:17:9a:70:7e:13:4a:7e:97:c2:
        2d:ac:5b:01:b7:f6:5c:ef:4e:00:ab:bc:23:17:bc:38:ca:3f:
        3c:ba:0b:2b
-----BEGIN CERTIFICATE-----
MIIDeDCCAmCgAwIBAgIUAx724NVktXF96/VtvwPacabZ6yUwDQYJKoZIhvcNAQEL
BQAwDzENMAsGA1UEAwwEUm9vdDAeFw0yMjEwMDUxMjAwMDBaFw0yMzEwMDUxMjAw
MDBaMA8xDTALBgNVBAMMBFJvb3QwggEiMA0GCSqGSIb3DQEBAQUAA4IBDwAwggEK
AoIBAQDkTpb23gIF5xaA+u2xPPMZ6nvS/u2Ttwk3fcGYm2WphAlyzeXY2iFEwi6S
lRL+NQxmNK3zT8Uv0C5XQRw7zslRFwXrBvdP+24nnQbYEIf0l18PnV3XK9M7IVta
jyDglxZ7FTnWP/8dBlN0YnhoW+3CBeeGixpjOtPkqSWPDpIT3znWMYK/ve/UIZ0O
f8mQ7x3F88QAHkoDYfRez+lY5RJJNzFJiVTYWUB46+I/dZyl/xwzuGwmJlqPKBIf
ToHlpqrdxtnJlGoVPJ56WSmSy3r1Z8TU3UzFbvuzwlqd8Qs1F5K2hdz9RcU/E/PN
/Ly2WcAXC86z4UfRLzR0pFy6qc8NAgMBAAGjgcswgcgwHQYDVR0OBBYEFCTbtN4+
P6odsFd6HXzNhulr0BVvMB8GA1UdIwQYMBaAFCTbtN4+P6odsFd6HXzNhulr0BVv
MDcGCCsGAQUFBwEBBCswKTAnBggrBgEFBQcwAoYbaHR0cDovL3VybC1mb3ItYWlh
L1Jvb3QuY2VyMCwGA1UdHwQlMCMwIaAfoB2GG2h0dHA6Ly91cmwtZm9yLWNybC9S
b290LmNybDAOBgNVHQ8BAf8EBAMCAQYwDwYDVR0TAQH/BAUwAwEB/zANBgkqhkiG
9w0BAQsFAAOCAQEA2mnL/mGMi7J/V+q4eYZFcP6VlJb5sjmpY+gLBK1ideJ0eCkZ
/1Nif6ecN/T4JCqZ8z5xBnWG32BM0xwM8L0W3WG5KSTzzShbqABQRTi+mZhd3k2l
lBycEaK6CR4lP7yPwOrVpj9SmDiqW6dUu8BEOo/3xKDjE7MG6798t/CXXWa4I3Gj
CW6cGShr4c7Xa0eHnKi06AqqTRP7iK6AE5WuPHnyc4AaeyIlhp0kF2Im8nMMBsrh
wDoH02xKJ73923NKgVHlHDYEcRNhPQ3SxvB/4oZGk3sa6MNGFmxDTopkZJvFF5pw
fhNKfpfCLaxbAbf2XO9OAKu8Ixe8OMo/PLoLKw==
-----END CERTIFICATE-----
