[Created by: generate-chains.py]

Certificate chain where the leaf certificate asserts the keyCertSign key
usage, however does not have CA=true in the basic constraints extension to
indicate it is a CA.

Certificate:
    Data:
        Version: 3 (0x2)
        Serial Number:
            0d:e0:65:d2:8a:72:7c:60:7d:f8:7e:88:6d:f0:a6:80:23:e1:38:a9
        Signature Algorithm: sha256WithRSAEncryption
        Issuer: CN=Intermediate
        Validity
            Not Before: Nov  3 12:00:00 2020 GMT
            Not After : Nov  3 12:00:00 2021 GMT
        Subject: CN=Target
        Subject Public Key Info:
            Public Key Algorithm: rsaEncryption
                RSA Public-Key: (2048 bit)
                Modulus:
                    00:d5:97:4d:ce:b9:89:7b:00:4f:e4:1f:f6:b0:1d:
                    26:7d:c5:42:70:21:40:3a:a6:f9:07:5b:11:c6:fb:
                    0f:8e:79:46:78:ad:34:71:46:b4:fa:96:75:06:c8:
                    3e:c7:e9:1a:ae:f0:47:7f:4b:53:4a:f2:46:83:89:
                    92:b0:11:11:0c:04:7c:33:e1:4b:7e:b5:b5:b2:54:
                    a7:28:64:31:7b:e2:5c:4a:00:30:3f:8c:21:e0:61:
                    f6:15:e8:20:03:bf:ce:d3:b4:ec:6e:27:88:fb:a9:
                    b0:9a:73:79:26:46:55:a3:05:ac:25:ba:6f:24:3c:
                    17:7d:17:6c:25:ad:14:68:0b:fd:a6:d6:5f:5a:9a:
                    4a:9d:6d:86:e5:77:b9:50:9c:40:2b:40:af:1d:92:
                    4e:22:7a:c1:eb:57:17:16:4d:fa:12:e3:8c:25:8e:
                    8d:4b:74:4f:3e:67:cd:84:2a:63:46:43:3c:45:7f:
                    ad:bc:dd:5c:00:46:7e:25:36:43:d9:98:15:a1:f4:
                    f6:29:5d:54:9d:20:b8:b6:e1:4c:e3:f1:3c:91:47:
                    9d:eb:d7:f8:a2:f1:c5:f8:bc:7b:bf:bd:40:38:39:
                    01:3b:98:33:12:d9:de:c6:f9:eb:4b:e3:82:8e:98:
                    4b:28:1b:cd:ba:22:d5:b3:02:12:fc:40:86:ec:3e:
                    e7:51
                Exponent: 65537 (0x10001)
        X509v3 extensions:
            X509v3 Subject Key Identifier: 
                1B:6F:D1:A8:67:1C:5F:A0:86:1B:FF:7B:E0:F4:72:33:CF:7C:F0:26
            X509v3 Authority Key Identifier: 
                keyid:B2:C0:C2:33:FD:8F:F5:37:4B:52:85:82:DD:31:5D:CE:A2:99:71:D0

            Authority Information Access: 
                CA Issuers - URI:http://url-for-aia/Intermediate.cer

            X509v3 CRL Distribution Points: 

                Full Name:
                  URI:http://url-for-crl/Intermediate.crl

            X509v3 Key Usage: critical
                Digital Signature, Key Encipherment, Certificate Sign
            X509v3 Extended Key Usage: 
                TLS Web Server Authentication, TLS Web Client Authentication
    Signature Algorithm: sha256WithRSAEncryption
         ad:59:da:e9:41:be:8b:79:93:27:32:1a:b8:84:54:66:8b:34:
         b3:05:12:25:e8:53:c7:40:cb:64:8e:d2:dc:03:fb:47:e9:64:
         cb:bd:23:76:8e:ca:5e:f6:c4:d2:29:49:3a:6c:df:99:30:34:
         fb:04:d7:e0:3a:80:cd:51:2b:cb:68:ce:d7:dd:07:38:47:0b:
         f6:8b:f9:55:13:27:d7:85:71:f8:2e:c6:24:b0:ee:0e:fd:21:
         e7:95:dc:e9:e8:f2:84:f7:e8:f6:03:41:3d:7c:70:8d:fc:1f:
         b8:a9:30:4b:1a:73:e2:bf:e9:d4:5f:19:d1:7d:7a:85:20:65:
         b2:14:75:d2:d5:fc:35:17:da:47:2e:fa:70:2f:91:3a:1e:4d:
         07:b4:4f:70:c2:8c:87:fc:51:7d:d8:5d:21:d8:3a:c7:5d:8f:
         21:25:ea:9f:2c:5e:a5:af:62:f4:55:5b:ee:54:51:66:26:27:
         73:2d:5f:53:33:a8:04:4e:d0:3d:89:80:d1:57:cf:79:21:15:
         21:05:bb:e7:fd:ed:e9:76:a7:06:5c:08:22:3c:e1:f2:6c:83:
         c3:10:55:d6:6e:f8:cb:cb:8f:84:62:07:7d:60:a6:ad:40:9a:
         8f:48:78:0c:44:a7:04:84:8b:6a:e2:29:94:08:76:2c:d3:20:
         45:6f:47:72
-----BEGIN CERTIFICATE-----
MIIDoDCCAoigAwIBAgIUDeBl0opyfGB9+H6IbfCmgCPhOKkwDQYJKoZIhvcNAQEL
BQAwFzEVMBMGA1UEAwwMSW50ZXJtZWRpYXRlMB4XDTIwMTEwMzEyMDAwMFoXDTIx
MTEwMzEyMDAwMFowETEPMA0GA1UEAwwGVGFyZ2V0MIIBIjANBgkqhkiG9w0BAQEF
AAOCAQ8AMIIBCgKCAQEA1ZdNzrmJewBP5B/2sB0mfcVCcCFAOqb5B1sRxvsPjnlG
eK00cUa0+pZ1Bsg+x+karvBHf0tTSvJGg4mSsBERDAR8M+FLfrW1slSnKGQxe+Jc
SgAwP4wh4GH2FeggA7/O07TsbieI+6mwmnN5JkZVowWsJbpvJDwXfRdsJa0UaAv9
ptZfWppKnW2G5Xe5UJxAK0CvHZJOInrB61cXFk36EuOMJY6NS3RPPmfNhCpjRkM8
RX+tvN1cAEZ+JTZD2ZgVofT2KV1UnSC4tuFM4/E8kUed69f4ovHF+Lx7v71AODkB
O5gzEtnexvnrS+OCjphLKBvNuiLVswIS/ECG7D7nUQIDAQABo4HpMIHmMB0GA1Ud
DgQWBBQbb9GoZxxfoIYb/3vg9HIzz3zwJjAfBgNVHSMEGDAWgBSywMIz/Y/1N0tS
hYLdMV3Ooplx0DA/BggrBgEFBQcBAQQzMDEwLwYIKwYBBQUHMAKGI2h0dHA6Ly91
cmwtZm9yLWFpYS9JbnRlcm1lZGlhdGUuY2VyMDQGA1UdHwQtMCswKaAnoCWGI2h0
dHA6Ly91cmwtZm9yLWNybC9JbnRlcm1lZGlhdGUuY3JsMA4GA1UdDwEB/wQEAwIC
pDAdBgNVHSUEFjAUBggrBgEFBQcDAQYIKwYBBQUHAwIwDQYJKoZIhvcNAQELBQAD
ggEBAK1Z2ulBvot5kycyGriEVGaLNLMFEiXoU8dAy2SO0twD+0fpZMu9I3aOyl72
xNIpSTps35kwNPsE1+A6gM1RK8toztfdBzhHC/aL+VUTJ9eFcfguxiSw7g79IeeV
3Ono8oT36PYDQT18cI38H7ipMEsac+K/6dRfGdF9eoUgZbIUddLV/DUX2kcu+nAv
kToeTQe0T3DCjIf8UX3YXSHYOsddjyEl6p8sXqWvYvRVW+5UUWYmJ3MtX1MzqARO
0D2JgNFXz3khFSEFu+f97el2pwZcCCI84fJsg8MQVdZu+MvLj4RiB31gpq1Amo9I
eAxEpwSEi2riKZQIdizTIEVvR3I=
-----END CERTIFICATE-----

Certificate:
    Data:
        Version: 3 (0x2)
        Serial Number:
            03:1e:f6:e0:d5:64:b5:71:7d:eb:f5:6d:bf:03:da:71:a6:d9:eb:26
        Signature Algorithm: sha256WithRSAEncryption
        Issuer: CN=Root
        Validity
            Not Before: Nov  3 12:00:00 2020 GMT
            Not After : Nov  3 12:00:00 2021 GMT
        Subject: CN=Intermediate
        Subject Public Key Info:
            Public Key Algorithm: rsaEncryption
                RSA Public-Key: (2048 bit)
                Modulus:
                    00:c6:14:bf:96:32:0d:cf:bb:58:2a:b4:3c:97:e5:
                    6c:22:92:ff:d3:14:e2:b9:0b:c9:fe:0d:09:d0:c6:
                    b5:48:ed:e0:2a:25:04:2e:16:08:6b:55:da:d1:f3:
                    b1:c1:1a:49:85:33:f4:bb:7c:d6:38:45:c8:af:4d:
                    d4:a9:43:a7:56:cf:9c:40:a5:2b:b8:13:7f:ee:6b:
                    fe:98:3b:ed:74:2a:5e:c7:9f:7c:e0:73:6c:a7:c4:
                    d8:f1:e3:55:79:6c:02:7c:b4:e8:3f:1a:93:57:62:
                    3a:86:5b:24:db:70:f2:fd:94:91:95:6b:68:72:73:
                    31:44:a5:36:32:e6:77:37:bb:e1:cb:6d:b5:aa:20:
                    3a:02:7e:ff:44:6d:79:e4:7d:e6:d3:72:92:e9:59:
                    92:57:ff:be:e8:e2:d9:84:47:f8:a9:f6:11:ee:cf:
                    5b:7f:92:d8:19:44:7f:96:40:52:19:09:80:af:2f:
                    36:65:14:9a:fe:ef:aa:aa:c9:00:fb:ac:d3:87:59:
                    14:ab:69:52:4c:4f:87:0f:74:49:ab:c5:f2:fb:73:
                    23:c0:91:c9:93:82:6f:28:8d:23:f9:2d:f3:92:cc:
                    f5:68:20:86:0d:37:35:d7:46:da:dd:4a:fc:92:3b:
                    32:a2:67:ba:f5:b3:49:13:76:e9:5e:78:a0:86:3e:
                    de:2d
                Exponent: 65537 (0x10001)
        X509v3 extensions:
            X509v3 Subject Key Identifier: 
                B2:C0:C2:33:FD:8F:F5:37:4B:52:85:82:DD:31:5D:CE:A2:99:71:D0
            X509v3 Authority Key Identifier: 
                keyid:24:DB:B4:DE:3E:3F:AA:1D:B0:57:7A:1D:7C:CD:86:E9:6B:D0:15:6F

            Authority Information Access: 
                CA Issuers - URI:http://url-for-aia/Root.cer

            X509v3 CRL Distribution Points: 

                Full Name:
                  URI:http://url-for-crl/Root.crl

            X509v3 Key Usage: critical
                Certificate Sign, CRL Sign
            X509v3 Basic Constraints: critical
                CA:TRUE
    Signature Algorithm: sha256WithRSAEncryption
         00:7c:b9:b6:6e:39:af:b9:60:ea:47:c4:df:ee:45:a9:df:84:
         62:b9:f1:d3:e7:cb:76:5f:04:78:cb:08:95:25:16:f0:a1:4b:
         fc:83:cb:da:f3:0a:f1:7f:ad:c6:6b:58:a8:ed:73:ef:19:f2:
         20:a0:2f:d6:95:c3:9b:52:63:ed:0a:a6:60:79:e6:94:71:7b:
         67:82:81:8b:ea:55:25:d1:e0:04:34:77:65:82:3e:09:c0:5e:
         a7:cb:25:d9:4a:45:d7:82:87:90:20:01:0c:e5:d2:91:83:98:
         63:3e:ac:73:aa:a2:e3:0e:bf:bf:31:da:85:ad:6d:94:e0:8f:
         e7:38:09:18:66:ea:06:1d:80:34:d4:b7:ec:7d:64:e7:f3:6a:
         0b:dc:dd:aa:80:23:1a:18:29:66:80:58:8c:a0:73:5a:8f:40:
         b9:02:06:b7:c8:ea:d8:17:dd:eb:af:b3:55:c4:59:6d:e5:dd:
         c9:73:b9:7d:e6:48:c1:93:5d:9d:aa:f9:30:cd:13:80:4b:e8:
         b9:54:37:25:ca:7c:c5:2b:e4:d0:b0:8a:e0:20:83:70:94:18:
         28:5f:c7:1a:40:41:fc:42:3a:1e:03:13:e9:06:39:b0:d3:04:
         e6:a0:a5:7d:e5:08:f5:57:15:ed:20:9a:05:ba:c2:8f:f1:20:
         32:1d:48:b3
-----BEGIN CERTIFICATE-----
MIIDgDCCAmigAwIBAgIUAx724NVktXF96/VtvwPacabZ6yYwDQYJKoZIhvcNAQEL
BQAwDzENMAsGA1UEAwwEUm9vdDAeFw0yMDExMDMxMjAwMDBaFw0yMTExMDMxMjAw
MDBaMBcxFTATBgNVBAMMDEludGVybWVkaWF0ZTCCASIwDQYJKoZIhvcNAQEBBQAD
ggEPADCCAQoCggEBAMYUv5YyDc+7WCq0PJflbCKS/9MU4rkLyf4NCdDGtUjt4Col
BC4WCGtV2tHzscEaSYUz9Lt81jhFyK9N1KlDp1bPnEClK7gTf+5r/pg77XQqXsef
fOBzbKfE2PHjVXlsAny06D8ak1diOoZbJNtw8v2UkZVraHJzMUSlNjLmdze74ctt
taogOgJ+/0RteeR95tNykulZklf/vuji2YRH+Kn2Ee7PW3+S2BlEf5ZAUhkJgK8v
NmUUmv7vqqrJAPus04dZFKtpUkxPhw90SavF8vtzI8CRyZOCbyiNI/kt85LM9Wgg
hg03NddG2t1K/JI7MqJnuvWzSRN26V54oIY+3i0CAwEAAaOByzCByDAdBgNVHQ4E
FgQUssDCM/2P9TdLUoWC3TFdzqKZcdAwHwYDVR0jBBgwFoAUJNu03j4/qh2wV3od
fM2G6WvQFW8wNwYIKwYBBQUHAQEEKzApMCcGCCsGAQUFBzAChhtodHRwOi8vdXJs
LWZvci1haWEvUm9vdC5jZXIwLAYDVR0fBCUwIzAhoB+gHYYbaHR0cDovL3VybC1m
b3ItY3JsL1Jvb3QuY3JsMA4GA1UdDwEB/wQEAwIBBjAPBgNVHRMBAf8EBTADAQH/
MA0GCSqGSIb3DQEBCwUAA4IBAQAAfLm2bjmvuWDqR8Tf7kWp34RiufHT58t2XwR4
ywiVJRbwoUv8g8va8wrxf63Ga1io7XPvGfIgoC/WlcObUmPtCqZgeeaUcXtngoGL
6lUl0eAENHdlgj4JwF6nyyXZSkXXgoeQIAEM5dKRg5hjPqxzqqLjDr+/MdqFrW2U
4I/nOAkYZuoGHYA01LfsfWTn82oL3N2qgCMaGClmgFiMoHNaj0C5Aga3yOrYF93r
r7NVxFlt5d3Jc7l95kjBk12dqvkwzROAS+i5VDclynzFK+TQsIrgIINwlBgoX8ca
QEH8QjoeAxPpBjmw0wTmoKV95Qj1VxXtIJoFusKP8SAyHUiz
-----END CERTIFICATE-----

Certificate:
    Data:
        Version: 3 (0x2)
        Serial Number:
            03:1e:f6:e0:d5:64:b5:71:7d:eb:f5:6d:bf:03:da:71:a6:d9:eb:25
        Signature Algorithm: sha256WithRSAEncryption
        Issuer: CN=Root
        Validity
            Not Before: Nov  3 12:00:00 2020 GMT
            Not After : Nov  3 12:00:00 2021 GMT
        Subject: CN=Root
        Subject Public Key Info:
            Public Key Algorithm: rsaEncryption
                RSA Public-Key: (2048 bit)
                Modulus:
                    00:e4:4e:96:f6:de:02:05:e7:16:80:fa:ed:b1:3c:
                    f3:19:ea:7b:d2:fe:ed:93:b7:09:37:7d:c1:98:9b:
                    65:a9:84:09:72:cd:e5:d8:da:21:44:c2:2e:92:95:
                    12:fe:35:0c:66:34:ad:f3:4f:c5:2f:d0:2e:57:41:
                    1c:3b:ce:c9:51:17:05:eb:06:f7:4f:fb:6e:27:9d:
                    06:d8:10:87:f4:97:5f:0f:9d:5d:d7:2b:d3:3b:21:
                    5b:5a:8f:20:e0:97:16:7b:15:39:d6:3f:ff:1d:06:
                    53:74:62:78:68:5b:ed:c2:05:e7:86:8b:1a:63:3a:
                    d3:e4:a9:25:8f:0e:92:13:df:39:d6:31:82:bf:bd:
                    ef:d4:21:9d:0e:7f:c9:90:ef:1d:c5:f3:c4:00:1e:
                    4a:03:61:f4:5e:cf:e9:58:e5:12:49:37:31:49:89:
                    54:d8:59:40:78:eb:e2:3f:75:9c:a5:ff:1c:33:b8:
                    6c:26:26:5a:8f:28:12:1f:4e:81:e5:a6:aa:dd:c6:
                    d9:c9:94:6a:15:3c:9e:7a:59:29:92:cb:7a:f5:67:
                    c4:d4:dd:4c:c5:6e:fb:b3:c2:5a:9d:f1:0b:35:17:
                    92:b6:85:dc:fd:45:c5:3f:13:f3:cd:fc:bc:b6:59:
                    c0:17:0b:ce:b3:e1:47:d1:2f:34:74:a4:5c:ba:a9:
                    cf:0d
                Exponent: 65537 (0x10001)
        X509v3 extensions:
            X509v3 Subject Key Identifier: 
                24:DB:B4:DE:3E:3F:AA:1D:B0:57:7A:1D:7C:CD:86:E9:6B:D0:15:6F
            X509v3 Authority Key Identifier: 
                keyid:24:DB:B4:DE:3E:3F:AA:1D:B0:57:7A:1D:7C:CD:86:E9:6B:D0:15:6F

            Authority Information Access: 
                CA Issuers - URI:http://url-for-aia/Root.cer

            X509v3 CRL Distribution Points: 

                Full Name:
                  URI:http://url-for-crl/Root.crl

            X509v3 Key Usage: critical
                Certificate Sign, CRL Sign
            X509v3 Basic Constraints: critical
                CA:TRUE
    Signature Algorithm: sha256WithRSAEncryption
         33:21:0c:37:07:32:14:a1:3f:11:de:f7:79:16:27:8d:02:84:
         f2:5b:76:c9:32:74:c4:bc:4e:b1:6a:0b:08:ad:09:7f:3e:07:
         59:99:e9:4c:2f:1c:71:4d:76:cf:b9:0a:ee:9b:5b:f7:0a:c8:
         48:83:e8:f7:9a:6f:b7:e7:db:e4:71:8f:67:8d:e8:fb:17:77:
         d2:8a:46:c1:c6:76:57:8a:14:53:5c:45:96:ba:ac:26:2d:8a:
         2c:aa:5f:9b:10:dd:7c:41:d8:1a:12:80:ca:63:e5:2a:55:a0:
         d9:bc:2c:b1:08:4f:3c:57:cc:08:48:31:eb:96:fd:d9:7a:dd:
         7d:c2:96:0a:b4:92:c4:08:b3:7d:31:f9:84:9e:cb:b1:3a:7b:
         c2:d4:9b:11:87:ab:d1:ac:23:15:fd:0d:1e:22:93:50:50:96:
         2a:a6:1a:11:b4:e8:8c:19:b9:c9:0a:d6:72:64:99:e1:06:51:
         5f:0f:32:8e:cc:a2:3b:72:c1:d2:0e:ba:7f:2b:7a:04:3c:1d:
         f5:d5:47:c3:b3:f9:fa:2b:68:f1:12:64:91:45:a9:a9:5f:c7:
         16:9c:f3:4e:33:2d:ed:7b:bd:9a:80:d7:7a:8b:d3:77:be:8b:
         22:af:87:12:7e:10:51:1f:e2:c6:2c:b5:05:96:f4:1b:bf:d7:
         80:ff:bf:02
-----BEGIN CERTIFICATE-----
MIIDeDCCAmCgAwIBAgIUAx724NVktXF96/VtvwPacabZ6yUwDQYJKoZIhvcNAQEL
BQAwDzENMAsGA1UEAwwEUm9vdDAeFw0yMDExMDMxMjAwMDBaFw0yMTExMDMxMjAw
MDBaMA8xDTALBgNVBAMMBFJvb3QwggEiMA0GCSqGSIb3DQEBAQUAA4IBDwAwggEK
AoIBAQDkTpb23gIF5xaA+u2xPPMZ6nvS/u2Ttwk3fcGYm2WphAlyzeXY2iFEwi6S
lRL+NQxmNK3zT8Uv0C5XQRw7zslRFwXrBvdP+24nnQbYEIf0l18PnV3XK9M7IVta
jyDglxZ7FTnWP/8dBlN0YnhoW+3CBeeGixpjOtPkqSWPDpIT3znWMYK/ve/UIZ0O
f8mQ7x3F88QAHkoDYfRez+lY5RJJNzFJiVTYWUB46+I/dZyl/xwzuGwmJlqPKBIf
ToHlpqrdxtnJlGoVPJ56WSmSy3r1Z8TU3UzFbvuzwlqd8Qs1F5K2hdz9RcU/E/PN
/Ly2WcAXC86z4UfRLzR0pFy6qc8NAgMBAAGjgcswgcgwHQYDVR0OBBYEFCTbtN4+
P6odsFd6HXzNhulr0BVvMB8GA1UdIwQYMBaAFCTbtN4+P6odsFd6HXzNhulr0BVv
MDcGCCsGAQUFBwEBBCswKTAnBggrBgEFBQcwAoYbaHR0cDovL3VybC1mb3ItYWlh
L1Jvb3QuY2VyMCwGA1UdHwQlMCMwIaAfoB2GG2h0dHA6Ly91cmwtZm9yLWNybC9S
b290LmNybDAOBgNVHQ8BAf8EBAMCAQYwDwYDVR0TAQH/BAUwAwEB/zANBgkqhkiG
9w0BAQsFAAOCAQEAMyEMNwcyFKE/Ed73eRYnjQKE8lt2yTJ0xLxOsWoLCK0Jfz4H
WZnpTC8ccU12z7kK7ptb9wrISIPo95pvt+fb5HGPZ43o+xd30opGwcZ2V4oUU1xF
lrqsJi2KLKpfmxDdfEHYGhKAymPlKlWg2bwssQhPPFfMCEgx65b92XrdfcKWCrSS
xAizfTH5hJ7LsTp7wtSbEYer0awjFf0NHiKTUFCWKqYaEbTojBm5yQrWcmSZ4QZR
Xw8yjsyiO3LB0g66fyt6BDwd9dVHw7P5+ito8RJkkUWpqV/HFpzzTjMt7Xu9moDX
eovTd76LIq+HEn4QUR/ixiy1BZb0G7/XgP+/Ag==
-----END CERTIFICATE-----
