[Created by: generate-chains.py]

Certificate chain where the intermediate has a policies extension (not
marked as critical) which contains an unknown policy qualifer (1.2.3.4).

Certificate:
    Data:
        Version: 3 (0x2)
        Serial Number:
            31:6a:f9:bd:60:f3:6d:85:80:16:84:85:c0:6e:f2:0e:9a:01:52:0b
        Signature Algorithm: sha256WithRSAEncryption
        Issuer: CN=Intermediate
        Validity
            Not Before: Oct  5 12:00:00 2022 GMT
            Not After : Oct  5 12:00:00 2023 GMT
        Subject: CN=Target
        Subject Public Key Info:
            Public Key Algorithm: rsaEncryption
                Public-Key: (2048 bit)
                Modulus:
                    00:be:d9:c3:94:6a:c2:d7:1b:b4:33:1a:29:0d:ca:
                    48:e2:f1:94:93:27:36:71:c1:a2:dc:67:0e:5d:67:
                    b0:a9:08:9c:67:08:ba:d9:74:5f:01:62:5d:7f:2a:
                    bb:32:ed:0c:af:c8:5a:b5:02:24:45:6f:90:4c:83:
                    ab:0e:30:19:c2:df:bc:d5:25:99:b0:f3:5e:e1:27:
                    5b:06:2f:ca:3e:d6:49:fb:87:8d:d3:fd:b9:b9:27:
                    80:be:b5:88:72:3b:1b:20:3f:04:69:04:89:66:ee:
                    20:f7:c2:90:c1:27:aa:29:fa:88:ff:2f:10:3b:81:
                    cf:d0:b9:e9:a7:84:dc:f1:a7:d0:49:e0:6e:17:b2:
                    ba:09:ed:be:9c:a3:f2:66:37:dd:20:98:43:31:bd:
                    02:d1:55:63:88:f6:55:13:20:b7:b9:0b:c9:c9:fb:
                    a3:5b:0f:90:56:e8:8a:dc:a5:7a:92:bc:46:5d:82:
                    a4:e1:42:2c:7c:76:65:63:87:f4:e0:5a:cf:15:22:
                    13:49:1d:aa:0d:ea:25:08:7c:63:19:39:2f:1d:15:
                    2e:7c:9a:e7:d5:03:21:76:6c:22:1a:be:12:8b:72:
                    c5:cb:0f:41:ef:0f:d3:be:78:1d:12:e0:c2:29:eb:
                    d7:36:28:54:ad:8d:ce:c8:79:2f:4f:13:c1:2b:3b:
                    e4:ff
                Exponent: 65537 (0x10001)
        X509v3 extensions:
            X509v3 Subject Key Identifier: 
                FE:3D:1B:76:A0:3D:EE:69:00:5B:D4:61:90:68:18:E3:29:EC:66:A3
            X509v3 Authority Key Identifier: 
                49:F0:C4:09:BE:16:68:CF:0A:C1:E0:EF:8F:A6:34:1F:94:63:6F:E6
            Authority Information Access: 
                CA Issuers - URI:http://url-for-aia/Intermediate.cer
            X509v3 CRL Distribution Points: 
                Full Name:
                  URI:http://url-for-crl/Intermediate.crl
            X509v3 Key Usage: critical
                Digital Signature, Key Encipherment
            X509v3 Extended Key Usage: 
                TLS Web Server Authentication, TLS Web Client Authentication
    Signature Algorithm: sha256WithRSAEncryption
    Signature Value:
        01:49:53:31:10:d5:33:59:2c:c4:f5:88:89:17:cc:10:87:d6:
        8b:16:eb:5d:c0:7d:69:e8:39:f3:e1:b0:08:48:87:71:31:d0:
        bd:87:a4:bf:87:01:4f:cc:aa:a0:21:3a:4e:c3:7b:05:af:cf:
        83:9c:ba:43:d1:da:07:ef:9a:c7:70:b9:aa:f3:de:ec:e3:4f:
        03:16:a5:90:d4:80:05:b0:dc:84:57:cc:8a:48:4a:24:83:fc:
        2c:ee:13:60:1f:61:cb:ac:2c:2c:cd:d1:2c:99:5d:ae:ac:db:
        48:7b:e0:dd:2b:c0:30:f4:4b:f2:3e:8b:1b:5c:14:87:51:2f:
        7a:09:8e:ef:2c:ef:c7:f2:f1:c5:e7:0a:90:d1:f2:c2:f4:60:
        1a:93:7f:b0:77:7d:04:eb:d6:20:a4:72:48:2d:db:08:32:fc:
        0b:84:d4:36:9b:44:6e:b1:fa:18:9c:ed:b9:7e:2f:d9:bb:7c:
        12:cd:b9:27:d0:c3:7b:ea:94:82:bb:c4:7a:10:72:d1:67:bd:
        61:89:06:0e:e7:26:c8:64:cb:c6:bf:2e:2a:f4:a1:45:a1:22:
        aa:0a:9c:a3:37:b8:b4:61:e0:de:92:be:89:48:68:38:28:45:
        53:8d:5a:e8:90:2f:bb:8e:df:13:1b:92:2c:81:32:a7:e6:56:
        93:d6:3c:f2
-----BEGIN CERTIFICATE-----
MIIDoDCCAoigAwIBAgIUMWr5vWDzbYWAFoSFwG7yDpoBUgswDQYJKoZIhvcNAQEL
BQAwFzEVMBMGA1UEAwwMSW50ZXJtZWRpYXRlMB4XDTIyMTAwNTEyMDAwMFoXDTIz
MTAwNTEyMDAwMFowETEPMA0GA1UEAwwGVGFyZ2V0MIIBIjANBgkqhkiG9w0BAQEF
AAOCAQ8AMIIBCgKCAQEAvtnDlGrC1xu0MxopDcpI4vGUkyc2ccGi3GcOXWewqQic
Zwi62XRfAWJdfyq7Mu0Mr8hatQIkRW+QTIOrDjAZwt+81SWZsPNe4SdbBi/KPtZJ
+4eN0/25uSeAvrWIcjsbID8EaQSJZu4g98KQwSeqKfqI/y8QO4HP0Lnpp4Tc8afQ
SeBuF7K6Ce2+nKPyZjfdIJhDMb0C0VVjiPZVEyC3uQvJyfujWw+QVuiK3KV6krxG
XYKk4UIsfHZlY4f04FrPFSITSR2qDeolCHxjGTkvHRUufJrn1QMhdmwiGr4Si3LF
yw9B7w/TvngdEuDCKevXNihUrY3OyHkvTxPBKzvk/wIDAQABo4HpMIHmMB0GA1Ud
DgQWBBT+PRt2oD3uaQBb1GGQaBjjKexmozAfBgNVHSMEGDAWgBRJ8MQJvhZozwrB
4O+PpjQflGNv5jA/BggrBgEFBQcBAQQzMDEwLwYIKwYBBQUHMAKGI2h0dHA6Ly91
cmwtZm9yLWFpYS9JbnRlcm1lZGlhdGUuY2VyMDQGA1UdHwQtMCswKaAnoCWGI2h0
dHA6Ly91cmwtZm9yLWNybC9JbnRlcm1lZGlhdGUuY3JsMA4GA1UdDwEB/wQEAwIF
oDAdBgNVHSUEFjAUBggrBgEFBQcDAQYIKwYBBQUHAwIwDQYJKoZIhvcNAQELBQAD
ggEBAAFJUzEQ1TNZLMT1iIkXzBCH1osW613AfWnoOfPhsAhIh3Ex0L2HpL+HAU/M
qqAhOk7DewWvz4OcukPR2gfvmsdwuarz3uzjTwMWpZDUgAWw3IRXzIpISiSD/Czu
E2AfYcusLCzN0SyZXa6s20h74N0rwDD0S/I+ixtcFIdRL3oJju8s78fy8cXnCpDR
8sL0YBqTf7B3fQTr1iCkckgt2wgy/AuE1DabRG6x+hic7bl+L9m7fBLNuSfQw3vq
lIK7xHoQctFnvWGJBg7nJshky8a/Lir0oUWhIqoKnKM3uLRh4N6SvolIaDgoRVON
WuiQL7uO3xMbkiyBMqfmVpPWPPI=
-----END CERTIFICATE-----

Certificate:
    Data:
        Version: 3 (0x2)
        Serial Number:
            1a:97:5a:9c:80:bc:38:51:fe:e9:06:6c:9c:24:16:bd:7b:49:b2:42
        Signature Algorithm: sha256WithRSAEncryption
        Issuer: CN=Root
        Validity
            Not Before: Oct  5 12:00:00 2022 GMT
            Not After : Oct  5 12:00:00 2023 GMT
        Subject: CN=Intermediate
        Subject Public Key Info:
            Public Key Algorithm: rsaEncryption
                Public-Key: (2048 bit)
                Modulus:
                    00:d9:74:6c:03:22:ab:05:1b:af:d1:34:43:ac:2a:
                    a3:bd:5d:dc:13:39:5f:df:ff:f4:bd:3c:bd:56:1e:
                    b5:e9:b2:19:1d:49:ff:9c:5a:31:9c:20:74:87:27:
                    81:22:50:a3:c2:90:da:48:da:c2:cd:4a:4d:dd:ec:
                    75:d7:61:5b:32:57:1e:1d:63:82:54:69:49:f1:ff:
                    3e:a5:67:46:b2:77:73:61:ce:30:9c:d5:f7:36:1f:
                    83:0e:12:f8:37:48:a9:36:e6:38:61:13:5a:1d:a7:
                    70:17:d2:0d:81:87:f0:cf:02:3c:13:56:fc:e9:79:
                    96:c0:6d:8a:5d:a7:ad:e7:c5:3f:09:28:aa:e9:a8:
                    6b:23:a3:78:fe:34:11:ba:d0:12:59:cf:b3:8a:68:
                    df:96:2f:44:b0:b9:72:54:cf:ba:1b:2c:8c:56:a4:
                    9d:db:b8:55:72:42:04:13:77:cc:75:04:3d:e9:b1:
                    fa:a4:19:1b:3d:6f:0a:c2:7a:48:37:8b:35:c6:e1:
                    cc:c6:50:b5:45:c0:f2:30:ca:ff:df:75:af:4b:c3:
                    c7:63:11:da:fb:54:bf:53:57:a0:ce:75:18:53:8e:
                    c7:49:c3:4a:79:88:a4:1d:34:a4:e0:d2:f4:63:ca:
                    5a:02:89:c3:94:a3:38:32:f6:3b:e1:06:e4:02:e4:
                    d0:25
                Exponent: 65537 (0x10001)
        X509v3 extensions:
            X509v3 Subject Key Identifier: 
                49:F0:C4:09:BE:16:68:CF:0A:C1:E0:EF:8F:A6:34:1F:94:63:6F:E6
            X509v3 Authority Key Identifier: 
                27:0D:D0:55:88:5D:DE:1C:37:96:A0:62:14:C2:19:3C:C6:A4:1F:D1
            Authority Information Access: 
                CA Issuers - URI:http://url-for-aia/Root.cer
            X509v3 CRL Distribution Points: 
                Full Name:
                  URI:http://url-for-crl/Root.crl
            X509v3 Key Usage: critical
                Certificate Sign, CRL Sign
            X509v3 Basic Constraints: critical
                CA:TRUE
            X509v3 Certificate Policies: 
                Policy: 1.2.3
                    Unknown Qualifier: 1.2.3.4
    Signature Algorithm: sha256WithRSAEncryption
    Signature Value:
        01:56:06:08:94:cc:2b:49:20:99:a2:b1:be:3d:1b:eb:53:b4:
        54:45:1c:3e:24:77:bf:dc:2c:cb:84:b1:9b:72:a5:98:ac:0e:
        52:30:36:7a:87:ef:85:0c:1d:4e:ea:bd:14:77:67:80:cd:84:
        61:d8:ea:bb:38:7e:3c:d5:f0:f1:67:9d:79:bf:28:33:72:39:
        c5:e6:1c:aa:68:0d:38:8e:07:b8:02:48:ad:62:92:8e:27:0f:
        38:51:9a:a1:b0:8b:04:8b:b2:f2:98:4c:3f:72:21:28:00:93:
        1b:16:49:94:a5:ee:8d:c3:88:c0:17:c1:fd:a0:fc:53:89:eb:
        57:b1:0e:af:f3:ce:c8:48:d5:cb:a8:d5:97:22:a3:68:27:77:
        3f:37:4c:b7:46:4c:3d:28:dc:1a:ab:aa:91:fa:6b:81:97:cd:
        16:19:f7:9c:ca:27:fd:65:71:b1:93:86:9f:7a:9f:2c:43:2c:
        a8:45:9a:36:dc:2d:a6:63:8c:27:57:31:98:35:1f:ad:9d:2b:
        fb:d3:48:32:63:69:b0:3a:98:3a:e9:fd:62:98:c9:23:52:fc:
        86:dd:b2:8b:0a:1c:e0:02:71:ba:13:21:94:5c:02:77:1c:7c:
        1c:57:45:10:9a:3e:02:44:b3:01:2f:9b:71:3a:fc:1a:f2:85:
        92:dc:b5:5d
-----BEGIN CERTIFICATE-----
MIIDnjCCAoagAwIBAgIUGpdanIC8OFH+6QZsnCQWvXtJskIwDQYJKoZIhvcNAQEL
BQAwDzENMAsGA1UEAwwEUm9vdDAeFw0yMjEwMDUxMjAwMDBaFw0yMzEwMDUxMjAw
MDBaMBcxFTATBgNVBAMMDEludGVybWVkaWF0ZTCCASIwDQYJKoZIhvcNAQEBBQAD
ggEPADCCAQoCggEBANl0bAMiqwUbr9E0Q6wqo71d3BM5X9//9L08vVYetemyGR1J
/5xaMZwgdIcngSJQo8KQ2kjaws1KTd3sdddhWzJXHh1jglRpSfH/PqVnRrJ3c2HO
MJzV9zYfgw4S+DdIqTbmOGETWh2ncBfSDYGH8M8CPBNW/Ol5lsBtil2nrefFPwko
qumoayOjeP40EbrQElnPs4po35YvRLC5clTPuhssjFakndu4VXJCBBN3zHUEPemx
+qQZGz1vCsJ6SDeLNcbhzMZQtUXA8jDK/991r0vDx2MR2vtUv1NXoM51GFOOx0nD
SnmIpB00pODS9GPKWgKJw5SjODL2O+EG5ALk0CUCAwEAAaOB6TCB5jAdBgNVHQ4E
FgQUSfDECb4WaM8KweDvj6Y0H5Rjb+YwHwYDVR0jBBgwFoAUJw3QVYhd3hw3lqBi
FMIZPMakH9EwNwYIKwYBBQUHAQEEKzApMCcGCCsGAQUFBzAChhtodHRwOi8vdXJs
LWZvci1haWEvUm9vdC5jZXIwLAYDVR0fBCUwIzAhoB+gHYYbaHR0cDovL3VybC1m
b3ItY3JsL1Jvb3QuY3JsMA4GA1UdDwEB/wQEAwIBBjAPBgNVHRMBAf8EBTADAQH/
MBwGA1UdIAQVMBMwEQYCKgMwCzAJBgMqAwQMAmhpMA0GCSqGSIb3DQEBCwUAA4IB
AQABVgYIlMwrSSCZorG+PRvrU7RURRw+JHe/3CzLhLGbcqWYrA5SMDZ6h++FDB1O
6r0Ud2eAzYRh2Oq7OH481fDxZ515vygzcjnF5hyqaA04jge4AkitYpKOJw84UZqh
sIsEi7LymEw/ciEoAJMbFkmUpe6Nw4jAF8H9oPxTietXsQ6v887ISNXLqNWXIqNo
J3c/N0y3Rkw9KNwaq6qR+muBl80WGfecyif9ZXGxk4afep8sQyyoRZo23C2mY4wn
VzGYNR+tnSv700gyY2mwOpg66f1imMkjUvyG3bKLChzgAnG6EyGUXAJ3HHwcV0UQ
mj4CRLMBL5txOvwa8oWS3LVd
-----END CERTIFICATE-----

Certificate:
    Data:
        Version: 3 (0x2)
        Serial Number:
            1a:97:5a:9c:80:bc:38:51:fe:e9:06:6c:9c:24:16:bd:7b:49:b2:41
        Signature Algorithm: sha256WithRSAEncryption
        Issuer: CN=Root
        Validity
            Not Before: Oct  5 12:00:00 2022 GMT
            Not After : Oct  5 12:00:00 2023 GMT
        Subject: CN=Root
        Subject Public Key Info:
            Public Key Algorithm: rsaEncryption
                Public-Key: (2048 bit)
                Modulus:
                    00:a0:f9:c1:fa:93:42:7b:bf:e5:1e:21:e2:f5:cd:
                    db:f7:61:04:6e:ea:06:4c:fc:d5:2e:9f:5e:6e:97:
                    b2:d4:c3:f1:4c:18:01:5e:3e:85:e2:c0:73:ce:56:
                    fb:cc:4c:4e:f0:37:b5:e0:c6:31:5c:c0:06:5a:90:
                    24:d8:5d:88:ab:e3:53:2b:12:90:0b:16:c6:db:19:
                    74:e7:29:63:53:d9:5b:f3:e7:80:8c:5e:86:ff:e8:
                    e3:72:6b:09:6c:64:6b:92:34:f2:9c:bd:f4:b7:c1:
                    31:6f:74:00:31:3a:45:70:9f:5d:a5:d3:9c:91:7f:
                    fb:87:95:ef:07:f3:8d:8e:c9:a5:cb:ed:cc:2d:23:
                    bf:e4:98:93:88:8d:be:bc:50:02:2c:3a:0d:52:53:
                    7e:9a:20:04:da:52:db:a4:e5:72:bc:d6:40:40:7f:
                    51:86:29:d7:f5:f7:db:85:b3:a0:7d:7a:c5:04:3e:
                    e9:73:ca:65:3c:13:91:46:a1:b4:fb:6b:8b:a0:5e:
                    7c:c9:9d:3c:5e:c5:f6:2a:99:df:2e:13:1e:7d:d8:
                    db:30:02:52:d7:94:16:93:b8:20:5d:77:4d:26:6e:
                    9c:c8:5e:0a:56:ad:ba:d9:26:c0:80:dd:66:aa:09:
                    09:18:41:fa:f2:5c:7f:ae:10:45:25:ba:cc:0d:5d:
                    d8:3b
                Exponent: 65537 (0x10001)
        X509v3 extensions:
            X509v3 Subject Key Identifier: 
                27:0D:D0:55:88:5D:DE:1C:37:96:A0:62:14:C2:19:3C:C6:A4:1F:D1
            X509v3 Authority Key Identifier: 
                27:0D:D0:55:88:5D:DE:1C:37:96:A0:62:14:C2:19:3C:C6:A4:1F:D1
            Authority Information Access: 
                CA Issuers - URI:http://url-for-aia/Root.cer
            X509v3 CRL Distribution Points: 
                Full Name:
                  URI:http://url-for-crl/Root.crl
            X509v3 Key Usage: critical
                Certificate Sign, CRL Sign
            X509v3 Basic Constraints: critical
                CA:TRUE
    Signature Algorithm: sha256WithRSAEncryption
    Signature Value:
        56:9a:50:bc:c0:69:01:6a:fc:07:e1:0f:79:7a:00:ba:28:77:
        8d:4b:36:e3:d8:97:06:4a:89:d6:1b:3d:a8:ff:dd:26:1f:0b:
        64:c8:06:d9:d4:e0:a5:ff:54:c8:84:e5:c6:6b:5b:97:f5:a3:
        62:b1:ac:7a:95:11:2c:8a:05:08:f8:c9:3e:2d:d5:04:e1:27:
        dc:42:3f:6b:92:b9:03:ce:f3:0e:ad:b2:cf:8f:3a:85:35:5c:
        14:80:43:49:ff:16:6a:54:f4:a8:94:1a:ee:10:25:a3:fd:36:
        b0:52:8b:ed:63:97:15:f4:80:73:6e:08:19:bb:44:8a:b9:2b:
        fd:f8:4e:a4:90:92:c9:ee:47:3a:f0:da:ea:12:60:64:93:5d:
        09:23:e7:3c:7f:10:73:fe:97:35:c5:51:37:a5:94:75:23:6c:
        eb:32:a1:5f:23:59:2b:8a:dd:5d:29:e2:b2:56:62:86:d2:cf:
        8c:e1:04:63:99:0f:f2:63:1d:8e:a7:d3:33:27:21:ab:ad:d2:
        48:a6:40:80:5e:df:8d:91:7c:b7:1c:95:44:84:9d:e0:13:45:
        b4:a2:ca:d7:be:a2:33:5b:b9:2b:0c:ed:6f:cc:19:b7:b0:03:
        08:fa:9a:36:7b:f5:e9:31:cb:6a:c7:c1:ab:08:d2:cf:7e:be:
        75:55:8e:10
-----BEGIN CERTIFICATE-----
MIIDeDCCAmCgAwIBAgIUGpdanIC8OFH+6QZsnCQWvXtJskEwDQYJKoZIhvcNAQEL
BQAwDzENMAsGA1UEAwwEUm9vdDAeFw0yMjEwMDUxMjAwMDBaFw0yMzEwMDUxMjAw
MDBaMA8xDTALBgNVBAMMBFJvb3QwggEiMA0GCSqGSIb3DQEBAQUAA4IBDwAwggEK
AoIBAQCg+cH6k0J7v+UeIeL1zdv3YQRu6gZM/NUun15ul7LUw/FMGAFePoXiwHPO
VvvMTE7wN7XgxjFcwAZakCTYXYir41MrEpALFsbbGXTnKWNT2Vvz54CMXob/6ONy
awlsZGuSNPKcvfS3wTFvdAAxOkVwn12l05yRf/uHle8H842OyaXL7cwtI7/kmJOI
jb68UAIsOg1SU36aIATaUtuk5XK81kBAf1GGKdf199uFs6B9esUEPulzymU8E5FG
obT7a4ugXnzJnTxexfYqmd8uEx592NswAlLXlBaTuCBdd00mbpzIXgpWrbrZJsCA
3WaqCQkYQfryXH+uEEUluswNXdg7AgMBAAGjgcswgcgwHQYDVR0OBBYEFCcN0FWI
Xd4cN5agYhTCGTzGpB/RMB8GA1UdIwQYMBaAFCcN0FWIXd4cN5agYhTCGTzGpB/R
MDcGCCsGAQUFBwEBBCswKTAnBggrBgEFBQcwAoYbaHR0cDovL3VybC1mb3ItYWlh
L1Jvb3QuY2VyMCwGA1UdHwQlMCMwIaAfoB2GG2h0dHA6Ly91cmwtZm9yLWNybC9S
b290LmNybDAOBgNVHQ8BAf8EBAMCAQYwDwYDVR0TAQH/BAUwAwEB/zANBgkqhkiG
9w0BAQsFAAOCAQEAVppQvMBpAWr8B+EPeXoAuih3jUs249iXBkqJ1hs9qP/dJh8L
ZMgG2dTgpf9UyITlxmtbl/WjYrGsepURLIoFCPjJPi3VBOEn3EI/a5K5A87zDq2y
z486hTVcFIBDSf8WalT0qJQa7hAlo/02sFKL7WOXFfSAc24IGbtEirkr/fhOpJCS
ye5HOvDa6hJgZJNdCSPnPH8Qc/6XNcVRN6WUdSNs6zKhXyNZK4rdXSnislZihtLP
jOEEY5kP8mMdjqfTMychq63SSKZAgF7fjZF8txyVRISd4BNFtKLK176iM1u5Kwzt
b8wZt7ADCPqaNnv16THLasfBqwjSz36+dVWOEA==
-----END CERTIFICATE-----
