[Created by: generate-chains.py]

Certificate chain where the intermediate has a policies extension (not
marked as critical) which contains an unknown policy qualifer (1.2.3.4).

Certificate:
    Data:
        Version: 3 (0x2)
        Serial Number:
            31:6a:f9:bd:60:f3:6d:85:80:16:84:85:c0:6e:f2:0e:9a:01:52:0b
        Signature Algorithm: sha256WithRSAEncryption
        Issuer: CN=Intermediate
        Validity
            Not Before: Nov  3 12:00:00 2020 GMT
            Not After : Nov  3 12:00:00 2021 GMT
        Subject: CN=Target
        Subject Public Key Info:
            Public Key Algorithm: rsaEncryption
                RSA Public-Key: (2048 bit)
                Modulus:
                    00:be:d9:c3:94:6a:c2:d7:1b:b4:33:1a:29:0d:ca:
                    48:e2:f1:94:93:27:36:71:c1:a2:dc:67:0e:5d:67:
                    b0:a9:08:9c:67:08:ba:d9:74:5f:01:62:5d:7f:2a:
                    bb:32:ed:0c:af:c8:5a:b5:02:24:45:6f:90:4c:83:
                    ab:0e:30:19:c2:df:bc:d5:25:99:b0:f3:5e:e1:27:
                    5b:06:2f:ca:3e:d6:49:fb:87:8d:d3:fd:b9:b9:27:
                    80:be:b5:88:72:3b:1b:20:3f:04:69:04:89:66:ee:
                    20:f7:c2:90:c1:27:aa:29:fa:88:ff:2f:10:3b:81:
                    cf:d0:b9:e9:a7:84:dc:f1:a7:d0:49:e0:6e:17:b2:
                    ba:09:ed:be:9c:a3:f2:66:37:dd:20:98:43:31:bd:
                    02:d1:55:63:88:f6:55:13:20:b7:b9:0b:c9:c9:fb:
                    a3:5b:0f:90:56:e8:8a:dc:a5:7a:92:bc:46:5d:82:
                    a4:e1:42:2c:7c:76:65:63:87:f4:e0:5a:cf:15:22:
                    13:49:1d:aa:0d:ea:25:08:7c:63:19:39:2f:1d:15:
                    2e:7c:9a:e7:d5:03:21:76:6c:22:1a:be:12:8b:72:
                    c5:cb:0f:41:ef:0f:d3:be:78:1d:12:e0:c2:29:eb:
                    d7:36:28:54:ad:8d:ce:c8:79:2f:4f:13:c1:2b:3b:
                    e4:ff
                Exponent: 65537 (0x10001)
        X509v3 extensions:
            X509v3 Subject Key Identifier: 
                FE:3D:1B:76:A0:3D:EE:69:00:5B:D4:61:90:68:18:E3:29:EC:66:A3
            X509v3 Authority Key Identifier: 
                keyid:49:F0:C4:09:BE:16:68:CF:0A:C1:E0:EF:8F:A6:34:1F:94:63:6F:E6

            Authority Information Access: 
                CA Issuers - URI:http://url-for-aia/Intermediate.cer

            X509v3 CRL Distribution Points: 

                Full Name:
                  URI:http://url-for-crl/Intermediate.crl

            X509v3 Key Usage: critical
                Digital Signature, Key Encipherment
            X509v3 Extended Key Usage: 
                TLS Web Server Authentication, TLS Web Client Authentication
    Signature Algorithm: sha256WithRSAEncryption
         74:00:df:ff:0d:f5:6c:93:d3:33:c8:a1:47:39:05:89:77:23:
         3d:5f:18:62:9d:32:d5:b0:cd:02:68:61:4f:66:a5:d4:be:24:
         ba:2b:de:96:cf:2e:83:1d:3b:8f:bf:5e:1e:34:9c:96:e4:50:
         53:01:74:c7:3e:c4:21:0b:bd:08:35:8b:92:0f:05:8a:0d:bf:
         00:ce:ea:16:9d:53:76:ac:30:ed:63:be:07:48:e7:98:cc:71:
         6b:7c:0c:38:0a:f6:34:a8:29:42:bf:c9:83:34:07:71:74:05:
         13:c6:9a:25:40:e5:22:8c:b7:54:6a:6d:ea:1a:1f:74:78:bd:
         72:2e:03:41:d8:87:55:98:e3:c9:68:bd:a6:1d:3c:53:c7:f3:
         10:af:4d:7f:ed:4b:4c:66:d4:04:5f:e2:af:28:1a:ed:7e:8a:
         62:2e:90:8b:b1:02:8b:b8:4d:80:f7:64:a9:9f:b7:a0:56:d0:
         35:e1:8a:13:bd:c0:21:0f:58:a4:81:f9:d2:98:1b:0e:c2:33:
         52:74:73:f3:db:27:eb:ad:4c:1b:5a:12:f9:7d:bc:3e:8e:bc:
         21:64:dc:1a:49:ef:bd:51:fa:0f:51:7d:6c:d4:0d:3a:aa:30:
         2d:ca:c7:4a:31:b8:00:42:57:07:e8:1c:31:5a:00:23:fb:d4:
         2a:3b:58:7e
-----BEGIN CERTIFICATE-----
MIIDoDCCAoigAwIBAgIUMWr5vWDzbYWAFoSFwG7yDpoBUgswDQYJKoZIhvcNAQEL
BQAwFzEVMBMGA1UEAwwMSW50ZXJtZWRpYXRlMB4XDTIwMTEwMzEyMDAwMFoXDTIx
MTEwMzEyMDAwMFowETEPMA0GA1UEAwwGVGFyZ2V0MIIBIjANBgkqhkiG9w0BAQEF
AAOCAQ8AMIIBCgKCAQEAvtnDlGrC1xu0MxopDcpI4vGUkyc2ccGi3GcOXWewqQic
Zwi62XRfAWJdfyq7Mu0Mr8hatQIkRW+QTIOrDjAZwt+81SWZsPNe4SdbBi/KPtZJ
+4eN0/25uSeAvrWIcjsbID8EaQSJZu4g98KQwSeqKfqI/y8QO4HP0Lnpp4Tc8afQ
SeBuF7K6Ce2+nKPyZjfdIJhDMb0C0VVjiPZVEyC3uQvJyfujWw+QVuiK3KV6krxG
XYKk4UIsfHZlY4f04FrPFSITSR2qDeolCHxjGTkvHRUufJrn1QMhdmwiGr4Si3LF
yw9B7w/TvngdEuDCKevXNihUrY3OyHkvTxPBKzvk/wIDAQABo4HpMIHmMB0GA1Ud
DgQWBBT+PRt2oD3uaQBb1GGQaBjjKexmozAfBgNVHSMEGDAWgBRJ8MQJvhZozwrB
4O+PpjQflGNv5jA/BggrBgEFBQcBAQQzMDEwLwYIKwYBBQUHMAKGI2h0dHA6Ly91
cmwtZm9yLWFpYS9JbnRlcm1lZGlhdGUuY2VyMDQGA1UdHwQtMCswKaAnoCWGI2h0
dHA6Ly91cmwtZm9yLWNybC9JbnRlcm1lZGlhdGUuY3JsMA4GA1UdDwEB/wQEAwIF
oDAdBgNVHSUEFjAUBggrBgEFBQcDAQYIKwYBBQUHAwIwDQYJKoZIhvcNAQELBQAD
ggEBAHQA3/8N9WyT0zPIoUc5BYl3Iz1fGGKdMtWwzQJoYU9mpdS+JLor3pbPLoMd
O4+/Xh40nJbkUFMBdMc+xCELvQg1i5IPBYoNvwDO6hadU3asMO1jvgdI55jMcWt8
DDgK9jSoKUK/yYM0B3F0BRPGmiVA5SKMt1RqbeoaH3R4vXIuA0HYh1WY48lovaYd
PFPH8xCvTX/tS0xm1ARf4q8oGu1+imIukIuxAou4TYD3ZKmft6BW0DXhihO9wCEP
WKSB+dKYGw7CM1J0c/PbJ+utTBtaEvl9vD6OvCFk3BpJ771R+g9RfWzUDTqqMC3K
x0oxuABCVwfoHDFaACP71Co7WH4=
-----END CERTIFICATE-----

Certificate:
    Data:
        Version: 3 (0x2)
        Serial Number:
            1a:97:5a:9c:80:bc:38:51:fe:e9:06:6c:9c:24:16:bd:7b:49:b2:42
        Signature Algorithm: sha256WithRSAEncryption
        Issuer: CN=Root
        Validity
            Not Before: Nov  3 12:00:00 2020 GMT
            Not After : Nov  3 12:00:00 2021 GMT
        Subject: CN=Intermediate
        Subject Public Key Info:
            Public Key Algorithm: rsaEncryption
                RSA Public-Key: (2048 bit)
                Modulus:
                    00:d9:74:6c:03:22:ab:05:1b:af:d1:34:43:ac:2a:
                    a3:bd:5d:dc:13:39:5f:df:ff:f4:bd:3c:bd:56:1e:
                    b5:e9:b2:19:1d:49:ff:9c:5a:31:9c:20:74:87:27:
                    81:22:50:a3:c2:90:da:48:da:c2:cd:4a:4d:dd:ec:
                    75:d7:61:5b:32:57:1e:1d:63:82:54:69:49:f1:ff:
                    3e:a5:67:46:b2:77:73:61:ce:30:9c:d5:f7:36:1f:
                    83:0e:12:f8:37:48:a9:36:e6:38:61:13:5a:1d:a7:
                    70:17:d2:0d:81:87:f0:cf:02:3c:13:56:fc:e9:79:
                    96:c0:6d:8a:5d:a7:ad:e7:c5:3f:09:28:aa:e9:a8:
                    6b:23:a3:78:fe:34:11:ba:d0:12:59:cf:b3:8a:68:
                    df:96:2f:44:b0:b9:72:54:cf:ba:1b:2c:8c:56:a4:
                    9d:db:b8:55:72:42:04:13:77:cc:75:04:3d:e9:b1:
                    fa:a4:19:1b:3d:6f:0a:c2:7a:48:37:8b:35:c6:e1:
                    cc:c6:50:b5:45:c0:f2:30:ca:ff:df:75:af:4b:c3:
                    c7:63:11:da:fb:54:bf:53:57:a0:ce:75:18:53:8e:
                    c7:49:c3:4a:79:88:a4:1d:34:a4:e0:d2:f4:63:ca:
                    5a:02:89:c3:94:a3:38:32:f6:3b:e1:06:e4:02:e4:
                    d0:25
                Exponent: 65537 (0x10001)
        X509v3 extensions:
            X509v3 Subject Key Identifier: 
                49:F0:C4:09:BE:16:68:CF:0A:C1:E0:EF:8F:A6:34:1F:94:63:6F:E6
            X509v3 Authority Key Identifier: 
                keyid:27:0D:D0:55:88:5D:DE:1C:37:96:A0:62:14:C2:19:3C:C6:A4:1F:D1

            Authority Information Access: 
                CA Issuers - URI:http://url-for-aia/Root.cer

            X509v3 CRL Distribution Points: 

                Full Name:
                  URI:http://url-for-crl/Root.crl

            X509v3 Key Usage: critical
                Certificate Sign, CRL Sign
            X509v3 Basic Constraints: critical
                CA:TRUE
            X509v3 Certificate Policies: 
                Policy: 1.2.3
                    Unknown Qualifier: 1.2.3.4

    Signature Algorithm: sha256WithRSAEncryption
         18:1b:1a:aa:f3:a9:68:90:f1:42:e1:ef:82:b6:92:1b:f9:85:
         ca:91:33:3e:39:13:52:b7:fd:bd:89:3c:2d:65:52:29:44:06:
         59:f2:c0:91:72:3b:33:cf:51:72:c2:c1:6d:04:22:e0:f5:cc:
         d8:6e:64:a2:dd:e0:f6:dd:1e:74:c0:9f:65:0f:b7:13:9e:ae:
         f4:16:64:38:22:0c:64:04:d7:3d:f4:a8:d3:d6:19:4f:c8:81:
         32:6a:ef:8d:ad:f4:ae:87:cc:ae:b6:10:45:40:77:1d:a8:35:
         2a:ad:61:28:20:e3:2b:3a:e0:6a:fd:c0:26:a3:14:7a:29:e9:
         94:06:2f:51:38:42:0b:56:5e:24:4e:00:3c:0e:3a:f3:21:e7:
         69:05:ea:36:36:8c:f8:e8:0a:01:5e:74:85:21:35:15:cb:43:
         f5:f7:16:09:95:a3:68:fa:a2:33:81:8e:03:ba:fc:d6:76:bb:
         1d:00:da:6e:ff:54:5c:3f:40:d0:33:9c:7b:11:45:44:b6:3b:
         41:e1:91:5d:50:34:62:15:91:ad:a7:96:e9:ec:a6:d8:da:ba:
         a7:f3:aa:47:cd:cb:ba:1c:e8:c2:d7:73:75:37:b3:d6:46:2b:
         ef:e3:a7:e6:e4:cd:e9:29:e9:f7:02:49:5b:03:a9:e1:f9:f0:
         cf:97:90:8b
-----BEGIN CERTIFICATE-----
MIIDnjCCAoagAwIBAgIUGpdanIC8OFH+6QZsnCQWvXtJskIwDQYJKoZIhvcNAQEL
BQAwDzENMAsGA1UEAwwEUm9vdDAeFw0yMDExMDMxMjAwMDBaFw0yMTExMDMxMjAw
MDBaMBcxFTATBgNVBAMMDEludGVybWVkaWF0ZTCCASIwDQYJKoZIhvcNAQEBBQAD
ggEPADCCAQoCggEBANl0bAMiqwUbr9E0Q6wqo71d3BM5X9//9L08vVYetemyGR1J
/5xaMZwgdIcngSJQo8KQ2kjaws1KTd3sdddhWzJXHh1jglRpSfH/PqVnRrJ3c2HO
MJzV9zYfgw4S+DdIqTbmOGETWh2ncBfSDYGH8M8CPBNW/Ol5lsBtil2nrefFPwko
qumoayOjeP40EbrQElnPs4po35YvRLC5clTPuhssjFakndu4VXJCBBN3zHUEPemx
+qQZGz1vCsJ6SDeLNcbhzMZQtUXA8jDK/991r0vDx2MR2vtUv1NXoM51GFOOx0nD
SnmIpB00pODS9GPKWgKJw5SjODL2O+EG5ALk0CUCAwEAAaOB6TCB5jAdBgNVHQ4E
FgQUSfDECb4WaM8KweDvj6Y0H5Rjb+YwHwYDVR0jBBgwFoAUJw3QVYhd3hw3lqBi
FMIZPMakH9EwNwYIKwYBBQUHAQEEKzApMCcGCCsGAQUFBzAChhtodHRwOi8vdXJs
LWZvci1haWEvUm9vdC5jZXIwLAYDVR0fBCUwIzAhoB+gHYYbaHR0cDovL3VybC1m
b3ItY3JsL1Jvb3QuY3JsMA4GA1UdDwEB/wQEAwIBBjAPBgNVHRMBAf8EBTADAQH/
MBwGA1UdIAQVMBMwEQYCKgMwCzAJBgMqAwQMAmhpMA0GCSqGSIb3DQEBCwUAA4IB
AQAYGxqq86lokPFC4e+CtpIb+YXKkTM+ORNSt/29iTwtZVIpRAZZ8sCRcjszz1Fy
wsFtBCLg9czYbmSi3eD23R50wJ9lD7cTnq70FmQ4IgxkBNc99KjT1hlPyIEyau+N
rfSuh8yuthBFQHcdqDUqrWEoIOMrOuBq/cAmoxR6KemUBi9ROEILVl4kTgA8Djrz
IedpBeo2Noz46AoBXnSFITUVy0P19xYJlaNo+qIzgY4DuvzWdrsdANpu/1RcP0DQ
M5x7EUVEtjtB4ZFdUDRiFZGtp5bp7KbY2rqn86pHzcu6HOjC13N1N7PWRivv46fm
5M3pKen3AklbA6nh+fDPl5CL
-----END CERTIFICATE-----

Certificate:
    Data:
        Version: 3 (0x2)
        Serial Number:
            1a:97:5a:9c:80:bc:38:51:fe:e9:06:6c:9c:24:16:bd:7b:49:b2:41
        Signature Algorithm: sha256WithRSAEncryption
        Issuer: CN=Root
        Validity
            Not Before: Nov  3 12:00:00 2020 GMT
            Not After : Nov  3 12:00:00 2021 GMT
        Subject: CN=Root
        Subject Public Key Info:
            Public Key Algorithm: rsaEncryption
                RSA Public-Key: (2048 bit)
                Modulus:
                    00:a0:f9:c1:fa:93:42:7b:bf:e5:1e:21:e2:f5:cd:
                    db:f7:61:04:6e:ea:06:4c:fc:d5:2e:9f:5e:6e:97:
                    b2:d4:c3:f1:4c:18:01:5e:3e:85:e2:c0:73:ce:56:
                    fb:cc:4c:4e:f0:37:b5:e0:c6:31:5c:c0:06:5a:90:
                    24:d8:5d:88:ab:e3:53:2b:12:90:0b:16:c6:db:19:
                    74:e7:29:63:53:d9:5b:f3:e7:80:8c:5e:86:ff:e8:
                    e3:72:6b:09:6c:64:6b:92:34:f2:9c:bd:f4:b7:c1:
                    31:6f:74:00:31:3a:45:70:9f:5d:a5:d3:9c:91:7f:
                    fb:87:95:ef:07:f3:8d:8e:c9:a5:cb:ed:cc:2d:23:
                    bf:e4:98:93:88:8d:be:bc:50:02:2c:3a:0d:52:53:
                    7e:9a:20:04:da:52:db:a4:e5:72:bc:d6:40:40:7f:
                    51:86:29:d7:f5:f7:db:85:b3:a0:7d:7a:c5:04:3e:
                    e9:73:ca:65:3c:13:91:46:a1:b4:fb:6b:8b:a0:5e:
                    7c:c9:9d:3c:5e:c5:f6:2a:99:df:2e:13:1e:7d:d8:
                    db:30:02:52:d7:94:16:93:b8:20:5d:77:4d:26:6e:
                    9c:c8:5e:0a:56:ad:ba:d9:26:c0:80:dd:66:aa:09:
                    09:18:41:fa:f2:5c:7f:ae:10:45:25:ba:cc:0d:5d:
                    d8:3b
                Exponent: 65537 (0x10001)
        X509v3 extensions:
            X509v3 Subject Key Identifier: 
                27:0D:D0:55:88:5D:DE:1C:37:96:A0:62:14:C2:19:3C:C6:A4:1F:D1
            X509v3 Authority Key Identifier: 
                keyid:27:0D:D0:55:88:5D:DE:1C:37:96:A0:62:14:C2:19:3C:C6:A4:1F:D1

            Authority Information Access: 
                CA Issuers - URI:http://url-for-aia/Root.cer

            X509v3 CRL Distribution Points: 

                Full Name:
                  URI:http://url-for-crl/Root.crl

            X509v3 Key Usage: critical
                Certificate Sign, CRL Sign
            X509v3 Basic Constraints: critical
                CA:TRUE
    Signature Algorithm: sha256WithRSAEncryption
         64:6e:80:90:f3:2c:ad:f6:a8:4b:d6:92:be:6b:70:b1:d2:91:
         69:90:ce:81:11:1e:9d:21:e8:cf:ab:5f:26:89:20:2e:0b:5e:
         1e:d4:76:1d:12:6c:a2:21:1b:d9:b9:55:f4:c0:9e:b8:78:ef:
         4d:7c:20:c0:65:34:5d:49:32:69:cb:c1:71:b9:0f:a4:6f:44:
         b1:de:46:62:1d:32:69:f8:73:5d:ab:53:01:fa:2c:41:bf:8b:
         b6:dd:85:f6:9f:66:b6:b4:a0:95:5a:de:c5:92:9c:86:4d:13:
         db:f4:00:54:44:c8:d9:b3:28:63:92:47:db:a3:a2:5d:f0:88:
         27:18:62:a8:58:b3:3f:f7:f0:f9:3f:aa:15:ab:58:02:6e:a8:
         1b:fa:87:9f:42:b5:91:7d:21:19:f4:4e:83:cf:3c:37:6a:a6:
         f0:17:1c:fe:01:2a:6d:c9:ff:7a:93:e6:ab:70:9d:b1:a7:fe:
         82:6b:9c:0a:bd:39:fd:4b:c1:58:e6:bc:0b:72:55:3a:f1:56:
         13:cb:16:6c:a0:6a:a6:ff:ed:47:12:79:e3:9f:6b:50:8a:7e:
         42:05:60:c6:8a:df:bf:c8:7a:61:09:a6:8f:f4:05:5f:ee:b5:
         b5:87:0c:fb:c6:76:00:bb:20:4e:a0:34:c8:8a:96:33:43:17:
         06:77:8c:11
-----BEGIN CERTIFICATE-----
MIIDeDCCAmCgAwIBAgIUGpdanIC8OFH+6QZsnCQWvXtJskEwDQYJKoZIhvcNAQEL
BQAwDzENMAsGA1UEAwwEUm9vdDAeFw0yMDExMDMxMjAwMDBaFw0yMTExMDMxMjAw
MDBaMA8xDTALBgNVBAMMBFJvb3QwggEiMA0GCSqGSIb3DQEBAQUAA4IBDwAwggEK
AoIBAQCg+cH6k0J7v+UeIeL1zdv3YQRu6gZM/NUun15ul7LUw/FMGAFePoXiwHPO
VvvMTE7wN7XgxjFcwAZakCTYXYir41MrEpALFsbbGXTnKWNT2Vvz54CMXob/6ONy
awlsZGuSNPKcvfS3wTFvdAAxOkVwn12l05yRf/uHle8H842OyaXL7cwtI7/kmJOI
jb68UAIsOg1SU36aIATaUtuk5XK81kBAf1GGKdf199uFs6B9esUEPulzymU8E5FG
obT7a4ugXnzJnTxexfYqmd8uEx592NswAlLXlBaTuCBdd00mbpzIXgpWrbrZJsCA
3WaqCQkYQfryXH+uEEUluswNXdg7AgMBAAGjgcswgcgwHQYDVR0OBBYEFCcN0FWI
Xd4cN5agYhTCGTzGpB/RMB8GA1UdIwQYMBaAFCcN0FWIXd4cN5agYhTCGTzGpB/R
MDcGCCsGAQUFBwEBBCswKTAnBggrBgEFBQcwAoYbaHR0cDovL3VybC1mb3ItYWlh
L1Jvb3QuY2VyMCwGA1UdHwQlMCMwIaAfoB2GG2h0dHA6Ly91cmwtZm9yLWNybC9S
b290LmNybDAOBgNVHQ8BAf8EBAMCAQYwDwYDVR0TAQH/BAUwAwEB/zANBgkqhkiG
9w0BAQsFAAOCAQEAZG6AkPMsrfaoS9aSvmtwsdKRaZDOgREenSHoz6tfJokgLgte
HtR2HRJsoiEb2blV9MCeuHjvTXwgwGU0XUkyacvBcbkPpG9Esd5GYh0yafhzXatT
AfosQb+Ltt2F9p9mtrSglVrexZKchk0T2/QAVETI2bMoY5JH26OiXfCIJxhiqFiz
P/fw+T+qFatYAm6oG/qHn0K1kX0hGfROg888N2qm8Bcc/gEqbcn/epPmq3Cdsaf+
gmucCr05/UvBWOa8C3JVOvFWE8sWbKBqpv/tRxJ5459rUIp+QgVgxorfv8h6YQmm
j/QFX+61tYcM+8Z2ALsgTqA0yIqWM0MXBneMEQ==
-----END CERTIFICATE-----
