[Created by: generate-chains.py]

Certificate chain where the intermediate restricts the extended key usage to
clientAuth + any, and the target sets serverAuth + clientAuth.

Certificate:
    Data:
        Version: 3 (0x2)
        Serial Number:
            0f:19:5d:e8:71:6f:db:08:2d:79:97:74:46:0c:ac:d5:3d:49:b8:b2
        Signature Algorithm: sha256WithRSAEncryption
        Issuer: CN=Intermediate
        Validity
            Not Before: Oct  5 12:00:00 2022 GMT
            Not After : Oct  5 12:00:00 2023 GMT
        Subject: CN=Target
        Subject Public Key Info:
            Public Key Algorithm: rsaEncryption
                Public-Key: (2048 bit)
                Modulus:
                    00:ae:2e:8b:18:8d:f7:76:2c:94:0c:3f:a0:b6:ea:
                    70:1f:5e:c8:48:c5:aa:ad:55:6b:bd:55:68:0d:8e:
                    ce:e5:99:27:c5:2c:b2:9a:29:a9:8f:8e:c3:c6:97:
                    89:6d:31:d7:a4:8f:d8:36:37:4f:33:c7:d6:42:03:
                    11:08:c4:7f:35:8c:ee:0f:1b:7a:31:74:04:aa:01:
                    d3:1e:8b:5b:01:9d:60:4b:9c:d1:8f:1e:ab:e5:dc:
                    8f:17:77:49:e3:f6:d5:82:a5:2f:0a:e8:dc:9f:96:
                    1e:2a:a1:41:d1:67:2c:9e:f3:7f:94:0c:6e:cf:5f:
                    55:52:37:05:d0:39:37:1a:6e:11:ed:db:fa:aa:92:
                    a7:4f:50:29:07:69:af:1d:a7:99:fa:e1:56:f0:03:
                    38:b0:ae:6b:e7:19:0b:dd:c3:07:31:8e:84:04:a5:
                    b4:eb:b8:bc:23:f3:40:b0:17:b4:ab:9e:3f:05:96:
                    89:fc:84:23:cc:d1:06:c2:e4:8b:c6:65:f5:24:eb:
                    72:31:bc:41:7d:3a:c9:55:08:0c:ee:a6:ae:1f:78:
                    17:f8:a7:9d:7b:b1:82:f5:ce:82:6b:a8:b2:c6:8a:
                    b9:be:a5:d8:39:f4:49:e2:4c:53:32:85:26:53:4d:
                    44:ce:d5:3b:a0:6b:e7:d9:02:a1:5a:ef:e1:a5:81:
                    a7:fb
                Exponent: 65537 (0x10001)
        X509v3 extensions:
            X509v3 Subject Key Identifier: 
                EB:B0:1C:BD:B7:68:B8:D1:B9:8A:C2:9F:5D:CF:DD:AF:F2:62:70:8A
            X509v3 Authority Key Identifier: 
                EE:C6:9A:65:CC:FB:CE:A0:3E:17:02:F9:68:12:86:B6:22:09:60:B4
            Authority Information Access: 
                CA Issuers - URI:http://url-for-aia/Intermediate.cer
            X509v3 CRL Distribution Points: 
                Full Name:
                  URI:http://url-for-crl/Intermediate.crl
            X509v3 Key Usage: critical
                Digital Signature, Key Encipherment
            X509v3 Extended Key Usage: 
                TLS Web Server Authentication, TLS Web Client Authentication
    Signature Algorithm: sha256WithRSAEncryption
    Signature Value:
        90:c8:9d:d2:3f:29:fb:ea:ca:3a:61:4a:7b:d0:62:d4:cf:af:
        9e:b4:97:6b:c8:5f:6e:87:93:fd:a1:22:9d:59:35:bf:56:26:
        d7:ae:33:44:39:31:8b:01:be:a1:5b:b9:24:17:28:cb:e0:fe:
        7c:fd:f5:ac:4e:ce:50:7c:2e:ca:a4:c0:bd:a4:fb:f5:1a:d8:
        f6:52:f4:e8:04:95:00:8d:77:de:16:e7:92:10:46:b6:53:a7:
        94:9d:a9:45:92:94:23:4e:fd:c6:2a:27:55:6c:cc:41:2e:d3:
        c9:c1:6e:0d:bd:6d:90:7e:d9:53:7e:71:01:8b:58:aa:67:c9:
        4c:93:6a:41:93:ab:f4:f3:38:1f:48:44:9a:64:e1:d3:d9:fb:
        91:c8:0e:df:5d:5a:3d:14:e5:a1:a2:89:0e:1b:1d:d6:a8:fd:
        1e:3b:c7:ad:a0:cd:89:5d:03:db:cf:c0:5c:b9:e3:89:4b:b4:
        22:52:14:28:7b:75:0a:bb:55:05:31:8e:16:82:a5:44:e0:21:
        0d:a3:99:7d:17:da:b5:cb:71:db:ac:13:b8:af:e6:e8:30:e4:
        af:6e:c2:a2:80:56:af:16:2d:6d:f3:eb:e7:cb:1d:d2:b6:b4:
        ee:72:3f:35:06:5b:91:8c:8c:ce:eb:98:d1:da:79:ab:d6:e8:
        7c:b4:c6:01
-----BEGIN CERTIFICATE-----
MIIDoDCCAoigAwIBAgIUDxld6HFv2wgteZd0Rgys1T1JuLIwDQYJKoZIhvcNAQEL
BQAwFzEVMBMGA1UEAwwMSW50ZXJtZWRpYXRlMB4XDTIyMTAwNTEyMDAwMFoXDTIz
MTAwNTEyMDAwMFowETEPMA0GA1UEAwwGVGFyZ2V0MIIBIjANBgkqhkiG9w0BAQEF
AAOCAQ8AMIIBCgKCAQEAri6LGI33diyUDD+gtupwH17ISMWqrVVrvVVoDY7O5Zkn
xSyymimpj47DxpeJbTHXpI/YNjdPM8fWQgMRCMR/NYzuDxt6MXQEqgHTHotbAZ1g
S5zRjx6r5dyPF3dJ4/bVgqUvCujcn5YeKqFB0WcsnvN/lAxuz19VUjcF0Dk3Gm4R
7dv6qpKnT1ApB2mvHaeZ+uFW8AM4sK5r5xkL3cMHMY6EBKW067i8I/NAsBe0q54/
BZaJ/IQjzNEGwuSLxmX1JOtyMbxBfTrJVQgM7qauH3gX+Kede7GC9c6Ca6iyxoq5
vqXYOfRJ4kxTMoUmU01EztU7oGvn2QKhWu/hpYGn+wIDAQABo4HpMIHmMB0GA1Ud
DgQWBBTrsBy9t2i40bmKwp9dz92v8mJwijAfBgNVHSMEGDAWgBTuxpplzPvOoD4X
AvloEoa2IglgtDA/BggrBgEFBQcBAQQzMDEwLwYIKwYBBQUHMAKGI2h0dHA6Ly91
cmwtZm9yLWFpYS9JbnRlcm1lZGlhdGUuY2VyMDQGA1UdHwQtMCswKaAnoCWGI2h0
dHA6Ly91cmwtZm9yLWNybC9JbnRlcm1lZGlhdGUuY3JsMA4GA1UdDwEB/wQEAwIF
oDAdBgNVHSUEFjAUBggrBgEFBQcDAQYIKwYBBQUHAwIwDQYJKoZIhvcNAQELBQAD
ggEBAJDIndI/KfvqyjphSnvQYtTPr560l2vIX26Hk/2hIp1ZNb9WJteuM0Q5MYsB
vqFbuSQXKMvg/nz99axOzlB8LsqkwL2k+/Ua2PZS9OgElQCNd94W55IQRrZTp5Sd
qUWSlCNO/cYqJ1VszEEu08nBbg29bZB+2VN+cQGLWKpnyUyTakGTq/TzOB9IRJpk
4dPZ+5HIDt9dWj0U5aGiiQ4bHdao/R47x62gzYldA9vPwFy544lLtCJSFCh7dQq7
VQUxjhaCpUTgIQ2jmX0X2rXLcdusE7iv5ugw5K9uwqKAVq8WLW3z6+fLHdK2tO5y
PzUGW5GMjM7rmNHaeavW6Hy0xgE=
-----END CERTIFICATE-----

Certificate:
    Data:
        Version: 3 (0x2)
        Serial Number:
            22:f0:bc:f5:46:4d:72:4b:8a:5f:7a:8d:54:e1:d7:60:ae:dd:08:ea
        Signature Algorithm: sha256WithRSAEncryption
        Issuer: CN=Root
        Validity
            Not Before: Oct  5 12:00:00 2022 GMT
            Not After : Oct  5 12:00:00 2023 GMT
        Subject: CN=Intermediate
        Subject Public Key Info:
            Public Key Algorithm: rsaEncryption
                Public-Key: (2048 bit)
                Modulus:
                    00:d1:41:40:6f:cb:25:05:d9:29:d0:a3:c7:fe:2f:
                    f0:53:ad:46:36:19:aa:b1:1f:3f:7a:a2:e0:fb:03:
                    2b:77:65:6a:79:eb:f3:a3:16:13:34:83:3b:42:de:
                    a2:bb:e2:bf:d8:d2:75:3d:48:38:86:bb:2a:7d:14:
                    a3:88:f7:7c:00:f4:0a:6b:6b:aa:9b:44:24:62:fe:
                    db:a3:42:55:15:67:2a:32:ff:b2:4d:80:93:d0:84:
                    ef:1b:dc:7c:ac:56:2d:54:08:02:f6:18:6e:b5:80:
                    a8:77:52:1f:b8:2c:09:6d:cc:f8:1c:04:91:62:6e:
                    1e:dd:1d:89:b2:f1:23:0b:4d:4c:6c:da:49:3d:61:
                    83:72:0f:66:36:12:3f:f3:ff:53:52:73:53:a1:ca:
                    38:bd:c3:48:bf:7a:2f:13:19:d7:c2:28:e1:6f:32:
                    00:5e:64:ac:4b:05:7a:77:62:57:55:a9:59:83:d5:
                    ed:a3:2e:28:34:71:79:2f:b9:c3:9e:df:b3:2a:b1:
                    59:cd:04:00:1d:8b:11:56:ae:c6:67:f6:4f:1d:58:
                    07:65:e0:b0:2f:ef:57:6d:de:c1:a0:7c:6e:38:a8:
                    45:26:21:96:e0:f6:ef:0e:28:cf:01:70:57:dc:20:
                    15:08:ad:e8:e3:98:74:8c:54:32:c1:28:17:e0:de:
                    a1:8b
                Exponent: 65537 (0x10001)
        X509v3 extensions:
            X509v3 Subject Key Identifier: 
                EE:C6:9A:65:CC:FB:CE:A0:3E:17:02:F9:68:12:86:B6:22:09:60:B4
            X509v3 Authority Key Identifier: 
                42:75:41:34:C5:59:9F:99:A3:9B:1C:0C:57:DB:5C:C7:C1:48:B7:91
            Authority Information Access: 
                CA Issuers - URI:http://url-for-aia/Root.cer
            X509v3 CRL Distribution Points: 
                Full Name:
                  URI:http://url-for-crl/Root.crl
            X509v3 Key Usage: critical
                Certificate Sign, CRL Sign
            X509v3 Basic Constraints: critical
                CA:TRUE
            X509v3 Extended Key Usage: 
                TLS Web Client Authentication, Any Extended Key Usage
    Signature Algorithm: sha256WithRSAEncryption
    Signature Value:
        ae:0c:3a:05:ff:15:63:2c:05:83:6b:78:95:11:f8:aa:89:32:
        ad:ce:42:ac:e5:03:4c:8c:fc:92:21:48:d6:1c:70:e8:a9:86:
        2d:fd:3d:b6:b5:7e:f0:7b:eb:f5:e3:b5:01:f9:bd:f5:a5:bd:
        44:88:1e:85:48:a2:8b:f4:92:79:d5:4f:ca:4e:ff:b8:ee:33:
        0e:29:22:2a:b2:c0:71:a3:88:c5:c4:99:e1:bb:88:7f:f3:2c:
        d2:36:a9:f3:25:56:d5:77:5c:80:bb:62:5b:c7:6e:32:4c:b6:
        94:17:75:bd:a8:e0:2d:6d:85:73:ea:b6:73:a7:43:6b:16:c6:
        d1:1a:5f:a2:af:5a:6f:96:91:8b:12:07:f3:a0:e5:a3:25:4e:
        bc:21:bc:7f:3b:2f:6e:ba:4c:07:3f:09:07:60:27:91:b2:d0:
        36:02:ad:d3:ff:f5:91:98:db:9e:4a:9e:18:77:da:fe:ca:5a:
        ca:18:99:29:e3:e7:0a:85:54:f2:8f:72:69:6c:eb:9a:6d:cc:
        3b:7d:94:5b:0c:5d:42:a9:12:05:d5:b3:5a:9f:03:ca:b7:69:
        68:54:02:0a:8c:4b:74:a7:32:25:93:1c:92:4d:32:d8:f4:ab:
        5e:05:e2:c4:81:96:2e:c4:40:38:6c:d8:98:2e:17:30:a0:80:
        a4:62:76:18
-----BEGIN CERTIFICATE-----
MIIDmzCCAoOgAwIBAgIUIvC89UZNckuKX3qNVOHXYK7dCOowDQYJKoZIhvcNAQEL
BQAwDzENMAsGA1UEAwwEUm9vdDAeFw0yMjEwMDUxMjAwMDBaFw0yMzEwMDUxMjAw
MDBaMBcxFTATBgNVBAMMDEludGVybWVkaWF0ZTCCASIwDQYJKoZIhvcNAQEBBQAD
ggEPADCCAQoCggEBANFBQG/LJQXZKdCjx/4v8FOtRjYZqrEfP3qi4PsDK3dlannr
86MWEzSDO0Leorviv9jSdT1IOIa7Kn0Uo4j3fAD0CmtrqptEJGL+26NCVRVnKjL/
sk2Ak9CE7xvcfKxWLVQIAvYYbrWAqHdSH7gsCW3M+BwEkWJuHt0dibLxIwtNTGza
ST1hg3IPZjYSP/P/U1JzU6HKOL3DSL96LxMZ18Io4W8yAF5krEsFendiV1WpWYPV
7aMuKDRxeS+5w57fsyqxWc0EAB2LEVauxmf2Tx1YB2XgsC/vV23ewaB8bjioRSYh
luD27w4ozwFwV9wgFQit6OOYdIxUMsEoF+DeoYsCAwEAAaOB5jCB4zAdBgNVHQ4E
FgQU7saaZcz7zqA+FwL5aBKGtiIJYLQwHwYDVR0jBBgwFoAUQnVBNMVZn5mjmxwM
V9tcx8FIt5EwNwYIKwYBBQUHAQEEKzApMCcGCCsGAQUFBzAChhtodHRwOi8vdXJs
LWZvci1haWEvUm9vdC5jZXIwLAYDVR0fBCUwIzAhoB+gHYYbaHR0cDovL3VybC1m
b3ItY3JsL1Jvb3QuY3JsMA4GA1UdDwEB/wQEAwIBBjAPBgNVHRMBAf8EBTADAQH/
MBkGA1UdJQQSMBAGCCsGAQUFBwMCBgRVHSUAMA0GCSqGSIb3DQEBCwUAA4IBAQCu
DDoF/xVjLAWDa3iVEfiqiTKtzkKs5QNMjPySIUjWHHDoqYYt/T22tX7we+v147UB
+b31pb1EiB6FSKKL9JJ51U/KTv+47jMOKSIqssBxo4jFxJnhu4h/8yzSNqnzJVbV
d1yAu2Jbx24yTLaUF3W9qOAtbYVz6rZzp0NrFsbRGl+ir1pvlpGLEgfzoOWjJU68
Ibx/Oy9uukwHPwkHYCeRstA2Aq3T//WRmNueSp4Yd9r+ylrKGJkp4+cKhVTyj3Jp
bOuabcw7fZRbDF1CqRIF1bNanwPKt2loVAIKjEt0pzIlkxySTTLY9KteBeLEgZYu
xEA4bNiYLhcwoICkYnYY
-----END CERTIFICATE-----

Certificate:
    Data:
        Version: 3 (0x2)
        Serial Number:
            22:f0:bc:f5:46:4d:72:4b:8a:5f:7a:8d:54:e1:d7:60:ae:dd:08:e9
        Signature Algorithm: sha256WithRSAEncryption
        Issuer: CN=Root
        Validity
            Not Before: Oct  5 12:00:00 2022 GMT
            Not After : Oct  5 12:00:00 2023 GMT
        Subject: CN=Root
        Subject Public Key Info:
            Public Key Algorithm: rsaEncryption
                Public-Key: (2048 bit)
                Modulus:
                    00:c3:96:66:c7:e7:fd:21:14:ec:df:4a:05:1a:8c:
                    22:da:8f:3e:b7:8e:ca:a2:de:d7:e3:08:05:cd:28:
                    1c:da:d4:99:ba:ad:de:92:07:44:18:55:e7:b5:41:
                    6b:38:64:18:06:ab:6c:b8:ad:3d:b8:4e:c8:fa:8c:
                    fc:58:2c:2c:a8:42:08:28:b4:85:2a:aa:57:e2:a8:
                    76:4a:6e:fe:38:2f:d1:14:c6:52:6f:05:a4:89:54:
                    c2:0f:f0:93:83:09:b7:55:56:94:7b:57:65:87:09:
                    dd:61:ea:1a:02:3c:24:a5:cc:2d:d3:7c:0a:dc:2e:
                    67:a2:7f:91:ad:b4:76:76:02:ac:7f:85:5f:61:86:
                    0c:60:15:a0:82:7f:85:16:f4:10:8d:49:27:e4:33:
                    58:75:55:6b:5a:ab:c7:d1:bd:3d:a8:3b:68:1b:b4:
                    de:68:89:c4:87:fe:87:04:d4:52:f3:8f:fa:2e:44:
                    79:c1:62:46:b7:88:4c:bb:75:61:fd:e6:c5:6a:fb:
                    a8:3b:ef:a7:e6:1a:1e:44:2d:61:a7:4e:63:5e:66:
                    b8:f7:85:60:74:8b:ea:20:82:84:84:71:f5:1d:c6:
                    0c:c2:ee:11:78:01:ae:44:5a:e3:7b:97:2e:01:d0:
                    18:91:77:01:23:7f:d2:21:73:f4:f3:9a:94:ad:93:
                    2e:a1
                Exponent: 65537 (0x10001)
        X509v3 extensions:
            X509v3 Subject Key Identifier: 
                42:75:41:34:C5:59:9F:99:A3:9B:1C:0C:57:DB:5C:C7:C1:48:B7:91
            X509v3 Authority Key Identifier: 
                42:75:41:34:C5:59:9F:99:A3:9B:1C:0C:57:DB:5C:C7:C1:48:B7:91
            Authority Information Access: 
                CA Issuers - URI:http://url-for-aia/Root.cer
            X509v3 CRL Distribution Points: 
                Full Name:
                  URI:http://url-for-crl/Root.crl
            X509v3 Key Usage: critical
                Certificate Sign, CRL Sign
            X509v3 Basic Constraints: critical
                CA:TRUE
    Signature Algorithm: sha256WithRSAEncryption
    Signature Value:
        07:dd:8e:cb:b8:ee:af:d7:b8:ec:bf:80:c5:f7:65:77:0a:84:
        bf:e2:58:e5:d7:3e:ae:7b:d8:ef:6a:e2:35:db:22:06:25:17:
        bf:23:22:1c:7e:0a:f8:bf:cc:01:be:d6:1a:bd:ec:5d:46:5c:
        b0:d5:19:30:17:26:b0:b8:52:87:4e:bf:a1:11:89:9e:26:e6:
        f4:e4:b1:82:21:16:ed:9b:aa:fb:a0:7d:ec:dd:00:4f:13:11:
        fa:20:2e:cf:6c:8d:9f:72:d9:9d:02:86:9d:8a:aa:d5:16:c5:
        8a:3a:fa:0f:ba:08:a1:86:a9:5d:89:f9:e3:2f:3c:82:4b:0c:
        50:9d:58:74:c7:bd:e8:aa:a8:75:3c:60:90:12:c5:3d:d0:0a:
        c1:b8:26:52:cb:05:fc:c1:8a:c5:a1:3e:83:7d:ce:8c:c0:d6:
        f8:24:93:12:58:83:a9:d8:11:b0:94:ea:69:03:10:dc:d2:b0:
        3b:56:cf:05:54:de:c7:65:e4:72:89:85:f6:97:e5:62:ca:71:
        04:86:67:90:11:de:81:dc:28:e0:dc:aa:3a:0a:3f:5b:6c:9e:
        5f:cd:11:db:8d:8b:fa:85:c0:85:b2:88:f3:f4:fd:72:ff:69:
        54:dd:d1:07:13:b8:27:cf:dc:58:5b:71:2f:59:d9:b9:81:72:
        62:30:39:45
-----BEGIN CERTIFICATE-----
MIIDeDCCAmCgAwIBAgIUIvC89UZNckuKX3qNVOHXYK7dCOkwDQYJKoZIhvcNAQEL
BQAwDzENMAsGA1UEAwwEUm9vdDAeFw0yMjEwMDUxMjAwMDBaFw0yMzEwMDUxMjAw
MDBaMA8xDTALBgNVBAMMBFJvb3QwggEiMA0GCSqGSIb3DQEBAQUAA4IBDwAwggEK
AoIBAQDDlmbH5/0hFOzfSgUajCLajz63jsqi3tfjCAXNKBza1Jm6rd6SB0QYVee1
QWs4ZBgGq2y4rT24Tsj6jPxYLCyoQggotIUqqlfiqHZKbv44L9EUxlJvBaSJVMIP
8JODCbdVVpR7V2WHCd1h6hoCPCSlzC3TfArcLmeif5GttHZ2Aqx/hV9hhgxgFaCC
f4UW9BCNSSfkM1h1VWtaq8fRvT2oO2gbtN5oicSH/ocE1FLzj/ouRHnBYka3iEy7
dWH95sVq+6g776fmGh5ELWGnTmNeZrj3hWB0i+oggoSEcfUdxgzC7hF4Aa5EWuN7
ly4B0BiRdwEjf9Ihc/TzmpStky6hAgMBAAGjgcswgcgwHQYDVR0OBBYEFEJ1QTTF
WZ+Zo5scDFfbXMfBSLeRMB8GA1UdIwQYMBaAFEJ1QTTFWZ+Zo5scDFfbXMfBSLeR
MDcGCCsGAQUFBwEBBCswKTAnBggrBgEFBQcwAoYbaHR0cDovL3VybC1mb3ItYWlh
L1Jvb3QuY2VyMCwGA1UdHwQlMCMwIaAfoB2GG2h0dHA6Ly91cmwtZm9yLWNybC9S
b290LmNybDAOBgNVHQ8BAf8EBAMCAQYwDwYDVR0TAQH/BAUwAwEB/zANBgkqhkiG
9w0BAQsFAAOCAQEAB92Oy7jur9e47L+AxfdldwqEv+JY5dc+rnvY72riNdsiBiUX
vyMiHH4K+L/MAb7WGr3sXUZcsNUZMBcmsLhSh06/oRGJnibm9OSxgiEW7Zuq+6B9
7N0ATxMR+iAuz2yNn3LZnQKGnYqq1RbFijr6D7oIoYapXYn54y88gksMUJ1YdMe9
6KqodTxgkBLFPdAKwbgmUssF/MGKxaE+g33OjMDW+CSTEliDqdgRsJTqaQMQ3NKw
O1bPBVTex2XkcomF9pflYspxBIZnkBHegdwo4NyqOgo/W2yeX80R242L+oXAhbKI
8/T9cv9pVN3RBxO4J8/cWFtxL1nZuYFyYjA5RQ==
-----END CERTIFICATE-----
