[Created by: generate-chains.py]

Certificate chain where the intermediate restricts the extended key usage to
clientAuth + any, and the target sets serverAuth + clientAuth.

Certificate:
    Data:
        Version: 3 (0x2)
        Serial Number:
            0f:19:5d:e8:71:6f:db:08:2d:79:97:74:46:0c:ac:d5:3d:49:b8:b2
        Signature Algorithm: sha256WithRSAEncryption
        Issuer: CN=Intermediate
        Validity
            Not Before: Nov  3 12:00:00 2020 GMT
            Not After : Nov  3 12:00:00 2021 GMT
        Subject: CN=Target
        Subject Public Key Info:
            Public Key Algorithm: rsaEncryption
                RSA Public-Key: (2048 bit)
                Modulus:
                    00:ae:2e:8b:18:8d:f7:76:2c:94:0c:3f:a0:b6:ea:
                    70:1f:5e:c8:48:c5:aa:ad:55:6b:bd:55:68:0d:8e:
                    ce:e5:99:27:c5:2c:b2:9a:29:a9:8f:8e:c3:c6:97:
                    89:6d:31:d7:a4:8f:d8:36:37:4f:33:c7:d6:42:03:
                    11:08:c4:7f:35:8c:ee:0f:1b:7a:31:74:04:aa:01:
                    d3:1e:8b:5b:01:9d:60:4b:9c:d1:8f:1e:ab:e5:dc:
                    8f:17:77:49:e3:f6:d5:82:a5:2f:0a:e8:dc:9f:96:
                    1e:2a:a1:41:d1:67:2c:9e:f3:7f:94:0c:6e:cf:5f:
                    55:52:37:05:d0:39:37:1a:6e:11:ed:db:fa:aa:92:
                    a7:4f:50:29:07:69:af:1d:a7:99:fa:e1:56:f0:03:
                    38:b0:ae:6b:e7:19:0b:dd:c3:07:31:8e:84:04:a5:
                    b4:eb:b8:bc:23:f3:40:b0:17:b4:ab:9e:3f:05:96:
                    89:fc:84:23:cc:d1:06:c2:e4:8b:c6:65:f5:24:eb:
                    72:31:bc:41:7d:3a:c9:55:08:0c:ee:a6:ae:1f:78:
                    17:f8:a7:9d:7b:b1:82:f5:ce:82:6b:a8:b2:c6:8a:
                    b9:be:a5:d8:39:f4:49:e2:4c:53:32:85:26:53:4d:
                    44:ce:d5:3b:a0:6b:e7:d9:02:a1:5a:ef:e1:a5:81:
                    a7:fb
                Exponent: 65537 (0x10001)
        X509v3 extensions:
            X509v3 Subject Key Identifier: 
                EB:B0:1C:BD:B7:68:B8:D1:B9:8A:C2:9F:5D:CF:DD:AF:F2:62:70:8A
            X509v3 Authority Key Identifier: 
                keyid:EE:C6:9A:65:CC:FB:CE:A0:3E:17:02:F9:68:12:86:B6:22:09:60:B4

            Authority Information Access: 
                CA Issuers - URI:http://url-for-aia/Intermediate.cer

            X509v3 CRL Distribution Points: 

                Full Name:
                  URI:http://url-for-crl/Intermediate.crl

            X509v3 Key Usage: critical
                Digital Signature, Key Encipherment
            X509v3 Extended Key Usage: 
                TLS Web Server Authentication, TLS Web Client Authentication
    Signature Algorithm: sha256WithRSAEncryption
         0b:b1:45:92:18:f5:e2:b7:ee:8d:ad:22:93:01:88:32:63:b1:
         a6:e2:bc:ee:a5:0e:c0:3e:ab:73:27:d8:3b:03:a6:e9:90:c8:
         bf:02:04:60:b9:a0:b5:8e:7e:98:ba:98:fc:33:90:2f:b4:b7:
         ed:81:06:46:e0:a9:06:a6:eb:d5:a6:14:f8:10:58:10:75:f5:
         15:84:a0:f1:10:ef:50:4b:90:d9:39:72:ce:41:ca:63:f1:24:
         f2:32:4a:37:9f:a9:0b:79:0c:32:08:14:8c:2d:0b:9b:7c:dc:
         70:4c:0a:b7:e8:f7:24:39:66:78:3e:1c:17:b9:ee:18:dd:30:
         aa:2a:b4:ce:1d:da:c7:6b:67:9f:a1:40:e9:26:3a:ad:9e:f2:
         8f:c1:9a:2d:da:47:97:85:a7:e2:f1:e7:b5:90:74:a9:c7:0c:
         c3:32:c5:76:89:8d:f1:61:51:80:96:64:a7:6a:91:bf:cc:a3:
         06:b7:43:6a:93:1b:be:50:fd:e2:2b:25:f3:d3:7e:7f:33:aa:
         f0:1b:f7:f7:9a:99:88:0f:89:4d:df:ce:a5:f1:92:8a:4d:8b:
         e7:55:b1:dc:ad:5d:71:0a:dd:28:b8:4c:10:4a:3e:28:c7:68:
         09:52:ba:ab:34:01:9b:81:96:e1:a9:89:34:d8:01:ad:ee:9b:
         23:c1:33:fc
-----BEGIN CERTIFICATE-----
MIIDoDCCAoigAwIBAgIUDxld6HFv2wgteZd0Rgys1T1JuLIwDQYJKoZIhvcNAQEL
BQAwFzEVMBMGA1UEAwwMSW50ZXJtZWRpYXRlMB4XDTIwMTEwMzEyMDAwMFoXDTIx
MTEwMzEyMDAwMFowETEPMA0GA1UEAwwGVGFyZ2V0MIIBIjANBgkqhkiG9w0BAQEF
AAOCAQ8AMIIBCgKCAQEAri6LGI33diyUDD+gtupwH17ISMWqrVVrvVVoDY7O5Zkn
xSyymimpj47DxpeJbTHXpI/YNjdPM8fWQgMRCMR/NYzuDxt6MXQEqgHTHotbAZ1g
S5zRjx6r5dyPF3dJ4/bVgqUvCujcn5YeKqFB0WcsnvN/lAxuz19VUjcF0Dk3Gm4R
7dv6qpKnT1ApB2mvHaeZ+uFW8AM4sK5r5xkL3cMHMY6EBKW067i8I/NAsBe0q54/
BZaJ/IQjzNEGwuSLxmX1JOtyMbxBfTrJVQgM7qauH3gX+Kede7GC9c6Ca6iyxoq5
vqXYOfRJ4kxTMoUmU01EztU7oGvn2QKhWu/hpYGn+wIDAQABo4HpMIHmMB0GA1Ud
DgQWBBTrsBy9t2i40bmKwp9dz92v8mJwijAfBgNVHSMEGDAWgBTuxpplzPvOoD4X
AvloEoa2IglgtDA/BggrBgEFBQcBAQQzMDEwLwYIKwYBBQUHMAKGI2h0dHA6Ly91
cmwtZm9yLWFpYS9JbnRlcm1lZGlhdGUuY2VyMDQGA1UdHwQtMCswKaAnoCWGI2h0
dHA6Ly91cmwtZm9yLWNybC9JbnRlcm1lZGlhdGUuY3JsMA4GA1UdDwEB/wQEAwIF
oDAdBgNVHSUEFjAUBggrBgEFBQcDAQYIKwYBBQUHAwIwDQYJKoZIhvcNAQELBQAD
ggEBAAuxRZIY9eK37o2tIpMBiDJjsabivO6lDsA+q3Mn2DsDpumQyL8CBGC5oLWO
fpi6mPwzkC+0t+2BBkbgqQam69WmFPgQWBB19RWEoPEQ71BLkNk5cs5BymPxJPIy
SjefqQt5DDIIFIwtC5t83HBMCrfo9yQ5Zng+HBe57hjdMKoqtM4d2sdrZ5+hQOkm
Oq2e8o/Bmi3aR5eFp+Lx57WQdKnHDMMyxXaJjfFhUYCWZKdqkb/Mowa3Q2qTG75Q
/eIrJfPTfn8zqvAb9/eamYgPiU3fzqXxkopNi+dVsdytXXEK3Si4TBBKPijHaAlS
uqs0AZuBluGpiTTYAa3umyPBM/w=
-----END CERTIFICATE-----

Certificate:
    Data:
        Version: 3 (0x2)
        Serial Number:
            22:f0:bc:f5:46:4d:72:4b:8a:5f:7a:8d:54:e1:d7:60:ae:dd:08:ea
        Signature Algorithm: sha256WithRSAEncryption
        Issuer: CN=Root
        Validity
            Not Before: Nov  3 12:00:00 2020 GMT
            Not After : Nov  3 12:00:00 2021 GMT
        Subject: CN=Intermediate
        Subject Public Key Info:
            Public Key Algorithm: rsaEncryption
                RSA Public-Key: (2048 bit)
                Modulus:
                    00:d1:41:40:6f:cb:25:05:d9:29:d0:a3:c7:fe:2f:
                    f0:53:ad:46:36:19:aa:b1:1f:3f:7a:a2:e0:fb:03:
                    2b:77:65:6a:79:eb:f3:a3:16:13:34:83:3b:42:de:
                    a2:bb:e2:bf:d8:d2:75:3d:48:38:86:bb:2a:7d:14:
                    a3:88:f7:7c:00:f4:0a:6b:6b:aa:9b:44:24:62:fe:
                    db:a3:42:55:15:67:2a:32:ff:b2:4d:80:93:d0:84:
                    ef:1b:dc:7c:ac:56:2d:54:08:02:f6:18:6e:b5:80:
                    a8:77:52:1f:b8:2c:09:6d:cc:f8:1c:04:91:62:6e:
                    1e:dd:1d:89:b2:f1:23:0b:4d:4c:6c:da:49:3d:61:
                    83:72:0f:66:36:12:3f:f3:ff:53:52:73:53:a1:ca:
                    38:bd:c3:48:bf:7a:2f:13:19:d7:c2:28:e1:6f:32:
                    00:5e:64:ac:4b:05:7a:77:62:57:55:a9:59:83:d5:
                    ed:a3:2e:28:34:71:79:2f:b9:c3:9e:df:b3:2a:b1:
                    59:cd:04:00:1d:8b:11:56:ae:c6:67:f6:4f:1d:58:
                    07:65:e0:b0:2f:ef:57:6d:de:c1:a0:7c:6e:38:a8:
                    45:26:21:96:e0:f6:ef:0e:28:cf:01:70:57:dc:20:
                    15:08:ad:e8:e3:98:74:8c:54:32:c1:28:17:e0:de:
                    a1:8b
                Exponent: 65537 (0x10001)
        X509v3 extensions:
            X509v3 Subject Key Identifier: 
                EE:C6:9A:65:CC:FB:CE:A0:3E:17:02:F9:68:12:86:B6:22:09:60:B4
            X509v3 Authority Key Identifier: 
                keyid:42:75:41:34:C5:59:9F:99:A3:9B:1C:0C:57:DB:5C:C7:C1:48:B7:91

            Authority Information Access: 
                CA Issuers - URI:http://url-for-aia/Root.cer

            X509v3 CRL Distribution Points: 

                Full Name:
                  URI:http://url-for-crl/Root.crl

            X509v3 Key Usage: critical
                Certificate Sign, CRL Sign
            X509v3 Basic Constraints: critical
                CA:TRUE
            X509v3 Extended Key Usage: 
                TLS Web Client Authentication, Any Extended Key Usage
    Signature Algorithm: sha256WithRSAEncryption
         4b:6a:31:14:3c:24:e4:6c:ad:23:a1:95:e0:9a:c6:26:ef:d1:
         52:50:0d:5a:b7:0d:61:dd:e5:17:9c:d5:2a:7c:55:97:06:3b:
         0a:93:68:88:a4:c4:ad:59:ec:61:a7:b8:b2:07:d4:fb:f7:a9:
         a4:98:6f:88:b1:e8:7f:a2:88:0c:33:80:1a:bc:6a:04:42:72:
         a9:af:cf:9b:29:5e:8d:79:6d:fa:bf:3a:6b:7c:69:5d:c9:4e:
         5b:76:f3:ac:aa:63:5a:51:7b:7a:2e:ce:82:8d:bd:82:c8:e3:
         3e:8c:10:05:03:c5:09:7c:d7:aa:66:0d:f0:5a:35:7b:8a:84:
         97:f2:b9:70:aa:a8:da:b5:c0:b9:72:ea:1a:3f:58:c3:31:05:
         44:d3:bb:b0:bb:e3:99:bf:c6:0b:d2:d4:52:c5:5d:ea:b6:7e:
         89:a5:c5:f2:53:18:ac:b4:a6:91:8d:91:12:4e:25:d5:80:7c:
         ba:0e:51:9a:98:e2:fa:90:5d:dd:0b:af:74:fe:e8:96:e3:72:
         a4:88:1c:1e:17:70:aa:e1:33:1f:ec:44:b5:34:9f:44:e6:1e:
         62:83:5a:4e:ba:c9:e3:d1:78:1d:b5:4a:ff:34:5f:f4:6e:6a:
         c6:5c:dc:cc:45:ec:45:8c:ea:f1:18:7d:72:96:de:70:d2:d5:
         43:8f:c2:81
-----BEGIN CERTIFICATE-----
MIIDmzCCAoOgAwIBAgIUIvC89UZNckuKX3qNVOHXYK7dCOowDQYJKoZIhvcNAQEL
BQAwDzENMAsGA1UEAwwEUm9vdDAeFw0yMDExMDMxMjAwMDBaFw0yMTExMDMxMjAw
MDBaMBcxFTATBgNVBAMMDEludGVybWVkaWF0ZTCCASIwDQYJKoZIhvcNAQEBBQAD
ggEPADCCAQoCggEBANFBQG/LJQXZKdCjx/4v8FOtRjYZqrEfP3qi4PsDK3dlannr
86MWEzSDO0Leorviv9jSdT1IOIa7Kn0Uo4j3fAD0CmtrqptEJGL+26NCVRVnKjL/
sk2Ak9CE7xvcfKxWLVQIAvYYbrWAqHdSH7gsCW3M+BwEkWJuHt0dibLxIwtNTGza
ST1hg3IPZjYSP/P/U1JzU6HKOL3DSL96LxMZ18Io4W8yAF5krEsFendiV1WpWYPV
7aMuKDRxeS+5w57fsyqxWc0EAB2LEVauxmf2Tx1YB2XgsC/vV23ewaB8bjioRSYh
luD27w4ozwFwV9wgFQit6OOYdIxUMsEoF+DeoYsCAwEAAaOB5jCB4zAdBgNVHQ4E
FgQU7saaZcz7zqA+FwL5aBKGtiIJYLQwHwYDVR0jBBgwFoAUQnVBNMVZn5mjmxwM
V9tcx8FIt5EwNwYIKwYBBQUHAQEEKzApMCcGCCsGAQUFBzAChhtodHRwOi8vdXJs
LWZvci1haWEvUm9vdC5jZXIwLAYDVR0fBCUwIzAhoB+gHYYbaHR0cDovL3VybC1m
b3ItY3JsL1Jvb3QuY3JsMA4GA1UdDwEB/wQEAwIBBjAPBgNVHRMBAf8EBTADAQH/
MBkGA1UdJQQSMBAGCCsGAQUFBwMCBgRVHSUAMA0GCSqGSIb3DQEBCwUAA4IBAQBL
ajEUPCTkbK0joZXgmsYm79FSUA1atw1h3eUXnNUqfFWXBjsKk2iIpMStWexhp7iy
B9T796mkmG+Iseh/oogMM4AavGoEQnKpr8+bKV6NeW36vzprfGldyU5bdvOsqmNa
UXt6Ls6Cjb2CyOM+jBAFA8UJfNeqZg3wWjV7ioSX8rlwqqjatcC5cuoaP1jDMQVE
07uwu+OZv8YL0tRSxV3qtn6JpcXyUxistKaRjZESTiXVgHy6DlGamOL6kF3dC690
/uiW43KkiBweF3Cq4TMf7ES1NJ9E5h5ig1pOusnj0XgdtUr/NF/0bmrGXNzMRexF
jOrxGH1ylt5w0tVDj8KB
-----END CERTIFICATE-----

Certificate:
    Data:
        Version: 3 (0x2)
        Serial Number:
            22:f0:bc:f5:46:4d:72:4b:8a:5f:7a:8d:54:e1:d7:60:ae:dd:08:e9
        Signature Algorithm: sha256WithRSAEncryption
        Issuer: CN=Root
        Validity
            Not Before: Nov  3 12:00:00 2020 GMT
            Not After : Nov  3 12:00:00 2021 GMT
        Subject: CN=Root
        Subject Public Key Info:
            Public Key Algorithm: rsaEncryption
                RSA Public-Key: (2048 bit)
                Modulus:
                    00:c3:96:66:c7:e7:fd:21:14:ec:df:4a:05:1a:8c:
                    22:da:8f:3e:b7:8e:ca:a2:de:d7:e3:08:05:cd:28:
                    1c:da:d4:99:ba:ad:de:92:07:44:18:55:e7:b5:41:
                    6b:38:64:18:06:ab:6c:b8:ad:3d:b8:4e:c8:fa:8c:
                    fc:58:2c:2c:a8:42:08:28:b4:85:2a:aa:57:e2:a8:
                    76:4a:6e:fe:38:2f:d1:14:c6:52:6f:05:a4:89:54:
                    c2:0f:f0:93:83:09:b7:55:56:94:7b:57:65:87:09:
                    dd:61:ea:1a:02:3c:24:a5:cc:2d:d3:7c:0a:dc:2e:
                    67:a2:7f:91:ad:b4:76:76:02:ac:7f:85:5f:61:86:
                    0c:60:15:a0:82:7f:85:16:f4:10:8d:49:27:e4:33:
                    58:75:55:6b:5a:ab:c7:d1:bd:3d:a8:3b:68:1b:b4:
                    de:68:89:c4:87:fe:87:04:d4:52:f3:8f:fa:2e:44:
                    79:c1:62:46:b7:88:4c:bb:75:61:fd:e6:c5:6a:fb:
                    a8:3b:ef:a7:e6:1a:1e:44:2d:61:a7:4e:63:5e:66:
                    b8:f7:85:60:74:8b:ea:20:82:84:84:71:f5:1d:c6:
                    0c:c2:ee:11:78:01:ae:44:5a:e3:7b:97:2e:01:d0:
                    18:91:77:01:23:7f:d2:21:73:f4:f3:9a:94:ad:93:
                    2e:a1
                Exponent: 65537 (0x10001)
        X509v3 extensions:
            X509v3 Subject Key Identifier: 
                42:75:41:34:C5:59:9F:99:A3:9B:1C:0C:57:DB:5C:C7:C1:48:B7:91
            X509v3 Authority Key Identifier: 
                keyid:42:75:41:34:C5:59:9F:99:A3:9B:1C:0C:57:DB:5C:C7:C1:48:B7:91

            Authority Information Access: 
                CA Issuers - URI:http://url-for-aia/Root.cer

            X509v3 CRL Distribution Points: 

                Full Name:
                  URI:http://url-for-crl/Root.crl

            X509v3 Key Usage: critical
                Certificate Sign, CRL Sign
            X509v3 Basic Constraints: critical
                CA:TRUE
    Signature Algorithm: sha256WithRSAEncryption
         61:5c:2f:f3:3d:84:43:c8:e9:c3:b5:c5:d8:6a:ce:4b:a5:a7:
         e7:b9:9d:40:42:6a:da:18:0c:20:59:f9:19:80:a2:ec:8f:55:
         e2:53:cc:5b:86:b1:aa:1f:30:61:29:5f:7e:a3:d0:b1:7c:98:
         05:af:04:af:65:f9:8a:9a:7b:76:4d:c3:19:b2:df:46:f1:2e:
         46:af:d7:9a:70:3d:18:ce:a2:aa:ab:30:ce:be:4e:0f:ca:83:
         35:b1:d0:bb:d1:8d:94:b9:ff:75:93:a9:cd:0f:48:e6:43:e2:
         de:7d:24:2a:88:b4:f6:e9:cd:cb:41:25:da:54:78:ca:17:77:
         2c:da:66:7a:33:79:de:97:c8:44:54:27:a3:01:b1:7a:6b:5b:
         62:e5:f9:f0:df:b6:a9:a8:1d:b0:35:d0:3c:47:03:c1:08:0c:
         a4:0e:f7:c5:eb:06:dc:25:45:28:35:8c:76:c0:86:1a:dd:cd:
         7c:5b:31:1b:6d:48:20:34:0a:b4:41:94:69:e9:9a:88:dc:77:
         9d:a1:d9:27:ce:5b:dd:41:e3:a8:26:7c:04:d9:b8:5b:5e:92:
         4e:5b:cc:87:e1:c3:15:17:0c:27:b8:8f:89:ff:4d:c9:3f:55:
         87:3c:ee:2e:e3:00:35:37:c2:f4:78:99:36:ba:60:fa:2f:e9:
         08:15:ab:5d
-----BEGIN CERTIFICATE-----
MIIDeDCCAmCgAwIBAgIUIvC89UZNckuKX3qNVOHXYK7dCOkwDQYJKoZIhvcNAQEL
BQAwDzENMAsGA1UEAwwEUm9vdDAeFw0yMDExMDMxMjAwMDBaFw0yMTExMDMxMjAw
MDBaMA8xDTALBgNVBAMMBFJvb3QwggEiMA0GCSqGSIb3DQEBAQUAA4IBDwAwggEK
AoIBAQDDlmbH5/0hFOzfSgUajCLajz63jsqi3tfjCAXNKBza1Jm6rd6SB0QYVee1
QWs4ZBgGq2y4rT24Tsj6jPxYLCyoQggotIUqqlfiqHZKbv44L9EUxlJvBaSJVMIP
8JODCbdVVpR7V2WHCd1h6hoCPCSlzC3TfArcLmeif5GttHZ2Aqx/hV9hhgxgFaCC
f4UW9BCNSSfkM1h1VWtaq8fRvT2oO2gbtN5oicSH/ocE1FLzj/ouRHnBYka3iEy7
dWH95sVq+6g776fmGh5ELWGnTmNeZrj3hWB0i+oggoSEcfUdxgzC7hF4Aa5EWuN7
ly4B0BiRdwEjf9Ihc/TzmpStky6hAgMBAAGjgcswgcgwHQYDVR0OBBYEFEJ1QTTF
WZ+Zo5scDFfbXMfBSLeRMB8GA1UdIwQYMBaAFEJ1QTTFWZ+Zo5scDFfbXMfBSLeR
MDcGCCsGAQUFBwEBBCswKTAnBggrBgEFBQcwAoYbaHR0cDovL3VybC1mb3ItYWlh
L1Jvb3QuY2VyMCwGA1UdHwQlMCMwIaAfoB2GG2h0dHA6Ly91cmwtZm9yLWNybC9S
b290LmNybDAOBgNVHQ8BAf8EBAMCAQYwDwYDVR0TAQH/BAUwAwEB/zANBgkqhkiG
9w0BAQsFAAOCAQEAYVwv8z2EQ8jpw7XF2GrOS6Wn57mdQEJq2hgMIFn5GYCi7I9V
4lPMW4axqh8wYSlffqPQsXyYBa8Er2X5ipp7dk3DGbLfRvEuRq/XmnA9GM6iqqsw
zr5OD8qDNbHQu9GNlLn/dZOpzQ9I5kPi3n0kKoi09unNy0El2lR4yhd3LNpmejN5
3pfIRFQnowGxemtbYuX58N+2qagdsDXQPEcDwQgMpA73xesG3CVFKDWMdsCGGt3N
fFsxG21IIDQKtEGUaemaiNx3naHZJ85b3UHjqCZ8BNm4W16STlvMh+HDFRcMJ7iP
if9NyT9VhzzuLuMANTfC9HiZNrpg+i/pCBWrXQ==
-----END CERTIFICATE-----
