[Created by: generate-chains.py]

Certificate chain where both the intermediate and target certificates have
incorrect signatures.

Certificate:
    Data:
        Version: 3 (0x2)
        Serial Number:
            12:3d:2e:d4:5e:20:54:23:3a:0b:c1:18:e2:e3:1e:58:f9:35:fd:a2
        Signature Algorithm: sha256WithRSAEncryption
        Issuer: CN=Intermediate
        Validity
            Not Before: Oct  5 12:00:00 2022 GMT
            Not After : Oct  5 12:00:00 2023 GMT
        Subject: CN=Target
        Subject Public Key Info:
            Public Key Algorithm: rsaEncryption
                Public-Key: (2048 bit)
                Modulus:
                    00:b1:5e:cb:41:90:73:c4:13:ce:74:69:2e:d2:cb:
                    92:f1:dd:1c:30:d5:bc:33:af:7d:e7:b2:5a:4a:c2:
                    7e:61:cb:44:97:9d:85:26:10:db:fc:07:c7:f2:6c:
                    87:7a:f0:fb:4c:c8:1b:ed:7c:3e:19:4c:5e:b1:e8:
                    ba:10:8f:f3:2e:50:b4:56:ff:1f:7a:70:96:ee:f6:
                    d1:f9:f2:57:db:56:c7:d3:fd:cd:5a:ec:e0:e7:c8:
                    39:ca:3a:99:c0:d4:38:77:08:94:e2:4c:a9:5b:b8:
                    bd:97:8a:df:45:7c:fd:b0:ed:c8:b2:09:35:53:4e:
                    6f:58:42:60:c6:92:42:e8:f6:22:6a:8b:c4:e1:08:
                    00:e6:a7:48:c9:64:4b:13:7e:ca:c8:05:17:b5:60:
                    66:db:f0:25:eb:24:e4:9f:bf:6b:96:21:18:bf:a7:
                    19:5c:2f:2f:63:9a:de:b6:83:c5:1a:fd:f0:25:18:
                    7a:43:4a:15:d0:76:b0:3f:22:f3:6f:71:b1:23:74:
                    7b:3c:14:ca:8a:b1:7f:07:6c:3a:f6:01:32:1b:38:
                    4f:ba:14:50:00:9f:5e:09:0f:c3:b2:f2:25:bc:d0:
                    e0:f3:6f:af:58:22:5f:86:0f:b4:c6:fe:5e:41:b5:
                    da:2a:e0:5e:18:f1:7c:79:3c:57:b7:68:5d:27:4e:
                    85:17
                Exponent: 65537 (0x10001)
        X509v3 extensions:
            X509v3 Subject Key Identifier: 
                54:31:EB:0B:BA:22:61:28:F7:82:FB:D1:FA:BA:43:92:AD:92:66:23
            X509v3 Authority Key Identifier: 
                6D:10:36:87:AF:FA:A8:A3:9B:79:07:26:E8:A6:DA:49:43:67:94:CA
            Authority Information Access: 
                CA Issuers - URI:http://url-for-aia/Intermediate.cer
            X509v3 CRL Distribution Points: 
                Full Name:
                  URI:http://url-for-crl/Intermediate.crl
            X509v3 Key Usage: critical
                Digital Signature, Key Encipherment
            X509v3 Extended Key Usage: 
                TLS Web Server Authentication, TLS Web Client Authentication
    Signature Algorithm: sha256WithRSAEncryption
    Signature Value:
        47:11:b8:5c:94:02:4d:b8:62:0d:32:50:c0:47:47:81:b8:27:
        a6:e9:ed:da:34:e8:5d:e5:e0:09:9f:78:bf:ba:5d:21:ac:4d:
        a0:1b:e4:c5:a2:c3:71:d8:57:a5:c1:55:56:2c:0b:dc:c6:a5:
        e7:5b:f0:09:22:54:61:60:25:ff:e5:ed:7b:c2:0c:d0:cf:97:
        1e:17:71:c7:58:39:bd:26:29:5c:17:01:a2:43:af:f7:a7:8b:
        8f:03:0a:e6:7f:31:57:58:8e:4c:28:f9:60:22:31:01:14:8d:
        40:22:d1:84:cc:8c:b8:e3:6e:72:c6:81:24:dc:af:80:23:94:
        eb:a0:60:37:a7:4c:6b:86:7b:9d:be:bb:1d:4b:f2:f7:20:92:
        20:74:dc:a4:b8:fb:4d:38:c3:3f:fe:27:de:8d:7b:5d:8b:57:
        b6:ae:32:40:d4:b9:41:da:f0:ab:32:35:7c:63:b9:3b:be:28:
        fb:11:b8:9d:aa:ac:82:d8:53:0a:54:23:e6:d8:0a:ab:7e:4e:
        ab:53:03:54:b6:6c:a2:8b:b5:f5:c5:09:af:0d:31:56:e6:1a:
        ab:c6:80:ae:b0:7f:3b:8d:47:8f:a1:b6:77:a9:ba:89:f5:ad:
        26:68:d3:3e:a2:53:e3:48:95:b0:fb:fb:b7:02:be:27:b7:f3:
        fb:d1:06:52
-----BEGIN CERTIFICATE-----
MIIDoDCCAoigAwIBAgIUEj0u1F4gVCM6C8EY4uMeWPk1/aIwDQYJKoZIhvcNAQEL
BQAwFzEVMBMGA1UEAwwMSW50ZXJtZWRpYXRlMB4XDTIyMTAwNTEyMDAwMFoXDTIz
MTAwNTEyMDAwMFowETEPMA0GA1UEAwwGVGFyZ2V0MIIBIjANBgkqhkiG9w0BAQEF
AAOCAQ8AMIIBCgKCAQEAsV7LQZBzxBPOdGku0suS8d0cMNW8M69957JaSsJ+YctE
l52FJhDb/AfH8myHevD7TMgb7Xw+GUxesei6EI/zLlC0Vv8fenCW7vbR+fJX21bH
0/3NWuzg58g5yjqZwNQ4dwiU4kypW7i9l4rfRXz9sO3Isgk1U05vWEJgxpJC6PYi
aovE4QgA5qdIyWRLE37KyAUXtWBm2/Al6yTkn79rliEYv6cZXC8vY5retoPFGv3w
JRh6Q0oV0HawPyLzb3GxI3R7PBTKirF/B2w69gEyGzhPuhRQAJ9eCQ/DsvIlvNDg
82+vWCJfhg+0xv5eQbXaKuBeGPF8eTxXt2hdJ06FFwIDAQABo4HpMIHmMB0GA1Ud
DgQWBBRUMesLuiJhKPeC+9H6ukOSrZJmIzAfBgNVHSMEGDAWgBRtEDaHr/qoo5t5
ByboptpJQ2eUyjA/BggrBgEFBQcBAQQzMDEwLwYIKwYBBQUHMAKGI2h0dHA6Ly91
cmwtZm9yLWFpYS9JbnRlcm1lZGlhdGUuY2VyMDQGA1UdHwQtMCswKaAnoCWGI2h0
dHA6Ly91cmwtZm9yLWNybC9JbnRlcm1lZGlhdGUuY3JsMA4GA1UdDwEB/wQEAwIF
oDAdBgNVHSUEFjAUBggrBgEFBQcDAQYIKwYBBQUHAwIwDQYJKoZIhvcNAQELBQAD
ggEBAEcRuFyUAk24Yg0yUMBHR4G4J6bp7do06F3l4AmfeL+6XSGsTaAb5MWiw3HY
V6XBVVYsC9zGpedb8AkiVGFgJf/l7XvCDNDPlx4XccdYOb0mKVwXAaJDr/eni48D
CuZ/MVdYjkwo+WAiMQEUjUAi0YTMjLjjbnLGgSTcr4AjlOugYDenTGuGe52+ux1L
8vcgkiB03KS4+004wz/+J96Ne12LV7auMkDUuUHa8KsyNXxjuTu+KPsRuJ2qrILY
UwpUI+bYCqt+TqtTA1S2bKKLtfXFCa8NMVbmGqvGgK6wfzuNR4+htnepuon1rSZo
0z6iU+NIlbD7+7cCvie38/vRBlI=
-----END CERTIFICATE-----

Certificate:
    Data:
        Version: 3 (0x2)
        Serial Number:
            72:76:3e:27:78:9f:9e:db:6e:36:c5:5a:8a:59:bc:82:3a:8c:7a:a2
        Signature Algorithm: sha256WithRSAEncryption
        Issuer: CN=Root
        Validity
            Not Before: Oct  5 12:00:00 2022 GMT
            Not After : Oct  5 12:00:00 2023 GMT
        Subject: CN=Intermediate
        Subject Public Key Info:
            Public Key Algorithm: rsaEncryption
                Public-Key: (2048 bit)
                Modulus:
                    00:b6:52:3d:81:21:43:60:33:fc:4e:76:28:8c:26:
                    3c:d9:1b:05:4b:b7:ba:5d:41:f7:9e:08:72:b2:0f:
                    a9:bb:37:1b:b8:6d:10:62:cf:c2:29:97:7b:97:49:
                    f4:3b:87:d9:29:64:72:f0:99:04:23:23:84:83:04:
                    3c:01:15:95:1a:f8:02:ba:0e:9c:d2:f6:45:54:f9:
                    a8:e9:e7:7c:2e:f5:e7:b4:38:4a:bb:d0:40:f8:51:
                    50:63:b0:fc:2e:39:f9:6b:a3:c9:dd:39:df:47:b6:
                    d4:81:2b:19:43:99:a7:f1:1c:4e:53:79:f0:40:4c:
                    46:fa:e9:df:da:df:75:7a:8b:25:9d:f0:d6:85:16:
                    88:f2:eb:65:19:b9:42:1f:07:bd:7e:8d:3d:73:8d:
                    6f:f5:b6:e4:bc:af:4d:0e:f6:f4:37:e1:58:fb:a1:
                    6d:06:d5:80:00:16:f3:57:6f:ea:07:f3:c1:a0:ad:
                    ab:5e:4d:c8:f7:e8:fa:c1:b6:c6:01:fb:6a:22:4d:
                    1d:f7:44:7e:69:16:48:f0:93:0c:b4:45:c7:4f:15:
                    84:29:f6:c3:a3:c3:1e:9c:8c:46:2a:47:fc:61:86:
                    d6:62:82:74:06:98:57:b4:4e:11:c8:b2:44:b1:76:
                    e4:38:3b:5f:19:df:f5:15:80:40:f0:75:4c:2c:c1:
                    9d:cd
                Exponent: 65537 (0x10001)
        X509v3 extensions:
            X509v3 Subject Key Identifier: 
                DB:88:D7:0B:35:2B:9E:30:59:D2:1A:51:1D:AC:7D:E3:C0:41:85:34
            X509v3 Authority Key Identifier: 
                6E:7B:C8:25:11:11:8C:B7:37:E8:5A:B8:3B:F5:25:A1:06:7D:A6:A1
            Authority Information Access: 
                CA Issuers - URI:http://url-for-aia/Root.cer
            X509v3 CRL Distribution Points: 
                Full Name:
                  URI:http://url-for-crl/Root.crl
            X509v3 Key Usage: critical
                Certificate Sign, CRL Sign
            X509v3 Basic Constraints: critical
                CA:TRUE
    Signature Algorithm: sha256WithRSAEncryption
    Signature Value:
        7a:aa:64:10:a2:40:0a:11:6b:25:91:37:03:c7:c0:b6:bf:6d:
        e6:0d:3b:fd:23:0b:28:43:7c:46:6c:3e:90:6e:dd:9f:c9:7f:
        d4:e9:74:42:7f:7f:7c:24:28:c8:21:39:0b:4b:d9:a3:2c:6e:
        17:98:e1:2f:3a:57:6b:06:b1:71:0f:88:9d:ae:f1:31:46:85:
        ac:67:54:c5:e8:fe:ef:a9:88:a3:41:67:d7:da:59:35:06:ce:
        68:f0:ba:9b:0d:f2:7f:a5:89:3f:af:b9:3b:49:de:c0:5a:4f:
        d1:89:e8:e3:0c:a2:7e:c0:08:ad:75:12:8b:cf:d6:f3:65:15:
        1c:b5:d9:60:88:92:28:2c:af:58:82:04:89:20:8b:f3:26:a1:
        12:41:65:54:c4:77:6f:91:a6:6d:2a:b9:91:6e:ae:0e:6a:ef:
        d4:1f:59:9a:27:0b:8f:55:57:dc:14:95:05:ad:1f:68:7f:38:
        03:14:02:1f:33:ea:e4:87:f7:00:02:25:53:b1:2a:dc:e3:bc:
        21:cb:f1:e1:3e:6d:2d:56:15:38:10:2d:ee:ae:f2:ca:7f:c2:
        e1:cf:a2:0c:19:4a:ae:75:dd:11:4d:7d:7c:c2:f5:fc:b6:c2:
        aa:7f:ec:f5:46:ef:e5:07:44:51:73:e5:5f:b7:0e:78:08:88:
        e1:42:a3:93
-----BEGIN CERTIFICATE-----
MIIDgDCCAmigAwIBAgIUcnY+J3ifnttuNsVailm8gjqMeqIwDQYJKoZIhvcNAQEL
BQAwDzENMAsGA1UEAwwEUm9vdDAeFw0yMjEwMDUxMjAwMDBaFw0yMzEwMDUxMjAw
MDBaMBcxFTATBgNVBAMMDEludGVybWVkaWF0ZTCCASIwDQYJKoZIhvcNAQEBBQAD
ggEPADCCAQoCggEBALZSPYEhQ2Az/E52KIwmPNkbBUu3ul1B954IcrIPqbs3G7ht
EGLPwimXe5dJ9DuH2SlkcvCZBCMjhIMEPAEVlRr4AroOnNL2RVT5qOnnfC7157Q4
SrvQQPhRUGOw/C45+Wujyd0530e21IErGUOZp/EcTlN58EBMRvrp39rfdXqLJZ3w
1oUWiPLrZRm5Qh8HvX6NPXONb/W25LyvTQ729DfhWPuhbQbVgAAW81dv6gfzwaCt
q15NyPfo+sG2xgH7aiJNHfdEfmkWSPCTDLRFx08VhCn2w6PDHpyMRipH/GGG1mKC
dAaYV7ROEciyRLF25Dg7Xxnf9RWAQPB1TCzBnc0CAwEAAaOByzCByDAdBgNVHQ4E
FgQU24jXCzUrnjBZ0hpRHax948BBhTQwHwYDVR0jBBgwFoAUbnvIJRERjLc36Fq4
O/UloQZ9pqEwNwYIKwYBBQUHAQEEKzApMCcGCCsGAQUFBzAChhtodHRwOi8vdXJs
LWZvci1haWEvUm9vdC5jZXIwLAYDVR0fBCUwIzAhoB+gHYYbaHR0cDovL3VybC1m
b3ItY3JsL1Jvb3QuY3JsMA4GA1UdDwEB/wQEAwIBBjAPBgNVHRMBAf8EBTADAQH/
MA0GCSqGSIb3DQEBCwUAA4IBAQB6qmQQokAKEWslkTcDx8C2v23mDTv9IwsoQ3xG
bD6Qbt2fyX/U6XRCf398JCjIITkLS9mjLG4XmOEvOldrBrFxD4idrvExRoWsZ1TF
6P7vqYijQWfX2lk1Bs5o8LqbDfJ/pYk/r7k7Sd7AWk/RiejjDKJ+wAitdRKLz9bz
ZRUctdlgiJIoLK9YggSJIIvzJqESQWVUxHdvkaZtKrmRbq4Oau/UH1maJwuPVVfc
FJUFrR9ofzgDFAIfM+rkh/cAAiVTsSrc47why/HhPm0tVhU4EC3urvLKf8Lhz6IM
GUqudd0RTX18wvX8tsKqf+z1Ru/lB0RRc+Vftw54CIjhQqOT
-----END CERTIFICATE-----

Certificate:
    Data:
        Version: 3 (0x2)
        Serial Number:
            72:76:3e:27:78:9f:9e:db:6e:36:c5:5a:8a:59:bc:82:3a:8c:7a:9f
        Signature Algorithm: sha256WithRSAEncryption
        Issuer: CN=Root
        Validity
            Not Before: Oct  5 12:00:00 2022 GMT
            Not After : Oct  5 12:00:00 2023 GMT
        Subject: CN=Root
        Subject Public Key Info:
            Public Key Algorithm: rsaEncryption
                Public-Key: (2048 bit)
                Modulus:
                    00:f9:1b:7f:13:42:25:83:e6:a3:28:53:28:a2:42:
                    76:db:ec:c0:1d:88:3c:ee:37:ad:fe:24:a4:37:32:
                    4c:32:27:be:25:31:0a:07:48:7f:8e:44:24:de:ec:
                    ef:e3:cd:f8:fc:a1:7e:b5:95:0e:03:2a:ee:07:e6:
                    8a:fb:92:8b:92:5c:9c:51:3d:95:72:eb:5e:b5:d0:
                    b4:03:1e:26:5e:4d:f0:a0:ef:41:7a:a0:27:6f:a4:
                    73:b9:61:04:a4:21:a2:9d:67:3d:34:ad:6e:c4:24:
                    95:85:bb:3c:33:34:0c:91:a5:1f:fe:5e:6b:a6:8f:
                    b8:0c:00:cf:e4:f1:c5:6f:b3:1d:49:0c:2b:fe:07:
                    ab:8c:c6:55:5c:ef:44:7c:f9:7e:7d:80:63:93:e6:
                    75:dd:16:72:c9:1d:95:c7:14:b4:1d:18:9e:fe:0a:
                    c8:b2:7d:55:06:e6:8b:bb:50:b6:46:cf:63:59:bb:
                    66:8b:ae:b7:4a:4d:3e:a4:75:d2:00:1b:af:87:38:
                    fd:01:6d:96:0a:0b:e8:2e:f2:ad:d5:a8:10:7c:ff:
                    da:a7:62:1f:eb:8b:d6:6b:96:c1:0f:9a:0b:1b:46:
                    63:e0:aa:54:c5:b0:f1:31:ad:7c:24:a9:27:84:a2:
                    df:06:86:63:4a:b2:9c:bb:b3:3f:89:d4:9c:7a:fa:
                    91:25
                Exponent: 65537 (0x10001)
        X509v3 extensions:
            X509v3 Subject Key Identifier: 
                72:8E:C0:44:D5:12:7A:32:45:EA:BC:89:19:85:84:95:C9:20:AF:09
            X509v3 Authority Key Identifier: 
                72:8E:C0:44:D5:12:7A:32:45:EA:BC:89:19:85:84:95:C9:20:AF:09
            Authority Information Access: 
                CA Issuers - URI:http://url-for-aia/Root.cer
            X509v3 CRL Distribution Points: 
                Full Name:
                  URI:http://url-for-crl/Root.crl
            X509v3 Key Usage: critical
                Certificate Sign, CRL Sign
            X509v3 Basic Constraints: critical
                CA:TRUE
    Signature Algorithm: sha256WithRSAEncryption
    Signature Value:
        45:44:65:d8:61:65:b4:97:9a:89:dc:05:5c:a3:f6:df:4c:cc:
        6e:a9:34:ce:4e:c1:b7:72:2f:37:ac:62:23:4f:54:ab:3f:0b:
        c7:52:bb:bc:b9:8b:a5:61:f8:b5:f5:fc:66:d4:07:7c:b9:1f:
        45:6f:18:ea:60:dc:41:42:eb:9a:9b:25:39:a1:46:5c:60:87:
        f6:3f:22:ff:ea:e1:d3:81:8b:cd:77:a2:2a:83:c6:29:21:bb:
        2f:97:dd:88:ae:53:1e:10:a9:f8:58:07:d6:ce:d1:09:24:ec:
        93:24:fb:90:5a:c0:c7:d7:69:5d:63:b5:5f:2d:ff:8f:0e:fc:
        b1:e7:0e:f4:1e:3e:44:be:37:78:03:42:51:8f:0f:a4:6f:ee:
        bc:f5:bb:96:93:7f:98:ce:c7:f0:b7:7d:5e:d8:5f:fa:22:6a:
        3d:51:f5:7e:d8:ad:39:b6:0c:cf:46:92:0b:c0:be:b6:2d:9c:
        de:20:cd:03:04:a7:4c:77:32:a8:e5:0c:54:87:87:a3:df:66:
        74:1d:9c:4b:1b:62:a5:11:12:20:44:6c:69:84:46:fb:62:11:
        49:84:db:ac:6c:fb:f1:50:90:58:8f:fc:4a:9c:13:af:3a:4c:
        a3:ef:b5:9b:82:de:cd:cd:89:f3:9f:8e:fc:ad:93:d5:40:10:
        ad:8b:4e:15
-----BEGIN CERTIFICATE-----
MIIDeDCCAmCgAwIBAgIUcnY+J3ifnttuNsVailm8gjqMep8wDQYJKoZIhvcNAQEL
BQAwDzENMAsGA1UEAwwEUm9vdDAeFw0yMjEwMDUxMjAwMDBaFw0yMzEwMDUxMjAw
MDBaMA8xDTALBgNVBAMMBFJvb3QwggEiMA0GCSqGSIb3DQEBAQUAA4IBDwAwggEK
AoIBAQD5G38TQiWD5qMoUyiiQnbb7MAdiDzuN63+JKQ3MkwyJ74lMQoHSH+ORCTe
7O/jzfj8oX61lQ4DKu4H5or7kouSXJxRPZVy61610LQDHiZeTfCg70F6oCdvpHO5
YQSkIaKdZz00rW7EJJWFuzwzNAyRpR/+Xmumj7gMAM/k8cVvsx1JDCv+B6uMxlVc
70R8+X59gGOT5nXdFnLJHZXHFLQdGJ7+CsiyfVUG5ou7ULZGz2NZu2aLrrdKTT6k
ddIAG6+HOP0BbZYKC+gu8q3VqBB8/9qnYh/ri9ZrlsEPmgsbRmPgqlTFsPExrXwk
qSeEot8GhmNKspy7sz+J1Jx6+pElAgMBAAGjgcswgcgwHQYDVR0OBBYEFHKOwETV
EnoyReq8iRmFhJXJIK8JMB8GA1UdIwQYMBaAFHKOwETVEnoyReq8iRmFhJXJIK8J
MDcGCCsGAQUFBwEBBCswKTAnBggrBgEFBQcwAoYbaHR0cDovL3VybC1mb3ItYWlh
L1Jvb3QuY2VyMCwGA1UdHwQlMCMwIaAfoB2GG2h0dHA6Ly91cmwtZm9yLWNybC9S
b290LmNybDAOBgNVHQ8BAf8EBAMCAQYwDwYDVR0TAQH/BAUwAwEB/zANBgkqhkiG
9w0BAQsFAAOCAQEARURl2GFltJeaidwFXKP230zMbqk0zk7Bt3IvN6xiI09Uqz8L
x1K7vLmLpWH4tfX8ZtQHfLkfRW8Y6mDcQULrmpslOaFGXGCH9j8i/+rh04GLzXei
KoPGKSG7L5fdiK5THhCp+FgH1s7RCSTskyT7kFrAx9dpXWO1Xy3/jw78secO9B4+
RL43eANCUY8PpG/uvPW7lpN/mM7H8Ld9Xthf+iJqPVH1ftitObYMz0aSC8C+ti2c
3iDNAwSnTHcyqOUMVIeHo99mdB2cSxtipRESIERsaYRG+2IRSYTbrGz78VCQWI/8
SpwTrzpMo++1m4Lezc2J85+O/K2T1UAQrYtOFQ==
-----END CERTIFICATE-----
