[Created by: generate-chains.py]

Certificate chain where both the intermediate and target certificates have
incorrect signatures.

Certificate:
    Data:
        Version: 3 (0x2)
        Serial Number:
            12:3d:2e:d4:5e:20:54:23:3a:0b:c1:18:e2:e3:1e:58:f9:35:fd:a2
        Signature Algorithm: sha256WithRSAEncryption
        Issuer: CN=Intermediate
        Validity
            Not Before: Nov  3 12:00:00 2020 GMT
            Not After : Nov  3 12:00:00 2021 GMT
        Subject: CN=Target
        Subject Public Key Info:
            Public Key Algorithm: rsaEncryption
                RSA Public-Key: (2048 bit)
                Modulus:
                    00:b1:5e:cb:41:90:73:c4:13:ce:74:69:2e:d2:cb:
                    92:f1:dd:1c:30:d5:bc:33:af:7d:e7:b2:5a:4a:c2:
                    7e:61:cb:44:97:9d:85:26:10:db:fc:07:c7:f2:6c:
                    87:7a:f0:fb:4c:c8:1b:ed:7c:3e:19:4c:5e:b1:e8:
                    ba:10:8f:f3:2e:50:b4:56:ff:1f:7a:70:96:ee:f6:
                    d1:f9:f2:57:db:56:c7:d3:fd:cd:5a:ec:e0:e7:c8:
                    39:ca:3a:99:c0:d4:38:77:08:94:e2:4c:a9:5b:b8:
                    bd:97:8a:df:45:7c:fd:b0:ed:c8:b2:09:35:53:4e:
                    6f:58:42:60:c6:92:42:e8:f6:22:6a:8b:c4:e1:08:
                    00:e6:a7:48:c9:64:4b:13:7e:ca:c8:05:17:b5:60:
                    66:db:f0:25:eb:24:e4:9f:bf:6b:96:21:18:bf:a7:
                    19:5c:2f:2f:63:9a:de:b6:83:c5:1a:fd:f0:25:18:
                    7a:43:4a:15:d0:76:b0:3f:22:f3:6f:71:b1:23:74:
                    7b:3c:14:ca:8a:b1:7f:07:6c:3a:f6:01:32:1b:38:
                    4f:ba:14:50:00:9f:5e:09:0f:c3:b2:f2:25:bc:d0:
                    e0:f3:6f:af:58:22:5f:86:0f:b4:c6:fe:5e:41:b5:
                    da:2a:e0:5e:18:f1:7c:79:3c:57:b7:68:5d:27:4e:
                    85:17
                Exponent: 65537 (0x10001)
        X509v3 extensions:
            X509v3 Subject Key Identifier: 
                54:31:EB:0B:BA:22:61:28:F7:82:FB:D1:FA:BA:43:92:AD:92:66:23
            X509v3 Authority Key Identifier: 
                keyid:6D:10:36:87:AF:FA:A8:A3:9B:79:07:26:E8:A6:DA:49:43:67:94:CA

            Authority Information Access: 
                CA Issuers - URI:http://url-for-aia/Intermediate.cer

            X509v3 CRL Distribution Points: 

                Full Name:
                  URI:http://url-for-crl/Intermediate.crl

            X509v3 Key Usage: critical
                Digital Signature, Key Encipherment
            X509v3 Extended Key Usage: 
                TLS Web Server Authentication, TLS Web Client Authentication
    Signature Algorithm: sha256WithRSAEncryption
         4d:d2:b8:d7:68:18:b7:34:0a:a2:eb:de:1a:be:8b:b2:ef:63:
         88:8a:41:ab:dd:6a:86:30:5a:fa:4f:dd:6b:dc:21:5a:b2:f1:
         1c:9b:cd:d2:36:8a:01:5d:9b:7e:62:b4:fb:2d:94:d9:1b:fb:
         41:fe:a8:fb:1e:64:7a:21:ad:71:94:c9:e7:31:9f:24:f6:2c:
         8a:7a:51:d4:68:05:41:d0:a8:86:73:d3:28:b8:91:0a:9e:74:
         03:10:36:16:46:23:ff:28:3c:3a:b5:f8:35:3f:6e:28:37:fc:
         03:61:41:70:b4:53:58:c7:93:17:ec:14:a0:90:5d:c7:0b:5c:
         47:7d:62:0d:2a:73:d5:f4:42:5c:46:94:c7:87:10:50:1c:fe:
         fe:a7:41:ba:c0:01:9d:e3:93:d6:1f:64:b5:db:6b:3c:4e:a4:
         5f:06:2e:41:c4:91:54:65:27:2b:23:30:12:4a:c5:38:23:5d:
         eb:1c:86:7a:28:b9:9a:77:39:6c:1c:f3:b1:d5:f7:2f:0a:ee:
         35:b5:15:7a:7e:a2:b0:b3:cd:b5:8c:70:78:97:e2:7d:ad:87:
         a9:9e:e1:cc:a9:af:6a:b9:68:bd:3b:7d:8f:53:be:b3:01:7e:
         f1:ab:0d:75:19:11:9b:b0:df:ad:d4:71:9c:02:fe:be:e4:a9:
         59:59:63:ee
-----BEGIN CERTIFICATE-----
MIIDoDCCAoigAwIBAgIUEj0u1F4gVCM6C8EY4uMeWPk1/aIwDQYJKoZIhvcNAQEL
BQAwFzEVMBMGA1UEAwwMSW50ZXJtZWRpYXRlMB4XDTIwMTEwMzEyMDAwMFoXDTIx
MTEwMzEyMDAwMFowETEPMA0GA1UEAwwGVGFyZ2V0MIIBIjANBgkqhkiG9w0BAQEF
AAOCAQ8AMIIBCgKCAQEAsV7LQZBzxBPOdGku0suS8d0cMNW8M69957JaSsJ+YctE
l52FJhDb/AfH8myHevD7TMgb7Xw+GUxesei6EI/zLlC0Vv8fenCW7vbR+fJX21bH
0/3NWuzg58g5yjqZwNQ4dwiU4kypW7i9l4rfRXz9sO3Isgk1U05vWEJgxpJC6PYi
aovE4QgA5qdIyWRLE37KyAUXtWBm2/Al6yTkn79rliEYv6cZXC8vY5retoPFGv3w
JRh6Q0oV0HawPyLzb3GxI3R7PBTKirF/B2w69gEyGzhPuhRQAJ9eCQ/DsvIlvNDg
82+vWCJfhg+0xv5eQbXaKuBeGPF8eTxXt2hdJ06FFwIDAQABo4HpMIHmMB0GA1Ud
DgQWBBRUMesLuiJhKPeC+9H6ukOSrZJmIzAfBgNVHSMEGDAWgBRtEDaHr/qoo5t5
ByboptpJQ2eUyjA/BggrBgEFBQcBAQQzMDEwLwYIKwYBBQUHMAKGI2h0dHA6Ly91
cmwtZm9yLWFpYS9JbnRlcm1lZGlhdGUuY2VyMDQGA1UdHwQtMCswKaAnoCWGI2h0
dHA6Ly91cmwtZm9yLWNybC9JbnRlcm1lZGlhdGUuY3JsMA4GA1UdDwEB/wQEAwIF
oDAdBgNVHSUEFjAUBggrBgEFBQcDAQYIKwYBBQUHAwIwDQYJKoZIhvcNAQELBQAD
ggEBAE3SuNdoGLc0CqLr3hq+i7LvY4iKQavdaoYwWvpP3WvcIVqy8RybzdI2igFd
m35itPstlNkb+0H+qPseZHohrXGUyecxnyT2LIp6UdRoBUHQqIZz0yi4kQqedAMQ
NhZGI/8oPDq1+DU/big3/ANhQXC0U1jHkxfsFKCQXccLXEd9Yg0qc9X0QlxGlMeH
EFAc/v6nQbrAAZ3jk9YfZLXbazxOpF8GLkHEkVRlJysjMBJKxTgjXeschnoouZp3
OWwc87HV9y8K7jW1FXp+orCzzbWMcHiX4n2th6me4cypr2q5aL07fY9TvrMBfvGr
DXUZEZuw363UcZwC/r7kqVlZY+4=
-----END CERTIFICATE-----

Certificate:
    Data:
        Version: 3 (0x2)
        Serial Number:
            72:76:3e:27:78:9f:9e:db:6e:36:c5:5a:8a:59:bc:82:3a:8c:7a:a2
        Signature Algorithm: sha256WithRSAEncryption
        Issuer: CN=Root
        Validity
            Not Before: Nov  3 12:00:00 2020 GMT
            Not After : Nov  3 12:00:00 2021 GMT
        Subject: CN=Intermediate
        Subject Public Key Info:
            Public Key Algorithm: rsaEncryption
                RSA Public-Key: (2048 bit)
                Modulus:
                    00:b6:52:3d:81:21:43:60:33:fc:4e:76:28:8c:26:
                    3c:d9:1b:05:4b:b7:ba:5d:41:f7:9e:08:72:b2:0f:
                    a9:bb:37:1b:b8:6d:10:62:cf:c2:29:97:7b:97:49:
                    f4:3b:87:d9:29:64:72:f0:99:04:23:23:84:83:04:
                    3c:01:15:95:1a:f8:02:ba:0e:9c:d2:f6:45:54:f9:
                    a8:e9:e7:7c:2e:f5:e7:b4:38:4a:bb:d0:40:f8:51:
                    50:63:b0:fc:2e:39:f9:6b:a3:c9:dd:39:df:47:b6:
                    d4:81:2b:19:43:99:a7:f1:1c:4e:53:79:f0:40:4c:
                    46:fa:e9:df:da:df:75:7a:8b:25:9d:f0:d6:85:16:
                    88:f2:eb:65:19:b9:42:1f:07:bd:7e:8d:3d:73:8d:
                    6f:f5:b6:e4:bc:af:4d:0e:f6:f4:37:e1:58:fb:a1:
                    6d:06:d5:80:00:16:f3:57:6f:ea:07:f3:c1:a0:ad:
                    ab:5e:4d:c8:f7:e8:fa:c1:b6:c6:01:fb:6a:22:4d:
                    1d:f7:44:7e:69:16:48:f0:93:0c:b4:45:c7:4f:15:
                    84:29:f6:c3:a3:c3:1e:9c:8c:46:2a:47:fc:61:86:
                    d6:62:82:74:06:98:57:b4:4e:11:c8:b2:44:b1:76:
                    e4:38:3b:5f:19:df:f5:15:80:40:f0:75:4c:2c:c1:
                    9d:cd
                Exponent: 65537 (0x10001)
        X509v3 extensions:
            X509v3 Subject Key Identifier: 
                DB:88:D7:0B:35:2B:9E:30:59:D2:1A:51:1D:AC:7D:E3:C0:41:85:34
            X509v3 Authority Key Identifier: 
                keyid:6E:7B:C8:25:11:11:8C:B7:37:E8:5A:B8:3B:F5:25:A1:06:7D:A6:A1

            Authority Information Access: 
                CA Issuers - URI:http://url-for-aia/Root.cer

            X509v3 CRL Distribution Points: 

                Full Name:
                  URI:http://url-for-crl/Root.crl

            X509v3 Key Usage: critical
                Certificate Sign, CRL Sign
            X509v3 Basic Constraints: critical
                CA:TRUE
    Signature Algorithm: sha256WithRSAEncryption
         1f:1e:f5:4a:8b:f8:be:23:31:19:2b:db:2c:ed:ad:6e:5f:8c:
         80:8d:34:2a:96:0d:01:90:53:11:e2:15:09:98:6e:5a:32:ff:
         28:f0:33:bc:e0:fa:d0:2b:07:90:d2:5e:93:86:92:e1:d2:b4:
         3e:f5:69:5d:22:15:b1:6b:02:7a:ea:e8:74:80:2b:c7:6c:1e:
         87:06:76:4d:8b:db:ec:59:f0:87:24:39:2f:16:fd:dc:41:50:
         75:6d:ea:8f:fa:b6:d5:7d:ed:5e:c1:f5:ac:74:50:43:bf:87:
         f2:da:df:0b:93:bd:ef:31:a6:8f:12:f9:43:e6:de:93:db:48:
         1b:4b:76:47:46:e4:27:96:de:df:c9:55:58:36:76:c1:0e:1d:
         04:2c:ac:2b:b0:41:4e:c4:4c:de:18:ca:7e:93:cd:33:6d:78:
         35:40:24:65:2e:8b:12:03:5f:c2:0e:b0:47:87:21:8e:88:bd:
         a9:4b:b3:e7:12:a9:ea:95:cc:08:98:5d:7e:4c:72:f2:86:33:
         3d:51:84:91:66:8c:ba:94:12:82:47:22:b4:99:cc:97:7e:1b:
         c7:21:a8:18:b2:a0:df:18:81:5c:c5:df:ff:53:4a:c4:0c:ae:
         b7:b2:40:50:bb:2e:d1:fb:66:01:62:c4:df:c3:4d:1e:de:14:
         06:f1:cc:34
-----BEGIN CERTIFICATE-----
MIIDgDCCAmigAwIBAgIUcnY+J3ifnttuNsVailm8gjqMeqIwDQYJKoZIhvcNAQEL
BQAwDzENMAsGA1UEAwwEUm9vdDAeFw0yMDExMDMxMjAwMDBaFw0yMTExMDMxMjAw
MDBaMBcxFTATBgNVBAMMDEludGVybWVkaWF0ZTCCASIwDQYJKoZIhvcNAQEBBQAD
ggEPADCCAQoCggEBALZSPYEhQ2Az/E52KIwmPNkbBUu3ul1B954IcrIPqbs3G7ht
EGLPwimXe5dJ9DuH2SlkcvCZBCMjhIMEPAEVlRr4AroOnNL2RVT5qOnnfC7157Q4
SrvQQPhRUGOw/C45+Wujyd0530e21IErGUOZp/EcTlN58EBMRvrp39rfdXqLJZ3w
1oUWiPLrZRm5Qh8HvX6NPXONb/W25LyvTQ729DfhWPuhbQbVgAAW81dv6gfzwaCt
q15NyPfo+sG2xgH7aiJNHfdEfmkWSPCTDLRFx08VhCn2w6PDHpyMRipH/GGG1mKC
dAaYV7ROEciyRLF25Dg7Xxnf9RWAQPB1TCzBnc0CAwEAAaOByzCByDAdBgNVHQ4E
FgQU24jXCzUrnjBZ0hpRHax948BBhTQwHwYDVR0jBBgwFoAUbnvIJRERjLc36Fq4
O/UloQZ9pqEwNwYIKwYBBQUHAQEEKzApMCcGCCsGAQUFBzAChhtodHRwOi8vdXJs
LWZvci1haWEvUm9vdC5jZXIwLAYDVR0fBCUwIzAhoB+gHYYbaHR0cDovL3VybC1m
b3ItY3JsL1Jvb3QuY3JsMA4GA1UdDwEB/wQEAwIBBjAPBgNVHRMBAf8EBTADAQH/
MA0GCSqGSIb3DQEBCwUAA4IBAQAfHvVKi/i+IzEZK9ss7a1uX4yAjTQqlg0BkFMR
4hUJmG5aMv8o8DO84PrQKweQ0l6ThpLh0rQ+9WldIhWxawJ66uh0gCvHbB6HBnZN
i9vsWfCHJDkvFv3cQVB1beqP+rbVfe1ewfWsdFBDv4fy2t8Lk73vMaaPEvlD5t6T
20gbS3ZHRuQnlt7fyVVYNnbBDh0ELKwrsEFOxEzeGMp+k80zbXg1QCRlLosSA1/C
DrBHhyGOiL2pS7PnEqnqlcwImF1+THLyhjM9UYSRZoy6lBKCRyK0mcyXfhvHIagY
sqDfGIFcxd//U0rEDK63skBQuy7R+2YBYsTfw00e3hQG8cw0
-----END CERTIFICATE-----

Certificate:
    Data:
        Version: 3 (0x2)
        Serial Number:
            72:76:3e:27:78:9f:9e:db:6e:36:c5:5a:8a:59:bc:82:3a:8c:7a:9f
        Signature Algorithm: sha256WithRSAEncryption
        Issuer: CN=Root
        Validity
            Not Before: Nov  3 12:00:00 2020 GMT
            Not After : Nov  3 12:00:00 2021 GMT
        Subject: CN=Root
        Subject Public Key Info:
            Public Key Algorithm: rsaEncryption
                RSA Public-Key: (2048 bit)
                Modulus:
                    00:f9:1b:7f:13:42:25:83:e6:a3:28:53:28:a2:42:
                    76:db:ec:c0:1d:88:3c:ee:37:ad:fe:24:a4:37:32:
                    4c:32:27:be:25:31:0a:07:48:7f:8e:44:24:de:ec:
                    ef:e3:cd:f8:fc:a1:7e:b5:95:0e:03:2a:ee:07:e6:
                    8a:fb:92:8b:92:5c:9c:51:3d:95:72:eb:5e:b5:d0:
                    b4:03:1e:26:5e:4d:f0:a0:ef:41:7a:a0:27:6f:a4:
                    73:b9:61:04:a4:21:a2:9d:67:3d:34:ad:6e:c4:24:
                    95:85:bb:3c:33:34:0c:91:a5:1f:fe:5e:6b:a6:8f:
                    b8:0c:00:cf:e4:f1:c5:6f:b3:1d:49:0c:2b:fe:07:
                    ab:8c:c6:55:5c:ef:44:7c:f9:7e:7d:80:63:93:e6:
                    75:dd:16:72:c9:1d:95:c7:14:b4:1d:18:9e:fe:0a:
                    c8:b2:7d:55:06:e6:8b:bb:50:b6:46:cf:63:59:bb:
                    66:8b:ae:b7:4a:4d:3e:a4:75:d2:00:1b:af:87:38:
                    fd:01:6d:96:0a:0b:e8:2e:f2:ad:d5:a8:10:7c:ff:
                    da:a7:62:1f:eb:8b:d6:6b:96:c1:0f:9a:0b:1b:46:
                    63:e0:aa:54:c5:b0:f1:31:ad:7c:24:a9:27:84:a2:
                    df:06:86:63:4a:b2:9c:bb:b3:3f:89:d4:9c:7a:fa:
                    91:25
                Exponent: 65537 (0x10001)
        X509v3 extensions:
            X509v3 Subject Key Identifier: 
                72:8E:C0:44:D5:12:7A:32:45:EA:BC:89:19:85:84:95:C9:20:AF:09
            X509v3 Authority Key Identifier: 
                keyid:72:8E:C0:44:D5:12:7A:32:45:EA:BC:89:19:85:84:95:C9:20:AF:09

            Authority Information Access: 
                CA Issuers - URI:http://url-for-aia/Root.cer

            X509v3 CRL Distribution Points: 

                Full Name:
                  URI:http://url-for-crl/Root.crl

            X509v3 Key Usage: critical
                Certificate Sign, CRL Sign
            X509v3 Basic Constraints: critical
                CA:TRUE
    Signature Algorithm: sha256WithRSAEncryption
         e7:d0:48:2a:72:98:81:28:63:e4:16:3e:95:b3:24:36:37:8c:
         a9:97:62:98:fd:6f:c5:c6:3b:9d:4a:03:97:44:99:d2:8b:e5:
         3d:fe:32:39:73:52:31:b6:7b:5f:0a:6d:f9:87:ec:3f:65:48:
         02:41:d0:ac:bf:fa:c8:8e:c3:31:60:f9:8c:79:e6:34:89:00:
         54:e6:89:36:93:40:52:e4:1e:36:15:80:62:58:71:68:f0:23:
         3f:53:5a:a3:aa:1d:29:ce:a1:08:f4:ab:ae:94:68:2a:88:a2:
         b3:c8:fd:11:ae:f5:d2:a4:b8:e1:43:d7:22:29:f8:cd:a6:9c:
         0e:d7:8b:9a:dc:e8:ba:fc:67:88:1f:33:f6:40:be:ca:5a:9b:
         20:c1:87:57:63:6e:cf:b2:c1:6c:de:8c:3b:f8:87:55:22:9e:
         55:1a:45:d4:32:34:10:c2:3d:83:11:77:35:6e:18:83:69:ee:
         ba:a5:c4:f1:ff:41:a1:81:99:5d:d6:8a:d7:76:92:0d:57:5c:
         06:62:21:dc:8a:37:ad:07:23:bd:3c:46:e2:0f:2a:a6:6a:a8:
         aa:b8:3e:57:c5:57:5a:42:63:83:83:ce:1e:33:1a:13:5d:0a:
         ee:f8:2a:a7:8d:95:5c:16:09:d6:8c:f4:d3:12:8c:e0:67:0a:
         1d:fc:d2:f4
-----BEGIN CERTIFICATE-----
MIIDeDCCAmCgAwIBAgIUcnY+J3ifnttuNsVailm8gjqMep8wDQYJKoZIhvcNAQEL
BQAwDzENMAsGA1UEAwwEUm9vdDAeFw0yMDExMDMxMjAwMDBaFw0yMTExMDMxMjAw
MDBaMA8xDTALBgNVBAMMBFJvb3QwggEiMA0GCSqGSIb3DQEBAQUAA4IBDwAwggEK
AoIBAQD5G38TQiWD5qMoUyiiQnbb7MAdiDzuN63+JKQ3MkwyJ74lMQoHSH+ORCTe
7O/jzfj8oX61lQ4DKu4H5or7kouSXJxRPZVy61610LQDHiZeTfCg70F6oCdvpHO5
YQSkIaKdZz00rW7EJJWFuzwzNAyRpR/+Xmumj7gMAM/k8cVvsx1JDCv+B6uMxlVc
70R8+X59gGOT5nXdFnLJHZXHFLQdGJ7+CsiyfVUG5ou7ULZGz2NZu2aLrrdKTT6k
ddIAG6+HOP0BbZYKC+gu8q3VqBB8/9qnYh/ri9ZrlsEPmgsbRmPgqlTFsPExrXwk
qSeEot8GhmNKspy7sz+J1Jx6+pElAgMBAAGjgcswgcgwHQYDVR0OBBYEFHKOwETV
EnoyReq8iRmFhJXJIK8JMB8GA1UdIwQYMBaAFHKOwETVEnoyReq8iRmFhJXJIK8J
MDcGCCsGAQUFBwEBBCswKTAnBggrBgEFBQcwAoYbaHR0cDovL3VybC1mb3ItYWlh
L1Jvb3QuY2VyMCwGA1UdHwQlMCMwIaAfoB2GG2h0dHA6Ly91cmwtZm9yLWNybC9S
b290LmNybDAOBgNVHQ8BAf8EBAMCAQYwDwYDVR0TAQH/BAUwAwEB/zANBgkqhkiG
9w0BAQsFAAOCAQEA59BIKnKYgShj5BY+lbMkNjeMqZdimP1vxcY7nUoDl0SZ0ovl
Pf4yOXNSMbZ7Xwpt+YfsP2VIAkHQrL/6yI7DMWD5jHnmNIkAVOaJNpNAUuQeNhWA
YlhxaPAjP1Nao6odKc6hCPSrrpRoKoiis8j9Ea710qS44UPXIin4zaacDteLmtzo
uvxniB8z9kC+ylqbIMGHV2Nuz7LBbN6MO/iHVSKeVRpF1DI0EMI9gxF3NW4Yg2nu
uqXE8f9BoYGZXdaK13aSDVdcBmIh3Io3rQcjvTxG4g8qpmqoqrg+V8VXWkJjg4PO
HjMaE10K7vgqp42VXBYJ1oz00xKM4GcKHfzS9A==
-----END CERTIFICATE-----
