[Created by: generate-chains.py]

Certificate chain where the target certificate is signed using a weak RSA
key (512-bit modulus).

Certificate:
    Data:
        Version: 3 (0x2)
        Serial Number:
            73:1d:79:3f:16:15:f2:fa:19:a6:58:c1:bc:00:3c:16:5c:12:fe:f0
        Signature Algorithm: sha256WithRSAEncryption
        Issuer: CN=Intermediate
        Validity
            Not Before: Oct  5 12:00:00 2022 GMT
            Not After : Oct  5 12:00:00 2023 GMT
        Subject: CN=Target
        Subject Public Key Info:
            Public Key Algorithm: rsaEncryption
                Public-Key: (2048 bit)
                Modulus:
                    00:f2:42:db:44:b2:6b:f2:0a:41:04:53:7d:0b:34:
                    a4:fe:8d:d5:3a:ff:e5:a9:0c:5d:e4:2d:69:fe:e3:
                    dd:8a:47:2f:e8:9e:5a:54:ab:0b:95:84:16:af:fa:
                    29:11:43:5c:c9:59:15:30:59:77:bb:62:dd:d6:e4:
                    27:3a:bf:a9:82:cb:b8:f4:3c:5c:1d:74:87:8d:57:
                    af:0a:69:91:68:b4:aa:f6:14:8b:25:14:60:68:c9:
                    8d:56:09:06:a6:ad:12:8a:cb:05:33:b0:1e:11:03:
                    52:bf:af:7d:87:b0:97:22:fb:5a:f4:ea:5b:14:56:
                    cc:ad:03:2a:da:75:59:35:8b:88:3a:b7:66:3b:18:
                    a8:7c:c4:29:4f:66:ac:da:1f:ba:ec:ef:fc:55:01:
                    1e:31:7a:af:ca:5c:5d:cf:73:49:2f:50:b9:0d:3b:
                    4c:0c:d9:b0:d6:25:86:ea:3d:4d:ea:de:3b:9c:2a:
                    79:b3:c6:13:9a:bb:22:53:62:7c:a9:05:a6:a3:c7:
                    f5:28:72:24:c0:d6:ec:6f:66:eb:5a:85:91:5e:cd:
                    a5:95:cc:9f:60:88:a1:bc:95:33:1f:f4:8f:99:68:
                    56:64:39:4c:a4:df:f3:41:10:14:50:e5:ba:42:e5:
                    c6:ec:50:37:44:26:de:0d:28:71:b8:63:bb:38:7e:
                    04:a9
                Exponent: 65537 (0x10001)
        X509v3 extensions:
            X509v3 Subject Key Identifier: 
                78:F8:8D:81:56:D4:CD:CF:11:9F:9E:DD:3D:6C:F2:07:FE:0F:37:7D
            X509v3 Authority Key Identifier: 
                E9:D8:44:8D:24:EE:A1:82:18:6F:21:FA:4E:EC:FB:DF:D1:91:57:9D
            Authority Information Access: 
                CA Issuers - URI:http://url-for-aia/Intermediate.cer
            X509v3 CRL Distribution Points: 
                Full Name:
                  URI:http://url-for-crl/Intermediate.crl
            X509v3 Key Usage: critical
                Digital Signature, Key Encipherment
            X509v3 Extended Key Usage: 
                TLS Web Server Authentication, TLS Web Client Authentication
    Signature Algorithm: sha256WithRSAEncryption
    Signature Value:
        08:0b:2f:b4:f1:62:f1:4e:c2:f7:d0:d1:59:bc:39:e9:be:ac:
        c6:5d:06:05:89:9b:34:f2:66:86:8f:01:13:09:80:c1:44:c7:
        8e:01:61:bf:70:a3:5f:ac:7a:8c:22:13:2c:28:db:52:4e:5a:
        ae:00:22:03:f8:e5:4b:a0:c4:36
-----BEGIN CERTIFICATE-----
MIIC3jCCAoigAwIBAgIUcx15PxYV8voZpljBvAA8FlwS/vAwDQYJKoZIhvcNAQEL
BQAwFzEVMBMGA1UEAwwMSW50ZXJtZWRpYXRlMB4XDTIyMTAwNTEyMDAwMFoXDTIz
MTAwNTEyMDAwMFowETEPMA0GA1UEAwwGVGFyZ2V0MIIBIjANBgkqhkiG9w0BAQEF
AAOCAQ8AMIIBCgKCAQEA8kLbRLJr8gpBBFN9CzSk/o3VOv/lqQxd5C1p/uPdikcv
6J5aVKsLlYQWr/opEUNcyVkVMFl3u2Ld1uQnOr+pgsu49DxcHXSHjVevCmmRaLSq
9hSLJRRgaMmNVgkGpq0SissFM7AeEQNSv699h7CXIvta9OpbFFbMrQMq2nVZNYuI
OrdmOxiofMQpT2as2h+67O/8VQEeMXqvylxdz3NJL1C5DTtMDNmw1iWG6j1N6t47
nCp5s8YTmrsiU2J8qQWmo8f1KHIkwNbsb2brWoWRXs2llcyfYIihvJUzH/SPmWhW
ZDlMpN/zQRAUUOW6QuXG7FA3RCbeDShxuGO7OH4EqQIDAQABo4HpMIHmMB0GA1Ud
DgQWBBR4+I2BVtTNzxGfnt09bPIH/g83fTAfBgNVHSMEGDAWgBTp2ESNJO6hghhv
IfpO7Pvf0ZFXnTA/BggrBgEFBQcBAQQzMDEwLwYIKwYBBQUHMAKGI2h0dHA6Ly91
cmwtZm9yLWFpYS9JbnRlcm1lZGlhdGUuY2VyMDQGA1UdHwQtMCswKaAnoCWGI2h0
dHA6Ly91cmwtZm9yLWNybC9JbnRlcm1lZGlhdGUuY3JsMA4GA1UdDwEB/wQEAwIF
oDAdBgNVHSUEFjAUBggrBgEFBQcDAQYIKwYBBQUHAwIwDQYJKoZIhvcNAQELBQAD
QQAICy+08WLxTsL30NFZvDnpvqzGXQYFiZs08maGjwETCYDBRMeOAWG/cKNfrHqM
IhMsKNtSTlquACID+OVLoMQ2
-----END CERTIFICATE-----

Certificate:
    Data:
        Version: 3 (0x2)
        Serial Number:
            1d:a9:8e:36:2e:87:ea:b5:92:e3:42:05:50:07:2b:bc:5f:13:0d:64
        Signature Algorithm: sha256WithRSAEncryption
        Issuer: CN=Root
        Validity
            Not Before: Oct  5 12:00:00 2022 GMT
            Not After : Oct  5 12:00:00 2023 GMT
        Subject: CN=Intermediate
        Subject Public Key Info:
            Public Key Algorithm: rsaEncryption
                Public-Key: (512 bit)
                Modulus:
                    00:d5:13:bb:52:bf:ca:19:1a:06:19:68:07:1d:e6:
                    87:16:d3:f0:e0:12:ba:a2:b5:2a:3d:ed:b3:64:16:
                    06:a3:50:fc:b0:a4:49:f2:f9:ab:34:ad:4f:db:0a:
                    3d:2b:25:92:86:3f:94:df:fb:fc:54:f2:c7:6d:9e:
                    d2:10:e0:cd:0d
                Exponent: 65537 (0x10001)
        X509v3 extensions:
            X509v3 Subject Key Identifier: 
                E9:D8:44:8D:24:EE:A1:82:18:6F:21:FA:4E:EC:FB:DF:D1:91:57:9D
            X509v3 Authority Key Identifier: 
                BE:33:72:47:C2:B1:97:41:99:C0:31:57:52:56:0C:B5:53:78:5A:A4
            Authority Information Access: 
                CA Issuers - URI:http://url-for-aia/Root.cer
            X509v3 CRL Distribution Points: 
                Full Name:
                  URI:http://url-for-crl/Root.crl
            X509v3 Key Usage: critical
                Certificate Sign, CRL Sign
            X509v3 Basic Constraints: critical
                CA:TRUE
    Signature Algorithm: sha256WithRSAEncryption
    Signature Value:
        5b:c4:9e:28:5d:b5:b8:33:f8:61:59:9f:67:16:c8:5c:f7:d7:
        b1:aa:3d:ab:cf:13:74:e3:82:d8:4e:2e:bd:25:4a:b5:f2:dc:
        c0:ea:f7:ef:7a:b8:5e:93:7c:c3:50:56:0a:a0:55:db:34:c7:
        be:4a:d4:00:3b:00:49:2b:8d:ee:76:40:09:9e:03:8b:d5:de:
        6d:e1:71:68:a3:8b:ae:a6:8d:2f:3e:88:53:2b:17:91:0e:2a:
        0a:fe:aa:34:3c:7c:79:2b:6e:5a:92:82:bc:ef:4c:cb:51:80:
        74:84:89:0a:d8:1c:1b:f2:b7:8d:98:98:55:fd:73:97:46:e0:
        f1:bc:ad:59:2d:87:3e:4d:2d:99:4b:7f:c0:df:5a:ca:8d:a5:
        9a:6b:07:b5:ed:d5:55:2c:d6:94:0a:e7:66:df:3b:00:55:5e:
        c2:ca:25:54:03:67:16:67:6d:8a:d5:c4:a3:6f:65:b2:42:f3:
        9e:99:5e:f0:62:00:5d:89:d0:d3:a9:85:d5:9b:c9:7f:17:0e:
        fa:e3:d2:a4:4c:ca:c7:2e:01:e1:bc:cd:fe:30:4a:32:c9:2e:
        98:cf:8a:af:7e:77:42:65:6d:ff:65:0b:f5:6b:4f:5d:d8:ef:
        d5:b9:a8:1a:d7:8a:86:0a:f3:97:70:5b:26:db:68:ed:56:be:
        52:f9:0c:48
-----BEGIN CERTIFICATE-----
MIICuDCCAaCgAwIBAgIUHamONi6H6rWS40IFUAcrvF8TDWQwDQYJKoZIhvcNAQEL
BQAwDzENMAsGA1UEAwwEUm9vdDAeFw0yMjEwMDUxMjAwMDBaFw0yMzEwMDUxMjAw
MDBaMBcxFTATBgNVBAMMDEludGVybWVkaWF0ZTBcMA0GCSqGSIb3DQEBAQUAA0sA
MEgCQQDVE7tSv8oZGgYZaAcd5ocW0/DgErqitSo97bNkFgajUPywpEny+as0rU/b
Cj0rJZKGP5Tf+/xU8sdtntIQ4M0NAgMBAAGjgcswgcgwHQYDVR0OBBYEFOnYRI0k
7qGCGG8h+k7s+9/RkVedMB8GA1UdIwQYMBaAFL4zckfCsZdBmcAxV1JWDLVTeFqk
MDcGCCsGAQUFBwEBBCswKTAnBggrBgEFBQcwAoYbaHR0cDovL3VybC1mb3ItYWlh
L1Jvb3QuY2VyMCwGA1UdHwQlMCMwIaAfoB2GG2h0dHA6Ly91cmwtZm9yLWNybC9S
b290LmNybDAOBgNVHQ8BAf8EBAMCAQYwDwYDVR0TAQH/BAUwAwEB/zANBgkqhkiG
9w0BAQsFAAOCAQEAW8SeKF21uDP4YVmfZxbIXPfXsao9q88TdOOC2E4uvSVKtfLc
wOr373q4XpN8w1BWCqBV2zTHvkrUADsASSuN7nZACZ4Di9XebeFxaKOLrqaNLz6I
UysXkQ4qCv6qNDx8eStuWpKCvO9My1GAdISJCtgcG/K3jZiYVf1zl0bg8bytWS2H
Pk0tmUt/wN9ayo2lmmsHte3VVSzWlArnZt87AFVewsolVANnFmdtitXEo29lskLz
nple8GIAXYnQ06mF1ZvJfxcO+uPSpEzKxy4B4bzN/jBKMskumM+Kr353QmVt/2UL
9WtPXdjv1bmoGteKhgrzl3BbJtto7Va+UvkMSA==
-----END CERTIFICATE-----

Certificate:
    Data:
        Version: 3 (0x2)
        Serial Number:
            1d:a9:8e:36:2e:87:ea:b5:92:e3:42:05:50:07:2b:bc:5f:13:0d:63
        Signature Algorithm: sha256WithRSAEncryption
        Issuer: CN=Root
        Validity
            Not Before: Oct  5 12:00:00 2022 GMT
            Not After : Oct  5 12:00:00 2023 GMT
        Subject: CN=Root
        Subject Public Key Info:
            Public Key Algorithm: rsaEncryption
                Public-Key: (2048 bit)
                Modulus:
                    00:ca:3f:f8:1f:42:8f:55:98:f8:9f:fb:94:03:42:
                    2a:c1:42:3a:2b:2a:f3:54:14:f3:fe:67:25:24:d3:
                    9a:7f:66:1a:60:0b:9d:d8:bd:65:71:b5:f5:d9:fe:
                    eb:f6:04:72:57:97:bc:23:b0:be:bd:ce:94:9e:58:
                    1a:10:e7:33:09:0b:57:a8:1c:6f:fa:f7:ce:d1:31:
                    34:90:1a:b4:60:2d:d2:7f:29:9b:4e:ec:f4:6e:99:
                    21:6b:98:9c:90:09:fc:bd:2f:55:c3:34:38:48:4a:
                    73:fe:58:e2:09:b9:d9:f9:53:f6:84:e2:5d:fc:eb:
                    3c:ba:92:f5:bc:97:cc:ef:43:54:f7:4f:c9:b4:2c:
                    86:95:32:a6:e8:91:f5:8e:31:f8:de:b5:d9:c9:3d:
                    4d:d7:24:4c:8c:58:aa:8a:c5:79:ab:e7:cd:3b:5c:
                    84:67:52:5a:88:33:c3:55:d5:a9:2e:c9:5b:61:7c:
                    87:05:c1:0b:d7:19:4a:fe:bd:ba:af:d7:e5:70:d1:
                    a4:92:08:d2:f2:ca:2b:b1:94:d0:84:57:f9:30:92:
                    fc:3a:67:82:10:6e:e3:89:9f:b3:df:75:6e:99:46:
                    bd:ce:b1:e8:ac:a2:3b:21:80:da:11:13:bd:df:93:
                    0e:0e:ee:5d:f5:39:a2:a8:f7:41:c8:cb:00:5c:ac:
                    ee:b1
                Exponent: 65537 (0x10001)
        X509v3 extensions:
            X509v3 Subject Key Identifier: 
                BE:33:72:47:C2:B1:97:41:99:C0:31:57:52:56:0C:B5:53:78:5A:A4
            X509v3 Authority Key Identifier: 
                BE:33:72:47:C2:B1:97:41:99:C0:31:57:52:56:0C:B5:53:78:5A:A4
            Authority Information Access: 
                CA Issuers - URI:http://url-for-aia/Root.cer
            X509v3 CRL Distribution Points: 
                Full Name:
                  URI:http://url-for-crl/Root.crl
            X509v3 Key Usage: critical
                Certificate Sign, CRL Sign
            X509v3 Basic Constraints: critical
                CA:TRUE
    Signature Algorithm: sha256WithRSAEncryption
    Signature Value:
        45:01:90:a5:92:86:b2:26:7c:79:86:1d:9f:5a:c2:83:6b:0d:
        17:00:b1:8d:f6:21:35:ca:f5:46:50:25:42:4c:f4:b2:55:4f:
        13:b9:55:83:2a:d7:c4:f7:e0:4a:54:53:1d:d5:b5:4b:da:b2:
        d4:32:eb:fb:36:60:43:8f:80:a6:f5:cd:d7:8e:6d:ad:08:ac:
        f0:8e:8e:df:ef:1e:c7:24:a1:f5:34:67:4c:00:da:46:57:c0:
        45:34:c3:79:78:cf:e6:56:37:a9:54:26:28:45:b2:09:f4:e1:
        f4:0b:1b:37:9f:20:ad:20:b2:02:3b:5a:88:0e:16:f5:52:54:
        49:ed:eb:97:a0:e1:ca:9c:d7:bc:ee:bf:5b:cc:43:25:16:13:
        51:ae:d7:08:7a:33:b0:6d:b3:bc:12:cf:11:93:63:55:a3:b3:
        1b:3c:66:67:a2:2b:21:9e:df:db:39:b2:d4:cc:c4:b3:0f:b7:
        73:ca:f3:9a:22:e5:39:42:7a:dd:ca:36:56:80:66:7e:d5:01:
        52:82:5a:d8:c8:20:45:7b:70:ac:1f:fd:98:c4:2a:0d:e6:04:
        bf:ba:5b:ca:36:82:b9:0a:b6:62:a2:e7:37:20:5c:fa:e1:10:
        0f:3e:9f:ea:97:57:d6:7e:5d:c8:a6:5b:15:e0:3d:81:72:2d:
        20:7c:a7:64
-----BEGIN CERTIFICATE-----
MIIDeDCCAmCgAwIBAgIUHamONi6H6rWS40IFUAcrvF8TDWMwDQYJKoZIhvcNAQEL
BQAwDzENMAsGA1UEAwwEUm9vdDAeFw0yMjEwMDUxMjAwMDBaFw0yMzEwMDUxMjAw
MDBaMA8xDTALBgNVBAMMBFJvb3QwggEiMA0GCSqGSIb3DQEBAQUAA4IBDwAwggEK
AoIBAQDKP/gfQo9VmPif+5QDQirBQjorKvNUFPP+ZyUk05p/ZhpgC53YvWVxtfXZ
/uv2BHJXl7wjsL69zpSeWBoQ5zMJC1eoHG/6987RMTSQGrRgLdJ/KZtO7PRumSFr
mJyQCfy9L1XDNDhISnP+WOIJudn5U/aE4l386zy6kvW8l8zvQ1T3T8m0LIaVMqbo
kfWOMfjetdnJPU3XJEyMWKqKxXmr5807XIRnUlqIM8NV1akuyVthfIcFwQvXGUr+
vbqv1+Vw0aSSCNLyyiuxlNCEV/kwkvw6Z4IQbuOJn7PfdW6ZRr3OseisojshgNoR
E73fkw4O7l31OaKo90HIywBcrO6xAgMBAAGjgcswgcgwHQYDVR0OBBYEFL4zckfC
sZdBmcAxV1JWDLVTeFqkMB8GA1UdIwQYMBaAFL4zckfCsZdBmcAxV1JWDLVTeFqk
MDcGCCsGAQUFBwEBBCswKTAnBggrBgEFBQcwAoYbaHR0cDovL3VybC1mb3ItYWlh
L1Jvb3QuY2VyMCwGA1UdHwQlMCMwIaAfoB2GG2h0dHA6Ly91cmwtZm9yLWNybC9S
b290LmNybDAOBgNVHQ8BAf8EBAMCAQYwDwYDVR0TAQH/BAUwAwEB/zANBgkqhkiG
9w0BAQsFAAOCAQEARQGQpZKGsiZ8eYYdn1rCg2sNFwCxjfYhNcr1RlAlQkz0slVP
E7lVgyrXxPfgSlRTHdW1S9qy1DLr+zZgQ4+ApvXN145trQis8I6O3+8exySh9TRn
TADaRlfARTTDeXjP5lY3qVQmKEWyCfTh9AsbN58grSCyAjtaiA4W9VJUSe3rl6Dh
ypzXvO6/W8xDJRYTUa7XCHozsG2zvBLPEZNjVaOzGzxmZ6IrIZ7f2zmy1MzEsw+3
c8rzmiLlOUJ63co2VoBmftUBUoJa2MggRXtwrB/9mMQqDeYEv7pbyjaCuQq2YqLn
NyBc+uEQDz6f6pdX1n5dyKZbFeA9gXItIHynZA==
-----END CERTIFICATE-----
