[Created by: generate-chains.py]

Certificate chain where the target certificate is signed using a weak RSA
key (512-bit modulus).

Certificate:
    Data:
        Version: 3 (0x2)
        Serial Number:
            73:1d:79:3f:16:15:f2:fa:19:a6:58:c1:bc:00:3c:16:5c:12:fe:f0
        Signature Algorithm: sha256WithRSAEncryption
        Issuer: CN=Intermediate
        Validity
            Not Before: Nov  3 12:00:00 2020 GMT
            Not After : Nov  3 12:00:00 2021 GMT
        Subject: CN=Target
        Subject Public Key Info:
            Public Key Algorithm: rsaEncryption
                RSA Public-Key: (2048 bit)
                Modulus:
                    00:f2:42:db:44:b2:6b:f2:0a:41:04:53:7d:0b:34:
                    a4:fe:8d:d5:3a:ff:e5:a9:0c:5d:e4:2d:69:fe:e3:
                    dd:8a:47:2f:e8:9e:5a:54:ab:0b:95:84:16:af:fa:
                    29:11:43:5c:c9:59:15:30:59:77:bb:62:dd:d6:e4:
                    27:3a:bf:a9:82:cb:b8:f4:3c:5c:1d:74:87:8d:57:
                    af:0a:69:91:68:b4:aa:f6:14:8b:25:14:60:68:c9:
                    8d:56:09:06:a6:ad:12:8a:cb:05:33:b0:1e:11:03:
                    52:bf:af:7d:87:b0:97:22:fb:5a:f4:ea:5b:14:56:
                    cc:ad:03:2a:da:75:59:35:8b:88:3a:b7:66:3b:18:
                    a8:7c:c4:29:4f:66:ac:da:1f:ba:ec:ef:fc:55:01:
                    1e:31:7a:af:ca:5c:5d:cf:73:49:2f:50:b9:0d:3b:
                    4c:0c:d9:b0:d6:25:86:ea:3d:4d:ea:de:3b:9c:2a:
                    79:b3:c6:13:9a:bb:22:53:62:7c:a9:05:a6:a3:c7:
                    f5:28:72:24:c0:d6:ec:6f:66:eb:5a:85:91:5e:cd:
                    a5:95:cc:9f:60:88:a1:bc:95:33:1f:f4:8f:99:68:
                    56:64:39:4c:a4:df:f3:41:10:14:50:e5:ba:42:e5:
                    c6:ec:50:37:44:26:de:0d:28:71:b8:63:bb:38:7e:
                    04:a9
                Exponent: 65537 (0x10001)
        X509v3 extensions:
            X509v3 Subject Key Identifier: 
                78:F8:8D:81:56:D4:CD:CF:11:9F:9E:DD:3D:6C:F2:07:FE:0F:37:7D
            X509v3 Authority Key Identifier: 
                keyid:E9:D8:44:8D:24:EE:A1:82:18:6F:21:FA:4E:EC:FB:DF:D1:91:57:9D

            Authority Information Access: 
                CA Issuers - URI:http://url-for-aia/Intermediate.cer

            X509v3 CRL Distribution Points: 

                Full Name:
                  URI:http://url-for-crl/Intermediate.crl

            X509v3 Key Usage: critical
                Digital Signature, Key Encipherment
            X509v3 Extended Key Usage: 
                TLS Web Server Authentication, TLS Web Client Authentication
    Signature Algorithm: sha256WithRSAEncryption
         a3:6e:2d:aa:26:a8:a6:2a:21:61:41:68:2f:96:36:66:eb:bc:
         a6:48:2d:37:78:95:0c:c6:a8:b1:3f:df:c0:e4:5f:5d:1a:cc:
         37:c2:c4:de:a3:0f:30:37:d5:4e:4e:42:fb:07:24:18:48:5c:
         f6:01:fc:44:4e:b0:b1:cc:e2:85
-----BEGIN CERTIFICATE-----
MIIC3jCCAoigAwIBAgIUcx15PxYV8voZpljBvAA8FlwS/vAwDQYJKoZIhvcNAQEL
BQAwFzEVMBMGA1UEAwwMSW50ZXJtZWRpYXRlMB4XDTIwMTEwMzEyMDAwMFoXDTIx
MTEwMzEyMDAwMFowETEPMA0GA1UEAwwGVGFyZ2V0MIIBIjANBgkqhkiG9w0BAQEF
AAOCAQ8AMIIBCgKCAQEA8kLbRLJr8gpBBFN9CzSk/o3VOv/lqQxd5C1p/uPdikcv
6J5aVKsLlYQWr/opEUNcyVkVMFl3u2Ld1uQnOr+pgsu49DxcHXSHjVevCmmRaLSq
9hSLJRRgaMmNVgkGpq0SissFM7AeEQNSv699h7CXIvta9OpbFFbMrQMq2nVZNYuI
OrdmOxiofMQpT2as2h+67O/8VQEeMXqvylxdz3NJL1C5DTtMDNmw1iWG6j1N6t47
nCp5s8YTmrsiU2J8qQWmo8f1KHIkwNbsb2brWoWRXs2llcyfYIihvJUzH/SPmWhW
ZDlMpN/zQRAUUOW6QuXG7FA3RCbeDShxuGO7OH4EqQIDAQABo4HpMIHmMB0GA1Ud
DgQWBBR4+I2BVtTNzxGfnt09bPIH/g83fTAfBgNVHSMEGDAWgBTp2ESNJO6hghhv
IfpO7Pvf0ZFXnTA/BggrBgEFBQcBAQQzMDEwLwYIKwYBBQUHMAKGI2h0dHA6Ly91
cmwtZm9yLWFpYS9JbnRlcm1lZGlhdGUuY2VyMDQGA1UdHwQtMCswKaAnoCWGI2h0
dHA6Ly91cmwtZm9yLWNybC9JbnRlcm1lZGlhdGUuY3JsMA4GA1UdDwEB/wQEAwIF
oDAdBgNVHSUEFjAUBggrBgEFBQcDAQYIKwYBBQUHAwIwDQYJKoZIhvcNAQELBQAD
QQCjbi2qJqimKiFhQWgvljZm67ymSC03eJUMxqixP9/A5F9dGsw3wsTeow8wN9VO
TkL7ByQYSFz2AfxETrCxzOKF
-----END CERTIFICATE-----

Certificate:
    Data:
        Version: 3 (0x2)
        Serial Number:
            1d:a9:8e:36:2e:87:ea:b5:92:e3:42:05:50:07:2b:bc:5f:13:0d:64
        Signature Algorithm: sha256WithRSAEncryption
        Issuer: CN=Root
        Validity
            Not Before: Nov  3 12:00:00 2020 GMT
            Not After : Nov  3 12:00:00 2021 GMT
        Subject: CN=Intermediate
        Subject Public Key Info:
            Public Key Algorithm: rsaEncryption
                RSA Public-Key: (512 bit)
                Modulus:
                    00:d5:13:bb:52:bf:ca:19:1a:06:19:68:07:1d:e6:
                    87:16:d3:f0:e0:12:ba:a2:b5:2a:3d:ed:b3:64:16:
                    06:a3:50:fc:b0:a4:49:f2:f9:ab:34:ad:4f:db:0a:
                    3d:2b:25:92:86:3f:94:df:fb:fc:54:f2:c7:6d:9e:
                    d2:10:e0:cd:0d
                Exponent: 65537 (0x10001)
        X509v3 extensions:
            X509v3 Subject Key Identifier: 
                E9:D8:44:8D:24:EE:A1:82:18:6F:21:FA:4E:EC:FB:DF:D1:91:57:9D
            X509v3 Authority Key Identifier: 
                keyid:BE:33:72:47:C2:B1:97:41:99:C0:31:57:52:56:0C:B5:53:78:5A:A4

            Authority Information Access: 
                CA Issuers - URI:http://url-for-aia/Root.cer

            X509v3 CRL Distribution Points: 

                Full Name:
                  URI:http://url-for-crl/Root.crl

            X509v3 Key Usage: critical
                Certificate Sign, CRL Sign
            X509v3 Basic Constraints: critical
                CA:TRUE
    Signature Algorithm: sha256WithRSAEncryption
         ab:59:68:92:e5:c0:fc:02:cf:54:e9:39:b5:db:21:73:29:3d:
         75:15:f1:ce:6e:87:ec:4a:18:c4:58:87:a6:94:ab:61:b2:a7:
         e1:3e:ae:32:51:44:64:9b:41:32:eb:1a:c4:30:8e:d9:b0:56:
         0b:24:89:85:08:9d:29:17:d4:96:c1:16:83:c6:72:69:92:74:
         0d:c6:3f:78:5f:36:02:34:8f:95:fc:19:5b:52:c4:0e:13:48:
         f9:5a:ba:d0:77:9a:88:ce:19:d8:cf:42:95:e2:5d:5f:76:c6:
         4d:51:39:18:a2:4a:76:af:90:62:fa:57:b8:aa:cf:94:dc:93:
         1b:2c:2f:99:9a:aa:cb:35:2b:ce:b2:ae:9b:25:47:eb:4e:37:
         bc:52:2c:82:93:fd:ca:b3:f8:96:c1:81:a2:82:92:17:cf:c8:
         2d:87:ce:e3:6e:b0:1f:e0:0f:1c:b5:70:11:d4:24:cc:27:3f:
         eb:e5:1e:f3:83:27:8f:1d:d9:76:0e:c1:96:d2:eb:43:97:a4:
         35:fc:e0:4f:c8:11:95:1a:98:b4:07:eb:b1:a5:43:1a:da:d8:
         62:b0:ea:63:89:42:7f:72:b8:cc:67:ed:b7:9f:5b:f1:02:a0:
         5c:a2:18:e2:03:7d:09:b2:a8:5f:ce:48:df:4e:5e:bd:4f:5e:
         2e:bc:f7:83
-----BEGIN CERTIFICATE-----
MIICuDCCAaCgAwIBAgIUHamONi6H6rWS40IFUAcrvF8TDWQwDQYJKoZIhvcNAQEL
BQAwDzENMAsGA1UEAwwEUm9vdDAeFw0yMDExMDMxMjAwMDBaFw0yMTExMDMxMjAw
MDBaMBcxFTATBgNVBAMMDEludGVybWVkaWF0ZTBcMA0GCSqGSIb3DQEBAQUAA0sA
MEgCQQDVE7tSv8oZGgYZaAcd5ocW0/DgErqitSo97bNkFgajUPywpEny+as0rU/b
Cj0rJZKGP5Tf+/xU8sdtntIQ4M0NAgMBAAGjgcswgcgwHQYDVR0OBBYEFOnYRI0k
7qGCGG8h+k7s+9/RkVedMB8GA1UdIwQYMBaAFL4zckfCsZdBmcAxV1JWDLVTeFqk
MDcGCCsGAQUFBwEBBCswKTAnBggrBgEFBQcwAoYbaHR0cDovL3VybC1mb3ItYWlh
L1Jvb3QuY2VyMCwGA1UdHwQlMCMwIaAfoB2GG2h0dHA6Ly91cmwtZm9yLWNybC9S
b290LmNybDAOBgNVHQ8BAf8EBAMCAQYwDwYDVR0TAQH/BAUwAwEB/zANBgkqhkiG
9w0BAQsFAAOCAQEAq1lokuXA/ALPVOk5tdshcyk9dRXxzm6H7EoYxFiHppSrYbKn
4T6uMlFEZJtBMusaxDCO2bBWCySJhQidKRfUlsEWg8ZyaZJ0DcY/eF82AjSPlfwZ
W1LEDhNI+Vq60HeaiM4Z2M9CleJdX3bGTVE5GKJKdq+QYvpXuKrPlNyTGywvmZqq
yzUrzrKumyVH6043vFIsgpP9yrP4lsGBooKSF8/ILYfO426wH+APHLVwEdQkzCc/
6+Ue84Mnjx3Zdg7BltLrQ5ekNfzgT8gRlRqYtAfrsaVDGtrYYrDqY4lCf3K4zGft
t59b8QKgXKIY4gN9CbKoX85I305evU9eLrz3gw==
-----END CERTIFICATE-----

Certificate:
    Data:
        Version: 3 (0x2)
        Serial Number:
            1d:a9:8e:36:2e:87:ea:b5:92:e3:42:05:50:07:2b:bc:5f:13:0d:63
        Signature Algorithm: sha256WithRSAEncryption
        Issuer: CN=Root
        Validity
            Not Before: Nov  3 12:00:00 2020 GMT
            Not After : Nov  3 12:00:00 2021 GMT
        Subject: CN=Root
        Subject Public Key Info:
            Public Key Algorithm: rsaEncryption
                RSA Public-Key: (2048 bit)
                Modulus:
                    00:ca:3f:f8:1f:42:8f:55:98:f8:9f:fb:94:03:42:
                    2a:c1:42:3a:2b:2a:f3:54:14:f3:fe:67:25:24:d3:
                    9a:7f:66:1a:60:0b:9d:d8:bd:65:71:b5:f5:d9:fe:
                    eb:f6:04:72:57:97:bc:23:b0:be:bd:ce:94:9e:58:
                    1a:10:e7:33:09:0b:57:a8:1c:6f:fa:f7:ce:d1:31:
                    34:90:1a:b4:60:2d:d2:7f:29:9b:4e:ec:f4:6e:99:
                    21:6b:98:9c:90:09:fc:bd:2f:55:c3:34:38:48:4a:
                    73:fe:58:e2:09:b9:d9:f9:53:f6:84:e2:5d:fc:eb:
                    3c:ba:92:f5:bc:97:cc:ef:43:54:f7:4f:c9:b4:2c:
                    86:95:32:a6:e8:91:f5:8e:31:f8:de:b5:d9:c9:3d:
                    4d:d7:24:4c:8c:58:aa:8a:c5:79:ab:e7:cd:3b:5c:
                    84:67:52:5a:88:33:c3:55:d5:a9:2e:c9:5b:61:7c:
                    87:05:c1:0b:d7:19:4a:fe:bd:ba:af:d7:e5:70:d1:
                    a4:92:08:d2:f2:ca:2b:b1:94:d0:84:57:f9:30:92:
                    fc:3a:67:82:10:6e:e3:89:9f:b3:df:75:6e:99:46:
                    bd:ce:b1:e8:ac:a2:3b:21:80:da:11:13:bd:df:93:
                    0e:0e:ee:5d:f5:39:a2:a8:f7:41:c8:cb:00:5c:ac:
                    ee:b1
                Exponent: 65537 (0x10001)
        X509v3 extensions:
            X509v3 Subject Key Identifier: 
                BE:33:72:47:C2:B1:97:41:99:C0:31:57:52:56:0C:B5:53:78:5A:A4
            X509v3 Authority Key Identifier: 
                keyid:BE:33:72:47:C2:B1:97:41:99:C0:31:57:52:56:0C:B5:53:78:5A:A4

            Authority Information Access: 
                CA Issuers - URI:http://url-for-aia/Root.cer

            X509v3 CRL Distribution Points: 

                Full Name:
                  URI:http://url-for-crl/Root.crl

            X509v3 Key Usage: critical
                Certificate Sign, CRL Sign
            X509v3 Basic Constraints: critical
                CA:TRUE
    Signature Algorithm: sha256WithRSAEncryption
         83:cd:28:8a:7f:8b:36:d8:b1:c2:e9:40:e5:5f:8d:1b:84:d7:
         c4:70:48:f4:31:78:e8:dc:09:1b:62:cd:62:4a:6c:98:41:f6:
         a2:fe:97:6c:1c:14:58:09:28:c5:a8:15:fa:00:61:86:17:e5:
         d1:8b:f3:b5:a1:5b:c1:b1:15:8f:ed:5d:b9:c9:c7:c0:db:62:
         4e:e5:be:37:43:8a:8c:69:16:29:b2:0a:96:be:ff:b5:19:fd:
         0b:e3:0f:ea:90:a8:50:ed:f2:29:1b:c9:a8:29:6f:5d:cc:e3:
         e1:fa:1e:ad:2e:2b:e4:9e:d2:3b:34:a9:21:41:20:ab:b1:75:
         92:98:03:09:e5:f5:2e:10:63:e7:93:b3:bc:a2:11:be:30:e4:
         0c:c9:be:df:b6:d1:78:dd:79:a2:e1:e9:9e:cb:bf:22:10:d0:
         3e:f0:79:37:e0:bf:97:78:e9:e3:a0:6b:59:91:5e:23:6f:5e:
         92:7a:14:70:e9:a7:31:b7:c8:37:4d:7a:6a:86:09:ae:c3:13:
         ab:69:36:5e:c1:72:63:d8:39:90:22:c0:4c:31:35:e7:67:c9:
         00:a4:0b:41:6e:65:fe:cd:33:2b:08:c3:04:97:91:62:46:c8:
         8d:97:5c:e0:e6:bf:56:e5:58:9f:4b:4b:5b:75:24:41:f3:a4:
         90:04:3c:b1
-----BEGIN CERTIFICATE-----
MIIDeDCCAmCgAwIBAgIUHamONi6H6rWS40IFUAcrvF8TDWMwDQYJKoZIhvcNAQEL
BQAwDzENMAsGA1UEAwwEUm9vdDAeFw0yMDExMDMxMjAwMDBaFw0yMTExMDMxMjAw
MDBaMA8xDTALBgNVBAMMBFJvb3QwggEiMA0GCSqGSIb3DQEBAQUAA4IBDwAwggEK
AoIBAQDKP/gfQo9VmPif+5QDQirBQjorKvNUFPP+ZyUk05p/ZhpgC53YvWVxtfXZ
/uv2BHJXl7wjsL69zpSeWBoQ5zMJC1eoHG/6987RMTSQGrRgLdJ/KZtO7PRumSFr
mJyQCfy9L1XDNDhISnP+WOIJudn5U/aE4l386zy6kvW8l8zvQ1T3T8m0LIaVMqbo
kfWOMfjetdnJPU3XJEyMWKqKxXmr5807XIRnUlqIM8NV1akuyVthfIcFwQvXGUr+
vbqv1+Vw0aSSCNLyyiuxlNCEV/kwkvw6Z4IQbuOJn7PfdW6ZRr3OseisojshgNoR
E73fkw4O7l31OaKo90HIywBcrO6xAgMBAAGjgcswgcgwHQYDVR0OBBYEFL4zckfC
sZdBmcAxV1JWDLVTeFqkMB8GA1UdIwQYMBaAFL4zckfCsZdBmcAxV1JWDLVTeFqk
MDcGCCsGAQUFBwEBBCswKTAnBggrBgEFBQcwAoYbaHR0cDovL3VybC1mb3ItYWlh
L1Jvb3QuY2VyMCwGA1UdHwQlMCMwIaAfoB2GG2h0dHA6Ly91cmwtZm9yLWNybC9S
b290LmNybDAOBgNVHQ8BAf8EBAMCAQYwDwYDVR0TAQH/BAUwAwEB/zANBgkqhkiG
9w0BAQsFAAOCAQEAg80oin+LNtixwulA5V+NG4TXxHBI9DF46NwJG2LNYkpsmEH2
ov6XbBwUWAkoxagV+gBhhhfl0YvztaFbwbEVj+1ducnHwNtiTuW+N0OKjGkWKbIK
lr7/tRn9C+MP6pCoUO3yKRvJqClvXczj4foerS4r5J7SOzSpIUEgq7F1kpgDCeX1
LhBj55OzvKIRvjDkDMm+37bReN15ouHpnsu/IhDQPvB5N+C/l3jp46BrWZFeI29e
knoUcOmnMbfIN016aoYJrsMTq2k2XsFyY9g5kCLATDE152fJAKQLQW5l/s0zKwjD
BJeRYkbIjZdc4Oa/VuVYn0tLW3UkQfOkkAQ8sQ==
-----END CERTIFICATE-----
