[Created by: generate-chains.py]

Certificate chain where the intermediate has an unknown critical
extension.

Certificate:
    Data:
        Version: 3 (0x2)
        Serial Number:
            73:54:1e:c7:2c:6e:fe:21:b3:a1:00:b5:73:46:4d:6e:2f:ca:28:8a
        Signature Algorithm: sha256WithRSAEncryption
        Issuer: CN=Intermediate
        Validity
            Not Before: Nov  3 12:00:00 2020 GMT
            Not After : Nov  3 12:00:00 2021 GMT
        Subject: CN=Target
        Subject Public Key Info:
            Public Key Algorithm: rsaEncryption
                RSA Public-Key: (2048 bit)
                Modulus:
                    00:e4:56:5a:78:c6:79:63:15:7a:a6:5b:ac:09:02:
                    26:d7:10:40:e3:ea:55:dc:1c:86:37:cd:9a:0c:7d:
                    6c:5a:1f:d0:58:25:72:48:c5:7f:ae:7c:eb:9c:a6:
                    e8:45:7c:f5:00:36:16:a9:00:f9:8e:8a:df:70:2c:
                    bb:30:6c:74:6a:c7:30:69:a5:2c:1d:77:3f:b0:fa:
                    89:e0:cb:07:39:ac:08:59:aa:4c:63:cc:62:fa:a9:
                    8c:19:27:61:2d:0d:97:98:ad:50:b8:b9:e2:5a:21:
                    c1:70:cd:e7:2a:ad:6a:68:1f:52:bc:8c:80:f5:51:
                    a6:f1:3f:47:c7:50:81:27:e5:15:37:48:4f:4b:c3:
                    1b:e9:01:b9:97:56:8b:b9:56:38:62:d0:c5:ca:52:
                    21:6b:2d:42:03:7a:d9:83:d3:cd:57:b4:8c:ca:a5:
                    91:bf:3f:e2:26:df:85:e6:6c:2c:80:56:26:21:95:
                    be:cf:a4:85:cf:5e:e4:18:05:e7:68:99:91:67:6d:
                    e3:16:92:c9:df:9f:89:3f:ae:ee:ee:a8:43:69:f6:
                    6b:92:5d:72:6b:bd:53:1c:4e:25:23:4f:ee:5a:ab:
                    3f:ba:01:42:94:02:db:cb:59:93:bb:b9:2a:ea:ad:
                    5a:17:26:84:67:99:05:98:f0:b1:3c:e0:a4:2b:17:
                    ea:19
                Exponent: 65537 (0x10001)
        X509v3 extensions:
            X509v3 Subject Key Identifier: 
                F7:35:7C:CD:CE:17:42:80:4E:A2:57:94:36:6B:2A:70:19:25:20:CD
            X509v3 Authority Key Identifier: 
                keyid:B7:0A:76:64:C2:EB:6F:75:8D:EE:42:82:82:B5:AE:9C:7B:B8:23:29

            Authority Information Access: 
                CA Issuers - URI:http://url-for-aia/Intermediate.cer

            X509v3 CRL Distribution Points: 

                Full Name:
                  URI:http://url-for-crl/Intermediate.crl

            X509v3 Key Usage: critical
                Digital Signature, Key Encipherment
            X509v3 Extended Key Usage: 
                TLS Web Server Authentication, TLS Web Client Authentication
    Signature Algorithm: sha256WithRSAEncryption
         77:07:49:93:ed:65:4d:78:db:b8:6a:04:fa:a8:f1:64:4d:23:
         c4:bd:07:a9:1f:50:4f:dc:0e:29:ec:fe:63:5a:7c:56:4d:94:
         23:8c:00:48:1d:34:45:c3:9b:de:22:89:ed:c0:9a:c3:3e:a8:
         b6:ec:dd:e4:bc:3c:29:5a:24:a1:f7:af:f8:cd:aa:ba:31:3a:
         bd:f2:af:18:22:9f:c7:16:03:2e:13:42:aa:0a:ba:32:ba:9e:
         7a:31:86:4b:65:00:9d:40:51:33:61:f8:ae:3f:9d:42:df:51:
         2b:82:ee:99:09:20:c9:30:27:74:6e:3f:78:c1:65:cc:af:39:
         a6:61:17:ce:37:58:94:fc:00:0b:ef:5f:f4:4a:c8:0a:0b:36:
         d9:11:3a:d3:1a:85:ec:20:9b:e8:81:6c:d7:13:67:24:71:af:
         a3:c4:7e:44:85:73:65:26:08:6a:d6:1f:58:f8:51:e1:f2:9a:
         b9:ca:1d:b9:e4:d1:ca:ea:95:7e:24:4e:bb:41:f3:27:71:57:
         1a:71:4b:4c:77:d2:2a:bc:f4:ab:e7:52:40:30:2a:5e:4e:c9:
         b0:fa:64:5c:51:5e:49:04:d4:35:72:f7:19:b6:10:07:ca:b7:
         a6:d3:a5:69:d9:d1:dd:c9:2e:1f:a5:27:f6:de:e1:dc:2b:8e:
         e8:3a:21:9c
-----BEGIN CERTIFICATE-----
MIIDoDCCAoigAwIBAgIUc1Qexyxu/iGzoQC1c0ZNbi/KKIowDQYJKoZIhvcNAQEL
BQAwFzEVMBMGA1UEAwwMSW50ZXJtZWRpYXRlMB4XDTIwMTEwMzEyMDAwMFoXDTIx
MTEwMzEyMDAwMFowETEPMA0GA1UEAwwGVGFyZ2V0MIIBIjANBgkqhkiG9w0BAQEF
AAOCAQ8AMIIBCgKCAQEA5FZaeMZ5YxV6plusCQIm1xBA4+pV3ByGN82aDH1sWh/Q
WCVySMV/rnzrnKboRXz1ADYWqQD5jorfcCy7MGx0ascwaaUsHXc/sPqJ4MsHOawI
WapMY8xi+qmMGSdhLQ2XmK1QuLniWiHBcM3nKq1qaB9SvIyA9VGm8T9Hx1CBJ+UV
N0hPS8Mb6QG5l1aLuVY4YtDFylIhay1CA3rZg9PNV7SMyqWRvz/iJt+F5mwsgFYm
IZW+z6SFz17kGAXnaJmRZ23jFpLJ35+JP67u7qhDafZrkl1ya71THE4lI0/uWqs/
ugFClALby1mTu7kq6q1aFyaEZ5kFmPCxPOCkKxfqGQIDAQABo4HpMIHmMB0GA1Ud
DgQWBBT3NXzNzhdCgE6iV5Q2aypwGSUgzTAfBgNVHSMEGDAWgBS3CnZkwutvdY3u
QoKCta6ce7gjKTA/BggrBgEFBQcBAQQzMDEwLwYIKwYBBQUHMAKGI2h0dHA6Ly91
cmwtZm9yLWFpYS9JbnRlcm1lZGlhdGUuY2VyMDQGA1UdHwQtMCswKaAnoCWGI2h0
dHA6Ly91cmwtZm9yLWNybC9JbnRlcm1lZGlhdGUuY3JsMA4GA1UdDwEB/wQEAwIF
oDAdBgNVHSUEFjAUBggrBgEFBQcDAQYIKwYBBQUHAwIwDQYJKoZIhvcNAQELBQAD
ggEBAHcHSZPtZU1427hqBPqo8WRNI8S9B6kfUE/cDins/mNafFZNlCOMAEgdNEXD
m94iie3AmsM+qLbs3eS8PClaJKH3r/jNqroxOr3yrxgin8cWAy4TQqoKujK6nnox
hktlAJ1AUTNh+K4/nULfUSuC7pkJIMkwJ3RuP3jBZcyvOaZhF843WJT8AAvvX/RK
yAoLNtkROtMahewgm+iBbNcTZyRxr6PEfkSFc2UmCGrWH1j4UeHymrnKHbnk0crq
lX4kTrtB8ydxVxpxS0x30iq89KvnUkAwKl5OybD6ZFxRXkkE1DVy9xm2EAfKt6bT
pWnZ0d3JLh+lJ/be4dwrjug6IZw=
-----END CERTIFICATE-----

Certificate:
    Data:
        Version: 3 (0x2)
        Serial Number:
            42:03:de:56:53:4d:df:53:72:dc:6d:7a:68:da:5e:9a:7a:fb:e3:12
        Signature Algorithm: sha256WithRSAEncryption
        Issuer: CN=Root
        Validity
            Not Before: Nov  3 12:00:00 2020 GMT
            Not After : Nov  3 12:00:00 2021 GMT
        Subject: CN=Intermediate
        Subject Public Key Info:
            Public Key Algorithm: rsaEncryption
                RSA Public-Key: (2048 bit)
                Modulus:
                    00:af:53:c1:dc:ae:32:12:ba:12:d0:12:d6:5e:18:
                    4a:ca:26:ef:e5:b8:b4:b0:9e:f0:6f:99:7d:d7:f5:
                    c5:2c:e3:3a:d0:61:35:51:a0:ea:eb:76:02:27:9a:
                    7e:19:b7:3f:9c:09:ee:e9:5d:60:64:82:19:94:74:
                    a2:b6:04:6b:ba:dd:51:c2:33:6c:9a:b9:eb:91:b9:
                    3a:07:6d:9e:36:3e:17:b7:38:27:1e:11:1e:06:35:
                    50:4c:02:11:48:17:28:87:14:0f:d7:28:65:4f:12:
                    80:da:4f:74:36:63:de:50:97:2e:68:dc:82:bb:f1:
                    c0:6a:60:34:1f:86:2d:61:13:0e:39:9e:14:d8:ba:
                    df:55:8d:bb:7b:38:77:85:d8:37:52:97:20:c2:12:
                    01:f0:e1:40:25:70:76:f4:89:5f:50:15:77:f9:74:
                    e9:53:e0:31:b8:e0:a7:f1:22:72:76:b1:07:13:b5:
                    e9:a8:f5:bf:29:0f:1f:95:bd:a1:79:74:56:7e:ba:
                    28:18:aa:20:8a:af:7b:ae:cc:cd:55:b2:8b:b4:f3:
                    5e:f2:bf:2e:09:9b:6a:b8:26:bf:79:58:c4:ca:2f:
                    fa:e0:28:7d:f7:85:71:c3:c2:03:b0:47:b9:11:d5:
                    4f:dc:5c:31:78:06:0b:06:09:bc:ae:95:0d:ee:71:
                    02:23
                Exponent: 65537 (0x10001)
        X509v3 extensions:
            X509v3 Subject Key Identifier: 
                B7:0A:76:64:C2:EB:6F:75:8D:EE:42:82:82:B5:AE:9C:7B:B8:23:29
            X509v3 Authority Key Identifier: 
                keyid:79:19:7C:D6:62:7D:B4:D8:E8:6E:7C:D3:E9:C7:2F:3D:F2:B2:40:A3

            Authority Information Access: 
                CA Issuers - URI:http://url-for-aia/Root.cer

            X509v3 CRL Distribution Points: 

                Full Name:
                  URI:http://url-for-crl/Root.crl

            X509v3 Key Usage: critical
                Certificate Sign, CRL Sign
            X509v3 Basic Constraints: critical
                CA:TRUE
            1.2.3.4: critical
                ....
    Signature Algorithm: sha256WithRSAEncryption
         19:02:5d:42:dc:cc:05:16:f7:9e:ed:1a:ef:4e:fc:52:2e:b4:
         e9:67:b8:1a:4b:2b:44:ef:fc:03:c9:78:ff:73:a3:ce:62:45:
         ae:e0:03:3e:f4:2b:78:b0:ea:26:6e:9b:09:6c:ff:1e:1d:f9:
         f7:87:03:59:2b:7d:06:73:bc:6a:7c:4f:3b:a0:14:11:80:ff:
         7f:8e:eb:f1:82:7d:b8:fd:82:6c:67:9a:52:78:9e:f3:bf:f2:
         5a:44:4c:5a:f1:df:16:a1:57:0c:1c:fa:bc:88:ef:fd:82:3b:
         d7:9c:fb:09:14:30:70:43:df:98:df:a8:ff:02:c6:bb:bc:2e:
         f5:88:be:b4:de:e1:65:30:d0:16:a3:a5:69:60:4c:53:d8:11:
         5f:3e:b0:8c:5c:e1:63:38:97:cf:d4:f9:86:ce:4c:20:ab:40:
         79:56:b5:5e:ad:31:0f:3e:a7:82:f5:17:a5:0a:f9:63:31:82:
         79:f5:63:c5:c1:f0:66:9f:e8:01:d7:37:18:f2:d5:a5:88:2b:
         c2:cf:8a:78:2f:62:2e:96:5e:3e:a3:8e:46:ab:f7:08:1f:86:
         cf:ab:c2:d0:fa:3b:e6:b7:a3:4c:76:85:93:24:b5:49:b0:c7:
         ae:08:58:a9:01:db:cb:a1:ab:4e:a0:49:7c:b1:86:a1:1c:16:
         ab:06:58:dc
-----BEGIN CERTIFICATE-----
MIIDkDCCAnigAwIBAgIUQgPeVlNN31Ny3G16aNpemnr74xIwDQYJKoZIhvcNAQEL
BQAwDzENMAsGA1UEAwwEUm9vdDAeFw0yMDExMDMxMjAwMDBaFw0yMTExMDMxMjAw
MDBaMBcxFTATBgNVBAMMDEludGVybWVkaWF0ZTCCASIwDQYJKoZIhvcNAQEBBQAD
ggEPADCCAQoCggEBAK9TwdyuMhK6EtAS1l4YSsom7+W4tLCe8G+Zfdf1xSzjOtBh
NVGg6ut2Aieafhm3P5wJ7uldYGSCGZR0orYEa7rdUcIzbJq565G5OgdtnjY+F7c4
Jx4RHgY1UEwCEUgXKIcUD9coZU8SgNpPdDZj3lCXLmjcgrvxwGpgNB+GLWETDjme
FNi631WNu3s4d4XYN1KXIMISAfDhQCVwdvSJX1AVd/l06VPgMbjgp/EicnaxBxO1
6aj1vykPH5W9oXl0Vn66KBiqIIqve67MzVWyi7TzXvK/Lgmbargmv3lYxMov+uAo
ffeFccPCA7BHuRHVT9xcMXgGCwYJvK6VDe5xAiMCAwEAAaOB2zCB2DAdBgNVHQ4E
FgQUtwp2ZMLrb3WN7kKCgrWunHu4IykwHwYDVR0jBBgwFoAUeRl81mJ9tNjobnzT
6ccvPfKyQKMwNwYIKwYBBQUHAQEEKzApMCcGCCsGAQUFBzAChhtodHRwOi8vdXJs
LWZvci1haWEvUm9vdC5jZXIwLAYDVR0fBCUwIzAhoB+gHYYbaHR0cDovL3VybC1m
b3ItY3JsL1Jvb3QuY3JsMA4GA1UdDwEB/wQEAwIBBjAPBgNVHRMBAf8EBTADAQH/
MA4GAyoDBAEB/wQEAQIDBDANBgkqhkiG9w0BAQsFAAOCAQEAGQJdQtzMBRb3nu0a
7078Ui606We4GksrRO/8A8l4/3OjzmJFruADPvQreLDqJm6bCWz/Hh3594cDWSt9
BnO8anxPO6AUEYD/f47r8YJ9uP2CbGeaUnie87/yWkRMWvHfFqFXDBz6vIjv/YI7
15z7CRQwcEPfmN+o/wLGu7wu9Yi+tN7hZTDQFqOlaWBMU9gRXz6wjFzhYziXz9T5
hs5MIKtAeVa1Xq0xDz6ngvUXpQr5YzGCefVjxcHwZp/oAdc3GPLVpYgrws+KeC9i
LpZePqOORqv3CB+Gz6vC0Po75rejTHaFkyS1SbDHrghYqQHby6GrTqBJfLGGoRwW
qwZY3A==
-----END CERTIFICATE-----

Certificate:
    Data:
        Version: 3 (0x2)
        Serial Number:
            42:03:de:56:53:4d:df:53:72:dc:6d:7a:68:da:5e:9a:7a:fb:e3:11
        Signature Algorithm: sha256WithRSAEncryption
        Issuer: CN=Root
        Validity
            Not Before: Nov  3 12:00:00 2020 GMT
            Not After : Nov  3 12:00:00 2021 GMT
        Subject: CN=Root
        Subject Public Key Info:
            Public Key Algorithm: rsaEncryption
                RSA Public-Key: (2048 bit)
                Modulus:
                    00:d4:ae:26:50:c5:ac:e1:7e:b7:9d:20:24:3c:b5:
                    5d:00:3e:9e:20:03:93:41:ed:70:e7:cc:a7:8f:67:
                    48:1c:79:41:b4:e1:e3:7c:e6:35:31:74:43:61:cc:
                    7a:2d:15:b3:1c:fe:a1:75:1e:82:6e:39:30:10:39:
                    7c:c2:a3:84:ea:99:b6:9e:3f:ce:41:46:9f:43:03:
                    d0:8a:0a:b4:fb:e7:ec:05:b7:73:1f:c5:06:85:0d:
                    13:41:d5:f8:3b:b8:f0:65:2e:93:88:9f:c1:f8:81:
                    dc:c7:38:50:cb:fe:c6:cb:dd:6d:39:c4:4e:40:9a:
                    64:4f:a7:72:fc:98:cd:b9:4b:32:99:0e:0f:33:2e:
                    b6:2e:80:f2:e4:51:bb:14:e4:67:43:54:2f:a8:1e:
                    c3:4b:4f:4c:dd:4a:df:84:1e:e9:e7:50:bf:83:2e:
                    a6:38:a6:c9:d8:60:98:94:b6:5c:4b:1e:80:c4:39:
                    32:11:5e:ae:4d:c4:ac:10:be:cd:fe:a3:9c:38:2e:
                    55:be:0f:92:cb:06:87:d0:a3:d4:f8:a2:e7:ca:05:
                    c0:41:91:a4:b9:93:da:fd:38:3f:ce:c2:45:2b:06:
                    da:d4:91:53:e8:8e:c2:c3:39:c1:c6:dd:ff:41:fa:
                    94:66:c3:c9:ee:6a:e2:91:ac:ad:42:5e:7a:d4:8a:
                    43:9f
                Exponent: 65537 (0x10001)
        X509v3 extensions:
            X509v3 Subject Key Identifier: 
                79:19:7C:D6:62:7D:B4:D8:E8:6E:7C:D3:E9:C7:2F:3D:F2:B2:40:A3
            X509v3 Authority Key Identifier: 
                keyid:79:19:7C:D6:62:7D:B4:D8:E8:6E:7C:D3:E9:C7:2F:3D:F2:B2:40:A3

            Authority Information Access: 
                CA Issuers - URI:http://url-for-aia/Root.cer

            X509v3 CRL Distribution Points: 

                Full Name:
                  URI:http://url-for-crl/Root.crl

            X509v3 Key Usage: critical
                Certificate Sign, CRL Sign
            X509v3 Basic Constraints: critical
                CA:TRUE
    Signature Algorithm: sha256WithRSAEncryption
         71:40:80:71:3e:ca:6d:b4:47:e5:e8:c0:66:3f:80:83:68:ef:
         9f:6f:3e:01:91:a8:87:23:01:b8:ac:1b:63:d4:97:ea:93:5f:
         69:31:fc:15:1a:3d:a0:b8:e7:31:ef:c3:c8:a7:07:12:bc:14:
         e7:fb:0f:8e:da:58:fd:63:89:8f:eb:5e:6e:27:1e:f0:18:90:
         83:b8:d2:6c:7c:a9:bf:5e:88:48:fd:4f:84:83:a0:54:33:03:
         a2:38:ca:de:e2:14:d8:f4:d4:d8:aa:90:46:ba:56:1b:54:9c:
         99:51:9f:41:50:6d:89:20:81:9a:a3:6f:2b:a0:43:08:71:be:
         40:b9:81:53:cd:7a:f3:33:52:d3:4d:c9:cb:81:49:04:90:6b:
         8a:19:ed:05:a7:a9:57:0a:77:12:b6:21:02:f5:19:5d:69:89:
         e3:61:f4:3a:ed:15:2f:f6:c0:a0:1a:76:30:fe:5f:77:43:95:
         6e:19:a0:a3:a2:1f:e7:47:48:26:68:48:4a:85:21:33:f0:ae:
         1b:b9:57:25:ff:85:17:38:9d:8a:eb:ac:36:4d:df:5c:1e:d1:
         42:34:9c:cd:6d:b2:28:df:3b:44:05:f4:0b:c3:6e:ea:7f:3d:
         e7:38:38:61:6e:05:73:7e:00:19:94:df:ae:cd:bb:88:31:7a:
         2b:bb:ae:d7
-----BEGIN CERTIFICATE-----
MIIDeDCCAmCgAwIBAgIUQgPeVlNN31Ny3G16aNpemnr74xEwDQYJKoZIhvcNAQEL
BQAwDzENMAsGA1UEAwwEUm9vdDAeFw0yMDExMDMxMjAwMDBaFw0yMTExMDMxMjAw
MDBaMA8xDTALBgNVBAMMBFJvb3QwggEiMA0GCSqGSIb3DQEBAQUAA4IBDwAwggEK
AoIBAQDUriZQxazhfredICQ8tV0APp4gA5NB7XDnzKePZ0gceUG04eN85jUxdENh
zHotFbMc/qF1HoJuOTAQOXzCo4TqmbaeP85BRp9DA9CKCrT75+wFt3MfxQaFDRNB
1fg7uPBlLpOIn8H4gdzHOFDL/sbL3W05xE5AmmRPp3L8mM25SzKZDg8zLrYugPLk
UbsU5GdDVC+oHsNLT0zdSt+EHunnUL+DLqY4psnYYJiUtlxLHoDEOTIRXq5NxKwQ
vs3+o5w4LlW+D5LLBofQo9T4oufKBcBBkaS5k9r9OD/OwkUrBtrUkVPojsLDOcHG
3f9B+pRmw8nuauKRrK1CXnrUikOfAgMBAAGjgcswgcgwHQYDVR0OBBYEFHkZfNZi
fbTY6G580+nHLz3yskCjMB8GA1UdIwQYMBaAFHkZfNZifbTY6G580+nHLz3yskCj
MDcGCCsGAQUFBwEBBCswKTAnBggrBgEFBQcwAoYbaHR0cDovL3VybC1mb3ItYWlh
L1Jvb3QuY2VyMCwGA1UdHwQlMCMwIaAfoB2GG2h0dHA6Ly91cmwtZm9yLWNybC9S
b290LmNybDAOBgNVHQ8BAf8EBAMCAQYwDwYDVR0TAQH/BAUwAwEB/zANBgkqhkiG
9w0BAQsFAAOCAQEAcUCAcT7KbbRH5ejAZj+Ag2jvn28+AZGohyMBuKwbY9SX6pNf
aTH8FRo9oLjnMe/DyKcHErwU5/sPjtpY/WOJj+tebice8BiQg7jSbHypv16ISP1P
hIOgVDMDojjK3uIU2PTU2KqQRrpWG1ScmVGfQVBtiSCBmqNvK6BDCHG+QLmBU816
8zNS003Jy4FJBJBrihntBaepVwp3ErYhAvUZXWmJ42H0Ou0VL/bAoBp2MP5fd0OV
bhmgo6If50dIJmhISoUhM/CuG7lXJf+FFzidiuusNk3fXB7RQjSczW2yKN87RAX0
C8Nu6n895zg4YW4Fc34AGZTfrs27iDF6K7uu1w==
-----END CERTIFICATE-----
