[Created by: generate-chains.py]

Certificate chain where the intermediate has an unknown critical
extension.

Certificate:
    Data:
        Version: 3 (0x2)
        Serial Number:
            73:54:1e:c7:2c:6e:fe:21:b3:a1:00:b5:73:46:4d:6e:2f:ca:28:8a
        Signature Algorithm: sha256WithRSAEncryption
        Issuer: CN=Intermediate
        Validity
            Not Before: Oct  5 12:00:00 2022 GMT
            Not After : Oct  5 12:00:00 2023 GMT
        Subject: CN=Target
        Subject Public Key Info:
            Public Key Algorithm: rsaEncryption
                Public-Key: (2048 bit)
                Modulus:
                    00:e4:56:5a:78:c6:79:63:15:7a:a6:5b:ac:09:02:
                    26:d7:10:40:e3:ea:55:dc:1c:86:37:cd:9a:0c:7d:
                    6c:5a:1f:d0:58:25:72:48:c5:7f:ae:7c:eb:9c:a6:
                    e8:45:7c:f5:00:36:16:a9:00:f9:8e:8a:df:70:2c:
                    bb:30:6c:74:6a:c7:30:69:a5:2c:1d:77:3f:b0:fa:
                    89:e0:cb:07:39:ac:08:59:aa:4c:63:cc:62:fa:a9:
                    8c:19:27:61:2d:0d:97:98:ad:50:b8:b9:e2:5a:21:
                    c1:70:cd:e7:2a:ad:6a:68:1f:52:bc:8c:80:f5:51:
                    a6:f1:3f:47:c7:50:81:27:e5:15:37:48:4f:4b:c3:
                    1b:e9:01:b9:97:56:8b:b9:56:38:62:d0:c5:ca:52:
                    21:6b:2d:42:03:7a:d9:83:d3:cd:57:b4:8c:ca:a5:
                    91:bf:3f:e2:26:df:85:e6:6c:2c:80:56:26:21:95:
                    be:cf:a4:85:cf:5e:e4:18:05:e7:68:99:91:67:6d:
                    e3:16:92:c9:df:9f:89:3f:ae:ee:ee:a8:43:69:f6:
                    6b:92:5d:72:6b:bd:53:1c:4e:25:23:4f:ee:5a:ab:
                    3f:ba:01:42:94:02:db:cb:59:93:bb:b9:2a:ea:ad:
                    5a:17:26:84:67:99:05:98:f0:b1:3c:e0:a4:2b:17:
                    ea:19
                Exponent: 65537 (0x10001)
        X509v3 extensions:
            X509v3 Subject Key Identifier: 
                F7:35:7C:CD:CE:17:42:80:4E:A2:57:94:36:6B:2A:70:19:25:20:CD
            X509v3 Authority Key Identifier: 
                B7:0A:76:64:C2:EB:6F:75:8D:EE:42:82:82:B5:AE:9C:7B:B8:23:29
            Authority Information Access: 
                CA Issuers - URI:http://url-for-aia/Intermediate.cer
            X509v3 CRL Distribution Points: 
                Full Name:
                  URI:http://url-for-crl/Intermediate.crl
            X509v3 Key Usage: critical
                Digital Signature, Key Encipherment
            X509v3 Extended Key Usage: 
                TLS Web Server Authentication, TLS Web Client Authentication
    Signature Algorithm: sha256WithRSAEncryption
    Signature Value:
        52:1e:77:93:ed:92:87:d1:9b:4f:f3:5e:bd:dd:4e:fc:d7:e4:
        eb:55:25:a7:0a:8f:a7:33:f8:60:c6:7a:14:f1:14:7c:80:3b:
        ca:23:21:0d:af:68:c1:5f:78:00:eb:2f:77:a0:b4:1a:5b:be:
        8b:63:55:7a:22:ed:26:4e:9e:86:57:95:f3:ce:eb:66:62:06:
        a0:57:37:b7:b9:e6:c5:1b:9c:af:46:52:76:d8:10:c0:40:74:
        21:72:13:c7:6f:c0:a7:ca:16:c1:ab:b5:f8:c7:52:60:b5:f8:
        ec:57:64:db:74:2b:db:ed:96:8f:c1:05:38:89:84:80:82:06:
        22:47:42:57:15:c0:ee:d7:6f:58:ff:4b:74:6d:56:96:71:f5:
        aa:c7:57:a6:bb:cd:9c:0e:42:ad:7f:9d:7b:12:d7:fa:8d:17:
        0c:dd:bc:eb:62:ed:d1:ff:2b:6a:a9:64:19:9e:48:fd:d9:db:
        4f:24:bb:1b:ba:40:c8:71:00:9b:8c:f2:54:98:7d:a1:c1:c4:
        90:f8:e2:78:ab:f6:d5:bb:75:30:12:c4:74:ed:e0:b0:2d:9b:
        54:8c:8b:9d:ac:4e:cb:1a:c6:6a:29:10:5d:4f:16:ad:31:02:
        0b:2a:8f:d4:9f:70:c8:5d:4c:40:67:3a:95:be:94:06:b8:21:
        19:2d:5a:64
-----BEGIN CERTIFICATE-----
MIIDoDCCAoigAwIBAgIUc1Qexyxu/iGzoQC1c0ZNbi/KKIowDQYJKoZIhvcNAQEL
BQAwFzEVMBMGA1UEAwwMSW50ZXJtZWRpYXRlMB4XDTIyMTAwNTEyMDAwMFoXDTIz
MTAwNTEyMDAwMFowETEPMA0GA1UEAwwGVGFyZ2V0MIIBIjANBgkqhkiG9w0BAQEF
AAOCAQ8AMIIBCgKCAQEA5FZaeMZ5YxV6plusCQIm1xBA4+pV3ByGN82aDH1sWh/Q
WCVySMV/rnzrnKboRXz1ADYWqQD5jorfcCy7MGx0ascwaaUsHXc/sPqJ4MsHOawI
WapMY8xi+qmMGSdhLQ2XmK1QuLniWiHBcM3nKq1qaB9SvIyA9VGm8T9Hx1CBJ+UV
N0hPS8Mb6QG5l1aLuVY4YtDFylIhay1CA3rZg9PNV7SMyqWRvz/iJt+F5mwsgFYm
IZW+z6SFz17kGAXnaJmRZ23jFpLJ35+JP67u7qhDafZrkl1ya71THE4lI0/uWqs/
ugFClALby1mTu7kq6q1aFyaEZ5kFmPCxPOCkKxfqGQIDAQABo4HpMIHmMB0GA1Ud
DgQWBBT3NXzNzhdCgE6iV5Q2aypwGSUgzTAfBgNVHSMEGDAWgBS3CnZkwutvdY3u
QoKCta6ce7gjKTA/BggrBgEFBQcBAQQzMDEwLwYIKwYBBQUHMAKGI2h0dHA6Ly91
cmwtZm9yLWFpYS9JbnRlcm1lZGlhdGUuY2VyMDQGA1UdHwQtMCswKaAnoCWGI2h0
dHA6Ly91cmwtZm9yLWNybC9JbnRlcm1lZGlhdGUuY3JsMA4GA1UdDwEB/wQEAwIF
oDAdBgNVHSUEFjAUBggrBgEFBQcDAQYIKwYBBQUHAwIwDQYJKoZIhvcNAQELBQAD
ggEBAFIed5PtkofRm0/zXr3dTvzX5OtVJacKj6cz+GDGehTxFHyAO8ojIQ2vaMFf
eADrL3egtBpbvotjVXoi7SZOnoZXlfPO62ZiBqBXN7e55sUbnK9GUnbYEMBAdCFy
E8dvwKfKFsGrtfjHUmC1+OxXZNt0K9vtlo/BBTiJhICCBiJHQlcVwO7Xb1j/S3Rt
VpZx9arHV6a7zZwOQq1/nXsS1/qNFwzdvOti7dH/K2qpZBmeSP3Z208kuxu6QMhx
AJuM8lSYfaHBxJD44nir9tW7dTASxHTt4LAtm1SMi52sTssaxmopEF1PFq0xAgsq
j9SfcMhdTEBnOpW+lAa4IRktWmQ=
-----END CERTIFICATE-----

Certificate:
    Data:
        Version: 3 (0x2)
        Serial Number:
            42:03:de:56:53:4d:df:53:72:dc:6d:7a:68:da:5e:9a:7a:fb:e3:12
        Signature Algorithm: sha256WithRSAEncryption
        Issuer: CN=Root
        Validity
            Not Before: Oct  5 12:00:00 2022 GMT
            Not After : Oct  5 12:00:00 2023 GMT
        Subject: CN=Intermediate
        Subject Public Key Info:
            Public Key Algorithm: rsaEncryption
                Public-Key: (2048 bit)
                Modulus:
                    00:af:53:c1:dc:ae:32:12:ba:12:d0:12:d6:5e:18:
                    4a:ca:26:ef:e5:b8:b4:b0:9e:f0:6f:99:7d:d7:f5:
                    c5:2c:e3:3a:d0:61:35:51:a0:ea:eb:76:02:27:9a:
                    7e:19:b7:3f:9c:09:ee:e9:5d:60:64:82:19:94:74:
                    a2:b6:04:6b:ba:dd:51:c2:33:6c:9a:b9:eb:91:b9:
                    3a:07:6d:9e:36:3e:17:b7:38:27:1e:11:1e:06:35:
                    50:4c:02:11:48:17:28:87:14:0f:d7:28:65:4f:12:
                    80:da:4f:74:36:63:de:50:97:2e:68:dc:82:bb:f1:
                    c0:6a:60:34:1f:86:2d:61:13:0e:39:9e:14:d8:ba:
                    df:55:8d:bb:7b:38:77:85:d8:37:52:97:20:c2:12:
                    01:f0:e1:40:25:70:76:f4:89:5f:50:15:77:f9:74:
                    e9:53:e0:31:b8:e0:a7:f1:22:72:76:b1:07:13:b5:
                    e9:a8:f5:bf:29:0f:1f:95:bd:a1:79:74:56:7e:ba:
                    28:18:aa:20:8a:af:7b:ae:cc:cd:55:b2:8b:b4:f3:
                    5e:f2:bf:2e:09:9b:6a:b8:26:bf:79:58:c4:ca:2f:
                    fa:e0:28:7d:f7:85:71:c3:c2:03:b0:47:b9:11:d5:
                    4f:dc:5c:31:78:06:0b:06:09:bc:ae:95:0d:ee:71:
                    02:23
                Exponent: 65537 (0x10001)
        X509v3 extensions:
            X509v3 Subject Key Identifier: 
                B7:0A:76:64:C2:EB:6F:75:8D:EE:42:82:82:B5:AE:9C:7B:B8:23:29
            X509v3 Authority Key Identifier: 
                79:19:7C:D6:62:7D:B4:D8:E8:6E:7C:D3:E9:C7:2F:3D:F2:B2:40:A3
            Authority Information Access: 
                CA Issuers - URI:http://url-for-aia/Root.cer
            X509v3 CRL Distribution Points: 
                Full Name:
                  URI:http://url-for-crl/Root.crl
            X509v3 Key Usage: critical
                Certificate Sign, CRL Sign
            X509v3 Basic Constraints: critical
                CA:TRUE
            1.2.3.4: critical
                ....
    Signature Algorithm: sha256WithRSAEncryption
    Signature Value:
        8b:9f:e1:53:7e:1a:9a:a3:f5:0d:7f:c7:b7:54:cd:1d:9a:0f:
        fe:fe:30:fa:02:85:64:d4:24:03:48:73:a7:f1:d0:58:39:bb:
        aa:b9:4d:18:4b:5e:7c:91:a4:42:02:47:5f:c1:cb:e4:cd:1a:
        27:56:48:aa:78:e0:c4:57:5a:6b:6f:34:70:59:a0:0d:41:a7:
        c9:a7:ed:7c:9c:21:d5:8a:3a:75:11:b6:1b:a7:ec:7a:05:0b:
        96:04:6a:c8:87:66:d7:0b:6e:bc:40:2f:dc:2e:96:a1:07:f3:
        b5:7f:9d:63:ae:ab:cd:b1:cf:34:e3:79:76:af:72:99:98:ba:
        ef:0f:ce:06:f6:f3:94:1a:87:b8:be:5d:cc:2d:91:fe:4a:c9:
        4e:34:4b:4c:7f:55:33:01:e3:3c:3a:da:55:17:f3:26:26:8f:
        50:50:70:42:91:bb:04:d3:cc:14:d8:12:cc:f0:75:a7:50:6d:
        ea:6e:a9:b1:43:01:30:30:d5:27:6b:9e:21:e2:78:68:1c:f1:
        2a:af:fc:91:fa:f0:81:aa:c9:41:b4:f3:16:31:ba:3b:b2:ae:
        1d:f1:9e:b9:e2:a9:f6:64:28:a3:ff:b2:ab:bb:9c:ea:2c:99:
        16:6d:a6:ce:47:ac:a1:c1:9e:08:aa:24:02:2f:d4:45:47:87:
        2b:f5:30:10
-----BEGIN CERTIFICATE-----
MIIDkDCCAnigAwIBAgIUQgPeVlNN31Ny3G16aNpemnr74xIwDQYJKoZIhvcNAQEL
BQAwDzENMAsGA1UEAwwEUm9vdDAeFw0yMjEwMDUxMjAwMDBaFw0yMzEwMDUxMjAw
MDBaMBcxFTATBgNVBAMMDEludGVybWVkaWF0ZTCCASIwDQYJKoZIhvcNAQEBBQAD
ggEPADCCAQoCggEBAK9TwdyuMhK6EtAS1l4YSsom7+W4tLCe8G+Zfdf1xSzjOtBh
NVGg6ut2Aieafhm3P5wJ7uldYGSCGZR0orYEa7rdUcIzbJq565G5OgdtnjY+F7c4
Jx4RHgY1UEwCEUgXKIcUD9coZU8SgNpPdDZj3lCXLmjcgrvxwGpgNB+GLWETDjme
FNi631WNu3s4d4XYN1KXIMISAfDhQCVwdvSJX1AVd/l06VPgMbjgp/EicnaxBxO1
6aj1vykPH5W9oXl0Vn66KBiqIIqve67MzVWyi7TzXvK/Lgmbargmv3lYxMov+uAo
ffeFccPCA7BHuRHVT9xcMXgGCwYJvK6VDe5xAiMCAwEAAaOB2zCB2DAdBgNVHQ4E
FgQUtwp2ZMLrb3WN7kKCgrWunHu4IykwHwYDVR0jBBgwFoAUeRl81mJ9tNjobnzT
6ccvPfKyQKMwNwYIKwYBBQUHAQEEKzApMCcGCCsGAQUFBzAChhtodHRwOi8vdXJs
LWZvci1haWEvUm9vdC5jZXIwLAYDVR0fBCUwIzAhoB+gHYYbaHR0cDovL3VybC1m
b3ItY3JsL1Jvb3QuY3JsMA4GA1UdDwEB/wQEAwIBBjAPBgNVHRMBAf8EBTADAQH/
MA4GAyoDBAEB/wQEAQIDBDANBgkqhkiG9w0BAQsFAAOCAQEAi5/hU34amqP1DX/H
t1TNHZoP/v4w+gKFZNQkA0hzp/HQWDm7qrlNGEtefJGkQgJHX8HL5M0aJ1ZIqnjg
xFdaa280cFmgDUGnyaftfJwh1Yo6dRG2G6fsegULlgRqyIdm1wtuvEAv3C6WoQfz
tX+dY66rzbHPNON5dq9ymZi67w/OBvbzlBqHuL5dzC2R/krJTjRLTH9VMwHjPDra
VRfzJiaPUFBwQpG7BNPMFNgSzPB1p1Bt6m6psUMBMDDVJ2ueIeJ4aBzxKq/8kfrw
garJQbTzFjG6O7KuHfGeueKp9mQoo/+yq7uc6iyZFm2mzkesocGeCKokAi/URUeH
K/UwEA==
-----END CERTIFICATE-----

Certificate:
    Data:
        Version: 3 (0x2)
        Serial Number:
            42:03:de:56:53:4d:df:53:72:dc:6d:7a:68:da:5e:9a:7a:fb:e3:11
        Signature Algorithm: sha256WithRSAEncryption
        Issuer: CN=Root
        Validity
            Not Before: Oct  5 12:00:00 2022 GMT
            Not After : Oct  5 12:00:00 2023 GMT
        Subject: CN=Root
        Subject Public Key Info:
            Public Key Algorithm: rsaEncryption
                Public-Key: (2048 bit)
                Modulus:
                    00:d4:ae:26:50:c5:ac:e1:7e:b7:9d:20:24:3c:b5:
                    5d:00:3e:9e:20:03:93:41:ed:70:e7:cc:a7:8f:67:
                    48:1c:79:41:b4:e1:e3:7c:e6:35:31:74:43:61:cc:
                    7a:2d:15:b3:1c:fe:a1:75:1e:82:6e:39:30:10:39:
                    7c:c2:a3:84:ea:99:b6:9e:3f:ce:41:46:9f:43:03:
                    d0:8a:0a:b4:fb:e7:ec:05:b7:73:1f:c5:06:85:0d:
                    13:41:d5:f8:3b:b8:f0:65:2e:93:88:9f:c1:f8:81:
                    dc:c7:38:50:cb:fe:c6:cb:dd:6d:39:c4:4e:40:9a:
                    64:4f:a7:72:fc:98:cd:b9:4b:32:99:0e:0f:33:2e:
                    b6:2e:80:f2:e4:51:bb:14:e4:67:43:54:2f:a8:1e:
                    c3:4b:4f:4c:dd:4a:df:84:1e:e9:e7:50:bf:83:2e:
                    a6:38:a6:c9:d8:60:98:94:b6:5c:4b:1e:80:c4:39:
                    32:11:5e:ae:4d:c4:ac:10:be:cd:fe:a3:9c:38:2e:
                    55:be:0f:92:cb:06:87:d0:a3:d4:f8:a2:e7:ca:05:
                    c0:41:91:a4:b9:93:da:fd:38:3f:ce:c2:45:2b:06:
                    da:d4:91:53:e8:8e:c2:c3:39:c1:c6:dd:ff:41:fa:
                    94:66:c3:c9:ee:6a:e2:91:ac:ad:42:5e:7a:d4:8a:
                    43:9f
                Exponent: 65537 (0x10001)
        X509v3 extensions:
            X509v3 Subject Key Identifier: 
                79:19:7C:D6:62:7D:B4:D8:E8:6E:7C:D3:E9:C7:2F:3D:F2:B2:40:A3
            X509v3 Authority Key Identifier: 
                79:19:7C:D6:62:7D:B4:D8:E8:6E:7C:D3:E9:C7:2F:3D:F2:B2:40:A3
            Authority Information Access: 
                CA Issuers - URI:http://url-for-aia/Root.cer
            X509v3 CRL Distribution Points: 
                Full Name:
                  URI:http://url-for-crl/Root.crl
            X509v3 Key Usage: critical
                Certificate Sign, CRL Sign
            X509v3 Basic Constraints: critical
                CA:TRUE
    Signature Algorithm: sha256WithRSAEncryption
    Signature Value:
        a4:cd:d4:26:02:f9:c6:0e:49:9f:ca:50:8e:9b:c1:80:2c:68:
        ab:c1:ec:90:4f:d4:ee:fa:0d:c4:2c:2d:8a:a5:ac:bf:72:36:
        03:53:32:7a:9c:e6:49:47:af:d1:12:b5:4a:64:6f:cf:f1:98:
        50:7c:57:69:14:55:50:e7:db:2f:3b:ba:80:29:00:fd:fb:ec:
        10:df:97:e4:62:ac:4c:66:45:76:f2:b5:18:f5:4e:2f:c0:d2:
        b3:98:bf:b3:3d:b4:dd:98:16:fe:e3:9e:68:5a:36:94:83:a6:
        92:01:d9:70:d3:b9:b9:c5:bb:6c:55:17:8c:24:1c:15:fd:25:
        4c:c6:9b:f6:ed:c7:57:18:e9:39:76:42:fd:e3:ac:f9:51:7f:
        eb:8a:ff:a1:80:83:81:f0:2c:dd:37:1e:85:ab:e0:05:64:94:
        c1:8d:71:79:aa:4a:61:69:78:49:0f:c6:e4:d3:c2:d4:06:6f:
        4d:fc:36:78:b9:10:25:66:53:01:63:c2:bd:35:0e:04:9c:e7:
        5d:d6:16:95:6b:e3:da:7c:dd:a5:7e:45:f8:e0:cc:15:d2:30:
        63:b2:32:7a:2d:21:95:97:79:e8:a7:bc:d4:2c:6e:a3:07:94:
        99:b2:3e:93:8e:42:6f:d5:af:6f:32:eb:ff:14:53:e8:16:39:
        01:9c:d2:61
-----BEGIN CERTIFICATE-----
MIIDeDCCAmCgAwIBAgIUQgPeVlNN31Ny3G16aNpemnr74xEwDQYJKoZIhvcNAQEL
BQAwDzENMAsGA1UEAwwEUm9vdDAeFw0yMjEwMDUxMjAwMDBaFw0yMzEwMDUxMjAw
MDBaMA8xDTALBgNVBAMMBFJvb3QwggEiMA0GCSqGSIb3DQEBAQUAA4IBDwAwggEK
AoIBAQDUriZQxazhfredICQ8tV0APp4gA5NB7XDnzKePZ0gceUG04eN85jUxdENh
zHotFbMc/qF1HoJuOTAQOXzCo4TqmbaeP85BRp9DA9CKCrT75+wFt3MfxQaFDRNB
1fg7uPBlLpOIn8H4gdzHOFDL/sbL3W05xE5AmmRPp3L8mM25SzKZDg8zLrYugPLk
UbsU5GdDVC+oHsNLT0zdSt+EHunnUL+DLqY4psnYYJiUtlxLHoDEOTIRXq5NxKwQ
vs3+o5w4LlW+D5LLBofQo9T4oufKBcBBkaS5k9r9OD/OwkUrBtrUkVPojsLDOcHG
3f9B+pRmw8nuauKRrK1CXnrUikOfAgMBAAGjgcswgcgwHQYDVR0OBBYEFHkZfNZi
fbTY6G580+nHLz3yskCjMB8GA1UdIwQYMBaAFHkZfNZifbTY6G580+nHLz3yskCj
MDcGCCsGAQUFBwEBBCswKTAnBggrBgEFBQcwAoYbaHR0cDovL3VybC1mb3ItYWlh
L1Jvb3QuY2VyMCwGA1UdHwQlMCMwIaAfoB2GG2h0dHA6Ly91cmwtZm9yLWNybC9S
b290LmNybDAOBgNVHQ8BAf8EBAMCAQYwDwYDVR0TAQH/BAUwAwEB/zANBgkqhkiG
9w0BAQsFAAOCAQEApM3UJgL5xg5Jn8pQjpvBgCxoq8HskE/U7voNxCwtiqWsv3I2
A1MyepzmSUev0RK1SmRvz/GYUHxXaRRVUOfbLzu6gCkA/fvsEN+X5GKsTGZFdvK1
GPVOL8DSs5i/sz203ZgW/uOeaFo2lIOmkgHZcNO5ucW7bFUXjCQcFf0lTMab9u3H
VxjpOXZC/eOs+VF/64r/oYCDgfAs3TcehavgBWSUwY1xeapKYWl4SQ/G5NPC1AZv
Tfw2eLkQJWZTAWPCvTUOBJznXdYWlWvj2nzdpX5F+ODMFdIwY7Iyei0hlZd56Ke8
1CxuoweUmbI+k45Cb9WvbzLr/xRT6BY5AZzSYQ==
-----END CERTIFICATE-----
