Certificate:
    Data:
        Version: 3 (0x2)
        Serial Number:
            cf:95:70:1c:b6:6c:07:bb:a4:de:63:24:47:3b:4e:c8
        Signature Algorithm: sha256WithRSAEncryption
        Issuer: C=US, ST=California, L=Mountain View, O=Test CA, CN=Test Root CA
        Validity
            Not Before: Oct 30 00:00:00 2008 GMT
            Not After : Oct 29 00:00:00 2018 GMT
        Subject: C=US, ST=California, L=Mountain View, O=Test CA, CN=127.0.0.1
        Subject Public Key Info:
            Public Key Algorithm: rsaEncryption
                Public-Key: (2048 bit)
                Modulus:
                    00:96:6b:6b:71:c6:7f:61:ac:38:ce:8f:38:d4:a2:
                    34:7a:22:ef:79:d8:78:bc:45:db:19:59:26:a7:5b:
                    74:dd:38:2f:ed:ee:4d:9b:63:0c:7d:45:65:f2:43:
                    ce:56:5e:d6:dd:e9:be:26:8a:58:0c:a3:5d:c2:68:
                    ca:2b:19:b6:76:dd:2c:dd:84:46:0b:a0:fb:57:5a:
                    67:a9:49:43:2a:c8:43:d3:c3:b4:50:71:14:04:79:
                    ef:ec:c4:d1:1d:7f:d8:34:d1:60:50:bf:e2:d9:ee:
                    4c:fb:0e:cb:37:fd:6a:1c:ca:2f:07:11:d2:9c:2b:
                    35:0f:f4:90:16:37:79:df:b8:c2:ab:f6:59:31:6f:
                    11:7b:5a:ad:e5:5d:80:36:bc:2f:82:88:27:dc:e8:
                    c0:fa:1e:5a:4b:6b:14:12:4b:a9:28:08:11:81:7e:
                    49:14:d1:8a:29:57:6f:cf:7c:ba:f4:2f:60:cf:8e:
                    0e:13:71:2c:f0:b8:7d:8a:70:0f:f9:53:07:e4:a3:
                    12:92:12:18:ad:1b:27:cb:e1:b8:51:cc:22:47:de:
                    db:32:af:fc:84:79:23:7d:f9:64:5c:99:11:9b:67:
                    13:1b:d2:93:37:5d:27:7d:0c:29:30:54:c9:cf:27:
                    96:a8:81:a1:a2:1d:aa:94:c1:b4:eb:d5:55:dd:06:
                    d5:09
                Exponent: 65537 (0x10001)
        X509v3 extensions:
            X509v3 Basic Constraints: critical
                CA:FALSE
            X509v3 Subject Key Identifier: 
                9D:D9:68:F7:B7:E9:D5:09:13:1F:29:2A:FB:20:1E:D3:1E:2B:1B:72
            X509v3 Authority Key Identifier: 
                9B:26:0B:8A:98:A9:BB:1D:B9:1F:1C:E3:1A:40:33:ED:8E:17:88:AB
            X509v3 Extended Key Usage: 
                TLS Web Server Authentication, TLS Web Client Authentication
            X509v3 Subject Alternative Name: 
                IP Address:127.0.0.1
    Signature Algorithm: sha256WithRSAEncryption
    Signature Value:
        9a:e8:c4:2f:59:d5:ef:84:3c:59:8e:3c:cf:ff:c1:e4:42:f5:
        b6:3c:a4:f1:3c:e8:f2:9f:21:b1:54:60:fb:d7:57:6a:45:2c:
        45:5b:6c:f4:8d:50:ce:07:89:96:9f:6a:6c:70:d0:27:dc:e3:
        d3:8e:20:93:dd:fc:8d:01:70:34:e5:12:00:4c:b5:f1:7c:1a:
        5a:ff:a5:77:72:2e:f1:f5:72:41:17:c9:b3:24:64:8d:0a:73:
        b3:56:61:b0:4c:43:cd:b3:c2:35:93:7c:96:fd:8c:00:2a:06:
        78:49:b6:52:74:1f:c3:75:07:56:02:23:a5:1d:98:0a:50:0c:
        cd:09:5b:6b:7b:dd:9e:c1:9b:79:53:b8:de:f8:e8:83:89:2f:
        6e:fe:dc:e4:01:b4:c5:60:bf:53:f7:3e:67:20:18:65:7f:cf:
        d0:22:9b:26:3d:74:34:29:f9:4e:2b:00:f3:70:77:0f:f6:e4:
        eb:2e:96:da:b8:b6:88:8e:61:63:17:e1:66:dc:b5:af:31:d3:
        82:12:f9:81:25:ef:f0:41:ce:50:c3:c0:78:3c:c9:4b:4a:0a:
        a0:0d:2f:0f:61:12:5f:b3:e5:9f:56:2c:20:0b:b7:bf:da:30:
        25:83:22:65:78:ce:1c:d2:ac:b3:ec:ce:97:94:3a:88:ae:b7:
        42:9d:a7:d0
-----BEGIN CERTIFICATE-----
MIIDzzCCAregAwIBAgIRAM+VcBy2bAe7pN5jJEc7TsgwDQYJKoZIhvcNAQELBQAw
YzELMAkGA1UEBhMCVVMxEzARBgNVBAgMCkNhbGlmb3JuaWExFjAUBgNVBAcMDU1v
dW50YWluIFZpZXcxEDAOBgNVBAoMB1Rlc3QgQ0ExFTATBgNVBAMMDFRlc3QgUm9v
dCBDQTAeFw0wODEwMzAwMDAwMDBaFw0xODEwMjkwMDAwMDBaMGAxCzAJBgNVBAYT
AlVTMRMwEQYDVQQIDApDYWxpZm9ybmlhMRYwFAYDVQQHDA1Nb3VudGFpbiBWaWV3
MRAwDgYDVQQKDAdUZXN0IENBMRIwEAYDVQQDDAkxMjcuMC4wLjEwggEiMA0GCSqG
SIb3DQEBAQUAA4IBDwAwggEKAoIBAQCWa2txxn9hrDjOjzjUojR6Iu952Hi8RdsZ
WSanW3TdOC/t7k2bYwx9RWXyQ85WXtbd6b4milgMo13CaMorGbZ23SzdhEYLoPtX
WmepSUMqyEPTw7RQcRQEee/sxNEdf9g00WBQv+LZ7kz7Dss3/Wocyi8HEdKcKzUP
9JAWN3nfuMKr9lkxbxF7Wq3lXYA2vC+CiCfc6MD6HlpLaxQSS6koCBGBfkkU0Yop
V2/PfLr0L2DPjg4TcSzwuH2KcA/5UwfkoxKSEhitGyfL4bhRzCJH3tsyr/yEeSN9
+WRcmRGbZxMb0pM3XSd9DCkwVMnPJ5aogaGiHaqUwbTr1VXdBtUJAgMBAAGjgYAw
fjAMBgNVHRMBAf8EAjAAMB0GA1UdDgQWBBSd2Wj3t+nVCRMfKSr7IB7THisbcjAf
BgNVHSMEGDAWgBSbJguKmKm7HbkfHOMaQDPtjheIqzAdBgNVHSUEFjAUBggrBgEF
BQcDAQYIKwYBBQUHAwIwDwYDVR0RBAgwBocEfwAAATANBgkqhkiG9w0BAQsFAAOC
AQEAmujEL1nV74Q8WY48z//B5EL1tjyk8Tzo8p8hsVRg+9dXakUsRVts9I1QzgeJ
lp9qbHDQJ9zj044gk938jQFwNOUSAEy18XwaWv+ld3Iu8fVyQRfJsyRkjQpzs1Zh
sExDzbPCNZN8lv2MACoGeEm2UnQfw3UHVgIjpR2YClAMzQlba3vdnsGbeVO43vjo
g4kvbv7c5AG0xWC/U/c+ZyAYZX/P0CKbJj10NCn5TisA83B3D/bk6y6W2ri2iI5h
YxfhZty1rzHTghL5gSXv8EHOUMPAeDzJS0oKoA0vD2ESX7Pln1YsIAu3v9owJYMi
ZXjOHNKss+zOl5Q6iK63Qp2n0A==
-----END CERTIFICATE-----
