Certificate:
    Data:
        Version: 3 (0x2)
        Serial Number:
            12:f6:d9:f1:80:1b:50:9f:64:09:c8:ea:2f:16:33:ab
        Signature Algorithm: sha256WithRSAEncryption
        Issuer: C=US, ST=California, L=Mountain View, O=Test CA, CN=Test Root CA
        Validity
            Not Before: Oct 30 00:00:00 2008 GMT
            Not After : Oct 29 00:00:00 2018 GMT
        Subject: C=US, ST=California, L=Mountain View, O=Test CA, CN=127.0.0.1
        Subject Public Key Info:
            Public Key Algorithm: rsaEncryption
                RSA Public-Key: (2048 bit)
                Modulus:
                    00:e0:96:62:30:dc:5b:dc:c1:0a:c4:d8:b8:42:ed:
                    42:12:f4:36:5d:45:51:3b:82:b7:f8:51:d8:ea:19:
                    a0:a6:1c:94:37:70:fa:04:b7:58:43:05:c3:80:3d:
                    29:2d:57:88:d3:c5:d9:e5:aa:0c:4d:f9:ba:ae:33:
                    8e:b8:86:ef:10:0f:96:88:b5:55:af:c3:f8:10:cd:
                    42:c9:15:30:47:7e:f5:dd:8f:60:31:de:ba:2b:19:
                    40:3b:38:a6:fd:cb:32:77:fe:fb:66:6e:66:f0:94:
                    9b:f5:26:36:8a:10:0a:61:22:5c:4d:67:c9:ac:17:
                    5f:4b:68:e2:ef:47:01:99:ba:5c:6e:dd:45:78:d2:
                    24:e9:4c:71:54:32:88:bf:50:9c:b1:ff:43:1e:45:
                    35:36:7c:80:72:9d:47:67:02:af:4c:2c:a1:88:00:
                    79:1f:85:e5:0b:71:7e:cc:4e:ff:ca:5b:dd:f5:0d:
                    67:d6:b3:b0:3a:d1:1a:a0:ba:15:70:37:fc:73:0c:
                    a5:8f:fe:a7:01:2c:7f:1d:1c:c2:fb:ec:7d:9a:04:
                    b4:50:52:b3:5f:a1:a2:4a:02:82:28:ed:c8:82:0f:
                    eb:9a:9b:d1:36:ee:ae:81:dd:09:25:e6:26:a7:52:
                    6c:ad:f5:f9:bc:e1:a4:d8:f9:9e:74:10:76:e7:59:
                    19:47
                Exponent: 65537 (0x10001)
        X509v3 extensions:
            X509v3 Basic Constraints: critical
                CA:FALSE
            X509v3 Subject Key Identifier: 
                1D:47:C8:D6:D7:00:19:26:2B:07:15:39:57:22:36:5D:3D:ED:A7:55
            X509v3 Authority Key Identifier: 
                keyid:9B:26:0B:8A:98:A9:BB:1D:B9:1F:1C:E3:1A:40:33:ED:8E:17:88:AB

            X509v3 Extended Key Usage: 
                TLS Web Server Authentication, TLS Web Client Authentication
            X509v3 Subject Alternative Name: 
                IP Address:127.0.0.1
    Signature Algorithm: sha256WithRSAEncryption
         ac:1e:82:3a:6f:37:2a:fd:6e:a0:80:40:e8:ce:f1:5d:61:de:
         fe:36:d1:6d:f5:16:ed:e9:26:40:49:92:24:eb:17:f0:d8:6a:
         a1:96:76:68:dd:42:15:cc:c6:ea:c1:79:46:a5:17:1b:28:96:
         8e:ec:09:63:c1:96:d2:35:7c:92:1d:d0:d5:bd:22:15:16:19:
         c5:a4:68:63:89:46:24:2f:45:16:30:4e:ee:6b:e6:12:56:00:
         89:86:dd:2c:df:0f:d1:d9:37:f0:10:12:a3:e7:6b:8e:2d:34:
         d0:43:fa:44:b2:de:f7:c5:a8:1e:62:15:db:c0:94:05:9e:f9:
         fd:dd:41:79:09:89:83:bf:44:81:93:ea:41:f6:64:39:0d:cf:
         9d:0f:6a:1a:9c:15:ea:bf:5b:03:3e:d0:7d:e6:fc:02:18:8c:
         47:1c:4f:ca:08:e5:e1:c9:cb:e7:ce:46:49:d0:ab:8e:36:76:
         b0:32:12:61:55:56:3a:1e:f2:8d:7e:3a:fb:b9:a5:d6:14:61:
         29:26:a9:9d:6a:6e:0e:7f:03:57:0e:d0:4c:47:33:38:49:cd:
         71:c2:e4:96:37:ee:1e:c6:bd:b1:ed:cd:78:00:67:29:a0:cc:
         9c:22:61:15:5d:58:b2:08:c4:e5:0c:5a:dc:35:8f:17:ae:ef:
         d7:44:8c:eb
-----BEGIN CERTIFICATE-----
MIIDzjCCAragAwIBAgIQEvbZ8YAbUJ9kCcjqLxYzqzANBgkqhkiG9w0BAQsFADBj
MQswCQYDVQQGEwJVUzETMBEGA1UECAwKQ2FsaWZvcm5pYTEWMBQGA1UEBwwNTW91
bnRhaW4gVmlldzEQMA4GA1UECgwHVGVzdCBDQTEVMBMGA1UEAwwMVGVzdCBSb290
IENBMB4XDTA4MTAzMDAwMDAwMFoXDTE4MTAyOTAwMDAwMFowYDELMAkGA1UEBhMC
VVMxEzARBgNVBAgMCkNhbGlmb3JuaWExFjAUBgNVBAcMDU1vdW50YWluIFZpZXcx
EDAOBgNVBAoMB1Rlc3QgQ0ExEjAQBgNVBAMMCTEyNy4wLjAuMTCCASIwDQYJKoZI
hvcNAQEBBQADggEPADCCAQoCggEBAOCWYjDcW9zBCsTYuELtQhL0Nl1FUTuCt/hR
2OoZoKYclDdw+gS3WEMFw4A9KS1XiNPF2eWqDE35uq4zjriG7xAPloi1Va/D+BDN
QskVMEd+9d2PYDHeuisZQDs4pv3LMnf++2ZuZvCUm/UmNooQCmEiXE1nyawXX0to
4u9HAZm6XG7dRXjSJOlMcVQyiL9QnLH/Qx5FNTZ8gHKdR2cCr0wsoYgAeR+F5Qtx
fsxO/8pb3fUNZ9azsDrRGqC6FXA3/HMMpY/+pwEsfx0cwvvsfZoEtFBSs1+hokoC
gijtyIIP65qb0TburoHdCSXmJqdSbK31+bzhpNj5nnQQdudZGUcCAwEAAaOBgDB+
MAwGA1UdEwEB/wQCMAAwHQYDVR0OBBYEFB1HyNbXABkmKwcVOVciNl097adVMB8G
A1UdIwQYMBaAFJsmC4qYqbsduR8c4xpAM+2OF4irMB0GA1UdJQQWMBQGCCsGAQUF
BwMBBggrBgEFBQcDAjAPBgNVHREECDAGhwR/AAABMA0GCSqGSIb3DQEBCwUAA4IB
AQCsHoI6bzcq/W6ggEDozvFdYd7+NtFt9Rbt6SZASZIk6xfw2GqhlnZo3UIVzMbq
wXlGpRcbKJaO7AljwZbSNXySHdDVvSIVFhnFpGhjiUYkL0UWME7ua+YSVgCJht0s
3w/R2TfwEBKj52uOLTTQQ/pEst73xageYhXbwJQFnvn93UF5CYmDv0SBk+pB9mQ5
Dc+dD2oanBXqv1sDPtB95vwCGIxHHE/KCOXhycvnzkZJ0KuONnawMhJhVVY6HvKN
fjr7uaXWFGEpJqmdam4OfwNXDtBMRzM4Sc1xwuSWN+4exr2x7c14AGcpoMycImEV
XViyCMTlDFrcNY8Xru/XRIzr
-----END CERTIFICATE-----
