Certificate:
    Data:
        Version: 3 (0x2)
        Serial Number:
            b0:6b:93:92:e3:5c:8d:7e:ed:9d:c8:96:59:c5:c2:6f
        Signature Algorithm: sha256WithRSAEncryption
        Issuer: C=US, ST=California, L=Mountain View, O=Test CA, CN=Test Root CA
        Validity
            Not Before: Oct 30 00:00:00 2008 GMT
            Not After : Oct 29 00:00:00 2018 GMT
        Subject: C=US, ST=California, L=Mountain View, O=Test CA, CN=127.0.0.1
        Subject Public Key Info:
            Public Key Algorithm: rsaEncryption
                Public-Key: (2048 bit)
                Modulus:
                    00:c1:ea:65:cb:12:00:be:84:08:b3:8e:d0:cc:b0:
                    6c:cb:d7:22:2b:f8:f6:7c:e2:17:c9:fd:75:7b:52:
                    ce:57:24:36:2f:04:37:11:4a:9e:a0:f3:93:a9:5d:
                    5e:40:23:97:c1:d0:50:10:c7:7d:c6:3d:9e:e2:96:
                    fb:63:ee:66:91:f1:df:6c:5e:ec:9d:22:5c:76:34:
                    83:ed:ff:cc:f0:96:19:78:07:d2:e0:91:50:97:1e:
                    e7:af:94:19:3b:d8:00:d7:22:31:46:37:b2:56:19:
                    6e:31:48:ef:f8:d7:ae:d2:0c:50:22:6f:7d:ea:a7:
                    cc:a1:ff:40:6e:60:91:1f:88:c8:a3:b3:a3:a1:08:
                    67:7e:7e:c4:77:75:46:90:e9:d1:3b:2c:ed:cd:a9:
                    da:ff:8a:1e:ca:e4:ae:62:f2:a3:6b:e3:d8:50:4d:
                    45:d7:fa:d0:93:9d:21:3d:7f:ea:c8:ef:ab:d8:2a:
                    77:f1:84:98:2b:39:41:6c:72:4e:4f:0d:92:99:81:
                    fc:80:4b:94:79:61:69:7c:cf:96:fc:e6:fa:53:d5:
                    9e:60:3f:51:d4:2b:52:1c:02:19:80:ae:a5:fb:2f:
                    02:06:f2:70:95:d8:c6:4a:38:c8:78:4a:6e:a0:07:
                    cd:31:3b:8d:e0:1f:60:aa:c9:70:57:93:d2:4b:d4:
                    e8:3b
                Exponent: 65537 (0x10001)
        X509v3 extensions:
            X509v3 Basic Constraints: critical
                CA:FALSE
            X509v3 Subject Key Identifier: 
                9E:E1:B0:0F:6C:05:2E:6C:E6:37:0E:C9:A4:40:73:64:D5:E5:F6:13
            X509v3 Authority Key Identifier: 
                9B:26:0B:8A:98:A9:BB:1D:B9:1F:1C:E3:1A:40:33:ED:8E:17:88:AB
            X509v3 Extended Key Usage: 
                TLS Web Server Authentication, TLS Web Client Authentication
            X509v3 Subject Alternative Name: 
                IP Address:127.0.0.1
    Signature Algorithm: sha256WithRSAEncryption
    Signature Value:
        ad:41:57:17:1a:be:16:cd:fd:74:01:b2:f1:f6:8c:5f:ee:7f:
        e8:a0:fc:33:d5:9e:c0:40:5d:56:79:90:1f:a4:3f:56:2c:79:
        16:b8:9f:9a:17:77:9e:02:06:8c:d3:3e:fc:2e:0e:8c:13:f9:
        6c:d4:cc:1a:24:dc:04:b5:1a:45:57:c3:cf:13:04:97:51:fc:
        9b:ae:54:76:e6:24:c9:52:17:e9:24:36:ca:5f:7e:4d:13:f4:
        14:f3:09:6b:ef:59:2f:9d:94:43:50:64:81:b0:ab:52:60:f5:
        22:a9:2e:cf:a1:07:9b:52:e9:79:61:04:0d:2a:3f:5b:cb:32:
        32:b9:ce:00:74:b1:8a:85:b2:2d:99:42:45:d8:e5:2a:e3:d9:
        21:ff:26:5d:74:7d:f2:af:ae:28:02:0e:7a:36:70:5d:57:12:
        71:1c:12:b7:5f:27:ce:df:0a:db:51:fb:ce:fb:1c:41:8f:52:
        6d:e1:b9:69:a1:b9:7e:69:2a:85:1a:68:85:99:58:ec:ee:fd:
        2a:55:62:2a:38:06:fa:20:3c:e5:28:9c:b9:d6:93:fd:48:b2:
        15:24:e7:3e:84:7e:08:eb:1c:e8:47:cb:f7:e8:cc:7a:ed:79:
        0a:9c:6c:14:43:7f:92:56:bf:ed:b7:bd:89:bc:85:be:db:89:
        ca:38:91:7b
-----BEGIN CERTIFICATE-----
MIIDzzCCAregAwIBAgIRALBrk5LjXI1+7Z3IllnFwm8wDQYJKoZIhvcNAQELBQAw
YzELMAkGA1UEBhMCVVMxEzARBgNVBAgMCkNhbGlmb3JuaWExFjAUBgNVBAcMDU1v
dW50YWluIFZpZXcxEDAOBgNVBAoMB1Rlc3QgQ0ExFTATBgNVBAMMDFRlc3QgUm9v
dCBDQTAeFw0wODEwMzAwMDAwMDBaFw0xODEwMjkwMDAwMDBaMGAxCzAJBgNVBAYT
AlVTMRMwEQYDVQQIDApDYWxpZm9ybmlhMRYwFAYDVQQHDA1Nb3VudGFpbiBWaWV3
MRAwDgYDVQQKDAdUZXN0IENBMRIwEAYDVQQDDAkxMjcuMC4wLjEwggEiMA0GCSqG
SIb3DQEBAQUAA4IBDwAwggEKAoIBAQDB6mXLEgC+hAizjtDMsGzL1yIr+PZ84hfJ
/XV7Us5XJDYvBDcRSp6g85OpXV5AI5fB0FAQx33GPZ7ilvtj7maR8d9sXuydIlx2
NIPt/8zwlhl4B9LgkVCXHuevlBk72ADXIjFGN7JWGW4xSO/4167SDFAib33qp8yh
/0BuYJEfiMijs6OhCGd+fsR3dUaQ6dE7LO3Nqdr/ih7K5K5i8qNr49hQTUXX+tCT
nSE9f+rI76vYKnfxhJgrOUFsck5PDZKZgfyAS5R5YWl8z5b85vpT1Z5gP1HUK1Ic
AhmArqX7LwIG8nCV2MZKOMh4Sm6gB80xO43gH2CqyXBXk9JL1Og7AgMBAAGjgYAw
fjAMBgNVHRMBAf8EAjAAMB0GA1UdDgQWBBSe4bAPbAUubOY3DsmkQHNk1eX2EzAf
BgNVHSMEGDAWgBSbJguKmKm7HbkfHOMaQDPtjheIqzAdBgNVHSUEFjAUBggrBgEF
BQcDAQYIKwYBBQUHAwIwDwYDVR0RBAgwBocEfwAAATANBgkqhkiG9w0BAQsFAAOC
AQEArUFXFxq+Fs39dAGy8faMX+5/6KD8M9WewEBdVnmQH6Q/Vix5Frifmhd3ngIG
jNM+/C4OjBP5bNTMGiTcBLUaRVfDzxMEl1H8m65UduYkyVIX6SQ2yl9+TRP0FPMJ
a+9ZL52UQ1BkgbCrUmD1Iqkuz6EHm1LpeWEEDSo/W8syMrnOAHSxioWyLZlCRdjl
KuPZIf8mXXR98q+uKAIOejZwXVcScRwSt18nzt8K21H7zvscQY9SbeG5aaG5fmkq
hRpohZlY7O79KlViKjgG+iA85SicudaT/UiyFSTnPoR+COsc6EfL9+jMeu15Cpxs
FEN/kla/7be9ibyFvtuJyjiRew==
-----END CERTIFICATE-----
