Certificate:
    Data:
        Version: 3 (0x2)
        Serial Number:
            3e:2c:9d:be:b0:42:c8:cf:fc:99:42:d5:4d:41:6a:ac
        Signature Algorithm: sha256WithRSAEncryption
        Issuer: C=US, ST=California, L=Mountain View, O=Test CA, CN=Test Root CA
        Validity
            Not Before: Oct 30 00:00:00 2008 GMT
            Not After : Oct 29 00:00:00 2018 GMT
        Subject: C=US, ST=California, L=Mountain View, O=Test CA, CN=127.0.0.1
        Subject Public Key Info:
            Public Key Algorithm: rsaEncryption
                RSA Public-Key: (2048 bit)
                Modulus:
                    00:b1:03:36:49:f8:96:0d:64:a9:d6:36:4a:c8:24:
                    b7:5b:75:14:2e:ab:dc:e3:36:13:99:2b:15:b5:31:
                    f6:04:52:3a:c8:e7:f4:68:f6:ec:a9:28:c8:c5:4c:
                    16:6b:5a:a7:fc:ab:7a:52:d1:21:ce:a6:c3:86:b3:
                    8e:1d:c6:e5:98:49:ab:81:2d:6b:98:b4:89:78:2c:
                    c1:33:44:8f:a6:f4:18:69:1d:42:58:f6:cb:9b:42:
                    2b:05:5b:98:85:36:80:56:b7:3e:ff:09:72:d5:0e:
                    44:9e:38:e4:57:f9:d3:0c:b0:21:c3:49:80:63:10:
                    9e:33:b3:07:8a:a5:89:3c:58:f4:78:39:0c:d9:91:
                    4d:e1:a5:48:d1:e6:f2:7e:fe:d7:5a:e7:0f:1e:60:
                    0d:93:af:c4:d5:16:05:43:89:8a:85:ad:7d:74:e2:
                    61:f5:84:43:02:9a:89:f5:fc:56:b8:94:b4:56:ad:
                    d7:c2:71:a8:64:f2:c8:2c:7c:06:00:51:41:2d:ef:
                    b8:0e:e6:f0:77:61:af:b2:ac:1f:3d:82:3d:57:2c:
                    02:e4:ba:b6:11:cc:07:72:b1:a8:69:a5:d0:a6:d1:
                    4d:d5:76:4e:41:80:a6:d8:3e:aa:80:ad:a6:45:de:
                    8c:bb:83:b7:7f:a5:e9:8d:78:58:78:4a:4c:73:10:
                    20:b9
                Exponent: 65537 (0x10001)
        X509v3 extensions:
            X509v3 Basic Constraints: critical
                CA:FALSE
            X509v3 Subject Key Identifier: 
                24:53:64:B9:97:60:01:71:F1:EA:6F:82:9E:63:93:B6:C2:87:CC:72
            X509v3 Authority Key Identifier: 
                keyid:9B:26:0B:8A:98:A9:BB:1D:B9:1F:1C:E3:1A:40:33:ED:8E:17:88:AB

            X509v3 Extended Key Usage: 
                TLS Web Server Authentication, TLS Web Client Authentication
            X509v3 Subject Alternative Name: 
                IP Address:127.0.0.1
    Signature Algorithm: sha256WithRSAEncryption
         c5:32:68:ce:13:b6:f5:c3:9d:82:70:a3:b7:1b:0b:d0:4e:8c:
         2f:8d:1b:cb:6e:b9:66:32:a6:1f:3d:c8:b5:bb:b3:10:b9:6c:
         89:78:92:b5:e7:a8:ee:af:d0:8f:09:15:77:a0:45:cf:86:5f:
         f7:41:86:97:87:00:8d:e7:55:ea:29:77:95:ea:a5:08:6a:1e:
         3b:e2:cc:63:f2:23:a4:63:ab:dd:e0:ee:0b:6c:dc:d6:ed:9a:
         b2:84:a8:b8:0b:6a:9e:d9:78:1d:3f:56:75:ff:55:f8:7c:78:
         9a:88:73:31:64:b0:9b:36:67:7f:6e:5d:18:4b:ab:8d:67:06:
         43:91:19:76:df:f5:c7:4f:58:2a:56:19:f4:81:8a:6e:65:76:
         65:48:e1:3e:11:5b:88:6b:c0:46:b2:5e:79:4e:91:ff:94:d5:
         52:d5:63:66:08:99:2b:2a:7d:f4:f6:19:9c:33:00:ee:03:75:
         74:a9:72:90:c3:26:26:8f:d9:1e:f6:ed:ca:c1:a7:f1:c5:ce:
         12:ec:35:4d:45:db:87:01:d8:d5:31:56:35:5b:6f:9d:b8:18:
         b6:61:e8:3c:fb:fb:23:32:a5:62:25:50:61:80:1f:02:0a:28:
         62:78:92:89:58:8d:18:23:6d:7c:ee:93:55:aa:2d:5c:e8:72:
         f6:04:0a:9b
-----BEGIN CERTIFICATE-----
MIIDzjCCAragAwIBAgIQPiydvrBCyM/8mULVTUFqrDANBgkqhkiG9w0BAQsFADBj
MQswCQYDVQQGEwJVUzETMBEGA1UECAwKQ2FsaWZvcm5pYTEWMBQGA1UEBwwNTW91
bnRhaW4gVmlldzEQMA4GA1UECgwHVGVzdCBDQTEVMBMGA1UEAwwMVGVzdCBSb290
IENBMB4XDTA4MTAzMDAwMDAwMFoXDTE4MTAyOTAwMDAwMFowYDELMAkGA1UEBhMC
VVMxEzARBgNVBAgMCkNhbGlmb3JuaWExFjAUBgNVBAcMDU1vdW50YWluIFZpZXcx
EDAOBgNVBAoMB1Rlc3QgQ0ExEjAQBgNVBAMMCTEyNy4wLjAuMTCCASIwDQYJKoZI
hvcNAQEBBQADggEPADCCAQoCggEBALEDNkn4lg1kqdY2Ssgkt1t1FC6r3OM2E5kr
FbUx9gRSOsjn9Gj27KkoyMVMFmtap/yrelLRIc6mw4azjh3G5ZhJq4Eta5i0iXgs
wTNEj6b0GGkdQlj2y5tCKwVbmIU2gFa3Pv8JctUORJ445Ff50wywIcNJgGMQnjOz
B4qliTxY9Hg5DNmRTeGlSNHm8n7+11rnDx5gDZOvxNUWBUOJioWtfXTiYfWEQwKa
ifX8VriUtFat18JxqGTyyCx8BgBRQS3vuA7m8Hdhr7KsHz2CPVcsAuS6thHMB3Kx
qGml0KbRTdV2TkGAptg+qoCtpkXejLuDt3+l6Y14WHhKTHMQILkCAwEAAaOBgDB+
MAwGA1UdEwEB/wQCMAAwHQYDVR0OBBYEFCRTZLmXYAFx8epvgp5jk7bCh8xyMB8G
A1UdIwQYMBaAFJsmC4qYqbsduR8c4xpAM+2OF4irMB0GA1UdJQQWMBQGCCsGAQUF
BwMBBggrBgEFBQcDAjAPBgNVHREECDAGhwR/AAABMA0GCSqGSIb3DQEBCwUAA4IB
AQDFMmjOE7b1w52CcKO3GwvQTowvjRvLbrlmMqYfPci1u7MQuWyJeJK156jur9CP
CRV3oEXPhl/3QYaXhwCN51XqKXeV6qUIah474sxj8iOkY6vd4O4LbNzW7ZqyhKi4
C2qe2XgdP1Z1/1X4fHiaiHMxZLCbNmd/bl0YS6uNZwZDkRl23/XHT1gqVhn0gYpu
ZXZlSOE+EVuIa8BGsl55TpH/lNVS1WNmCJkrKn309hmcMwDuA3V0qXKQwyYmj9ke
9u3Kwafxxc4S7DVNRduHAdjVMVY1W2+duBi2Yeg8+/sjMqViJVBhgB8CCihieJKJ
WI0YI2187pNVqi1c6HL2BAqb
-----END CERTIFICATE-----
