Certificate:
    Data:
        Version: 3 (0x2)
        Serial Number:
            b0:6b:93:92:e3:5c:8d:7e:ed:9d:c8:96:59:c5:c2:70
        Signature Algorithm: sha256WithRSAEncryption
        Issuer: C=US, ST=California, L=Mountain View, O=Test CA, CN=Test Root CA
        Validity
            Not Before: Oct 30 00:00:00 2014 GMT
            Not After : Oct 30 00:00:00 2025 GMT
        Subject: C=US, ST=California, L=Mountain View, O=Test CA, CN=127.0.0.1
        Subject Public Key Info:
            Public Key Algorithm: rsaEncryption
                Public-Key: (2048 bit)
                Modulus:
                    00:9f:1f:36:a1:2e:5f:5a:92:b2:a7:41:8e:72:0f:
                    e5:c3:aa:1c:80:cf:b9:81:fc:e5:be:d5:80:9b:ee:
                    ae:c5:dc:69:d4:e4:e9:89:0a:1d:7a:f1:88:05:94:
                    56:f6:03:b7:8a:5d:6b:77:0b:23:53:0d:a0:0f:ba:
                    22:ee:70:9e:7e:f7:fb:76:27:94:9f:e6:13:c1:49:
                    bf:08:f1:5c:78:39:d0:22:33:00:f7:9c:55:58:d3:
                    e6:4d:8f:2b:90:26:f6:24:3f:40:8e:ee:04:01:64:
                    36:8b:63:3e:51:99:f2:bd:6e:8a:cb:77:9f:e5:e8:
                    25:46:ea:13:9c:3e:da:57:79:c1:fe:14:19:68:d2:
                    20:72:56:30:1b:f7:11:be:5f:0c:ce:5f:25:e3:28:
                    1d:bd:1d:50:5a:87:5f:f2:6d:e9:d6:76:0a:51:1c:
                    ed:29:c0:a3:39:42:fa:cb:77:f0:f2:03:07:d1:a6:
                    52:fe:63:42:d4:a5:b5:53:fa:e2:88:85:9a:3f:58:
                    5b:cf:5e:09:be:c4:08:72:5c:01:0c:ef:57:9f:a6:
                    b1:46:a0:52:43:ec:3c:4d:30:2c:64:37:07:4d:2b:
                    4e:d0:0c:d8:30:e4:88:cf:11:63:9e:3b:17:3b:67:
                    be:22:99:36:d6:8e:96:84:ed:1d:8c:45:40:8f:63:
                    91:15
                Exponent: 65537 (0x10001)
        X509v3 extensions:
            X509v3 Basic Constraints: critical
                CA:FALSE
            X509v3 Subject Key Identifier: 
                1C:D3:60:F9:10:20:E7:CD:03:D7:36:7B:EC:A5:7B:4D:CB:C4:F2:1A
            X509v3 Authority Key Identifier: 
                9B:26:0B:8A:98:A9:BB:1D:B9:1F:1C:E3:1A:40:33:ED:8E:17:88:AB
            X509v3 Extended Key Usage: 
                TLS Web Server Authentication, TLS Web Client Authentication
            X509v3 Subject Alternative Name: 
                IP Address:127.0.0.1
    Signature Algorithm: sha256WithRSAEncryption
    Signature Value:
        7c:16:35:6d:b3:80:02:dc:0f:c8:28:bb:44:52:8c:0b:9b:5c:
        c6:36:8b:ce:f9:de:ab:99:ca:f6:b1:d6:f5:b6:ef:af:b9:40:
        9c:ee:fb:98:d4:17:e2:18:15:5f:39:8f:e9:02:d5:5d:f6:c4:
        cb:bd:03:cb:54:3f:77:64:d8:fb:d4:60:b1:b9:9a:7d:b9:a0:
        1b:22:5f:2d:46:fa:f7:93:96:7e:13:ae:89:b1:68:c2:a5:e6:
        82:1f:af:08:67:36:d9:38:46:ef:33:3f:78:11:43:3b:04:9e:
        9a:68:97:a3:dd:29:73:6c:60:28:9d:d5:1a:ca:e3:20:39:b3:
        eb:aa:ff:09:9d:7b:bc:18:a9:97:e1:58:7f:6b:1c:3b:50:8e:
        4d:9c:25:8b:b0:26:34:5f:69:8b:04:56:7c:4d:d9:53:31:ea:
        c3:a2:30:20:4c:2a:8c:2f:f8:5b:b6:c2:3a:4f:b6:54:d7:6d:
        e5:21:f6:81:59:1b:f4:4d:82:30:c9:a4:ce:fe:c8:97:d0:fe:
        48:c1:2d:89:96:96:23:e5:37:83:01:40:24:6d:7c:ab:29:9e:
        75:e8:ba:c0:c6:4b:1d:85:06:87:83:cd:3b:ae:c8:c3:b3:a6:
        a8:77:54:b4:fb:32:42:22:b0:1d:08:ae:ba:a0:82:6a:56:db:
        4c:fd:05:ba
-----BEGIN CERTIFICATE-----
MIIDzzCCAregAwIBAgIRALBrk5LjXI1+7Z3IllnFwnAwDQYJKoZIhvcNAQELBQAw
YzELMAkGA1UEBhMCVVMxEzARBgNVBAgMCkNhbGlmb3JuaWExFjAUBgNVBAcMDU1v
dW50YWluIFZpZXcxEDAOBgNVBAoMB1Rlc3QgQ0ExFTATBgNVBAMMDFRlc3QgUm9v
dCBDQTAeFw0xNDEwMzAwMDAwMDBaFw0yNTEwMzAwMDAwMDBaMGAxCzAJBgNVBAYT
AlVTMRMwEQYDVQQIDApDYWxpZm9ybmlhMRYwFAYDVQQHDA1Nb3VudGFpbiBWaWV3
MRAwDgYDVQQKDAdUZXN0IENBMRIwEAYDVQQDDAkxMjcuMC4wLjEwggEiMA0GCSqG
SIb3DQEBAQUAA4IBDwAwggEKAoIBAQCfHzahLl9akrKnQY5yD+XDqhyAz7mB/OW+
1YCb7q7F3GnU5OmJCh168YgFlFb2A7eKXWt3CyNTDaAPuiLucJ5+9/t2J5Sf5hPB
Sb8I8Vx4OdAiMwD3nFVY0+ZNjyuQJvYkP0CO7gQBZDaLYz5RmfK9borLd5/l6CVG
6hOcPtpXecH+FBlo0iByVjAb9xG+XwzOXyXjKB29HVBah1/ybenWdgpRHO0pwKM5
QvrLd/DyAwfRplL+Y0LUpbVT+uKIhZo/WFvPXgm+xAhyXAEM71efprFGoFJD7DxN
MCxkNwdNK07QDNgw5IjPEWOeOxc7Z74imTbWjpaE7R2MRUCPY5EVAgMBAAGjgYAw
fjAMBgNVHRMBAf8EAjAAMB0GA1UdDgQWBBQc02D5ECDnzQPXNnvspXtNy8TyGjAf
BgNVHSMEGDAWgBSbJguKmKm7HbkfHOMaQDPtjheIqzAdBgNVHSUEFjAUBggrBgEF
BQcDAQYIKwYBBQUHAwIwDwYDVR0RBAgwBocEfwAAATANBgkqhkiG9w0BAQsFAAOC
AQEAfBY1bbOAAtwPyCi7RFKMC5tcxjaLzvneq5nK9rHW9bbvr7lAnO77mNQX4hgV
XzmP6QLVXfbEy70Dy1Q/d2TY+9RgsbmafbmgGyJfLUb695OWfhOuibFowqXmgh+v
CGc22ThG7zM/eBFDOwSemmiXo90pc2xgKJ3VGsrjIDmz66r/CZ17vBipl+FYf2sc
O1COTZwli7AmNF9piwRWfE3ZUzHqw6IwIEwqjC/4W7bCOk+2VNdt5SH2gVkb9E2C
MMmkzv7Il9D+SMEtiZaWI+U3gwFAJG18qymedei6wMZLHYUGh4PNO67Iw7OmqHdU
tPsyQiKwHQiuuqCCalbbTP0Fug==
-----END CERTIFICATE-----
