Certificate:
    Data:
        Version: 3 (0x2)
        Serial Number:
            cf:95:70:1c:b6:6c:07:bb:a4:de:63:24:47:3b:4e:c9
        Signature Algorithm: sha256WithRSAEncryption
        Issuer: C=US, ST=California, L=Mountain View, O=Test CA, CN=Test Root CA
        Validity
            Not Before: Oct 30 00:00:00 2014 GMT
            Not After : Oct 30 00:00:00 2025 GMT
        Subject: C=US, ST=California, L=Mountain View, O=Test CA, CN=127.0.0.1
        Subject Public Key Info:
            Public Key Algorithm: rsaEncryption
                Public-Key: (2048 bit)
                Modulus:
                    00:d5:ce:70:94:58:c0:4a:d6:6b:ca:1d:3d:6c:3b:
                    36:df:10:a1:7e:1d:cb:94:63:47:20:b9:87:60:49:
                    08:01:8d:d0:7e:3f:88:9e:01:8b:20:3f:a7:bc:ba:
                    c9:96:c5:a0:d7:97:7c:09:fd:ce:be:7a:8c:cb:b2:
                    c6:3b:76:c7:a6:66:93:80:ce:34:cb:e0:5b:9c:fc:
                    65:c9:93:5a:11:f5:a0:e7:30:2c:5d:0e:16:f9:0d:
                    a3:10:80:4c:69:81:ae:cf:94:ed:fa:44:4b:33:ee:
                    29:ab:0a:de:b8:89:90:ad:26:34:5a:d9:e6:86:40:
                    34:be:82:c5:55:8c:b4:ae:96:1d:de:11:2c:23:69:
                    7f:8d:52:d4:74:b3:bf:a3:e9:b6:50:34:75:08:4b:
                    7a:a6:4e:3d:7e:87:ef:d5:79:61:e6:3b:d7:38:7f:
                    9d:7e:ed:ef:cd:6f:0f:a4:51:06:89:fa:32:30:42:
                    fb:7c:9b:ca:c6:b8:ad:1e:6a:68:f1:ba:91:69:69:
                    14:b4:f9:f9:49:cf:78:2a:f6:c4:9c:95:3d:2a:99:
                    81:89:11:3f:70:bf:97:a6:ec:d2:9a:1e:47:88:3d:
                    17:e3:aa:1d:c2:4f:38:0b:30:39:17:05:3f:f1:cd:
                    12:01:62:14:53:10:ce:c3:c1:f7:41:39:7d:aa:58:
                    5a:61
                Exponent: 65537 (0x10001)
        X509v3 extensions:
            X509v3 Basic Constraints: critical
                CA:FALSE
            X509v3 Subject Key Identifier: 
                C4:99:74:39:95:27:17:E2:0B:38:9E:15:3D:9B:58:43:86:BD:E6:C6
            X509v3 Authority Key Identifier: 
                9B:26:0B:8A:98:A9:BB:1D:B9:1F:1C:E3:1A:40:33:ED:8E:17:88:AB
            X509v3 Extended Key Usage: 
                TLS Web Server Authentication, TLS Web Client Authentication
            X509v3 Subject Alternative Name: 
                IP Address:127.0.0.1
    Signature Algorithm: sha256WithRSAEncryption
    Signature Value:
        1b:34:3e:27:04:c9:34:63:14:e3:f9:84:c7:84:e6:0e:70:7d:
        2a:ed:6e:be:af:14:a3:b4:8a:c2:3a:12:59:1f:98:91:a5:9b:
        45:30:c1:74:61:55:b0:46:0d:37:39:c3:28:e9:35:91:e6:97:
        fb:0a:cd:b1:3d:77:35:07:6d:52:a4:98:dc:07:dc:ab:da:0a:
        73:b1:1c:5c:d9:3c:59:f4:1f:0a:24:93:58:29:39:bd:61:86:
        10:c9:c9:17:d9:33:9f:92:98:d7:03:ec:dd:7f:7c:44:0f:1b:
        43:c9:eb:cc:31:55:a4:84:67:c4:2b:93:a7:5c:72:66:e1:18:
        ec:98:e3:94:3a:6c:52:51:6b:0a:d9:1f:e0:2f:70:ae:8b:b1:
        cc:52:f9:10:d9:9d:be:2f:a7:7d:b9:d2:b6:8d:30:23:91:e4:
        89:06:4b:e9:75:1e:23:46:cc:9e:f0:fe:58:7f:02:db:2b:84:
        33:74:9b:40:9b:bb:6d:4b:3c:87:ab:78:f4:52:96:67:d4:f8:
        6c:63:a9:64:f9:df:67:e3:53:cd:ef:92:15:cf:20:06:8a:47:
        2e:ab:8b:d5:7f:22:0f:5d:4c:57:d7:81:4f:fa:05:f3:6f:20:
        33:d5:52:a3:2e:7e:4c:f6:13:61:51:6e:e6:6a:21:5d:5a:9b:
        1d:3e:27:aa
-----BEGIN CERTIFICATE-----
MIIDzzCCAregAwIBAgIRAM+VcBy2bAe7pN5jJEc7TskwDQYJKoZIhvcNAQELBQAw
YzELMAkGA1UEBhMCVVMxEzARBgNVBAgMCkNhbGlmb3JuaWExFjAUBgNVBAcMDU1v
dW50YWluIFZpZXcxEDAOBgNVBAoMB1Rlc3QgQ0ExFTATBgNVBAMMDFRlc3QgUm9v
dCBDQTAeFw0xNDEwMzAwMDAwMDBaFw0yNTEwMzAwMDAwMDBaMGAxCzAJBgNVBAYT
AlVTMRMwEQYDVQQIDApDYWxpZm9ybmlhMRYwFAYDVQQHDA1Nb3VudGFpbiBWaWV3
MRAwDgYDVQQKDAdUZXN0IENBMRIwEAYDVQQDDAkxMjcuMC4wLjEwggEiMA0GCSqG
SIb3DQEBAQUAA4IBDwAwggEKAoIBAQDVznCUWMBK1mvKHT1sOzbfEKF+HcuUY0cg
uYdgSQgBjdB+P4ieAYsgP6e8usmWxaDXl3wJ/c6+eozLssY7dsemZpOAzjTL4Fuc
/GXJk1oR9aDnMCxdDhb5DaMQgExpga7PlO36REsz7imrCt64iZCtJjRa2eaGQDS+
gsVVjLSulh3eESwjaX+NUtR0s7+j6bZQNHUIS3qmTj1+h+/VeWHmO9c4f51+7e/N
bw+kUQaJ+jIwQvt8m8rGuK0eamjxupFpaRS0+flJz3gq9sSclT0qmYGJET9wv5em
7NKaHkeIPRfjqh3CTzgLMDkXBT/xzRIBYhRTEM7DwfdBOX2qWFphAgMBAAGjgYAw
fjAMBgNVHRMBAf8EAjAAMB0GA1UdDgQWBBTEmXQ5lScX4gs4nhU9m1hDhr3mxjAf
BgNVHSMEGDAWgBSbJguKmKm7HbkfHOMaQDPtjheIqzAdBgNVHSUEFjAUBggrBgEF
BQcDAQYIKwYBBQUHAwIwDwYDVR0RBAgwBocEfwAAATANBgkqhkiG9w0BAQsFAAOC
AQEAGzQ+JwTJNGMU4/mEx4TmDnB9Ku1uvq8Uo7SKwjoSWR+YkaWbRTDBdGFVsEYN
NznDKOk1keaX+wrNsT13NQdtUqSY3Afcq9oKc7EcXNk8WfQfCiSTWCk5vWGGEMnJ
F9kzn5KY1wPs3X98RA8bQ8nrzDFVpIRnxCuTp1xyZuEY7JjjlDpsUlFrCtkf4C9w
rouxzFL5ENmdvi+nfbnSto0wI5HkiQZL6XUeI0bMnvD+WH8C2yuEM3SbQJu7bUs8
h6t49FKWZ9T4bGOpZPnfZ+NTze+SFc8gBopHLquL1X8iD11MV9eBT/oF828gM9VS
oy5+TPYTYVFu5mohXVqbHT4nqg==
-----END CERTIFICATE-----
