Certificate:
    Data:
        Version: 3 (0x2)
        Serial Number:
            12:f6:d9:f1:80:1b:50:9f:64:09:c8:ea:2f:16:33:ac
        Signature Algorithm: sha256WithRSAEncryption
        Issuer: C=US, ST=California, L=Mountain View, O=Test CA, CN=Test Root CA
        Validity
            Not Before: Oct 30 00:00:00 2014 GMT
            Not After : Oct 30 00:00:00 2025 GMT
        Subject: C=US, ST=California, L=Mountain View, O=Test CA, CN=127.0.0.1
        Subject Public Key Info:
            Public Key Algorithm: rsaEncryption
                RSA Public-Key: (2048 bit)
                Modulus:
                    00:a1:bd:9d:bd:4d:2c:4a:2f:b4:d6:62:a8:3f:3c:
                    7c:4b:de:57:a6:08:21:3d:98:9c:9e:89:e8:92:33:
                    3b:9d:28:58:2c:9e:e8:47:33:b7:d3:28:c3:4d:de:
                    35:1b:9e:a7:fa:1f:ef:63:69:4c:a7:43:ce:f8:ef:
                    7d:f6:af:c0:17:9a:72:1c:7f:d2:9b:bd:f2:31:15:
                    9b:d3:7a:28:14:41:52:7f:5c:3f:6f:ab:57:87:ab:
                    aa:7a:3f:aa:04:a4:4b:48:d6:9f:65:d0:8b:be:db:
                    03:e3:a0:b1:d1:41:11:8c:e5:17:e6:df:b3:e2:74:
                    be:d8:3f:d1:34:b7:04:9e:a1:33:f2:f1:69:b9:2a:
                    d2:b8:48:9d:34:c4:d5:cb:e6:db:50:8f:00:70:e9:
                    13:57:5b:ae:97:cc:f4:e5:da:ad:ad:5d:5a:37:95:
                    59:5d:af:ea:ee:3e:7d:07:a8:d0:6c:fe:66:db:06:
                    f3:c4:3e:16:46:be:8f:58:a8:8e:fc:d8:eb:93:ca:
                    83:dc:7c:68:b8:d8:70:29:6d:1b:9c:6b:be:d7:5e:
                    b3:0f:7c:99:16:4d:6a:80:dc:50:24:33:21:7c:1e:
                    d1:2d:28:e7:44:22:8d:79:d9:18:3c:1e:1c:fb:b7:
                    8d:3a:61:06:67:fc:f3:6d:10:c1:f5:c8:5d:58:4d:
                    29:27
                Exponent: 65537 (0x10001)
        X509v3 extensions:
            X509v3 Basic Constraints: critical
                CA:FALSE
            X509v3 Subject Key Identifier: 
                F7:E5:3C:2B:73:F5:A9:23:AE:D6:84:45:CE:D3:E5:E8:72:09:C8:4D
            X509v3 Authority Key Identifier: 
                keyid:9B:26:0B:8A:98:A9:BB:1D:B9:1F:1C:E3:1A:40:33:ED:8E:17:88:AB

            X509v3 Extended Key Usage: 
                TLS Web Server Authentication, TLS Web Client Authentication
            X509v3 Subject Alternative Name: 
                IP Address:127.0.0.1
    Signature Algorithm: sha256WithRSAEncryption
         31:04:5d:69:2b:48:c3:6e:c4:ec:0d:2a:af:d2:64:e0:f3:c3:
         19:94:0b:ca:53:f9:b5:22:18:41:7a:47:b3:53:93:d1:85:c5:
         64:93:b5:13:eb:f9:ba:28:e6:42:3e:10:a3:a5:a7:94:1d:7d:
         5e:58:cd:2d:62:a5:97:52:9c:c6:ae:f1:23:4e:74:48:f2:68:
         b6:e9:63:34:47:d6:34:eb:ed:50:ab:b5:85:95:10:b1:c8:b8:
         eb:08:1e:a5:6c:dc:fa:b8:99:f0:60:0f:47:51:b5:28:57:af:
         50:fb:06:0e:0c:db:cd:fb:2d:70:57:82:5a:10:ce:07:79:cd:
         4c:33:ed:e3:cb:50:78:a2:ce:13:b8:47:1b:c5:b8:83:50:ec:
         8b:6a:57:ca:ca:40:11:2f:c0:aa:ab:77:d6:2d:e3:48:9c:b6:
         99:21:2f:23:16:8d:7d:6b:8d:ed:07:60:63:00:02:3b:b1:1e:
         6f:36:3f:47:5f:45:f3:5e:69:a2:41:50:a8:09:91:32:a3:a1:
         02:f1:14:11:24:cc:0b:69:82:57:23:fb:21:b6:7f:fe:eb:0e:
         63:9c:da:7b:8f:22:12:77:c9:20:4d:c2:89:55:11:b1:5e:b9:
         07:7a:a5:a4:c6:12:5c:2c:6e:27:e0:8e:35:2d:45:c6:5c:e2:
         8d:1f:a8:1c
-----BEGIN CERTIFICATE-----
MIIDzjCCAragAwIBAgIQEvbZ8YAbUJ9kCcjqLxYzrDANBgkqhkiG9w0BAQsFADBj
MQswCQYDVQQGEwJVUzETMBEGA1UECAwKQ2FsaWZvcm5pYTEWMBQGA1UEBwwNTW91
bnRhaW4gVmlldzEQMA4GA1UECgwHVGVzdCBDQTEVMBMGA1UEAwwMVGVzdCBSb290
IENBMB4XDTE0MTAzMDAwMDAwMFoXDTI1MTAzMDAwMDAwMFowYDELMAkGA1UEBhMC
VVMxEzARBgNVBAgMCkNhbGlmb3JuaWExFjAUBgNVBAcMDU1vdW50YWluIFZpZXcx
EDAOBgNVBAoMB1Rlc3QgQ0ExEjAQBgNVBAMMCTEyNy4wLjAuMTCCASIwDQYJKoZI
hvcNAQEBBQADggEPADCCAQoCggEBAKG9nb1NLEovtNZiqD88fEveV6YIIT2YnJ6J
6JIzO50oWCye6Eczt9Mow03eNRuep/of72NpTKdDzvjvffavwBeachx/0pu98jEV
m9N6KBRBUn9cP2+rV4erqno/qgSkS0jWn2XQi77bA+OgsdFBEYzlF+bfs+J0vtg/
0TS3BJ6hM/Lxabkq0rhInTTE1cvm21CPAHDpE1dbrpfM9OXara1dWjeVWV2v6u4+
fQeo0Gz+ZtsG88Q+Fka+j1iojvzY65PKg9x8aLjYcCltG5xrvtdesw98mRZNaoDc
UCQzIXwe0S0o50QijXnZGDweHPu3jTphBmf8820QwfXIXVhNKScCAwEAAaOBgDB+
MAwGA1UdEwEB/wQCMAAwHQYDVR0OBBYEFPflPCtz9akjrtaERc7T5ehyCchNMB8G
A1UdIwQYMBaAFJsmC4qYqbsduR8c4xpAM+2OF4irMB0GA1UdJQQWMBQGCCsGAQUF
BwMBBggrBgEFBQcDAjAPBgNVHREECDAGhwR/AAABMA0GCSqGSIb3DQEBCwUAA4IB
AQAxBF1pK0jDbsTsDSqv0mTg88MZlAvKU/m1IhhBekezU5PRhcVkk7UT6/m6KOZC
PhCjpaeUHX1eWM0tYqWXUpzGrvEjTnRI8mi26WM0R9Y06+1Qq7WFlRCxyLjrCB6l
bNz6uJnwYA9HUbUoV69Q+wYODNvN+y1wV4JaEM4Hec1MM+3jy1B4os4TuEcbxbiD
UOyLalfKykARL8Cqq3fWLeNInLaZIS8jFo19a43tB2BjAAI7sR5vNj9HX0XzXmmi
QVCoCZEyo6EC8RQRJMwLaYJXI/shtn/+6w5jnNp7jyISd8kgTcKJVRGxXrkHeqWk
xhJcLG4n4I41LUXGXOKNH6gc
-----END CERTIFICATE-----
