Certificate:
    Data:
        Version: 3 (0x2)
        Serial Number:
            3e:2c:9d:be:b0:42:c8:cf:fc:99:42:d5:4d:41:6a:ad
        Signature Algorithm: sha256WithRSAEncryption
        Issuer: C=US, ST=California, L=Mountain View, O=Test CA, CN=Test Root CA
        Validity
            Not Before: Oct 30 00:00:00 2014 GMT
            Not After : Oct 30 00:00:00 2025 GMT
        Subject: C=US, ST=California, L=Mountain View, O=Test CA, CN=127.0.0.1
        Subject Public Key Info:
            Public Key Algorithm: rsaEncryption
                RSA Public-Key: (2048 bit)
                Modulus:
                    00:b1:49:dd:3b:68:74:39:a7:8a:02:e6:32:0d:d9:
                    0e:08:5d:77:36:f5:a5:5b:34:aa:84:c5:6e:e4:32:
                    9c:3b:bf:36:0c:72:8c:98:a3:59:e1:60:c5:d8:ee:
                    f2:04:ac:4c:9b:e7:a6:d8:6b:24:cf:87:4b:55:82:
                    bf:0c:67:c1:9c:63:4e:d8:41:4d:15:5b:44:01:8d:
                    db:ca:b8:1a:ef:26:36:d0:ad:50:67:5d:4f:2f:ef:
                    51:e7:78:0e:40:e9:e7:e0:a6:e8:f9:39:8d:47:a3:
                    8c:14:bc:af:dd:f4:f5:64:33:04:78:39:22:b4:a2:
                    b1:11:71:94:50:a8:2a:98:22:c6:c4:7a:ff:8b:a4:
                    54:c0:0c:db:55:5f:2e:58:a5:fd:13:5c:df:9c:bc:
                    5f:96:2c:3e:ee:df:71:64:07:c6:60:0d:6c:b5:6f:
                    50:d9:21:eb:4c:6e:15:1a:90:2e:11:49:64:36:a3:
                    04:03:39:14:1e:ad:32:be:69:8b:26:92:ca:38:a8:
                    51:49:c0:1e:5c:d1:2f:d2:e3:b2:11:a6:88:d7:61:
                    f8:4f:c0:61:d1:6f:41:92:b1:6a:21:38:ff:8b:37:
                    ba:f3:49:b9:45:74:f5:7c:c5:65:fb:c0:dd:65:b1:
                    3c:ba:ed:0c:46:e8:62:06:82:77:8e:df:52:d1:a5:
                    7c:c5
                Exponent: 65537 (0x10001)
        X509v3 extensions:
            X509v3 Basic Constraints: critical
                CA:FALSE
            X509v3 Subject Key Identifier: 
                ED:37:D9:2A:6C:CB:3D:D8:B2:05:8F:1B:D5:10:69:79:95:C0:13:62
            X509v3 Authority Key Identifier: 
                keyid:9B:26:0B:8A:98:A9:BB:1D:B9:1F:1C:E3:1A:40:33:ED:8E:17:88:AB

            X509v3 Extended Key Usage: 
                TLS Web Server Authentication, TLS Web Client Authentication
            X509v3 Subject Alternative Name: 
                IP Address:127.0.0.1
    Signature Algorithm: sha256WithRSAEncryption
         9e:18:73:a8:48:59:21:7d:bc:f4:26:88:2f:45:52:3f:3d:9b:
         a8:60:8f:60:96:fa:6d:17:74:87:41:12:da:f7:59:c4:6a:52:
         02:82:f0:b9:a5:b5:f8:36:a0:c1:f7:90:6e:c6:41:9f:28:34:
         13:5e:5e:cd:68:e8:1e:76:f6:3c:16:03:73:f0:5b:ca:22:34:
         90:36:fa:b3:4b:33:16:63:c1:b0:c9:2b:ac:a8:60:4b:ff:4d:
         9b:a0:d4:a9:f9:b1:b2:4a:48:91:06:79:d2:19:45:d2:07:61:
         5e:c4:7b:8b:30:89:14:4f:97:79:c9:a8:f9:0d:90:47:d0:f5:
         dd:6d:b3:b7:d0:7e:4a:cf:21:c5:9a:13:2e:b8:d6:bf:5b:bf:
         6c:0e:2c:89:51:02:99:d2:ab:c5:cb:1f:38:91:bc:cd:11:01:
         76:62:66:15:c1:b1:3c:36:e2:d7:13:b1:e0:59:12:54:43:4e:
         ba:f3:b7:47:e9:01:ef:f2:82:85:3f:8e:0b:58:70:2b:07:f4:
         37:df:0e:2d:88:48:76:76:4b:33:c6:ce:8b:11:dc:ac:7a:a9:
         e8:07:25:1b:12:33:c3:12:8c:1d:31:59:f4:02:fb:d1:97:df:
         7b:ea:20:b7:ef:b0:e8:4b:57:74:21:f8:9e:81:02:ec:bc:d2:
         56:fc:0a:27
-----BEGIN CERTIFICATE-----
MIIDzjCCAragAwIBAgIQPiydvrBCyM/8mULVTUFqrTANBgkqhkiG9w0BAQsFADBj
MQswCQYDVQQGEwJVUzETMBEGA1UECAwKQ2FsaWZvcm5pYTEWMBQGA1UEBwwNTW91
bnRhaW4gVmlldzEQMA4GA1UECgwHVGVzdCBDQTEVMBMGA1UEAwwMVGVzdCBSb290
IENBMB4XDTE0MTAzMDAwMDAwMFoXDTI1MTAzMDAwMDAwMFowYDELMAkGA1UEBhMC
VVMxEzARBgNVBAgMCkNhbGlmb3JuaWExFjAUBgNVBAcMDU1vdW50YWluIFZpZXcx
EDAOBgNVBAoMB1Rlc3QgQ0ExEjAQBgNVBAMMCTEyNy4wLjAuMTCCASIwDQYJKoZI
hvcNAQEBBQADggEPADCCAQoCggEBALFJ3TtodDmnigLmMg3ZDghddzb1pVs0qoTF
buQynDu/NgxyjJijWeFgxdju8gSsTJvnpthrJM+HS1WCvwxnwZxjTthBTRVbRAGN
28q4Gu8mNtCtUGddTy/vUed4DkDp5+Cm6Pk5jUejjBS8r9309WQzBHg5IrSisRFx
lFCoKpgixsR6/4ukVMAM21VfLlil/RNc35y8X5YsPu7fcWQHxmANbLVvUNkh60xu
FRqQLhFJZDajBAM5FB6tMr5piyaSyjioUUnAHlzRL9LjshGmiNdh+E/AYdFvQZKx
aiE4/4s3uvNJuUV09XzFZfvA3WWxPLrtDEboYgaCd47fUtGlfMUCAwEAAaOBgDB+
MAwGA1UdEwEB/wQCMAAwHQYDVR0OBBYEFO032Spsyz3YsgWPG9UQaXmVwBNiMB8G
A1UdIwQYMBaAFJsmC4qYqbsduR8c4xpAM+2OF4irMB0GA1UdJQQWMBQGCCsGAQUF
BwMBBggrBgEFBQcDAjAPBgNVHREECDAGhwR/AAABMA0GCSqGSIb3DQEBCwUAA4IB
AQCeGHOoSFkhfbz0JogvRVI/PZuoYI9glvptF3SHQRLa91nEalICgvC5pbX4NqDB
95BuxkGfKDQTXl7NaOgedvY8FgNz8FvKIjSQNvqzSzMWY8GwySusqGBL/02boNSp
+bGySkiRBnnSGUXSB2FexHuLMIkUT5d5yaj5DZBH0PXdbbO30H5KzyHFmhMuuNa/
W79sDiyJUQKZ0qvFyx84kbzNEQF2YmYVwbE8NuLXE7HgWRJUQ06687dH6QHv8oKF
P44LWHArB/Q33w4tiEh2dkszxs6LEdyseqnoByUbEjPDEowdMVn0AvvRl9976iC3
77DoS1d0IfiegQLsvNJW/Aon
-----END CERTIFICATE-----
