Certificate:
    Data:
        Version: 3 (0x2)
        Serial Number:
            12:f6:d9:f1:80:1b:50:9f:64:09:c8:ea:2f:16:33:bb
        Signature Algorithm: sha256WithRSAEncryption
        Issuer: C=US, ST=California, L=Mountain View, O=Test CA, CN=Test Root CA
        Validity
            Not Before: Sep  2 00:00:00 2020 GMT
            Not After : Oct  5 00:00:00 2021 GMT
        Subject: C=US, ST=California, L=Mountain View, O=Test CA, CN=127.0.0.1
        Subject Public Key Info:
            Public Key Algorithm: rsaEncryption
                RSA Public-Key: (2048 bit)
                Modulus:
                    00:d8:23:51:58:0e:d2:e2:7d:5a:f5:38:25:d3:c0:
                    67:00:27:2a:0e:f9:29:0c:5c:a1:10:a9:da:71:8f:
                    bd:70:2f:6b:e6:9a:0f:2a:bd:ec:2d:fe:87:0a:e2:
                    c9:86:e7:f7:0c:91:75:29:ac:19:52:40:e6:27:24:
                    33:ef:43:3c:d7:cb:88:29:b2:9a:3b:ac:ec:a7:71:
                    35:e9:01:43:ae:e6:dd:bb:06:26:55:fb:0f:43:c9:
                    1a:5a:9e:c3:41:55:ea:87:eb:4b:9f:d2:a1:bd:ac:
                    85:52:68:76:fe:94:dd:ae:34:e0:17:b7:dd:45:a8:
                    c5:e4:86:6c:08:c8:12:da:97:bf:43:66:fc:19:11:
                    d2:88:75:cc:ce:d2:d3:26:0c:0c:e0:e1:fc:91:da:
                    96:cd:d0:c2:a8:6c:ca:c9:2d:6b:1b:c8:21:9e:99:
                    41:33:2b:e1:50:0a:c6:9c:a8:14:3d:0c:1f:d3:75:
                    ac:77:2e:57:56:ba:ca:d4:a0:e7:e9:39:f3:5f:37:
                    bd:ba:88:74:d9:38:0f:2a:1a:2c:68:f0:b1:d3:a1:
                    9f:d3:cb:d7:a6:cf:70:d3:35:23:24:de:34:09:2e:
                    5c:4a:4d:da:cc:f5:48:76:08:2e:cc:4b:fa:a1:20:
                    ac:c7:57:fa:a7:af:5d:ef:7e:26:eb:f6:8d:89:ab:
                    8f:ff
                Exponent: 65537 (0x10001)
        X509v3 extensions:
            X509v3 Basic Constraints: critical
                CA:FALSE
            X509v3 Subject Key Identifier: 
                5C:38:D4:8A:4F:B0:75:B4:5A:B2:9D:0F:A4:02:C5:CF:0B:25:09:37
            X509v3 Authority Key Identifier: 
                keyid:9B:26:0B:8A:98:A9:BB:1D:B9:1F:1C:E3:1A:40:33:ED:8E:17:88:AB

            X509v3 Extended Key Usage: 
                TLS Web Server Authentication, TLS Web Client Authentication
            X509v3 Subject Alternative Name: 
                IP Address:127.0.0.1
    Signature Algorithm: sha256WithRSAEncryption
         7a:0b:02:69:10:db:20:cc:b9:ee:95:57:24:42:a9:f0:07:7c:
         47:a9:9d:85:88:19:9b:c9:79:5b:1f:e6:93:6d:b1:ad:f2:bd:
         9a:77:b0:4c:04:04:72:b4:bb:a2:f8:da:e7:09:af:ae:86:7a:
         e5:7e:dd:64:64:1a:92:f4:ca:9f:3b:2b:ab:4a:02:17:63:6d:
         eb:d5:74:e6:2d:1d:c1:04:de:49:16:e0:1a:7c:ce:b3:a7:b8:
         82:cd:9d:9a:b0:0f:c8:d9:38:5c:49:25:3e:6f:41:60:5d:9f:
         37:c6:28:7d:ec:7b:ff:89:59:d7:bc:bd:e9:8a:1b:3a:68:8e:
         1e:3f:e8:0e:00:6b:0b:0d:22:c2:e8:c5:bb:50:3d:fb:a4:25:
         96:c2:f5:9e:68:0c:33:05:3b:dd:70:92:3c:ac:58:52:b6:39:
         9d:a5:5e:b8:bc:71:4c:ac:db:8b:72:12:eb:a6:0c:86:e4:d9:
         88:03:f2:13:f4:b6:74:7c:fb:65:12:13:f8:59:fb:bf:59:bd:
         e6:8f:db:db:96:b3:4b:6f:b6:43:8c:20:1d:17:2d:bd:4c:40:
         26:a1:f5:fc:b0:9d:90:00:22:c2:99:37:ce:b2:db:7b:61:a6:
         d6:99:b7:f3:d6:56:50:15:2c:b7:9c:33:03:a4:5e:27:0d:ab:
         64:b8:c3:15
-----BEGIN CERTIFICATE-----
MIIDzjCCAragAwIBAgIQEvbZ8YAbUJ9kCcjqLxYzuzANBgkqhkiG9w0BAQsFADBj
MQswCQYDVQQGEwJVUzETMBEGA1UECAwKQ2FsaWZvcm5pYTEWMBQGA1UEBwwNTW91
bnRhaW4gVmlldzEQMA4GA1UECgwHVGVzdCBDQTEVMBMGA1UEAwwMVGVzdCBSb290
IENBMB4XDTIwMDkwMjAwMDAwMFoXDTIxMTAwNTAwMDAwMFowYDELMAkGA1UEBhMC
VVMxEzARBgNVBAgMCkNhbGlmb3JuaWExFjAUBgNVBAcMDU1vdW50YWluIFZpZXcx
EDAOBgNVBAoMB1Rlc3QgQ0ExEjAQBgNVBAMMCTEyNy4wLjAuMTCCASIwDQYJKoZI
hvcNAQEBBQADggEPADCCAQoCggEBANgjUVgO0uJ9WvU4JdPAZwAnKg75KQxcoRCp
2nGPvXAva+aaDyq97C3+hwriyYbn9wyRdSmsGVJA5ickM+9DPNfLiCmymjus7Kdx
NekBQ67m3bsGJlX7D0PJGlqew0FV6ofrS5/Sob2shVJodv6U3a404Be33UWoxeSG
bAjIEtqXv0Nm/BkR0oh1zM7S0yYMDODh/JHals3QwqhsysktaxvIIZ6ZQTMr4VAK
xpyoFD0MH9N1rHcuV1a6ytSg5+k58183vbqIdNk4DyoaLGjwsdOhn9PL16bPcNM1
IyTeNAkuXEpN2sz1SHYILsxL+qEgrMdX+qevXe9+Juv2jYmrj/8CAwEAAaOBgDB+
MAwGA1UdEwEB/wQCMAAwHQYDVR0OBBYEFFw41IpPsHW0WrKdD6QCxc8LJQk3MB8G
A1UdIwQYMBaAFJsmC4qYqbsduR8c4xpAM+2OF4irMB0GA1UdJQQWMBQGCCsGAQUF
BwMBBggrBgEFBQcDAjAPBgNVHREECDAGhwR/AAABMA0GCSqGSIb3DQEBCwUAA4IB
AQB6CwJpENsgzLnulVckQqnwB3xHqZ2FiBmbyXlbH+aTbbGt8r2ad7BMBARytLui
+NrnCa+uhnrlft1kZBqS9MqfOyurSgIXY23r1XTmLR3BBN5JFuAafM6zp7iCzZ2a
sA/I2ThcSSU+b0FgXZ83xih97Hv/iVnXvL3pihs6aI4eP+gOAGsLDSLC6MW7UD37
pCWWwvWeaAwzBTvdcJI8rFhStjmdpV64vHFMrNuLchLrpgyG5NmIA/IT9LZ0fPtl
EhP4Wfu/Wb3mj9vblrNLb7ZDjCAdFy29TEAmofX8sJ2QACLCmTfOstt7YabWmbfz
1lZQFSy3nDMDpF4nDatkuMMV
-----END CERTIFICATE-----
