Certificate:
    Data:
        Version: 3 (0x2)
        Serial Number:
            b0:6b:93:92:e3:5c:8d:7e:ed:9d:c8:96:59:c5:c2:7f
        Signature Algorithm: sha256WithRSAEncryption
        Issuer: C=US, ST=California, L=Mountain View, O=Test CA, CN=Test Root CA
        Validity
            Not Before: Sep  2 00:00:00 2020 GMT
            Not After : Oct  5 00:00:00 2021 GMT
        Subject: C=US, ST=California, L=Mountain View, O=Test CA, CN=127.0.0.1
        Subject Public Key Info:
            Public Key Algorithm: rsaEncryption
                Public-Key: (2048 bit)
                Modulus:
                    00:eb:66:84:1c:5d:7d:8a:59:9e:47:64:b9:09:e4:
                    1a:6b:6b:e6:4f:ba:59:2e:a4:3c:57:cb:1a:11:85:
                    bd:38:08:e0:95:30:c9:02:64:16:35:f0:57:b5:6d:
                    2a:7e:54:0c:74:cf:0d:ae:19:ec:f5:01:47:57:0d:
                    ef:70:f7:a2:35:49:65:e5:95:78:ad:18:00:7f:ec:
                    94:94:95:c8:b2:86:7c:ec:b4:d3:b2:dd:c2:91:03:
                    31:ee:46:d7:d8:ee:fd:ce:6f:cc:33:fa:ba:bb:2d:
                    a2:a2:0c:1b:1b:84:2e:3c:8d:a1:5b:24:25:72:5b:
                    d9:b4:67:98:0e:42:6b:39:f7:5a:da:c8:8f:6d:96:
                    a2:1a:ce:35:a8:d5:e8:1b:14:97:f2:5b:12:eb:94:
                    53:a1:7a:8e:3e:67:2f:d7:91:72:8b:12:cf:ba:d5:
                    54:9e:64:92:4c:f2:fc:00:ee:86:4e:df:55:71:25:
                    c0:88:9d:86:9e:9a:46:b8:f1:31:da:dc:78:fd:46:
                    27:1c:ec:6b:84:14:25:8a:b2:c0:ce:75:8f:e9:84:
                    27:97:75:f4:91:96:e7:c0:c9:8d:de:f2:f4:fb:fd:
                    69:5e:6b:59:50:63:bb:d5:91:cc:7c:1b:0f:c2:b2:
                    d3:56:b4:e8:77:c6:57:fb:af:7a:af:16:f9:5b:32:
                    42:ff
                Exponent: 65537 (0x10001)
        X509v3 extensions:
            X509v3 Basic Constraints: critical
                CA:FALSE
            X509v3 Subject Key Identifier: 
                4A:78:19:FB:FB:DF:5F:98:EC:91:7A:31:C5:98:4C:B6:8D:50:DE:AD
            X509v3 Authority Key Identifier: 
                9B:26:0B:8A:98:A9:BB:1D:B9:1F:1C:E3:1A:40:33:ED:8E:17:88:AB
            X509v3 Extended Key Usage: 
                TLS Web Server Authentication, TLS Web Client Authentication
            X509v3 Subject Alternative Name: 
                IP Address:127.0.0.1
    Signature Algorithm: sha256WithRSAEncryption
    Signature Value:
        3f:f0:e3:6b:61:f7:d4:c3:61:1f:94:8a:b9:bc:a0:1a:0c:26:
        2b:df:86:c5:39:93:a0:d0:77:9f:61:a8:ab:c1:1d:10:29:4b:
        2e:33:e2:97:46:00:c6:27:69:4c:fc:29:b6:4d:72:ab:4c:9a:
        96:e9:07:d2:d1:29:8e:39:ab:7c:00:c2:fb:7d:d7:04:f4:3e:
        00:f7:cd:16:38:21:82:79:ac:ce:f1:4c:56:fd:cc:64:8c:88:
        32:45:cb:3f:40:bb:86:0e:a3:9e:c1:f8:9a:16:57:ec:27:0e:
        ee:cc:01:6f:d7:1d:2d:54:a9:99:6d:83:b0:b3:41:e6:57:31:
        e1:65:a9:d2:a9:ea:ed:6f:e7:05:73:f1:27:ee:4b:da:56:c6:
        af:ef:83:53:4e:7a:f9:54:00:58:11:c2:b2:bb:d8:7a:6c:1d:
        3a:0c:92:cf:23:12:ee:41:d3:32:24:36:0e:0e:e4:5a:d2:1b:
        6d:dc:85:93:ae:78:40:b3:11:81:d7:c9:e4:56:42:de:94:79:
        da:6a:a6:fa:e3:71:96:17:51:f3:80:b2:d1:50:3a:98:9c:89:
        20:cc:4e:0a:69:ac:34:5c:53:aa:f7:4c:c3:cb:4b:fc:f7:bd:
        7c:82:53:9f:0c:3e:b8:ff:cb:72:44:2d:7e:19:24:a1:39:d0:
        6c:ab:db:38
-----BEGIN CERTIFICATE-----
MIIDzzCCAregAwIBAgIRALBrk5LjXI1+7Z3IllnFwn8wDQYJKoZIhvcNAQELBQAw
YzELMAkGA1UEBhMCVVMxEzARBgNVBAgMCkNhbGlmb3JuaWExFjAUBgNVBAcMDU1v
dW50YWluIFZpZXcxEDAOBgNVBAoMB1Rlc3QgQ0ExFTATBgNVBAMMDFRlc3QgUm9v
dCBDQTAeFw0yMDA5MDIwMDAwMDBaFw0yMTEwMDUwMDAwMDBaMGAxCzAJBgNVBAYT
AlVTMRMwEQYDVQQIDApDYWxpZm9ybmlhMRYwFAYDVQQHDA1Nb3VudGFpbiBWaWV3
MRAwDgYDVQQKDAdUZXN0IENBMRIwEAYDVQQDDAkxMjcuMC4wLjEwggEiMA0GCSqG
SIb3DQEBAQUAA4IBDwAwggEKAoIBAQDrZoQcXX2KWZ5HZLkJ5Bpra+ZPulkupDxX
yxoRhb04COCVMMkCZBY18Fe1bSp+VAx0zw2uGez1AUdXDe9w96I1SWXllXitGAB/
7JSUlciyhnzstNOy3cKRAzHuRtfY7v3Ob8wz+rq7LaKiDBsbhC48jaFbJCVyW9m0
Z5gOQms591rayI9tlqIazjWo1egbFJfyWxLrlFOheo4+Zy/XkXKLEs+61VSeZJJM
8vwA7oZO31VxJcCInYaemka48THa3Hj9Ricc7GuEFCWKssDOdY/phCeXdfSRlufA
yY3e8vT7/Wlea1lQY7vVkcx8Gw/CstNWtOh3xlf7r3qvFvlbMkL/AgMBAAGjgYAw
fjAMBgNVHRMBAf8EAjAAMB0GA1UdDgQWBBRKeBn7+99fmOyRejHFmEy2jVDerTAf
BgNVHSMEGDAWgBSbJguKmKm7HbkfHOMaQDPtjheIqzAdBgNVHSUEFjAUBggrBgEF
BQcDAQYIKwYBBQUHAwIwDwYDVR0RBAgwBocEfwAAATANBgkqhkiG9w0BAQsFAAOC
AQEAP/Dja2H31MNhH5SKubygGgwmK9+GxTmToNB3n2Goq8EdEClLLjPil0YAxidp
TPwptk1yq0yalukH0tEpjjmrfADC+33XBPQ+APfNFjghgnmszvFMVv3MZIyIMkXL
P0C7hg6jnsH4mhZX7CcO7swBb9cdLVSpmW2DsLNB5lcx4WWp0qnq7W/nBXPxJ+5L
2lbGr++DU056+VQAWBHCsrvYemwdOgySzyMS7kHTMiQ2Dg7kWtIbbdyFk654QLMR
gdfJ5FZC3pR52mqm+uNxlhdR84Cy0VA6mJyJIMxOCmmsNFxTqvdMw8tL/Pe9fIJT
nww+uP/LckQtfhkkoTnQbKvbOA==
-----END CERTIFICATE-----
