Certificate:
    Data:
        Version: 3 (0x2)
        Serial Number:
            cf:95:70:1c:b6:6c:07:bb:a4:de:63:24:47:3b:4e:d7
        Signature Algorithm: sha256WithRSAEncryption
        Issuer: C=US, ST=California, L=Mountain View, O=Test CA, CN=Test Root CA
        Validity
            Not Before: Sep  2 00:00:00 2020 GMT
            Not After : Oct  5 00:00:00 2021 GMT
        Subject: C=US, ST=California, L=Mountain View, O=Test CA, CN=127.0.0.1
        Subject Public Key Info:
            Public Key Algorithm: rsaEncryption
                Public-Key: (2048 bit)
                Modulus:
                    00:c5:42:e2:aa:6e:fe:b4:ce:47:0e:2b:6a:cd:b9:
                    39:bf:cf:b6:58:0a:75:42:65:cb:c9:f2:9c:5c:d2:
                    cf:9f:04:e1:41:12:55:9f:1b:c3:fc:2d:74:40:6e:
                    ed:2a:3c:19:54:f6:56:29:3b:a3:00:47:bf:b8:8b:
                    1c:cf:6d:33:1c:f1:e5:f1:05:68:69:67:b7:c9:7f:
                    a6:81:d2:57:18:66:e1:3b:1f:7e:e4:b8:44:48:af:
                    6c:96:91:db:6b:14:86:1f:9d:db:5b:7b:67:0a:ff:
                    d9:e8:97:3a:37:a1:3a:3d:f8:a3:a5:8d:35:e4:a3:
                    12:a2:a5:29:b8:8e:5b:34:33:03:c2:1a:9d:be:04:
                    5d:ae:c6:06:09:af:3a:58:21:11:c3:41:6b:55:68:
                    11:95:a7:3b:0d:4b:55:34:4a:ad:3d:ab:e3:6a:6b:
                    ad:a2:8d:da:f1:1d:ad:3a:f0:ee:b5:60:ce:4b:54:
                    77:c0:6e:41:4f:0d:55:0c:9e:c7:1f:05:54:8c:b3:
                    ac:16:21:71:b7:62:73:1f:e4:12:e9:58:f0:b8:5a:
                    b5:d7:7a:ae:de:3b:74:0b:e2:9a:8b:01:29:7a:cd:
                    07:97:9d:a3:9c:26:09:54:96:8e:bd:b5:92:db:7b:
                    c1:c9:07:d6:69:0f:1b:76:ce:0d:2a:f8:6e:4c:58:
                    40:e7
                Exponent: 65537 (0x10001)
        X509v3 extensions:
            X509v3 Basic Constraints: critical
                CA:FALSE
            X509v3 Subject Key Identifier: 
                9C:A0:3A:69:D5:3D:E2:36:C9:CB:33:7F:0B:5B:32:25:3F:AE:6B:A9
            X509v3 Authority Key Identifier: 
                9B:26:0B:8A:98:A9:BB:1D:B9:1F:1C:E3:1A:40:33:ED:8E:17:88:AB
            X509v3 Extended Key Usage: 
                TLS Web Server Authentication, TLS Web Client Authentication
            X509v3 Subject Alternative Name: 
                IP Address:127.0.0.1
    Signature Algorithm: sha256WithRSAEncryption
    Signature Value:
        a9:9d:19:ff:b5:6a:9e:c0:a2:66:06:4b:4e:40:6b:f2:47:3e:
        48:9f:8b:a4:7b:7d:a3:d8:4e:0d:1f:ee:60:01:b3:9c:c3:a1:
        a6:fd:34:e7:bf:d0:b5:a5:26:32:93:90:b7:4e:ff:36:8d:46:
        00:5a:94:78:2d:3a:4e:cf:0e:e7:20:1d:f7:3a:b8:ab:50:5a:
        f2:2d:83:04:b3:30:e5:d5:c1:3e:b1:23:ce:b6:ff:5d:07:c6:
        9e:91:2b:ae:24:45:91:5d:ab:77:b9:77:ca:a7:d5:c8:56:02:
        ee:9a:02:2a:7a:3c:9b:40:b4:c5:ea:2a:2a:71:fb:b9:93:56:
        1b:10:b7:a9:d3:3e:73:47:85:96:bb:77:ec:60:c2:65:a4:22:
        99:33:4b:7f:2b:c1:87:fe:79:9e:f4:3f:68:e9:60:67:99:b1:
        47:71:6f:60:02:e6:b6:4d:20:1a:03:5b:fa:83:d5:23:bf:88:
        d0:1e:ee:28:fa:22:8e:6a:da:50:6f:d2:b6:01:ee:3f:42:aa:
        45:fc:1e:0d:b6:6d:ed:59:e2:2b:9a:4b:ca:78:fb:78:fd:f9:
        ed:2f:7f:48:3e:93:2e:b1:ac:d2:41:a5:2d:f2:fe:48:28:45:
        e4:a1:bc:4a:79:48:d7:e6:f6:a3:9f:28:99:37:d8:5b:27:fb:
        05:0d:cd:a6
-----BEGIN CERTIFICATE-----
MIIDzzCCAregAwIBAgIRAM+VcBy2bAe7pN5jJEc7TtcwDQYJKoZIhvcNAQELBQAw
YzELMAkGA1UEBhMCVVMxEzARBgNVBAgMCkNhbGlmb3JuaWExFjAUBgNVBAcMDU1v
dW50YWluIFZpZXcxEDAOBgNVBAoMB1Rlc3QgQ0ExFTATBgNVBAMMDFRlc3QgUm9v
dCBDQTAeFw0yMDA5MDIwMDAwMDBaFw0yMTEwMDUwMDAwMDBaMGAxCzAJBgNVBAYT
AlVTMRMwEQYDVQQIDApDYWxpZm9ybmlhMRYwFAYDVQQHDA1Nb3VudGFpbiBWaWV3
MRAwDgYDVQQKDAdUZXN0IENBMRIwEAYDVQQDDAkxMjcuMC4wLjEwggEiMA0GCSqG
SIb3DQEBAQUAA4IBDwAwggEKAoIBAQDFQuKqbv60zkcOK2rNuTm/z7ZYCnVCZcvJ
8pxc0s+fBOFBElWfG8P8LXRAbu0qPBlU9lYpO6MAR7+4ixzPbTMc8eXxBWhpZ7fJ
f6aB0lcYZuE7H37kuERIr2yWkdtrFIYfndtbe2cK/9nolzo3oTo9+KOljTXkoxKi
pSm4jls0MwPCGp2+BF2uxgYJrzpYIRHDQWtVaBGVpzsNS1U0Sq09q+Nqa62ijdrx
Ha068O61YM5LVHfAbkFPDVUMnscfBVSMs6wWIXG3YnMf5BLpWPC4WrXXeq7eO3QL
4pqLASl6zQeXnaOcJglUlo69tZLbe8HJB9ZpDxt2zg0q+G5MWEDnAgMBAAGjgYAw
fjAMBgNVHRMBAf8EAjAAMB0GA1UdDgQWBBScoDpp1T3iNsnLM38LWzIlP65rqTAf
BgNVHSMEGDAWgBSbJguKmKm7HbkfHOMaQDPtjheIqzAdBgNVHSUEFjAUBggrBgEF
BQcDAQYIKwYBBQUHAwIwDwYDVR0RBAgwBocEfwAAATANBgkqhkiG9w0BAQsFAAOC
AQEAqZ0Z/7VqnsCiZgZLTkBr8kc+SJ+LpHt9o9hODR/uYAGznMOhpv0057/QtaUm
MpOQt07/No1GAFqUeC06Ts8O5yAd9zq4q1Ba8i2DBLMw5dXBPrEjzrb/XQfGnpEr
riRFkV2rd7l3yqfVyFYC7poCKno8m0C0xeoqKnH7uZNWGxC3qdM+c0eFlrt37GDC
ZaQimTNLfyvBh/55nvQ/aOlgZ5mxR3FvYALmtk0gGgNb+oPVI7+I0B7uKPoijmra
UG/StgHuP0KqRfweDbZt7VniK5pLynj7eP357S9/SD6TLrGs0kGlLfL+SChF5KG8
SnlI1+b2o58omTfYWyf7BQ3Npg==
-----END CERTIFICATE-----
