Certificate:
    Data:
        Version: 3 (0x2)
        Serial Number:
            12:f6:d9:f1:80:1b:50:9f:64:09:c8:ea:2f:16:33:bc
        Signature Algorithm: sha256WithRSAEncryption
        Issuer: C=US, ST=California, L=Mountain View, O=Test CA, CN=Test Root CA
        Validity
            Not Before: Sep  2 00:00:00 2020 GMT
            Not After : Oct  5 00:00:01 2021 GMT
        Subject: C=US, ST=California, L=Mountain View, O=Test CA, CN=127.0.0.1
        Subject Public Key Info:
            Public Key Algorithm: rsaEncryption
                RSA Public-Key: (2048 bit)
                Modulus:
                    00:a8:ef:99:e4:60:c1:e4:56:c0:40:b8:51:9f:02:
                    b5:80:97:d8:86:70:44:a7:67:55:4e:90:7f:fa:12:
                    a7:af:bf:58:b5:8a:8b:30:2a:c7:84:9f:40:a3:e8:
                    97:01:93:f2:8e:8b:94:9d:28:1a:e2:aa:e1:c6:7f:
                    d7:82:46:0e:41:3c:16:aa:a0:dc:bd:6c:1f:17:b9:
                    21:d8:80:f2:30:58:2f:b5:0c:20:3b:25:92:27:1d:
                    ad:1c:a6:af:a4:9c:c2:d3:52:57:66:8e:22:2a:f9:
                    29:e9:29:ed:c7:04:2d:8e:71:c8:26:a3:23:07:1b:
                    d9:ac:ed:cc:4d:d1:25:37:18:ee:ac:6f:8f:75:de:
                    da:b3:a1:1e:70:76:ea:fe:5e:4f:2e:b4:19:5b:29:
                    9f:2d:53:e3:47:af:b3:ba:49:41:1b:99:62:db:02:
                    e2:e7:80:d7:f0:6c:f6:77:4d:74:41:5d:76:c2:ee:
                    5c:4c:24:4c:c2:b4:fb:11:6f:3c:d6:e0:68:8d:76:
                    26:3e:f0:31:94:05:e6:11:5e:aa:c8:4d:0c:db:83:
                    8a:76:b6:76:78:32:9f:dc:48:9e:c1:38:3f:14:7c:
                    3f:ed:40:46:bb:5c:c9:fc:41:37:a9:e3:59:1e:f7:
                    43:cd:7a:45:5f:67:4b:ac:85:2b:1d:36:7d:8d:63:
                    52:3d
                Exponent: 65537 (0x10001)
        X509v3 extensions:
            X509v3 Basic Constraints: critical
                CA:FALSE
            X509v3 Subject Key Identifier: 
                E2:DB:BE:53:11:5B:82:7A:18:F5:68:EE:FA:C1:8B:38:7B:2D:F9:4F
            X509v3 Authority Key Identifier: 
                keyid:9B:26:0B:8A:98:A9:BB:1D:B9:1F:1C:E3:1A:40:33:ED:8E:17:88:AB

            X509v3 Extended Key Usage: 
                TLS Web Server Authentication, TLS Web Client Authentication
            X509v3 Subject Alternative Name: 
                IP Address:127.0.0.1
    Signature Algorithm: sha256WithRSAEncryption
         6b:15:75:b0:d6:f4:29:c1:da:0b:ef:fc:d1:37:63:ca:f7:8a:
         3f:5c:66:06:79:ba:8c:3c:b3:e5:41:1d:4d:c9:63:ea:18:24:
         26:49:df:b1:3b:bd:db:b6:f0:b7:56:0d:17:28:bf:9f:7b:10:
         1c:20:bf:10:41:98:29:5f:bd:19:ca:65:9c:d8:31:1a:85:2a:
         53:4b:6d:d4:6c:b8:d8:4a:7f:4c:ed:98:8f:20:3b:1c:b9:e1:
         6d:48:7f:9f:7e:6b:02:45:05:ae:cd:6a:32:41:a2:99:7b:7b:
         23:f8:26:3f:70:f5:cc:5a:19:af:62:0f:e2:9b:0b:71:1f:55:
         a6:06:f1:22:27:cb:55:74:2f:25:8e:9c:07:0f:64:ab:3a:9a:
         5a:38:76:6c:5a:48:b2:54:bf:8e:e8:83:c8:9c:68:2b:3e:43:
         2f:99:1a:70:28:84:8d:5b:70:c3:6b:aa:34:fe:51:c7:1a:3c:
         ee:6a:41:86:51:4b:32:90:4b:b8:5b:4e:91:c2:55:3a:f0:1d:
         a7:27:35:47:79:58:4b:89:09:39:4a:e7:49:25:46:ad:17:61:
         51:fa:a3:a8:21:f4:a3:25:87:3f:97:8a:1b:39:ea:f7:97:06:
         84:f9:c9:f9:63:cf:cd:a3:5f:70:da:eb:44:d4:89:96:93:5f:
         89:3b:2e:bf
-----BEGIN CERTIFICATE-----
MIIDzjCCAragAwIBAgIQEvbZ8YAbUJ9kCcjqLxYzvDANBgkqhkiG9w0BAQsFADBj
MQswCQYDVQQGEwJVUzETMBEGA1UECAwKQ2FsaWZvcm5pYTEWMBQGA1UEBwwNTW91
bnRhaW4gVmlldzEQMA4GA1UECgwHVGVzdCBDQTEVMBMGA1UEAwwMVGVzdCBSb290
IENBMB4XDTIwMDkwMjAwMDAwMFoXDTIxMTAwNTAwMDAwMVowYDELMAkGA1UEBhMC
VVMxEzARBgNVBAgMCkNhbGlmb3JuaWExFjAUBgNVBAcMDU1vdW50YWluIFZpZXcx
EDAOBgNVBAoMB1Rlc3QgQ0ExEjAQBgNVBAMMCTEyNy4wLjAuMTCCASIwDQYJKoZI
hvcNAQEBBQADggEPADCCAQoCggEBAKjvmeRgweRWwEC4UZ8CtYCX2IZwRKdnVU6Q
f/oSp6+/WLWKizAqx4SfQKPolwGT8o6LlJ0oGuKq4cZ/14JGDkE8Fqqg3L1sHxe5
IdiA8jBYL7UMIDslkicdrRymr6ScwtNSV2aOIir5Kekp7ccELY5xyCajIwcb2azt
zE3RJTcY7qxvj3Xe2rOhHnB26v5eTy60GVspny1T40evs7pJQRuZYtsC4ueA1/Bs
9ndNdEFddsLuXEwkTMK0+xFvPNbgaI12Jj7wMZQF5hFeqshNDNuDina2dngyn9xI
nsE4PxR8P+1ARrtcyfxBN6njWR73Q816RV9nS6yFKx02fY1jUj0CAwEAAaOBgDB+
MAwGA1UdEwEB/wQCMAAwHQYDVR0OBBYEFOLbvlMRW4J6GPVo7vrBizh7LflPMB8G
A1UdIwQYMBaAFJsmC4qYqbsduR8c4xpAM+2OF4irMB0GA1UdJQQWMBQGCCsGAQUF
BwMBBggrBgEFBQcDAjAPBgNVHREECDAGhwR/AAABMA0GCSqGSIb3DQEBCwUAA4IB
AQBrFXWw1vQpwdoL7/zRN2PK94o/XGYGebqMPLPlQR1NyWPqGCQmSd+xO73btvC3
Vg0XKL+fexAcIL8QQZgpX70ZymWc2DEahSpTS23UbLjYSn9M7ZiPIDscueFtSH+f
fmsCRQWuzWoyQaKZe3sj+CY/cPXMWhmvYg/imwtxH1WmBvEiJ8tVdC8ljpwHD2Sr
OppaOHZsWkiyVL+O6IPInGgrPkMvmRpwKISNW3DDa6o0/lHHGjzuakGGUUsykEu4
W06RwlU68B2nJzVHeVhLiQk5SudJJUatF2FR+qOoIfSjJYc/l4obOer3lwaE+cn5
Y8/No19w2utE1ImWk1+JOy6/
-----END CERTIFICATE-----
