Certificate:
    Data:
        Version: 3 (0x2)
        Serial Number:
            ef:2f:0a:6a:75:56:1e:b1:0b:03:50:df:7c:9a:63:bb
        Signature Algorithm: sha256WithRSAEncryption
        Issuer: C=US, ST=California, L=Mountain View, O=Test CA, CN=Test Root CA
        Validity
            Not Before: Sep  2 00:00:00 2020 GMT
            Not After : Oct  5 00:00:01 2021 GMT
        Subject: C=US, ST=California, L=Mountain View, O=Test CA, CN=127.0.0.1
        Subject Public Key Info:
            Public Key Algorithm: rsaEncryption
                RSA Public-Key: (2048 bit)
                Modulus:
                    00:a0:5a:8e:f1:48:37:d4:3a:96:e6:c1:b5:20:88:
                    16:f4:a5:80:cb:72:18:0c:db:c0:26:9f:75:8a:c1:
                    58:3a:a9:9c:05:fe:f4:9c:92:7f:2e:59:ec:97:77:
                    ca:87:43:0a:05:4a:d3:a6:af:67:f7:c1:9a:f3:7e:
                    92:86:ed:c9:3e:89:b4:fa:be:c8:a7:6c:b5:02:a0:
                    b5:02:f1:83:41:18:d6:86:29:c8:b1:be:16:e0:15:
                    49:2e:bf:d0:a0:65:b9:05:4b:52:f0:be:88:a4:30:
                    b1:73:f3:aa:69:65:80:99:ad:14:62:13:bc:7b:52:
                    93:fe:91:4f:8a:b1:4c:d3:52:ac:77:7c:92:02:fc:
                    34:c7:15:10:a8:70:f1:77:ec:0d:c7:5b:53:df:49:
                    1f:be:59:a0:93:45:4b:eb:71:c2:ba:8f:0c:43:73:
                    96:5c:f4:96:bd:ed:cd:8c:18:79:db:18:ef:29:5e:
                    d9:78:80:c4:92:ec:6b:e1:19:19:83:c3:4e:bb:08:
                    1c:5d:8e:a4:10:24:48:fe:69:f5:d2:01:ef:a5:59:
                    ce:de:2f:b4:20:f4:83:b3:ef:e0:e8:af:09:69:dc:
                    09:70:79:9b:3b:60:f6:6f:32:71:93:7a:29:9a:f3:
                    e1:54:5f:9c:5a:41:33:2a:f9:29:ec:db:83:45:9d:
                    4f:59
                Exponent: 65537 (0x10001)
        X509v3 extensions:
            X509v3 Basic Constraints: critical
                CA:FALSE
            X509v3 Subject Key Identifier: 
                70:97:92:9D:2A:18:0D:AD:5F:DE:86:29:A0:44:DF:0B:3E:41:A4:D5
            X509v3 Authority Key Identifier: 
                keyid:9B:26:0B:8A:98:A9:BB:1D:B9:1F:1C:E3:1A:40:33:ED:8E:17:88:AB

            X509v3 Extended Key Usage: 
                TLS Web Server Authentication, TLS Web Client Authentication
            X509v3 Subject Alternative Name: 
                IP Address:127.0.0.1
    Signature Algorithm: sha256WithRSAEncryption
         80:fe:bc:f5:9a:97:cf:a2:26:63:e5:4a:4a:53:71:bc:40:e2:
         a5:30:21:28:f8:0e:12:b1:00:bc:ab:c8:50:8b:a7:fc:15:ef:
         3c:57:ef:92:90:ff:89:42:42:34:6d:00:ff:d6:0a:a8:89:0b:
         c9:cf:fb:15:6a:6c:ab:c0:18:05:68:e5:a1:ef:d4:20:55:0c:
         4f:84:da:f7:df:29:4a:69:c9:8f:1c:c8:a6:c9:ca:a0:86:bc:
         c4:4d:96:0f:62:63:4b:ea:85:8d:fa:5a:2b:7e:4e:1f:4a:60:
         ed:8a:cc:f4:0f:6d:56:2f:ce:18:56:54:c3:1f:09:39:d2:62:
         63:75:11:3f:70:6f:cc:af:cb:c4:52:c7:1f:19:5f:ce:24:5b:
         f8:54:c8:25:78:a8:51:eb:f9:26:41:e1:f0:a1:29:ec:fc:8c:
         aa:ed:2c:fd:49:28:ff:ad:2a:ea:87:83:cf:02:ac:1b:2d:a1:
         e7:0e:51:59:8f:62:ab:95:f1:b4:f2:9f:62:a7:04:b2:13:a8:
         ae:41:88:b5:1c:0c:cf:5a:f3:a7:41:d2:9c:88:4d:50:54:14:
         c3:58:c1:10:93:49:33:21:ff:00:41:0c:71:7e:00:ab:44:35:
         ea:c1:c4:1c:76:a1:3a:09:21:35:8b:45:13:ba:9a:58:a0:e6:
         8f:1e:55:94
-----BEGIN CERTIFICATE-----
MIIDzzCCAregAwIBAgIRAO8vCmp1Vh6xCwNQ33yaY7swDQYJKoZIhvcNAQELBQAw
YzELMAkGA1UEBhMCVVMxEzARBgNVBAgMCkNhbGlmb3JuaWExFjAUBgNVBAcMDU1v
dW50YWluIFZpZXcxEDAOBgNVBAoMB1Rlc3QgQ0ExFTATBgNVBAMMDFRlc3QgUm9v
dCBDQTAeFw0yMDA5MDIwMDAwMDBaFw0yMTEwMDUwMDAwMDFaMGAxCzAJBgNVBAYT
AlVTMRMwEQYDVQQIDApDYWxpZm9ybmlhMRYwFAYDVQQHDA1Nb3VudGFpbiBWaWV3
MRAwDgYDVQQKDAdUZXN0IENBMRIwEAYDVQQDDAkxMjcuMC4wLjEwggEiMA0GCSqG
SIb3DQEBAQUAA4IBDwAwggEKAoIBAQCgWo7xSDfUOpbmwbUgiBb0pYDLchgM28Am
n3WKwVg6qZwF/vSckn8uWeyXd8qHQwoFStOmr2f3wZrzfpKG7ck+ibT6vsinbLUC
oLUC8YNBGNaGKcixvhbgFUkuv9CgZbkFS1LwvoikMLFz86ppZYCZrRRiE7x7UpP+
kU+KsUzTUqx3fJIC/DTHFRCocPF37A3HW1PfSR++WaCTRUvrccK6jwxDc5Zc9Ja9
7c2MGHnbGO8pXtl4gMSS7GvhGRmDw067CBxdjqQQJEj+afXSAe+lWc7eL7Qg9IOz
7+Dorwlp3AlweZs7YPZvMnGTeima8+FUX5xaQTMq+Sns24NFnU9ZAgMBAAGjgYAw
fjAMBgNVHRMBAf8EAjAAMB0GA1UdDgQWBBRwl5KdKhgNrV/ehimgRN8LPkGk1TAf
BgNVHSMEGDAWgBSbJguKmKm7HbkfHOMaQDPtjheIqzAdBgNVHSUEFjAUBggrBgEF
BQcDAQYIKwYBBQUHAwIwDwYDVR0RBAgwBocEfwAAATANBgkqhkiG9w0BAQsFAAOC
AQEAgP689ZqXz6ImY+VKSlNxvEDipTAhKPgOErEAvKvIUIun/BXvPFfvkpD/iUJC
NG0A/9YKqIkLyc/7FWpsq8AYBWjloe/UIFUMT4Ta998pSmnJjxzIpsnKoIa8xE2W
D2JjS+qFjfpaK35OH0pg7YrM9A9tVi/OGFZUwx8JOdJiY3URP3BvzK/LxFLHHxlf
ziRb+FTIJXioUev5JkHh8KEp7PyMqu0s/Uko/60q6oeDzwKsGy2h5w5RWY9iq5Xx
tPKfYqcEshOorkGItRwMz1rzp0HSnIhNUFQUw1jBEJNJMyH/AEEMcX4Aq0Q16sHE
HHahOgkhNYtFE7qaWKDmjx5VlA==
-----END CERTIFICATE-----
