Certificate:
    Data:
        Version: 3 (0x2)
        Serial Number:
            cf:95:70:1c:b6:6c:07:bb:a4:de:63:24:47:3b:4e:d8
        Signature Algorithm: sha256WithRSAEncryption
        Issuer: C=US, ST=California, L=Mountain View, O=Test CA, CN=Test Root CA
        Validity
            Not Before: Sep  2 00:00:00 2020 GMT
            Not After : Oct  5 00:00:01 2021 GMT
        Subject: C=US, ST=California, L=Mountain View, O=Test CA, CN=127.0.0.1
        Subject Public Key Info:
            Public Key Algorithm: rsaEncryption
                Public-Key: (2048 bit)
                Modulus:
                    00:a6:bd:97:da:a1:99:3d:cb:f8:3c:8c:e2:5f:d3:
                    34:07:7b:90:a6:f0:91:bf:0e:9f:a5:e0:91:59:9f:
                    03:dc:b2:d5:a8:4e:16:a4:00:89:c5:be:26:94:35:
                    e3:f9:06:d1:29:25:c3:72:ac:ec:61:5a:76:d0:62:
                    56:00:bc:ab:78:e8:5e:11:03:b7:fd:8e:f8:8c:83:
                    e0:eb:bb:2c:ff:11:b9:c1:cf:4a:25:6a:36:93:b7:
                    50:59:ec:8c:d5:a3:14:44:58:9b:15:7b:b0:55:26:
                    d3:4e:d9:84:18:47:a8:04:0f:4d:2c:d1:6c:77:3d:
                    84:2e:74:12:7d:79:9e:04:ba:b3:7a:4d:55:d3:b3:
                    53:c8:f7:f0:d1:9a:cf:a4:45:9a:a1:75:5a:81:9d:
                    c7:a6:82:41:68:dd:31:23:b3:e8:ea:e2:08:bd:2c:
                    69:f6:ed:1e:e6:f3:13:e0:aa:2b:6f:8a:ce:42:5d:
                    56:9e:1f:5a:fb:21:82:e9:df:20:56:19:90:1d:f4:
                    66:44:a6:ce:46:ab:66:e2:d7:11:b7:eb:3b:3f:0e:
                    81:68:c5:4b:6a:3a:17:7d:8c:2b:b0:e6:71:28:a1:
                    6b:99:3a:33:10:79:b9:2e:79:a4:ec:13:ae:21:a2:
                    26:e1:c7:84:c9:d6:77:9e:2f:56:fc:86:72:6f:a5:
                    94:63
                Exponent: 65537 (0x10001)
        X509v3 extensions:
            X509v3 Basic Constraints: critical
                CA:FALSE
            X509v3 Subject Key Identifier: 
                BF:39:9F:D3:E2:20:25:30:DA:7C:81:52:1C:77:29:E2:0E:FF:D1:C5
            X509v3 Authority Key Identifier: 
                9B:26:0B:8A:98:A9:BB:1D:B9:1F:1C:E3:1A:40:33:ED:8E:17:88:AB
            X509v3 Extended Key Usage: 
                TLS Web Server Authentication, TLS Web Client Authentication
            X509v3 Subject Alternative Name: 
                IP Address:127.0.0.1
    Signature Algorithm: sha256WithRSAEncryption
    Signature Value:
        66:7e:62:e6:45:08:cc:25:05:cd:4b:9e:17:9a:08:d3:d3:5c:
        30:98:68:fd:05:51:13:ef:a5:8b:7a:66:17:69:d8:78:01:9b:
        ed:54:10:22:7b:52:d6:f7:52:37:92:8c:22:a1:29:b0:fc:ad:
        bd:ba:7f:0b:fd:c0:d3:71:6a:2d:c1:95:ca:54:fb:1a:10:ee:
        f1:61:53:5a:26:a4:2e:a8:9e:c2:9c:39:65:6e:cc:20:d7:75:
        48:f8:f5:7e:df:f6:00:2a:6e:3e:9d:e8:3b:09:84:6f:96:ff:
        04:9a:a7:e3:93:73:e6:cd:ae:88:60:39:8b:8e:4e:4d:58:e5:
        05:c5:e8:ea:3a:b1:a1:e4:74:16:1a:fe:2e:74:0f:5b:52:ea:
        46:aa:5a:b8:b8:94:bb:b4:a2:ec:32:72:ff:c4:02:de:fa:93:
        1e:e3:22:23:03:16:e3:bd:02:65:d4:67:f2:b6:af:d4:42:69:
        61:79:5a:54:1d:47:b3:2d:be:5a:87:7d:0c:7f:44:f7:1b:f4:
        c0:e4:ca:fc:34:53:e5:41:56:85:32:0f:a3:b5:79:10:6d:25:
        f3:5f:d9:27:9c:82:c9:be:b5:d2:a8:06:94:a6:bf:3a:03:94:
        8b:b0:79:a5:1c:02:99:7e:2d:6a:9a:5b:a6:7d:7a:1c:f6:4c:
        a3:9f:fc:18
-----BEGIN CERTIFICATE-----
MIIDzzCCAregAwIBAgIRAM+VcBy2bAe7pN5jJEc7TtgwDQYJKoZIhvcNAQELBQAw
YzELMAkGA1UEBhMCVVMxEzARBgNVBAgMCkNhbGlmb3JuaWExFjAUBgNVBAcMDU1v
dW50YWluIFZpZXcxEDAOBgNVBAoMB1Rlc3QgQ0ExFTATBgNVBAMMDFRlc3QgUm9v
dCBDQTAeFw0yMDA5MDIwMDAwMDBaFw0yMTEwMDUwMDAwMDFaMGAxCzAJBgNVBAYT
AlVTMRMwEQYDVQQIDApDYWxpZm9ybmlhMRYwFAYDVQQHDA1Nb3VudGFpbiBWaWV3
MRAwDgYDVQQKDAdUZXN0IENBMRIwEAYDVQQDDAkxMjcuMC4wLjEwggEiMA0GCSqG
SIb3DQEBAQUAA4IBDwAwggEKAoIBAQCmvZfaoZk9y/g8jOJf0zQHe5Cm8JG/Dp+l
4JFZnwPcstWoThakAInFviaUNeP5BtEpJcNyrOxhWnbQYlYAvKt46F4RA7f9jviM
g+Druyz/EbnBz0olajaTt1BZ7IzVoxREWJsVe7BVJtNO2YQYR6gED00s0Wx3PYQu
dBJ9eZ4EurN6TVXTs1PI9/DRms+kRZqhdVqBncemgkFo3TEjs+jq4gi9LGn27R7m
8xPgqitvis5CXVaeH1r7IYLp3yBWGZAd9GZEps5Gq2bi1xG36zs/DoFoxUtqOhd9
jCuw5nEooWuZOjMQebkueaTsE64hoibhx4TJ1neeL1b8hnJvpZRjAgMBAAGjgYAw
fjAMBgNVHRMBAf8EAjAAMB0GA1UdDgQWBBS/OZ/T4iAlMNp8gVIcdyniDv/RxTAf
BgNVHSMEGDAWgBSbJguKmKm7HbkfHOMaQDPtjheIqzAdBgNVHSUEFjAUBggrBgEF
BQcDAQYIKwYBBQUHAwIwDwYDVR0RBAgwBocEfwAAATANBgkqhkiG9w0BAQsFAAOC
AQEAZn5i5kUIzCUFzUueF5oI09NcMJho/QVRE++li3pmF2nYeAGb7VQQIntS1vdS
N5KMIqEpsPytvbp/C/3A03FqLcGVylT7GhDu8WFTWiakLqiewpw5ZW7MINd1SPj1
ft/2ACpuPp3oOwmEb5b/BJqn45Nz5s2uiGA5i45OTVjlBcXo6jqxoeR0Fhr+LnQP
W1LqRqpauLiUu7Si7DJy/8QC3vqTHuMiIwMW470CZdRn8rav1EJpYXlaVB1Hsy2+
Wod9DH9E9xv0wOTK/DRT5UFWhTIPo7V5EG0l81/ZJ5yCyb610qgGlKa/OgOUi7B5
pRwCmX4tappbpn16HPZMo5/8GA==
-----END CERTIFICATE-----
