Certificate:
    Data:
        Version: 3 (0x2)
        Serial Number:
            b0:6b:93:92:e3:5c:8d:7e:ed:9d:c8:96:59:c5:c2:80
        Signature Algorithm: sha256WithRSAEncryption
        Issuer: C=US, ST=California, L=Mountain View, O=Test CA, CN=Test Root CA
        Validity
            Not Before: Sep  2 00:00:00 2020 GMT
            Not After : Oct  5 00:00:01 2021 GMT
        Subject: C=US, ST=California, L=Mountain View, O=Test CA, CN=127.0.0.1
        Subject Public Key Info:
            Public Key Algorithm: rsaEncryption
                Public-Key: (2048 bit)
                Modulus:
                    00:b3:2b:e0:a9:cb:53:7c:f1:9e:96:4e:70:a3:8d:
                    32:7b:bc:e0:2f:71:83:08:9f:e3:56:5c:dd:38:65:
                    2f:53:c0:0f:41:ef:cd:93:a9:bb:13:20:89:15:90:
                    3a:38:68:d3:2f:c7:15:b4:7c:ba:77:76:ac:f8:da:
                    a9:bd:04:1b:5a:f6:b1:6c:36:71:fe:08:93:88:b3:
                    47:35:39:2b:19:be:e4:f4:1a:bb:30:ea:95:12:1c:
                    cc:9f:17:be:6d:ab:0a:4e:91:61:78:46:da:3d:0a:
                    47:fb:64:a8:74:de:e4:71:f8:e9:da:80:66:d2:8b:
                    54:c4:39:2f:18:b2:03:a7:21:77:d0:a6:1f:c6:0c:
                    12:13:58:fb:ed:7b:b3:d8:8e:bc:79:b4:ff:7a:c7:
                    28:88:a0:c5:fb:35:05:29:54:9f:ed:a2:9d:d1:1b:
                    35:74:67:28:17:ba:2c:63:42:2e:ce:5e:0a:07:13:
                    a6:d4:65:99:6b:b5:32:5f:05:74:ba:9c:f4:ef:b6:
                    00:79:db:0d:e4:06:a3:a4:c6:45:b8:46:26:aa:2e:
                    0a:42:53:e7:e6:23:7f:65:07:97:bc:c5:5c:df:b3:
                    b1:9f:f9:a3:35:93:7e:68:20:74:89:5f:bb:b7:ed:
                    af:b5:49:a7:fb:93:19:aa:e7:cc:39:5a:a9:4f:31:
                    3b:b7
                Exponent: 65537 (0x10001)
        X509v3 extensions:
            X509v3 Basic Constraints: critical
                CA:FALSE
            X509v3 Subject Key Identifier: 
                DC:18:E7:85:9D:70:27:B8:2C:64:7D:A1:29:D9:F0:7C:BF:13:AA:A1
            X509v3 Authority Key Identifier: 
                9B:26:0B:8A:98:A9:BB:1D:B9:1F:1C:E3:1A:40:33:ED:8E:17:88:AB
            X509v3 Extended Key Usage: 
                TLS Web Server Authentication, TLS Web Client Authentication
            X509v3 Subject Alternative Name: 
                IP Address:127.0.0.1
    Signature Algorithm: sha256WithRSAEncryption
    Signature Value:
        4b:d2:23:be:c9:f4:62:68:87:bf:f1:bd:1d:0f:05:ea:5f:95:
        f0:34:85:1b:8f:4e:fd:86:34:f9:96:d7:5a:9c:5e:01:53:2a:
        47:d1:30:c5:1b:b7:29:f2:66:48:70:07:ac:75:77:ab:e7:b3:
        84:62:9e:35:7d:8b:37:b2:20:d2:7f:82:88:ee:f9:71:e4:ea:
        bc:1d:4a:e7:22:a3:1c:c2:1a:33:e1:9b:fe:6e:0d:81:15:ef:
        2f:9d:75:75:0c:cd:00:b3:e6:47:52:32:bd:a0:5c:66:95:1c:
        c6:5d:12:dd:f7:24:6e:fb:e9:2f:22:56:6d:3e:7d:41:9b:85:
        63:94:f7:0d:0d:1b:f9:18:8a:f4:e1:fa:f0:d3:b7:a7:38:ca:
        e8:fc:09:c5:89:26:7d:95:db:66:23:38:3e:84:1b:23:08:8a:
        af:4d:0e:89:12:6a:d3:d6:9f:7c:2c:ce:da:c3:c8:67:ff:d7:
        49:15:2f:26:0b:85:86:48:dc:2a:77:99:6f:47:86:3b:cb:30:
        36:95:ea:58:b4:c2:cd:b2:86:10:5f:03:a3:3d:de:ad:3e:7b:
        5f:7e:32:ae:67:fc:b8:23:10:ff:05:73:93:c5:a7:62:47:fa:
        a0:a1:80:04:13:94:0c:29:ca:97:71:87:9f:78:2e:88:29:c8:
        3c:d6:a3:66
-----BEGIN CERTIFICATE-----
MIIDzzCCAregAwIBAgIRALBrk5LjXI1+7Z3IllnFwoAwDQYJKoZIhvcNAQELBQAw
YzELMAkGA1UEBhMCVVMxEzARBgNVBAgMCkNhbGlmb3JuaWExFjAUBgNVBAcMDU1v
dW50YWluIFZpZXcxEDAOBgNVBAoMB1Rlc3QgQ0ExFTATBgNVBAMMDFRlc3QgUm9v
dCBDQTAeFw0yMDA5MDIwMDAwMDBaFw0yMTEwMDUwMDAwMDFaMGAxCzAJBgNVBAYT
AlVTMRMwEQYDVQQIDApDYWxpZm9ybmlhMRYwFAYDVQQHDA1Nb3VudGFpbiBWaWV3
MRAwDgYDVQQKDAdUZXN0IENBMRIwEAYDVQQDDAkxMjcuMC4wLjEwggEiMA0GCSqG
SIb3DQEBAQUAA4IBDwAwggEKAoIBAQCzK+Cpy1N88Z6WTnCjjTJ7vOAvcYMIn+NW
XN04ZS9TwA9B782TqbsTIIkVkDo4aNMvxxW0fLp3dqz42qm9BBta9rFsNnH+CJOI
s0c1OSsZvuT0Grsw6pUSHMyfF75tqwpOkWF4Rto9Ckf7ZKh03uRx+OnagGbSi1TE
OS8YsgOnIXfQph/GDBITWPvte7PYjrx5tP96xyiIoMX7NQUpVJ/top3RGzV0ZygX
uixjQi7OXgoHE6bUZZlrtTJfBXS6nPTvtgB52w3kBqOkxkW4RiaqLgpCU+fmI39l
B5e8xVzfs7Gf+aM1k35oIHSJX7u37a+1Saf7kxmq58w5WqlPMTu3AgMBAAGjgYAw
fjAMBgNVHRMBAf8EAjAAMB0GA1UdDgQWBBTcGOeFnXAnuCxkfaEp2fB8vxOqoTAf
BgNVHSMEGDAWgBSbJguKmKm7HbkfHOMaQDPtjheIqzAdBgNVHSUEFjAUBggrBgEF
BQcDAQYIKwYBBQUHAwIwDwYDVR0RBAgwBocEfwAAATANBgkqhkiG9w0BAQsFAAOC
AQEAS9Ijvsn0YmiHv/G9HQ8F6l+V8DSFG49O/YY0+ZbXWpxeAVMqR9EwxRu3KfJm
SHAHrHV3q+ezhGKeNX2LN7Ig0n+CiO75ceTqvB1K5yKjHMIaM+Gb/m4NgRXvL511
dQzNALPmR1IyvaBcZpUcxl0S3fckbvvpLyJWbT59QZuFY5T3DQ0b+RiK9OH68NO3
pzjK6PwJxYkmfZXbZiM4PoQbIwiKr00OiRJq09affCzO2sPIZ//XSRUvJguFhkjc
KneZb0eGO8swNpXqWLTCzbKGEF8Doz3erT57X34yrmf8uCMQ/wVzk8WnYkf6oKGA
BBOUDCnKl3GHn3guiCnIPNajZg==
-----END CERTIFICATE-----
