Certificate:
    Data:
        Version: 3 (0x2)
        Serial Number:
            ef:2f:0a:6a:75:56:1e:b1:0b:03:50:df:7c:9a:63:ba
        Signature Algorithm: sha256WithRSAEncryption
        Issuer: C=US, ST=California, L=Mountain View, O=Test CA, CN=Test Root CA
        Validity
            Not Before: Sep  2 00:00:00 2020 GMT
            Not After : Oct  5 00:00:00 2021 GMT
        Subject: C=US, ST=California, L=Mountain View, O=Test CA, CN=127.0.0.1
        Subject Public Key Info:
            Public Key Algorithm: rsaEncryption
                RSA Public-Key: (2048 bit)
                Modulus:
                    00:d3:41:3d:2b:88:60:a1:04:75:8f:26:22:b0:55:
                    52:26:fd:78:db:f4:f8:c4:89:d7:f2:b2:77:85:02:
                    25:4a:48:08:1d:e0:1c:df:90:29:9a:fa:94:ca:c5:
                    51:ee:49:72:35:70:e0:40:f8:4f:7f:e3:97:68:9f:
                    2d:1f:68:b6:1c:e6:29:02:cc:3d:ca:31:3f:e1:a5:
                    70:30:40:f0:b0:4f:ed:21:5f:17:b8:49:30:bc:aa:
                    d4:0a:11:d5:85:b6:2d:91:f4:19:f5:1d:29:94:83:
                    08:ec:fc:03:fc:b1:f1:24:87:35:14:ab:9c:57:ae:
                    f5:a2:f5:74:24:23:93:2d:aa:10:4d:8b:3d:7f:26:
                    66:88:3a:a0:a3:7f:d6:e8:35:d5:6f:9c:46:5f:77:
                    d5:e2:6f:59:cf:d0:ac:d2:09:b1:11:5f:62:83:c7:
                    f7:57:22:37:20:68:eb:29:ec:da:d2:d9:2a:99:a9:
                    56:c3:f7:62:89:f2:43:b4:e8:48:4b:ba:af:2e:81:
                    29:5b:e0:1c:a4:b0:11:f9:8a:38:3e:8a:02:5d:6e:
                    0a:01:c7:ee:da:db:25:b7:b2:49:ad:b3:63:42:7c:
                    a6:d3:0d:3c:bb:4b:86:ba:be:45:fc:03:18:2a:8d:
                    57:81:57:0c:21:14:c3:cb:4c:db:8b:ee:d5:ce:7a:
                    5c:a7
                Exponent: 65537 (0x10001)
        X509v3 extensions:
            X509v3 Basic Constraints: critical
                CA:FALSE
            X509v3 Subject Key Identifier: 
                13:0F:2C:60:16:93:D8:1D:23:A3:72:5F:53:88:02:23:C9:2A:6B:CF
            X509v3 Authority Key Identifier: 
                keyid:9B:26:0B:8A:98:A9:BB:1D:B9:1F:1C:E3:1A:40:33:ED:8E:17:88:AB

            X509v3 Extended Key Usage: 
                TLS Web Server Authentication, TLS Web Client Authentication
            X509v3 Subject Alternative Name: 
                IP Address:127.0.0.1
    Signature Algorithm: sha256WithRSAEncryption
         bf:48:b6:5d:1e:6e:bb:ff:65:33:c3:39:ab:82:8e:54:b1:ff:
         b5:58:41:fb:91:27:a5:61:d8:0c:cc:97:62:31:4f:f7:61:a2:
         91:ba:16:ed:73:08:7f:75:be:b5:6e:50:79:c3:a0:73:1b:4d:
         a1:85:cc:48:54:5c:27:1e:03:96:a8:1e:65:2e:0f:7c:9d:78:
         30:84:db:46:ec:48:53:26:b8:8f:ee:89:9c:c9:f2:c1:92:ce:
         f6:fc:0f:c8:bc:6f:e0:ce:83:a8:85:7d:19:c3:07:f1:31:c0:
         5f:f9:d0:4c:90:89:59:69:3e:54:69:eb:15:52:3d:9e:b9:71:
         14:d4:a6:20:e0:d6:de:2b:b7:04:43:85:54:a7:42:d6:ca:00:
         b4:57:68:93:65:6c:36:90:3f:5c:23:23:e3:7a:62:36:92:8f:
         e7:37:0e:65:0b:71:fe:72:ed:8c:d3:da:bd:98:66:01:e6:4d:
         91:11:ab:e5:f1:c8:79:66:8e:27:f9:e0:60:49:fc:86:ed:95:
         36:9a:15:ca:84:d4:d4:69:1c:c2:d5:c7:30:ac:7e:f1:97:49:
         ec:8e:39:ab:3c:58:2e:2f:21:13:f8:ee:a5:00:49:ca:88:7a:
         8b:e7:b9:5d:37:92:5c:b8:8d:8e:27:84:01:1f:14:6c:33:11:
         4b:cd:9a:e0
-----BEGIN CERTIFICATE-----
MIIDzzCCAregAwIBAgIRAO8vCmp1Vh6xCwNQ33yaY7owDQYJKoZIhvcNAQELBQAw
YzELMAkGA1UEBhMCVVMxEzARBgNVBAgMCkNhbGlmb3JuaWExFjAUBgNVBAcMDU1v
dW50YWluIFZpZXcxEDAOBgNVBAoMB1Rlc3QgQ0ExFTATBgNVBAMMDFRlc3QgUm9v
dCBDQTAeFw0yMDA5MDIwMDAwMDBaFw0yMTEwMDUwMDAwMDBaMGAxCzAJBgNVBAYT
AlVTMRMwEQYDVQQIDApDYWxpZm9ybmlhMRYwFAYDVQQHDA1Nb3VudGFpbiBWaWV3
MRAwDgYDVQQKDAdUZXN0IENBMRIwEAYDVQQDDAkxMjcuMC4wLjEwggEiMA0GCSqG
SIb3DQEBAQUAA4IBDwAwggEKAoIBAQDTQT0riGChBHWPJiKwVVIm/Xjb9PjEidfy
sneFAiVKSAgd4BzfkCma+pTKxVHuSXI1cOBA+E9/45dony0faLYc5ikCzD3KMT/h
pXAwQPCwT+0hXxe4STC8qtQKEdWFti2R9Bn1HSmUgwjs/AP8sfEkhzUUq5xXrvWi
9XQkI5MtqhBNiz1/JmaIOqCjf9boNdVvnEZfd9Xib1nP0KzSCbERX2KDx/dXIjcg
aOsp7NrS2SqZqVbD92KJ8kO06EhLuq8ugSlb4ByksBH5ijg+igJdbgoBx+7a2yW3
skmts2NCfKbTDTy7S4a6vkX8AxgqjVeBVwwhFMPLTNuL7tXOelynAgMBAAGjgYAw
fjAMBgNVHRMBAf8EAjAAMB0GA1UdDgQWBBQTDyxgFpPYHSOjcl9TiAIjySprzzAf
BgNVHSMEGDAWgBSbJguKmKm7HbkfHOMaQDPtjheIqzAdBgNVHSUEFjAUBggrBgEF
BQcDAQYIKwYBBQUHAwIwDwYDVR0RBAgwBocEfwAAATANBgkqhkiG9w0BAQsFAAOC
AQEAv0i2XR5uu/9lM8M5q4KOVLH/tVhB+5EnpWHYDMyXYjFP92GikboW7XMIf3W+
tW5QecOgcxtNoYXMSFRcJx4DlqgeZS4PfJ14MITbRuxIUya4j+6JnMnywZLO9vwP
yLxv4M6DqIV9GcMH8THAX/nQTJCJWWk+VGnrFVI9nrlxFNSmIODW3iu3BEOFVKdC
1soAtFdok2VsNpA/XCMj43piNpKP5zcOZQtx/nLtjNPavZhmAeZNkRGr5fHIeWaO
J/ngYEn8hu2VNpoVyoTU1GkcwtXHMKx+8ZdJ7I45qzxYLi8hE/jupQBJyoh6i+e5
XTeSXLiNjieEAR8UbDMRS82a4A==
-----END CERTIFICATE-----
