Certificate:
    Data:
        Version: 3 (0x2)
        Serial Number:
            12:f6:d9:f1:80:1b:50:9f:64:09:c8:ea:2f:16:33:ba
        Signature Algorithm: sha256WithRSAEncryption
        Issuer: C=US, ST=California, L=Mountain View, O=Test CA, CN=Test Root CA
        Validity
            Not Before: Sep  2 00:00:00 2020 GMT
            Not After : Oct  6 00:00:00 2021 GMT
        Subject: C=US, ST=California, L=Mountain View, O=Test CA, CN=127.0.0.1
        Subject Public Key Info:
            Public Key Algorithm: rsaEncryption
                RSA Public-Key: (2048 bit)
                Modulus:
                    00:b7:11:fa:c9:48:1a:c4:0a:c7:70:4e:37:51:2f:
                    27:ac:72:15:be:68:85:b0:dd:23:fc:69:f4:b1:02:
                    10:9c:49:d1:db:81:93:33:9b:d6:80:75:99:84:bd:
                    6a:e3:b1:b1:57:89:40:a7:25:ff:34:d5:6a:a8:9a:
                    97:c0:ef:f3:44:c4:15:89:bb:12:f8:9d:96:bc:4f:
                    93:2e:3b:3e:e4:41:76:17:d8:bb:22:f4:84:b6:a0:
                    80:41:f8:6b:42:ba:a1:27:17:ce:c4:ee:cf:8a:47:
                    92:c4:4c:97:4f:72:32:a4:0e:65:96:5e:72:f6:39:
                    9c:b1:cc:d9:6a:70:24:de:8c:c3:c9:23:76:47:10:
                    73:02:86:4b:55:fd:fa:cf:f8:70:27:a8:f0:24:dc:
                    f2:cd:a7:d0:d6:32:11:45:7c:81:3f:de:06:bb:4b:
                    98:95:9c:6c:6b:a3:bb:13:19:e0:04:ed:64:bd:de:
                    f3:b6:d1:05:1b:c3:77:69:d6:f9:f9:7a:f6:ed:51:
                    ce:43:6b:d9:1e:6b:97:8f:f8:b7:d6:e9:45:66:5d:
                    77:c7:58:55:05:c2:4a:68:de:e0:5d:cf:2b:4f:f2:
                    8b:3e:4e:30:76:45:ea:5b:c9:06:5f:b7:5c:39:37:
                    fc:2c:52:bd:2a:65:64:c2:73:45:96:76:ec:c2:a1:
                    c4:c7
                Exponent: 65537 (0x10001)
        X509v3 extensions:
            X509v3 Basic Constraints: critical
                CA:FALSE
            X509v3 Subject Key Identifier: 
                E7:22:97:64:A1:4B:34:FA:62:0E:EC:A5:8F:9F:93:E9:2C:F3:4D:DB
            X509v3 Authority Key Identifier: 
                keyid:9B:26:0B:8A:98:A9:BB:1D:B9:1F:1C:E3:1A:40:33:ED:8E:17:88:AB

            X509v3 Extended Key Usage: 
                TLS Web Server Authentication, TLS Web Client Authentication
            X509v3 Subject Alternative Name: 
                IP Address:127.0.0.1
    Signature Algorithm: sha256WithRSAEncryption
         93:f2:8c:e6:44:0b:a8:e8:95:66:a0:be:0b:3c:60:0f:3b:28:
         91:e3:8d:33:6b:65:4c:3f:43:37:2f:1f:b1:1f:e3:59:98:55:
         64:0c:5d:63:b5:1c:3b:ac:af:68:42:a7:5c:3e:b9:97:6b:54:
         16:14:a5:18:a8:ec:7f:a2:f1:a0:60:c1:68:ca:26:9e:03:d1:
         04:30:3e:65:91:c5:0c:3b:0d:50:8a:20:07:49:30:f0:cf:91:
         67:f0:23:21:24:b1:ef:56:bb:02:0f:38:19:05:64:b0:c4:70:
         c0:6d:30:65:36:60:e2:e3:80:52:dc:3c:30:97:6b:4f:ae:5a:
         e3:54:fb:0e:28:41:62:f9:97:c7:d5:27:e5:79:8c:b4:1e:cd:
         d5:4f:4f:b7:96:fe:c9:7c:fe:9c:94:d2:dd:78:06:b4:d5:c7:
         f7:97:ce:a5:7c:c3:ba:ca:79:43:98:89:90:82:2e:14:e4:e4:
         3a:6b:36:97:8f:bc:1c:74:df:78:10:68:f6:0f:14:d4:54:06:
         5e:10:6b:56:13:a7:c7:ea:16:b4:3d:90:cf:a8:70:30:70:28:
         47:0c:c9:08:f0:c7:f3:07:9f:0b:bb:ad:46:d0:a8:dd:70:27:
         e2:95:7d:ce:be:2a:30:0f:3a:e3:c8:20:d5:c0:1e:29:19:01:
         25:c9:b6:6f
-----BEGIN CERTIFICATE-----
MIIDzjCCAragAwIBAgIQEvbZ8YAbUJ9kCcjqLxYzujANBgkqhkiG9w0BAQsFADBj
MQswCQYDVQQGEwJVUzETMBEGA1UECAwKQ2FsaWZvcm5pYTEWMBQGA1UEBwwNTW91
bnRhaW4gVmlldzEQMA4GA1UECgwHVGVzdCBDQTEVMBMGA1UEAwwMVGVzdCBSb290
IENBMB4XDTIwMDkwMjAwMDAwMFoXDTIxMTAwNjAwMDAwMFowYDELMAkGA1UEBhMC
VVMxEzARBgNVBAgMCkNhbGlmb3JuaWExFjAUBgNVBAcMDU1vdW50YWluIFZpZXcx
EDAOBgNVBAoMB1Rlc3QgQ0ExEjAQBgNVBAMMCTEyNy4wLjAuMTCCASIwDQYJKoZI
hvcNAQEBBQADggEPADCCAQoCggEBALcR+slIGsQKx3BON1EvJ6xyFb5ohbDdI/xp
9LECEJxJ0duBkzOb1oB1mYS9auOxsVeJQKcl/zTVaqial8Dv80TEFYm7EvidlrxP
ky47PuRBdhfYuyL0hLaggEH4a0K6oScXzsTuz4pHksRMl09yMqQOZZZecvY5nLHM
2WpwJN6Mw8kjdkcQcwKGS1X9+s/4cCeo8CTc8s2n0NYyEUV8gT/eBrtLmJWcbGuj
uxMZ4ATtZL3e87bRBRvDd2nW+fl69u1RzkNr2R5rl4/4t9bpRWZdd8dYVQXCSmje
4F3PK0/yiz5OMHZF6lvJBl+3XDk3/CxSvSplZMJzRZZ27MKhxMcCAwEAAaOBgDB+
MAwGA1UdEwEB/wQCMAAwHQYDVR0OBBYEFOcil2ShSzT6Yg7spY+fk+ks803bMB8G
A1UdIwQYMBaAFJsmC4qYqbsduR8c4xpAM+2OF4irMB0GA1UdJQQWMBQGCCsGAQUF
BwMBBggrBgEFBQcDAjAPBgNVHREECDAGhwR/AAABMA0GCSqGSIb3DQEBCwUAA4IB
AQCT8ozmRAuo6JVmoL4LPGAPOyiR440za2VMP0M3Lx+xH+NZmFVkDF1jtRw7rK9o
QqdcPrmXa1QWFKUYqOx/ovGgYMFoyiaeA9EEMD5lkcUMOw1QiiAHSTDwz5Fn8CMh
JLHvVrsCDzgZBWSwxHDAbTBlNmDi44BS3Dwwl2tPrlrjVPsOKEFi+ZfH1SfleYy0
Hs3VT0+3lv7JfP6clNLdeAa01cf3l86lfMO6ynlDmImQgi4U5OQ6azaXj7wcdN94
EGj2DxTUVAZeEGtWE6fH6ha0PZDPqHAwcChHDMkI8MfzB58Lu61G0KjdcCfilX3O
viowDzrjyCDVwB4pGQElybZv
-----END CERTIFICATE-----
