Certificate:
    Data:
        Version: 3 (0x2)
        Serial Number:
            cf:95:70:1c:b6:6c:07:bb:a4:de:63:24:47:3b:4e:d6
        Signature Algorithm: sha256WithRSAEncryption
        Issuer: C=US, ST=California, L=Mountain View, O=Test CA, CN=Test Root CA
        Validity
            Not Before: Sep  2 00:00:00 2020 GMT
            Not After : Oct  6 00:00:00 2021 GMT
        Subject: C=US, ST=California, L=Mountain View, O=Test CA, CN=127.0.0.1
        Subject Public Key Info:
            Public Key Algorithm: rsaEncryption
                Public-Key: (2048 bit)
                Modulus:
                    00:8c:c1:53:b0:3d:88:4f:1f:05:ed:61:f1:60:ed:
                    5b:cc:19:94:31:5f:73:3c:be:9b:72:0b:5b:88:e6:
                    08:d7:f2:70:8e:2b:02:3a:ad:34:63:b4:01:27:58:
                    3a:89:8d:e7:85:c2:6b:1f:84:9e:b8:8e:09:4b:c6:
                    32:82:ce:b6:2f:1e:19:bd:5c:18:ed:df:3a:e1:16:
                    04:6f:1f:2b:4e:c4:da:c5:73:99:71:0e:f2:ce:4f:
                    33:c9:36:45:e7:b2:f6:7c:50:af:77:ab:cc:a9:99:
                    b6:ff:d1:04:cb:5d:c9:ec:1f:5e:f1:7f:ef:bb:16:
                    3e:a3:b4:ca:ab:6f:93:ec:6a:78:84:ed:65:a2:97:
                    0d:54:1a:d8:31:03:71:57:7e:99:d4:97:64:94:e5:
                    04:d2:6b:1e:28:69:1f:6d:9c:bb:81:0a:6d:24:21:
                    16:38:86:b5:74:42:2b:5b:8e:b3:23:d3:10:a1:31:
                    fc:51:ff:5f:80:2f:46:5e:86:a2:81:4b:99:58:f6:
                    19:b0:b9:56:91:fc:82:4d:cb:d2:77:d0:6f:de:87:
                    85:4f:5e:01:23:4d:7d:83:da:ca:9d:06:f1:29:89:
                    ec:b3:b8:11:64:55:99:f3:8a:a8:1b:ea:09:00:52:
                    d6:86:e3:ef:88:e6:6e:a2:ea:95:b0:cf:e1:16:ac:
                    5a:17
                Exponent: 65537 (0x10001)
        X509v3 extensions:
            X509v3 Basic Constraints: critical
                CA:FALSE
            X509v3 Subject Key Identifier: 
                EC:25:18:F4:C6:B3:80:31:18:5E:26:2D:5A:F0:47:1B:86:06:5E:5F
            X509v3 Authority Key Identifier: 
                9B:26:0B:8A:98:A9:BB:1D:B9:1F:1C:E3:1A:40:33:ED:8E:17:88:AB
            X509v3 Extended Key Usage: 
                TLS Web Server Authentication, TLS Web Client Authentication
            X509v3 Subject Alternative Name: 
                IP Address:127.0.0.1
    Signature Algorithm: sha256WithRSAEncryption
    Signature Value:
        04:be:28:0f:d1:77:4e:02:5a:c8:4a:ec:a5:d1:eb:98:ca:b2:
        37:8c:80:dd:53:f7:13:64:04:bf:f9:7b:20:91:5f:4b:02:c1:
        c3:ad:a1:64:b6:e3:47:09:04:ff:e9:98:4e:1d:9b:e2:74:47:
        19:df:04:6b:bf:8e:90:71:b4:d7:05:6d:ad:ce:1e:1a:bd:3d:
        e1:ac:8d:2b:e6:be:1c:8f:fe:db:df:37:ed:30:af:54:8e:6c:
        99:a3:0d:c2:f4:70:e8:08:ea:84:e1:51:22:b0:82:0d:11:ce:
        b5:d5:d9:77:cf:84:a3:03:a1:99:45:b8:f9:5a:04:c1:6c:87:
        cc:82:9d:fc:cd:2e:53:86:bd:42:86:cc:03:30:45:5e:c8:4c:
        22:ba:df:16:ec:a9:1a:75:23:df:1e:49:73:d9:3c:eb:0e:ee:
        64:d2:c8:31:97:20:74:9d:c2:98:a1:eb:e7:98:05:36:76:40:
        fb:c5:ba:c7:ba:f1:6f:37:2c:53:65:0b:7e:d8:28:f3:11:d3:
        c4:7b:15:e3:ec:68:49:3c:ca:a4:e7:1b:04:e0:b1:7e:f8:75:
        6f:d0:a0:ba:73:b4:84:80:cf:d1:aa:68:c4:6b:c2:be:91:c7:
        c9:2f:10:03:cd:aa:7b:fe:87:ae:fe:44:69:bd:8f:d5:6f:9a:
        26:8f:63:9f
-----BEGIN CERTIFICATE-----
MIIDzzCCAregAwIBAgIRAM+VcBy2bAe7pN5jJEc7TtYwDQYJKoZIhvcNAQELBQAw
YzELMAkGA1UEBhMCVVMxEzARBgNVBAgMCkNhbGlmb3JuaWExFjAUBgNVBAcMDU1v
dW50YWluIFZpZXcxEDAOBgNVBAoMB1Rlc3QgQ0ExFTATBgNVBAMMDFRlc3QgUm9v
dCBDQTAeFw0yMDA5MDIwMDAwMDBaFw0yMTEwMDYwMDAwMDBaMGAxCzAJBgNVBAYT
AlVTMRMwEQYDVQQIDApDYWxpZm9ybmlhMRYwFAYDVQQHDA1Nb3VudGFpbiBWaWV3
MRAwDgYDVQQKDAdUZXN0IENBMRIwEAYDVQQDDAkxMjcuMC4wLjEwggEiMA0GCSqG
SIb3DQEBAQUAA4IBDwAwggEKAoIBAQCMwVOwPYhPHwXtYfFg7VvMGZQxX3M8vpty
C1uI5gjX8nCOKwI6rTRjtAEnWDqJjeeFwmsfhJ64jglLxjKCzrYvHhm9XBjt3zrh
FgRvHytOxNrFc5lxDvLOTzPJNkXnsvZ8UK93q8ypmbb/0QTLXcnsH17xf++7Fj6j
tMqrb5PsaniE7WWilw1UGtgxA3FXfpnUl2SU5QTSax4oaR9tnLuBCm0kIRY4hrV0
QitbjrMj0xChMfxR/1+AL0ZehqKBS5lY9hmwuVaR/IJNy9J30G/eh4VPXgEjTX2D
2sqdBvEpieyzuBFkVZnziqgb6gkAUtaG4++I5m6i6pWwz+EWrFoXAgMBAAGjgYAw
fjAMBgNVHRMBAf8EAjAAMB0GA1UdDgQWBBTsJRj0xrOAMRheJi1a8EcbhgZeXzAf
BgNVHSMEGDAWgBSbJguKmKm7HbkfHOMaQDPtjheIqzAdBgNVHSUEFjAUBggrBgEF
BQcDAQYIKwYBBQUHAwIwDwYDVR0RBAgwBocEfwAAATANBgkqhkiG9w0BAQsFAAOC
AQEABL4oD9F3TgJayErspdHrmMqyN4yA3VP3E2QEv/l7IJFfSwLBw62hZLbjRwkE
/+mYTh2b4nRHGd8Ea7+OkHG01wVtrc4eGr094ayNK+a+HI/+29837TCvVI5smaMN
wvRw6AjqhOFRIrCCDRHOtdXZd8+EowOhmUW4+VoEwWyHzIKd/M0uU4a9QobMAzBF
XshMIrrfFuypGnUj3x5Jc9k86w7uZNLIMZcgdJ3CmKHr55gFNnZA+8W6x7rxbzcs
U2ULftgo8xHTxHsV4+xoSTzKpOcbBOCxfvh1b9CgunO0hIDP0apoxGvCvpHHyS8Q
A82qe/6Hrv5Eab2P1W+aJo9jnw==
-----END CERTIFICATE-----
