Certificate:
    Data:
        Version: 3 (0x2)
        Serial Number:
            ef:2f:0a:6a:75:56:1e:b1:0b:03:50:df:7c:9a:63:b9
        Signature Algorithm: sha256WithRSAEncryption
        Issuer: C=US, ST=California, L=Mountain View, O=Test CA, CN=Test Root CA
        Validity
            Not Before: Sep  2 00:00:00 2020 GMT
            Not After : Oct  6 00:00:00 2021 GMT
        Subject: C=US, ST=California, L=Mountain View, O=Test CA, CN=127.0.0.1
        Subject Public Key Info:
            Public Key Algorithm: rsaEncryption
                RSA Public-Key: (2048 bit)
                Modulus:
                    00:c5:26:15:5a:01:bc:a6:ca:fe:e3:aa:f1:02:b3:
                    0d:f9:2f:0c:53:18:0b:b2:e1:8e:3b:e4:eb:bf:ff:
                    d3:90:40:7f:3c:f2:9c:c7:4d:c0:e5:7f:b2:8d:79:
                    e8:d9:c6:79:f4:2b:29:40:a7:5d:27:52:b7:d0:ed:
                    b6:aa:21:32:fd:57:27:6a:30:bb:bc:11:46:38:83:
                    5c:f4:ec:db:6c:99:29:5d:38:e0:41:e3:ae:fe:81:
                    5c:1e:53:51:95:55:e9:e6:e3:e6:20:52:40:c5:c7:
                    c7:18:96:08:96:66:fb:a6:3b:8a:8a:c1:b6:88:c9:
                    90:1b:42:fd:b2:1d:68:10:8f:f9:4e:94:df:31:4c:
                    36:b9:70:ff:82:7c:5a:84:9e:51:91:1e:8d:e7:23:
                    3a:7a:a3:65:6d:f8:b7:0a:87:1e:a5:78:04:2c:a8:
                    1c:f7:ed:a8:fd:f4:36:52:97:6c:f1:de:59:66:6e:
                    97:52:30:c8:60:59:ed:1a:5a:51:23:bc:83:9e:72:
                    b1:50:35:cd:a6:66:bf:ef:07:d4:f0:f4:ef:38:e5:
                    0d:5d:d4:74:51:ca:5c:96:2f:e4:24:59:61:f6:cd:
                    ac:f9:1b:bd:62:2b:f3:7d:3e:db:6d:04:49:a4:e1:
                    c1:72:59:3c:95:49:36:87:ba:57:ac:de:cd:f6:90:
                    49:09
                Exponent: 65537 (0x10001)
        X509v3 extensions:
            X509v3 Basic Constraints: critical
                CA:FALSE
            X509v3 Subject Key Identifier: 
                1A:11:83:6D:87:2A:09:79:38:65:B2:89:81:B1:F5:26:46:33:82:62
            X509v3 Authority Key Identifier: 
                keyid:9B:26:0B:8A:98:A9:BB:1D:B9:1F:1C:E3:1A:40:33:ED:8E:17:88:AB

            X509v3 Extended Key Usage: 
                TLS Web Server Authentication, TLS Web Client Authentication
            X509v3 Subject Alternative Name: 
                IP Address:127.0.0.1
    Signature Algorithm: sha256WithRSAEncryption
         15:c0:67:79:e4:03:8d:38:8b:ca:57:ff:1e:fd:d6:2b:1e:0e:
         ed:9d:6a:c7:16:53:36:f7:ce:eb:8d:36:79:a1:b6:59:d8:d0:
         bb:35:96:53:57:59:ad:91:39:f9:70:36:ac:37:9f:75:40:a3:
         3b:be:59:ed:32:4e:c4:a7:a9:3b:79:4d:8c:0c:3d:ba:6f:98:
         3e:3a:ff:28:19:fd:a2:d2:12:41:75:4a:1f:b0:22:0b:51:28:
         4d:9e:bd:e9:f3:67:b3:11:ef:9b:01:cb:c1:01:b1:6b:71:d2:
         68:a7:29:33:41:9a:3f:7b:ae:45:67:8f:a8:97:65:21:85:93:
         b9:db:1b:46:bd:c9:46:23:71:27:1b:9a:aa:58:b7:7b:a1:2d:
         8c:27:65:75:9b:be:56:c5:bb:50:0c:62:ce:93:47:90:aa:db:
         47:c4:80:c5:43:f7:89:6b:b0:ea:a1:91:d5:2f:89:f8:d7:05:
         56:60:18:3c:c1:4a:bf:93:df:76:0a:ff:9f:b5:30:da:10:1a:
         15:94:f0:5a:82:11:ef:26:27:1c:50:1d:8b:c6:19:01:e4:01:
         48:22:c0:b9:97:12:58:4b:f1:61:7d:a9:69:d8:70:83:54:af:
         39:9e:fc:9b:17:f5:b1:69:cd:3e:b5:ba:13:df:e6:fd:71:9d:
         d2:ef:95:1c
-----BEGIN CERTIFICATE-----
MIIDzzCCAregAwIBAgIRAO8vCmp1Vh6xCwNQ33yaY7kwDQYJKoZIhvcNAQELBQAw
YzELMAkGA1UEBhMCVVMxEzARBgNVBAgMCkNhbGlmb3JuaWExFjAUBgNVBAcMDU1v
dW50YWluIFZpZXcxEDAOBgNVBAoMB1Rlc3QgQ0ExFTATBgNVBAMMDFRlc3QgUm9v
dCBDQTAeFw0yMDA5MDIwMDAwMDBaFw0yMTEwMDYwMDAwMDBaMGAxCzAJBgNVBAYT
AlVTMRMwEQYDVQQIDApDYWxpZm9ybmlhMRYwFAYDVQQHDA1Nb3VudGFpbiBWaWV3
MRAwDgYDVQQKDAdUZXN0IENBMRIwEAYDVQQDDAkxMjcuMC4wLjEwggEiMA0GCSqG
SIb3DQEBAQUAA4IBDwAwggEKAoIBAQDFJhVaAbymyv7jqvECsw35LwxTGAuy4Y47
5Ou//9OQQH888pzHTcDlf7KNeejZxnn0KylAp10nUrfQ7baqITL9VydqMLu8EUY4
g1z07NtsmSldOOBB467+gVweU1GVVenm4+YgUkDFx8cYlgiWZvumO4qKwbaIyZAb
Qv2yHWgQj/lOlN8xTDa5cP+CfFqEnlGRHo3nIzp6o2Vt+LcKhx6leAQsqBz37aj9
9DZSl2zx3llmbpdSMMhgWe0aWlEjvIOecrFQNc2mZr/vB9Tw9O845Q1d1HRRylyW
L+QkWWH2zaz5G71iK/N9PtttBEmk4cFyWTyVSTaHules3s32kEkJAgMBAAGjgYAw
fjAMBgNVHRMBAf8EAjAAMB0GA1UdDgQWBBQaEYNthyoJeThlsomBsfUmRjOCYjAf
BgNVHSMEGDAWgBSbJguKmKm7HbkfHOMaQDPtjheIqzAdBgNVHSUEFjAUBggrBgEF
BQcDAQYIKwYBBQUHAwIwDwYDVR0RBAgwBocEfwAAATANBgkqhkiG9w0BAQsFAAOC
AQEAFcBneeQDjTiLylf/Hv3WKx4O7Z1qxxZTNvfO6402eaG2WdjQuzWWU1dZrZE5
+XA2rDefdUCjO75Z7TJOxKepO3lNjAw9um+YPjr/KBn9otISQXVKH7AiC1EoTZ69
6fNnsxHvmwHLwQGxa3HSaKcpM0GaP3uuRWePqJdlIYWTudsbRr3JRiNxJxuaqli3
e6EtjCdldZu+VsW7UAxizpNHkKrbR8SAxUP3iWuw6qGR1S+J+NcFVmAYPMFKv5Pf
dgr/n7Uw2hAaFZTwWoIR7yYnHFAdi8YZAeQBSCLAuZcSWEvxYX2padhwg1SvOZ78
mxf1sWnNPrW6E9/m/XGd0u+VHA==
-----END CERTIFICATE-----
