Certificate:
    Data:
        Version: 3 (0x2)
        Serial Number:
            b0:6b:93:92:e3:5c:8d:7e:ed:9d:c8:96:59:c5:c2:7e
        Signature Algorithm: sha256WithRSAEncryption
        Issuer: C=US, ST=California, L=Mountain View, O=Test CA, CN=Test Root CA
        Validity
            Not Before: Sep  2 00:00:00 2020 GMT
            Not After : Oct  6 00:00:00 2021 GMT
        Subject: C=US, ST=California, L=Mountain View, O=Test CA, CN=127.0.0.1
        Subject Public Key Info:
            Public Key Algorithm: rsaEncryption
                Public-Key: (2048 bit)
                Modulus:
                    00:b3:19:fd:7b:2a:81:6b:16:2b:d8:73:ac:db:4e:
                    bb:d0:06:76:4f:f7:fc:73:62:d9:28:03:00:f2:75:
                    28:56:b1:fe:d1:3f:08:11:f3:d8:77:62:38:85:89:
                    72:4a:e1:7d:4b:72:c6:5f:01:49:ae:c3:b9:55:47:
                    2e:45:78:43:20:ae:ed:b6:5d:7a:66:33:f1:98:3e:
                    fe:6b:a9:08:35:3c:54:a2:03:73:58:87:06:58:72:
                    fc:26:65:26:fe:78:fe:69:2e:26:55:63:e3:db:74:
                    52:e0:6e:a4:b6:64:ab:76:54:77:88:c5:62:47:ff:
                    44:0c:84:43:07:9b:86:de:3b:cc:2e:fb:46:f7:33:
                    ab:bd:00:b0:2e:1b:e3:55:15:ea:e6:c8:f5:3b:1a:
                    e2:79:12:38:32:4a:17:73:71:b9:dc:ea:43:57:98:
                    9a:87:c0:fb:2d:b4:16:26:b4:a9:83:5e:b4:7e:73:
                    21:93:6d:f2:35:b2:29:9d:eb:6f:90:54:45:1a:97:
                    59:b5:6f:33:bb:17:79:b0:52:80:6a:2a:b9:6a:32:
                    90:24:cf:9b:f1:32:82:cf:c8:fb:20:f2:a6:52:31:
                    dc:43:3a:ef:18:7f:3a:3c:65:b5:d5:9a:27:3c:10:
                    2b:95:8a:d4:ec:e6:24:f0:29:bb:4c:d2:f3:a7:c7:
                    d1:33
                Exponent: 65537 (0x10001)
        X509v3 extensions:
            X509v3 Basic Constraints: critical
                CA:FALSE
            X509v3 Subject Key Identifier: 
                CE:66:88:69:91:5E:F1:19:19:04:4B:56:72:0D:A7:79:68:0A:FB:B5
            X509v3 Authority Key Identifier: 
                9B:26:0B:8A:98:A9:BB:1D:B9:1F:1C:E3:1A:40:33:ED:8E:17:88:AB
            X509v3 Extended Key Usage: 
                TLS Web Server Authentication, TLS Web Client Authentication
            X509v3 Subject Alternative Name: 
                IP Address:127.0.0.1
    Signature Algorithm: sha256WithRSAEncryption
    Signature Value:
        a9:34:16:bb:1e:64:c5:e7:34:0a:cd:73:cc:e5:2f:82:4d:ab:
        d5:3e:e5:c5:ca:f3:7f:93:6a:bb:1e:1c:99:b8:6d:20:e8:2b:
        49:98:f5:1a:ae:09:fa:cf:fc:ed:ed:b9:4e:84:4d:44:01:ce:
        66:bb:cc:e8:26:04:94:ed:67:d9:fc:d9:68:41:09:ab:86:4d:
        6f:81:0f:75:6a:c9:b4:26:8d:01:32:4b:2c:03:1b:bd:40:75:
        1c:93:b3:cc:e8:66:28:e2:c9:a9:55:14:29:88:54:a3:b4:70:
        89:0a:a0:75:a4:36:b0:b2:7b:30:cd:74:9f:d5:83:32:f7:85:
        95:c0:c1:e4:da:e2:84:fe:52:ce:2d:6d:31:16:a9:d3:90:c4:
        a5:3c:cc:ba:94:6b:b1:c2:02:d5:b7:c3:b1:3e:2c:05:ab:f6:
        6e:58:bb:e3:43:5f:f1:06:e6:44:d8:d7:48:2b:c5:b2:5f:6d:
        ea:81:51:2f:15:6f:8a:15:4c:84:70:71:0b:db:8b:a8:72:49:
        4a:c2:d5:87:7f:98:c8:b4:ef:3c:34:c9:f4:8d:04:9f:1a:22:
        31:7f:e4:70:15:04:e2:ee:6b:38:cf:75:c3:a8:e8:66:87:0a:
        a5:31:a0:4c:ea:d0:04:b3:0b:12:fe:25:53:b9:83:f7:13:55:
        00:03:17:84
-----BEGIN CERTIFICATE-----
MIIDzzCCAregAwIBAgIRALBrk5LjXI1+7Z3IllnFwn4wDQYJKoZIhvcNAQELBQAw
YzELMAkGA1UEBhMCVVMxEzARBgNVBAgMCkNhbGlmb3JuaWExFjAUBgNVBAcMDU1v
dW50YWluIFZpZXcxEDAOBgNVBAoMB1Rlc3QgQ0ExFTATBgNVBAMMDFRlc3QgUm9v
dCBDQTAeFw0yMDA5MDIwMDAwMDBaFw0yMTEwMDYwMDAwMDBaMGAxCzAJBgNVBAYT
AlVTMRMwEQYDVQQIDApDYWxpZm9ybmlhMRYwFAYDVQQHDA1Nb3VudGFpbiBWaWV3
MRAwDgYDVQQKDAdUZXN0IENBMRIwEAYDVQQDDAkxMjcuMC4wLjEwggEiMA0GCSqG
SIb3DQEBAQUAA4IBDwAwggEKAoIBAQCzGf17KoFrFivYc6zbTrvQBnZP9/xzYtko
AwDydShWsf7RPwgR89h3YjiFiXJK4X1LcsZfAUmuw7lVRy5FeEMgru22XXpmM/GY
Pv5rqQg1PFSiA3NYhwZYcvwmZSb+eP5pLiZVY+PbdFLgbqS2ZKt2VHeIxWJH/0QM
hEMHm4beO8wu+0b3M6u9ALAuG+NVFermyPU7GuJ5EjgyShdzcbnc6kNXmJqHwPst
tBYmtKmDXrR+cyGTbfI1simd62+QVEUal1m1bzO7F3mwUoBqKrlqMpAkz5vxMoLP
yPsg8qZSMdxDOu8Yfzo8ZbXVmic8ECuVitTs5iTwKbtM0vOnx9EzAgMBAAGjgYAw
fjAMBgNVHRMBAf8EAjAAMB0GA1UdDgQWBBTOZohpkV7xGRkES1ZyDad5aAr7tTAf
BgNVHSMEGDAWgBSbJguKmKm7HbkfHOMaQDPtjheIqzAdBgNVHSUEFjAUBggrBgEF
BQcDAQYIKwYBBQUHAwIwDwYDVR0RBAgwBocEfwAAATANBgkqhkiG9w0BAQsFAAOC
AQEAqTQWux5kxec0Cs1zzOUvgk2r1T7lxcrzf5Nqux4cmbhtIOgrSZj1Gq4J+s/8
7e25ToRNRAHOZrvM6CYElO1n2fzZaEEJq4ZNb4EPdWrJtCaNATJLLAMbvUB1HJOz
zOhmKOLJqVUUKYhUo7RwiQqgdaQ2sLJ7MM10n9WDMveFlcDB5NrihP5Szi1tMRap
05DEpTzMupRrscIC1bfDsT4sBav2bli740Nf8QbmRNjXSCvFsl9t6oFRLxVvihVM
hHBxC9uLqHJJSsLVh3+YyLTvPDTJ9I0EnxoiMX/kcBUE4u5rOM91w6joZocKpTGg
TOrQBLMLEv4lU7mD9xNVAAMXhA==
-----END CERTIFICATE-----
