Certificate:
    Data:
        Version: 3 (0x2)
        Serial Number:
            b0:6b:93:92:e3:5c:8d:7e:ed:9d:c8:96:59:c5:c2:75
        Signature Algorithm: sha256WithRSAEncryption
        Issuer: C=US, ST=California, L=Mountain View, O=Test CA, CN=Test Root CA
        Validity
            Not Before: Feb 28 00:00:00 2017 GMT
            Not After : May 30 00:00:00 2020 GMT
        Subject: C=US, ST=California, L=Mountain View, O=Test CA, CN=127.0.0.1
        Subject Public Key Info:
            Public Key Algorithm: rsaEncryption
                Public-Key: (2048 bit)
                Modulus:
                    00:a6:fd:ce:a0:e7:68:1f:ec:48:5a:cd:9f:73:ee:
                    17:d1:c5:ba:eb:d4:56:72:9a:d4:1d:94:fc:36:3c:
                    cb:05:d2:e8:7d:93:3a:49:34:03:3c:d2:72:98:3f:
                    95:45:78:1a:0f:c9:be:70:f7:ab:91:9a:24:83:e8:
                    46:10:80:52:af:06:a8:3c:8a:f5:f7:ea:4c:25:81:
                    f1:7a:62:ff:91:14:34:e7:ae:26:2d:c3:55:a8:46:
                    34:33:1f:ee:87:4d:93:ae:7d:9b:8a:4c:85:02:c0:
                    7e:b0:4c:a1:eb:cb:71:a3:9d:e2:0e:2b:b9:cb:80:
                    76:3d:58:4c:1d:5f:0a:de:cc:14:f8:69:2f:ce:b5:
                    43:55:f4:c6:8b:24:d6:55:4d:0d:74:62:d1:7f:e1:
                    95:4c:c8:fc:99:ae:9a:1b:e7:07:d8:48:7c:f7:3c:
                    1d:8a:8c:f0:20:99:88:ed:ca:aa:cc:c1:44:1e:10:
                    e8:95:05:ca:a2:0d:93:c0:40:bf:1f:bc:5b:b5:da:
                    19:63:96:04:57:32:99:0f:f3:f7:f1:a3:ed:df:6c:
                    32:df:94:71:41:fe:e7:9a:d8:c5:ab:24:6d:26:82:
                    eb:aa:2b:aa:6d:67:90:d4:cf:d9:11:e6:87:e1:b6:
                    e7:24:c0:47:7a:ee:55:ba:87:a9:2f:b0:93:79:a4:
                    08:09
                Exponent: 65537 (0x10001)
        X509v3 extensions:
            X509v3 Basic Constraints: critical
                CA:FALSE
            X509v3 Subject Key Identifier: 
                E7:91:F7:13:99:EC:1E:9C:81:43:8A:DA:A5:63:5B:93:3C:79:07:B6
            X509v3 Authority Key Identifier: 
                9B:26:0B:8A:98:A9:BB:1D:B9:1F:1C:E3:1A:40:33:ED:8E:17:88:AB
            X509v3 Extended Key Usage: 
                TLS Web Server Authentication, TLS Web Client Authentication
            X509v3 Subject Alternative Name: 
                IP Address:127.0.0.1
    Signature Algorithm: sha256WithRSAEncryption
    Signature Value:
        7e:4c:5b:7e:32:78:be:ee:68:bc:8c:de:1d:0e:d1:86:44:8d:
        40:d5:42:2e:79:89:18:88:b7:9c:b5:f8:b4:89:ef:f7:8a:dc:
        32:3d:6c:a9:b7:ef:2a:86:1f:72:fb:aa:7d:86:10:4f:b0:3e:
        7b:39:6f:ab:2b:f2:20:d9:dc:44:82:8b:d7:54:9c:a4:6f:9f:
        bd:12:35:5d:29:56:53:b1:83:92:aa:bd:ea:3c:89:16:76:e9:
        15:64:5d:c5:cb:60:b2:ba:7c:88:c6:66:b3:8a:13:1a:f1:a8:
        03:c4:7b:8c:eb:11:86:e6:2f:28:87:55:6f:7d:94:e5:e7:a6:
        8f:1d:3a:b7:fa:de:da:53:54:27:8f:0f:14:f6:34:91:11:8a:
        29:18:a7:01:3c:b3:a0:94:57:6b:d2:c3:b7:e8:51:60:43:c3:
        40:20:5c:ee:be:04:27:4f:b9:0f:16:84:5d:91:43:ae:03:6d:
        cd:81:f9:e4:ad:ff:ed:09:86:6f:4c:bb:3b:5f:6a:ef:2e:e9:
        2f:fc:ae:d8:b7:cd:f2:0e:49:ef:46:ef:7e:42:33:3b:c2:00:
        a1:59:8e:07:6b:17:51:c2:62:1b:3e:92:70:58:7d:c9:22:4a:
        2d:f6:b9:49:87:93:b5:10:61:34:1c:65:ef:6b:de:30:7d:3f:
        68:45:cf:7a
-----BEGIN CERTIFICATE-----
MIIDzzCCAregAwIBAgIRALBrk5LjXI1+7Z3IllnFwnUwDQYJKoZIhvcNAQELBQAw
YzELMAkGA1UEBhMCVVMxEzARBgNVBAgMCkNhbGlmb3JuaWExFjAUBgNVBAcMDU1v
dW50YWluIFZpZXcxEDAOBgNVBAoMB1Rlc3QgQ0ExFTATBgNVBAMMDFRlc3QgUm9v
dCBDQTAeFw0xNzAyMjgwMDAwMDBaFw0yMDA1MzAwMDAwMDBaMGAxCzAJBgNVBAYT
AlVTMRMwEQYDVQQIDApDYWxpZm9ybmlhMRYwFAYDVQQHDA1Nb3VudGFpbiBWaWV3
MRAwDgYDVQQKDAdUZXN0IENBMRIwEAYDVQQDDAkxMjcuMC4wLjEwggEiMA0GCSqG
SIb3DQEBAQUAA4IBDwAwggEKAoIBAQCm/c6g52gf7EhazZ9z7hfRxbrr1FZymtQd
lPw2PMsF0uh9kzpJNAM80nKYP5VFeBoPyb5w96uRmiSD6EYQgFKvBqg8ivX36kwl
gfF6Yv+RFDTnriYtw1WoRjQzH+6HTZOufZuKTIUCwH6wTKHry3GjneIOK7nLgHY9
WEwdXwrezBT4aS/OtUNV9MaLJNZVTQ10YtF/4ZVMyPyZrpob5wfYSHz3PB2KjPAg
mYjtyqrMwUQeEOiVBcqiDZPAQL8fvFu12hljlgRXMpkP8/fxo+3fbDLflHFB/uea
2MWrJG0mguuqK6ptZ5DUz9kR5ofhtuckwEd67lW6h6kvsJN5pAgJAgMBAAGjgYAw
fjAMBgNVHRMBAf8EAjAAMB0GA1UdDgQWBBTnkfcTmewenIFDitqlY1uTPHkHtjAf
BgNVHSMEGDAWgBSbJguKmKm7HbkfHOMaQDPtjheIqzAdBgNVHSUEFjAUBggrBgEF
BQcDAQYIKwYBBQUHAwIwDwYDVR0RBAgwBocEfwAAATANBgkqhkiG9w0BAQsFAAOC
AQEAfkxbfjJ4vu5ovIzeHQ7RhkSNQNVCLnmJGIi3nLX4tInv94rcMj1sqbfvKoYf
cvuqfYYQT7A+ezlvqyvyINncRIKL11ScpG+fvRI1XSlWU7GDkqq96jyJFnbpFWRd
xctgsrp8iMZms4oTGvGoA8R7jOsRhuYvKIdVb32U5eemjx06t/re2lNUJ48PFPY0
kRGKKRinATyzoJRXa9LDt+hRYEPDQCBc7r4EJ0+5DxaEXZFDrgNtzYH55K3/7QmG
b0y7O19q7y7pL/yu2LfN8g5J70bvfkIzO8IAoVmOB2sXUcJiGz6ScFh9ySJKLfa5
SYeTtRBhNBxl72veMH0/aEXPeg==
-----END CERTIFICATE-----
