Certificate:
    Data:
        Version: 3 (0x2)
        Serial Number:
            12:f6:d9:f1:80:1b:50:9f:64:09:c8:ea:2f:16:33:b1
        Signature Algorithm: sha256WithRSAEncryption
        Issuer: C=US, ST=California, L=Mountain View, O=Test CA, CN=Test Root CA
        Validity
            Not Before: Feb 28 00:00:00 2017 GMT
            Not After : May 30 00:00:00 2020 GMT
        Subject: C=US, ST=California, L=Mountain View, O=Test CA, CN=127.0.0.1
        Subject Public Key Info:
            Public Key Algorithm: rsaEncryption
                RSA Public-Key: (2048 bit)
                Modulus:
                    00:d1:69:f8:d8:06:fd:7e:b2:c8:c9:e4:20:35:e9:
                    94:26:00:b2:79:dd:ee:ee:da:88:3e:45:48:23:9b:
                    dd:ff:27:4f:3c:9f:31:84:cb:d0:dc:55:ed:67:5e:
                    29:31:3e:62:b6:8a:d6:3d:89:66:74:a7:be:bc:53:
                    f3:7b:a7:73:6b:22:bd:ab:0f:b9:53:43:d6:85:4d:
                    ce:7f:7c:74:13:fe:b5:7e:e4:cf:f5:d1:3d:08:2c:
                    69:7b:0e:26:c8:9c:42:c9:b9:1c:cf:18:f9:9c:b1:
                    57:a0:bf:23:5e:ae:a3:ad:ca:4e:99:94:76:1c:b9:
                    4e:98:85:c7:d8:34:6f:1e:0b:8d:1f:3b:3a:0b:4a:
                    08:8a:aa:00:9e:ad:43:7f:ce:c8:26:63:64:06:d8:
                    25:68:2a:22:13:15:71:e2:f1:fb:a2:67:15:65:13:
                    8b:f5:0e:42:64:38:67:ac:60:26:08:0c:26:ab:06:
                    6c:04:14:84:99:62:24:65:b8:0b:f2:aa:49:1b:54:
                    c9:cb:f6:0c:ee:35:07:76:96:20:20:5a:94:c2:ec:
                    8d:85:22:10:54:03:ba:6a:c5:d8:9f:24:cd:61:b8:
                    5b:59:b4:aa:50:3f:00:a4:ca:3e:ad:bc:60:b6:a1:
                    14:85:9f:1f:fa:f5:12:12:e0:4a:f4:0a:1f:9b:53:
                    78:43
                Exponent: 65537 (0x10001)
        X509v3 extensions:
            X509v3 Basic Constraints: critical
                CA:FALSE
            X509v3 Subject Key Identifier: 
                89:7E:84:3E:C3:70:4C:88:08:95:76:5B:8E:C7:F2:6E:BD:A2:D0:56
            X509v3 Authority Key Identifier: 
                keyid:9B:26:0B:8A:98:A9:BB:1D:B9:1F:1C:E3:1A:40:33:ED:8E:17:88:AB

            X509v3 Extended Key Usage: 
                TLS Web Server Authentication, TLS Web Client Authentication
            X509v3 Subject Alternative Name: 
                IP Address:127.0.0.1
    Signature Algorithm: sha256WithRSAEncryption
         06:ec:c1:c0:db:75:19:05:bf:1f:df:ab:54:7e:b9:61:76:f3:
         f7:d8:2f:91:27:d8:46:68:0e:fc:3e:d8:be:55:c4:e8:15:60:
         76:a0:e8:98:cd:95:71:97:3a:5b:c6:0e:d7:d1:0e:72:97:fd:
         f6:aa:f1:b4:22:cd:1d:9a:b0:91:d4:f0:18:c0:7b:cf:d7:4c:
         7e:d7:3a:28:9a:67:fc:41:c3:81:84:73:b5:50:a2:96:52:77:
         7a:e9:d2:7d:0c:34:4d:0d:cb:d3:8c:42:56:8a:66:af:cb:7a:
         6e:34:cf:19:f2:d8:08:a2:61:b4:eb:db:f5:96:08:18:fb:d5:
         a7:a3:c9:0f:7b:3d:db:72:c8:d2:da:25:2c:4d:b7:5a:c8:26:
         e5:18:94:04:53:ee:ab:30:17:d8:7d:3e:df:9e:ac:37:32:05:
         f6:3e:10:b4:8b:09:1b:6c:4f:37:b5:c2:81:06:eb:98:87:1d:
         24:5d:f9:c8:52:30:70:ca:a5:68:6c:58:60:51:d3:bf:d6:56:
         7a:95:93:26:40:64:c9:93:23:3d:d3:7d:fa:34:9b:94:45:d5:
         5a:76:df:b7:83:76:3f:a6:9f:ce:97:50:7d:80:10:64:d6:31:
         20:f2:bf:bc:68:3e:63:6c:90:47:26:1d:bb:0b:b3:f8:61:5e:
         9e:23:7c:2b
-----BEGIN CERTIFICATE-----
MIIDzjCCAragAwIBAgIQEvbZ8YAbUJ9kCcjqLxYzsTANBgkqhkiG9w0BAQsFADBj
MQswCQYDVQQGEwJVUzETMBEGA1UECAwKQ2FsaWZvcm5pYTEWMBQGA1UEBwwNTW91
bnRhaW4gVmlldzEQMA4GA1UECgwHVGVzdCBDQTEVMBMGA1UEAwwMVGVzdCBSb290
IENBMB4XDTE3MDIyODAwMDAwMFoXDTIwMDUzMDAwMDAwMFowYDELMAkGA1UEBhMC
VVMxEzARBgNVBAgMCkNhbGlmb3JuaWExFjAUBgNVBAcMDU1vdW50YWluIFZpZXcx
EDAOBgNVBAoMB1Rlc3QgQ0ExEjAQBgNVBAMMCTEyNy4wLjAuMTCCASIwDQYJKoZI
hvcNAQEBBQADggEPADCCAQoCggEBANFp+NgG/X6yyMnkIDXplCYAsnnd7u7aiD5F
SCOb3f8nTzyfMYTL0NxV7WdeKTE+YraK1j2JZnSnvrxT83unc2sivasPuVND1oVN
zn98dBP+tX7kz/XRPQgsaXsOJsicQsm5HM8Y+ZyxV6C/I16uo63KTpmUdhy5TpiF
x9g0bx4LjR87OgtKCIqqAJ6tQ3/OyCZjZAbYJWgqIhMVceLx+6JnFWUTi/UOQmQ4
Z6xgJggMJqsGbAQUhJliJGW4C/KqSRtUycv2DO41B3aWICBalMLsjYUiEFQDumrF
2J8kzWG4W1m0qlA/AKTKPq28YLahFIWfH/r1EhLgSvQKH5tTeEMCAwEAAaOBgDB+
MAwGA1UdEwEB/wQCMAAwHQYDVR0OBBYEFIl+hD7DcEyICJV2W47H8m69otBWMB8G
A1UdIwQYMBaAFJsmC4qYqbsduR8c4xpAM+2OF4irMB0GA1UdJQQWMBQGCCsGAQUF
BwMBBggrBgEFBQcDAjAPBgNVHREECDAGhwR/AAABMA0GCSqGSIb3DQEBCwUAA4IB
AQAG7MHA23UZBb8f36tUfrlhdvP32C+RJ9hGaA78Pti+VcToFWB2oOiYzZVxlzpb
xg7X0Q5yl/32qvG0Is0dmrCR1PAYwHvP10x+1zoommf8QcOBhHO1UKKWUnd66dJ9
DDRNDcvTjEJWimavy3puNM8Z8tgIomG069v1lggY+9Wno8kPez3bcsjS2iUsTbda
yCblGJQEU+6rMBfYfT7fnqw3MgX2PhC0iwkbbE83tcKBBuuYhx0kXfnIUjBwyqVo
bFhgUdO/1lZ6lZMmQGTJkyM90336NJuURdVadt+3g3Y/pp/Ol1B9gBBk1jEg8r+8
aD5jbJBHJh27C7P4YV6eI3wr
-----END CERTIFICATE-----
