Certificate:
    Data:
        Version: 3 (0x2)
        Serial Number:
            3e:2c:9d:be:b0:42:c8:cf:fc:99:42:d5:4d:41:6a:b2
        Signature Algorithm: sha256WithRSAEncryption
        Issuer: C=US, ST=California, L=Mountain View, O=Test CA, CN=Test Root CA
        Validity
            Not Before: Feb 28 00:00:00 2017 GMT
            Not After : May 30 00:00:00 2020 GMT
        Subject: C=US, ST=California, L=Mountain View, O=Test CA, CN=127.0.0.1
        Subject Public Key Info:
            Public Key Algorithm: rsaEncryption
                RSA Public-Key: (2048 bit)
                Modulus:
                    00:d2:0b:08:4a:9b:6f:11:d7:ff:cf:6f:c5:ab:f7:
                    3a:cd:8d:63:4c:eb:15:40:87:cc:fe:fb:39:40:c1:
                    ca:19:2f:4e:49:ae:53:dd:b7:4a:ae:9a:b2:e6:e5:
                    6e:69:8d:0c:22:53:d9:32:a5:9f:f1:3a:62:ea:1d:
                    46:ea:03:e4:8d:da:27:5e:85:03:25:16:8e:5e:a2:
                    ef:3b:87:7c:f9:b6:58:c8:93:2c:24:36:64:e5:96:
                    30:3b:88:a1:e9:ef:8d:94:a6:cb:ae:ae:fa:b0:9b:
                    9f:e9:7c:c5:d7:b7:9c:04:a3:0a:73:a1:e7:01:6f:
                    3e:3b:58:14:bd:63:03:bd:4a:4a:a5:10:0f:02:8f:
                    6f:4c:7d:67:c6:d5:8e:2d:95:8f:83:77:10:2a:1e:
                    8d:7b:e9:33:0a:41:00:92:8a:88:16:a2:f2:86:0c:
                    59:9c:08:84:fd:19:15:c6:ca:87:fe:d9:fd:0a:b4:
                    e5:a8:5d:47:2c:ee:e0:7f:9b:7e:0e:7e:8f:88:ff:
                    31:8c:c9:02:bb:d9:c7:e4:87:e9:0e:fc:89:db:dd:
                    68:ed:3f:9f:52:24:37:48:e9:f8:cc:59:74:12:05:
                    d1:ba:15:b9:aa:61:48:77:41:e9:d7:ed:4f:97:e1:
                    fd:dc:b8:f1:4b:54:97:2e:a5:0c:bb:8c:6d:4b:fa:
                    2f:11
                Exponent: 65537 (0x10001)
        X509v3 extensions:
            X509v3 Basic Constraints: critical
                CA:FALSE
            X509v3 Subject Key Identifier: 
                10:8D:94:CF:31:9D:7D:3E:3A:DD:47:D6:87:88:36:B2:20:57:55:9C
            X509v3 Authority Key Identifier: 
                keyid:9B:26:0B:8A:98:A9:BB:1D:B9:1F:1C:E3:1A:40:33:ED:8E:17:88:AB

            X509v3 Extended Key Usage: 
                TLS Web Server Authentication, TLS Web Client Authentication
            X509v3 Subject Alternative Name: 
                IP Address:127.0.0.1
    Signature Algorithm: sha256WithRSAEncryption
         5d:08:1a:36:85:35:31:62:46:c4:bd:dd:2c:1e:d3:0d:ed:07:
         5e:d4:7f:06:44:4f:17:f2:7c:32:78:b7:4c:25:a7:c5:81:26:
         65:20:5c:c9:30:53:02:19:05:75:1d:be:ef:a9:9b:53:27:34:
         1c:19:c5:52:cb:c0:c2:ac:78:ff:27:22:b4:e1:8b:32:ae:5b:
         cb:08:0b:c2:4f:27:70:89:9f:e3:be:09:d7:e6:33:88:8b:74:
         57:1a:8d:79:5e:8b:20:a3:12:3e:9b:56:73:82:9e:35:00:8a:
         5a:38:0b:4e:e9:9e:43:63:93:61:df:b6:e3:00:4b:b2:4a:f9:
         0a:74:fa:d5:aa:06:b5:44:07:c7:46:6c:4a:2a:69:fc:2a:34:
         77:16:b4:6c:e1:a5:b2:e3:d0:4a:39:87:87:16:ba:6b:ea:ab:
         a1:c5:81:64:55:cf:68:74:63:d0:95:2e:2c:39:62:75:b8:f2:
         c1:7f:0f:30:50:10:d3:9b:84:bd:07:63:b7:1c:58:de:dc:e4:
         b1:74:48:00:b7:89:d9:02:83:37:c7:ea:94:dd:af:3f:fd:47:
         86:70:d1:d0:d0:06:36:6c:3f:b1:8a:e7:db:6a:f0:b7:82:5c:
         c0:d9:ca:30:ff:4e:d5:cd:e3:d5:4c:7e:86:7f:7e:5f:2b:d1:
         d4:3e:2c:5f
-----BEGIN CERTIFICATE-----
MIIDzjCCAragAwIBAgIQPiydvrBCyM/8mULVTUFqsjANBgkqhkiG9w0BAQsFADBj
MQswCQYDVQQGEwJVUzETMBEGA1UECAwKQ2FsaWZvcm5pYTEWMBQGA1UEBwwNTW91
bnRhaW4gVmlldzEQMA4GA1UECgwHVGVzdCBDQTEVMBMGA1UEAwwMVGVzdCBSb290
IENBMB4XDTE3MDIyODAwMDAwMFoXDTIwMDUzMDAwMDAwMFowYDELMAkGA1UEBhMC
VVMxEzARBgNVBAgMCkNhbGlmb3JuaWExFjAUBgNVBAcMDU1vdW50YWluIFZpZXcx
EDAOBgNVBAoMB1Rlc3QgQ0ExEjAQBgNVBAMMCTEyNy4wLjAuMTCCASIwDQYJKoZI
hvcNAQEBBQADggEPADCCAQoCggEBANILCEqbbxHX/89vxav3Os2NY0zrFUCHzP77
OUDByhkvTkmuU923Sq6asublbmmNDCJT2TKln/E6YuodRuoD5I3aJ16FAyUWjl6i
7zuHfPm2WMiTLCQ2ZOWWMDuIoenvjZSmy66u+rCbn+l8xde3nASjCnOh5wFvPjtY
FL1jA71KSqUQDwKPb0x9Z8bVji2Vj4N3ECoejXvpMwpBAJKKiBai8oYMWZwIhP0Z
FcbKh/7Z/Qq05ahdRyzu4H+bfg5+j4j/MYzJArvZx+SH6Q78idvdaO0/n1IkN0jp
+MxZdBIF0boVuaphSHdB6dftT5fh/dy48UtUly6lDLuMbUv6LxECAwEAAaOBgDB+
MAwGA1UdEwEB/wQCMAAwHQYDVR0OBBYEFBCNlM8xnX0+Ot1H1oeINrIgV1WcMB8G
A1UdIwQYMBaAFJsmC4qYqbsduR8c4xpAM+2OF4irMB0GA1UdJQQWMBQGCCsGAQUF
BwMBBggrBgEFBQcDAjAPBgNVHREECDAGhwR/AAABMA0GCSqGSIb3DQEBCwUAA4IB
AQBdCBo2hTUxYkbEvd0sHtMN7Qde1H8GRE8X8nwyeLdMJafFgSZlIFzJMFMCGQV1
Hb7vqZtTJzQcGcVSy8DCrHj/JyK04YsyrlvLCAvCTydwiZ/jvgnX5jOIi3RXGo15
XosgoxI+m1Zzgp41AIpaOAtO6Z5DY5Nh37bjAEuySvkKdPrVqga1RAfHRmxKKmn8
KjR3FrRs4aWy49BKOYeHFrpr6quhxYFkVc9odGPQlS4sOWJ1uPLBfw8wUBDTm4S9
B2O3HFje3OSxdEgAt4nZAoM3x+qU3a8//UeGcNHQ0AY2bD+xiufbavC3glzA2cow
/07VzePVTH6Gf35fK9HUPixf
-----END CERTIFICATE-----
