Certificate:
    Data:
        Version: 3 (0x2)
        Serial Number:
            b0:6b:93:92:e3:5c:8d:7e:ed:9d:c8:96:59:c5:c2:71
        Signature Algorithm: sha256WithRSAEncryption
        Issuer: C=US, ST=California, L=Mountain View, O=Test CA, CN=Test Root CA
        Validity
            Not Before: Apr  2 00:00:00 2015 GMT
            Not After : Jul  2 00:00:00 2018 GMT
        Subject: C=US, ST=California, L=Mountain View, O=Test CA, CN=127.0.0.1
        Subject Public Key Info:
            Public Key Algorithm: rsaEncryption
                Public-Key: (2048 bit)
                Modulus:
                    00:b1:08:9f:8e:29:52:ed:20:71:ae:d9:44:93:65:
                    c3:11:58:97:29:dc:e2:4a:54:65:ec:d9:0d:e3:75:
                    9c:52:7d:2e:35:2a:cb:88:70:de:8f:ce:f4:23:13:
                    16:1d:de:7d:e4:fb:7b:8a:1e:ba:a4:6a:38:bb:c5:
                    89:69:49:17:9b:74:88:a8:c5:ee:65:4c:f1:96:82:
                    8e:30:42:e7:9a:9b:9b:e1:e6:5e:b0:c5:3f:46:09:
                    fe:26:3a:02:b7:f9:a6:4b:43:0e:ed:80:d8:76:12:
                    e3:34:38:ad:b6:a8:cb:58:9f:0e:77:67:ff:91:77:
                    d5:63:0f:4c:2b:d4:35:22:68:08:8e:9b:5c:a6:77:
                    51:ef:e7:3e:e0:8f:53:8f:13:c7:21:fa:c5:98:15:
                    26:89:08:c0:c8:57:05:56:f5:52:b5:d3:6c:a6:a3:
                    5f:3c:3c:b1:91:98:ec:0d:85:8c:d5:ad:18:30:9d:
                    2e:91:f3:92:62:ae:9e:6d:64:4e:9d:ac:c8:88:30:
                    64:d7:2f:d2:c3:46:fb:fd:f3:a2:69:9f:f0:ee:ef:
                    6a:eb:e4:58:a2:37:16:46:e2:d0:53:ed:33:1e:ad:
                    6a:5f:b2:7e:c8:e9:1d:c8:12:ed:ac:35:9d:ba:26:
                    82:ea:04:be:e1:a5:34:fc:ee:ed:25:a6:6d:cb:fa:
                    e5:3f
                Exponent: 65537 (0x10001)
        X509v3 extensions:
            X509v3 Basic Constraints: critical
                CA:FALSE
            X509v3 Subject Key Identifier: 
                1C:10:69:49:A1:B6:07:E4:28:8A:C2:C9:80:88:80:93:91:5C:71:2E
            X509v3 Authority Key Identifier: 
                9B:26:0B:8A:98:A9:BB:1D:B9:1F:1C:E3:1A:40:33:ED:8E:17:88:AB
            X509v3 Extended Key Usage: 
                TLS Web Server Authentication, TLS Web Client Authentication
            X509v3 Subject Alternative Name: 
                IP Address:127.0.0.1
    Signature Algorithm: sha256WithRSAEncryption
    Signature Value:
        36:a1:f7:1b:af:3c:49:fd:af:13:19:74:79:cf:77:20:92:bb:
        e7:76:5e:ca:12:be:e2:8d:15:6c:45:5d:70:2a:84:05:c8:b8:
        f8:3d:34:76:0b:e7:25:5e:f0:dd:fd:08:00:b9:31:b5:72:9b:
        18:e2:da:7a:bc:da:1a:b8:aa:80:37:ad:51:03:9f:c6:fb:e5:
        06:13:3e:41:d5:e2:9b:dd:16:43:ad:35:3a:c3:7a:7f:2c:35:
        6a:cb:bd:74:b9:57:93:1f:24:57:78:3c:9a:5c:f1:51:bd:5d:
        cf:ae:f2:a9:cb:81:b4:20:93:b4:fd:bf:a3:68:68:ff:15:12:
        2f:05:1e:54:02:ce:4b:ee:38:c7:5b:fa:01:75:f7:bc:2f:08:
        ae:6e:d1:ba:20:5b:03:74:80:89:75:80:9f:b5:50:3d:14:b6:
        94:73:84:2d:38:68:0b:d8:89:8f:42:bc:9b:e1:ed:e6:df:2f:
        15:ba:ec:41:c9:1e:dc:94:cc:4a:af:68:34:76:92:50:d8:45:
        47:57:6a:9e:c5:6f:20:59:9e:e6:f1:d8:56:bd:ee:9a:71:7e:
        4f:08:3c:dc:9b:51:cd:62:a8:c7:7f:df:21:76:6a:90:0c:15:
        de:6f:b0:04:3b:16:4f:cc:19:7c:06:d0:55:0a:dd:cb:0d:08:
        59:d6:ac:a3
-----BEGIN CERTIFICATE-----
MIIDzzCCAregAwIBAgIRALBrk5LjXI1+7Z3IllnFwnEwDQYJKoZIhvcNAQELBQAw
YzELMAkGA1UEBhMCVVMxEzARBgNVBAgMCkNhbGlmb3JuaWExFjAUBgNVBAcMDU1v
dW50YWluIFZpZXcxEDAOBgNVBAoMB1Rlc3QgQ0ExFTATBgNVBAMMDFRlc3QgUm9v
dCBDQTAeFw0xNTA0MDIwMDAwMDBaFw0xODA3MDIwMDAwMDBaMGAxCzAJBgNVBAYT
AlVTMRMwEQYDVQQIDApDYWxpZm9ybmlhMRYwFAYDVQQHDA1Nb3VudGFpbiBWaWV3
MRAwDgYDVQQKDAdUZXN0IENBMRIwEAYDVQQDDAkxMjcuMC4wLjEwggEiMA0GCSqG
SIb3DQEBAQUAA4IBDwAwggEKAoIBAQCxCJ+OKVLtIHGu2USTZcMRWJcp3OJKVGXs
2Q3jdZxSfS41KsuIcN6PzvQjExYd3n3k+3uKHrqkaji7xYlpSRebdIioxe5lTPGW
go4wQueam5vh5l6wxT9GCf4mOgK3+aZLQw7tgNh2EuM0OK22qMtYnw53Z/+Rd9Vj
D0wr1DUiaAiOm1ymd1Hv5z7gj1OPE8ch+sWYFSaJCMDIVwVW9VK102ymo188PLGR
mOwNhYzVrRgwnS6R85Jirp5tZE6drMiIMGTXL9LDRvv986Jpn/Du72rr5FiiNxZG
4tBT7TMerWpfsn7I6R3IEu2sNZ26JoLqBL7hpTT87u0lpm3L+uU/AgMBAAGjgYAw
fjAMBgNVHRMBAf8EAjAAMB0GA1UdDgQWBBQcEGlJobYH5CiKwsmAiICTkVxxLjAf
BgNVHSMEGDAWgBSbJguKmKm7HbkfHOMaQDPtjheIqzAdBgNVHSUEFjAUBggrBgEF
BQcDAQYIKwYBBQUHAwIwDwYDVR0RBAgwBocEfwAAATANBgkqhkiG9w0BAQsFAAOC
AQEANqH3G688Sf2vExl0ec93IJK753ZeyhK+4o0VbEVdcCqEBci4+D00dgvnJV7w
3f0IALkxtXKbGOLaerzaGriqgDetUQOfxvvlBhM+QdXim90WQ601OsN6fyw1asu9
dLlXkx8kV3g8mlzxUb1dz67yqcuBtCCTtP2/o2ho/xUSLwUeVALOS+44x1v6AXX3
vC8Irm7RuiBbA3SAiXWAn7VQPRS2lHOELThoC9iJj0K8m+Ht5t8vFbrsQcke3JTM
Sq9oNHaSUNhFR1dqnsVvIFme5vHYVr3umnF+Twg83JtRzWKox3/fIXZqkAwV3m+w
BDsWT8wZfAbQVQrdyw0IWdasow==
-----END CERTIFICATE-----
