Certificate:
    Data:
        Version: 3 (0x2)
        Serial Number:
            12:f6:d9:f1:80:1b:50:9f:64:09:c8:ea:2f:16:33:ad
        Signature Algorithm: sha256WithRSAEncryption
        Issuer: C=US, ST=California, L=Mountain View, O=Test CA, CN=Test Root CA
        Validity
            Not Before: Apr  2 00:00:00 2015 GMT
            Not After : Jul  2 00:00:00 2018 GMT
        Subject: C=US, ST=California, L=Mountain View, O=Test CA, CN=127.0.0.1
        Subject Public Key Info:
            Public Key Algorithm: rsaEncryption
                RSA Public-Key: (2048 bit)
                Modulus:
                    00:ad:83:78:e0:29:58:58:d1:87:fe:b9:2f:d8:1c:
                    ec:08:51:ea:41:6e:2a:91:2d:e7:3f:a1:9f:c7:c5:
                    0a:0b:0b:9d:98:be:3e:d9:dd:75:9f:be:03:3f:c7:
                    37:f1:56:ee:7a:0c:ba:ab:99:f3:40:ef:2b:98:53:
                    ed:d9:da:b9:38:06:12:21:58:42:7c:b3:00:cb:85:
                    c7:53:c8:25:59:04:6f:79:70:1a:fa:50:29:97:e1:
                    e1:e7:42:5e:b6:0e:d4:14:a4:22:38:42:45:25:02:
                    78:7a:d6:9f:e4:58:b1:24:a5:37:89:c6:93:9b:01:
                    b2:bd:5c:2b:77:c1:1f:88:7c:65:7d:0c:4a:dd:d4:
                    37:b0:df:01:df:60:db:d5:94:9a:00:6b:02:58:72:
                    83:95:07:d2:aa:3d:35:be:6b:8a:3a:de:c7:c3:fc:
                    05:35:d2:f3:d4:7b:9d:ef:76:90:c7:49:15:c2:d4:
                    f2:1a:9e:85:2f:0b:26:0a:45:3e:f2:51:97:92:96:
                    43:67:f3:15:dc:4a:af:d4:0b:5e:aa:78:5d:f6:8e:
                    a9:de:22:f4:62:f8:4e:7e:4a:e1:7c:0c:f8:50:79:
                    a4:85:23:f2:7d:78:98:02:04:17:9e:3f:e0:47:51:
                    7a:12:d7:84:aa:06:17:4d:4b:77:91:5c:d0:b9:88:
                    32:15
                Exponent: 65537 (0x10001)
        X509v3 extensions:
            X509v3 Basic Constraints: critical
                CA:FALSE
            X509v3 Subject Key Identifier: 
                4E:79:FF:B3:8B:AC:B6:F9:03:36:37:80:74:98:64:CE:82:40:35:AB
            X509v3 Authority Key Identifier: 
                keyid:9B:26:0B:8A:98:A9:BB:1D:B9:1F:1C:E3:1A:40:33:ED:8E:17:88:AB

            X509v3 Extended Key Usage: 
                TLS Web Server Authentication, TLS Web Client Authentication
            X509v3 Subject Alternative Name: 
                IP Address:127.0.0.1
    Signature Algorithm: sha256WithRSAEncryption
         90:b2:ae:c8:66:49:27:94:9f:2c:9d:b1:3d:5b:30:a4:c0:43:
         b3:23:63:22:69:18:85:d3:1d:de:65:25:14:fd:ce:d3:dc:29:
         6b:da:26:d2:eb:4c:16:55:3e:cc:ba:40:1d:65:ee:db:33:9e:
         e4:d2:91:43:ce:c9:04:cf:42:91:71:10:cd:f4:5a:00:1e:67:
         9b:16:8d:2c:b2:d2:93:48:44:a5:c2:ff:fc:35:af:c0:f5:21:
         ab:08:cc:b4:3c:e4:5d:11:6e:8e:1a:5c:04:f7:e0:4f:dc:8a:
         67:1f:9a:47:46:46:37:3a:e6:5f:47:1d:2b:e0:36:57:d0:9d:
         f8:54:c8:18:38:87:56:87:80:0d:3c:f9:a9:03:78:87:ac:7f:
         d1:18:26:28:76:85:37:de:9c:37:8e:6b:e9:91:03:cf:6a:62:
         87:1b:18:85:0a:93:44:ef:37:65:b9:e5:e7:fa:12:54:34:38:
         64:f1:9b:fd:8f:77:3c:42:3a:23:8f:96:96:41:91:e0:a4:61:
         da:b9:2a:d2:9d:20:32:15:3e:7f:6d:f7:b9:58:7f:da:ea:b1:
         c8:c7:82:9f:82:9c:8a:07:b6:c5:0e:82:73:1d:20:66:95:dc:
         ce:bc:aa:09:f2:d9:f7:2b:cf:26:e7:b8:b9:6c:12:ce:9c:8a:
         99:07:85:3a
-----BEGIN CERTIFICATE-----
MIIDzjCCAragAwIBAgIQEvbZ8YAbUJ9kCcjqLxYzrTANBgkqhkiG9w0BAQsFADBj
MQswCQYDVQQGEwJVUzETMBEGA1UECAwKQ2FsaWZvcm5pYTEWMBQGA1UEBwwNTW91
bnRhaW4gVmlldzEQMA4GA1UECgwHVGVzdCBDQTEVMBMGA1UEAwwMVGVzdCBSb290
IENBMB4XDTE1MDQwMjAwMDAwMFoXDTE4MDcwMjAwMDAwMFowYDELMAkGA1UEBhMC
VVMxEzARBgNVBAgMCkNhbGlmb3JuaWExFjAUBgNVBAcMDU1vdW50YWluIFZpZXcx
EDAOBgNVBAoMB1Rlc3QgQ0ExEjAQBgNVBAMMCTEyNy4wLjAuMTCCASIwDQYJKoZI
hvcNAQEBBQADggEPADCCAQoCggEBAK2DeOApWFjRh/65L9gc7AhR6kFuKpEt5z+h
n8fFCgsLnZi+PtnddZ++Az/HN/FW7noMuquZ80DvK5hT7dnauTgGEiFYQnyzAMuF
x1PIJVkEb3lwGvpQKZfh4edCXrYO1BSkIjhCRSUCeHrWn+RYsSSlN4nGk5sBsr1c
K3fBH4h8ZX0MSt3UN7DfAd9g29WUmgBrAlhyg5UH0qo9Nb5rijrex8P8BTXS89R7
ne92kMdJFcLU8hqehS8LJgpFPvJRl5KWQ2fzFdxKr9QLXqp4XfaOqd4i9GL4Tn5K
4XwM+FB5pIUj8n14mAIEF54/4EdRehLXhKoGF01Ld5Fc0LmIMhUCAwEAAaOBgDB+
MAwGA1UdEwEB/wQCMAAwHQYDVR0OBBYEFE55/7OLrLb5AzY3gHSYZM6CQDWrMB8G
A1UdIwQYMBaAFJsmC4qYqbsduR8c4xpAM+2OF4irMB0GA1UdJQQWMBQGCCsGAQUF
BwMBBggrBgEFBQcDAjAPBgNVHREECDAGhwR/AAABMA0GCSqGSIb3DQEBCwUAA4IB
AQCQsq7IZkknlJ8snbE9WzCkwEOzI2MiaRiF0x3eZSUU/c7T3Clr2ibS60wWVT7M
ukAdZe7bM57k0pFDzskEz0KRcRDN9FoAHmebFo0sstKTSESlwv/8Na/A9SGrCMy0
PORdEW6OGlwE9+BP3IpnH5pHRkY3OuZfRx0r4DZX0J34VMgYOIdWh4ANPPmpA3iH
rH/RGCYodoU33pw3jmvpkQPPamKHGxiFCpNE7zdlueXn+hJUNDhk8Zv9j3c8Qjoj
j5aWQZHgpGHauSrSnSAyFT5/bfe5WH/a6rHIx4KfgpyKB7bFDoJzHSBmldzOvKoJ
8tn3K88m57i5bBLOnIqZB4U6
-----END CERTIFICATE-----
