Certificate:
    Data:
        Version: 3 (0x2)
        Serial Number:
            3e:2c:9d:be:b0:42:c8:cf:fc:99:42:d5:4d:41:6a:ae
        Signature Algorithm: sha256WithRSAEncryption
        Issuer: C=US, ST=California, L=Mountain View, O=Test CA, CN=Test Root CA
        Validity
            Not Before: Apr  2 00:00:00 2015 GMT
            Not After : Jul  2 00:00:00 2018 GMT
        Subject: C=US, ST=California, L=Mountain View, O=Test CA, CN=127.0.0.1
        Subject Public Key Info:
            Public Key Algorithm: rsaEncryption
                RSA Public-Key: (2048 bit)
                Modulus:
                    00:b8:6e:8d:68:4f:77:ca:bd:68:33:e0:34:86:88:
                    c0:77:99:40:10:59:4c:13:26:35:82:ca:a9:95:6d:
                    2d:5b:db:08:54:25:9b:89:17:7b:95:f9:76:73:51:
                    0f:04:de:ba:d0:24:7d:53:e7:17:87:e7:29:96:23:
                    f1:79:a6:48:99:e7:f0:58:d1:82:2d:97:33:8f:7f:
                    21:7b:33:b8:bb:66:a2:cb:9f:14:12:15:9c:b4:8c:
                    b4:eb:e3:90:5a:3a:60:fe:0a:cc:60:38:62:75:5b:
                    90:15:39:10:19:44:67:c2:bf:e2:00:c1:85:f8:9e:
                    2a:66:c7:75:36:d3:f4:c0:9e:aa:1d:2f:6f:17:20:
                    35:3d:eb:b6:e1:2a:28:1d:c9:d3:c5:49:a2:e0:30:
                    45:09:88:1d:39:c3:ba:f2:fa:de:a6:b6:95:fa:4f:
                    1d:cf:8b:35:46:48:24:a6:b0:f0:6f:e6:e2:20:75:
                    8a:1b:84:08:90:e6:c4:99:ab:f2:b5:7d:cf:58:b2:
                    f8:24:fd:70:01:bf:e4:bd:34:9f:54:a7:27:6e:50:
                    12:76:0c:05:46:15:46:43:4c:85:79:e1:b0:b4:58:
                    5d:0e:82:9e:c0:74:ef:00:6e:7c:87:39:86:c3:7d:
                    28:cd:4c:04:c8:04:76:95:74:8a:b9:b9:e5:69:1e:
                    4e:bf
                Exponent: 65537 (0x10001)
        X509v3 extensions:
            X509v3 Basic Constraints: critical
                CA:FALSE
            X509v3 Subject Key Identifier: 
                2B:FE:91:91:29:47:E7:52:B7:72:F9:10:DF:E9:16:03:E5:5E:CB:18
            X509v3 Authority Key Identifier: 
                keyid:9B:26:0B:8A:98:A9:BB:1D:B9:1F:1C:E3:1A:40:33:ED:8E:17:88:AB

            X509v3 Extended Key Usage: 
                TLS Web Server Authentication, TLS Web Client Authentication
            X509v3 Subject Alternative Name: 
                IP Address:127.0.0.1
    Signature Algorithm: sha256WithRSAEncryption
         37:49:01:63:f6:d0:5d:df:c6:49:f2:3a:4a:62:cc:f9:c2:23:
         07:7f:bf:08:be:84:93:77:6b:b2:93:86:3d:0b:d1:0e:0b:d4:
         8d:2f:eb:b4:a4:f6:19:b3:77:16:f5:29:88:5a:f0:cb:18:98:
         7c:d1:5d:23:7c:65:6c:c2:c9:95:42:1a:06:21:85:46:26:f9:
         45:1e:91:81:32:dd:e5:a3:75:d9:39:14:8a:2e:bb:35:7e:6a:
         a8:77:2c:4e:7e:5d:83:05:2c:b3:4b:41:9c:93:4c:d6:74:1c:
         6b:f2:98:e3:48:a4:d3:82:46:62:45:aa:4c:77:e2:7e:f3:0a:
         e5:8a:0a:ef:47:d4:4a:f0:47:53:c3:25:87:9d:84:5d:3a:c4:
         79:33:0c:06:5e:98:ec:14:dc:ee:15:ca:f1:3f:b7:f3:ac:a9:
         11:2a:3f:e2:ba:bb:f9:4c:43:b9:7e:01:27:a0:9d:92:4a:02:
         21:cb:21:d7:b7:5d:f8:65:03:24:64:ac:11:d0:11:c3:93:72:
         e0:be:11:73:8d:4f:7a:8d:c6:95:49:bd:84:61:95:79:3e:94:
         67:c7:55:19:87:84:c0:04:e4:8e:ce:bd:b5:bb:87:54:9f:10:
         4e:5c:43:52:c4:3c:cb:1d:e9:27:cc:f1:37:bf:cc:99:7f:71:
         e5:31:49:bd
-----BEGIN CERTIFICATE-----
MIIDzjCCAragAwIBAgIQPiydvrBCyM/8mULVTUFqrjANBgkqhkiG9w0BAQsFADBj
MQswCQYDVQQGEwJVUzETMBEGA1UECAwKQ2FsaWZvcm5pYTEWMBQGA1UEBwwNTW91
bnRhaW4gVmlldzEQMA4GA1UECgwHVGVzdCBDQTEVMBMGA1UEAwwMVGVzdCBSb290
IENBMB4XDTE1MDQwMjAwMDAwMFoXDTE4MDcwMjAwMDAwMFowYDELMAkGA1UEBhMC
VVMxEzARBgNVBAgMCkNhbGlmb3JuaWExFjAUBgNVBAcMDU1vdW50YWluIFZpZXcx
EDAOBgNVBAoMB1Rlc3QgQ0ExEjAQBgNVBAMMCTEyNy4wLjAuMTCCASIwDQYJKoZI
hvcNAQEBBQADggEPADCCAQoCggEBALhujWhPd8q9aDPgNIaIwHeZQBBZTBMmNYLK
qZVtLVvbCFQlm4kXe5X5dnNRDwTeutAkfVPnF4fnKZYj8XmmSJnn8FjRgi2XM49/
IXszuLtmosufFBIVnLSMtOvjkFo6YP4KzGA4YnVbkBU5EBlEZ8K/4gDBhfieKmbH
dTbT9MCeqh0vbxcgNT3rtuEqKB3J08VJouAwRQmIHTnDuvL63qa2lfpPHc+LNUZI
JKaw8G/m4iB1ihuECJDmxJmr8rV9z1iy+CT9cAG/5L00n1SnJ25QEnYMBUYVRkNM
hXnhsLRYXQ6CnsB07wBufIc5hsN9KM1MBMgEdpV0irm55WkeTr8CAwEAAaOBgDB+
MAwGA1UdEwEB/wQCMAAwHQYDVR0OBBYEFCv+kZEpR+dSt3L5EN/pFgPlXssYMB8G
A1UdIwQYMBaAFJsmC4qYqbsduR8c4xpAM+2OF4irMB0GA1UdJQQWMBQGCCsGAQUF
BwMBBggrBgEFBQcDAjAPBgNVHREECDAGhwR/AAABMA0GCSqGSIb3DQEBCwUAA4IB
AQA3SQFj9tBd38ZJ8jpKYsz5wiMHf78IvoSTd2uyk4Y9C9EOC9SNL+u0pPYZs3cW
9SmIWvDLGJh80V0jfGVswsmVQhoGIYVGJvlFHpGBMt3lo3XZORSKLrs1fmqodyxO
fl2DBSyzS0Gck0zWdBxr8pjjSKTTgkZiRapMd+J+8wrligrvR9RK8EdTwyWHnYRd
OsR5MwwGXpjsFNzuFcrxP7fzrKkRKj/iurv5TEO5fgEnoJ2SSgIhyyHXt134ZQMk
ZKwR0BHDk3LgvhFzjU96jcaVSb2EYZV5PpRnx1UZh4TABOSOzr21u4dUnxBOXENS
xDzLHeknzPE3v8yZf3HlMUm9
-----END CERTIFICATE-----
