Certificate:
    Data:
        Version: 3 (0x2)
        Serial Number:
            cf:95:70:1c:b6:6c:07:bb:a4:de:63:24:47:3b:4e:ce
        Signature Algorithm: sha256WithRSAEncryption
        Issuer: C=US, ST=California, L=Mountain View, O=Test CA, CN=Test Root CA
        Validity
            Not Before: Feb 28 00:00:00 2017 GMT
            Not After : May 30 00:00:00 2020 GMT
        Subject: C=US, ST=California, L=Mountain View, O=Test CA, CN=127.0.0.1
        Subject Public Key Info:
            Public Key Algorithm: rsaEncryption
                Public-Key: (2048 bit)
                Modulus:
                    00:cf:82:70:99:ee:83:08:01:67:2a:2a:cc:f8:c2:
                    51:48:91:23:10:a3:8d:65:96:67:c3:31:07:c6:0d:
                    20:7b:92:aa:5d:0b:6d:15:95:38:a4:2d:44:7d:f5:
                    94:b1:6e:3d:5c:b2:94:f6:d3:c1:92:44:69:7e:17:
                    b7:2b:2c:fb:31:f2:b2:94:d7:a7:af:db:2d:e4:09:
                    ab:0e:6c:bc:a1:6a:70:b7:b9:b3:51:a1:97:6d:03:
                    45:83:e0:b7:1d:bb:0b:0f:62:93:af:3e:b8:62:b8:
                    29:60:02:6a:68:a7:4d:29:44:de:9c:f4:31:4b:d8:
                    f4:69:60:8f:59:ac:5f:85:ff:9e:98:8c:a5:74:1b:
                    41:0e:75:cf:48:eb:aa:38:f6:54:74:e9:19:43:29:
                    de:a9:84:de:00:41:5c:dd:7a:5e:89:d8:66:ea:fd:
                    e0:e9:ad:b1:5a:71:d9:dc:2f:b0:fc:d3:74:6b:d7:
                    56:76:d3:47:46:f2:d3:9c:f5:0e:d5:4f:a6:72:4a:
                    a1:8b:9a:c8:7a:31:b6:d4:e7:14:d7:1a:c0:04:fc:
                    37:74:81:4f:6f:1c:88:de:48:7f:0a:c9:60:45:4e:
                    13:52:76:64:a3:75:c4:63:97:13:0a:10:9c:3f:8c:
                    dd:12:99:64:c5:79:4f:60:5a:08:c5:5f:57:08:d1:
                    7a:71
                Exponent: 65537 (0x10001)
        X509v3 extensions:
            X509v3 Basic Constraints: critical
                CA:FALSE
            X509v3 Subject Key Identifier: 
                8F:33:3A:03:3F:E9:3B:61:36:86:27:8A:9B:73:CA:4C:E2:24:EF:D0
            X509v3 Authority Key Identifier: 
                9B:26:0B:8A:98:A9:BB:1D:B9:1F:1C:E3:1A:40:33:ED:8E:17:88:AB
            X509v3 Extended Key Usage: 
                TLS Web Server Authentication, TLS Web Client Authentication
            X509v3 Subject Alternative Name: 
                IP Address:127.0.0.1
    Signature Algorithm: sha256WithRSAEncryption
    Signature Value:
        0b:c9:ef:53:44:b8:70:e8:6c:b6:69:65:a4:85:c9:51:66:de:
        e1:a1:93:d6:6d:05:68:81:9a:7d:fa:74:10:af:ed:f2:e7:44:
        cb:ed:97:69:24:b5:af:ed:03:66:79:51:2c:75:b3:54:91:90:
        e0:e6:1a:b9:ae:be:92:e0:8b:54:d0:fc:ac:46:fe:3b:63:63:
        97:05:67:66:7a:a1:d5:02:33:b4:ae:82:e4:31:45:8d:4a:23:
        aa:2c:66:13:76:e3:f8:b7:f4:0a:86:29:37:f3:45:37:c6:04:
        29:7f:06:de:59:aa:d5:f4:59:f8:25:32:5f:60:ce:b2:d9:a6:
        85:13:15:78:3b:57:72:5f:ad:b2:65:62:28:05:e6:2c:50:f4:
        5a:7e:6a:a8:bf:0a:c9:0a:24:2f:d0:5f:c6:db:2e:78:a9:74:
        d9:c0:a5:78:4e:c0:e1:a3:55:c8:8a:77:92:b5:db:d9:5b:1c:
        32:33:b9:c2:e3:5a:43:c9:c1:72:78:3d:ab:1b:d0:3a:44:45:
        92:cd:8a:38:7a:e7:c7:74:db:93:a8:c1:dd:3c:1e:ad:fb:a4:
        f6:a0:b2:c4:cf:e4:5e:81:0c:d2:2c:fb:65:15:62:2c:20:f9:
        af:61:b2:a0:13:a5:15:3f:2d:a3:49:bd:06:44:ab:d9:45:b3:
        79:05:37:85
-----BEGIN CERTIFICATE-----
MIIDzzCCAregAwIBAgIRAM+VcBy2bAe7pN5jJEc7Ts4wDQYJKoZIhvcNAQELBQAw
YzELMAkGA1UEBhMCVVMxEzARBgNVBAgMCkNhbGlmb3JuaWExFjAUBgNVBAcMDU1v
dW50YWluIFZpZXcxEDAOBgNVBAoMB1Rlc3QgQ0ExFTATBgNVBAMMDFRlc3QgUm9v
dCBDQTAeFw0xNzAyMjgwMDAwMDBaFw0yMDA1MzAwMDAwMDBaMGAxCzAJBgNVBAYT
AlVTMRMwEQYDVQQIDApDYWxpZm9ybmlhMRYwFAYDVQQHDA1Nb3VudGFpbiBWaWV3
MRAwDgYDVQQKDAdUZXN0IENBMRIwEAYDVQQDDAkxMjcuMC4wLjEwggEiMA0GCSqG
SIb3DQEBAQUAA4IBDwAwggEKAoIBAQDPgnCZ7oMIAWcqKsz4wlFIkSMQo41llmfD
MQfGDSB7kqpdC20VlTikLUR99ZSxbj1cspT208GSRGl+F7crLPsx8rKU16ev2y3k
CasObLyhanC3ubNRoZdtA0WD4LcduwsPYpOvPrhiuClgAmpop00pRN6c9DFL2PRp
YI9ZrF+F/56YjKV0G0EOdc9I66o49lR06RlDKd6phN4AQVzdel6J2Gbq/eDprbFa
cdncL7D803Rr11Z200dG8tOc9Q7VT6ZySqGLmsh6MbbU5xTXGsAE/Dd0gU9vHIje
SH8KyWBFThNSdmSjdcRjlxMKEJw/jN0SmWTFeU9gWgjFX1cI0XpxAgMBAAGjgYAw
fjAMBgNVHRMBAf8EAjAAMB0GA1UdDgQWBBSPMzoDP+k7YTaGJ4qbc8pM4iTv0DAf
BgNVHSMEGDAWgBSbJguKmKm7HbkfHOMaQDPtjheIqzAdBgNVHSUEFjAUBggrBgEF
BQcDAQYIKwYBBQUHAwIwDwYDVR0RBAgwBocEfwAAATANBgkqhkiG9w0BAQsFAAOC
AQEAC8nvU0S4cOhstmllpIXJUWbe4aGT1m0FaIGaffp0EK/t8udEy+2XaSS1r+0D
ZnlRLHWzVJGQ4OYaua6+kuCLVND8rEb+O2NjlwVnZnqh1QIztK6C5DFFjUojqixm
E3bj+Lf0CoYpN/NFN8YEKX8G3lmq1fRZ+CUyX2DOstmmhRMVeDtXcl+tsmViKAXm
LFD0Wn5qqL8KyQokL9BfxtsueKl02cCleE7A4aNVyIp3krXb2VscMjO5wuNaQ8nB
cng9qxvQOkRFks2KOHrnx3Tbk6jB3Twerfuk9qCyxM/kXoEM0iz7ZRViLCD5r2Gy
oBOlFT8to0m9BkSr2UWzeQU3hQ==
-----END CERTIFICATE-----
