Certificate:
    Data:
        Version: 3 (0x2)
        Serial Number:
            cf:95:70:1c:b6:6c:07:bb:a4:de:63:24:47:3b:4e:ca
        Signature Algorithm: sha256WithRSAEncryption
        Issuer: C=US, ST=California, L=Mountain View, O=Test CA, CN=Test Root CA
        Validity
            Not Before: Apr  2 00:00:00 2015 GMT
            Not After : Jul  2 00:00:00 2018 GMT
        Subject: C=US, ST=California, L=Mountain View, O=Test CA, CN=127.0.0.1
        Subject Public Key Info:
            Public Key Algorithm: rsaEncryption
                Public-Key: (2048 bit)
                Modulus:
                    00:aa:3d:71:c6:2b:b8:75:da:c2:57:6a:0f:60:5b:
                    33:33:ff:25:0f:d5:23:da:8a:0f:90:90:ee:54:7c:
                    5f:66:85:2c:3e:0c:43:2a:6e:bc:6e:b6:ea:c3:e0:
                    2c:01:4a:c2:5f:87:34:e9:bc:9f:73:3b:14:5d:55:
                    34:d3:0f:54:3d:11:1d:56:3d:a2:48:bf:be:19:65:
                    1d:76:b3:dd:43:56:26:fd:42:b1:86:e3:b7:47:3a:
                    47:0c:4b:ba:e2:dc:43:7f:d9:26:32:75:62:56:4d:
                    7a:68:9f:a5:04:6a:60:8b:0c:92:44:ec:dd:28:e5:
                    51:3e:ca:79:76:2e:74:bf:7e:41:39:4c:c2:c0:6a:
                    cb:7a:19:b1:3e:8e:ba:d8:05:5e:62:8e:2d:b4:19:
                    a1:e7:12:9e:98:eb:fb:34:e7:15:7c:dc:96:fa:db:
                    22:78:e4:77:5d:fe:77:43:79:ab:a5:7e:1b:a5:5f:
                    10:be:c2:64:f5:a5:23:16:7f:aa:1e:3c:76:8c:4d:
                    85:72:55:23:4b:73:36:64:b7:c4:22:e3:52:4f:e8:
                    f6:aa:5c:da:04:d3:4f:5f:16:de:8d:26:a0:b2:d2:
                    7c:24:5b:2a:c1:ed:ae:49:1c:8f:be:21:6a:01:e9:
                    ed:ae:99:2b:6c:4f:cf:6a:6c:74:2c:90:c7:58:73:
                    72:59
                Exponent: 65537 (0x10001)
        X509v3 extensions:
            X509v3 Basic Constraints: critical
                CA:FALSE
            X509v3 Subject Key Identifier: 
                34:06:C1:60:22:A1:43:A0:0C:37:F0:AF:AD:EC:0C:26:E7:78:24:0C
            X509v3 Authority Key Identifier: 
                9B:26:0B:8A:98:A9:BB:1D:B9:1F:1C:E3:1A:40:33:ED:8E:17:88:AB
            X509v3 Extended Key Usage: 
                TLS Web Server Authentication, TLS Web Client Authentication
            X509v3 Subject Alternative Name: 
                IP Address:127.0.0.1
    Signature Algorithm: sha256WithRSAEncryption
    Signature Value:
        80:2d:62:c9:ec:85:05:57:dd:6f:71:8a:38:76:27:60:b5:12:
        34:3d:70:bc:5f:f9:11:05:cb:91:33:b3:27:e0:73:51:27:fd:
        eb:f2:36:c0:21:58:5b:e0:27:d4:69:04:17:88:bb:09:36:dd:
        49:38:60:2c:f3:d6:42:bf:1c:82:ad:a6:b6:b5:63:3b:15:39:
        a7:82:af:ed:5a:90:57:c9:f6:14:41:aa:4e:c4:13:d5:43:3d:
        64:6d:df:33:d3:8e:2b:b0:a4:f4:01:bd:e7:91:49:59:5b:5a:
        97:18:12:5a:c9:5a:86:bb:43:f5:da:c6:98:14:70:6a:35:c7:
        58:8b:64:d4:d8:24:f8:22:53:af:96:77:9a:fe:92:21:ac:f4:
        b3:73:35:aa:f3:f7:b4:05:66:0a:03:a1:96:a3:25:77:5a:d7:
        c6:28:6d:1b:63:aa:91:fd:33:de:a0:03:fa:f3:9e:ef:a6:88:
        d5:aa:90:37:44:89:dd:fe:74:e0:7a:dc:88:7c:71:5e:a7:bc:
        67:b3:c3:89:72:63:27:10:b5:6d:1d:8a:f3:5f:b0:03:fa:0d:
        47:c9:27:30:74:3e:00:b2:4a:7c:4d:d2:ce:22:d1:74:0f:5b:
        45:13:11:fb:82:a1:ab:69:c4:8e:27:d4:81:10:bb:b5:ed:6c:
        c6:60:30:01
-----BEGIN CERTIFICATE-----
MIIDzzCCAregAwIBAgIRAM+VcBy2bAe7pN5jJEc7TsowDQYJKoZIhvcNAQELBQAw
YzELMAkGA1UEBhMCVVMxEzARBgNVBAgMCkNhbGlmb3JuaWExFjAUBgNVBAcMDU1v
dW50YWluIFZpZXcxEDAOBgNVBAoMB1Rlc3QgQ0ExFTATBgNVBAMMDFRlc3QgUm9v
dCBDQTAeFw0xNTA0MDIwMDAwMDBaFw0xODA3MDIwMDAwMDBaMGAxCzAJBgNVBAYT
AlVTMRMwEQYDVQQIDApDYWxpZm9ybmlhMRYwFAYDVQQHDA1Nb3VudGFpbiBWaWV3
MRAwDgYDVQQKDAdUZXN0IENBMRIwEAYDVQQDDAkxMjcuMC4wLjEwggEiMA0GCSqG
SIb3DQEBAQUAA4IBDwAwggEKAoIBAQCqPXHGK7h12sJXag9gWzMz/yUP1SPaig+Q
kO5UfF9mhSw+DEMqbrxuturD4CwBSsJfhzTpvJ9zOxRdVTTTD1Q9ER1WPaJIv74Z
ZR12s91DVib9QrGG47dHOkcMS7ri3EN/2SYydWJWTXpon6UEamCLDJJE7N0o5VE+
ynl2LnS/fkE5TMLAast6GbE+jrrYBV5iji20GaHnEp6Y6/s05xV83Jb62yJ45Hdd
/ndDeaulfhulXxC+wmT1pSMWf6oePHaMTYVyVSNLczZkt8Qi41JP6PaqXNoE009f
Ft6NJqCy0nwkWyrB7a5JHI++IWoB6e2umStsT89qbHQskMdYc3JZAgMBAAGjgYAw
fjAMBgNVHRMBAf8EAjAAMB0GA1UdDgQWBBQ0BsFgIqFDoAw38K+t7Awm53gkDDAf
BgNVHSMEGDAWgBSbJguKmKm7HbkfHOMaQDPtjheIqzAdBgNVHSUEFjAUBggrBgEF
BQcDAQYIKwYBBQUHAwIwDwYDVR0RBAgwBocEfwAAATANBgkqhkiG9w0BAQsFAAOC
AQEAgC1iyeyFBVfdb3GKOHYnYLUSND1wvF/5EQXLkTOzJ+BzUSf96/I2wCFYW+An
1GkEF4i7CTbdSThgLPPWQr8cgq2mtrVjOxU5p4Kv7VqQV8n2FEGqTsQT1UM9ZG3f
M9OOK7Ck9AG955FJWVtalxgSWslahrtD9drGmBRwajXHWItk1Ngk+CJTr5Z3mv6S
Iaz0s3M1qvP3tAVmCgOhlqMld1rXxihtG2Oqkf0z3qAD+vOe76aI1aqQN0SJ3f50
4HrciHxxXqe8Z7PDiXJjJxC1bR2K81+wA/oNR8knMHQ+ALJKfE3SziLRdA9bRRMR
+4Khq2nEjifUgRC7te1sxmAwAQ==
-----END CERTIFICATE-----
