Certificate:
    Data:
        Version: 3 (0x2)
        Serial Number:
            cf:95:70:1c:b6:6c:07:bb:a4:de:63:24:47:3b:4e:cb
        Signature Algorithm: sha256WithRSAEncryption
        Issuer: C=US, ST=California, L=Mountain View, O=Test CA, CN=Test Root CA
        Validity
            Not Before: Apr  2 00:00:00 2015 GMT
            Not After : Aug  1 00:00:00 2018 GMT
        Subject: C=US, ST=California, L=Mountain View, O=Test CA, CN=127.0.0.1
        Subject Public Key Info:
            Public Key Algorithm: rsaEncryption
                Public-Key: (2048 bit)
                Modulus:
                    00:8b:a9:5a:a2:ae:0a:20:eb:6c:cb:4e:fe:19:f1:
                    f4:1b:44:e5:b1:97:a3:7d:c8:eb:60:4a:0d:e9:13:
                    7f:fe:5a:3d:66:2e:53:04:d2:44:fc:28:ac:f8:43:
                    e2:48:c3:f4:e6:48:58:b8:15:22:0b:21:51:7e:dc:
                    26:0a:ad:ec:ff:9a:7d:30:fd:16:2d:3f:a4:ef:6e:
                    e6:6d:d1:ca:cc:65:d0:f4:e1:01:9b:bb:98:d2:74:
                    65:39:45:36:8e:a9:2a:6c:ce:ec:e1:fc:b3:d0:6a:
                    bf:a6:64:02:09:8b:eb:0f:74:6d:30:72:ac:51:b8:
                    fe:c2:14:b6:c1:36:d1:85:af:f8:24:45:3e:1d:f3:
                    99:2b:5e:0f:9f:a3:ed:96:58:19:4c:b1:d5:ba:a2:
                    8b:1b:a7:e4:d2:1c:32:dd:a8:5a:57:41:71:29:55:
                    5a:f4:a8:79:8e:da:b3:55:d6:a5:b8:62:ac:dc:a1:
                    34:9d:e9:7e:2b:ec:4f:d2:1a:3a:95:64:11:f7:68:
                    44:f3:f5:f1:61:f5:e0:2a:16:a1:09:c4:eb:18:62:
                    4f:cb:72:e2:54:03:c5:3f:1b:e6:25:f9:59:a9:1f:
                    3d:6d:75:8c:28:21:fd:bf:d6:b2:de:89:4d:a5:14:
                    5d:6f:02:c2:08:49:32:cc:28:1b:99:76:f6:d5:ef:
                    6e:0b
                Exponent: 65537 (0x10001)
        X509v3 extensions:
            X509v3 Basic Constraints: critical
                CA:FALSE
            X509v3 Subject Key Identifier: 
                5C:24:0E:B0:E1:37:56:96:B0:FE:80:F3:C5:7D:FD:75:8F:CF:23:F8
            X509v3 Authority Key Identifier: 
                9B:26:0B:8A:98:A9:BB:1D:B9:1F:1C:E3:1A:40:33:ED:8E:17:88:AB
            X509v3 Extended Key Usage: 
                TLS Web Server Authentication, TLS Web Client Authentication
            X509v3 Subject Alternative Name: 
                IP Address:127.0.0.1
    Signature Algorithm: sha256WithRSAEncryption
    Signature Value:
        8c:ee:9f:59:ae:f8:13:c3:f3:e7:17:5f:2e:cf:aa:20:96:fa:
        8f:da:b2:42:30:9a:a1:a0:82:a6:cf:ef:cb:49:2c:75:77:a9:
        37:fc:e7:5b:65:29:fe:ef:0c:e6:2a:eb:ff:69:fb:cb:a2:51:
        45:77:5b:96:39:87:3c:8c:01:44:db:e3:89:f5:64:af:4a:50:
        e7:7a:01:fa:8e:13:ea:cd:70:2d:20:1f:44:96:52:ae:38:40:
        4d:cd:7a:1b:13:40:e1:64:05:d4:68:7b:92:52:04:a0:fa:e7:
        a2:c0:c0:ab:09:fa:59:70:0d:0e:c7:e3:b5:33:36:71:e3:bd:
        e7:58:4e:13:2f:e0:4b:df:5a:94:1d:43:ab:c9:5b:a7:1a:e7:
        96:a7:d2:30:4b:3d:2b:3e:16:3c:30:c8:30:f1:73:34:6e:23:
        b6:da:e3:ca:49:34:a9:72:fc:2f:c2:81:a3:8d:0a:3e:73:4a:
        21:40:de:ef:b7:2b:fa:ea:e9:83:9b:82:64:18:be:ab:63:67:
        0d:7b:bc:44:3a:89:a0:17:02:4d:01:08:9f:cb:2b:e2:67:d1:
        61:9e:b1:48:c9:04:9e:b3:90:8e:58:41:ef:37:7a:37:cd:83:
        fc:ce:7b:59:e8:b2:10:20:fb:79:8f:36:82:f4:88:4f:c9:0a:
        69:21:14:d3
-----BEGIN CERTIFICATE-----
MIIDzzCCAregAwIBAgIRAM+VcBy2bAe7pN5jJEc7TsswDQYJKoZIhvcNAQELBQAw
YzELMAkGA1UEBhMCVVMxEzARBgNVBAgMCkNhbGlmb3JuaWExFjAUBgNVBAcMDU1v
dW50YWluIFZpZXcxEDAOBgNVBAoMB1Rlc3QgQ0ExFTATBgNVBAMMDFRlc3QgUm9v
dCBDQTAeFw0xNTA0MDIwMDAwMDBaFw0xODA4MDEwMDAwMDBaMGAxCzAJBgNVBAYT
AlVTMRMwEQYDVQQIDApDYWxpZm9ybmlhMRYwFAYDVQQHDA1Nb3VudGFpbiBWaWV3
MRAwDgYDVQQKDAdUZXN0IENBMRIwEAYDVQQDDAkxMjcuMC4wLjEwggEiMA0GCSqG
SIb3DQEBAQUAA4IBDwAwggEKAoIBAQCLqVqirgog62zLTv4Z8fQbROWxl6N9yOtg
Sg3pE3/+Wj1mLlME0kT8KKz4Q+JIw/TmSFi4FSILIVF+3CYKrez/mn0w/RYtP6Tv
buZt0crMZdD04QGbu5jSdGU5RTaOqSpszuzh/LPQar+mZAIJi+sPdG0wcqxRuP7C
FLbBNtGFr/gkRT4d85krXg+fo+2WWBlMsdW6oosbp+TSHDLdqFpXQXEpVVr0qHmO
2rNV1qW4YqzcoTSd6X4r7E/SGjqVZBH3aETz9fFh9eAqFqEJxOsYYk/LcuJUA8U/
G+Yl+VmpHz1tdYwoIf2/1rLeiU2lFF1vAsIISTLMKBuZdvbV724LAgMBAAGjgYAw
fjAMBgNVHRMBAf8EAjAAMB0GA1UdDgQWBBRcJA6w4TdWlrD+gPPFff11j88j+DAf
BgNVHSMEGDAWgBSbJguKmKm7HbkfHOMaQDPtjheIqzAdBgNVHSUEFjAUBggrBgEF
BQcDAQYIKwYBBQUHAwIwDwYDVR0RBAgwBocEfwAAATANBgkqhkiG9w0BAQsFAAOC
AQEAjO6fWa74E8Pz5xdfLs+qIJb6j9qyQjCaoaCCps/vy0ksdXepN/znW2Up/u8M
5irr/2n7y6JRRXdbljmHPIwBRNvjifVkr0pQ53oB+o4T6s1wLSAfRJZSrjhATc16
GxNA4WQF1Gh7klIEoPrnosDAqwn6WXANDsfjtTM2ceO951hOEy/gS99alB1Dq8lb
pxrnlqfSMEs9Kz4WPDDIMPFzNG4jttrjykk0qXL8L8KBo40KPnNKIUDe77cr+urp
g5uCZBi+q2NnDXu8RDqJoBcCTQEIn8sr4mfRYZ6xSMkEnrOQjlhB7zd6N82D/M57
WeiyECD7eY82gvSIT8kKaSEU0w==
-----END CERTIFICATE-----
