Certificate:
    Data:
        Version: 3 (0x2)
        Serial Number:
            b0:6b:93:92:e3:5c:8d:7e:ed:9d:c8:96:59:c5:c2:72
        Signature Algorithm: sha256WithRSAEncryption
        Issuer: C=US, ST=California, L=Mountain View, O=Test CA, CN=Test Root CA
        Validity
            Not Before: Apr  2 00:00:00 2015 GMT
            Not After : Aug  1 00:00:00 2018 GMT
        Subject: C=US, ST=California, L=Mountain View, O=Test CA, CN=127.0.0.1
        Subject Public Key Info:
            Public Key Algorithm: rsaEncryption
                Public-Key: (2048 bit)
                Modulus:
                    00:a5:0f:16:e1:16:18:40:db:ce:15:87:a1:aa:d3:
                    1f:49:59:b6:38:e8:5d:f3:ed:f3:b0:29:04:c3:57:
                    ea:5a:7c:22:6b:ce:77:db:de:4d:d9:04:51:5c:f8:
                    06:74:fb:ec:d2:87:b2:96:fe:b4:b3:34:81:ae:9f:
                    a1:a1:c0:49:4b:d7:e8:bf:68:91:d4:57:f2:8d:1d:
                    0d:f5:92:c5:b5:fd:0b:bb:5f:51:8a:94:26:11:36:
                    3c:56:5e:c4:86:2b:1a:f5:df:1e:02:f5:e4:50:da:
                    76:b2:66:89:10:42:45:76:4a:32:09:fc:f7:13:2e:
                    cb:ff:e3:94:3e:80:64:0e:c7:84:b2:a1:8e:01:a0:
                    30:4f:c0:bd:f3:20:36:7b:f6:b1:26:d7:c5:4f:17:
                    c9:be:fc:2a:aa:e7:bc:0c:57:71:82:a0:3e:39:15:
                    0d:c5:95:79:44:1a:dd:ec:d3:e0:cc:ae:32:c8:00:
                    26:ed:da:f3:74:6e:5e:02:7e:02:bb:c1:a7:9c:d9:
                    3d:03:dc:b9:97:99:24:f3:72:58:8b:1d:0f:87:c2:
                    b2:15:2f:f9:27:77:6b:4d:d4:7d:1d:12:56:07:b9:
                    ad:bf:e8:93:af:92:fb:b3:83:76:f8:a8:7f:e3:d4:
                    28:a8:20:55:3c:66:39:8a:e9:0e:71:a1:78:9a:3b:
                    da:e5
                Exponent: 65537 (0x10001)
        X509v3 extensions:
            X509v3 Basic Constraints: critical
                CA:FALSE
            X509v3 Subject Key Identifier: 
                0C:63:B5:F8:FD:66:75:20:B7:40:9F:23:75:69:F4:49:D2:0E:BE:10
            X509v3 Authority Key Identifier: 
                9B:26:0B:8A:98:A9:BB:1D:B9:1F:1C:E3:1A:40:33:ED:8E:17:88:AB
            X509v3 Extended Key Usage: 
                TLS Web Server Authentication, TLS Web Client Authentication
            X509v3 Subject Alternative Name: 
                IP Address:127.0.0.1
    Signature Algorithm: sha256WithRSAEncryption
    Signature Value:
        38:26:c3:05:63:87:a9:a0:3f:de:4a:c5:05:59:9a:3c:fe:7a:
        b4:9b:83:a3:97:7a:55:9f:c1:41:8a:e6:dc:ee:5f:38:73:c6:
        ab:23:ce:20:1b:a0:02:b4:1f:d3:02:41:d4:7d:0f:c5:ee:ad:
        c2:e0:ba:3a:1a:1e:55:c6:24:6a:ac:f7:6a:fd:01:92:f6:fe:
        7e:e2:d1:d8:0a:8c:4e:fe:50:54:66:00:6f:fa:c7:fb:4d:29:
        f7:8c:ac:37:0b:a4:24:94:ce:e4:65:6b:85:0f:c2:df:92:bb:
        7f:39:62:c3:49:30:c9:59:e4:6b:8b:97:9c:71:17:58:c0:fd:
        b9:3b:cc:f5:d0:d9:cd:e7:6d:ac:7a:b4:5e:df:45:23:e9:77:
        4a:f5:dc:79:7f:a4:89:e9:26:bc:49:81:f1:52:76:b0:f5:2e:
        64:3f:ab:cc:e7:8b:92:6e:3d:d5:05:90:13:fc:8f:1f:26:4e:
        2f:2b:e9:a2:3f:39:88:98:36:b0:62:7c:65:3c:58:5c:c0:0f:
        98:97:fa:ac:6d:f2:27:94:20:1c:d8:5b:e2:17:95:8b:5b:c1:
        c4:74:b2:90:b3:98:6e:be:79:bf:b1:c6:94:4a:7c:56:de:f3:
        99:04:cf:5c:5b:2a:79:8a:87:6e:68:17:4c:b4:19:42:8b:b6:
        cd:2f:ea:cf
-----BEGIN CERTIFICATE-----
MIIDzzCCAregAwIBAgIRALBrk5LjXI1+7Z3IllnFwnIwDQYJKoZIhvcNAQELBQAw
YzELMAkGA1UEBhMCVVMxEzARBgNVBAgMCkNhbGlmb3JuaWExFjAUBgNVBAcMDU1v
dW50YWluIFZpZXcxEDAOBgNVBAoMB1Rlc3QgQ0ExFTATBgNVBAMMDFRlc3QgUm9v
dCBDQTAeFw0xNTA0MDIwMDAwMDBaFw0xODA4MDEwMDAwMDBaMGAxCzAJBgNVBAYT
AlVTMRMwEQYDVQQIDApDYWxpZm9ybmlhMRYwFAYDVQQHDA1Nb3VudGFpbiBWaWV3
MRAwDgYDVQQKDAdUZXN0IENBMRIwEAYDVQQDDAkxMjcuMC4wLjEwggEiMA0GCSqG
SIb3DQEBAQUAA4IBDwAwggEKAoIBAQClDxbhFhhA284Vh6Gq0x9JWbY46F3z7fOw
KQTDV+pafCJrznfb3k3ZBFFc+AZ0++zSh7KW/rSzNIGun6GhwElL1+i/aJHUV/KN
HQ31ksW1/Qu7X1GKlCYRNjxWXsSGKxr13x4C9eRQ2nayZokQQkV2SjIJ/PcTLsv/
45Q+gGQOx4SyoY4BoDBPwL3zIDZ79rEm18VPF8m+/Cqq57wMV3GCoD45FQ3FlXlE
Gt3s0+DMrjLIACbt2vN0bl4CfgK7waec2T0D3LmXmSTzcliLHQ+HwrIVL/knd2tN
1H0dElYHua2/6JOvkvuzg3b4qH/j1CioIFU8ZjmK6Q5xoXiaO9rlAgMBAAGjgYAw
fjAMBgNVHRMBAf8EAjAAMB0GA1UdDgQWBBQMY7X4/WZ1ILdAnyN1afRJ0g6+EDAf
BgNVHSMEGDAWgBSbJguKmKm7HbkfHOMaQDPtjheIqzAdBgNVHSUEFjAUBggrBgEF
BQcDAQYIKwYBBQUHAwIwDwYDVR0RBAgwBocEfwAAATANBgkqhkiG9w0BAQsFAAOC
AQEAOCbDBWOHqaA/3krFBVmaPP56tJuDo5d6VZ/BQYrm3O5fOHPGqyPOIBugArQf
0wJB1H0Pxe6twuC6OhoeVcYkaqz3av0Bkvb+fuLR2AqMTv5QVGYAb/rH+00p94ys
NwukJJTO5GVrhQ/C35K7fzliw0kwyVnka4uXnHEXWMD9uTvM9dDZzedtrHq0Xt9F
I+l3SvXceX+kiekmvEmB8VJ2sPUuZD+rzOeLkm491QWQE/yPHyZOLyvpoj85iJg2
sGJ8ZTxYXMAPmJf6rG3yJ5QgHNhb4heVi1vBxHSykLOYbr55v7HGlEp8Vt7zmQTP
XFsqeYqHbmgXTLQZQou2zS/qzw==
-----END CERTIFICATE-----
