Certificate:
    Data:
        Version: 3 (0x2)
        Serial Number:
            12:f6:d9:f1:80:1b:50:9f:64:09:c8:ea:2f:16:33:ae
        Signature Algorithm: sha256WithRSAEncryption
        Issuer: C=US, ST=California, L=Mountain View, O=Test CA, CN=Test Root CA
        Validity
            Not Before: Apr  2 00:00:00 2015 GMT
            Not After : Aug  1 00:00:00 2018 GMT
        Subject: C=US, ST=California, L=Mountain View, O=Test CA, CN=127.0.0.1
        Subject Public Key Info:
            Public Key Algorithm: rsaEncryption
                RSA Public-Key: (2048 bit)
                Modulus:
                    00:b9:b8:df:f4:94:68:b3:71:59:fb:f9:01:62:0e:
                    c3:63:db:0d:8f:87:3f:58:77:e9:71:a2:48:f6:d2:
                    19:d4:a1:b7:08:2e:6a:68:22:1c:9c:d5:48:86:cf:
                    e5:af:5a:05:2e:2d:f9:de:b3:3a:d2:cf:40:86:75:
                    8b:a1:fb:38:e0:ac:5b:ea:14:4a:31:0f:ec:fb:2d:
                    36:53:ed:39:a4:fb:3f:f8:0f:92:9b:cf:f0:82:21:
                    ac:de:08:35:89:ed:a1:a2:b9:19:19:f3:0d:09:e4:
                    56:93:5e:83:c9:55:8f:c4:63:bc:48:53:52:f7:6c:
                    7e:1a:f8:63:2b:af:c5:e6:ec:f9:93:42:80:ff:20:
                    1c:e6:55:c9:97:74:67:38:2f:59:c9:fa:6e:f0:2d:
                    a3:12:bf:e8:28:05:62:a6:64:48:3f:3a:28:2f:08:
                    87:8d:66:b6:a1:c6:00:2f:52:69:9b:e3:96:fa:f1:
                    f2:3b:b8:34:3c:ef:cb:b5:2b:8c:d9:38:49:32:09:
                    ef:c9:26:ab:c6:f0:90:32:2c:4e:f9:63:0b:c0:bf:
                    fd:a3:8b:c9:de:9a:13:69:fd:08:f9:51:4a:b0:7d:
                    85:de:4e:b7:57:a3:04:8f:41:6a:2f:5b:53:0a:d8:
                    d0:dc:b3:88:b1:57:59:4a:7c:23:65:29:54:b0:11:
                    57:eb
                Exponent: 65537 (0x10001)
        X509v3 extensions:
            X509v3 Basic Constraints: critical
                CA:FALSE
            X509v3 Subject Key Identifier: 
                05:F2:4B:B7:C9:31:11:E1:F3:37:96:A5:FE:41:86:0C:FC:A9:47:E3
            X509v3 Authority Key Identifier: 
                keyid:9B:26:0B:8A:98:A9:BB:1D:B9:1F:1C:E3:1A:40:33:ED:8E:17:88:AB

            X509v3 Extended Key Usage: 
                TLS Web Server Authentication, TLS Web Client Authentication
            X509v3 Subject Alternative Name: 
                IP Address:127.0.0.1
    Signature Algorithm: sha256WithRSAEncryption
         64:8b:0d:b4:b6:a5:78:82:28:1c:01:9b:ff:1a:1a:c8:e5:12:
         34:91:ba:dc:ba:5b:8c:27:3e:e1:2d:9c:8d:84:04:14:aa:32:
         4a:7d:a2:43:8d:08:f6:c9:48:6b:13:8a:81:0a:8f:6b:5a:c9:
         fb:2a:95:cb:b0:66:35:45:01:04:a6:ed:31:15:a3:1d:f8:24:
         16:95:d1:9e:93:3f:6a:fd:d6:8e:19:da:89:62:df:09:11:47:
         5d:b8:83:d8:59:07:91:1e:c1:3c:03:b6:2f:ad:f3:ed:8c:09:
         3a:06:73:12:93:a2:31:66:55:1d:32:40:a8:e5:7d:0a:88:4d:
         67:53:ba:dd:d9:43:57:36:81:e3:ef:cf:a4:56:10:f7:28:9a:
         00:d2:0e:45:c1:31:e1:89:48:db:4e:8c:df:22:02:04:a0:4e:
         85:2f:7b:3b:9f:84:79:c0:10:90:18:43:d6:2d:2e:15:bf:2b:
         8d:62:0d:c3:ce:54:9e:8c:09:f3:fa:f6:24:78:2d:c1:81:a7:
         ec:65:1d:5a:a6:29:6c:fe:a0:8e:0a:df:45:55:55:73:24:99:
         ac:62:82:ed:56:ef:5a:5a:d0:55:67:27:df:01:5d:9d:ec:04:
         c1:bd:46:58:5c:20:23:b5:d8:02:7f:50:43:ec:e8:e3:fb:79:
         7f:87:7a:5c
-----BEGIN CERTIFICATE-----
MIIDzjCCAragAwIBAgIQEvbZ8YAbUJ9kCcjqLxYzrjANBgkqhkiG9w0BAQsFADBj
MQswCQYDVQQGEwJVUzETMBEGA1UECAwKQ2FsaWZvcm5pYTEWMBQGA1UEBwwNTW91
bnRhaW4gVmlldzEQMA4GA1UECgwHVGVzdCBDQTEVMBMGA1UEAwwMVGVzdCBSb290
IENBMB4XDTE1MDQwMjAwMDAwMFoXDTE4MDgwMTAwMDAwMFowYDELMAkGA1UEBhMC
VVMxEzARBgNVBAgMCkNhbGlmb3JuaWExFjAUBgNVBAcMDU1vdW50YWluIFZpZXcx
EDAOBgNVBAoMB1Rlc3QgQ0ExEjAQBgNVBAMMCTEyNy4wLjAuMTCCASIwDQYJKoZI
hvcNAQEBBQADggEPADCCAQoCggEBALm43/SUaLNxWfv5AWIOw2PbDY+HP1h36XGi
SPbSGdShtwguamgiHJzVSIbP5a9aBS4t+d6zOtLPQIZ1i6H7OOCsW+oUSjEP7Pst
NlPtOaT7P/gPkpvP8IIhrN4INYntoaK5GRnzDQnkVpNeg8lVj8RjvEhTUvdsfhr4
Yyuvxebs+ZNCgP8gHOZVyZd0ZzgvWcn6bvAtoxK/6CgFYqZkSD86KC8Ih41mtqHG
AC9SaZvjlvrx8ju4NDzvy7UrjNk4STIJ78kmq8bwkDIsTvljC8C//aOLyd6aE2n9
CPlRSrB9hd5Ot1ejBI9Bai9bUwrY0NyziLFXWUp8I2UpVLARV+sCAwEAAaOBgDB+
MAwGA1UdEwEB/wQCMAAwHQYDVR0OBBYEFAXyS7fJMRHh8zeWpf5Bhgz8qUfjMB8G
A1UdIwQYMBaAFJsmC4qYqbsduR8c4xpAM+2OF4irMB0GA1UdJQQWMBQGCCsGAQUF
BwMBBggrBgEFBQcDAjAPBgNVHREECDAGhwR/AAABMA0GCSqGSIb3DQEBCwUAA4IB
AQBkiw20tqV4gigcAZv/GhrI5RI0kbrculuMJz7hLZyNhAQUqjJKfaJDjQj2yUhr
E4qBCo9rWsn7KpXLsGY1RQEEpu0xFaMd+CQWldGekz9q/daOGdqJYt8JEUdduIPY
WQeRHsE8A7YvrfPtjAk6BnMSk6IxZlUdMkCo5X0KiE1nU7rd2UNXNoHj78+kVhD3
KJoA0g5FwTHhiUjbTozfIgIEoE6FL3s7n4R5wBCQGEPWLS4VvyuNYg3DzlSejAnz
+vYkeC3BgafsZR1apils/qCOCt9FVVVzJJmsYoLtVu9aWtBVZyffAV2d7ATBvUZY
XCAjtdgCf1BD7Ojj+3l/h3pc
-----END CERTIFICATE-----
