Certificate:
    Data:
        Version: 3 (0x2)
        Serial Number:
            3e:2c:9d:be:b0:42:c8:cf:fc:99:42:d5:4d:41:6a:af
        Signature Algorithm: sha256WithRSAEncryption
        Issuer: C=US, ST=California, L=Mountain View, O=Test CA, CN=Test Root CA
        Validity
            Not Before: Apr  2 00:00:00 2015 GMT
            Not After : Aug  1 00:00:00 2018 GMT
        Subject: C=US, ST=California, L=Mountain View, O=Test CA, CN=127.0.0.1
        Subject Public Key Info:
            Public Key Algorithm: rsaEncryption
                RSA Public-Key: (2048 bit)
                Modulus:
                    00:c6:38:11:5d:02:9c:2e:98:d0:8b:06:27:b3:11:
                    f2:f3:36:55:3d:e4:4e:6b:6b:0a:99:0d:69:1d:57:
                    61:6b:f2:c6:20:6f:b0:bc:50:b3:44:00:13:09:23:
                    e7:18:5a:49:90:48:cd:b1:c7:9a:e9:a1:ef:9d:92:
                    67:c9:ca:a8:ff:43:49:1b:8f:48:4a:63:ec:48:9c:
                    e2:e6:92:ea:7a:d4:04:92:de:46:88:0d:56:54:4b:
                    43:29:54:f6:85:ff:9c:99:83:c2:64:0a:f6:da:cd:
                    fd:81:29:be:3e:25:99:1a:9c:94:22:52:f0:9c:b8:
                    45:32:61:68:b3:5d:e2:9d:f6:3f:04:6f:49:c8:d8:
                    22:9b:46:ca:73:99:62:a7:38:fb:27:ec:55:74:5c:
                    cd:83:b8:be:30:28:f8:18:c4:e5:08:36:09:e6:7e:
                    59:e7:cb:2b:f7:b2:8e:2b:46:6b:15:19:61:19:0c:
                    ba:bf:5d:0d:d3:7a:3a:06:96:79:5e:cb:f4:5b:c8:
                    54:f4:0f:e7:68:63:64:bc:69:61:ec:a6:5f:74:18:
                    60:a3:7c:86:db:ca:2f:2b:3e:e2:8b:75:21:c4:b8:
                    21:a4:65:30:bb:fe:f3:6f:d8:d5:fb:67:d3:65:4d:
                    9f:b1:98:5a:3c:ac:6b:4d:d2:32:4e:98:b9:16:a2:
                    70:91
                Exponent: 65537 (0x10001)
        X509v3 extensions:
            X509v3 Basic Constraints: critical
                CA:FALSE
            X509v3 Subject Key Identifier: 
                5C:12:BB:05:BF:14:14:34:85:67:ED:C5:E3:3B:BF:FC:49:27:AE:E3
            X509v3 Authority Key Identifier: 
                keyid:9B:26:0B:8A:98:A9:BB:1D:B9:1F:1C:E3:1A:40:33:ED:8E:17:88:AB

            X509v3 Extended Key Usage: 
                TLS Web Server Authentication, TLS Web Client Authentication
            X509v3 Subject Alternative Name: 
                IP Address:127.0.0.1
    Signature Algorithm: sha256WithRSAEncryption
         31:3a:7d:11:f7:80:72:df:80:6b:c8:e9:72:e1:f3:b5:3e:09:
         a0:79:44:8a:08:5a:3e:e0:f7:7e:59:66:df:99:c6:d8:09:6b:
         cc:c8:9e:76:4f:c5:5b:57:db:e0:08:3c:ce:de:3f:87:fd:71:
         f6:f9:b2:a1:70:27:a7:60:d7:49:d8:2b:b7:a4:86:a1:e7:ff:
         4e:ee:41:18:1e:2c:aa:14:55:3a:ce:b4:1c:58:c5:28:71:33:
         f7:4c:5f:36:f8:de:e7:43:34:92:6e:d6:15:14:43:67:43:94:
         f8:79:0d:77:3d:cb:6a:3e:d2:ae:85:3d:9c:f6:b7:93:dc:81:
         f1:b3:49:ab:00:47:4f:e9:61:b8:dc:bd:81:7a:d4:d0:07:3a:
         10:d1:7c:93:e9:d2:09:2e:9f:f6:c2:46:6c:63:ec:da:f2:f1:
         aa:31:a9:a9:e3:0d:c5:d7:d5:72:a8:77:b6:62:b7:63:84:45:
         ce:bc:c9:32:42:8f:71:6c:6a:f0:10:33:25:1d:24:d3:06:f2:
         0b:fc:5b:9c:e3:10:46:bf:00:90:0b:61:cf:5a:f0:ba:0b:fd:
         b9:2c:d0:aa:b0:65:b5:ac:21:d1:b1:4b:f2:d0:ca:58:80:f4:
         81:2d:3a:fb:81:0a:71:d1:d4:63:9c:0a:f9:c5:1d:1e:52:40:
         48:e4:ad:46
-----BEGIN CERTIFICATE-----
MIIDzjCCAragAwIBAgIQPiydvrBCyM/8mULVTUFqrzANBgkqhkiG9w0BAQsFADBj
MQswCQYDVQQGEwJVUzETMBEGA1UECAwKQ2FsaWZvcm5pYTEWMBQGA1UEBwwNTW91
bnRhaW4gVmlldzEQMA4GA1UECgwHVGVzdCBDQTEVMBMGA1UEAwwMVGVzdCBSb290
IENBMB4XDTE1MDQwMjAwMDAwMFoXDTE4MDgwMTAwMDAwMFowYDELMAkGA1UEBhMC
VVMxEzARBgNVBAgMCkNhbGlmb3JuaWExFjAUBgNVBAcMDU1vdW50YWluIFZpZXcx
EDAOBgNVBAoMB1Rlc3QgQ0ExEjAQBgNVBAMMCTEyNy4wLjAuMTCCASIwDQYJKoZI
hvcNAQEBBQADggEPADCCAQoCggEBAMY4EV0CnC6Y0IsGJ7MR8vM2VT3kTmtrCpkN
aR1XYWvyxiBvsLxQs0QAEwkj5xhaSZBIzbHHmumh752SZ8nKqP9DSRuPSEpj7Eic
4uaS6nrUBJLeRogNVlRLQylU9oX/nJmDwmQK9trN/YEpvj4lmRqclCJS8Jy4RTJh
aLNd4p32PwRvScjYIptGynOZYqc4+yfsVXRczYO4vjAo+BjE5Qg2CeZ+WefLK/ey
jitGaxUZYRkMur9dDdN6OgaWeV7L9FvIVPQP52hjZLxpYeymX3QYYKN8htvKLys+
4ot1IcS4IaRlMLv+82/Y1ftn02VNn7GYWjysa03SMk6YuRaicJECAwEAAaOBgDB+
MAwGA1UdEwEB/wQCMAAwHQYDVR0OBBYEFFwSuwW/FBQ0hWftxeM7v/xJJ67jMB8G
A1UdIwQYMBaAFJsmC4qYqbsduR8c4xpAM+2OF4irMB0GA1UdJQQWMBQGCCsGAQUF
BwMBBggrBgEFBQcDAjAPBgNVHREECDAGhwR/AAABMA0GCSqGSIb3DQEBCwUAA4IB
AQAxOn0R94By34BryOly4fO1PgmgeUSKCFo+4Pd+WWbfmcbYCWvMyJ52T8VbV9vg
CDzO3j+H/XH2+bKhcCenYNdJ2Cu3pIah5/9O7kEYHiyqFFU6zrQcWMUocTP3TF82
+N7nQzSSbtYVFENnQ5T4eQ13PctqPtKuhT2c9reT3IHxs0mrAEdP6WG43L2BetTQ
BzoQ0XyT6dIJLp/2wkZsY+za8vGqMamp4w3F19VyqHe2YrdjhEXOvMkyQo9xbGrw
EDMlHSTTBvIL/Fuc4xBGvwCQC2HPWvC6C/25LNCqsGW1rCHRsUvy0MpYgPSBLTr7
gQpx0dRjnAr5xR0eUkBI5K1G
-----END CERTIFICATE-----
