Certificate:
    Data:
        Version: 3 (0x2)
        Serial Number:
            b0:6b:93:92:e3:5c:8d:7e:ed:9d:c8:96:59:c5:c2:73
        Signature Algorithm: sha256WithRSAEncryption
        Issuer: C=US, ST=California, L=Mountain View, O=Test CA, CN=Test Root CA
        Validity
            Not Before: Oct 30 00:00:00 2014 GMT
            Not After : Sep 30 00:00:00 2019 GMT
        Subject: C=US, ST=California, L=Mountain View, O=Test CA, CN=127.0.0.1
        Subject Public Key Info:
            Public Key Algorithm: rsaEncryption
                Public-Key: (2048 bit)
                Modulus:
                    00:d4:fa:d1:99:fe:2d:7a:82:e4:72:af:58:76:bb:
                    bb:bc:04:03:a2:57:54:75:1b:f3:48:11:aa:eb:97:
                    05:02:8c:71:49:ec:b5:5f:a6:d0:18:c5:60:e1:04:
                    59:3f:64:a2:96:ca:45:8b:37:82:14:7f:d9:07:fb:
                    97:0d:64:9d:7f:ce:19:56:0e:dc:2c:e0:40:7f:86:
                    a0:ad:9b:bf:f9:84:1e:7f:23:22:e8:35:0a:fb:ee:
                    9a:ce:2b:00:48:53:71:86:b2:31:3e:b2:30:0d:79:
                    d7:05:56:72:e3:95:98:c3:1e:bf:cc:cf:90:54:8e:
                    2d:39:c8:2f:bb:3c:05:41:36:4a:2c:b7:c1:0d:4a:
                    f6:44:02:da:d4:bf:84:9f:66:d7:30:bd:82:b1:92:
                    f1:73:4f:53:4d:c8:d3:74:73:42:69:bc:0b:18:e0:
                    03:51:b7:85:ca:71:74:a1:17:5d:37:22:43:86:c0:
                    92:25:98:a9:83:49:b9:d2:97:f8:15:eb:58:d2:13:
                    bd:4a:39:33:07:50:db:cb:fc:49:8b:ae:ab:df:42:
                    14:c1:92:dd:93:da:c4:7a:c9:f8:4d:c2:d8:87:b6:
                    e4:f5:0e:92:09:4a:6d:f5:30:53:14:07:ea:c5:7c:
                    ef:93:84:09:25:e0:c7:8a:17:84:a6:76:91:1d:64:
                    24:73
                Exponent: 65537 (0x10001)
        X509v3 extensions:
            X509v3 Basic Constraints: critical
                CA:FALSE
            X509v3 Subject Key Identifier: 
                29:81:75:1D:D1:AE:EE:50:EB:91:E2:57:31:51:5D:3A:0E:99:10:1C
            X509v3 Authority Key Identifier: 
                9B:26:0B:8A:98:A9:BB:1D:B9:1F:1C:E3:1A:40:33:ED:8E:17:88:AB
            X509v3 Extended Key Usage: 
                TLS Web Server Authentication, TLS Web Client Authentication
            X509v3 Subject Alternative Name: 
                IP Address:127.0.0.1
    Signature Algorithm: sha256WithRSAEncryption
    Signature Value:
        8d:b4:56:2d:06:e1:b6:68:00:d4:02:56:5f:a2:6e:b1:1a:58:
        b7:66:98:05:9b:9a:56:20:db:17:f1:7a:5e:32:e5:7a:88:ef:
        dd:ec:92:b3:41:02:f9:d6:ae:17:85:49:8d:e9:df:e4:69:ee:
        c5:74:40:d4:3a:63:4d:99:cb:65:3c:f3:cc:83:82:c0:fe:3c:
        bf:80:df:bf:7b:33:f1:b5:2e:04:b0:9f:31:9f:40:23:1c:5b:
        8f:dd:b1:7a:e9:4e:2c:81:ff:77:00:e8:04:f4:99:54:0d:be:
        0d:a8:44:71:9f:b7:62:ce:99:b3:10:c3:47:34:e1:42:e4:d6:
        07:e1:66:91:ae:0a:62:f8:b5:35:0b:ab:08:c8:da:be:5b:74:
        03:5c:ad:1e:2c:82:bf:9a:b1:3e:88:ed:47:26:18:ba:07:31:
        93:aa:ed:00:3f:89:c3:61:a6:7d:23:49:f3:47:4b:c5:72:cc:
        ff:64:21:c7:5e:81:65:f7:6b:8f:03:a2:e9:b9:b7:b6:be:ed:
        bf:51:4b:64:96:98:37:15:06:5f:17:33:85:46:15:e1:d7:04:
        65:e4:65:f1:ef:60:01:ca:82:70:7f:69:71:2f:fc:ca:8e:64:
        b3:a4:0e:74:31:e7:61:28:89:48:b3:29:b6:66:52:69:f7:e1:
        1e:51:8d:09
-----BEGIN CERTIFICATE-----
MIIDzzCCAregAwIBAgIRALBrk5LjXI1+7Z3IllnFwnMwDQYJKoZIhvcNAQELBQAw
YzELMAkGA1UEBhMCVVMxEzARBgNVBAgMCkNhbGlmb3JuaWExFjAUBgNVBAcMDU1v
dW50YWluIFZpZXcxEDAOBgNVBAoMB1Rlc3QgQ0ExFTATBgNVBAMMDFRlc3QgUm9v
dCBDQTAeFw0xNDEwMzAwMDAwMDBaFw0xOTA5MzAwMDAwMDBaMGAxCzAJBgNVBAYT
AlVTMRMwEQYDVQQIDApDYWxpZm9ybmlhMRYwFAYDVQQHDA1Nb3VudGFpbiBWaWV3
MRAwDgYDVQQKDAdUZXN0IENBMRIwEAYDVQQDDAkxMjcuMC4wLjEwggEiMA0GCSqG
SIb3DQEBAQUAA4IBDwAwggEKAoIBAQDU+tGZ/i16guRyr1h2u7u8BAOiV1R1G/NI
EarrlwUCjHFJ7LVfptAYxWDhBFk/ZKKWykWLN4IUf9kH+5cNZJ1/zhlWDtws4EB/
hqCtm7/5hB5/IyLoNQr77prOKwBIU3GGsjE+sjANedcFVnLjlZjDHr/Mz5BUji05
yC+7PAVBNkost8ENSvZEAtrUv4SfZtcwvYKxkvFzT1NNyNN0c0JpvAsY4ANRt4XK
cXShF103IkOGwJIlmKmDSbnSl/gV61jSE71KOTMHUNvL/EmLrqvfQhTBkt2T2sR6
yfhNwtiHtuT1DpIJSm31MFMUB+rFfO+ThAkl4MeKF4SmdpEdZCRzAgMBAAGjgYAw
fjAMBgNVHRMBAf8EAjAAMB0GA1UdDgQWBBQpgXUd0a7uUOuR4lcxUV06DpkQHDAf
BgNVHSMEGDAWgBSbJguKmKm7HbkfHOMaQDPtjheIqzAdBgNVHSUEFjAUBggrBgEF
BQcDAQYIKwYBBQUHAwIwDwYDVR0RBAgwBocEfwAAATANBgkqhkiG9w0BAQsFAAOC
AQEAjbRWLQbhtmgA1AJWX6JusRpYt2aYBZuaViDbF/F6XjLleojv3eySs0EC+dau
F4VJjenf5GnuxXRA1DpjTZnLZTzzzIOCwP48v4Dfv3sz8bUuBLCfMZ9AIxxbj92x
eulOLIH/dwDoBPSZVA2+DahEcZ+3Ys6ZsxDDRzThQuTWB+Fmka4KYvi1NQurCMja
vlt0A1ytHiyCv5qxPojtRyYYugcxk6rtAD+Jw2GmfSNJ80dLxXLM/2Qhx16BZfdr
jwOi6bm3tr7tv1FLZJaYNxUGXxczhUYV4dcEZeRl8e9gAcqCcH9pcS/8yo5ks6QO
dDHnYSiJSLMptmZSaffhHlGNCQ==
-----END CERTIFICATE-----
