Certificate:
    Data:
        Version: 3 (0x2)
        Serial Number:
            12:f6:d9:f1:80:1b:50:9f:64:09:c8:ea:2f:16:33:af
        Signature Algorithm: sha256WithRSAEncryption
        Issuer: C=US, ST=California, L=Mountain View, O=Test CA, CN=Test Root CA
        Validity
            Not Before: Oct 30 00:00:00 2014 GMT
            Not After : Sep 30 00:00:00 2019 GMT
        Subject: C=US, ST=California, L=Mountain View, O=Test CA, CN=127.0.0.1
        Subject Public Key Info:
            Public Key Algorithm: rsaEncryption
                RSA Public-Key: (2048 bit)
                Modulus:
                    00:e6:28:2a:da:c6:a6:1a:e6:ff:0b:8b:b8:07:7d:
                    71:62:32:70:79:a6:e9:b5:5f:d6:e5:6e:c0:2b:16:
                    b0:b1:88:cd:b6:99:00:9d:dd:fd:8d:0b:b7:fd:04:
                    10:4c:ce:7c:fd:85:f8:54:df:f4:90:ea:52:d1:34:
                    ba:49:c7:0d:91:35:a6:66:c5:10:77:92:6a:c2:40:
                    f1:9a:25:07:18:a9:44:36:76:51:6b:75:7e:34:3d:
                    41:69:31:99:6f:19:2b:ee:fd:03:3e:ad:46:cc:3c:
                    2c:5c:6a:7b:5a:23:b5:2c:fd:06:a6:73:d9:2f:b5:
                    bf:3c:a1:12:91:e6:87:c6:b4:f1:f1:f2:db:84:a1:
                    05:22:79:94:47:85:69:80:93:7c:b3:da:52:34:a9:
                    ed:af:7f:f4:6b:24:15:78:e1:c2:e4:6e:50:1c:08:
                    5f:e9:c3:a3:df:ef:7d:c5:03:c5:1a:8f:fa:e5:89:
                    d6:d2:66:fb:bb:d3:e3:85:c3:69:5d:91:fe:62:d0:
                    c2:29:7c:55:2a:e7:53:4c:6c:af:de:0e:35:4e:e5:
                    5b:ca:97:6e:63:cf:11:1a:f8:78:f2:7b:82:78:1c:
                    e4:da:d4:69:a5:e2:ac:f3:ae:d8:ab:7e:01:02:9c:
                    1e:b6:02:cb:8a:d3:a4:90:c8:d7:40:ad:04:34:c4:
                    b7:d9
                Exponent: 65537 (0x10001)
        X509v3 extensions:
            X509v3 Basic Constraints: critical
                CA:FALSE
            X509v3 Subject Key Identifier: 
                09:D0:DD:8E:5B:59:24:C0:DF:1F:44:F1:2C:FC:53:21:6A:FE:59:5C
            X509v3 Authority Key Identifier: 
                keyid:9B:26:0B:8A:98:A9:BB:1D:B9:1F:1C:E3:1A:40:33:ED:8E:17:88:AB

            X509v3 Extended Key Usage: 
                TLS Web Server Authentication, TLS Web Client Authentication
            X509v3 Subject Alternative Name: 
                IP Address:127.0.0.1
    Signature Algorithm: sha256WithRSAEncryption
         5d:ca:fd:89:fe:ca:59:e6:7a:db:d0:49:3d:7d:55:a5:0e:b4:
         fe:13:49:f5:01:3d:c8:b0:43:27:82:5d:35:ff:21:d6:f2:47:
         09:ca:2e:9a:9f:1d:dd:e7:7a:70:5c:7b:f4:d8:d0:a4:bf:3e:
         cb:24:20:e9:5c:ed:66:da:f9:04:07:7c:b1:32:ed:dc:7d:c6:
         5a:0b:6e:7a:a1:d6:52:6f:09:d3:ed:6b:2b:0b:86:ef:4b:3f:
         84:75:a9:03:ba:4e:cc:d2:25:4d:a1:67:e7:a3:89:87:a8:96:
         63:56:1f:e9:08:76:f5:f5:2e:98:66:e0:c0:43:68:54:b5:1f:
         4d:51:8c:a7:62:1e:5c:7b:59:50:92:e1:0a:4a:e5:03:db:99:
         41:d7:ec:6f:33:69:b9:aa:59:68:cb:92:9b:61:f7:b4:47:a2:
         5f:f2:25:05:6a:c2:b7:91:e9:26:2e:26:47:d6:e7:30:7a:41:
         97:21:91:ce:a6:ec:72:db:d7:46:11:8f:aa:76:e1:3f:fb:71:
         47:f9:ac:b4:3d:8a:ab:60:3d:01:89:3e:85:c6:81:a7:c1:ed:
         60:f2:a5:a0:9e:72:10:de:5e:11:78:bf:45:58:ce:2b:43:ff:
         a4:2e:3d:36:4b:68:76:ba:6a:38:7a:fe:53:7a:bc:3f:ad:af:
         b9:6f:f8:a5
-----BEGIN CERTIFICATE-----
MIIDzjCCAragAwIBAgIQEvbZ8YAbUJ9kCcjqLxYzrzANBgkqhkiG9w0BAQsFADBj
MQswCQYDVQQGEwJVUzETMBEGA1UECAwKQ2FsaWZvcm5pYTEWMBQGA1UEBwwNTW91
bnRhaW4gVmlldzEQMA4GA1UECgwHVGVzdCBDQTEVMBMGA1UEAwwMVGVzdCBSb290
IENBMB4XDTE0MTAzMDAwMDAwMFoXDTE5MDkzMDAwMDAwMFowYDELMAkGA1UEBhMC
VVMxEzARBgNVBAgMCkNhbGlmb3JuaWExFjAUBgNVBAcMDU1vdW50YWluIFZpZXcx
EDAOBgNVBAoMB1Rlc3QgQ0ExEjAQBgNVBAMMCTEyNy4wLjAuMTCCASIwDQYJKoZI
hvcNAQEBBQADggEPADCCAQoCggEBAOYoKtrGphrm/wuLuAd9cWIycHmm6bVf1uVu
wCsWsLGIzbaZAJ3d/Y0Lt/0EEEzOfP2F+FTf9JDqUtE0uknHDZE1pmbFEHeSasJA
8ZolBxipRDZ2UWt1fjQ9QWkxmW8ZK+79Az6tRsw8LFxqe1ojtSz9BqZz2S+1vzyh
EpHmh8a08fHy24ShBSJ5lEeFaYCTfLPaUjSp7a9/9GskFXjhwuRuUBwIX+nDo9/v
fcUDxRqP+uWJ1tJm+7vT44XDaV2R/mLQwil8VSrnU0xsr94ONU7lW8qXbmPPERr4
ePJ7gngc5NrUaaXirPOu2Kt+AQKcHrYCy4rTpJDI10CtBDTEt9kCAwEAAaOBgDB+
MAwGA1UdEwEB/wQCMAAwHQYDVR0OBBYEFAnQ3Y5bWSTA3x9E8Sz8UyFq/llcMB8G
A1UdIwQYMBaAFJsmC4qYqbsduR8c4xpAM+2OF4irMB0GA1UdJQQWMBQGCCsGAQUF
BwMBBggrBgEFBQcDAjAPBgNVHREECDAGhwR/AAABMA0GCSqGSIb3DQEBCwUAA4IB
AQBdyv2J/spZ5nrb0Ek9fVWlDrT+E0n1AT3IsEMngl01/yHW8kcJyi6anx3d53pw
XHv02NCkvz7LJCDpXO1m2vkEB3yxMu3cfcZaC256odZSbwnT7WsrC4bvSz+EdakD
uk7M0iVNoWfno4mHqJZjVh/pCHb19S6YZuDAQ2hUtR9NUYynYh5ce1lQkuEKSuUD
25lB1+xvM2m5qlloy5KbYfe0R6Jf8iUFasK3kekmLiZH1ucwekGXIZHOpuxy29dG
EY+qduE/+3FH+ay0PYqrYD0BiT6FxoGnwe1g8qWgnnIQ3l4ReL9FWM4rQ/+kLj02
S2h2umo4ev5Terw/ra+5b/il
-----END CERTIFICATE-----
