Certificate:
    Data:
        Version: 3 (0x2)
        Serial Number:
            3e:2c:9d:be:b0:42:c8:cf:fc:99:42:d5:4d:41:6a:b0
        Signature Algorithm: sha256WithRSAEncryption
        Issuer: C=US, ST=California, L=Mountain View, O=Test CA, CN=Test Root CA
        Validity
            Not Before: Oct 30 00:00:00 2014 GMT
            Not After : Sep 30 00:00:00 2019 GMT
        Subject: C=US, ST=California, L=Mountain View, O=Test CA, CN=127.0.0.1
        Subject Public Key Info:
            Public Key Algorithm: rsaEncryption
                RSA Public-Key: (2048 bit)
                Modulus:
                    00:cb:b4:ce:ca:b2:86:ee:9d:20:3f:7f:16:e8:75:
                    50:19:d5:e3:dc:c9:0e:7c:b5:9c:62:94:f9:28:8f:
                    34:cf:bc:e8:c4:ba:d0:0e:62:3a:50:34:93:9e:24:
                    fb:14:1c:8b:5a:7e:17:1d:2b:15:cd:4d:5b:c9:60:
                    8d:d0:af:bb:29:76:28:97:c4:86:e5:82:6b:55:55:
                    17:db:83:01:09:ed:cd:db:34:09:dd:59:6a:2c:13:
                    eb:3b:13:b0:ac:dc:e2:96:87:1b:04:17:56:bb:a7:
                    37:d8:25:3a:b6:96:10:85:b3:ca:29:73:d7:5b:78:
                    45:08:ff:92:b1:7a:a5:20:85:71:e5:6e:03:43:3c:
                    b5:53:b4:09:73:7f:4a:7d:61:5f:e3:17:eb:c6:11:
                    6a:14:92:fb:d1:4d:47:30:1d:4d:6b:63:31:d8:9b:
                    64:7b:9c:10:16:28:53:ee:3c:d6:65:f5:8a:1b:11:
                    26:61:8d:92:e7:e8:a7:d9:01:98:b1:6e:d4:6e:2e:
                    d1:19:fd:a4:74:e4:5f:c9:b5:6b:e6:68:08:5a:cc:
                    19:29:b0:6b:c8:20:40:62:05:9e:94:c4:81:7c:3e:
                    64:1d:f1:b9:b0:65:4b:0c:49:c9:3d:30:32:ad:60:
                    04:00:65:eb:b2:26:97:f3:8b:25:67:51:cb:e4:76:
                    02:ad
                Exponent: 65537 (0x10001)
        X509v3 extensions:
            X509v3 Basic Constraints: critical
                CA:FALSE
            X509v3 Subject Key Identifier: 
                C8:29:36:3A:9A:AD:3C:CC:49:FA:9B:76:D5:B2:3F:A4:55:E2:2F:10
            X509v3 Authority Key Identifier: 
                keyid:9B:26:0B:8A:98:A9:BB:1D:B9:1F:1C:E3:1A:40:33:ED:8E:17:88:AB

            X509v3 Extended Key Usage: 
                TLS Web Server Authentication, TLS Web Client Authentication
            X509v3 Subject Alternative Name: 
                IP Address:127.0.0.1
    Signature Algorithm: sha256WithRSAEncryption
         11:15:89:8f:4a:84:fc:f9:32:5c:52:b1:d6:55:3a:c3:3c:e9:
         01:8e:8e:c1:33:15:9e:6f:1d:99:92:2d:f6:79:65:6e:a8:b4:
         94:32:c8:06:d5:e1:7b:48:d7:ee:e4:69:1c:2a:c4:8b:34:d8:
         a4:ed:86:48:bb:38:a6:a7:b5:12:e6:88:3f:70:dd:49:07:5a:
         df:63:4f:e9:cb:62:2b:ac:9e:7c:e8:6f:ad:14:7a:64:f6:80:
         b7:90:e6:e4:b7:4b:39:9b:f8:be:59:54:a2:55:43:36:c3:94:
         bb:61:fd:e1:6a:06:ab:8f:1d:28:92:ef:cf:b4:3a:38:fd:fd:
         33:45:75:4d:0f:2f:83:78:76:34:e1:ce:c1:4d:1e:e4:be:d2:
         b7:52:e2:6e:9c:fb:59:41:18:50:3b:34:a4:d0:b6:e5:cc:1e:
         21:45:45:a5:48:f3:55:b6:27:22:51:0a:4c:44:c7:65:91:c7:
         0b:4b:7a:ce:2a:0f:42:09:8b:eb:58:a0:db:fa:b1:cf:5a:4e:
         8a:ac:e7:41:28:1c:b9:fa:62:ec:a0:47:27:e2:31:4a:df:2a:
         95:68:51:e1:62:f2:26:a7:b9:ad:32:e5:cf:20:d8:b2:25:fc:
         2e:c5:ab:68:1f:f8:cd:8e:83:a6:f7:7d:da:0b:7f:b0:3f:f0:
         b2:e4:27:39
-----BEGIN CERTIFICATE-----
MIIDzjCCAragAwIBAgIQPiydvrBCyM/8mULVTUFqsDANBgkqhkiG9w0BAQsFADBj
MQswCQYDVQQGEwJVUzETMBEGA1UECAwKQ2FsaWZvcm5pYTEWMBQGA1UEBwwNTW91
bnRhaW4gVmlldzEQMA4GA1UECgwHVGVzdCBDQTEVMBMGA1UEAwwMVGVzdCBSb290
IENBMB4XDTE0MTAzMDAwMDAwMFoXDTE5MDkzMDAwMDAwMFowYDELMAkGA1UEBhMC
VVMxEzARBgNVBAgMCkNhbGlmb3JuaWExFjAUBgNVBAcMDU1vdW50YWluIFZpZXcx
EDAOBgNVBAoMB1Rlc3QgQ0ExEjAQBgNVBAMMCTEyNy4wLjAuMTCCASIwDQYJKoZI
hvcNAQEBBQADggEPADCCAQoCggEBAMu0zsqyhu6dID9/Fuh1UBnV49zJDny1nGKU
+SiPNM+86MS60A5iOlA0k54k+xQci1p+Fx0rFc1NW8lgjdCvuyl2KJfEhuWCa1VV
F9uDAQntzds0Cd1ZaiwT6zsTsKzc4paHGwQXVrunN9glOraWEIWzyilz11t4RQj/
krF6pSCFceVuA0M8tVO0CXN/Sn1hX+MX68YRahSS+9FNRzAdTWtjMdibZHucEBYo
U+481mX1ihsRJmGNkufop9kBmLFu1G4u0Rn9pHTkX8m1a+ZoCFrMGSmwa8ggQGIF
npTEgXw+ZB3xubBlSwxJyT0wMq1gBABl67Iml/OLJWdRy+R2Aq0CAwEAAaOBgDB+
MAwGA1UdEwEB/wQCMAAwHQYDVR0OBBYEFMgpNjqarTzMSfqbdtWyP6RV4i8QMB8G
A1UdIwQYMBaAFJsmC4qYqbsduR8c4xpAM+2OF4irMB0GA1UdJQQWMBQGCCsGAQUF
BwMBBggrBgEFBQcDAjAPBgNVHREECDAGhwR/AAABMA0GCSqGSIb3DQEBCwUAA4IB
AQARFYmPSoT8+TJcUrHWVTrDPOkBjo7BMxWebx2Zki32eWVuqLSUMsgG1eF7SNfu
5GkcKsSLNNik7YZIuzimp7US5og/cN1JB1rfY0/py2IrrJ586G+tFHpk9oC3kObk
t0s5m/i+WVSiVUM2w5S7Yf3hagarjx0oku/PtDo4/f0zRXVNDy+DeHY04c7BTR7k
vtK3UuJunPtZQRhQOzSk0LblzB4hRUWlSPNVticiUQpMRMdlkccLS3rOKg9CCYvr
WKDb+rHPWk6KrOdBKBy5+mLsoEcn4jFK3yqVaFHhYvImp7mtMuXPINiyJfwuxato
H/jNjoOm933aC3+wP/Cy5Cc5
-----END CERTIFICATE-----
