Certificate:
    Data:
        Version: 3 (0x2)
        Serial Number:
            cf:95:70:1c:b6:6c:07:bb:a4:de:63:24:47:3b:4e:cc
        Signature Algorithm: sha256WithRSAEncryption
        Issuer: C=US, ST=California, L=Mountain View, O=Test CA, CN=Test Root CA
        Validity
            Not Before: Oct 30 00:00:00 2014 GMT
            Not After : Sep 30 00:00:00 2019 GMT
        Subject: C=US, ST=California, L=Mountain View, O=Test CA, CN=127.0.0.1
        Subject Public Key Info:
            Public Key Algorithm: rsaEncryption
                Public-Key: (2048 bit)
                Modulus:
                    00:be:f8:37:71:6c:86:65:fd:d8:e5:cb:05:1a:f1:
                    40:cf:e0:f4:11:a7:0f:91:3c:19:89:e7:8c:01:9b:
                    63:75:9c:38:7a:b3:56:bf:1d:de:1e:57:9e:c7:f9:
                    6a:93:01:0d:04:ca:42:08:f4:0a:82:6b:36:4e:30:
                    50:b9:9d:39:d1:c3:52:ba:78:08:21:23:ea:38:47:
                    e1:4b:54:c7:38:5d:28:94:99:7f:0a:2b:23:4b:67:
                    df:91:dd:23:8f:c0:3c:f9:c3:bf:0b:b3:86:96:8b:
                    ae:bc:a0:5e:c8:59:b8:c3:88:67:e0:16:86:30:cb:
                    8c:c8:cb:d4:59:df:c8:40:19:8b:bf:8f:ee:e0:92:
                    b8:c7:ef:4d:c2:c5:f0:92:49:dc:5f:a8:07:58:d7:
                    64:f4:e3:2a:e1:20:d8:3f:72:36:67:23:ed:31:26:
                    75:f0:b3:13:ca:a6:48:af:c6:4c:99:bf:b6:4d:e8:
                    26:4e:7a:e9:a1:b0:80:a8:93:08:08:8a:48:b8:ab:
                    ff:49:35:b7:ef:a2:6e:16:94:99:73:44:2f:7d:a9:
                    c4:b2:22:34:61:93:8d:9b:66:8f:41:f8:14:79:df:
                    41:d7:ec:bd:94:d0:e9:e4:59:6c:06:43:39:f2:e7:
                    38:55:93:e1:c0:48:b6:0a:eb:7f:9e:29:bb:3a:bd:
                    ed:f5
                Exponent: 65537 (0x10001)
        X509v3 extensions:
            X509v3 Basic Constraints: critical
                CA:FALSE
            X509v3 Subject Key Identifier: 
                4E:0D:58:D0:F0:F9:0B:9C:E0:25:E6:F0:B4:F2:A5:BF:B2:C1:20:10
            X509v3 Authority Key Identifier: 
                9B:26:0B:8A:98:A9:BB:1D:B9:1F:1C:E3:1A:40:33:ED:8E:17:88:AB
            X509v3 Extended Key Usage: 
                TLS Web Server Authentication, TLS Web Client Authentication
            X509v3 Subject Alternative Name: 
                IP Address:127.0.0.1
    Signature Algorithm: sha256WithRSAEncryption
    Signature Value:
        8d:8a:ec:3d:e2:e7:16:3a:85:34:6a:83:d5:3b:1a:2d:7c:70:
        f4:e8:1c:22:e4:75:d9:5e:4f:34:cb:c4:c7:b6:f3:d8:f1:43:
        d7:eb:0c:3a:90:f2:68:8b:c8:23:bf:0c:cc:47:bd:5a:ce:b5:
        1a:a7:6e:56:0b:1a:60:30:48:85:e0:e1:44:16:6c:45:5f:5d:
        f3:ad:8f:fe:10:d4:0d:41:22:38:9b:ab:40:0a:bd:df:86:8c:
        34:21:3a:f4:34:cb:a0:91:a9:37:99:04:7d:16:d0:81:8d:4b:
        87:e9:8e:8d:df:a1:3c:65:6e:87:28:b4:c5:0d:b7:3d:30:0f:
        0f:a4:c2:c6:7c:3b:b1:f7:e5:12:e0:e9:e0:c2:48:85:72:42:
        27:1b:44:a7:cb:f7:70:29:b0:74:25:15:92:bc:75:9e:86:1d:
        39:88:c9:16:7e:a7:d5:9a:c2:89:f2:ea:87:a2:27:14:10:dc:
        c9:31:68:91:5a:f0:69:5a:d8:e9:bd:f2:fb:5a:99:52:46:71:
        ef:26:e0:da:ca:63:99:e6:68:3a:97:bd:34:c7:b9:fc:c4:f0:
        19:ed:5c:37:07:8a:21:58:18:e5:26:75:f1:4f:3f:f0:e2:c2:
        7e:98:e2:b7:bd:ad:69:8c:3f:6b:68:e2:31:b6:f1:98:1f:c7:
        02:14:80:0c
-----BEGIN CERTIFICATE-----
MIIDzzCCAregAwIBAgIRAM+VcBy2bAe7pN5jJEc7TswwDQYJKoZIhvcNAQELBQAw
YzELMAkGA1UEBhMCVVMxEzARBgNVBAgMCkNhbGlmb3JuaWExFjAUBgNVBAcMDU1v
dW50YWluIFZpZXcxEDAOBgNVBAoMB1Rlc3QgQ0ExFTATBgNVBAMMDFRlc3QgUm9v
dCBDQTAeFw0xNDEwMzAwMDAwMDBaFw0xOTA5MzAwMDAwMDBaMGAxCzAJBgNVBAYT
AlVTMRMwEQYDVQQIDApDYWxpZm9ybmlhMRYwFAYDVQQHDA1Nb3VudGFpbiBWaWV3
MRAwDgYDVQQKDAdUZXN0IENBMRIwEAYDVQQDDAkxMjcuMC4wLjEwggEiMA0GCSqG
SIb3DQEBAQUAA4IBDwAwggEKAoIBAQC++DdxbIZl/djlywUa8UDP4PQRpw+RPBmJ
54wBm2N1nDh6s1a/Hd4eV57H+WqTAQ0EykII9AqCazZOMFC5nTnRw1K6eAghI+o4
R+FLVMc4XSiUmX8KKyNLZ9+R3SOPwDz5w78Ls4aWi668oF7IWbjDiGfgFoYwy4zI
y9RZ38hAGYu/j+7gkrjH703CxfCSSdxfqAdY12T04yrhINg/cjZnI+0xJnXwsxPK
pkivxkyZv7ZN6CZOeumhsICokwgIiki4q/9JNbfvom4WlJlzRC99qcSyIjRhk42b
Zo9B+BR530HX7L2U0OnkWWwGQzny5zhVk+HASLYK63+eKbs6ve31AgMBAAGjgYAw
fjAMBgNVHRMBAf8EAjAAMB0GA1UdDgQWBBRODVjQ8PkLnOAl5vC08qW/ssEgEDAf
BgNVHSMEGDAWgBSbJguKmKm7HbkfHOMaQDPtjheIqzAdBgNVHSUEFjAUBggrBgEF
BQcDAQYIKwYBBQUHAwIwDwYDVR0RBAgwBocEfwAAATANBgkqhkiG9w0BAQsFAAOC
AQEAjYrsPeLnFjqFNGqD1TsaLXxw9OgcIuR12V5PNMvEx7bz2PFD1+sMOpDyaIvI
I78MzEe9Ws61GqduVgsaYDBIheDhRBZsRV9d862P/hDUDUEiOJurQAq934aMNCE6
9DTLoJGpN5kEfRbQgY1Lh+mOjd+hPGVuhyi0xQ23PTAPD6TCxnw7sfflEuDp4MJI
hXJCJxtEp8v3cCmwdCUVkrx1noYdOYjJFn6n1ZrCifLqh6InFBDcyTFokVrwaVrY
6b3y+1qZUkZx7ybg2spjmeZoOpe9NMe5/MTwGe1cNweKIVgY5SZ18U8/8OLCfpji
t72taYw/a2jiMbbxmB/HAhSADA==
-----END CERTIFICATE-----
