Certificate:
    Data:
        Version: 3 (0x2)
        Serial Number:
            cf:95:70:1c:b6:6c:07:bb:a4:de:63:24:47:3b:4e:cd
        Signature Algorithm: sha256WithRSAEncryption
        Issuer: C=US, ST=California, L=Mountain View, O=Test CA, CN=Test Root CA
        Validity
            Not Before: Oct 30 00:00:00 2014 GMT
            Not After : Nov  3 00:00:00 2019 GMT
        Subject: C=US, ST=California, L=Mountain View, O=Test CA, CN=127.0.0.1
        Subject Public Key Info:
            Public Key Algorithm: rsaEncryption
                Public-Key: (2048 bit)
                Modulus:
                    00:9b:d5:7e:19:1f:5b:93:52:c5:d2:23:dc:eb:bb:
                    4d:44:97:22:82:21:f7:4f:46:fc:fb:44:04:47:e9:
                    d5:fa:51:94:fd:41:71:b1:94:8b:ba:61:16:34:50:
                    6f:46:a8:ec:8e:18:7d:e8:65:bb:af:3b:6b:89:e2:
                    41:8b:a3:ff:10:6e:20:7d:70:11:d9:ad:1a:8a:93:
                    87:da:d5:c3:2c:77:02:30:28:d7:b9:e0:a3:39:c8:
                    43:ad:69:fc:07:13:b8:97:56:45:8d:33:58:d4:8b:
                    7c:f7:23:fe:c6:8d:b1:c6:a5:e9:22:89:81:2d:27:
                    24:27:00:ef:24:9a:b1:53:23:0d:c6:75:99:4b:61:
                    5a:29:02:0c:d3:e3:45:ef:62:6c:db:93:fd:f2:4a:
                    f6:a9:9c:9e:3a:ed:50:ed:4c:b8:5b:aa:7b:35:23:
                    cc:5e:5c:5f:4c:80:77:7b:e2:db:91:9d:2f:b2:8f:
                    5e:0e:fd:a5:66:3b:a2:46:ee:5b:5d:23:ae:f7:7d:
                    82:46:91:c9:c7:45:8d:cb:8d:90:b6:50:77:af:1e:
                    6f:4c:7f:86:f0:3f:56:16:14:81:fe:94:bb:fa:a7:
                    34:bf:24:2d:a6:0e:87:f9:d3:02:9f:73:68:9f:1b:
                    7a:7d:cf:61:77:c8:97:ad:bc:bf:67:10:fb:dd:02:
                    c7:45
                Exponent: 65537 (0x10001)
        X509v3 extensions:
            X509v3 Basic Constraints: critical
                CA:FALSE
            X509v3 Subject Key Identifier: 
                55:FE:3A:83:06:7C:5F:B6:27:80:DF:08:88:31:EE:77:85:E5:99:1B
            X509v3 Authority Key Identifier: 
                9B:26:0B:8A:98:A9:BB:1D:B9:1F:1C:E3:1A:40:33:ED:8E:17:88:AB
            X509v3 Extended Key Usage: 
                TLS Web Server Authentication, TLS Web Client Authentication
            X509v3 Subject Alternative Name: 
                IP Address:127.0.0.1
    Signature Algorithm: sha256WithRSAEncryption
    Signature Value:
        b3:07:39:4a:fa:e2:67:19:15:17:2f:dd:3d:2f:4e:08:09:25:
        3b:e1:a5:00:9a:87:54:ea:ce:f3:b2:75:72:5a:39:48:a2:b8:
        4a:60:03:5e:f1:20:f7:c2:b6:82:a0:41:bc:f0:21:86:7c:e7:
        45:88:7e:98:57:34:88:48:5d:ef:2e:37:9a:d5:d4:48:74:fd:
        ed:dd:97:b7:3d:6d:4f:79:b3:d8:1e:cc:66:b9:19:50:14:ba:
        13:88:b1:a4:33:3a:83:be:8b:b4:a9:12:13:10:f5:02:c8:ee:
        e2:d5:64:50:c3:e1:ac:d6:56:a1:06:01:df:36:bb:8d:6f:c6:
        33:b4:f8:c4:1a:25:19:b9:d3:c1:a1:36:1d:14:5e:86:42:c5:
        57:35:8b:ce:68:17:28:cd:7f:7c:35:9d:05:d0:be:52:88:c5:
        ca:73:f4:ca:b0:7e:61:a5:83:c8:d4:df:e7:83:0c:5c:15:30:
        fe:d6:d8:7d:04:f8:51:37:c1:ae:5a:38:37:7e:95:86:c8:67:
        c2:33:10:e7:08:2e:f9:fe:61:3b:1a:8c:f6:a4:03:2c:23:2a:
        38:95:8c:eb:87:59:7f:af:68:b7:22:f1:25:ed:25:62:14:11:
        54:1e:40:0b:f8:12:fd:77:40:fb:67:4c:94:7e:cb:6f:83:a4:
        83:da:97:95
-----BEGIN CERTIFICATE-----
MIIDzzCCAregAwIBAgIRAM+VcBy2bAe7pN5jJEc7Ts0wDQYJKoZIhvcNAQELBQAw
YzELMAkGA1UEBhMCVVMxEzARBgNVBAgMCkNhbGlmb3JuaWExFjAUBgNVBAcMDU1v
dW50YWluIFZpZXcxEDAOBgNVBAoMB1Rlc3QgQ0ExFTATBgNVBAMMDFRlc3QgUm9v
dCBDQTAeFw0xNDEwMzAwMDAwMDBaFw0xOTExMDMwMDAwMDBaMGAxCzAJBgNVBAYT
AlVTMRMwEQYDVQQIDApDYWxpZm9ybmlhMRYwFAYDVQQHDA1Nb3VudGFpbiBWaWV3
MRAwDgYDVQQKDAdUZXN0IENBMRIwEAYDVQQDDAkxMjcuMC4wLjEwggEiMA0GCSqG
SIb3DQEBAQUAA4IBDwAwggEKAoIBAQCb1X4ZH1uTUsXSI9zru01ElyKCIfdPRvz7
RARH6dX6UZT9QXGxlIu6YRY0UG9GqOyOGH3oZbuvO2uJ4kGLo/8QbiB9cBHZrRqK
k4fa1cMsdwIwKNe54KM5yEOtafwHE7iXVkWNM1jUi3z3I/7GjbHGpekiiYEtJyQn
AO8kmrFTIw3GdZlLYVopAgzT40XvYmzbk/3ySvapnJ467VDtTLhbqns1I8xeXF9M
gHd74tuRnS+yj14O/aVmO6JG7ltdI673fYJGkcnHRY3LjZC2UHevHm9Mf4bwP1YW
FIH+lLv6pzS/JC2mDof50wKfc2ifG3p9z2F3yJetvL9nEPvdAsdFAgMBAAGjgYAw
fjAMBgNVHRMBAf8EAjAAMB0GA1UdDgQWBBRV/jqDBnxftieA3wiIMe53heWZGzAf
BgNVHSMEGDAWgBSbJguKmKm7HbkfHOMaQDPtjheIqzAdBgNVHSUEFjAUBggrBgEF
BQcDAQYIKwYBBQUHAwIwDwYDVR0RBAgwBocEfwAAATANBgkqhkiG9w0BAQsFAAOC
AQEAswc5SvriZxkVFy/dPS9OCAklO+GlAJqHVOrO87J1clo5SKK4SmADXvEg98K2
gqBBvPAhhnznRYh+mFc0iEhd7y43mtXUSHT97d2Xtz1tT3mz2B7MZrkZUBS6E4ix
pDM6g76LtKkSExD1Asju4tVkUMPhrNZWoQYB3za7jW/GM7T4xBolGbnTwaE2HRRe
hkLFVzWLzmgXKM1/fDWdBdC+UojFynP0yrB+YaWDyNTf54MMXBUw/tbYfQT4UTfB
rlo4N36VhshnwjMQ5wgu+f5hOxqM9qQDLCMqOJWM64dZf69otyLxJe0lYhQRVB5A
C/gS/XdA+2dMlH7Lb4Okg9qXlQ==
-----END CERTIFICATE-----
