Certificate:
    Data:
        Version: 3 (0x2)
        Serial Number:
            3e:2c:9d:be:b0:42:c8:cf:fc:99:42:d5:4d:41:6a:b1
        Signature Algorithm: sha256WithRSAEncryption
        Issuer: C=US, ST=California, L=Mountain View, O=Test CA, CN=Test Root CA
        Validity
            Not Before: Oct 30 00:00:00 2014 GMT
            Not After : Nov  3 00:00:00 2019 GMT
        Subject: C=US, ST=California, L=Mountain View, O=Test CA, CN=127.0.0.1
        Subject Public Key Info:
            Public Key Algorithm: rsaEncryption
                RSA Public-Key: (2048 bit)
                Modulus:
                    00:b9:3e:12:ef:d9:f2:02:be:b4:9e:10:1c:c2:ce:
                    7b:68:fb:35:9c:26:b9:d2:19:56:21:26:5d:f2:52:
                    13:f8:4e:ff:e7:ef:55:26:eb:2b:61:db:7d:aa:a3:
                    7c:7a:b6:bf:f2:be:8d:75:4c:43:d9:56:c7:61:5e:
                    6a:8c:2e:af:44:3a:30:2c:ab:31:e0:27:2b:db:ca:
                    2d:d4:71:0b:d9:c1:6a:33:6b:f4:59:2e:97:d7:4c:
                    09:3e:c9:b2:80:e6:35:60:c6:c3:e8:1a:de:43:18:
                    49:48:4a:04:58:21:bb:6e:52:cb:03:79:18:2f:d0:
                    f2:f8:87:5e:8a:ad:5b:39:7b:03:f2:9b:56:3d:9c:
                    e6:46:c0:16:ac:38:6e:05:a9:60:7b:41:82:91:09:
                    57:45:e6:11:7d:c6:d2:9b:b7:6b:1d:66:d9:b2:79:
                    15:17:0d:2e:8f:ef:a4:cc:99:db:1b:56:d1:e4:a3:
                    80:13:c9:23:e0:fb:09:ca:b6:b3:44:f2:f7:b6:7c:
                    97:e1:70:bb:2b:05:ad:fb:ce:43:43:1e:79:73:9c:
                    57:c7:d2:48:70:99:04:45:b2:4c:0f:7d:af:54:8d:
                    e8:e9:3f:a8:ab:12:e9:ba:29:17:67:4d:40:97:77:
                    b7:42:05:9f:2b:bf:39:b1:19:81:9f:28:3b:8f:03:
                    55:cb
                Exponent: 65537 (0x10001)
        X509v3 extensions:
            X509v3 Basic Constraints: critical
                CA:FALSE
            X509v3 Subject Key Identifier: 
                D7:AD:91:9D:C9:B9:1E:52:52:A9:5A:61:C6:47:72:1B:BA:B3:14:0C
            X509v3 Authority Key Identifier: 
                keyid:9B:26:0B:8A:98:A9:BB:1D:B9:1F:1C:E3:1A:40:33:ED:8E:17:88:AB

            X509v3 Extended Key Usage: 
                TLS Web Server Authentication, TLS Web Client Authentication
            X509v3 Subject Alternative Name: 
                IP Address:127.0.0.1
    Signature Algorithm: sha256WithRSAEncryption
         42:aa:97:1b:b1:d0:9e:07:e0:e8:f7:76:05:61:55:06:ee:e5:
         b6:b2:83:c1:b7:83:dc:4d:8d:3d:89:5f:fe:79:e9:78:c5:86:
         da:12:94:78:07:a4:3f:b8:9f:8f:76:5d:d8:79:eb:79:0a:68:
         52:aa:a4:45:3e:8e:70:eb:8c:55:86:f7:b0:61:a9:4b:37:49:
         11:a0:02:bf:4d:11:7b:20:78:60:24:cb:76:45:ef:bf:80:63:
         46:83:ec:e2:b6:56:e4:10:03:21:dd:d2:5e:8b:0e:f4:a7:93:
         f7:3b:78:b7:33:06:26:33:06:30:fe:f3:ad:b3:66:cf:45:39:
         77:99:a3:7c:0b:1e:fc:cb:5a:43:42:e3:9c:ef:a2:ba:25:dc:
         05:03:d7:7e:80:f9:95:ba:7a:5c:c9:b8:ca:6a:8b:26:4d:e8:
         a6:e2:c2:fe:25:c9:30:69:c2:3b:41:0e:7a:04:52:3c:96:5e:
         ee:53:c9:b9:44:02:86:4c:70:ca:b6:01:94:99:22:af:42:f9:
         ab:4b:c5:07:4d:80:6b:0a:1a:44:5f:cc:43:09:43:e1:34:f2:
         b4:70:6b:21:93:c0:8e:53:c5:ef:e4:7d:01:18:d6:bc:23:3f:
         6a:f4:cd:03:31:cd:68:b6:97:04:61:9b:cc:49:77:6e:0c:12:
         c9:b9:40:14
-----BEGIN CERTIFICATE-----
MIIDzjCCAragAwIBAgIQPiydvrBCyM/8mULVTUFqsTANBgkqhkiG9w0BAQsFADBj
MQswCQYDVQQGEwJVUzETMBEGA1UECAwKQ2FsaWZvcm5pYTEWMBQGA1UEBwwNTW91
bnRhaW4gVmlldzEQMA4GA1UECgwHVGVzdCBDQTEVMBMGA1UEAwwMVGVzdCBSb290
IENBMB4XDTE0MTAzMDAwMDAwMFoXDTE5MTEwMzAwMDAwMFowYDELMAkGA1UEBhMC
VVMxEzARBgNVBAgMCkNhbGlmb3JuaWExFjAUBgNVBAcMDU1vdW50YWluIFZpZXcx
EDAOBgNVBAoMB1Rlc3QgQ0ExEjAQBgNVBAMMCTEyNy4wLjAuMTCCASIwDQYJKoZI
hvcNAQEBBQADggEPADCCAQoCggEBALk+Eu/Z8gK+tJ4QHMLOe2j7NZwmudIZViEm
XfJSE/hO/+fvVSbrK2HbfaqjfHq2v/K+jXVMQ9lWx2Feaowur0Q6MCyrMeAnK9vK
LdRxC9nBajNr9Fkul9dMCT7JsoDmNWDGw+ga3kMYSUhKBFghu25SywN5GC/Q8viH
XoqtWzl7A/KbVj2c5kbAFqw4bgWpYHtBgpEJV0XmEX3G0pu3ax1m2bJ5FRcNLo/v
pMyZ2xtW0eSjgBPJI+D7Ccq2s0Ty97Z8l+FwuysFrfvOQ0MeeXOcV8fSSHCZBEWy
TA99r1SN6Ok/qKsS6bopF2dNQJd3t0IFnyu/ObEZgZ8oO48DVcsCAwEAAaOBgDB+
MAwGA1UdEwEB/wQCMAAwHQYDVR0OBBYEFNetkZ3JuR5SUqlaYcZHchu6sxQMMB8G
A1UdIwQYMBaAFJsmC4qYqbsduR8c4xpAM+2OF4irMB0GA1UdJQQWMBQGCCsGAQUF
BwMBBggrBgEFBQcDAjAPBgNVHREECDAGhwR/AAABMA0GCSqGSIb3DQEBCwUAA4IB
AQBCqpcbsdCeB+Do93YFYVUG7uW2soPBt4PcTY09iV/+eel4xYbaEpR4B6Q/uJ+P
dl3Yeet5CmhSqqRFPo5w64xVhvewYalLN0kRoAK/TRF7IHhgJMt2Re+/gGNGg+zi
tlbkEAMh3dJeiw70p5P3O3i3MwYmMwYw/vOts2bPRTl3maN8Cx78y1pDQuOc76K6
JdwFA9d+gPmVunpcybjKaosmTeim4sL+JckwacI7QQ56BFI8ll7uU8m5RAKGTHDK
tgGUmSKvQvmrS8UHTYBrChpEX8xDCUPhNPK0cGshk8COU8Xv5H0BGNa8Iz9q9M0D
Mc1otpcEYZvMSXduDBLJuUAU
-----END CERTIFICATE-----
