Certificate:
    Data:
        Version: 3 (0x2)
        Serial Number:
            b0:6b:93:92:e3:5c:8d:7e:ed:9d:c8:96:59:c5:c2:74
        Signature Algorithm: sha256WithRSAEncryption
        Issuer: C=US, ST=California, L=Mountain View, O=Test CA, CN=Test Root CA
        Validity
            Not Before: Oct 30 00:00:00 2014 GMT
            Not After : Nov  3 00:00:00 2019 GMT
        Subject: C=US, ST=California, L=Mountain View, O=Test CA, CN=127.0.0.1
        Subject Public Key Info:
            Public Key Algorithm: rsaEncryption
                Public-Key: (2048 bit)
                Modulus:
                    00:a0:11:b9:0c:12:b6:cc:db:8a:b7:7f:a4:c9:26:
                    b9:44:ef:2f:8f:9a:57:00:d2:21:c0:a3:6d:0d:88:
                    59:12:62:19:ba:71:6c:c6:98:cc:44:d3:de:aa:88:
                    bc:64:38:cc:78:13:a5:5d:76:7a:4b:c8:d2:8e:67:
                    64:61:81:61:4f:1e:69:11:ca:ec:c1:80:d0:ea:21:
                    a4:ab:56:8b:e5:74:e8:0d:05:f8:6a:dd:3b:c6:73:
                    c4:3f:b7:f1:ab:c1:55:f7:df:3f:7f:ba:36:d9:c1:
                    6b:2d:6e:d7:93:96:87:9e:ee:00:57:d5:59:50:6d:
                    82:9b:ab:2a:52:7e:c0:b8:be:34:8f:08:6b:ad:c6:
                    b5:90:0c:80:ff:3f:68:05:c9:a5:5c:9a:ba:8c:49:
                    4a:d4:b9:87:42:1d:47:42:ff:17:8f:df:55:e1:b9:
                    f9:14:6b:08:8f:4f:de:65:59:71:1c:51:1a:58:56:
                    96:de:ca:d1:09:0d:c1:0a:b0:19:74:45:46:38:16:
                    7b:1a:0a:32:e0:35:34:60:83:c4:63:cb:53:34:2d:
                    4b:f7:c8:8e:88:75:13:95:70:9f:ff:cf:f0:10:64:
                    b3:6c:22:ca:13:3e:65:fb:a2:fb:0c:01:80:b7:64:
                    d8:ee:0b:4c:18:fc:02:9d:fd:6c:ba:ba:46:cb:f8:
                    05:d5
                Exponent: 65537 (0x10001)
        X509v3 extensions:
            X509v3 Basic Constraints: critical
                CA:FALSE
            X509v3 Subject Key Identifier: 
                60:ED:A6:AB:09:02:D8:2C:54:39:D5:78:E5:E1:A1:09:44:B0:55:21
            X509v3 Authority Key Identifier: 
                9B:26:0B:8A:98:A9:BB:1D:B9:1F:1C:E3:1A:40:33:ED:8E:17:88:AB
            X509v3 Extended Key Usage: 
                TLS Web Server Authentication, TLS Web Client Authentication
            X509v3 Subject Alternative Name: 
                IP Address:127.0.0.1
    Signature Algorithm: sha256WithRSAEncryption
    Signature Value:
        bc:7e:07:ce:f1:cf:0a:be:b5:27:bf:42:34:cf:8e:c4:19:e0:
        60:c2:f9:e2:a8:e8:73:b9:75:30:5b:34:6a:3d:5a:95:b8:e7:
        58:88:5e:48:62:70:06:7c:51:d8:17:d2:fb:4d:2c:48:4f:23:
        2a:c3:b9:ca:0c:6a:f6:a9:d8:8c:b1:78:a6:45:9d:d3:d7:03:
        1a:b5:64:c9:fc:92:05:ea:ea:da:e7:97:b8:67:53:d0:3b:46:
        d8:00:28:16:ff:15:84:18:ac:c2:96:cf:df:f8:c6:bb:39:d2:
        79:9a:69:26:1e:c5:99:4b:ca:b4:bc:ca:a0:53:e0:11:43:e9:
        b7:b6:8c:d8:8b:88:cd:4d:10:9b:12:18:0e:80:d1:ab:b3:24:
        a4:f3:3b:ea:21:14:79:4b:64:17:49:0a:cd:1c:e4:fd:1b:11:
        79:46:ac:fe:c6:aa:73:12:95:fd:61:0d:b0:64:53:5c:6f:ce:
        0a:fe:07:2d:4d:42:5b:9e:dc:4a:19:dd:19:28:ee:bf:05:e2:
        62:61:6f:8b:83:50:17:6e:3f:31:5c:f2:d2:7d:fa:60:c3:03:
        b9:ca:b5:16:d8:de:bb:00:09:9c:50:88:f4:00:f1:2b:00:f8:
        1b:34:40:94:94:2c:25:63:b1:84:96:00:3d:76:48:2d:f4:77:
        34:36:37:87
-----BEGIN CERTIFICATE-----
MIIDzzCCAregAwIBAgIRALBrk5LjXI1+7Z3IllnFwnQwDQYJKoZIhvcNAQELBQAw
YzELMAkGA1UEBhMCVVMxEzARBgNVBAgMCkNhbGlmb3JuaWExFjAUBgNVBAcMDU1v
dW50YWluIFZpZXcxEDAOBgNVBAoMB1Rlc3QgQ0ExFTATBgNVBAMMDFRlc3QgUm9v
dCBDQTAeFw0xNDEwMzAwMDAwMDBaFw0xOTExMDMwMDAwMDBaMGAxCzAJBgNVBAYT
AlVTMRMwEQYDVQQIDApDYWxpZm9ybmlhMRYwFAYDVQQHDA1Nb3VudGFpbiBWaWV3
MRAwDgYDVQQKDAdUZXN0IENBMRIwEAYDVQQDDAkxMjcuMC4wLjEwggEiMA0GCSqG
SIb3DQEBAQUAA4IBDwAwggEKAoIBAQCgEbkMErbM24q3f6TJJrlE7y+PmlcA0iHA
o20NiFkSYhm6cWzGmMxE096qiLxkOMx4E6VddnpLyNKOZ2RhgWFPHmkRyuzBgNDq
IaSrVovldOgNBfhq3TvGc8Q/t/GrwVX33z9/ujbZwWstbteTloee7gBX1VlQbYKb
qypSfsC4vjSPCGutxrWQDID/P2gFyaVcmrqMSUrUuYdCHUdC/xeP31XhufkUawiP
T95lWXEcURpYVpbeytEJDcEKsBl0RUY4FnsaCjLgNTRgg8Rjy1M0LUv3yI6IdROV
cJ//z/AQZLNsIsoTPmX7ovsMAYC3ZNjuC0wY/AKd/Wy6ukbL+AXVAgMBAAGjgYAw
fjAMBgNVHRMBAf8EAjAAMB0GA1UdDgQWBBRg7aarCQLYLFQ51Xjl4aEJRLBVITAf
BgNVHSMEGDAWgBSbJguKmKm7HbkfHOMaQDPtjheIqzAdBgNVHSUEFjAUBggrBgEF
BQcDAQYIKwYBBQUHAwIwDwYDVR0RBAgwBocEfwAAATANBgkqhkiG9w0BAQsFAAOC
AQEAvH4HzvHPCr61J79CNM+OxBngYML54qjoc7l1MFs0aj1albjnWIheSGJwBnxR
2BfS+00sSE8jKsO5ygxq9qnYjLF4pkWd09cDGrVkyfySBerq2ueXuGdT0DtG2AAo
Fv8VhBiswpbP3/jGuznSeZppJh7FmUvKtLzKoFPgEUPpt7aM2IuIzU0QmxIYDoDR
q7MkpPM76iEUeUtkF0kKzRzk/RsReUas/saqcxKV/WENsGRTXG/OCv4HLU1CW57c
ShndGSjuvwXiYmFvi4NQF24/MVzy0n36YMMDucq1FtjeuwAJnFCI9ADxKwD4GzRA
lJQsJWOxhJYAPXZILfR3NDY3hw==
-----END CERTIFICATE-----
