Certificate:
    Data:
        Version: 3 (0x2)
        Serial Number:
            12:f6:d9:f1:80:1b:50:9f:64:09:c8:ea:2f:16:33:b0
        Signature Algorithm: sha256WithRSAEncryption
        Issuer: C=US, ST=California, L=Mountain View, O=Test CA, CN=Test Root CA
        Validity
            Not Before: Oct 30 00:00:00 2014 GMT
            Not After : Nov  3 00:00:00 2019 GMT
        Subject: C=US, ST=California, L=Mountain View, O=Test CA, CN=127.0.0.1
        Subject Public Key Info:
            Public Key Algorithm: rsaEncryption
                RSA Public-Key: (2048 bit)
                Modulus:
                    00:af:c9:e5:18:11:50:55:be:1d:36:25:c5:f8:6a:
                    03:08:11:d8:60:a5:e8:ea:29:56:29:4b:8b:01:71:
                    c7:5a:c3:67:fc:29:12:32:f7:92:e6:9f:82:01:25:
                    5a:3f:aa:64:ef:3c:0c:ec:83:f8:94:a0:cd:d6:ec:
                    9c:32:4e:8d:59:58:be:94:4a:ad:a7:ed:1e:48:32:
                    22:43:8f:13:3b:ee:a7:70:8b:65:90:92:5a:06:f5:
                    f6:39:ff:e7:e2:b7:28:d5:d7:19:d8:a8:1f:47:4a:
                    8c:18:12:b9:41:83:63:61:5b:22:4a:93:01:5c:92:
                    ad:5c:1c:5e:c9:45:45:fc:0a:46:bf:31:cf:d5:a6:
                    01:b3:07:c4:70:66:b6:a3:a7:62:7c:9b:0e:f0:0e:
                    84:ad:a8:24:81:7c:8a:9d:8d:4b:ef:46:ec:6e:e7:
                    ad:8f:d3:a8:86:8a:bd:f7:38:32:e2:92:0a:03:c1:
                    bb:b5:fc:c1:32:5a:4e:a6:e1:ea:6e:51:f9:bd:5c:
                    b1:ed:6e:06:c6:ad:83:8d:0c:18:b6:3a:a1:e3:4f:
                    91:4f:e4:48:fc:de:fc:df:b5:e4:dc:15:01:17:05:
                    cb:09:8d:aa:01:6d:a1:8b:b8:ca:5f:93:9a:22:9c:
                    c4:9b:2f:cc:97:7f:a0:54:4e:a6:6b:32:e0:b4:44:
                    0a:f9
                Exponent: 65537 (0x10001)
        X509v3 extensions:
            X509v3 Basic Constraints: critical
                CA:FALSE
            X509v3 Subject Key Identifier: 
                F0:77:4A:12:74:66:41:8F:37:1D:B9:A2:05:9A:A3:51:4F:73:7F:36
            X509v3 Authority Key Identifier: 
                keyid:9B:26:0B:8A:98:A9:BB:1D:B9:1F:1C:E3:1A:40:33:ED:8E:17:88:AB

            X509v3 Extended Key Usage: 
                TLS Web Server Authentication, TLS Web Client Authentication
            X509v3 Subject Alternative Name: 
                IP Address:127.0.0.1
    Signature Algorithm: sha256WithRSAEncryption
         2a:e2:82:7e:67:53:06:70:28:29:27:66:13:76:5c:7a:f2:8b:
         d2:ac:d7:24:eb:b2:c0:16:c9:ab:e4:20:45:d5:4c:fa:22:04:
         48:49:2e:3f:3f:23:43:bf:6b:ec:9d:e7:e3:5a:6b:ef:47:ee:
         b3:8c:db:91:a5:0c:fa:51:c6:32:99:5f:3d:ba:2b:ab:fc:66:
         09:7f:33:4e:b4:19:24:ba:21:95:9d:90:a7:8c:d6:55:9a:c1:
         d3:34:0f:8c:a1:27:8d:8a:1e:36:af:88:66:40:89:b0:9c:af:
         23:92:0c:77:6a:96:07:17:68:90:97:56:d0:b6:3d:33:39:8a:
         79:73:54:66:04:76:73:b6:1a:04:d3:ee:e3:2b:b2:56:ee:5e:
         c3:61:56:1a:2d:f0:f1:cb:22:a0:58:b6:80:ca:11:1d:7d:42:
         0f:5d:23:04:c0:ab:7c:3a:3f:99:0c:54:85:55:99:4a:43:24:
         e1:77:42:66:25:98:05:a8:ab:65:de:05:30:54:20:ee:e9:25:
         0a:87:e8:ed:71:62:b7:00:82:63:0a:3d:88:1b:f4:5a:24:f9:
         90:45:5b:e7:e7:dc:f1:0e:b2:58:fc:52:0c:32:8b:7b:0e:70:
         02:d0:78:ec:8c:61:c7:14:50:5f:8f:ce:4b:12:ac:9a:9f:fb:
         f7:c4:af:05
-----BEGIN CERTIFICATE-----
MIIDzjCCAragAwIBAgIQEvbZ8YAbUJ9kCcjqLxYzsDANBgkqhkiG9w0BAQsFADBj
MQswCQYDVQQGEwJVUzETMBEGA1UECAwKQ2FsaWZvcm5pYTEWMBQGA1UEBwwNTW91
bnRhaW4gVmlldzEQMA4GA1UECgwHVGVzdCBDQTEVMBMGA1UEAwwMVGVzdCBSb290
IENBMB4XDTE0MTAzMDAwMDAwMFoXDTE5MTEwMzAwMDAwMFowYDELMAkGA1UEBhMC
VVMxEzARBgNVBAgMCkNhbGlmb3JuaWExFjAUBgNVBAcMDU1vdW50YWluIFZpZXcx
EDAOBgNVBAoMB1Rlc3QgQ0ExEjAQBgNVBAMMCTEyNy4wLjAuMTCCASIwDQYJKoZI
hvcNAQEBBQADggEPADCCAQoCggEBAK/J5RgRUFW+HTYlxfhqAwgR2GCl6OopVilL
iwFxx1rDZ/wpEjL3kuafggElWj+qZO88DOyD+JSgzdbsnDJOjVlYvpRKraftHkgy
IkOPEzvup3CLZZCSWgb19jn/5+K3KNXXGdioH0dKjBgSuUGDY2FbIkqTAVySrVwc
XslFRfwKRr8xz9WmAbMHxHBmtqOnYnybDvAOhK2oJIF8ip2NS+9G7G7nrY/TqIaK
vfc4MuKSCgPBu7X8wTJaTqbh6m5R+b1cse1uBsatg40MGLY6oeNPkU/kSPze/N+1
5NwVARcFywmNqgFtoYu4yl+TmiKcxJsvzJd/oFROpmsy4LRECvkCAwEAAaOBgDB+
MAwGA1UdEwEB/wQCMAAwHQYDVR0OBBYEFPB3ShJ0ZkGPNx25ogWao1FPc382MB8G
A1UdIwQYMBaAFJsmC4qYqbsduR8c4xpAM+2OF4irMB0GA1UdJQQWMBQGCCsGAQUF
BwMBBggrBgEFBQcDAjAPBgNVHREECDAGhwR/AAABMA0GCSqGSIb3DQEBCwUAA4IB
AQAq4oJ+Z1MGcCgpJ2YTdlx68ovSrNck67LAFsmr5CBF1Uz6IgRISS4/PyNDv2vs
nefjWmvvR+6zjNuRpQz6UcYymV89uiur/GYJfzNOtBkkuiGVnZCnjNZVmsHTNA+M
oSeNih42r4hmQImwnK8jkgx3apYHF2iQl1bQtj0zOYp5c1RmBHZzthoE0+7jK7JW
7l7DYVYaLfDxyyKgWLaAyhEdfUIPXSMEwKt8Oj+ZDFSFVZlKQyThd0JmJZgFqKtl
3gUwVCDu6SUKh+jtcWK3AIJjCj2IG/RaJPmQRVvn59zxDrJY/FIMMot7DnAC0Hjs
jGHHFFBfj85LEqyan/v3xK8F
-----END CERTIFICATE-----
