Certificate:
    Data:
        Version: 3 (0x2)
        Serial Number:
            3e:2c:9d:be:b0:42:c8:cf:fc:99:42:d5:4d:41:6a:b9
        Signature Algorithm: sha256WithRSAEncryption
        Issuer: C=US, ST=California, L=Mountain View, O=Test CA, CN=Test Root CA
        Validity
            Not Before: Mar  2 00:00:00 2018 GMT
            Not After : Jun  4 00:00:01 2020 GMT
        Subject: C=US, ST=California, L=Mountain View, O=Test CA, CN=127.0.0.1
        Subject Public Key Info:
            Public Key Algorithm: rsaEncryption
                RSA Public-Key: (2048 bit)
                Modulus:
                    00:ad:80:98:89:16:89:da:7f:11:d0:e7:ac:79:a7:
                    9f:a2:31:fa:e6:22:54:5a:1f:bf:04:95:50:16:06:
                    b2:39:33:c4:e7:cc:0f:ee:71:90:34:64:52:1e:fe:
                    30:65:30:3f:28:98:de:1f:72:19:83:37:67:d6:e3:
                    ed:95:28:a1:53:9c:8f:3e:49:99:98:9c:1b:04:4a:
                    fe:6f:60:5b:5c:43:a9:0c:fd:b4:04:6f:a3:07:10:
                    b6:68:4e:49:87:37:e4:d4:c7:61:ed:4a:6c:c4:ea:
                    24:d6:33:a6:2c:9d:ae:04:5b:11:60:5d:bd:66:ef:
                    4f:82:86:f2:d6:d2:00:12:fa:c0:81:b8:b2:e2:6b:
                    11:2e:1d:22:42:fe:0c:ac:60:b9:12:98:c5:41:fb:
                    11:e0:1a:fb:fe:fa:72:c9:a9:ce:69:f1:eb:2e:df:
                    25:99:05:34:1f:04:11:0b:4c:39:57:a5:3c:7d:4b:
                    26:8b:7e:3e:e5:aa:df:ec:64:3c:29:b5:0c:bb:ec:
                    3a:f3:79:2f:26:b4:62:07:6d:53:e8:fc:8c:7c:1d:
                    76:3f:fe:5f:ec:72:17:a4:c1:4b:be:1b:d5:e5:20:
                    df:7e:05:04:7c:e4:3c:7c:0d:10:79:a2:f1:b5:dd:
                    7f:e1:4b:48:66:b3:4e:df:fa:82:00:8a:c5:7b:4b:
                    3d:85
                Exponent: 65537 (0x10001)
        X509v3 extensions:
            X509v3 Basic Constraints: critical
                CA:FALSE
            X509v3 Subject Key Identifier: 
                0A:5D:95:5F:6B:5D:7E:D8:97:A8:8B:BF:E3:93:00:FE:C1:77:56:59
            X509v3 Authority Key Identifier: 
                keyid:9B:26:0B:8A:98:A9:BB:1D:B9:1F:1C:E3:1A:40:33:ED:8E:17:88:AB

            X509v3 Extended Key Usage: 
                TLS Web Server Authentication, TLS Web Client Authentication
            X509v3 Subject Alternative Name: 
                IP Address:127.0.0.1
    Signature Algorithm: sha256WithRSAEncryption
         c0:09:34:ed:6d:08:f7:c7:43:c0:29:b1:58:c4:4f:e4:7a:88:
         3f:a1:c2:74:eb:c0:6a:4b:51:e1:f6:78:b2:7c:aa:f0:e7:87:
         d5:0d:c2:71:e0:1c:c7:0a:34:84:22:cb:93:ba:cb:48:5e:53:
         6d:9d:ca:0f:a8:cf:80:7d:e5:ab:76:c7:4d:9e:fa:a7:28:77:
         eb:b0:09:51:27:c1:49:59:e3:23:4d:00:1a:37:00:45:e4:17:
         3f:5a:d1:21:39:c5:f2:12:e3:b7:26:ed:e0:99:42:69:ff:a1:
         9c:1e:a8:34:ea:d9:fb:fe:19:2d:c4:1d:8b:ad:30:d6:31:5b:
         37:8a:ed:3e:26:56:01:89:d2:ac:4d:a0:5f:d5:9b:ab:51:f8:
         ef:24:1b:4c:67:e4:cd:8e:8f:09:1b:f5:4b:96:f6:7a:e3:b9:
         aa:8c:b4:d8:96:b2:87:f7:ed:b4:92:03:68:39:92:24:ca:19:
         18:c7:d8:36:dc:60:31:4e:8f:13:9d:c2:9e:56:78:79:21:03:
         50:9b:86:d3:23:aa:5c:3c:16:e8:16:ae:0c:b3:c4:26:bd:c3:
         f2:b1:15:ed:11:b0:91:63:b2:12:a4:73:57:b6:a0:9f:4c:6f:
         d5:af:43:28:48:c4:8f:07:fe:b8:ab:a8:db:16:aa:81:a4:e7:
         81:6e:a1:e5
-----BEGIN CERTIFICATE-----
MIIDzjCCAragAwIBAgIQPiydvrBCyM/8mULVTUFquTANBgkqhkiG9w0BAQsFADBj
MQswCQYDVQQGEwJVUzETMBEGA1UECAwKQ2FsaWZvcm5pYTEWMBQGA1UEBwwNTW91
bnRhaW4gVmlldzEQMA4GA1UECgwHVGVzdCBDQTEVMBMGA1UEAwwMVGVzdCBSb290
IENBMB4XDTE4MDMwMjAwMDAwMFoXDTIwMDYwNDAwMDAwMVowYDELMAkGA1UEBhMC
VVMxEzARBgNVBAgMCkNhbGlmb3JuaWExFjAUBgNVBAcMDU1vdW50YWluIFZpZXcx
EDAOBgNVBAoMB1Rlc3QgQ0ExEjAQBgNVBAMMCTEyNy4wLjAuMTCCASIwDQYJKoZI
hvcNAQEBBQADggEPADCCAQoCggEBAK2AmIkWidp/EdDnrHmnn6Ix+uYiVFofvwSV
UBYGsjkzxOfMD+5xkDRkUh7+MGUwPyiY3h9yGYM3Z9bj7ZUooVOcjz5JmZicGwRK
/m9gW1xDqQz9tARvowcQtmhOSYc35NTHYe1KbMTqJNYzpiydrgRbEWBdvWbvT4KG
8tbSABL6wIG4suJrES4dIkL+DKxguRKYxUH7EeAa+/76csmpzmnx6y7fJZkFNB8E
EQtMOVelPH1LJot+PuWq3+xkPCm1DLvsOvN5Lya0YgdtU+j8jHwddj/+X+xyF6TB
S74b1eUg334FBHzkPHwNEHmi8bXdf+FLSGazTt/6ggCKxXtLPYUCAwEAAaOBgDB+
MAwGA1UdEwEB/wQCMAAwHQYDVR0OBBYEFApdlV9rXX7Yl6iLv+OTAP7Bd1ZZMB8G
A1UdIwQYMBaAFJsmC4qYqbsduR8c4xpAM+2OF4irMB0GA1UdJQQWMBQGCCsGAQUF
BwMBBggrBgEFBQcDAjAPBgNVHREECDAGhwR/AAABMA0GCSqGSIb3DQEBCwUAA4IB
AQDACTTtbQj3x0PAKbFYxE/keog/ocJ068BqS1Hh9niyfKrw54fVDcJx4BzHCjSE
IsuTustIXlNtncoPqM+AfeWrdsdNnvqnKHfrsAlRJ8FJWeMjTQAaNwBF5Bc/WtEh
OcXyEuO3Ju3gmUJp/6GcHqg06tn7/hktxB2LrTDWMVs3iu0+JlYBidKsTaBf1Zur
UfjvJBtMZ+TNjo8JG/VLlvZ647mqjLTYlrKH9+20kgNoOZIkyhkYx9g23GAxTo8T
ncKeVnh5IQNQm4bTI6pcPBboFq4Ms8QmvcPysRXtEbCRY7ISpHNXtqCfTG/Vr0Mo
SMSPB/64q6jbFqqBpOeBbqHl
-----END CERTIFICATE-----
