Certificate:
    Data:
        Version: 3 (0x2)
        Serial Number:
            12:f6:d9:f1:80:1b:50:9f:64:09:c8:ea:2f:16:33:b7
        Signature Algorithm: sha256WithRSAEncryption
        Issuer: C=US, ST=California, L=Mountain View, O=Test CA, CN=Test Root CA
        Validity
            Not Before: Mar  2 00:00:00 2018 GMT
            Not After : Jun  4 00:00:00 2020 GMT
        Subject: C=US, ST=California, L=Mountain View, O=Test CA, CN=127.0.0.1
        Subject Public Key Info:
            Public Key Algorithm: rsaEncryption
                RSA Public-Key: (2048 bit)
                Modulus:
                    00:cf:3a:7a:4b:9c:1c:a7:21:9f:e3:d0:9d:ff:4b:
                    09:9e:00:85:53:c1:0e:f4:e5:2c:c8:75:37:2a:a8:
                    1b:41:33:5b:97:21:80:6b:f1:e4:0b:f5:40:d4:8c:
                    cd:a2:55:3a:07:c9:15:9f:f2:9b:23:e1:7f:3e:e5:
                    fe:b0:8d:c9:7b:f8:25:77:9d:17:c3:85:85:e4:50:
                    a8:90:cf:ae:9f:c5:98:c7:19:46:b4:50:c1:58:fa:
                    4d:1e:b1:cc:3e:39:27:7b:ce:0b:a8:1d:1d:5a:1f:
                    68:9c:66:eb:38:59:52:e9:cc:8d:1d:cf:0f:13:eb:
                    ca:b2:4c:eb:b4:15:7c:9f:fb:a2:d5:8a:cb:ff:8a:
                    a3:7c:95:20:d2:a2:57:7d:62:55:1c:51:f8:6e:4b:
                    62:bc:ed:bc:35:cc:d5:d6:a6:15:02:9b:bb:1f:57:
                    5b:7a:e2:c3:5f:df:3d:c1:56:9f:e1:b0:ec:43:d5:
                    c4:f0:87:90:c3:e1:0f:76:d0:e7:79:61:93:0a:ed:
                    d9:4e:d5:94:41:f7:1b:74:6e:b6:81:18:a4:67:8b:
                    74:99:af:c6:ed:15:41:ac:97:9d:9b:f6:ce:6f:60:
                    55:65:b5:9c:7d:60:d3:da:ec:13:aa:3a:96:9e:e9:
                    a5:0a:ae:2d:33:ae:e3:84:60:91:d0:9d:d3:c9:e4:
                    d3:13
                Exponent: 65537 (0x10001)
        X509v3 extensions:
            X509v3 Basic Constraints: critical
                CA:FALSE
            X509v3 Subject Key Identifier: 
                AE:E9:7B:D9:8C:7F:3D:56:2A:A2:18:90:A0:85:DF:43:DF:C1:32:DB
            X509v3 Authority Key Identifier: 
                keyid:9B:26:0B:8A:98:A9:BB:1D:B9:1F:1C:E3:1A:40:33:ED:8E:17:88:AB

            X509v3 Extended Key Usage: 
                TLS Web Server Authentication, TLS Web Client Authentication
            X509v3 Subject Alternative Name: 
                IP Address:127.0.0.1
    Signature Algorithm: sha256WithRSAEncryption
         b0:bf:ab:85:fd:ab:14:9d:a7:5f:13:f5:76:19:31:2c:3a:ed:
         22:65:1f:4d:a8:f0:17:a4:3e:61:fb:43:b9:77:9f:a8:5d:3d:
         65:75:5a:0a:db:80:25:1f:79:10:d2:3f:6d:0e:b0:6f:86:b3:
         46:f6:ae:bd:05:f6:49:74:72:0d:eb:b5:ec:9f:56:32:97:0b:
         0f:58:ff:13:21:25:97:89:25:fa:3e:ee:65:2b:ac:ae:4e:98:
         ef:c8:08:82:8d:92:44:0c:ad:8c:ba:e5:79:d9:1b:c2:e3:c0:
         1e:2c:c8:f7:af:cd:2e:a3:0b:30:30:22:da:6f:b2:05:de:06:
         8c:da:9e:e0:bc:0c:27:0c:d4:af:ba:c3:70:99:10:e6:15:ac:
         57:75:94:a2:fc:d0:5f:c0:f3:77:81:8f:c2:81:21:2f:d3:bd:
         c8:23:b4:3f:33:3c:c0:e7:fe:06:9f:d5:33:4f:bb:b8:88:da:
         78:84:c1:6c:23:fe:1c:63:48:d0:1f:a3:87:2c:2c:31:f5:50:
         35:df:16:5d:40:1d:2b:3d:f5:4d:39:fb:8c:45:66:ae:76:90:
         fc:a7:e1:94:51:e6:e7:f2:2d:29:74:e4:5d:38:b4:dc:04:00:
         b8:a8:5f:cd:f0:af:92:dd:24:fc:54:c9:df:26:81:b4:a2:ba:
         34:b2:7b:f3
-----BEGIN CERTIFICATE-----
MIIDzjCCAragAwIBAgIQEvbZ8YAbUJ9kCcjqLxYztzANBgkqhkiG9w0BAQsFADBj
MQswCQYDVQQGEwJVUzETMBEGA1UECAwKQ2FsaWZvcm5pYTEWMBQGA1UEBwwNTW91
bnRhaW4gVmlldzEQMA4GA1UECgwHVGVzdCBDQTEVMBMGA1UEAwwMVGVzdCBSb290
IENBMB4XDTE4MDMwMjAwMDAwMFoXDTIwMDYwNDAwMDAwMFowYDELMAkGA1UEBhMC
VVMxEzARBgNVBAgMCkNhbGlmb3JuaWExFjAUBgNVBAcMDU1vdW50YWluIFZpZXcx
EDAOBgNVBAoMB1Rlc3QgQ0ExEjAQBgNVBAMMCTEyNy4wLjAuMTCCASIwDQYJKoZI
hvcNAQEBBQADggEPADCCAQoCggEBAM86ekucHKchn+PQnf9LCZ4AhVPBDvTlLMh1
NyqoG0EzW5chgGvx5Av1QNSMzaJVOgfJFZ/ymyPhfz7l/rCNyXv4JXedF8OFheRQ
qJDPrp/FmMcZRrRQwVj6TR6xzD45J3vOC6gdHVofaJxm6zhZUunMjR3PDxPryrJM
67QVfJ/7otWKy/+Ko3yVINKiV31iVRxR+G5LYrztvDXM1damFQKbux9XW3riw1/f
PcFWn+Gw7EPVxPCHkMPhD3bQ53lhkwrt2U7VlEH3G3RutoEYpGeLdJmvxu0VQayX
nZv2zm9gVWW1nH1g09rsE6o6lp7ppQquLTOu44RgkdCd08nk0xMCAwEAAaOBgDB+
MAwGA1UdEwEB/wQCMAAwHQYDVR0OBBYEFK7pe9mMfz1WKqIYkKCF30PfwTLbMB8G
A1UdIwQYMBaAFJsmC4qYqbsduR8c4xpAM+2OF4irMB0GA1UdJQQWMBQGCCsGAQUF
BwMBBggrBgEFBQcDAjAPBgNVHREECDAGhwR/AAABMA0GCSqGSIb3DQEBCwUAA4IB
AQCwv6uF/asUnadfE/V2GTEsOu0iZR9NqPAXpD5h+0O5d5+oXT1ldVoK24AlH3kQ
0j9tDrBvhrNG9q69BfZJdHIN67Xsn1YylwsPWP8TISWXiSX6Pu5lK6yuTpjvyAiC
jZJEDK2MuuV52RvC48AeLMj3r80uowswMCLab7IF3gaM2p7gvAwnDNSvusNwmRDm
FaxXdZSi/NBfwPN3gY/CgSEv073II7Q/MzzA5/4Gn9UzT7u4iNp4hMFsI/4cY0jQ
H6OHLCwx9VA13xZdQB0rPfVNOfuMRWaudpD8p+GUUebn8i0pdORdOLTcBAC4qF/N
8K+S3ST8VMnfJoG0oro0snvz
-----END CERTIFICATE-----
