Certificate:
    Data:
        Version: 3 (0x2)
        Serial Number:
            3e:2c:9d:be:b0:42:c8:cf:fc:99:42:d5:4d:41:6a:b8
        Signature Algorithm: sha256WithRSAEncryption
        Issuer: C=US, ST=California, L=Mountain View, O=Test CA, CN=Test Root CA
        Validity
            Not Before: Mar  2 00:00:00 2018 GMT
            Not After : Jun  4 00:00:00 2020 GMT
        Subject: C=US, ST=California, L=Mountain View, O=Test CA, CN=127.0.0.1
        Subject Public Key Info:
            Public Key Algorithm: rsaEncryption
                RSA Public-Key: (2048 bit)
                Modulus:
                    00:d8:2b:9b:bd:10:74:a6:6f:9d:2b:1f:c6:f7:10:
                    69:fd:8a:13:f4:6b:71:b6:15:3a:66:0e:48:92:4f:
                    08:e3:93:d4:0d:6b:79:2e:c1:55:99:73:1c:b6:6f:
                    b7:92:7f:3a:38:63:15:6b:dc:52:45:8a:cf:f3:f2:
                    62:e2:ef:3e:12:cf:98:ca:b1:d2:8e:47:a3:ba:92:
                    ce:9b:2b:5f:4a:aa:0f:5e:cf:63:58:b7:cf:9b:78:
                    2a:f2:8d:8e:24:73:92:2f:ed:dc:19:b0:e4:fe:ed:
                    66:4a:4f:5e:3f:cd:d4:9c:96:51:34:37:67:8e:8a:
                    ed:49:0c:97:2b:db:da:6e:04:a5:56:32:64:74:cb:
                    d0:09:95:4c:39:df:38:20:ff:fa:87:4b:73:15:ce:
                    38:7c:bc:af:47:c2:c8:21:f6:3d:52:98:b0:c5:2c:
                    b2:cd:87:34:41:ba:4b:f9:19:68:98:2b:4e:0e:88:
                    46:a6:79:7e:4e:b3:ca:2c:83:1d:6e:9f:7d:8d:d2:
                    79:48:b9:1f:a0:33:11:35:43:96:0f:72:c0:d6:7b:
                    d8:ad:33:12:6e:a9:32:34:da:91:5a:a9:2c:fe:c8:
                    2b:76:99:27:2c:cf:ae:c8:dd:49:99:b5:18:fd:7c:
                    0b:c0:1f:86:53:23:1b:25:b2:e8:8a:da:0b:88:19:
                    3e:85
                Exponent: 65537 (0x10001)
        X509v3 extensions:
            X509v3 Basic Constraints: critical
                CA:FALSE
            X509v3 Subject Key Identifier: 
                E5:64:89:76:C4:A8:B3:BF:29:71:0B:83:86:5F:60:77:28:82:AE:52
            X509v3 Authority Key Identifier: 
                keyid:9B:26:0B:8A:98:A9:BB:1D:B9:1F:1C:E3:1A:40:33:ED:8E:17:88:AB

            X509v3 Extended Key Usage: 
                TLS Web Server Authentication, TLS Web Client Authentication
            X509v3 Subject Alternative Name: 
                IP Address:127.0.0.1
    Signature Algorithm: sha256WithRSAEncryption
         36:dd:82:06:b0:07:79:81:c8:5c:e0:cf:4f:06:a0:03:99:3b:
         41:93:bb:79:3f:7d:ce:3e:e6:d4:78:a0:4e:3b:c4:3f:09:9c:
         f5:91:53:84:c9:2d:12:ac:19:ef:d4:d5:83:8f:c8:9c:9f:5d:
         d5:d9:02:6b:c2:c2:0e:b3:78:34:9e:58:1d:b8:3b:04:31:e5:
         a4:ce:d0:1c:d9:44:81:7f:e2:36:de:30:9f:7d:18:40:2e:9c:
         27:f7:27:43:7e:c2:35:ce:8e:9f:07:bc:9f:f6:2f:57:ab:51:
         2b:5d:aa:74:b2:e9:86:ce:b8:b0:7a:ee:22:e2:fa:29:8d:3b:
         7d:6b:f5:d2:42:66:c8:bc:cd:8e:ff:ca:c4:2d:e6:70:62:52:
         67:e3:89:d7:8f:f9:f4:0c:c0:db:d7:2e:b3:fb:97:d5:38:0c:
         83:88:76:76:fc:43:ab:8e:8b:ee:12:c2:10:b9:37:e7:40:a3:
         2f:2e:bb:d2:5d:c5:04:97:19:bb:0f:f2:80:dc:66:86:b5:6e:
         ea:87:ff:d7:5b:13:f0:11:09:92:f4:a8:93:ac:33:75:cc:44:
         3a:9d:a8:d3:5a:d4:06:14:05:7e:3d:5e:32:29:98:9a:45:e1:
         2e:37:3a:39:75:c0:50:fe:9e:b0:e3:d2:16:16:91:64:c0:79:
         99:cd:47:42
-----BEGIN CERTIFICATE-----
MIIDzjCCAragAwIBAgIQPiydvrBCyM/8mULVTUFquDANBgkqhkiG9w0BAQsFADBj
MQswCQYDVQQGEwJVUzETMBEGA1UECAwKQ2FsaWZvcm5pYTEWMBQGA1UEBwwNTW91
bnRhaW4gVmlldzEQMA4GA1UECgwHVGVzdCBDQTEVMBMGA1UEAwwMVGVzdCBSb290
IENBMB4XDTE4MDMwMjAwMDAwMFoXDTIwMDYwNDAwMDAwMFowYDELMAkGA1UEBhMC
VVMxEzARBgNVBAgMCkNhbGlmb3JuaWExFjAUBgNVBAcMDU1vdW50YWluIFZpZXcx
EDAOBgNVBAoMB1Rlc3QgQ0ExEjAQBgNVBAMMCTEyNy4wLjAuMTCCASIwDQYJKoZI
hvcNAQEBBQADggEPADCCAQoCggEBANgrm70QdKZvnSsfxvcQaf2KE/RrcbYVOmYO
SJJPCOOT1A1reS7BVZlzHLZvt5J/OjhjFWvcUkWKz/PyYuLvPhLPmMqx0o5Ho7qS
zpsrX0qqD17PY1i3z5t4KvKNjiRzki/t3Bmw5P7tZkpPXj/N1JyWUTQ3Z46K7UkM
lyvb2m4EpVYyZHTL0AmVTDnfOCD/+odLcxXOOHy8r0fCyCH2PVKYsMUsss2HNEG6
S/kZaJgrTg6IRqZ5fk6zyiyDHW6ffY3SeUi5H6AzETVDlg9ywNZ72K0zEm6pMjTa
kVqpLP7IK3aZJyzPrsjdSZm1GP18C8AfhlMjGyWy6IraC4gZPoUCAwEAAaOBgDB+
MAwGA1UdEwEB/wQCMAAwHQYDVR0OBBYEFOVkiXbEqLO/KXELg4ZfYHcogq5SMB8G
A1UdIwQYMBaAFJsmC4qYqbsduR8c4xpAM+2OF4irMB0GA1UdJQQWMBQGCCsGAQUF
BwMBBggrBgEFBQcDAjAPBgNVHREECDAGhwR/AAABMA0GCSqGSIb3DQEBCwUAA4IB
AQA23YIGsAd5gchc4M9PBqADmTtBk7t5P33OPubUeKBOO8Q/CZz1kVOEyS0SrBnv
1NWDj8icn13V2QJrwsIOs3g0nlgduDsEMeWkztAc2USBf+I23jCffRhALpwn9ydD
fsI1zo6fB7yf9i9Xq1ErXap0sumGzriweu4i4vopjTt9a/XSQmbIvM2O/8rELeZw
YlJn44nXj/n0DMDb1y6z+5fVOAyDiHZ2/EOrjovuEsIQuTfnQKMvLrvSXcUElxm7
D/KA3GaGtW7qh//XWxPwEQmS9KiTrDN1zEQ6najTWtQGFAV+PV4yKZiaReEuNzo5
dcBQ/p6w49IWFpFkwHmZzUdC
-----END CERTIFICATE-----
