Certificate:
    Data:
        Version: 3 (0x2)
        Serial Number:
            b0:6b:93:92:e3:5c:8d:7e:ed:9d:c8:96:59:c5:c2:7c
        Signature Algorithm: sha256WithRSAEncryption
        Issuer: C=US, ST=California, L=Mountain View, O=Test CA, CN=Test Root CA
        Validity
            Not Before: Mar  2 00:00:00 2018 GMT
            Not After : Jun  4 00:00:01 2020 GMT
        Subject: C=US, ST=California, L=Mountain View, O=Test CA, CN=127.0.0.1
        Subject Public Key Info:
            Public Key Algorithm: rsaEncryption
                Public-Key: (2048 bit)
                Modulus:
                    00:a1:4f:d4:c4:81:eb:6b:72:1f:2c:7c:77:49:e6:
                    c8:29:76:f1:2a:36:d6:0c:dd:80:ed:07:83:bd:ff:
                    76:de:d6:79:9b:ff:0f:6d:24:e3:cd:17:4d:ba:82:
                    e9:2d:37:bf:ec:78:b4:7d:b4:6d:d1:af:84:40:ea:
                    50:a6:87:c3:4c:1c:11:f3:c9:54:f1:d9:d7:8a:4b:
                    a4:82:28:55:e4:b5:8a:fb:cb:c7:fa:da:07:d4:fd:
                    f9:3a:94:ab:89:cc:e1:22:ba:12:93:78:a3:dc:6d:
                    be:06:f7:b1:25:29:fe:0e:9f:37:08:35:5a:09:9f:
                    4f:3e:27:b4:b9:d7:ec:10:74:c8:fe:a3:b3:97:1d:
                    29:c2:33:eb:90:de:55:2e:77:ee:9f:60:c9:c9:1d:
                    2a:eb:71:24:8c:fe:75:f6:88:d9:8a:00:4f:b6:9c:
                    65:c1:8e:36:39:a4:c4:37:f3:fa:b3:5b:db:50:39:
                    0d:8f:0b:c9:33:e2:bb:10:5c:11:3a:8a:aa:aa:16:
                    22:f4:fe:ba:6d:ee:da:66:d9:6a:e3:b0:0b:79:78:
                    06:5d:b7:60:9c:30:07:94:3d:45:d5:9e:95:14:49:
                    d0:b6:c1:4c:e6:5e:81:48:3e:eb:22:9d:e8:86:d1:
                    5e:69:7b:43:8a:e7:05:93:f5:ad:c0:3d:63:c4:70:
                    d0:19
                Exponent: 65537 (0x10001)
        X509v3 extensions:
            X509v3 Basic Constraints: critical
                CA:FALSE
            X509v3 Subject Key Identifier: 
                A6:14:80:2C:A5:12:49:3A:D8:66:20:1C:05:B8:44:46:E2:C0:80:12
            X509v3 Authority Key Identifier: 
                9B:26:0B:8A:98:A9:BB:1D:B9:1F:1C:E3:1A:40:33:ED:8E:17:88:AB
            X509v3 Extended Key Usage: 
                TLS Web Server Authentication, TLS Web Client Authentication
            X509v3 Subject Alternative Name: 
                IP Address:127.0.0.1
    Signature Algorithm: sha256WithRSAEncryption
    Signature Value:
        18:c9:d9:fd:1f:2c:5c:c8:1d:d7:02:7f:b7:a9:52:3c:b4:46:
        e6:80:aa:0c:95:3c:1e:8c:84:63:f9:37:3d:5e:c1:f3:f5:78:
        01:16:3e:fe:ef:6f:bc:38:a4:5b:28:b1:62:5d:8b:fc:68:e4:
        00:c2:b3:cc:4f:e0:6e:3e:6e:01:ee:47:5d:ec:04:a0:cf:ac:
        00:13:72:d1:5e:8c:a1:d8:14:9f:0a:9d:fd:91:76:40:0c:b5:
        fb:a5:ad:d1:17:a8:cc:5a:79:dc:0d:65:4d:61:8d:1f:c1:99:
        08:db:23:d1:6d:48:21:19:15:56:91:32:eb:a9:11:3e:91:46:
        2d:1e:9a:af:f5:49:ae:d0:2a:19:55:51:3f:4a:a7:06:e2:d3:
        b7:41:61:88:22:69:0a:1e:1e:d4:95:d7:53:5b:72:66:d0:08:
        48:26:bd:12:0f:29:34:57:9b:3a:0e:75:87:74:1d:f4:71:36:
        6c:cf:ae:2d:34:bc:a5:25:d3:07:d1:0f:60:85:e8:9c:23:fd:
        3c:6f:8a:b3:44:71:af:e8:5f:8c:a7:3c:bf:69:e8:7e:bf:0b:
        30:17:b7:78:55:e8:b0:a8:0a:6c:7b:f6:e4:95:b9:9d:d3:0e:
        6f:c6:18:da:d9:3b:67:ab:7b:dc:31:6f:96:ee:23:94:e0:87:
        40:73:c0:51
-----BEGIN CERTIFICATE-----
MIIDzzCCAregAwIBAgIRALBrk5LjXI1+7Z3IllnFwnwwDQYJKoZIhvcNAQELBQAw
YzELMAkGA1UEBhMCVVMxEzARBgNVBAgMCkNhbGlmb3JuaWExFjAUBgNVBAcMDU1v
dW50YWluIFZpZXcxEDAOBgNVBAoMB1Rlc3QgQ0ExFTATBgNVBAMMDFRlc3QgUm9v
dCBDQTAeFw0xODAzMDIwMDAwMDBaFw0yMDA2MDQwMDAwMDFaMGAxCzAJBgNVBAYT
AlVTMRMwEQYDVQQIDApDYWxpZm9ybmlhMRYwFAYDVQQHDA1Nb3VudGFpbiBWaWV3
MRAwDgYDVQQKDAdUZXN0IENBMRIwEAYDVQQDDAkxMjcuMC4wLjEwggEiMA0GCSqG
SIb3DQEBAQUAA4IBDwAwggEKAoIBAQChT9TEgetrch8sfHdJ5sgpdvEqNtYM3YDt
B4O9/3be1nmb/w9tJOPNF026guktN7/seLR9tG3Rr4RA6lCmh8NMHBHzyVTx2deK
S6SCKFXktYr7y8f62gfU/fk6lKuJzOEiuhKTeKPcbb4G97ElKf4OnzcINVoJn08+
J7S51+wQdMj+o7OXHSnCM+uQ3lUud+6fYMnJHSrrcSSM/nX2iNmKAE+2nGXBjjY5
pMQ38/qzW9tQOQ2PC8kz4rsQXBE6iqqqFiL0/rpt7tpm2WrjsAt5eAZdt2CcMAeU
PUXVnpUUSdC2wUzmXoFIPusineiG0V5pe0OK5wWT9a3APWPEcNAZAgMBAAGjgYAw
fjAMBgNVHRMBAf8EAjAAMB0GA1UdDgQWBBSmFIAspRJJOthmIBwFuERG4sCAEjAf
BgNVHSMEGDAWgBSbJguKmKm7HbkfHOMaQDPtjheIqzAdBgNVHSUEFjAUBggrBgEF
BQcDAQYIKwYBBQUHAwIwDwYDVR0RBAgwBocEfwAAATANBgkqhkiG9w0BAQsFAAOC
AQEAGMnZ/R8sXMgd1wJ/t6lSPLRG5oCqDJU8HoyEY/k3PV7B8/V4ARY+/u9vvDik
WyixYl2L/GjkAMKzzE/gbj5uAe5HXewEoM+sABNy0V6ModgUnwqd/ZF2QAy1+6Wt
0ReozFp53A1lTWGNH8GZCNsj0W1IIRkVVpEy66kRPpFGLR6ar/VJrtAqGVVRP0qn
BuLTt0FhiCJpCh4e1JXXU1tyZtAISCa9Eg8pNFebOg51h3Qd9HE2bM+uLTS8pSXT
B9EPYIXonCP9PG+Ks0Rxr+hfjKc8v2nofr8LMBe3eFXosKgKbHv25JW5ndMOb8YY
2tk7Z6t73DFvlu4jlOCHQHPAUQ==
-----END CERTIFICATE-----
