Certificate:
    Data:
        Version: 3 (0x2)
        Serial Number:
            cf:95:70:1c:b6:6c:07:bb:a4:de:63:24:47:3b:4e:d5
        Signature Algorithm: sha256WithRSAEncryption
        Issuer: C=US, ST=California, L=Mountain View, O=Test CA, CN=Test Root CA
        Validity
            Not Before: Mar  2 00:00:00 2018 GMT
            Not After : Jun  4 00:00:01 2020 GMT
        Subject: C=US, ST=California, L=Mountain View, O=Test CA, CN=127.0.0.1
        Subject Public Key Info:
            Public Key Algorithm: rsaEncryption
                Public-Key: (2048 bit)
                Modulus:
                    00:e8:31:e2:e8:84:a8:74:8d:9a:77:78:f3:29:91:
                    e7:dd:ef:e2:5d:35:14:17:4f:e2:e8:95:10:74:88:
                    b2:e5:b2:da:44:56:fb:e2:eb:29:1f:dc:ae:37:ab:
                    f9:ff:a7:06:49:59:27:a0:d8:2d:55:b5:33:e8:5d:
                    8d:8e:6c:b4:32:8c:11:ca:c9:d2:ad:78:46:9d:c2:
                    6f:18:5f:32:36:a2:b5:08:07:07:0c:d2:67:0c:e4:
                    5b:82:ef:a0:58:2b:92:13:5e:d7:3f:a5:4c:f0:3b:
                    60:00:81:ff:e8:a6:4b:24:98:92:d7:22:b4:f3:3b:
                    cd:59:4e:6f:ee:7c:1c:fc:d8:86:8c:e7:81:26:f0:
                    69:9c:d6:d1:1d:37:42:69:f8:bf:b3:2d:29:ed:93:
                    f5:81:fe:b8:83:ed:9f:8a:91:fe:15:52:59:b3:73:
                    9e:44:7e:cc:9d:5a:a4:a0:02:50:be:f4:c5:21:ec:
                    06:3a:11:9f:0c:cd:8e:d8:8e:a0:7c:b0:ba:03:02:
                    42:6f:b1:7e:d4:06:a8:aa:f5:3d:78:9a:a0:06:a5:
                    55:7d:59:f6:05:33:44:41:f8:c2:65:94:96:d4:48:
                    1d:18:2a:1d:e2:72:4f:4e:a5:3f:fb:0b:1e:82:64:
                    8b:e3:52:17:9c:f5:eb:bd:25:75:0a:52:55:2c:7c:
                    d4:19
                Exponent: 65537 (0x10001)
        X509v3 extensions:
            X509v3 Basic Constraints: critical
                CA:FALSE
            X509v3 Subject Key Identifier: 
                F2:3B:5F:37:2D:91:09:F0:F8:3B:7D:21:7B:95:38:63:82:FB:72:B1
            X509v3 Authority Key Identifier: 
                9B:26:0B:8A:98:A9:BB:1D:B9:1F:1C:E3:1A:40:33:ED:8E:17:88:AB
            X509v3 Extended Key Usage: 
                TLS Web Server Authentication, TLS Web Client Authentication
            X509v3 Subject Alternative Name: 
                IP Address:127.0.0.1
    Signature Algorithm: sha256WithRSAEncryption
    Signature Value:
        33:d3:85:e6:34:5b:ce:5d:50:b4:78:fd:34:3b:0f:fa:b9:26:
        e5:31:27:b9:9a:64:b4:05:01:a2:3d:ab:d3:51:c5:80:cc:db:
        ad:b6:9d:a3:25:a7:8e:88:cd:67:f5:08:56:de:23:11:35:1d:
        84:f5:bc:52:b2:68:8d:3f:03:1f:3b:b7:91:8d:57:e8:ee:69:
        3a:16:22:69:b4:0d:e6:6b:2d:0c:14:be:02:e2:af:1a:c0:0e:
        91:46:c4:8b:9e:da:9e:2a:ae:f0:3e:29:c5:9c:04:85:c3:9c:
        34:4b:fd:25:ec:f0:67:52:4e:76:8c:fc:9d:9b:8d:81:e3:03:
        b3:ec:0a:9b:9f:1c:55:13:6f:4c:f2:04:5d:04:85:ac:29:1c:
        70:49:86:4a:19:b1:22:4b:f9:e0:85:3f:52:5d:f7:b5:a8:4f:
        76:fc:d8:c8:d8:30:e6:6a:18:2b:af:82:27:9a:96:9a:e8:5a:
        4b:27:d0:17:0d:5b:b0:cc:e8:47:33:85:2d:a2:6b:9b:1d:36:
        f0:36:95:b4:b1:0e:22:67:84:87:4f:eb:cc:64:a5:97:79:2e:
        6c:75:3f:8e:36:0a:80:05:63:66:6a:7a:ed:89:9f:fd:4a:54:
        0d:b8:13:16:eb:88:94:a8:4a:eb:0c:3d:22:39:5b:64:40:13:
        2b:c3:4e:33
-----BEGIN CERTIFICATE-----
MIIDzzCCAregAwIBAgIRAM+VcBy2bAe7pN5jJEc7TtUwDQYJKoZIhvcNAQELBQAw
YzELMAkGA1UEBhMCVVMxEzARBgNVBAgMCkNhbGlmb3JuaWExFjAUBgNVBAcMDU1v
dW50YWluIFZpZXcxEDAOBgNVBAoMB1Rlc3QgQ0ExFTATBgNVBAMMDFRlc3QgUm9v
dCBDQTAeFw0xODAzMDIwMDAwMDBaFw0yMDA2MDQwMDAwMDFaMGAxCzAJBgNVBAYT
AlVTMRMwEQYDVQQIDApDYWxpZm9ybmlhMRYwFAYDVQQHDA1Nb3VudGFpbiBWaWV3
MRAwDgYDVQQKDAdUZXN0IENBMRIwEAYDVQQDDAkxMjcuMC4wLjEwggEiMA0GCSqG
SIb3DQEBAQUAA4IBDwAwggEKAoIBAQDoMeLohKh0jZp3ePMpkefd7+JdNRQXT+Lo
lRB0iLLlstpEVvvi6ykf3K43q/n/pwZJWSeg2C1VtTPoXY2ObLQyjBHKydKteEad
wm8YXzI2orUIBwcM0mcM5FuC76BYK5ITXtc/pUzwO2AAgf/opkskmJLXIrTzO81Z
Tm/ufBz82IaM54Em8Gmc1tEdN0Jp+L+zLSntk/WB/riD7Z+Kkf4VUlmzc55Efsyd
WqSgAlC+9MUh7AY6EZ8MzY7YjqB8sLoDAkJvsX7UBqiq9T14mqAGpVV9WfYFM0RB
+MJllJbUSB0YKh3ick9OpT/7Cx6CZIvjUhec9eu9JXUKUlUsfNQZAgMBAAGjgYAw
fjAMBgNVHRMBAf8EAjAAMB0GA1UdDgQWBBTyO183LZEJ8Pg7fSF7lThjgvtysTAf
BgNVHSMEGDAWgBSbJguKmKm7HbkfHOMaQDPtjheIqzAdBgNVHSUEFjAUBggrBgEF
BQcDAQYIKwYBBQUHAwIwDwYDVR0RBAgwBocEfwAAATANBgkqhkiG9w0BAQsFAAOC
AQEAM9OF5jRbzl1QtHj9NDsP+rkm5TEnuZpktAUBoj2r01HFgMzbrbadoyWnjojN
Z/UIVt4jETUdhPW8UrJojT8DHzu3kY1X6O5pOhYiabQN5mstDBS+AuKvGsAOkUbE
i57aniqu8D4pxZwEhcOcNEv9JezwZ1JOdoz8nZuNgeMDs+wKm58cVRNvTPIEXQSF
rCkccEmGShmxIkv54IU/Ul33tahPdvzYyNgw5moYK6+CJ5qWmuhaSyfQFw1bsMzo
RzOFLaJrmx028DaVtLEOImeEh0/rzGSll3kubHU/jjYKgAVjZmp67Ymf/UpUDbgT
FuuIlKhK6ww9IjlbZEATK8NOMw==
-----END CERTIFICATE-----
