Certificate:
    Data:
        Version: 3 (0x2)
        Serial Number:
            12:f6:d9:f1:80:1b:50:9f:64:09:c8:ea:2f:16:33:b8
        Signature Algorithm: sha256WithRSAEncryption
        Issuer: C=US, ST=California, L=Mountain View, O=Test CA, CN=Test Root CA
        Validity
            Not Before: Mar  2 00:00:00 2018 GMT
            Not After : Jun  4 00:00:01 2020 GMT
        Subject: C=US, ST=California, L=Mountain View, O=Test CA, CN=127.0.0.1
        Subject Public Key Info:
            Public Key Algorithm: rsaEncryption
                RSA Public-Key: (2048 bit)
                Modulus:
                    00:b2:cf:a6:1f:53:61:90:3f:5b:b6:b6:76:23:27:
                    c8:dc:5e:c3:cc:d3:48:ed:e2:9e:e2:ea:56:00:b7:
                    34:e7:40:3c:c9:b6:e4:62:9f:8a:51:2d:78:38:37:
                    46:2c:2f:41:60:a8:14:54:31:e8:07:88:86:dd:40:
                    f4:16:7b:75:30:06:75:d8:f9:21:f3:e5:4b:a3:22:
                    a7:03:a4:da:ce:e2:99:19:be:64:07:38:3f:85:ea:
                    27:6b:f1:da:bf:cd:03:d5:fb:5e:c9:ff:aa:60:05:
                    db:68:91:1f:78:27:c3:19:52:8b:af:93:47:2b:46:
                    69:02:e5:c3:d1:63:7b:0c:9d:af:89:ef:c6:9c:82:
                    95:aa:a6:85:4f:38:10:db:d4:25:a6:5b:7e:01:2d:
                    c2:f6:ce:14:5f:df:ee:6b:3e:6b:f4:92:cb:3f:9e:
                    ea:fb:1b:a2:f9:08:46:e0:16:3a:0e:f6:9d:93:18:
                    a4:6d:c0:49:5c:c7:02:28:26:e9:d4:d9:c3:92:04:
                    f4:d0:8e:c1:4a:23:e9:99:81:5e:ff:3f:c3:05:1c:
                    8c:f2:8c:a9:24:6d:04:1b:68:69:06:11:c5:8c:7f:
                    3c:29:f8:ec:dc:9e:93:f7:70:0b:88:ec:0e:e3:9b:
                    ab:89:cd:8f:54:4b:06:55:99:9e:52:b5:73:43:16:
                    5d:3f
                Exponent: 65537 (0x10001)
        X509v3 extensions:
            X509v3 Basic Constraints: critical
                CA:FALSE
            X509v3 Subject Key Identifier: 
                0E:C5:3C:95:6D:2C:2E:67:58:28:FB:85:8D:11:F1:EA:16:19:53:84
            X509v3 Authority Key Identifier: 
                keyid:9B:26:0B:8A:98:A9:BB:1D:B9:1F:1C:E3:1A:40:33:ED:8E:17:88:AB

            X509v3 Extended Key Usage: 
                TLS Web Server Authentication, TLS Web Client Authentication
            X509v3 Subject Alternative Name: 
                IP Address:127.0.0.1
    Signature Algorithm: sha256WithRSAEncryption
         40:a1:e5:d1:32:55:5c:35:13:b4:fc:80:2d:93:1f:1a:8d:54:
         a0:99:6a:e5:3c:c1:d5:e2:07:5b:7d:79:96:ae:3c:a9:d1:70:
         24:06:16:cc:96:b5:27:8e:36:98:e3:3b:42:b5:9a:fc:94:93:
         d6:fb:f2:e3:b0:75:ca:84:11:40:aa:3a:2a:3b:be:78:fe:15:
         ae:98:78:6d:85:17:b5:de:87:17:4f:5e:49:4b:79:98:38:9d:
         d2:87:ea:61:36:54:99:0b:c0:c4:b2:55:f8:a4:8b:9b:9e:3e:
         b6:b5:d2:56:b2:86:2d:21:bc:8c:1a:64:40:1e:fd:1d:eb:d0:
         41:6e:48:4c:86:96:f6:f3:9b:21:d6:aa:96:19:4a:49:d9:cc:
         8f:5e:b3:11:91:f7:59:a6:46:dd:91:08:01:bc:35:99:6c:2c:
         9d:b2:e2:5f:fb:76:71:de:f7:ea:89:a9:08:c2:d6:fd:8a:72:
         f3:c9:7e:57:b9:8b:fc:38:30:2b:b5:aa:2e:20:be:bb:bd:8f:
         47:77:c8:24:af:0e:ec:be:40:26:61:8e:2e:81:a9:f1:dd:f0:
         9c:45:fd:c7:87:b5:ae:52:90:fa:55:21:e2:50:bc:93:f4:08:
         b8:8a:2b:40:2c:75:ff:70:a6:2e:b7:47:e3:64:e3:51:b0:ca:
         37:13:35:b3
-----BEGIN CERTIFICATE-----
MIIDzjCCAragAwIBAgIQEvbZ8YAbUJ9kCcjqLxYzuDANBgkqhkiG9w0BAQsFADBj
MQswCQYDVQQGEwJVUzETMBEGA1UECAwKQ2FsaWZvcm5pYTEWMBQGA1UEBwwNTW91
bnRhaW4gVmlldzEQMA4GA1UECgwHVGVzdCBDQTEVMBMGA1UEAwwMVGVzdCBSb290
IENBMB4XDTE4MDMwMjAwMDAwMFoXDTIwMDYwNDAwMDAwMVowYDELMAkGA1UEBhMC
VVMxEzARBgNVBAgMCkNhbGlmb3JuaWExFjAUBgNVBAcMDU1vdW50YWluIFZpZXcx
EDAOBgNVBAoMB1Rlc3QgQ0ExEjAQBgNVBAMMCTEyNy4wLjAuMTCCASIwDQYJKoZI
hvcNAQEBBQADggEPADCCAQoCggEBALLPph9TYZA/W7a2diMnyNxew8zTSO3inuLq
VgC3NOdAPMm25GKfilEteDg3RiwvQWCoFFQx6AeIht1A9BZ7dTAGddj5IfPlS6Mi
pwOk2s7imRm+ZAc4P4XqJ2vx2r/NA9X7Xsn/qmAF22iRH3gnwxlSi6+TRytGaQLl
w9Fjewydr4nvxpyClaqmhU84ENvUJaZbfgEtwvbOFF/f7ms+a/SSyz+e6vsbovkI
RuAWOg72nZMYpG3ASVzHAigm6dTZw5IE9NCOwUoj6ZmBXv8/wwUcjPKMqSRtBBto
aQYRxYx/PCn47Nyek/dwC4jsDuObq4nNj1RLBlWZnlK1c0MWXT8CAwEAAaOBgDB+
MAwGA1UdEwEB/wQCMAAwHQYDVR0OBBYEFA7FPJVtLC5nWCj7hY0R8eoWGVOEMB8G
A1UdIwQYMBaAFJsmC4qYqbsduR8c4xpAM+2OF4irMB0GA1UdJQQWMBQGCCsGAQUF
BwMBBggrBgEFBQcDAjAPBgNVHREECDAGhwR/AAABMA0GCSqGSIb3DQEBCwUAA4IB
AQBAoeXRMlVcNRO0/IAtkx8ajVSgmWrlPMHV4gdbfXmWrjyp0XAkBhbMlrUnjjaY
4ztCtZr8lJPW+/LjsHXKhBFAqjoqO754/hWumHhthRe13ocXT15JS3mYOJ3Sh+ph
NlSZC8DEslX4pIubnj62tdJWsoYtIbyMGmRAHv0d69BBbkhMhpb285sh1qqWGUpJ
2cyPXrMRkfdZpkbdkQgBvDWZbCydsuJf+3Zx3vfqiakIwtb9inLzyX5XuYv8ODAr
taouIL67vY9Hd8gkrw7svkAmYY4uganx3fCcRf3Hh7WuUpD6VSHiULyT9Ai4iitA
LHX/cKYut0fjZONRsMo3EzWz
-----END CERTIFICATE-----
