Certificate:
    Data:
        Version: 3 (0x2)
        Serial Number:
            cf:95:70:1c:b6:6c:07:bb:a4:de:63:24:47:3b:4e:d4
        Signature Algorithm: sha256WithRSAEncryption
        Issuer: C=US, ST=California, L=Mountain View, O=Test CA, CN=Test Root CA
        Validity
            Not Before: Mar  2 00:00:00 2018 GMT
            Not After : Jun  4 00:00:00 2020 GMT
        Subject: C=US, ST=California, L=Mountain View, O=Test CA, CN=127.0.0.1
        Subject Public Key Info:
            Public Key Algorithm: rsaEncryption
                Public-Key: (2048 bit)
                Modulus:
                    00:a5:4b:b9:4b:01:6f:07:fe:32:15:dc:c1:f2:d1:
                    5f:ca:51:9f:37:49:32:c4:b3:3a:0a:43:86:71:2a:
                    a6:5b:9a:e1:ab:3f:15:4e:1d:bf:dd:91:05:00:01:
                    57:98:06:e9:21:17:af:a6:00:78:59:68:26:7e:cd:
                    dc:33:2e:84:79:37:62:af:17:d5:af:d6:f4:58:c2:
                    02:0c:44:21:2b:51:95:79:58:d0:61:69:0c:93:98:
                    c6:a6:8b:f4:1e:14:4b:49:2a:c7:42:3e:89:36:a8:
                    25:4f:70:9d:c1:e9:38:cd:b9:12:96:39:2f:0d:a4:
                    a9:1a:4d:9f:bf:46:66:83:5d:1f:6e:1b:fa:be:54:
                    a9:63:c9:d1:a9:bb:ed:68:ed:43:68:5f:93:3c:4e:
                    72:2c:4f:99:b0:46:17:ba:18:0e:19:1b:51:5e:a0:
                    49:cb:35:f6:bf:53:27:48:00:1e:2d:38:ad:ef:b8:
                    83:55:a5:b7:7d:92:4d:e5:3f:d7:7b:fa:94:92:90:
                    86:5f:20:13:c6:5e:db:81:6b:d8:6d:59:2d:2c:ee:
                    c2:21:9f:80:17:35:e0:85:00:9a:11:93:9d:93:18:
                    24:ed:60:fe:00:8f:85:27:a5:2e:8f:d7:0b:f8:49:
                    cb:7f:94:c9:bb:44:17:33:5b:3d:54:0d:2e:cc:bb:
                    15:19
                Exponent: 65537 (0x10001)
        X509v3 extensions:
            X509v3 Basic Constraints: critical
                CA:FALSE
            X509v3 Subject Key Identifier: 
                79:73:A5:6D:98:E9:8D:04:4E:FA:66:59:3A:02:74:BB:66:88:AE:D6
            X509v3 Authority Key Identifier: 
                9B:26:0B:8A:98:A9:BB:1D:B9:1F:1C:E3:1A:40:33:ED:8E:17:88:AB
            X509v3 Extended Key Usage: 
                TLS Web Server Authentication, TLS Web Client Authentication
            X509v3 Subject Alternative Name: 
                IP Address:127.0.0.1
    Signature Algorithm: sha256WithRSAEncryption
    Signature Value:
        32:da:3a:57:d4:d3:d8:b3:33:90:8e:31:62:03:52:3f:2c:75:
        14:03:b3:74:04:f9:d9:78:8d:aa:ce:39:60:0b:1e:c4:56:36:
        0d:15:3a:a8:6b:13:64:14:be:4e:60:08:84:47:41:a7:c5:63:
        f9:2f:36:ed:4a:3d:de:5c:b7:ee:3b:4c:41:0e:5f:fd:cc:4a:
        2e:67:c0:43:d1:17:fc:5c:90:bb:57:dd:99:66:ca:73:9f:20:
        e3:24:c8:cc:d5:da:17:e5:57:4e:1e:34:c9:a0:cd:00:98:d3:
        7e:7f:97:1c:33:94:e6:2d:22:10:80:82:b2:ce:29:16:7f:7c:
        e1:0d:41:ef:97:a3:aa:30:d0:94:5e:a9:2a:f1:d4:53:78:6f:
        de:0d:b4:90:84:78:9c:b3:be:49:80:5f:62:3f:82:52:b6:d8:
        d8:a7:e7:ad:00:51:ea:c1:13:c4:aa:45:19:31:3d:77:ee:0e:
        dc:06:5b:e6:50:d8:3e:86:4a:d5:ce:a4:fc:4b:91:96:9f:a1:
        6e:83:31:a4:1c:9a:41:f9:dd:0f:3a:53:fe:39:a8:97:8a:69:
        f4:7d:8e:6a:5f:48:a2:66:c8:36:49:9b:0f:0b:6d:4c:12:93:
        dc:e9:ea:4e:b9:0e:c2:f1:66:0f:fa:8b:e6:90:bf:32:ac:bb:
        2a:35:0e:ac
-----BEGIN CERTIFICATE-----
MIIDzzCCAregAwIBAgIRAM+VcBy2bAe7pN5jJEc7TtQwDQYJKoZIhvcNAQELBQAw
YzELMAkGA1UEBhMCVVMxEzARBgNVBAgMCkNhbGlmb3JuaWExFjAUBgNVBAcMDU1v
dW50YWluIFZpZXcxEDAOBgNVBAoMB1Rlc3QgQ0ExFTATBgNVBAMMDFRlc3QgUm9v
dCBDQTAeFw0xODAzMDIwMDAwMDBaFw0yMDA2MDQwMDAwMDBaMGAxCzAJBgNVBAYT
AlVTMRMwEQYDVQQIDApDYWxpZm9ybmlhMRYwFAYDVQQHDA1Nb3VudGFpbiBWaWV3
MRAwDgYDVQQKDAdUZXN0IENBMRIwEAYDVQQDDAkxMjcuMC4wLjEwggEiMA0GCSqG
SIb3DQEBAQUAA4IBDwAwggEKAoIBAQClS7lLAW8H/jIV3MHy0V/KUZ83STLEszoK
Q4ZxKqZbmuGrPxVOHb/dkQUAAVeYBukhF6+mAHhZaCZ+zdwzLoR5N2KvF9Wv1vRY
wgIMRCErUZV5WNBhaQyTmMami/QeFEtJKsdCPok2qCVPcJ3B6TjNuRKWOS8NpKka
TZ+/RmaDXR9uG/q+VKljydGpu+1o7UNoX5M8TnIsT5mwRhe6GA4ZG1FeoEnLNfa/
UydIAB4tOK3vuINVpbd9kk3lP9d7+pSSkIZfIBPGXtuBa9htWS0s7sIhn4AXNeCF
AJoRk52TGCTtYP4Aj4UnpS6P1wv4Sct/lMm7RBczWz1UDS7MuxUZAgMBAAGjgYAw
fjAMBgNVHRMBAf8EAjAAMB0GA1UdDgQWBBR5c6VtmOmNBE76Zlk6AnS7Zoiu1jAf
BgNVHSMEGDAWgBSbJguKmKm7HbkfHOMaQDPtjheIqzAdBgNVHSUEFjAUBggrBgEF
BQcDAQYIKwYBBQUHAwIwDwYDVR0RBAgwBocEfwAAATANBgkqhkiG9w0BAQsFAAOC
AQEAMto6V9TT2LMzkI4xYgNSPyx1FAOzdAT52XiNqs45YAsexFY2DRU6qGsTZBS+
TmAIhEdBp8Vj+S827Uo93ly37jtMQQ5f/cxKLmfAQ9EX/FyQu1fdmWbKc58g4yTI
zNXaF+VXTh40yaDNAJjTfn+XHDOU5i0iEICCss4pFn984Q1B75ejqjDQlF6pKvHU
U3hv3g20kIR4nLO+SYBfYj+CUrbY2KfnrQBR6sETxKpFGTE9d+4O3AZb5lDYPoZK
1c6k/EuRlp+hboMxpByaQfndDzpT/jmol4pp9H2Oal9IombINkmbDwttTBKT3Onq
TrkOwvFmD/qL5pC/Mqy7KjUOrA==
-----END CERTIFICATE-----
