Certificate:
    Data:
        Version: 3 (0x2)
        Serial Number:
            b0:6b:93:92:e3:5c:8d:7e:ed:9d:c8:96:59:c5:c2:7b
        Signature Algorithm: sha256WithRSAEncryption
        Issuer: C=US, ST=California, L=Mountain View, O=Test CA, CN=Test Root CA
        Validity
            Not Before: Mar  2 00:00:00 2018 GMT
            Not After : Jun  4 00:00:00 2020 GMT
        Subject: C=US, ST=California, L=Mountain View, O=Test CA, CN=127.0.0.1
        Subject Public Key Info:
            Public Key Algorithm: rsaEncryption
                Public-Key: (2048 bit)
                Modulus:
                    00:9a:39:94:e3:67:d8:e3:a9:27:4d:88:89:70:99:
                    fd:9d:b8:a3:d5:6a:ff:f4:f0:6b:76:4f:d5:b1:a3:
                    6c:9d:10:c1:e6:6c:ac:2e:71:86:b2:e3:91:25:d7:
                    7e:f0:32:55:a4:b5:e2:f8:ac:d2:69:cb:c9:6e:25:
                    12:32:f8:82:5a:8e:2d:46:30:c2:6c:d9:8e:cb:4c:
                    69:1e:e8:c2:1e:8f:94:76:76:6a:c6:8c:a5:e7:b8:
                    8e:79:e5:4b:6a:b1:98:cc:2f:2b:ba:35:6f:63:65:
                    23:1c:6e:c3:9a:65:7f:fa:1e:6e:fe:a0:7d:8f:10:
                    40:b7:30:1e:2e:41:0e:be:3b:8e:1f:ed:da:29:c0:
                    44:63:10:e7:0f:b1:ed:7b:e9:0e:b7:2d:a0:ec:83:
                    19:8e:a4:de:e5:2e:24:f8:4b:b8:92:63:37:ab:67:
                    d7:69:1c:8a:de:1c:d5:e4:59:42:b7:d8:ea:54:64:
                    cc:28:14:47:f6:a4:84:f1:7a:a4:9c:26:a1:95:4f:
                    29:6e:c4:06:6c:b2:4e:9a:c5:ca:c7:ff:e9:6a:d9:
                    bb:95:0c:9b:5e:d1:cf:d2:0c:fc:1c:6a:f5:bb:46:
                    f5:e5:67:4f:2b:f8:a3:3e:3c:74:3c:cf:a8:a1:2d:
                    53:ba:82:e3:f6:67:4c:44:71:1a:79:ff:91:40:41:
                    c7:43
                Exponent: 65537 (0x10001)
        X509v3 extensions:
            X509v3 Basic Constraints: critical
                CA:FALSE
            X509v3 Subject Key Identifier: 
                21:4C:BB:C1:C9:E7:EC:9E:70:89:0F:F4:C5:25:86:86:B0:C8:31:B7
            X509v3 Authority Key Identifier: 
                9B:26:0B:8A:98:A9:BB:1D:B9:1F:1C:E3:1A:40:33:ED:8E:17:88:AB
            X509v3 Extended Key Usage: 
                TLS Web Server Authentication, TLS Web Client Authentication
            X509v3 Subject Alternative Name: 
                IP Address:127.0.0.1
    Signature Algorithm: sha256WithRSAEncryption
    Signature Value:
        68:f9:e3:09:b5:35:6d:e8:fe:00:c8:92:6a:9c:16:c8:99:d4:
        ba:bc:14:89:6c:a9:40:33:0e:33:f8:15:73:62:19:03:37:a1:
        e0:af:ba:d2:9b:06:f9:33:16:c0:38:a8:40:2f:1d:8e:04:55:
        2d:3b:ae:7b:a2:91:9b:50:eb:fa:83:42:ec:ba:9a:7e:54:28:
        4b:95:5e:9d:64:c5:79:59:34:77:c7:d4:e4:c5:65:07:f0:63:
        36:c7:7a:2c:ee:00:75:63:e0:eb:5f:af:5c:41:f3:11:80:63:
        81:85:53:df:72:22:fc:4c:b8:c8:99:dc:86:e3:1e:b6:a9:37:
        de:c9:df:23:30:2b:f3:d8:48:50:ae:40:3f:5a:92:83:64:03:
        41:b9:f7:43:ad:2e:2f:be:7f:60:98:af:92:65:7c:7a:05:6a:
        bd:0a:7d:c4:83:1c:a5:8b:6a:18:c5:17:8c:2d:41:d7:97:29:
        e3:5c:79:07:9d:11:43:c5:09:a5:fa:48:9b:be:39:41:7b:34:
        97:40:e3:84:8b:c7:bb:24:b5:9a:38:47:ca:43:56:ad:52:25:
        22:a8:aa:2e:64:26:a1:71:cf:0b:f0:47:d9:07:f4:cc:16:99:
        b8:17:23:ea:d3:ad:e6:6e:08:e5:85:04:0c:c3:46:66:80:ec:
        28:cf:e1:db
-----BEGIN CERTIFICATE-----
MIIDzzCCAregAwIBAgIRALBrk5LjXI1+7Z3IllnFwnswDQYJKoZIhvcNAQELBQAw
YzELMAkGA1UEBhMCVVMxEzARBgNVBAgMCkNhbGlmb3JuaWExFjAUBgNVBAcMDU1v
dW50YWluIFZpZXcxEDAOBgNVBAoMB1Rlc3QgQ0ExFTATBgNVBAMMDFRlc3QgUm9v
dCBDQTAeFw0xODAzMDIwMDAwMDBaFw0yMDA2MDQwMDAwMDBaMGAxCzAJBgNVBAYT
AlVTMRMwEQYDVQQIDApDYWxpZm9ybmlhMRYwFAYDVQQHDA1Nb3VudGFpbiBWaWV3
MRAwDgYDVQQKDAdUZXN0IENBMRIwEAYDVQQDDAkxMjcuMC4wLjEwggEiMA0GCSqG
SIb3DQEBAQUAA4IBDwAwggEKAoIBAQCaOZTjZ9jjqSdNiIlwmf2duKPVav/08Gt2
T9Wxo2ydEMHmbKwucYay45El137wMlWkteL4rNJpy8luJRIy+IJaji1GMMJs2Y7L
TGke6MIej5R2dmrGjKXnuI555UtqsZjMLyu6NW9jZSMcbsOaZX/6Hm7+oH2PEEC3
MB4uQQ6+O44f7dopwERjEOcPse176Q63LaDsgxmOpN7lLiT4S7iSYzerZ9dpHIre
HNXkWUK32OpUZMwoFEf2pITxeqScJqGVTyluxAZssk6axcrH/+lq2buVDJte0c/S
DPwcavW7RvXlZ08r+KM+PHQ8z6ihLVO6guP2Z0xEcRp5/5FAQcdDAgMBAAGjgYAw
fjAMBgNVHRMBAf8EAjAAMB0GA1UdDgQWBBQhTLvByefsnnCJD/TFJYaGsMgxtzAf
BgNVHSMEGDAWgBSbJguKmKm7HbkfHOMaQDPtjheIqzAdBgNVHSUEFjAUBggrBgEF
BQcDAQYIKwYBBQUHAwIwDwYDVR0RBAgwBocEfwAAATANBgkqhkiG9w0BAQsFAAOC
AQEAaPnjCbU1bej+AMiSapwWyJnUurwUiWypQDMOM/gVc2IZAzeh4K+60psG+TMW
wDioQC8djgRVLTuue6KRm1Dr+oNC7LqaflQoS5VenWTFeVk0d8fU5MVlB/BjNsd6
LO4AdWPg61+vXEHzEYBjgYVT33Ii/Ey4yJnchuMetqk33snfIzAr89hIUK5AP1qS
g2QDQbn3Q60uL75/YJivkmV8egVqvQp9xIMcpYtqGMUXjC1B15cp41x5B50RQ8UJ
pfpIm745QXs0l0DjhIvHuyS1mjhHykNWrVIlIqiqLmQmoXHPC/BH2Qf0zBaZuBcj
6tOt5m4I5YUEDMNGZoDsKM/h2w==
-----END CERTIFICATE-----
