Certificate:
    Data:
        Version: 3 (0x2)
        Serial Number:
            12:f6:d9:f1:80:1b:50:9f:64:09:c8:ea:2f:16:33:b6
        Signature Algorithm: sha256WithRSAEncryption
        Issuer: C=US, ST=California, L=Mountain View, O=Test CA, CN=Test Root CA
        Validity
            Not Before: Mar  2 00:00:00 2018 GMT
            Not After : Jun  5 00:00:00 2020 GMT
        Subject: C=US, ST=California, L=Mountain View, O=Test CA, CN=127.0.0.1
        Subject Public Key Info:
            Public Key Algorithm: rsaEncryption
                RSA Public-Key: (2048 bit)
                Modulus:
                    00:d8:c8:15:7a:a1:22:bf:45:1f:53:e9:21:a9:98:
                    c4:a4:dd:be:a9:a6:6c:0c:f1:f1:be:2e:f7:dc:7f:
                    0e:bc:02:51:d8:61:08:8a:c1:94:a8:d9:5d:b0:ba:
                    f2:9b:d8:ec:e5:7d:4e:67:4a:d0:f3:20:00:ce:33:
                    1c:88:f7:c5:2b:9b:56:fb:6c:4b:c4:27:43:8a:ee:
                    e6:04:e2:50:81:52:34:29:b0:13:54:d6:73:1c:22:
                    ca:d5:c1:8e:83:c5:c7:32:14:ad:af:fa:42:96:1c:
                    ac:58:48:33:7a:eb:35:b4:7b:e8:f3:b5:a9:26:5d:
                    b8:7a:da:0a:62:56:f8:5c:99:26:a3:52:d7:1d:7e:
                    bc:4c:46:67:e9:bd:d7:07:15:0c:3a:51:fe:4c:0c:
                    7f:cd:fb:57:b9:07:ee:08:00:44:6f:be:ce:b7:1a:
                    86:5f:58:56:1c:73:ff:1a:05:be:80:f2:e4:a7:ae:
                    11:51:2b:6e:2b:25:70:76:06:da:9b:42:a7:77:98:
                    f3:62:ea:22:5f:8d:3e:03:28:66:18:57:b2:b2:84:
                    32:44:98:ed:f0:cd:2c:ea:b8:05:11:68:8c:70:30:
                    12:b6:67:92:99:d1:98:7c:fb:40:02:60:28:f7:94:
                    aa:55:f8:54:20:51:03:8a:13:89:64:2d:3d:35:d4:
                    46:51
                Exponent: 65537 (0x10001)
        X509v3 extensions:
            X509v3 Basic Constraints: critical
                CA:FALSE
            X509v3 Subject Key Identifier: 
                FC:51:FB:45:0A:88:70:94:39:91:00:3E:A8:75:A4:40:11:2A:B6:47
            X509v3 Authority Key Identifier: 
                keyid:9B:26:0B:8A:98:A9:BB:1D:B9:1F:1C:E3:1A:40:33:ED:8E:17:88:AB

            X509v3 Extended Key Usage: 
                TLS Web Server Authentication, TLS Web Client Authentication
            X509v3 Subject Alternative Name: 
                IP Address:127.0.0.1
    Signature Algorithm: sha256WithRSAEncryption
         50:59:7a:a8:e0:68:e0:33:c1:0a:44:fa:28:e0:3d:a7:0b:de:
         3f:45:fc:ba:b7:f2:e5:20:13:74:ec:53:56:6e:6f:c4:e5:f1:
         c0:84:74:91:07:32:9e:12:73:d3:6a:0f:e7:42:47:36:57:3d:
         10:19:2e:2c:18:a4:12:07:1d:40:4f:f6:3c:d7:8e:2f:d6:d2:
         94:90:d0:c0:52:86:41:ef:b3:11:d3:a8:46:1f:3b:ed:04:2a:
         bc:aa:14:c2:5c:c3:f2:78:b0:65:ff:c1:e6:07:4c:d6:07:96:
         69:ec:20:44:2a:ee:5e:9d:94:fc:af:eb:60:5d:37:1d:25:fb:
         d5:ae:5f:b4:cf:e7:a5:50:fd:fc:72:4d:6d:eb:93:e5:bc:30:
         eb:5b:3a:c8:d6:9e:98:db:80:d1:46:63:d9:f8:ac:47:2d:bb:
         d7:f3:36:5b:1b:cb:a7:0b:2e:59:90:10:b1:77:44:32:0e:55:
         78:1b:9d:11:57:9f:6c:28:96:55:5d:f7:81:6e:ff:74:3b:36:
         6e:3a:42:e3:af:51:b2:e0:29:63:07:39:e1:43:e3:65:a8:da:
         0a:ca:70:9a:c5:52:bf:e8:ec:5e:da:57:16:8f:1b:0e:54:b1:
         0a:a1:cf:23:9a:48:ea:78:1e:ee:08:27:c7:83:6d:80:fa:26:
         f6:85:0c:37
-----BEGIN CERTIFICATE-----
MIIDzjCCAragAwIBAgIQEvbZ8YAbUJ9kCcjqLxYztjANBgkqhkiG9w0BAQsFADBj
MQswCQYDVQQGEwJVUzETMBEGA1UECAwKQ2FsaWZvcm5pYTEWMBQGA1UEBwwNTW91
bnRhaW4gVmlldzEQMA4GA1UECgwHVGVzdCBDQTEVMBMGA1UEAwwMVGVzdCBSb290
IENBMB4XDTE4MDMwMjAwMDAwMFoXDTIwMDYwNTAwMDAwMFowYDELMAkGA1UEBhMC
VVMxEzARBgNVBAgMCkNhbGlmb3JuaWExFjAUBgNVBAcMDU1vdW50YWluIFZpZXcx
EDAOBgNVBAoMB1Rlc3QgQ0ExEjAQBgNVBAMMCTEyNy4wLjAuMTCCASIwDQYJKoZI
hvcNAQEBBQADggEPADCCAQoCggEBANjIFXqhIr9FH1PpIamYxKTdvqmmbAzx8b4u
99x/DrwCUdhhCIrBlKjZXbC68pvY7OV9TmdK0PMgAM4zHIj3xSubVvtsS8QnQ4ru
5gTiUIFSNCmwE1TWcxwiytXBjoPFxzIUra/6QpYcrFhIM3rrNbR76PO1qSZduHra
CmJW+FyZJqNS1x1+vExGZ+m91wcVDDpR/kwMf837V7kH7ggARG++zrcahl9YVhxz
/xoFvoDy5KeuEVErbislcHYG2ptCp3eY82LqIl+NPgMoZhhXsrKEMkSY7fDNLOq4
BRFojHAwErZnkpnRmHz7QAJgKPeUqlX4VCBRA4oTiWQtPTXURlECAwEAAaOBgDB+
MAwGA1UdEwEB/wQCMAAwHQYDVR0OBBYEFPxR+0UKiHCUOZEAPqh1pEARKrZHMB8G
A1UdIwQYMBaAFJsmC4qYqbsduR8c4xpAM+2OF4irMB0GA1UdJQQWMBQGCCsGAQUF
BwMBBggrBgEFBQcDAjAPBgNVHREECDAGhwR/AAABMA0GCSqGSIb3DQEBCwUAA4IB
AQBQWXqo4GjgM8EKRPoo4D2nC94/Rfy6t/LlIBN07FNWbm/E5fHAhHSRBzKeEnPT
ag/nQkc2Vz0QGS4sGKQSBx1AT/Y8144v1tKUkNDAUoZB77MR06hGHzvtBCq8qhTC
XMPyeLBl/8HmB0zWB5Zp7CBEKu5enZT8r+tgXTcdJfvVrl+0z+elUP38ck1t65Pl
vDDrWzrI1p6Y24DRRmPZ+KxHLbvX8zZbG8unCy5ZkBCxd0QyDlV4G50RV59sKJZV
XfeBbv90OzZuOkLjr1Gy4CljBznhQ+NlqNoKynCaxVK/6Oxe2lcWjxsOVLEKoc8j
mkjqeB7uCCfHg22A+ib2hQw3
-----END CERTIFICATE-----
