Certificate:
    Data:
        Version: 3 (0x2)
        Serial Number:
            3e:2c:9d:be:b0:42:c8:cf:fc:99:42:d5:4d:41:6a:b7
        Signature Algorithm: sha256WithRSAEncryption
        Issuer: C=US, ST=California, L=Mountain View, O=Test CA, CN=Test Root CA
        Validity
            Not Before: Mar  2 00:00:00 2018 GMT
            Not After : Jun  5 00:00:00 2020 GMT
        Subject: C=US, ST=California, L=Mountain View, O=Test CA, CN=127.0.0.1
        Subject Public Key Info:
            Public Key Algorithm: rsaEncryption
                RSA Public-Key: (2048 bit)
                Modulus:
                    00:a4:a0:d8:9f:7e:c5:40:3f:86:4d:96:b5:77:01:
                    ab:1b:6c:de:dd:43:e9:86:5c:24:71:7e:07:d7:20:
                    a8:eb:31:f1:2b:8d:9a:0a:ed:a6:82:b8:0b:7b:31:
                    e7:f2:11:b7:b7:1d:e1:b1:05:8a:8e:d8:72:19:57:
                    01:f0:e6:94:aa:0a:c7:f1:c1:eb:49:3c:2c:a7:39:
                    21:51:5e:4c:d1:d0:76:ad:4d:d9:82:c8:5e:82:ee:
                    38:bb:36:84:57:9f:a8:9f:e6:41:0d:97:36:61:96:
                    87:e4:c3:ed:eb:58:f3:c1:0f:f1:9e:9c:89:7d:dc:
                    16:05:7e:a8:d0:4b:72:64:a8:65:f4:47:77:ea:bd:
                    28:ec:57:0b:11:25:4c:c2:5e:de:cf:77:94:78:93:
                    53:83:74:33:3e:37:23:27:a5:6e:89:6a:86:4e:6c:
                    79:df:44:c3:99:fc:99:e3:2b:1d:a1:9e:16:28:42:
                    63:d4:0a:73:1b:05:81:dc:7a:16:7b:7c:7e:aa:d2:
                    83:c2:67:03:dd:88:ba:b5:9c:05:9c:ec:df:84:98:
                    d6:34:4d:58:ba:fc:32:4d:9c:95:0e:35:76:52:3c:
                    4c:ff:9d:6d:f2:aa:3b:56:77:66:f8:da:c3:c6:28:
                    9e:45:56:4c:54:75:65:a9:cd:e4:2a:73:7a:8c:19:
                    23:51
                Exponent: 65537 (0x10001)
        X509v3 extensions:
            X509v3 Basic Constraints: critical
                CA:FALSE
            X509v3 Subject Key Identifier: 
                62:3F:A7:B2:91:44:A4:AB:9D:89:48:C1:B9:5D:DA:2B:4B:F4:76:56
            X509v3 Authority Key Identifier: 
                keyid:9B:26:0B:8A:98:A9:BB:1D:B9:1F:1C:E3:1A:40:33:ED:8E:17:88:AB

            X509v3 Extended Key Usage: 
                TLS Web Server Authentication, TLS Web Client Authentication
            X509v3 Subject Alternative Name: 
                IP Address:127.0.0.1
    Signature Algorithm: sha256WithRSAEncryption
         1d:a7:66:71:92:5c:d7:57:7e:98:f9:4b:c9:87:e8:24:a0:cd:
         34:ad:95:3b:c2:4b:e5:ae:f3:cd:45:b5:e5:a4:15:13:3e:7e:
         3d:5e:0c:f7:95:b5:c5:9f:6d:0b:bc:95:08:f7:23:ed:a2:43:
         45:9c:48:03:49:ed:81:f7:68:90:a6:f4:29:bc:c5:30:7e:59:
         27:3b:c8:08:5b:ff:48:3e:b3:c4:6b:5e:4b:e8:ec:4e:e4:ce:
         c3:84:ca:c9:2d:8a:ed:1c:51:3d:b5:20:20:1e:88:ca:22:c6:
         64:b2:6f:c5:a5:e4:da:8d:14:98:60:e7:22:41:b8:29:f8:ef:
         fe:5b:05:8c:55:6a:0c:d3:45:25:a8:6d:24:24:f1:28:e3:40:
         48:1f:71:40:b6:85:c4:62:07:10:0a:9b:92:20:4b:42:9c:26:
         f2:37:14:74:ee:a8:b5:f5:db:14:83:be:07:71:ba:b3:91:b6:
         47:b2:57:1f:b5:25:95:d7:6d:4e:a4:78:5a:5a:23:3f:30:54:
         0f:b5:0f:9b:23:e7:5f:29:50:1e:b9:e3:af:71:06:70:36:2b:
         4a:4b:52:ef:b6:db:38:a8:93:85:5f:78:a1:8a:22:b7:dc:4a:
         fe:49:1a:59:31:b0:5e:3d:6c:c1:f5:e1:a3:c1:3a:28:3f:a7:
         c6:b0:c4:f4
-----BEGIN CERTIFICATE-----
MIIDzjCCAragAwIBAgIQPiydvrBCyM/8mULVTUFqtzANBgkqhkiG9w0BAQsFADBj
MQswCQYDVQQGEwJVUzETMBEGA1UECAwKQ2FsaWZvcm5pYTEWMBQGA1UEBwwNTW91
bnRhaW4gVmlldzEQMA4GA1UECgwHVGVzdCBDQTEVMBMGA1UEAwwMVGVzdCBSb290
IENBMB4XDTE4MDMwMjAwMDAwMFoXDTIwMDYwNTAwMDAwMFowYDELMAkGA1UEBhMC
VVMxEzARBgNVBAgMCkNhbGlmb3JuaWExFjAUBgNVBAcMDU1vdW50YWluIFZpZXcx
EDAOBgNVBAoMB1Rlc3QgQ0ExEjAQBgNVBAMMCTEyNy4wLjAuMTCCASIwDQYJKoZI
hvcNAQEBBQADggEPADCCAQoCggEBAKSg2J9+xUA/hk2WtXcBqxts3t1D6YZcJHF+
B9cgqOsx8SuNmgrtpoK4C3sx5/IRt7cd4bEFio7YchlXAfDmlKoKx/HB60k8LKc5
IVFeTNHQdq1N2YLIXoLuOLs2hFefqJ/mQQ2XNmGWh+TD7etY88EP8Z6ciX3cFgV+
qNBLcmSoZfRHd+q9KOxXCxElTMJe3s93lHiTU4N0Mz43Iyelbolqhk5sed9Ew5n8
meMrHaGeFihCY9QKcxsFgdx6Fnt8fqrSg8JnA92IurWcBZzs34SY1jRNWLr8Mk2c
lQ41dlI8TP+dbfKqO1Z3Zvjaw8YonkVWTFR1ZanN5CpzeowZI1ECAwEAAaOBgDB+
MAwGA1UdEwEB/wQCMAAwHQYDVR0OBBYEFGI/p7KRRKSrnYlIwbld2itL9HZWMB8G
A1UdIwQYMBaAFJsmC4qYqbsduR8c4xpAM+2OF4irMB0GA1UdJQQWMBQGCCsGAQUF
BwMBBggrBgEFBQcDAjAPBgNVHREECDAGhwR/AAABMA0GCSqGSIb3DQEBCwUAA4IB
AQAdp2ZxklzXV36Y+UvJh+gkoM00rZU7wkvlrvPNRbXlpBUTPn49Xgz3lbXFn20L
vJUI9yPtokNFnEgDSe2B92iQpvQpvMUwflknO8gIW/9IPrPEa15L6OxO5M7DhMrJ
LYrtHFE9tSAgHojKIsZksm/FpeTajRSYYOciQbgp+O/+WwWMVWoM00UlqG0kJPEo
40BIH3FAtoXEYgcQCpuSIEtCnCbyNxR07qi19dsUg74HcbqzkbZHslcftSWV121O
pHhaWiM/MFQPtQ+bI+dfKVAeueOvcQZwNitKS1Lvtts4qJOFX3ihiiK33Er+SRpZ
MbBePWzB9eGjwTooP6fGsMT0
-----END CERTIFICATE-----
