Certificate:
    Data:
        Version: 3 (0x2)
        Serial Number:
            b0:6b:93:92:e3:5c:8d:7e:ed:9d:c8:96:59:c5:c2:7a
        Signature Algorithm: sha256WithRSAEncryption
        Issuer: C=US, ST=California, L=Mountain View, O=Test CA, CN=Test Root CA
        Validity
            Not Before: Mar  2 00:00:00 2018 GMT
            Not After : Jun  5 00:00:00 2020 GMT
        Subject: C=US, ST=California, L=Mountain View, O=Test CA, CN=127.0.0.1
        Subject Public Key Info:
            Public Key Algorithm: rsaEncryption
                Public-Key: (2048 bit)
                Modulus:
                    00:c6:48:5e:83:86:48:ec:31:7d:cc:2c:20:88:c3:
                    5e:36:b5:bd:ba:4a:ed:1b:08:4c:30:4f:7c:f0:db:
                    7f:c8:8a:31:ee:b5:58:18:8f:05:f5:85:fd:e0:e0:
                    9c:3a:40:de:45:31:5f:94:1a:f7:67:26:9d:21:94:
                    1f:73:96:30:0e:91:0c:96:2e:3f:40:9c:40:76:8e:
                    27:de:23:24:a9:9f:6e:69:30:22:a7:62:ee:0f:72:
                    5a:bb:1a:08:c8:49:f0:5b:53:e2:6a:e6:3e:5a:88:
                    73:6d:03:c2:ec:43:8f:f2:dd:30:5f:b3:69:e6:7d:
                    21:0c:a4:50:0a:78:3d:ba:2f:9f:dc:eb:a9:74:40:
                    54:46:ef:c7:49:fc:24:25:ee:e9:18:3a:0d:37:86:
                    90:5c:19:2b:17:4c:93:d2:11:45:78:20:c5:2b:ac:
                    8c:23:d9:fe:2a:a5:3d:72:f0:a8:0d:29:76:23:73:
                    a8:a7:c8:ed:e1:52:4c:b9:ba:0a:ce:e5:07:e2:30:
                    26:d2:07:8d:27:02:08:bd:41:6a:0f:bf:3f:43:11:
                    fa:17:01:0e:b1:b0:7b:df:8a:63:3d:59:41:6e:0f:
                    f5:53:cb:f9:be:ac:c4:a6:c3:6a:19:0b:36:38:ce:
                    34:e3:9f:36:de:ed:bd:4a:d7:75:34:2a:b6:ed:53:
                    7b:5d
                Exponent: 65537 (0x10001)
        X509v3 extensions:
            X509v3 Basic Constraints: critical
                CA:FALSE
            X509v3 Subject Key Identifier: 
                56:75:5B:1E:72:EB:8C:14:EE:D6:78:E4:67:7B:7D:2D:D0:8F:6D:A1
            X509v3 Authority Key Identifier: 
                9B:26:0B:8A:98:A9:BB:1D:B9:1F:1C:E3:1A:40:33:ED:8E:17:88:AB
            X509v3 Extended Key Usage: 
                TLS Web Server Authentication, TLS Web Client Authentication
            X509v3 Subject Alternative Name: 
                IP Address:127.0.0.1
    Signature Algorithm: sha256WithRSAEncryption
    Signature Value:
        3c:6f:26:8e:d6:8c:6b:01:bf:b0:8c:fc:06:9f:8c:b7:03:50:
        6d:45:42:de:e7:d0:a0:75:f2:b8:7e:12:13:96:9c:27:c1:ee:
        6e:b3:48:23:5b:1b:51:45:e7:89:71:62:de:4c:df:66:d3:81:
        87:64:72:55:d3:ec:da:3d:bb:5c:92:8a:1f:73:fa:5b:bb:b8:
        83:a9:52:b2:ce:4a:f7:19:68:f5:df:2b:cd:47:07:b7:75:4f:
        68:15:63:db:25:d3:6a:80:48:92:f2:e2:d4:9f:ae:73:86:c6:
        85:c9:35:66:65:8e:c4:b2:79:ea:64:ca:d2:d3:73:09:b9:22:
        d5:b7:2a:28:d9:82:e4:85:cb:c8:82:1b:6c:95:80:62:18:21:
        a7:2d:ae:8f:06:09:80:10:24:48:e0:2a:d5:4d:62:00:3e:ed:
        2c:7c:1e:9d:80:84:b1:de:3a:ab:95:78:b3:65:3a:1d:16:4f:
        82:b1:63:96:4c:75:3e:2a:0c:26:fc:60:fd:4c:b0:06:36:9a:
        1d:47:4a:51:47:b0:19:3c:79:f5:93:97:24:61:79:91:fe:7e:
        72:c6:cb:0a:74:00:a5:d2:ad:b8:bd:b3:45:0d:80:65:53:e5:
        90:98:14:d2:4b:b3:70:e1:96:c2:bf:7a:1b:66:ce:d4:e7:ae:
        8c:51:bc:c6
-----BEGIN CERTIFICATE-----
MIIDzzCCAregAwIBAgIRALBrk5LjXI1+7Z3IllnFwnowDQYJKoZIhvcNAQELBQAw
YzELMAkGA1UEBhMCVVMxEzARBgNVBAgMCkNhbGlmb3JuaWExFjAUBgNVBAcMDU1v
dW50YWluIFZpZXcxEDAOBgNVBAoMB1Rlc3QgQ0ExFTATBgNVBAMMDFRlc3QgUm9v
dCBDQTAeFw0xODAzMDIwMDAwMDBaFw0yMDA2MDUwMDAwMDBaMGAxCzAJBgNVBAYT
AlVTMRMwEQYDVQQIDApDYWxpZm9ybmlhMRYwFAYDVQQHDA1Nb3VudGFpbiBWaWV3
MRAwDgYDVQQKDAdUZXN0IENBMRIwEAYDVQQDDAkxMjcuMC4wLjEwggEiMA0GCSqG
SIb3DQEBAQUAA4IBDwAwggEKAoIBAQDGSF6DhkjsMX3MLCCIw142tb26Su0bCEww
T3zw23/IijHutVgYjwX1hf3g4Jw6QN5FMV+UGvdnJp0hlB9zljAOkQyWLj9AnEB2
jifeIySpn25pMCKnYu4Pclq7GgjISfBbU+Jq5j5aiHNtA8LsQ4/y3TBfs2nmfSEM
pFAKeD26L5/c66l0QFRG78dJ/CQl7ukYOg03hpBcGSsXTJPSEUV4IMUrrIwj2f4q
pT1y8KgNKXYjc6inyO3hUky5ugrO5QfiMCbSB40nAgi9QWoPvz9DEfoXAQ6xsHvf
imM9WUFuD/VTy/m+rMSmw2oZCzY4zjTjnzbe7b1K13U0KrbtU3tdAgMBAAGjgYAw
fjAMBgNVHRMBAf8EAjAAMB0GA1UdDgQWBBRWdVsecuuMFO7WeORne30t0I9toTAf
BgNVHSMEGDAWgBSbJguKmKm7HbkfHOMaQDPtjheIqzAdBgNVHSUEFjAUBggrBgEF
BQcDAQYIKwYBBQUHAwIwDwYDVR0RBAgwBocEfwAAATANBgkqhkiG9w0BAQsFAAOC
AQEAPG8mjtaMawG/sIz8Bp+MtwNQbUVC3ufQoHXyuH4SE5acJ8HubrNII1sbUUXn
iXFi3kzfZtOBh2RyVdPs2j27XJKKH3P6W7u4g6lSss5K9xlo9d8rzUcHt3VPaBVj
2yXTaoBIkvLi1J+uc4bGhck1ZmWOxLJ56mTK0tNzCbki1bcqKNmC5IXLyIIbbJWA
Yhghpy2ujwYJgBAkSOAq1U1iAD7tLHwenYCEsd46q5V4s2U6HRZPgrFjlkx1PioM
Jvxg/UywBjaaHUdKUUewGTx59ZOXJGF5kf5+csbLCnQApdKtuL2zRQ2AZVPlkJgU
0kuzcOGWwr96G2bO1OeujFG8xg==
-----END CERTIFICATE-----
