Certificate:
    Data:
        Version: 3 (0x2)
        Serial Number:
            cf:95:70:1c:b6:6c:07:bb:a4:de:63:24:47:3b:4e:d3
        Signature Algorithm: sha256WithRSAEncryption
        Issuer: C=US, ST=California, L=Mountain View, O=Test CA, CN=Test Root CA
        Validity
            Not Before: Mar  2 00:00:00 2018 GMT
            Not After : Jun  5 00:00:00 2020 GMT
        Subject: C=US, ST=California, L=Mountain View, O=Test CA, CN=127.0.0.1
        Subject Public Key Info:
            Public Key Algorithm: rsaEncryption
                Public-Key: (2048 bit)
                Modulus:
                    00:b9:16:9c:a2:5c:a9:0c:ae:d4:14:61:d7:ec:50:
                    f8:33:db:ad:cb:a6:df:fd:2e:6d:2a:97:18:36:60:
                    cd:13:e9:57:5b:ea:89:44:58:d8:0c:9d:89:20:9a:
                    fa:1c:09:62:3e:7e:85:ce:a4:03:e4:29:5c:96:f7:
                    b3:ab:4d:82:61:1b:62:de:8a:13:dd:50:be:d5:24:
                    7e:2c:0d:c6:75:43:b3:2b:03:96:f8:bc:ed:90:36:
                    ed:a4:90:75:86:b5:7c:2f:00:ed:ff:bc:a7:4a:df:
                    bf:7f:af:d2:21:26:71:fd:82:85:8b:ed:f7:89:ea:
                    bd:55:2b:ae:87:9a:57:dc:b7:ac:15:f4:17:d0:d7:
                    d7:a3:b7:f7:4e:42:b4:c3:09:35:e8:bb:c3:a8:75:
                    7a:59:ab:bc:e7:62:12:51:98:55:7a:ad:09:ff:97:
                    f3:f0:8c:9e:4d:45:98:ca:8b:1a:39:33:87:49:00:
                    2d:2e:09:20:b0:82:72:50:ce:f0:5d:81:02:e6:a8:
                    f4:f8:5f:c8:1f:be:14:b2:f8:14:0a:a5:2c:86:54:
                    bf:b5:34:38:3d:eb:e9:1f:77:33:92:31:ac:6c:b3:
                    67:15:05:30:d5:e7:cb:fb:70:59:91:bf:96:96:78:
                    17:47:b7:e3:e7:57:87:f3:e1:dc:a7:bb:f6:b6:8a:
                    0f:b5
                Exponent: 65537 (0x10001)
        X509v3 extensions:
            X509v3 Basic Constraints: critical
                CA:FALSE
            X509v3 Subject Key Identifier: 
                15:04:54:86:1A:66:ED:E0:92:1D:5A:11:03:07:C8:93:CE:6C:49:B8
            X509v3 Authority Key Identifier: 
                9B:26:0B:8A:98:A9:BB:1D:B9:1F:1C:E3:1A:40:33:ED:8E:17:88:AB
            X509v3 Extended Key Usage: 
                TLS Web Server Authentication, TLS Web Client Authentication
            X509v3 Subject Alternative Name: 
                IP Address:127.0.0.1
    Signature Algorithm: sha256WithRSAEncryption
    Signature Value:
        18:93:1d:dd:bf:aa:97:c0:d9:c5:2a:f1:e9:b7:bf:70:7c:96:
        c3:25:e2:5d:82:8b:fb:b3:d6:9e:47:96:18:b0:6e:bd:87:de:
        0a:0e:67:cb:9d:aa:7e:d3:d8:4d:5b:07:84:ea:b0:ec:f5:71:
        eb:e7:ea:72:d2:aa:fa:3e:4b:21:27:ee:d7:57:73:84:16:59:
        0f:a7:71:af:7b:e9:38:a2:7b:23:99:86:b0:68:32:02:5e:8b:
        23:91:aa:db:a7:83:62:7b:d9:a0:92:97:37:31:6b:fd:78:ef:
        9e:db:af:2f:22:cb:db:e2:40:6a:3d:e2:e7:60:c0:f4:c5:4f:
        1d:ae:a8:f9:79:58:24:4f:ca:cb:da:3d:a5:48:19:33:6f:f6:
        bd:dd:e4:99:4e:0c:3e:a1:b3:d2:02:00:81:5a:e5:3a:e7:20:
        0a:aa:49:e2:44:0f:6f:fd:e8:b0:e0:fc:38:44:a5:94:bc:29:
        39:15:a4:36:72:d3:7a:12:5e:99:b4:3b:d6:0f:4f:cb:99:e0:
        5f:e5:23:dc:71:d3:a0:2d:c2:7c:26:a1:42:3f:20:09:c4:10:
        e1:94:8c:54:de:de:20:43:0d:32:dd:44:14:41:3e:15:11:70:
        78:04:35:80:d8:05:dc:3e:c4:bb:2e:77:d7:bf:aa:f9:e3:0f:
        62:65:bf:0f
-----BEGIN CERTIFICATE-----
MIIDzzCCAregAwIBAgIRAM+VcBy2bAe7pN5jJEc7TtMwDQYJKoZIhvcNAQELBQAw
YzELMAkGA1UEBhMCVVMxEzARBgNVBAgMCkNhbGlmb3JuaWExFjAUBgNVBAcMDU1v
dW50YWluIFZpZXcxEDAOBgNVBAoMB1Rlc3QgQ0ExFTATBgNVBAMMDFRlc3QgUm9v
dCBDQTAeFw0xODAzMDIwMDAwMDBaFw0yMDA2MDUwMDAwMDBaMGAxCzAJBgNVBAYT
AlVTMRMwEQYDVQQIDApDYWxpZm9ybmlhMRYwFAYDVQQHDA1Nb3VudGFpbiBWaWV3
MRAwDgYDVQQKDAdUZXN0IENBMRIwEAYDVQQDDAkxMjcuMC4wLjEwggEiMA0GCSqG
SIb3DQEBAQUAA4IBDwAwggEKAoIBAQC5FpyiXKkMrtQUYdfsUPgz263Lpt/9Lm0q
lxg2YM0T6Vdb6olEWNgMnYkgmvocCWI+foXOpAPkKVyW97OrTYJhG2LeihPdUL7V
JH4sDcZ1Q7MrA5b4vO2QNu2kkHWGtXwvAO3/vKdK379/r9IhJnH9goWL7feJ6r1V
K66Hmlfct6wV9BfQ19ejt/dOQrTDCTXou8OodXpZq7znYhJRmFV6rQn/l/PwjJ5N
RZjKixo5M4dJAC0uCSCwgnJQzvBdgQLmqPT4X8gfvhSy+BQKpSyGVL+1NDg96+kf
dzOSMaxss2cVBTDV58v7cFmRv5aWeBdHt+PnV4fz4dynu/a2ig+1AgMBAAGjgYAw
fjAMBgNVHRMBAf8EAjAAMB0GA1UdDgQWBBQVBFSGGmbt4JIdWhEDB8iTzmxJuDAf
BgNVHSMEGDAWgBSbJguKmKm7HbkfHOMaQDPtjheIqzAdBgNVHSUEFjAUBggrBgEF
BQcDAQYIKwYBBQUHAwIwDwYDVR0RBAgwBocEfwAAATANBgkqhkiG9w0BAQsFAAOC
AQEAGJMd3b+ql8DZxSrx6be/cHyWwyXiXYKL+7PWnkeWGLBuvYfeCg5ny52qftPY
TVsHhOqw7PVx6+fqctKq+j5LISfu11dzhBZZD6dxr3vpOKJ7I5mGsGgyAl6LI5Gq
26eDYnvZoJKXNzFr/XjvntuvLyLL2+JAaj3i52DA9MVPHa6o+XlYJE/Ky9o9pUgZ
M2/2vd3kmU4MPqGz0gIAgVrlOucgCqpJ4kQPb/3osOD8OESllLwpORWkNnLTehJe
mbQ71g9Py5ngX+Uj3HHToC3CfCahQj8gCcQQ4ZSMVN7eIEMNMt1EFEE+FRFweAQ1
gNgF3D7Euy5317+q+eMPYmW/Dw==
-----END CERTIFICATE-----
