Certificate:
    Data:
        Version: 3 (0x2)
        Serial Number:
            b0:6b:93:92:e3:5c:8d:7e:ed:9d:c8:96:59:c5:c2:86
        Signature Algorithm: sha256WithRSAEncryption
        Issuer: C=US, ST=California, L=Mountain View, O=Test CA, CN=Test Root CA
        Validity
            Not Before: Oct  3 17:20:31 2022 GMT
            Not After : Mar 21 17:20:31 2025 GMT
        Subject: C=US, ST=California, L=Mountain View, O=Test CA, CN=127.0.0.1
        Subject Public Key Info:
            Public Key Algorithm: rsaEncryption
                Public-Key: (2048 bit)
                Modulus:
                    00:c5:28:61:1e:94:d2:ed:5e:b3:fb:6c:35:e1:c5:
                    1c:bb:78:67:d7:11:55:1c:38:db:67:4d:84:fa:39:
                    73:81:ff:73:e4:10:a5:df:f4:21:43:14:c8:9f:4e:
                    f0:a7:45:82:2b:2c:79:34:df:db:3c:d0:07:fd:33:
                    eb:8a:be:49:dd:cf:22:7f:11:37:3f:3c:e3:be:fb:
                    ba:a0:b1:45:b4:bd:7c:d9:5b:7b:58:75:3e:fc:b8:
                    9f:44:4f:cf:97:bf:70:1c:42:8b:1c:77:07:1e:5f:
                    47:a8:78:5b:9f:0b:60:db:9b:58:63:81:db:1a:f1:
                    37:bb:de:91:09:05:b0:3b:f2:e4:d9:a6:62:4b:ac:
                    29:91:6e:04:c9:3d:85:8f:57:d6:d9:b6:be:fe:7a:
                    c8:e6:40:89:99:a4:c7:58:94:75:59:03:d8:bc:b1:
                    8e:f0:d2:34:d7:c0:15:63:5c:bd:00:68:c1:2b:f4:
                    a6:c4:0d:94:df:38:cb:22:75:0c:2a:82:23:0e:13:
                    82:76:bb:ff:73:66:c8:9c:b7:55:92:68:a4:04:73:
                    92:ac:69:9c:3c:69:29:19:ad:57:e4:a9:59:c5:5d:
                    eb:ca:ba:6c:e2:86:01:6b:5c:ae:dc:35:c7:37:67:
                    19:67:ee:37:f1:41:98:bd:02:54:87:f6:0a:c0:fd:
                    82:9b
                Exponent: 65537 (0x10001)
        X509v3 extensions:
            X509v3 Basic Constraints: critical
                CA:FALSE
            X509v3 Subject Key Identifier: 
                84:86:46:35:36:B9:69:FE:CE:F1:0D:AF:A7:AE:1B:7E:07:F4:D5:38
            X509v3 Authority Key Identifier: 
                9B:26:0B:8A:98:A9:BB:1D:B9:1F:1C:E3:1A:40:33:ED:8E:17:88:AB
            X509v3 Extended Key Usage: 
                TLS Web Server Authentication, TLS Web Client Authentication
            X509v3 Subject Alternative Name: 
                IP Address:127.0.0.1
    Signature Algorithm: sha256WithRSAEncryption
    Signature Value:
        4c:83:4a:91:36:3f:73:ff:1d:38:3e:9e:fb:44:87:42:80:82:
        2c:d9:3a:d7:4f:d9:a6:21:19:24:b5:b7:b8:42:71:23:2a:c8:
        81:17:28:95:95:c3:9f:72:b4:5d:c8:6e:6c:91:73:1a:88:68:
        bd:d3:67:6c:72:97:fd:48:0f:2a:8c:06:8a:ed:ac:e2:a6:b2:
        d4:e9:73:65:4f:71:f6:d8:62:a5:68:2d:2e:86:8e:ff:da:df:
        ee:4b:bb:0e:50:89:a4:9d:27:62:fd:90:16:89:e9:12:7b:df:
        a2:71:87:6e:99:28:3c:07:b7:81:86:73:7d:93:a0:3c:f0:a5:
        e3:60:55:e0:0f:9f:c0:08:ad:ef:02:9a:ec:b5:ed:2b:e7:cd:
        ec:c3:59:2b:20:24:05:da:f8:fd:97:67:27:bd:7d:58:ac:e4:
        dd:1a:c0:28:9e:1a:4d:57:88:f2:39:bc:92:6a:43:75:4d:fd:
        59:9a:d9:f5:1c:49:57:ec:07:66:b2:06:e0:97:dc:44:fa:19:
        6f:3a:84:f7:ff:7a:c7:e7:2e:37:60:4a:23:fc:ef:00:98:4c:
        2b:d2:a1:8c:35:d3:d8:5a:2f:6e:f6:69:5c:f7:55:f1:49:f1:
        e7:d4:9c:db:7c:6f:48:0d:5b:7a:1a:0d:6f:83:de:fd:29:d1:
        d5:79:fc:c7
-----BEGIN CERTIFICATE-----
MIIDzzCCAregAwIBAgIRALBrk5LjXI1+7Z3IllnFwoYwDQYJKoZIhvcNAQELBQAw
YzELMAkGA1UEBhMCVVMxEzARBgNVBAgMCkNhbGlmb3JuaWExFjAUBgNVBAcMDU1v
dW50YWluIFZpZXcxEDAOBgNVBAoMB1Rlc3QgQ0ExFTATBgNVBAMMDFRlc3QgUm9v
dCBDQTAeFw0yMjEwMDMxNzIwMzFaFw0yNTAzMjExNzIwMzFaMGAxCzAJBgNVBAYT
AlVTMRMwEQYDVQQIDApDYWxpZm9ybmlhMRYwFAYDVQQHDA1Nb3VudGFpbiBWaWV3
MRAwDgYDVQQKDAdUZXN0IENBMRIwEAYDVQQDDAkxMjcuMC4wLjEwggEiMA0GCSqG
SIb3DQEBAQUAA4IBDwAwggEKAoIBAQDFKGEelNLtXrP7bDXhxRy7eGfXEVUcONtn
TYT6OXOB/3PkEKXf9CFDFMifTvCnRYIrLHk039s80Af9M+uKvkndzyJ/ETc/POO+
+7qgsUW0vXzZW3tYdT78uJ9ET8+Xv3AcQoscdwceX0eoeFufC2Dbm1hjgdsa8Te7
3pEJBbA78uTZpmJLrCmRbgTJPYWPV9bZtr7+esjmQImZpMdYlHVZA9i8sY7w0jTX
wBVjXL0AaMEr9KbEDZTfOMsidQwqgiMOE4J2u/9zZsict1WSaKQEc5KsaZw8aSkZ
rVfkqVnFXevKumzihgFrXK7cNcc3Zxln7jfxQZi9AlSH9grA/YKbAgMBAAGjgYAw
fjAMBgNVHRMBAf8EAjAAMB0GA1UdDgQWBBSEhkY1Nrlp/s7xDa+nrht+B/TVODAf
BgNVHSMEGDAWgBSbJguKmKm7HbkfHOMaQDPtjheIqzAdBgNVHSUEFjAUBggrBgEF
BQcDAQYIKwYBBQUHAwIwDwYDVR0RBAgwBocEfwAAATANBgkqhkiG9w0BAQsFAAOC
AQEATINKkTY/c/8dOD6e+0SHQoCCLNk610/ZpiEZJLW3uEJxIyrIgRcolZXDn3K0
XchubJFzGohovdNnbHKX/UgPKowGiu2s4qay1OlzZU9x9thipWgtLoaO/9rf7ku7
DlCJpJ0nYv2QFonpEnvfonGHbpkoPAe3gYZzfZOgPPCl42BV4A+fwAit7wKa7LXt
K+fN7MNZKyAkBdr4/ZdnJ719WKzk3RrAKJ4aTVeI8jm8kmpDdU39WZrZ9RxJV+wH
ZrIG4JfcRPoZbzqE9/96x+cuN2BKI/zvAJhMK9KhjDXT2FovbvZpXPdV8Unx59Sc
23xvSA1behoNb4Pe/SnR1Xn8xw==
-----END CERTIFICATE-----
