Certificate:
    Data:
        Version: 3 (0x2)
        Serial Number:
            97:a2:ec:ef:8c:1f:34:bb:02:1d:83:75:90:67:0b:26
        Signature Algorithm: sha256WithRSAEncryption
        Issuer: C=US, ST=California, L=Mountain View, O=Test CA, CN=Test Root CA
        Validity
            Not Before: Dec  2 02:29:26 2021 GMT
            Not After : May 20 02:29:26 2024 GMT
        Subject: C=US, ST=California, L=Mountain View, O=Test CA, CN=127.0.0.1
        Subject Public Key Info:
            Public Key Algorithm: rsaEncryption
                RSA Public-Key: (2048 bit)
                Modulus:
                    00:9c:80:4b:13:19:37:bf:ef:3f:08:23:f2:49:29:
                    19:ee:17:ae:f0:c5:38:6c:44:a8:5b:8d:6b:64:c3:
                    35:a3:68:3f:86:32:f3:91:f9:0c:04:05:af:7f:56:
                    58:47:99:cb:2e:1d:dd:52:29:83:11:55:ed:17:e3:
                    49:02:b8:fd:aa:9a:db:76:ba:62:c8:df:fb:d7:05:
                    23:3d:3b:07:4c:19:b7:01:8e:5b:30:49:4f:fa:43:
                    82:f5:17:06:47:52:da:c2:93:80:3e:dc:8c:a6:fd:
                    26:70:e1:c3:12:83:9b:c3:2e:ac:af:49:e8:ce:31:
                    df:4d:64:23:5c:7c:cd:1e:d3:6e:f9:4b:b1:ab:d1:
                    6c:45:32:b0:48:31:60:57:57:dd:f5:d5:af:02:7f:
                    d7:ec:cf:92:16:7e:d8:7e:a6:3a:d6:94:7d:6b:ab:
                    02:a9:81:83:68:b7:56:24:41:e8:5e:39:5c:1e:e6:
                    7e:c4:58:04:19:e0:b0:03:67:12:81:1c:17:ac:08:
                    d9:49:b6:b7:5b:d2:0d:fd:46:fd:8c:b4:d1:b5:4d:
                    c7:9a:fb:5d:ab:b0:a5:9b:c6:d2:62:39:56:d0:d6:
                    a6:ef:6f:07:35:d4:08:6f:aa:0a:6d:8c:9e:83:8a:
                    8f:5f:31:b4:1c:78:7e:d8:71:0a:c2:aa:74:17:b8:
                    4b:97
                Exponent: 65537 (0x10001)
        X509v3 extensions:
            X509v3 Basic Constraints: critical
                CA:FALSE
            X509v3 Subject Key Identifier: 
                B9:33:59:57:E2:07:76:38:A7:D6:4A:43:19:79:AF:54:65:E9:7B:E2
            X509v3 Authority Key Identifier: 
                keyid:9B:26:0B:8A:98:A9:BB:1D:B9:1F:1C:E3:1A:40:33:ED:8E:17:88:AB

            X509v3 Extended Key Usage: 
                TLS Web Server Authentication, TLS Web Client Authentication
            X509v3 Subject Alternative Name: 
                IP Address:127.0.0.1
    Signature Algorithm: sha256WithRSAEncryption
         a6:e1:c0:06:0f:64:8c:50:54:38:9a:2a:19:38:6e:ce:12:bb:
         a1:4b:2e:62:39:a6:dd:e3:7e:3a:c2:f6:93:40:d1:b4:22:c8:
         f2:53:82:48:46:77:66:20:31:65:fd:03:9c:38:92:a9:38:4a:
         df:65:fb:c1:ec:c6:33:ce:94:53:eb:20:1c:5e:66:22:8a:c4:
         b6:ce:f2:91:e6:58:21:dc:5a:f3:c1:69:37:1a:ad:03:e9:28:
         dc:cb:ee:29:8d:73:6f:c3:a3:7c:f6:66:99:d1:c0:5a:2c:3e:
         79:9d:3c:df:f4:de:83:a2:aa:63:7c:e6:d3:ae:23:2a:47:61:
         15:54:d3:da:fb:c5:c3:a2:db:69:45:76:f0:f9:e0:9c:06:ab:
         e7:20:96:a4:b5:8d:08:54:c1:37:da:27:84:d2:8e:b2:60:a9:
         e6:d6:42:31:20:58:70:22:3e:66:2a:33:da:5f:09:64:f2:dc:
         c6:a3:e2:b0:56:7b:a1:31:aa:cc:82:e8:a7:a7:8d:85:ad:01:
         ac:d3:1d:ec:27:63:44:ea:ce:c2:fe:e9:6e:4d:43:11:57:dd:
         a5:27:b3:0d:88:ad:eb:e1:60:09:0d:c9:c5:62:be:8c:ff:24:
         eb:c7:42:b4:45:5f:23:20:0b:63:4b:81:e8:cc:57:bc:a9:88:
         15:b6:af:20
-----BEGIN CERTIFICATE-----
MIIDzzCCAregAwIBAgIRAJei7O+MHzS7Ah2DdZBnCyYwDQYJKoZIhvcNAQELBQAw
YzELMAkGA1UEBhMCVVMxEzARBgNVBAgMCkNhbGlmb3JuaWExFjAUBgNVBAcMDU1v
dW50YWluIFZpZXcxEDAOBgNVBAoMB1Rlc3QgQ0ExFTATBgNVBAMMDFRlc3QgUm9v
dCBDQTAeFw0yMTEyMDIwMjI5MjZaFw0yNDA1MjAwMjI5MjZaMGAxCzAJBgNVBAYT
AlVTMRMwEQYDVQQIDApDYWxpZm9ybmlhMRYwFAYDVQQHDA1Nb3VudGFpbiBWaWV3
MRAwDgYDVQQKDAdUZXN0IENBMRIwEAYDVQQDDAkxMjcuMC4wLjEwggEiMA0GCSqG
SIb3DQEBAQUAA4IBDwAwggEKAoIBAQCcgEsTGTe/7z8II/JJKRnuF67wxThsRKhb
jWtkwzWjaD+GMvOR+QwEBa9/VlhHmcsuHd1SKYMRVe0X40kCuP2qmtt2umLI3/vX
BSM9OwdMGbcBjlswSU/6Q4L1FwZHUtrCk4A+3Iym/SZw4cMSg5vDLqyvSejOMd9N
ZCNcfM0e0275S7Gr0WxFMrBIMWBXV9311a8Cf9fsz5IWfth+pjrWlH1rqwKpgYNo
t1YkQeheOVwe5n7EWAQZ4LADZxKBHBesCNlJtrdb0g39Rv2MtNG1Tcea+12rsKWb
xtJiOVbQ1qbvbwc11AhvqgptjJ6Dio9fMbQceH7YcQrCqnQXuEuXAgMBAAGjgYAw
fjAMBgNVHRMBAf8EAjAAMB0GA1UdDgQWBBS5M1lX4gd2OKfWSkMZea9UZel74jAf
BgNVHSMEGDAWgBSbJguKmKm7HbkfHOMaQDPtjheIqzAdBgNVHSUEFjAUBggrBgEF
BQcDAQYIKwYBBQUHAwIwDwYDVR0RBAgwBocEfwAAATANBgkqhkiG9w0BAQsFAAOC
AQEApuHABg9kjFBUOJoqGThuzhK7oUsuYjmm3eN+OsL2k0DRtCLI8lOCSEZ3ZiAx
Zf0DnDiSqThK32X7wezGM86UU+sgHF5mIorEts7ykeZYIdxa88FpNxqtA+ko3Mvu
KY1zb8OjfPZmmdHAWiw+eZ083/Teg6KqY3zm064jKkdhFVTT2vvFw6LbaUV28Png
nAar5yCWpLWNCFTBN9onhNKOsmCp5tZCMSBYcCI+Zioz2l8JZPLcxqPisFZ7oTGq
zILop6eNha0BrNMd7CdjROrOwv7pbk1DEVfdpSezDYit6+FgCQ3JxWK+jP8k68dC
tEVfIyALY0uB6MxXvKmIFbavIA==
-----END CERTIFICATE-----
