Certificate:
    Data:
        Version: 3 (0x2)
        Serial Number:
            3e:2c:9d:be:b0:42:c8:cf:fc:99:42:d5:4d:41:6a:c0
        Signature Algorithm: sha256WithRSAEncryption
        Issuer: C=US, ST=California, L=Mountain View, O=Test CA, CN=Test Root CA
        Validity
            Not Before: Jul  1 00:00:00 2019 GMT
            Not After : Dec 17 00:00:00 2021 GMT
        Subject: C=US, ST=California, L=Mountain View, O=Test CA, CN=127.0.0.1
        Subject Public Key Info:
            Public Key Algorithm: rsaEncryption
                RSA Public-Key: (2048 bit)
                Modulus:
                    00:a4:57:b8:aa:2a:90:a1:4e:5c:cd:df:45:06:fc:
                    6d:f9:e5:1c:8b:0f:65:8f:d2:dc:fc:b2:03:38:63:
                    fb:c4:d6:93:bd:dc:cc:8f:0b:3c:3d:42:32:40:de:
                    95:e2:5f:9a:7e:19:0c:06:40:55:b1:7a:e4:fc:80:
                    2d:3f:86:8e:d5:a0:6e:e3:21:10:f1:32:eb:cf:41:
                    57:5e:4e:2c:52:cc:d7:22:0b:24:f3:10:0d:ad:30:
                    2f:2f:e7:83:33:a7:a3:0c:b2:2a:f9:0c:c1:b7:89:
                    9c:24:38:cd:6a:bf:c1:c6:d4:aa:4e:5f:17:c1:3a:
                    19:d9:84:f7:cf:99:3f:2c:25:d3:ac:4f:b9:9c:35:
                    1f:b0:8f:99:c9:09:a6:e5:05:5b:f2:b6:17:32:33:
                    6d:8d:24:ca:e3:de:4b:64:4e:77:33:2d:5f:37:89:
                    e8:cb:f2:1a:c8:62:39:03:e5:f7:30:05:52:1c:3a:
                    c2:86:1b:dc:fe:83:d1:de:99:8e:b0:6d:2b:f7:1b:
                    1c:a2:39:75:25:c6:9c:6e:6e:0b:4b:44:fd:ae:d7:
                    57:a8:82:11:36:a2:a4:7b:72:02:ce:eb:fa:eb:ca:
                    35:83:3c:93:2f:1a:4b:9f:2d:90:f9:1d:39:65:4a:
                    93:99:80:87:77:e0:a7:ee:48:f4:1a:a4:8b:a4:8d:
                    5e:0d
                Exponent: 65537 (0x10001)
        X509v3 extensions:
            X509v3 Basic Constraints: critical
                CA:FALSE
            X509v3 Subject Key Identifier: 
                70:0A:87:A4:15:46:AB:83:13:EB:AD:AB:F2:93:D5:38:90:75:76:14
            X509v3 Authority Key Identifier: 
                keyid:9B:26:0B:8A:98:A9:BB:1D:B9:1F:1C:E3:1A:40:33:ED:8E:17:88:AB

            X509v3 Extended Key Usage: 
                TLS Web Server Authentication, TLS Web Client Authentication
            X509v3 Subject Alternative Name: 
                IP Address:127.0.0.1
    Signature Algorithm: sha256WithRSAEncryption
         1d:90:bc:fe:ea:e3:79:0d:5c:6a:d8:dd:de:84:7d:b2:d3:20:
         8f:31:05:cf:0d:f9:c4:82:d9:db:3d:b9:ee:a4:9f:ff:91:82:
         4a:9a:3c:ab:19:73:be:b7:60:f6:6f:45:7e:4b:93:9e:58:ad:
         c1:16:d7:e2:83:26:ce:e7:31:be:80:35:59:c4:1a:06:5c:af:
         27:e8:3b:89:b1:f6:dd:c9:83:de:47:36:78:cc:d8:5b:b8:4e:
         4f:d8:8d:33:86:b7:b5:28:e4:f0:1e:6e:ac:eb:d2:cc:0c:36:
         b5:b3:30:17:a2:7a:15:6a:cf:42:e4:09:67:40:bd:27:39:e6:
         01:b8:b4:c5:dd:ce:63:99:67:29:7c:f0:ba:84:74:79:33:1c:
         94:92:63:2a:8a:f6:b7:da:de:33:12:80:58:cd:d4:0c:e6:29:
         78:07:ff:3a:5a:5c:92:d3:69:c5:de:10:56:fb:90:c4:24:86:
         7c:6f:fe:27:35:d9:3b:9b:73:6d:69:37:63:b8:bd:c8:4b:25:
         01:33:77:06:a4:7e:f5:05:2a:47:86:36:c8:7c:ab:17:b4:4e:
         03:42:1d:f6:57:3c:ac:aa:61:56:03:f2:d3:34:7d:0a:71:e5:
         3b:92:54:91:df:06:b9:dc:8a:cb:a2:33:a4:45:7b:c2:c2:b0:
         fb:98:6a:40
-----BEGIN CERTIFICATE-----
MIIDzjCCAragAwIBAgIQPiydvrBCyM/8mULVTUFqwDANBgkqhkiG9w0BAQsFADBj
MQswCQYDVQQGEwJVUzETMBEGA1UECAwKQ2FsaWZvcm5pYTEWMBQGA1UEBwwNTW91
bnRhaW4gVmlldzEQMA4GA1UECgwHVGVzdCBDQTEVMBMGA1UEAwwMVGVzdCBSb290
IENBMB4XDTE5MDcwMTAwMDAwMFoXDTIxMTIxNzAwMDAwMFowYDELMAkGA1UEBhMC
VVMxEzARBgNVBAgMCkNhbGlmb3JuaWExFjAUBgNVBAcMDU1vdW50YWluIFZpZXcx
EDAOBgNVBAoMB1Rlc3QgQ0ExEjAQBgNVBAMMCTEyNy4wLjAuMTCCASIwDQYJKoZI
hvcNAQEBBQADggEPADCCAQoCggEBAKRXuKoqkKFOXM3fRQb8bfnlHIsPZY/S3Pyy
Azhj+8TWk73czI8LPD1CMkDeleJfmn4ZDAZAVbF65PyALT+GjtWgbuMhEPEy689B
V15OLFLM1yILJPMQDa0wLy/ngzOnowyyKvkMwbeJnCQ4zWq/wcbUqk5fF8E6GdmE
98+ZPywl06xPuZw1H7CPmckJpuUFW/K2FzIzbY0kyuPeS2ROdzMtXzeJ6MvyGshi
OQPl9zAFUhw6woYb3P6D0d6ZjrBtK/cbHKI5dSXGnG5uC0tE/a7XV6iCETaipHty
As7r+uvKNYM8ky8aS58tkPkdOWVKk5mAh3fgp+5I9Bqki6SNXg0CAwEAAaOBgDB+
MAwGA1UdEwEB/wQCMAAwHQYDVR0OBBYEFHAKh6QVRquDE+utq/KT1TiQdXYUMB8G
A1UdIwQYMBaAFJsmC4qYqbsduR8c4xpAM+2OF4irMB0GA1UdJQQWMBQGCCsGAQUF
BwMBBggrBgEFBQcDAjAPBgNVHREECDAGhwR/AAABMA0GCSqGSIb3DQEBCwUAA4IB
AQAdkLz+6uN5DVxq2N3ehH2y0yCPMQXPDfnEgtnbPbnupJ//kYJKmjyrGXO+t2D2
b0V+S5OeWK3BFtfigybO5zG+gDVZxBoGXK8n6DuJsfbdyYPeRzZ4zNhbuE5P2I0z
hre1KOTwHm6s69LMDDa1szAXonoVas9C5AlnQL0nOeYBuLTF3c5jmWcpfPC6hHR5
MxyUkmMqiva32t4zEoBYzdQM5il4B/86WlyS02nF3hBW+5DEJIZ8b/4nNdk7m3Nt
aTdjuL3ISyUBM3cGpH71BSpHhjbIfKsXtE4DQh32VzysqmFWA/LTNH0KceU7klSR
3wa53IrLojOkRXvCwrD7mGpA
-----END CERTIFICATE-----
