Certificate:
    Data:
        Version: 3 (0x2)
        Serial Number:
            cf:95:70:1c:b6:6c:07:bb:a4:de:63:24:47:3b:4e:dc
        Signature Algorithm: sha256WithRSAEncryption
        Issuer: C=US, ST=California, L=Mountain View, O=Test CA, CN=Test Root CA
        Validity
            Not Before: Oct 30 18:43:24 2023 GMT
            Not After : Apr 17 18:43:24 2026 GMT
        Subject: C=US, ST=California, L=Mountain View, O=Test CA, CN=127.0.0.1
        Subject Public Key Info:
            Public Key Algorithm: rsaEncryption
                Public-Key: (2048 bit)
                Modulus:
                    00:c9:04:e4:d3:6d:c4:2f:be:23:48:c4:98:0e:a0:
                    ef:ff:e8:05:04:02:9d:7d:0a:d5:5d:72:ef:07:49:
                    dd:cc:78:74:45:71:48:e8:cb:2e:60:15:98:1c:25:
                    77:01:0e:14:27:9b:71:33:c7:e4:34:4c:19:1b:58:
                    30:18:cc:53:a4:94:c5:be:90:e1:56:e1:6f:6a:62:
                    9c:66:0b:53:b9:98:46:bb:1c:49:fe:50:a6:3d:3d:
                    8f:c4:13:d5:52:ca:5b:7e:68:78:61:f2:c5:08:04:
                    82:3e:15:6b:35:2d:bd:12:95:34:d5:78:0a:90:b8:
                    26:1d:dd:2e:d8:09:17:8f:8f:84:46:42:1c:78:da:
                    ff:28:ca:cc:06:8a:ac:9a:9c:18:e9:ee:59:09:34:
                    31:23:72:cf:88:75:cd:33:ce:6a:06:93:30:f3:77:
                    8f:74:d1:21:eb:70:85:0e:1f:3b:22:4f:76:04:75:
                    30:69:f8:e4:c4:13:6d:03:23:c6:9c:8f:52:08:21:
                    14:b3:bd:5e:2d:4d:51:2e:fb:46:de:6a:db:40:35:
                    63:ff:6a:28:ad:c3:c7:52:c3:9b:4d:0f:74:1f:e9:
                    cb:18:78:e2:d2:e5:d9:5c:40:87:93:9d:5b:de:f6:
                    fb:3b:bd:01:0f:e1:f5:65:4f:38:11:ce:3e:ca:11:
                    48:ed
                Exponent: 65537 (0x10001)
        X509v3 extensions:
            X509v3 Basic Constraints: critical
                CA:FALSE
            X509v3 Subject Key Identifier: 
                5B:54:6F:5F:56:51:8A:D6:4B:E6:FE:F7:6C:EA:C4:C4:61:25:BA:BB
            X509v3 Authority Key Identifier: 
                9B:26:0B:8A:98:A9:BB:1D:B9:1F:1C:E3:1A:40:33:ED:8E:17:88:AB
            X509v3 Extended Key Usage: 
                TLS Web Server Authentication, TLS Web Client Authentication
            X509v3 Subject Alternative Name: 
                IP Address:127.0.0.1
    Signature Algorithm: sha256WithRSAEncryption
    Signature Value:
        58:81:68:24:0f:59:56:1a:93:c2:9f:dc:f7:04:74:fe:7a:a6:
        cb:8c:e2:0e:82:87:b3:f7:a5:1d:49:b2:6f:b8:8b:a9:f9:e4:
        c2:31:9b:ac:13:db:53:e8:80:09:37:8a:5a:16:7b:e8:7f:8f:
        70:be:35:7a:c9:95:9e:91:ff:e9:97:ce:84:05:4e:52:fd:01:
        03:6d:2c:c4:0c:6a:b5:e6:23:a5:56:35:7c:8f:39:4a:b7:1b:
        e4:fb:50:6a:43:e8:17:91:37:14:49:13:44:ee:de:d5:6e:79:
        80:6a:60:51:7b:ab:f7:b5:f3:ce:51:7f:34:fd:80:e1:b8:99:
        bc:5f:c9:49:96:1b:16:4e:b7:43:8e:2b:a6:64:d1:b8:ce:af:
        1d:f2:c9:a3:05:e3:3e:f1:7a:d1:0b:c4:ee:96:5b:b6:00:91:
        f8:d3:0c:c1:58:c6:a3:b0:03:99:2c:6a:90:79:1d:9f:67:ca:
        45:b6:07:ce:85:3a:a7:8a:6b:cb:44:dc:94:a0:be:79:78:17:
        24:ed:29:42:df:0e:c8:6c:22:e5:cd:da:d9:48:44:c3:5a:91:
        b8:8f:85:a4:b0:14:80:45:ac:b4:18:f9:bd:f8:93:d2:35:a9:
        05:8e:8e:e9:79:16:dd:8f:fe:ac:9f:1b:5c:ce:2f:91:92:b9:
        56:e4:ee:ad
-----BEGIN CERTIFICATE-----
MIIDzzCCAregAwIBAgIRAM+VcBy2bAe7pN5jJEc7TtwwDQYJKoZIhvcNAQELBQAw
YzELMAkGA1UEBhMCVVMxEzARBgNVBAgMCkNhbGlmb3JuaWExFjAUBgNVBAcMDU1v
dW50YWluIFZpZXcxEDAOBgNVBAoMB1Rlc3QgQ0ExFTATBgNVBAMMDFRlc3QgUm9v
dCBDQTAeFw0yMzEwMzAxODQzMjRaFw0yNjA0MTcxODQzMjRaMGAxCzAJBgNVBAYT
AlVTMRMwEQYDVQQIDApDYWxpZm9ybmlhMRYwFAYDVQQHDA1Nb3VudGFpbiBWaWV3
MRAwDgYDVQQKDAdUZXN0IENBMRIwEAYDVQQDDAkxMjcuMC4wLjEwggEiMA0GCSqG
SIb3DQEBAQUAA4IBDwAwggEKAoIBAQDJBOTTbcQvviNIxJgOoO//6AUEAp19CtVd
cu8HSd3MeHRFcUjoyy5gFZgcJXcBDhQnm3Ezx+Q0TBkbWDAYzFOklMW+kOFW4W9q
YpxmC1O5mEa7HEn+UKY9PY/EE9VSylt+aHhh8sUIBII+FWs1Lb0SlTTVeAqQuCYd
3S7YCRePj4RGQhx42v8oyswGiqyanBjp7lkJNDEjcs+Idc0zzmoGkzDzd4900SHr
cIUOHzsiT3YEdTBp+OTEE20DI8acj1IIIRSzvV4tTVEu+0beattANWP/aiitw8dS
w5tND3Qf6csYeOLS5dlcQIeTnVve9vs7vQEP4fVlTzgRzj7KEUjtAgMBAAGjgYAw
fjAMBgNVHRMBAf8EAjAAMB0GA1UdDgQWBBRbVG9fVlGK1kvm/vds6sTEYSW6uzAf
BgNVHSMEGDAWgBSbJguKmKm7HbkfHOMaQDPtjheIqzAdBgNVHSUEFjAUBggrBgEF
BQcDAQYIKwYBBQUHAwIwDwYDVR0RBAgwBocEfwAAATANBgkqhkiG9w0BAQsFAAOC
AQEAWIFoJA9ZVhqTwp/c9wR0/nqmy4ziDoKHs/elHUmyb7iLqfnkwjGbrBPbU+iA
CTeKWhZ76H+PcL41esmVnpH/6ZfOhAVOUv0BA20sxAxqteYjpVY1fI85Srcb5PtQ
akPoF5E3FEkTRO7e1W55gGpgUXur97XzzlF/NP2A4biZvF/JSZYbFk63Q44rpmTR
uM6vHfLJowXjPvF60QvE7pZbtgCR+NMMwVjGo7ADmSxqkHkdn2fKRbYHzoU6p4pr
y0TclKC+eXgXJO0pQt8OyGwi5c3a2UhEw1qRuI+FpLAUgEWstBj5vfiT0jWpBY6O
6XkW3Y/+rJ8bXM4vkZK5VuTurQ==
-----END CERTIFICATE-----
