Certificate:
    Data:
        Version: 3 (0x2)
        Serial Number:
            12:f6:d9:f1:80:1b:50:9f:64:09:c8:ea:2f:16:33:c2
        Signature Algorithm: sha256WithRSAEncryption
        Issuer: C=US, ST=California, L=Mountain View, O=Test CA, CN=Test Root CA
        Validity
            Not Before: Dec  2 02:29:26 2021 GMT
            Not After : May 20 02:29:26 2024 GMT
        Subject: C=US, ST=California, L=Mountain View, O=Test CA, CN=127.0.0.1
        Subject Public Key Info:
            Public Key Algorithm: rsaEncryption
                RSA Public-Key: (2048 bit)
                Modulus:
                    00:a4:01:2d:0e:2e:a3:25:4c:21:58:79:4e:75:4e:
                    c2:85:0d:3f:1e:ee:ee:6b:28:c1:13:92:9b:55:83:
                    06:30:c4:ab:01:ab:e8:53:7e:75:4f:be:97:48:82:
                    8e:34:c4:6d:c0:12:33:8e:0f:0e:e2:84:c7:ad:1a:
                    67:82:26:e0:21:b8:ef:3c:0b:b0:09:8e:35:1a:5f:
                    61:c3:16:d7:33:0a:2b:4e:f9:cd:4f:da:8c:21:ad:
                    8e:5b:1a:47:d4:78:89:e7:01:df:75:af:df:04:fe:
                    07:f0:93:2b:20:f1:e9:b5:3b:98:bd:61:01:c4:c4:
                    e9:0a:86:d8:dd:73:50:db:3f:a0:3c:3b:4c:9b:d5:
                    5b:4f:42:a6:e4:76:9b:b9:26:d0:9f:c5:97:c6:1b:
                    b5:9d:51:93:73:f4:ba:02:37:96:03:ef:ec:3a:ca:
                    34:a2:1b:83:48:a4:82:7a:5a:ac:22:6c:5e:a7:e0:
                    af:d6:56:dc:d2:d8:31:3f:c2:14:b9:36:52:bc:bc:
                    ac:d3:7b:09:54:7a:b2:76:3d:03:a9:13:67:ab:0d:
                    b2:3d:6b:e7:be:97:8a:3b:cc:6a:f2:00:de:e9:05:
                    a5:b7:46:0e:7c:30:7b:4f:2f:01:6d:8b:bd:98:4e:
                    20:c3:ec:eb:c5:16:eb:31:f5:02:25:9a:0b:50:ec:
                    d4:13
                Exponent: 65537 (0x10001)
        X509v3 extensions:
            X509v3 Basic Constraints: critical
                CA:FALSE
            X509v3 Subject Key Identifier: 
                26:66:03:97:4C:35:D2:1C:5E:10:06:EF:69:F8:D5:86:5C:1C:10:7A
            X509v3 Authority Key Identifier: 
                keyid:9B:26:0B:8A:98:A9:BB:1D:B9:1F:1C:E3:1A:40:33:ED:8E:17:88:AB

            X509v3 Extended Key Usage: 
                TLS Web Server Authentication, TLS Web Client Authentication
            X509v3 Subject Alternative Name: 
                IP Address:127.0.0.1
    Signature Algorithm: sha256WithRSAEncryption
         07:49:e3:70:af:b1:b9:8a:68:73:47:8f:6c:ee:92:a8:a3:dc:
         3e:db:56:59:ce:88:e2:09:45:f3:1d:45:7d:56:c6:c5:23:f8:
         dc:f4:9d:66:d3:8d:76:48:5d:46:d1:23:6a:5d:c1:85:5e:cf:
         ca:78:33:42:0e:d7:9d:e6:e4:59:59:8a:ef:6a:cb:89:f3:5f:
         5c:35:69:8a:7d:c2:f3:ee:27:8a:98:2e:3e:7b:1f:9d:3b:d1:
         de:07:a9:15:d1:f4:6d:b1:eb:1b:13:d4:27:ec:2e:77:e3:2a:
         e9:00:58:43:d3:83:7a:d8:a2:aa:82:36:3a:7e:d0:40:e1:32:
         f0:43:ad:f3:32:73:14:a2:be:35:5f:a6:dc:e5:93:58:03:f3:
         fa:24:3f:fc:81:f2:62:c4:87:dc:9b:71:a2:e9:a3:7a:9d:28:
         b1:6a:ad:8b:13:51:99:f0:b2:54:4b:66:2b:2e:2c:5a:02:4b:
         66:14:e0:a2:9f:15:a0:fd:40:b7:25:f4:9c:9f:2c:bc:25:5d:
         8d:94:17:1b:af:f6:ec:4d:0a:d8:60:03:04:ec:6c:0c:5a:9a:
         3d:5e:96:d1:a0:e2:7b:d8:34:e0:26:84:03:dc:11:d9:d4:ff:
         ee:24:aa:eb:23:0a:8c:d0:c0:0b:76:1f:a9:e6:2a:0f:9d:c5:
         3c:fe:a1:44
-----BEGIN CERTIFICATE-----
MIIDzjCCAragAwIBAgIQEvbZ8YAbUJ9kCcjqLxYzwjANBgkqhkiG9w0BAQsFADBj
MQswCQYDVQQGEwJVUzETMBEGA1UECAwKQ2FsaWZvcm5pYTEWMBQGA1UEBwwNTW91
bnRhaW4gVmlldzEQMA4GA1UECgwHVGVzdCBDQTEVMBMGA1UEAwwMVGVzdCBSb290
IENBMB4XDTE5MDcwMTAwMDAwMFoXDTIxMTIxNzAwMDAwMFowYDELMAkGA1UEBhMC
VVMxEzARBgNVBAgMCkNhbGlmb3JuaWExFjAUBgNVBAcMDU1vdW50YWluIFZpZXcx
EDAOBgNVBAoMB1Rlc3QgQ0ExEjAQBgNVBAMMCTEyNy4wLjAuMTCCASIwDQYJKoZI
hvcNAQEBBQADggEPADCCAQoCggEBAKQBLQ4uoyVMIVh5TnVOwoUNPx7u7msowROS
m1WDBjDEqwGr6FN+dU++l0iCjjTEbcASM44PDuKEx60aZ4Im4CG47zwLsAmONRpf
YcMW1zMKK075zU/ajCGtjlsaR9R4iecB33Wv3wT+B/CTKyDx6bU7mL1hAcTE6QqG
2N1zUNs/oDw7TJvVW09CpuR2m7km0J/Fl8YbtZ1Rk3P0ugI3lgPv7DrKNKIbg0ik
gnparCJsXqfgr9ZW3NLYMT/CFLk2Ury8rNN7CVR6snY9A6kTZ6sNsj1r576XijvM
avIA3ukFpbdGDnwwe08vAW2LvZhOIMPs68UW6zH1AiWaC1Ds1BMCAwEAAaOBgDB+
MAwGA1UdEwEB/wQCMAAwHQYDVR0OBBYEFCZmA5dMNdIcXhAG72n41YZcHBB6MB8G
A1UdIwQYMBaAFJsmC4qYqbsduR8c4xpAM+2OF4irMB0GA1UdJQQWMBQGCCsGAQUF
BwMBBggrBgEFBQcDAjAPBgNVHREECDAGhwR/AAABMA0GCSqGSIb3DQEBCwUAA4IB
AQAHSeNwr7G5imhzR49s7pKoo9w+21ZZzojiCUXzHUV9VsbFI/jc9J1m0412SF1G
0SNqXcGFXs/KeDNCDted5uRZWYrvasuJ819cNWmKfcLz7ieKmC4+ex+dO9HeB6kV
0fRtsesbE9Qn7C534yrpAFhD04N62KKqgjY6ftBA4TLwQ63zMnMUor41X6bc5ZNY
A/P6JD/8gfJixIfcm3Gi6aN6nSixaq2LE1GZ8LJUS2YrLixaAktmFOCinxWg/UC3
JfScnyy8JV2NlBcbr/bsTQrYYAME7GwMWpo9XpbRoOJ72DTgJoQD3BHZ1P/uJKrr
IwqM0MALdh+p5ioPncU8/qFE
-----END CERTIFICATE-----
