-----BEGIN PRIVATE KEY-----
MIIEvAIBADANBgkqhkiG9w0BAQEFAASCBKYwggSiAgEAAoIBAQDgU/TzmMEUMwLI
pG3+qir3lD2mbwDfO95Mn6PqB9Ss5VsN0azg7fnFmB01LeWzSZcUhUQP3EzSZwiI
AaXYp+uT0Wqh91HnhH5SKn28bw7Y27amPt7c9aRolkQRhQLtRxLfuGBxlXtih2h6
RFYJ1bTI8fbJRpKLaOiD1dWGcSPDgB6/bAHH0qS8QG3g48AuMHi9rd0lZtP1BwdW
187icsUlfQzhp28AqNqrS1RDCWSktlI4L7fMAd0cAycDR7/f5jew7RjcUQvUdSLf
UHs86zc5HJtvCHunBayMQ/fx2lEGs4JFPsiBc56wpc92lq+BLKwBKkpYSx2+/x+F
wife8XgLAgMBAAECggEAO0gUmHdKtvLQDoPdiYogtrKXJC97dILWuTsKzyLoohQu
XtWFMR/SfNQ5C7+oTxvocATTurlGF+ggigidckbV64dQ/aJlI6CQ3VfbSHu02bwe
ZYqBzLShkP382QBkiJ3asAKCgiG1rJEKHB2I+ypdjyjaRdB/k5XStFxDBDdL8zKe
kL1hytf1ALxYBQJ3TXcoIqlpzz6v+JnZTAuu4vrySfffyFTrytIwf/KGlBACBqXe
oV+DK586PiyC0m1Hhy1rLTi2/IT4t4j3KO+c/OnpWkMEg1G/Ojy1zPMsMHr1VO9t
UWxhEIYOLQVUOT+2ltO4bRJcgEPHSxlIY23qalJgqQKBgQD9oZwHPhLZg439Zr9O
Zgl5fFkPe4SxqLY+ggE5O81+3RgL8GyAuy9oDtUGcw8L9tpKcBflqH4jEvUvT1/m
8BGKIQteqcKbY0C+KfPvq77R4k2KqmxpKF5f4BS/9O7cgzJZwhSFKDLtcKtDIPUK
3eoERuPB4/cmhQyb+/TKofZpfwKBgQDibEm1+nYj3tIXDxK3hZHjPz0s9vYV84py
zg3HjuEmdacnhNPQQQpNG83RMjEnnBvHWH2vxRWyD+57r/FWeA60aUJo5WIP0rj8
z6GqFT9IWaBrJtBU1YoxuyTH64yih6ljvm2skIEGlQYS+GBL9K/Tx4mh4lAKVzD5
GXVqtyM/dQKBgFD0Ik8VewK+QLXe87TcUK3cCLkuXZ4vEWxGJonUErUpcKFu7dLw
7CK0iT3zv5u8ANS9joMZEpmzVVryZNPbUF3cSjq+yIS8W0/XKCsZkGCBcOqPlubB
oc3MQhM65HqxzYJkthQCTq8GxUM547zCNA2FavDaCGrdELdA5lM++t2VAoGAMLem
AH68bqlhwM5gc5ZMtn2D1ynn9v8oudz2AAsRDKph5dHhlTx5T+/8j9dh1ijznSfA
G1KngWGGKZzIq5c3ar//Jvy75bWsUdEG8saRkCqgpo16Y9ZyXpLqrg1TfCD+ZFSz
2l5ZNKZZ4TkJ1y31qvaS+X7tQ9xQ0DgXGHgBIIUCgYABBBddUXpOyG54HvFHIgxS
esBBkpM0uy3vOkyfMown2GCjKZaXS5kEmRwU9WQQKLPf2ieALgYEf87YGWmPNZNF
tG5DoNhTMsrYORB11tuuBR1e6lrG/aoOkP/4udWC8d4Yp9wnkEu0l6X/kMfq2lb1
67bBVmHqKJ0t8rytHzkP0Q==
-----END PRIVATE KEY-----
Certificate:
    Data:
        Version: 3 (0x2)
        Serial Number:
            b0:6b:93:92:e3:5c:8d:7e:ed:9d:c8:96:59:c5:c2:6b
        Signature Algorithm: sha256WithRSAEncryption
        Issuer: C=US, ST=California, L=Mountain View, O=Test CA, CN=Test Root CA
        Validity
            Not Before: Jan  1 00:00:00 1 GMT
            Not After : Jan  1 00:00:00 1 GMT
        Subject: CN=Leaf Certificate
        Subject Public Key Info:
            Public Key Algorithm: rsaEncryption
                Public-Key: (2048 bit)
                Modulus:
                    00:e0:53:f4:f3:98:c1:14:33:02:c8:a4:6d:fe:aa:
                    2a:f7:94:3d:a6:6f:00:df:3b:de:4c:9f:a3:ea:07:
                    d4:ac:e5:5b:0d:d1:ac:e0:ed:f9:c5:98:1d:35:2d:
                    e5:b3:49:97:14:85:44:0f:dc:4c:d2:67:08:88:01:
                    a5:d8:a7:eb:93:d1:6a:a1:f7:51:e7:84:7e:52:2a:
                    7d:bc:6f:0e:d8:db:b6:a6:3e:de:dc:f5:a4:68:96:
                    44:11:85:02:ed:47:12:df:b8:60:71:95:7b:62:87:
                    68:7a:44:56:09:d5:b4:c8:f1:f6:c9:46:92:8b:68:
                    e8:83:d5:d5:86:71:23:c3:80:1e:bf:6c:01:c7:d2:
                    a4:bc:40:6d:e0:e3:c0:2e:30:78:bd:ad:dd:25:66:
                    d3:f5:07:07:56:d7:ce:e2:72:c5:25:7d:0c:e1:a7:
                    6f:00:a8:da:ab:4b:54:43:09:64:a4:b6:52:38:2f:
                    b7:cc:01:dd:1c:03:27:03:47:bf:df:e6:37:b0:ed:
                    18:dc:51:0b:d4:75:22:df:50:7b:3c:eb:37:39:1c:
                    9b:6f:08:7b:a7:05:ac:8c:43:f7:f1:da:51:06:b3:
                    82:45:3e:c8:81:73:9e:b0:a5:cf:76:96:af:81:2c:
                    ac:01:2a:4a:58:4b:1d:be:ff:1f:85:c2:27:de:f1:
                    78:0b
                Exponent: 65537 (0x10001)
        X509v3 extensions:
            X509v3 Basic Constraints: critical
                CA:FALSE
            X509v3 Subject Key Identifier: 
                E2:E0:A4:73:95:9B:E9:6E:FD:CE:29:C4:6F:07:81:0B:96:BD:47:BA
            X509v3 Authority Key Identifier: 
                9B:26:0B:8A:98:A9:BB:1D:B9:1F:1C:E3:1A:40:33:ED:8E:17:88:AB
            X509v3 Extended Key Usage: 
                TLS Web Server Authentication, TLS Web Client Authentication
            X509v3 Subject Alternative Name: 
                IP Address:127.0.0.1
    Signature Algorithm: sha256WithRSAEncryption
    Signature Value:
        bf:da:fe:8f:5a:ca:5d:f5:9a:90:19:34:84:15:ab:46:80:62:
        ed:95:c4:2e:04:ae:7b:0d:b7:a9:be:f6:28:8e:eb:a2:84:3e:
        04:a6:b5:d4:61:a3:69:5c:ce:02:1e:4b:9a:40:58:19:c9:5f:
        86:c2:a4:39:d9:c9:8e:ab:3a:b7:97:86:4e:96:73:dd:7c:84:
        05:e8:2b:0c:83:a4:d0:69:1a:bf:c0:c1:a9:ed:c6:71:ec:bd:
        94:56:4c:d4:0a:72:f2:62:69:57:67:b9:93:03:c5:43:a2:1b:
        c2:20:36:6f:f1:ae:47:5d:7f:4f:65:a9:ad:30:60:93:50:34:
        fe:8d:38:2a:b8:b3:a6:19:0c:de:30:e7:bd:61:cd:ff:b9:5e:
        5d:06:85:52:95:d5:a0:76:14:02:58:43:e6:83:72:31:b1:41:
        7d:20:7b:a8:db:7f:b2:36:ea:35:c0:70:c0:c1:c5:6f:fd:48:
        41:bf:ff:67:c9:16:c4:a4:77:99:94:0b:ec:55:bc:91:b9:3d:
        dc:68:52:b0:ad:a4:e3:c7:55:e5:67:37:52:c0:ce:1f:3d:19:
        bb:00:91:4a:44:bb:40:eb:f5:7e:a7:7c:49:fd:26:16:a7:cd:
        69:3d:d4:4b:37:5e:d9:cf:30:8a:8d:83:84:d5:5b:f7:4d:4d:
        85:11:26:78
-----BEGIN CERTIFICATE-----
MIIDjjCCAnagAwIBAgIRALBrk5LjXI1+7Z3IllnFwmswDQYJKoZIhvcNAQELBQAw
YzELMAkGA1UEBhMCVVMxEzARBgNVBAgMCkNhbGlmb3JuaWExFjAUBgNVBAcMDU1v
dW50YWluIFZpZXcxEDAOBgNVBAoMB1Rlc3QgQ0ExFTATBgNVBAMMDFRlc3QgUm9v
dCBDQTAiGA8wMDAxMDEwMTAwMDAwMFoYDzAwMDEwMTAxMDAwMDAwWjAbMRkwFwYD
VQQDDBBMZWFmIENlcnRpZmljYXRlMIIBIjANBgkqhkiG9w0BAQEFAAOCAQ8AMIIB
CgKCAQEA4FP085jBFDMCyKRt/qoq95Q9pm8A3zveTJ+j6gfUrOVbDdGs4O35xZgd
NS3ls0mXFIVED9xM0mcIiAGl2Kfrk9FqofdR54R+Uip9vG8O2Nu2pj7e3PWkaJZE
EYUC7UcS37hgcZV7YodoekRWCdW0yPH2yUaSi2jog9XVhnEjw4Aev2wBx9KkvEBt
4OPALjB4va3dJWbT9QcHVtfO4nLFJX0M4advAKjaq0tUQwlkpLZSOC+3zAHdHAMn
A0e/3+Y3sO0Y3FEL1HUi31B7POs3ORybbwh7pwWsjEP38dpRBrOCRT7IgXOesKXP
dpavgSysASpKWEsdvv8fhcIn3vF4CwIDAQABo4GAMH4wDAYDVR0TAQH/BAIwADAd
BgNVHQ4EFgQU4uCkc5Wb6W79zinEbweBC5a9R7owHwYDVR0jBBgwFoAUmyYLipip
ux25HxzjGkAz7Y4XiKswHQYDVR0lBBYwFAYIKwYBBQUHAwEGCCsGAQUFBwMCMA8G
A1UdEQQIMAaHBH8AAAEwDQYJKoZIhvcNAQELBQADggEBAL/a/o9ayl31mpAZNIQV
q0aAYu2VxC4ErnsNt6m+9iiO66KEPgSmtdRho2lczgIeS5pAWBnJX4bCpDnZyY6r
OreXhk6Wc918hAXoKwyDpNBpGr/AwantxnHsvZRWTNQKcvJiaVdnuZMDxUOiG8Ig
Nm/xrkddf09lqa0wYJNQNP6NOCq4s6YZDN4w571hzf+5Xl0GhVKV1aB2FAJYQ+aD
cjGxQX0ge6jbf7I26jXAcMDBxW/9SEG//2fJFsSkd5mUC+xVvJG5PdxoUrCtpOPH
VeVnN1LAzh89GbsAkUpEu0Dr9X6nfEn9JhanzWk91Es3XtnPMIqNg4TVW/dNTYUR
Jng=
-----END CERTIFICATE-----
