-----BEGIN PRIVATE KEY-----
MIIEvAIBADANBgkqhkiG9w0BAQEFAASCBKYwggSiAgEAAoIBAQDgU/TzmMEUMwLI
pG3+qir3lD2mbwDfO95Mn6PqB9Ss5VsN0azg7fnFmB01LeWzSZcUhUQP3EzSZwiI
AaXYp+uT0Wqh91HnhH5SKn28bw7Y27amPt7c9aRolkQRhQLtRxLfuGBxlXtih2h6
RFYJ1bTI8fbJRpKLaOiD1dWGcSPDgB6/bAHH0qS8QG3g48AuMHi9rd0lZtP1BwdW
187icsUlfQzhp28AqNqrS1RDCWSktlI4L7fMAd0cAycDR7/f5jew7RjcUQvUdSLf
UHs86zc5HJtvCHunBayMQ/fx2lEGs4JFPsiBc56wpc92lq+BLKwBKkpYSx2+/x+F
wife8XgLAgMBAAECggEAO0gUmHdKtvLQDoPdiYogtrKXJC97dILWuTsKzyLoohQu
XtWFMR/SfNQ5C7+oTxvocATTurlGF+ggigidckbV64dQ/aJlI6CQ3VfbSHu02bwe
ZYqBzLShkP382QBkiJ3asAKCgiG1rJEKHB2I+ypdjyjaRdB/k5XStFxDBDdL8zKe
kL1hytf1ALxYBQJ3TXcoIqlpzz6v+JnZTAuu4vrySfffyFTrytIwf/KGlBACBqXe
oV+DK586PiyC0m1Hhy1rLTi2/IT4t4j3KO+c/OnpWkMEg1G/Ojy1zPMsMHr1VO9t
UWxhEIYOLQVUOT+2ltO4bRJcgEPHSxlIY23qalJgqQKBgQD9oZwHPhLZg439Zr9O
Zgl5fFkPe4SxqLY+ggE5O81+3RgL8GyAuy9oDtUGcw8L9tpKcBflqH4jEvUvT1/m
8BGKIQteqcKbY0C+KfPvq77R4k2KqmxpKF5f4BS/9O7cgzJZwhSFKDLtcKtDIPUK
3eoERuPB4/cmhQyb+/TKofZpfwKBgQDibEm1+nYj3tIXDxK3hZHjPz0s9vYV84py
zg3HjuEmdacnhNPQQQpNG83RMjEnnBvHWH2vxRWyD+57r/FWeA60aUJo5WIP0rj8
z6GqFT9IWaBrJtBU1YoxuyTH64yih6ljvm2skIEGlQYS+GBL9K/Tx4mh4lAKVzD5
GXVqtyM/dQKBgFD0Ik8VewK+QLXe87TcUK3cCLkuXZ4vEWxGJonUErUpcKFu7dLw
7CK0iT3zv5u8ANS9joMZEpmzVVryZNPbUF3cSjq+yIS8W0/XKCsZkGCBcOqPlubB
oc3MQhM65HqxzYJkthQCTq8GxUM547zCNA2FavDaCGrdELdA5lM++t2VAoGAMLem
AH68bqlhwM5gc5ZMtn2D1ynn9v8oudz2AAsRDKph5dHhlTx5T+/8j9dh1ijznSfA
G1KngWGGKZzIq5c3ar//Jvy75bWsUdEG8saRkCqgpo16Y9ZyXpLqrg1TfCD+ZFSz
2l5ZNKZZ4TkJ1y31qvaS+X7tQ9xQ0DgXGHgBIIUCgYABBBddUXpOyG54HvFHIgxS
esBBkpM0uy3vOkyfMown2GCjKZaXS5kEmRwU9WQQKLPf2ieALgYEf87YGWmPNZNF
tG5DoNhTMsrYORB11tuuBR1e6lrG/aoOkP/4udWC8d4Yp9wnkEu0l6X/kMfq2lb1
67bBVmHqKJ0t8rytHzkP0Q==
-----END PRIVATE KEY-----
Certificate:
    Data:
        Version: 3 (0x2)
        Serial Number:
            cf:95:70:1c:b6:6c:07:bb:a4:de:63:24:47:3b:4e:c5
        Signature Algorithm: sha256WithRSAEncryption
        Issuer: C=US, ST=California, L=Mountain View, O=Test CA, CN=Test Root CA
        Validity
            Not Before: Jan  1 00:00:00 1 GMT
            Not After : Jan  1 00:00:00 1 GMT
        Subject: CN=Leaf Certificate
        Subject Public Key Info:
            Public Key Algorithm: rsaEncryption
                Public-Key: (2048 bit)
                Modulus:
                    00:e0:53:f4:f3:98:c1:14:33:02:c8:a4:6d:fe:aa:
                    2a:f7:94:3d:a6:6f:00:df:3b:de:4c:9f:a3:ea:07:
                    d4:ac:e5:5b:0d:d1:ac:e0:ed:f9:c5:98:1d:35:2d:
                    e5:b3:49:97:14:85:44:0f:dc:4c:d2:67:08:88:01:
                    a5:d8:a7:eb:93:d1:6a:a1:f7:51:e7:84:7e:52:2a:
                    7d:bc:6f:0e:d8:db:b6:a6:3e:de:dc:f5:a4:68:96:
                    44:11:85:02:ed:47:12:df:b8:60:71:95:7b:62:87:
                    68:7a:44:56:09:d5:b4:c8:f1:f6:c9:46:92:8b:68:
                    e8:83:d5:d5:86:71:23:c3:80:1e:bf:6c:01:c7:d2:
                    a4:bc:40:6d:e0:e3:c0:2e:30:78:bd:ad:dd:25:66:
                    d3:f5:07:07:56:d7:ce:e2:72:c5:25:7d:0c:e1:a7:
                    6f:00:a8:da:ab:4b:54:43:09:64:a4:b6:52:38:2f:
                    b7:cc:01:dd:1c:03:27:03:47:bf:df:e6:37:b0:ed:
                    18:dc:51:0b:d4:75:22:df:50:7b:3c:eb:37:39:1c:
                    9b:6f:08:7b:a7:05:ac:8c:43:f7:f1:da:51:06:b3:
                    82:45:3e:c8:81:73:9e:b0:a5:cf:76:96:af:81:2c:
                    ac:01:2a:4a:58:4b:1d:be:ff:1f:85:c2:27:de:f1:
                    78:0b
                Exponent: 65537 (0x10001)
        X509v3 extensions:
            X509v3 Basic Constraints: critical
                CA:FALSE
            X509v3 Subject Key Identifier: 
                E2:E0:A4:73:95:9B:E9:6E:FD:CE:29:C4:6F:07:81:0B:96:BD:47:BA
            X509v3 Authority Key Identifier: 
                9B:26:0B:8A:98:A9:BB:1D:B9:1F:1C:E3:1A:40:33:ED:8E:17:88:AB
            X509v3 Extended Key Usage: 
                TLS Web Server Authentication, TLS Web Client Authentication
            X509v3 Subject Alternative Name: 
                IP Address:127.0.0.1
    Signature Algorithm: sha256WithRSAEncryption
    Signature Value:
        5d:48:86:d0:0c:6f:b8:c2:4b:0f:8d:1e:6a:b6:83:fe:e4:93:
        41:30:86:f7:bd:cc:40:8d:7b:f6:ee:eb:e2:93:26:0d:0e:53:
        89:d0:e4:41:6a:c8:1e:80:f5:6b:ec:b3:80:e8:0e:3c:76:e4:
        b3:cc:66:0c:fe:82:3a:a8:b4:36:2c:09:fe:49:0f:03:1e:5f:
        f0:00:63:10:d5:81:fd:27:dd:18:47:cc:4e:d3:2b:6b:c7:75:
        84:f3:a5:3f:fb:e6:eb:3c:07:bc:72:e6:96:11:c1:6b:3e:3c:
        46:05:bd:05:e2:6a:48:91:7c:09:0f:4d:2f:09:62:d9:6d:f5:
        dc:e0:56:06:17:8e:65:b8:66:c5:24:de:8a:fb:3a:67:a7:ac:
        8a:fd:2c:c2:3a:f1:10:61:f6:ce:8e:da:08:e7:8d:1b:64:2b:
        cf:15:50:bc:16:ef:58:30:af:9d:f6:fc:24:07:9c:ce:22:d0:
        85:66:7d:72:09:fa:17:ae:bb:c3:66:a1:14:97:17:bd:24:53:
        7d:13:70:60:d6:fe:b2:12:6c:5d:3b:44:91:ea:22:d0:0c:58:
        cd:e9:c2:98:27:0a:8f:ca:e9:33:b6:06:a3:4d:d3:b6:27:53:
        a8:78:9e:39:57:94:9e:38:25:bd:94:75:5b:34:06:38:c1:57:
        2d:84:2b:7c
-----BEGIN CERTIFICATE-----
MIIDjjCCAnagAwIBAgIRAM+VcBy2bAe7pN5jJEc7TsUwDQYJKoZIhvcNAQELBQAw
YzELMAkGA1UEBhMCVVMxEzARBgNVBAgMCkNhbGlmb3JuaWExFjAUBgNVBAcMDU1v
dW50YWluIFZpZXcxEDAOBgNVBAoMB1Rlc3QgQ0ExFTATBgNVBAMMDFRlc3QgUm9v
dCBDQTAiGA8wMDAxMDEwMTAwMDAwMFoYDzAwMDEwMTAxMDAwMDAwWjAbMRkwFwYD
VQQDDBBMZWFmIENlcnRpZmljYXRlMIIBIjANBgkqhkiG9w0BAQEFAAOCAQ8AMIIB
CgKCAQEA4FP085jBFDMCyKRt/qoq95Q9pm8A3zveTJ+j6gfUrOVbDdGs4O35xZgd
NS3ls0mXFIVED9xM0mcIiAGl2Kfrk9FqofdR54R+Uip9vG8O2Nu2pj7e3PWkaJZE
EYUC7UcS37hgcZV7YodoekRWCdW0yPH2yUaSi2jog9XVhnEjw4Aev2wBx9KkvEBt
4OPALjB4va3dJWbT9QcHVtfO4nLFJX0M4advAKjaq0tUQwlkpLZSOC+3zAHdHAMn
A0e/3+Y3sO0Y3FEL1HUi31B7POs3ORybbwh7pwWsjEP38dpRBrOCRT7IgXOesKXP
dpavgSysASpKWEsdvv8fhcIn3vF4CwIDAQABo4GAMH4wDAYDVR0TAQH/BAIwADAd
BgNVHQ4EFgQU4uCkc5Wb6W79zinEbweBC5a9R7owHwYDVR0jBBgwFoAUmyYLipip
ux25HxzjGkAz7Y4XiKswHQYDVR0lBBYwFAYIKwYBBQUHAwEGCCsGAQUFBwMCMA8G
A1UdEQQIMAaHBH8AAAEwDQYJKoZIhvcNAQELBQADggEBAF1IhtAMb7jCSw+NHmq2
g/7kk0Ewhve9zECNe/bu6+KTJg0OU4nQ5EFqyB6A9Wvss4DoDjx25LPMZgz+gjqo
tDYsCf5JDwMeX/AAYxDVgf0n3RhHzE7TK2vHdYTzpT/75us8B7xy5pYRwWs+PEYF
vQXiakiRfAkPTS8JYtlt9dzgVgYXjmW4ZsUk3or7OmenrIr9LMI68RBh9s6O2gjn
jRtkK88VULwW71gwr532/CQHnM4i0IVmfXIJ+heuu8NmoRSXF70kU30TcGDW/rIS
bF07RJHqItAMWM3pwpgnCo/K6TO2BqNN07YnU6h4njlXlJ44Jb2UdVs0BjjBVy2E
K3w=
-----END CERTIFICATE-----
