-----BEGIN PRIVATE KEY-----
MIIEvAIBADANBgkqhkiG9w0BAQEFAASCBKYwggSiAgEAAoIBAQDgU/TzmMEUMwLI
pG3+qir3lD2mbwDfO95Mn6PqB9Ss5VsN0azg7fnFmB01LeWzSZcUhUQP3EzSZwiI
AaXYp+uT0Wqh91HnhH5SKn28bw7Y27amPt7c9aRolkQRhQLtRxLfuGBxlXtih2h6
RFYJ1bTI8fbJRpKLaOiD1dWGcSPDgB6/bAHH0qS8QG3g48AuMHi9rd0lZtP1BwdW
187icsUlfQzhp28AqNqrS1RDCWSktlI4L7fMAd0cAycDR7/f5jew7RjcUQvUdSLf
UHs86zc5HJtvCHunBayMQ/fx2lEGs4JFPsiBc56wpc92lq+BLKwBKkpYSx2+/x+F
wife8XgLAgMBAAECggEAO0gUmHdKtvLQDoPdiYogtrKXJC97dILWuTsKzyLoohQu
XtWFMR/SfNQ5C7+oTxvocATTurlGF+ggigidckbV64dQ/aJlI6CQ3VfbSHu02bwe
ZYqBzLShkP382QBkiJ3asAKCgiG1rJEKHB2I+ypdjyjaRdB/k5XStFxDBDdL8zKe
kL1hytf1ALxYBQJ3TXcoIqlpzz6v+JnZTAuu4vrySfffyFTrytIwf/KGlBACBqXe
oV+DK586PiyC0m1Hhy1rLTi2/IT4t4j3KO+c/OnpWkMEg1G/Ojy1zPMsMHr1VO9t
UWxhEIYOLQVUOT+2ltO4bRJcgEPHSxlIY23qalJgqQKBgQD9oZwHPhLZg439Zr9O
Zgl5fFkPe4SxqLY+ggE5O81+3RgL8GyAuy9oDtUGcw8L9tpKcBflqH4jEvUvT1/m
8BGKIQteqcKbY0C+KfPvq77R4k2KqmxpKF5f4BS/9O7cgzJZwhSFKDLtcKtDIPUK
3eoERuPB4/cmhQyb+/TKofZpfwKBgQDibEm1+nYj3tIXDxK3hZHjPz0s9vYV84py
zg3HjuEmdacnhNPQQQpNG83RMjEnnBvHWH2vxRWyD+57r/FWeA60aUJo5WIP0rj8
z6GqFT9IWaBrJtBU1YoxuyTH64yih6ljvm2skIEGlQYS+GBL9K/Tx4mh4lAKVzD5
GXVqtyM/dQKBgFD0Ik8VewK+QLXe87TcUK3cCLkuXZ4vEWxGJonUErUpcKFu7dLw
7CK0iT3zv5u8ANS9joMZEpmzVVryZNPbUF3cSjq+yIS8W0/XKCsZkGCBcOqPlubB
oc3MQhM65HqxzYJkthQCTq8GxUM547zCNA2FavDaCGrdELdA5lM++t2VAoGAMLem
AH68bqlhwM5gc5ZMtn2D1ynn9v8oudz2AAsRDKph5dHhlTx5T+/8j9dh1ijznSfA
G1KngWGGKZzIq5c3ar//Jvy75bWsUdEG8saRkCqgpo16Y9ZyXpLqrg1TfCD+ZFSz
2l5ZNKZZ4TkJ1y31qvaS+X7tQ9xQ0DgXGHgBIIUCgYABBBddUXpOyG54HvFHIgxS
esBBkpM0uy3vOkyfMown2GCjKZaXS5kEmRwU9WQQKLPf2ieALgYEf87YGWmPNZNF
tG5DoNhTMsrYORB11tuuBR1e6lrG/aoOkP/4udWC8d4Yp9wnkEu0l6X/kMfq2lb1
67bBVmHqKJ0t8rytHzkP0Q==
-----END PRIVATE KEY-----
Certificate:
    Data:
        Version: 3 (0x2)
        Serial Number:
            12:f6:d9:f1:80:1b:50:9f:64:09:c8:ea:2f:16:33:a7
        Signature Algorithm: sha256WithRSAEncryption
        Issuer: C=US, ST=California, L=Mountain View, O=Test CA, CN=Test Root CA
        Validity
            Not Before: Jan  1 00:00:00 1 GMT
            Not After : Jan  1 00:00:00 1 GMT
        Subject: CN=Leaf Certificate
        Subject Public Key Info:
            Public Key Algorithm: rsaEncryption
                RSA Public-Key: (2048 bit)
                Modulus:
                    00:e0:53:f4:f3:98:c1:14:33:02:c8:a4:6d:fe:aa:
                    2a:f7:94:3d:a6:6f:00:df:3b:de:4c:9f:a3:ea:07:
                    d4:ac:e5:5b:0d:d1:ac:e0:ed:f9:c5:98:1d:35:2d:
                    e5:b3:49:97:14:85:44:0f:dc:4c:d2:67:08:88:01:
                    a5:d8:a7:eb:93:d1:6a:a1:f7:51:e7:84:7e:52:2a:
                    7d:bc:6f:0e:d8:db:b6:a6:3e:de:dc:f5:a4:68:96:
                    44:11:85:02:ed:47:12:df:b8:60:71:95:7b:62:87:
                    68:7a:44:56:09:d5:b4:c8:f1:f6:c9:46:92:8b:68:
                    e8:83:d5:d5:86:71:23:c3:80:1e:bf:6c:01:c7:d2:
                    a4:bc:40:6d:e0:e3:c0:2e:30:78:bd:ad:dd:25:66:
                    d3:f5:07:07:56:d7:ce:e2:72:c5:25:7d:0c:e1:a7:
                    6f:00:a8:da:ab:4b:54:43:09:64:a4:b6:52:38:2f:
                    b7:cc:01:dd:1c:03:27:03:47:bf:df:e6:37:b0:ed:
                    18:dc:51:0b:d4:75:22:df:50:7b:3c:eb:37:39:1c:
                    9b:6f:08:7b:a7:05:ac:8c:43:f7:f1:da:51:06:b3:
                    82:45:3e:c8:81:73:9e:b0:a5:cf:76:96:af:81:2c:
                    ac:01:2a:4a:58:4b:1d:be:ff:1f:85:c2:27:de:f1:
                    78:0b
                Exponent: 65537 (0x10001)
        X509v3 extensions:
            X509v3 Basic Constraints: critical
                CA:FALSE
            X509v3 Subject Key Identifier: 
                E2:E0:A4:73:95:9B:E9:6E:FD:CE:29:C4:6F:07:81:0B:96:BD:47:BA
            X509v3 Authority Key Identifier: 
                keyid:9B:26:0B:8A:98:A9:BB:1D:B9:1F:1C:E3:1A:40:33:ED:8E:17:88:AB

            X509v3 Extended Key Usage: 
                TLS Web Server Authentication, TLS Web Client Authentication
            X509v3 Subject Alternative Name: 
                IP Address:127.0.0.1
    Signature Algorithm: sha256WithRSAEncryption
         bd:75:cd:e4:f6:af:96:34:3f:cd:dc:9a:96:bf:61:69:cd:da:
         8f:31:37:b8:65:2f:bc:f4:b2:93:0d:df:0c:12:57:b8:2a:3e:
         1c:1c:ee:40:a6:82:8f:0b:9c:57:ca:51:76:b7:48:64:8c:23:
         65:4a:59:33:b6:66:87:c5:90:7d:f2:f7:56:f7:e6:69:21:03:
         95:36:39:2d:4b:84:2b:c7:c5:22:54:fc:f2:3a:4a:73:1e:59:
         67:9f:a0:9c:77:53:54:ff:6f:8f:b1:88:b3:51:9d:e0:1a:61:
         cf:90:37:3a:7f:a0:36:94:ab:11:73:0f:82:f6:1d:38:08:d2:
         e4:ef:0d:62:5b:94:ca:d6:11:e0:27:d4:85:29:c6:62:16:c0:
         2a:e5:ce:ec:35:81:3f:75:04:ba:11:b1:ee:a7:69:f8:44:1a:
         cd:7c:56:d3:2d:f7:bf:07:39:d1:88:77:8d:44:7d:ea:04:27:
         1e:32:e6:1a:39:40:50:56:4e:80:ff:4d:91:d3:c7:13:d8:7f:
         9f:aa:bf:34:6b:ec:15:d0:e2:f9:85:36:c0:e6:53:dd:f2:c7:
         32:87:80:40:2a:44:85:60:1a:55:fb:79:76:54:0b:2a:07:1b:
         30:39:5e:74:60:93:97:ee:9d:1a:68:0d:d8:91:4e:c3:97:14:
         9c:da:ef:80
-----BEGIN CERTIFICATE-----
MIIDjTCCAnWgAwIBAgIQEvbZ8YAbUJ9kCcjqLxYzpzANBgkqhkiG9w0BAQsFADBj
MQswCQYDVQQGEwJVUzETMBEGA1UECAwKQ2FsaWZvcm5pYTEWMBQGA1UEBwwNTW91
bnRhaW4gVmlldzEQMA4GA1UECgwHVGVzdCBDQTEVMBMGA1UEAwwMVGVzdCBSb290
IENBMCIYDzAwMDEwMTAxMDAwMDAwWhgPMDAwMTAxMDEwMDAwMDBaMBsxGTAXBgNV
BAMMEExlYWYgQ2VydGlmaWNhdGUwggEiMA0GCSqGSIb3DQEBAQUAA4IBDwAwggEK
AoIBAQDgU/TzmMEUMwLIpG3+qir3lD2mbwDfO95Mn6PqB9Ss5VsN0azg7fnFmB01
LeWzSZcUhUQP3EzSZwiIAaXYp+uT0Wqh91HnhH5SKn28bw7Y27amPt7c9aRolkQR
hQLtRxLfuGBxlXtih2h6RFYJ1bTI8fbJRpKLaOiD1dWGcSPDgB6/bAHH0qS8QG3g
48AuMHi9rd0lZtP1BwdW187icsUlfQzhp28AqNqrS1RDCWSktlI4L7fMAd0cAycD
R7/f5jew7RjcUQvUdSLfUHs86zc5HJtvCHunBayMQ/fx2lEGs4JFPsiBc56wpc92
lq+BLKwBKkpYSx2+/x+Fwife8XgLAgMBAAGjgYAwfjAMBgNVHRMBAf8EAjAAMB0G
A1UdDgQWBBTi4KRzlZvpbv3OKcRvB4ELlr1HujAfBgNVHSMEGDAWgBSbJguKmKm7
HbkfHOMaQDPtjheIqzAdBgNVHSUEFjAUBggrBgEFBQcDAQYIKwYBBQUHAwIwDwYD
VR0RBAgwBocEfwAAATANBgkqhkiG9w0BAQsFAAOCAQEAvXXN5PavljQ/zdyalr9h
ac3ajzE3uGUvvPSykw3fDBJXuCo+HBzuQKaCjwucV8pRdrdIZIwjZUpZM7Zmh8WQ
ffL3VvfmaSEDlTY5LUuEK8fFIlT88jpKcx5ZZ5+gnHdTVP9vj7GIs1Gd4Bphz5A3
On+gNpSrEXMPgvYdOAjS5O8NYluUytYR4CfUhSnGYhbAKuXO7DWBP3UEuhGx7qdp
+EQazXxW0y33vwc50Yh3jUR96gQnHjLmGjlAUFZOgP9NkdPHE9h/n6q/NGvsFdDi
+YU2wOZT3fLHMoeAQCpEhWAaVft5dlQLKgcbMDledGCTl+6dGmgN2JFOw5cUnNrv
gA==
-----END CERTIFICATE-----
