-----BEGIN PRIVATE KEY-----
MIIEvAIBADANBgkqhkiG9w0BAQEFAASCBKYwggSiAgEAAoIBAQDgU/TzmMEUMwLI
pG3+qir3lD2mbwDfO95Mn6PqB9Ss5VsN0azg7fnFmB01LeWzSZcUhUQP3EzSZwiI
AaXYp+uT0Wqh91HnhH5SKn28bw7Y27amPt7c9aRolkQRhQLtRxLfuGBxlXtih2h6
RFYJ1bTI8fbJRpKLaOiD1dWGcSPDgB6/bAHH0qS8QG3g48AuMHi9rd0lZtP1BwdW
187icsUlfQzhp28AqNqrS1RDCWSktlI4L7fMAd0cAycDR7/f5jew7RjcUQvUdSLf
UHs86zc5HJtvCHunBayMQ/fx2lEGs4JFPsiBc56wpc92lq+BLKwBKkpYSx2+/x+F
wife8XgLAgMBAAECggEAO0gUmHdKtvLQDoPdiYogtrKXJC97dILWuTsKzyLoohQu
XtWFMR/SfNQ5C7+oTxvocATTurlGF+ggigidckbV64dQ/aJlI6CQ3VfbSHu02bwe
ZYqBzLShkP382QBkiJ3asAKCgiG1rJEKHB2I+ypdjyjaRdB/k5XStFxDBDdL8zKe
kL1hytf1ALxYBQJ3TXcoIqlpzz6v+JnZTAuu4vrySfffyFTrytIwf/KGlBACBqXe
oV+DK586PiyC0m1Hhy1rLTi2/IT4t4j3KO+c/OnpWkMEg1G/Ojy1zPMsMHr1VO9t
UWxhEIYOLQVUOT+2ltO4bRJcgEPHSxlIY23qalJgqQKBgQD9oZwHPhLZg439Zr9O
Zgl5fFkPe4SxqLY+ggE5O81+3RgL8GyAuy9oDtUGcw8L9tpKcBflqH4jEvUvT1/m
8BGKIQteqcKbY0C+KfPvq77R4k2KqmxpKF5f4BS/9O7cgzJZwhSFKDLtcKtDIPUK
3eoERuPB4/cmhQyb+/TKofZpfwKBgQDibEm1+nYj3tIXDxK3hZHjPz0s9vYV84py
zg3HjuEmdacnhNPQQQpNG83RMjEnnBvHWH2vxRWyD+57r/FWeA60aUJo5WIP0rj8
z6GqFT9IWaBrJtBU1YoxuyTH64yih6ljvm2skIEGlQYS+GBL9K/Tx4mh4lAKVzD5
GXVqtyM/dQKBgFD0Ik8VewK+QLXe87TcUK3cCLkuXZ4vEWxGJonUErUpcKFu7dLw
7CK0iT3zv5u8ANS9joMZEpmzVVryZNPbUF3cSjq+yIS8W0/XKCsZkGCBcOqPlubB
oc3MQhM65HqxzYJkthQCTq8GxUM547zCNA2FavDaCGrdELdA5lM++t2VAoGAMLem
AH68bqlhwM5gc5ZMtn2D1ynn9v8oudz2AAsRDKph5dHhlTx5T+/8j9dh1ijznSfA
G1KngWGGKZzIq5c3ar//Jvy75bWsUdEG8saRkCqgpo16Y9ZyXpLqrg1TfCD+ZFSz
2l5ZNKZZ4TkJ1y31qvaS+X7tQ9xQ0DgXGHgBIIUCgYABBBddUXpOyG54HvFHIgxS
esBBkpM0uy3vOkyfMown2GCjKZaXS5kEmRwU9WQQKLPf2ieALgYEf87YGWmPNZNF
tG5DoNhTMsrYORB11tuuBR1e6lrG/aoOkP/4udWC8d4Yp9wnkEu0l6X/kMfq2lb1
67bBVmHqKJ0t8rytHzkP0Q==
-----END PRIVATE KEY-----
Certificate:
    Data:
        Version: 3 (0x2)
        Serial Number:
            5a:84:70:47:19:f5:1a:b1:2b:02:fc:31:3f:08:cd:34
        Signature Algorithm: sha256WithRSAEncryption
        Issuer: C=US, ST=California, L=Mountain View, O=Test CA, CN=Test Root CA
        Validity
            Not Before: Jan  1 00:00:00 1 GMT
            Not After : Jan  1 00:00:00 1 GMT
        Subject: CN=Leaf Certificate
        Subject Public Key Info:
            Public Key Algorithm: rsaEncryption
                Public-Key: (2048 bit)
                Modulus:
                    00:e0:53:f4:f3:98:c1:14:33:02:c8:a4:6d:fe:aa:
                    2a:f7:94:3d:a6:6f:00:df:3b:de:4c:9f:a3:ea:07:
                    d4:ac:e5:5b:0d:d1:ac:e0:ed:f9:c5:98:1d:35:2d:
                    e5:b3:49:97:14:85:44:0f:dc:4c:d2:67:08:88:01:
                    a5:d8:a7:eb:93:d1:6a:a1:f7:51:e7:84:7e:52:2a:
                    7d:bc:6f:0e:d8:db:b6:a6:3e:de:dc:f5:a4:68:96:
                    44:11:85:02:ed:47:12:df:b8:60:71:95:7b:62:87:
                    68:7a:44:56:09:d5:b4:c8:f1:f6:c9:46:92:8b:68:
                    e8:83:d5:d5:86:71:23:c3:80:1e:bf:6c:01:c7:d2:
                    a4:bc:40:6d:e0:e3:c0:2e:30:78:bd:ad:dd:25:66:
                    d3:f5:07:07:56:d7:ce:e2:72:c5:25:7d:0c:e1:a7:
                    6f:00:a8:da:ab:4b:54:43:09:64:a4:b6:52:38:2f:
                    b7:cc:01:dd:1c:03:27:03:47:bf:df:e6:37:b0:ed:
                    18:dc:51:0b:d4:75:22:df:50:7b:3c:eb:37:39:1c:
                    9b:6f:08:7b:a7:05:ac:8c:43:f7:f1:da:51:06:b3:
                    82:45:3e:c8:81:73:9e:b0:a5:cf:76:96:af:81:2c:
                    ac:01:2a:4a:58:4b:1d:be:ff:1f:85:c2:27:de:f1:
                    78:0b
                Exponent: 65537 (0x10001)
        X509v3 extensions:
            X509v3 Basic Constraints: critical
                CA:FALSE
            X509v3 Subject Key Identifier: 
                E2:E0:A4:73:95:9B:E9:6E:FD:CE:29:C4:6F:07:81:0B:96:BD:47:BA
            X509v3 Authority Key Identifier: 
                9B:26:0B:8A:98:A9:BB:1D:B9:1F:1C:E3:1A:40:33:ED:8E:17:88:AB
            X509v3 Extended Key Usage: 
                TLS Web Server Authentication, TLS Web Client Authentication
            X509v3 Subject Alternative Name: 
                IP Address:127.0.0.1
    Signature Algorithm: sha256WithRSAEncryption
    Signature Value:
        9a:37:ab:5b:4a:2a:e6:5a:fa:0a:39:2f:15:0b:42:d5:de:e2:
        65:cc:3d:29:52:73:69:b8:07:bb:ee:14:74:72:40:41:23:98:
        a2:a4:de:1e:85:da:ff:43:14:02:e8:ed:b5:65:cb:98:57:31:
        6b:4f:aa:9a:b8:29:83:01:ad:21:a1:07:16:27:62:31:42:51:
        d6:ec:68:61:c8:be:93:63:b5:ee:4c:8f:f9:ec:3b:fb:de:7b:
        b4:3d:30:18:84:da:fb:9b:7b:b4:ba:1f:ac:5f:9a:ea:a1:98:
        82:89:56:bd:78:7d:f6:bb:ce:47:8a:e0:71:6a:33:be:45:c5:
        b5:84:b0:50:45:98:c0:dc:bd:7c:c0:dc:f7:c9:ba:d5:8e:f6:
        14:c0:ca:fc:b6:7b:09:29:b6:01:76:e9:10:24:b5:75:43:85:
        38:fc:ca:af:37:a5:d2:2b:ec:cd:06:e7:8a:47:a0:ed:29:2e:
        67:c7:48:46:98:18:c3:61:58:8e:77:fa:c7:45:03:6a:a3:8f:
        b3:12:6e:ec:f0:75:08:b2:1b:e3:b9:6e:8f:69:19:e7:c7:c5:
        54:19:b4:4b:eb:95:f4:a8:63:3e:a7:df:36:d0:4a:7b:6b:c2:
        cf:61:e7:18:56:f2:ec:55:cb:a1:6a:48:92:1d:eb:92:77:aa:
        7c:8b:bb:fb
-----BEGIN CERTIFICATE-----
MIIDjTCCAnWgAwIBAgIQWoRwRxn1GrErAvwxPwjNNDANBgkqhkiG9w0BAQsFADBj
MQswCQYDVQQGEwJVUzETMBEGA1UECAwKQ2FsaWZvcm5pYTEWMBQGA1UEBwwNTW91
bnRhaW4gVmlldzEQMA4GA1UECgwHVGVzdCBDQTEVMBMGA1UEAwwMVGVzdCBSb290
IENBMCIYDzAwMDEwMTAxMDAwMDAwWhgPMDAwMTAxMDEwMDAwMDBaMBsxGTAXBgNV
BAMMEExlYWYgQ2VydGlmaWNhdGUwggEiMA0GCSqGSIb3DQEBAQUAA4IBDwAwggEK
AoIBAQDgU/TzmMEUMwLIpG3+qir3lD2mbwDfO95Mn6PqB9Ss5VsN0azg7fnFmB01
LeWzSZcUhUQP3EzSZwiIAaXYp+uT0Wqh91HnhH5SKn28bw7Y27amPt7c9aRolkQR
hQLtRxLfuGBxlXtih2h6RFYJ1bTI8fbJRpKLaOiD1dWGcSPDgB6/bAHH0qS8QG3g
48AuMHi9rd0lZtP1BwdW187icsUlfQzhp28AqNqrS1RDCWSktlI4L7fMAd0cAycD
R7/f5jew7RjcUQvUdSLfUHs86zc5HJtvCHunBayMQ/fx2lEGs4JFPsiBc56wpc92
lq+BLKwBKkpYSx2+/x+Fwife8XgLAgMBAAGjgYAwfjAMBgNVHRMBAf8EAjAAMB0G
A1UdDgQWBBTi4KRzlZvpbv3OKcRvB4ELlr1HujAfBgNVHSMEGDAWgBSbJguKmKm7
HbkfHOMaQDPtjheIqzAdBgNVHSUEFjAUBggrBgEFBQcDAQYIKwYBBQUHAwIwDwYD
VR0RBAgwBocEfwAAATANBgkqhkiG9w0BAQsFAAOCAQEAmjerW0oq5lr6CjkvFQtC
1d7iZcw9KVJzabgHu+4UdHJAQSOYoqTeHoXa/0MUAujttWXLmFcxa0+qmrgpgwGt
IaEHFidiMUJR1uxoYci+k2O17kyP+ew7+957tD0wGITa+5t7tLofrF+a6qGYgolW
vXh99rvOR4rgcWozvkXFtYSwUEWYwNy9fMDc98m61Y72FMDK/LZ7CSm2AXbpECS1
dUOFOPzKrzel0ivszQbnikeg7SkuZ8dIRpgYw2FYjnf6x0UDaqOPsxJu7PB1CLIb
47luj2kZ58fFVBm0S+uV9KhjPqffNtBKe2vCz2HnGFby7FXLoWpIkh3rkneqfIu7
+w==
-----END CERTIFICATE-----
