-----BEGIN PRIVATE KEY-----
MIIEvQIBADANBgkqhkiG9w0BAQEFAASCBKcwggSjAgEAAoIBAQCmWNw2JdGmpJMI
zy07hge1zkTHW3/XEaZRmOyCTGwxRaMEVm/Bd9ZsONs82C3SJapHT/Sk844JmDfT
D3H2rClHewiOaKv8fhACZbaGTLAnBGoVI7M6GbgV8zsLHa3Yn0mxcvKvCN/IAqrL
8yotwP0osJfaSqkidMI6C2RlKsn0ZfdGfzypYZZfDCpmw/LH/mmHL3AMG2Y3ksU/
hUDY5CZFGD/OUyegl34Rh9xK7Cbr/5UOs+ouZkUKqszFgVkuChsOG1lxytOQ72/K
t4yoyoJVuPtK5bopeM7rzY5PnK+FpO8LZF4+fqDg5bCG8xkI+j/6Hkqb/LUWF4gN
OA7Dpl/VAgMBAAECggEAeqgjGDoisMHBOUmqjK1zmfcSd/1b8nWtMZWVLy6yyFIU
teoWVY3Lqdjyr5anksD7IcIvHkIIhcKbxyEoYz7m4TIzSO6dgnxhyaK+R6Dccqiq
oBPG4Bx+xJCpBLVJruUlLZcYoz/j4lM1JVWT0FDxWsN79RYASMvXO32S9ZXrfC1S
YZjVeUrjyrc7Y2Z6z/n89P9mfWUwqOuuH6fHpNHvBugteFB3pS2oclooOh3hXWIu
ZSHWOyX0wj0Rk1iuOBADqxhec/zR4nQ9IZi3nRbfNyoUYzf2qgqPcS9yROS9PZQw
rESmMXpVJ1aF9sFo0LA5KW2sT7qbVWeLwfF8nZvPgQKBgQDdoAdvu5BPTk4E2jg9
y/VfESKiVd1BStsw5DWBZtgDGDpLHtkoezcao0hJxGKAsnWJ1EqhqViNXEJcECi6
Xdr5EF525y9KdKCld7q9ZeQbvvg0QLHXYY0bQhPhbymosFg+qdJCHfn8Wwim8Ibc
JnjpzDdzSKEWELanUrSTEla1TQKBgQDAJe6I4CtEXaBXi06KQHnKHI+9uu1w0TBp
YuM2/3v7CVBcN/lkmK/tnM+RZqgEi/Nhy08uIfIQjWetq7FQjbLEsesy3zlqIlth
Kw4jCcdrPW3XTp/Ru7rUQUjBTWpDh/f1T41OzY4qE5X6v2MQkJP5a614Qi2kqFZ3
neZtpfNwqQKBgASoFR/q3/ham9cMQrxBqdEqigDBLxntGbfoQ5uJbqZ5/tePOV7Z
X+oGXkF2h99OYJvZwwushDjMJHTMvh5UVIKBLorvBpZY5vszDdBm8KkIlSx744C0
AwP8mnBVJpntwpzmco2DFbqQqxje2uaLRGUdLlkUwJW3Gi9f1H12mC3NAoGBAJOr
00HwfnAhQHxnfKn12WPCRZo8EgV1T65+qD75ZJBO3SqyfgGY8wQ7Uq7dZV1xLVBI
TwcWYZHlCvxHCpPtAqn2TtsfAWIXG4F29HtrJY6+fC9PprYqf/BmaALfez6BPciT
JfedNJgTy10VP45YftDet0fIHIoCMcnmWVSFiK1ZAoGABYToKrxvwdgzqRt22k0D
OcMTSQqpcO/WZfcpFK9leOLuKBNniow1PSYkymdVgCkSjrY3Oksxh/0V20H62oqU
bJMTvYZFpTcCQgcwSiyQD2o2PgKNxrxIfII4/9H8hjV99uXaafEWFky8ea6GEJaN
4PkKpNDj9dus6J2Hzat2c3E=
-----END PRIVATE KEY-----
Certificate:
    Data:
        Version: 3 (0x2)
        Serial Number:
            3e:2c:9d:be:b0:42:c8:cf:fc:99:42:d5:4d:41:6a:a9
        Signature Algorithm: sha256WithRSAEncryption
        Issuer: C=US, ST=California, L=Mountain View, O=Test CA, CN=Test Root CA
        Validity
            Not Before: Jan  1 00:00:00 1 GMT
            Not After : Jan  1 00:00:00 1 GMT
        Subject: CN=Leaf Certificate
        Subject Public Key Info:
            Public Key Algorithm: rsaEncryption
                RSA Public-Key: (2048 bit)
                Modulus:
                    00:a6:58:dc:36:25:d1:a6:a4:93:08:cf:2d:3b:86:
                    07:b5:ce:44:c7:5b:7f:d7:11:a6:51:98:ec:82:4c:
                    6c:31:45:a3:04:56:6f:c1:77:d6:6c:38:db:3c:d8:
                    2d:d2:25:aa:47:4f:f4:a4:f3:8e:09:98:37:d3:0f:
                    71:f6:ac:29:47:7b:08:8e:68:ab:fc:7e:10:02:65:
                    b6:86:4c:b0:27:04:6a:15:23:b3:3a:19:b8:15:f3:
                    3b:0b:1d:ad:d8:9f:49:b1:72:f2:af:08:df:c8:02:
                    aa:cb:f3:2a:2d:c0:fd:28:b0:97:da:4a:a9:22:74:
                    c2:3a:0b:64:65:2a:c9:f4:65:f7:46:7f:3c:a9:61:
                    96:5f:0c:2a:66:c3:f2:c7:fe:69:87:2f:70:0c:1b:
                    66:37:92:c5:3f:85:40:d8:e4:26:45:18:3f:ce:53:
                    27:a0:97:7e:11:87:dc:4a:ec:26:eb:ff:95:0e:b3:
                    ea:2e:66:45:0a:aa:cc:c5:81:59:2e:0a:1b:0e:1b:
                    59:71:ca:d3:90:ef:6f:ca:b7:8c:a8:ca:82:55:b8:
                    fb:4a:e5:ba:29:78:ce:eb:cd:8e:4f:9c:af:85:a4:
                    ef:0b:64:5e:3e:7e:a0:e0:e5:b0:86:f3:19:08:fa:
                    3f:fa:1e:4a:9b:fc:b5:16:17:88:0d:38:0e:c3:a6:
                    5f:d5
                Exponent: 65537 (0x10001)
        X509v3 extensions:
            X509v3 Basic Constraints: critical
                CA:FALSE
            X509v3 Subject Key Identifier: 
                81:CD:A7:DD:52:43:7F:DF:7A:4B:BA:F5:B0:B6:10:A0:44:0C:EC:6C
            X509v3 Authority Key Identifier: 
                keyid:9B:26:0B:8A:98:A9:BB:1D:B9:1F:1C:E3:1A:40:33:ED:8E:17:88:AB

            X509v3 Extended Key Usage: 
                TLS Web Server Authentication, TLS Web Client Authentication
            X509v3 Subject Alternative Name: 
                IP Address:127.0.0.1
    Signature Algorithm: sha256WithRSAEncryption
         a5:9c:bb:a6:5e:84:75:ff:c7:7c:35:68:dc:46:fd:66:ce:e3:
         0c:1b:58:e8:0a:43:73:bd:d2:77:70:2c:23:73:6e:07:49:4c:
         43:72:bb:1c:9d:53:a6:a8:38:b7:88:b2:c8:5f:df:ec:10:17:
         35:d9:88:4a:85:cc:8f:16:9a:d6:ea:2d:a5:fc:11:48:b9:6f:
         db:9f:26:e6:a2:b3:59:31:c0:7e:db:b1:73:e3:ce:5d:50:38:
         e9:2f:26:72:5d:a6:14:47:89:f5:d4:b4:d7:05:b3:ad:39:82:
         4d:87:99:2d:93:df:1b:ab:07:b5:bd:e4:f0:ef:72:54:e8:80:
         58:a3:b8:40:49:53:8d:d1:36:4f:21:aa:b1:3d:9b:23:61:c4:
         2f:7f:ec:b5:9b:16:ff:7f:ab:4a:dd:32:ee:63:06:a3:ba:f2:
         05:18:31:62:04:0f:cf:52:88:04:ae:2a:2a:a6:95:7d:4c:aa:
         be:4b:ad:d7:41:53:79:5d:cf:12:39:1d:10:3d:f0:74:20:72:
         6f:19:a5:b1:fd:0e:b3:b4:56:5a:ce:69:31:d6:fe:b0:2a:7d:
         89:74:4d:5f:ef:45:c5:69:79:75:62:13:92:ac:10:73:0d:c1:
         a3:eb:c3:38:3b:a8:43:cd:3d:d5:ea:a8:0a:68:f9:ba:ef:f5:
         09:76:0f:32
-----BEGIN CERTIFICATE-----
MIIDjTCCAnWgAwIBAgIQPiydvrBCyM/8mULVTUFqqTANBgkqhkiG9w0BAQsFADBj
MQswCQYDVQQGEwJVUzETMBEGA1UECAwKQ2FsaWZvcm5pYTEWMBQGA1UEBwwNTW91
bnRhaW4gVmlldzEQMA4GA1UECgwHVGVzdCBDQTEVMBMGA1UEAwwMVGVzdCBSb290
IENBMCIYDzAwMDEwMTAxMDAwMDAwWhgPMDAwMTAxMDEwMDAwMDBaMBsxGTAXBgNV
BAMMEExlYWYgQ2VydGlmaWNhdGUwggEiMA0GCSqGSIb3DQEBAQUAA4IBDwAwggEK
AoIBAQCmWNw2JdGmpJMIzy07hge1zkTHW3/XEaZRmOyCTGwxRaMEVm/Bd9ZsONs8
2C3SJapHT/Sk844JmDfTD3H2rClHewiOaKv8fhACZbaGTLAnBGoVI7M6GbgV8zsL
Ha3Yn0mxcvKvCN/IAqrL8yotwP0osJfaSqkidMI6C2RlKsn0ZfdGfzypYZZfDCpm
w/LH/mmHL3AMG2Y3ksU/hUDY5CZFGD/OUyegl34Rh9xK7Cbr/5UOs+ouZkUKqszF
gVkuChsOG1lxytOQ72/Kt4yoyoJVuPtK5bopeM7rzY5PnK+FpO8LZF4+fqDg5bCG
8xkI+j/6Hkqb/LUWF4gNOA7Dpl/VAgMBAAGjgYAwfjAMBgNVHRMBAf8EAjAAMB0G
A1UdDgQWBBSBzafdUkN/33pLuvWwthCgRAzsbDAfBgNVHSMEGDAWgBSbJguKmKm7
HbkfHOMaQDPtjheIqzAdBgNVHSUEFjAUBggrBgEFBQcDAQYIKwYBBQUHAwIwDwYD
VR0RBAgwBocEfwAAATANBgkqhkiG9w0BAQsFAAOCAQEApZy7pl6Edf/HfDVo3Eb9
Zs7jDBtY6ApDc73Sd3AsI3NuB0lMQ3K7HJ1Tpqg4t4iyyF/f7BAXNdmISoXMjxaa
1uotpfwRSLlv258m5qKzWTHAftuxc+POXVA46S8mcl2mFEeJ9dS01wWzrTmCTYeZ
LZPfG6sHtb3k8O9yVOiAWKO4QElTjdE2TyGqsT2bI2HEL3/stZsW/3+rSt0y7mMG
o7ryBRgxYgQPz1KIBK4qKqaVfUyqvkut10FTeV3PEjkdED3wdCBybxmlsf0Os7RW
Ws5pMdb+sCp9iXRNX+9FxWl5dWITkqwQcw3Bo+vDODuoQ8091eqoCmj5uu/1CXYP
Mg==
-----END CERTIFICATE-----
