===========================================
Certificate0: e93069159b9d545ee967debdccc1de1efcfa2cd0638266ffe61c8df39c30cdc0
===========================================
Certificate:
    Data:
        Version: 3 (0x2)
        Serial Number:
            bb:69:27:75:22:ac:ac:f0
        Signature Algorithm: sha256WithRSAEncryption
        Issuer: C = US, ST = Arizona, L = Scottsdale, O = "GoDaddy.com, Inc.", OU = http://certs.godaddy.com/repository/, CN = Go Daddy Secure Certificate Authority - G2
        Validity
            Not Before: Oct  5 00:04:07 2022 GMT
            Not After : Nov  6 00:04:07 2023 GMT
        Subject: CN = caninesonduty.com
        Subject Public Key Info:
            Public Key Algorithm: rsaEncryption
                Public-Key: (2048 bit)
                Modulus:
                    00:eb:c7:ea:a2:0f:ed:92:7a:f4:5c:59:7a:f1:ce:
                    c9:5a:ef:57:a7:89:d0:b8:0d:ad:29:af:00:68:0a:
                    98:b5:4b:7c:f7:cb:71:6d:c0:da:ea:8c:09:9d:9b:
                    00:c4:9e:24:99:da:07:7b:fa:19:b3:e2:9a:70:e3:
                    89:27:5f:d9:b3:4d:aa:6f:50:67:cb:1f:2f:0e:82:
                    c6:b7:e3:75:c9:62:55:a9:5f:e3:aa:d0:fc:27:7e:
                    f0:9c:b7:63:a9:db:fd:8c:17:9c:9d:e7:e1:83:d8:
                    2c:e7:80:ae:b3:7c:b8:66:0f:44:90:93:f6:72:f3:
                    cd:81:c5:88:fa:f5:5d:51:25:9a:c0:65:95:86:68:
                    52:8e:34:44:55:d3:ec:17:b7:20:1f:7d:21:4a:d3:
                    95:99:05:e3:ca:5c:f1:5f:78:cb:ca:d1:9a:63:63:
                    ef:fe:cc:cc:e2:67:d5:3d:e2:f9:52:1f:75:a6:8f:
                    67:70:3f:bf:6b:54:43:14:72:3c:05:40:79:85:14:
                    4a:90:1c:0b:a8:f9:b5:59:03:0a:30:9b:12:ba:24:
                    4c:41:28:c3:6a:8a:87:c2:88:bb:57:59:fc:4a:18:
                    a8:da:f3:a6:9c:e6:7a:20:1a:20:44:37:be:26:ad:
                    62:d2:02:cd:bb:12:a8:1f:23:f4:fa:f3:94:90:d7:
                    97:8d
                Exponent: 65537 (0x10001)
        X509v3 extensions:
            X509v3 Basic Constraints: critical
                CA:FALSE
            X509v3 Extended Key Usage: 
                TLS Web Server Authentication, TLS Web Client Authentication
            X509v3 Key Usage: critical
                Digital Signature, Key Encipherment
            X509v3 CRL Distribution Points: 
                Full Name:
                  URI:http://crl.godaddy.com/gdig2s1-4574.crl
            X509v3 Certificate Policies: 
                Policy: 2.16.840.1.114413.1.7.23.1
                  CPS: http://certificates.godaddy.com/repository/
                Policy: 2.23.140.1.2.1
            Authority Information Access: 
                OCSP - URI:http://ocsp.godaddy.com/
                CA Issuers - URI:http://certificates.godaddy.com/repository/gdig2.crt
            X509v3 Authority Key Identifier: 
                40:C2:BD:27:8E:CC:34:83:30:A2:33:D7:FB:6C:B3:F0:B4:2C:80:CE
            X509v3 Subject Alternative Name: 
                DNS:caninesonduty.com, DNS:www.caninesonduty.com
            X509v3 Subject Key Identifier: 
                CD:0F:6D:86:BE:BC:E7:67:E3:35:89:4D:9C:14:37:7F:99:48:BB:CA
            CT Precertificate SCTs: 
                Signed Certificate Timestamp:
                    Version   : v1 (0x0)
                    Log ID    : E8:3E:D0:DA:3E:F5:06:35:32:E7:57:28:BC:89:6B:C9:
                                03:D3:CB:D1:11:6B:EC:EB:69:E1:77:7D:6D:06:BD:6E
                    Timestamp : Oct  5 00:04:07.608 2022 GMT
                    Extensions: none
                    Signature : ecdsa-with-SHA256
                                30:45:02:21:00:99:37:25:11:EA:1F:77:28:5A:EB:1C:
                                AE:E4:0B:48:D1:81:CD:27:16:2C:9B:39:72:2B:7C:2F:
                                1A:E4:0E:73:A3:02:20:37:6B:FA:22:7F:F4:9E:FE:32:
                                7B:99:67:38:DF:6B:69:49:11:65:72:07:03:9D:32:8D:
                                0E:CF:93:5B:69:D8:4B
                Signed Certificate Timestamp:
                    Version   : v1 (0x0)
                    Log ID    : 7A:32:8C:54:D8:B7:2D:B6:20:EA:38:E0:52:1E:E9:84:
                                16:70:32:13:85:4D:3B:D2:2B:C1:3A:57:A3:52:EB:52
                    Timestamp : Oct  5 00:04:08.086 2022 GMT
                    Extensions: none
                    Signature : ecdsa-with-SHA256
                                30:46:02:21:00:B5:13:CC:AF:81:11:BB:A2:50:C5:68:
                                66:E1:2F:43:09:32:AD:79:15:69:49:CA:4F:9B:BA:D7:
                                B0:30:26:02:D7:02:21:00:C4:A9:46:56:38:7E:0D:32:
                                1E:4C:B3:82:28:22:F5:26:9E:60:9E:3C:5B:61:17:EC:
                                CE:2F:44:16:29:23:BF:54
                Signed Certificate Timestamp:
                    Version   : v1 (0x0)
                    Log ID    : 55:81:D4:C2:16:90:36:01:4A:EA:0B:9B:57:3C:53:F0:
                                C0:E4:38:78:70:25:08:17:2F:A3:AA:1D:07:13:D3:0C
                    Timestamp : Oct  5 00:04:08.476 2022 GMT
                    Extensions: none
                    Signature : ecdsa-with-SHA256
                                30:44:02:20:4A:A2:EF:86:58:95:7E:0F:7A:52:47:CF:
                                0A:8B:B7:40:FB:09:55:15:40:3A:D0:DB:80:C1:EE:2F:
                                CE:81:4F:E9:02:20:56:55:07:09:5A:1C:CE:A6:B9:5E:
                                9C:E7:9B:F8:5B:86:98:05:A1:3D:89:2F:3B:D2:AE:6B:
                                40:D1:05:59:E2:28
    Signature Algorithm: sha256WithRSAEncryption
    Signature Value:
        8a:39:d0:8b:47:f4:72:f8:ca:79:84:eb:5e:fa:89:91:e8:eb:
        6d:85:db:df:b0:39:a0:87:a0:83:b5:16:9b:24:31:30:c3:cd:
        63:52:03:44:6a:9b:a2:3f:4c:94:53:92:ab:b1:75:36:08:26:
        92:a4:36:71:12:2f:fe:a7:df:50:a4:6c:3c:0e:d7:3b:47:46:
        13:7a:7c:08:ec:b0:b5:28:1c:a4:bc:fc:86:49:6d:bc:5c:c5:
        aa:70:50:51:8e:e2:06:c9:7c:41:2d:50:e6:c9:aa:b3:9c:dc:
        fc:b0:80:82:5b:76:8e:78:7d:10:d7:e8:06:8d:9f:7f:b0:5c:
        4d:75:a8:06:17:a0:42:cb:06:5c:27:c4:a5:35:e5:71:13:88:
        e2:fa:ef:19:16:8d:59:23:a2:40:66:7a:99:a0:dd:a0:3e:16:
        56:91:b2:a8:4f:a9:44:8b:46:71:52:74:75:40:0e:a3:61:ac:
        89:ac:32:d3:3e:43:80:7a:2d:c7:76:d6:9b:5f:57:b5:a4:87:
        fa:de:a6:1e:86:93:87:11:8b:87:b0:39:c2:29:4a:76:f3:13:
        4f:fb:a8:3e:9f:f1:b9:d5:43:cc:87:82:ab:22:b0:98:a8:29:
        df:83:ed:6f:d7:88:4a:ce:e2:9c:66:3c:fa:dc:07:96:c0:1a:
        ec:17:bb:c7

-----BEGIN CERTIFICATE-----
MIIGnzCCBYegAwIBAgIJALtpJ3UirKzwMA0GCSqGSIb3DQEBCwUAMIG0MQswCQYD
VQQGEwJVUzEQMA4GA1UECBMHQXJpem9uYTETMBEGA1UEBxMKU2NvdHRzZGFsZTEa
MBgGA1UEChMRR29EYWRkeS5jb20sIEluYy4xLTArBgNVBAsTJGh0dHA6Ly9jZXJ0
cy5nb2RhZGR5LmNvbS9yZXBvc2l0b3J5LzEzMDEGA1UEAxMqR28gRGFkZHkgU2Vj
dXJlIENlcnRpZmljYXRlIEF1dGhvcml0eSAtIEcyMB4XDTIyMTAwNTAwMDQwN1oX
DTIzMTEwNjAwMDQwN1owHDEaMBgGA1UEAxMRY2FuaW5lc29uZHV0eS5jb20wggEi
MA0GCSqGSIb3DQEBAQUAA4IBDwAwggEKAoIBAQDrx+qiD+2SevRcWXrxzsla71en
idC4Da0prwBoCpi1S3z3y3FtwNrqjAmdmwDEniSZ2gd7+hmz4ppw44knX9mzTapv
UGfLHy8Ogsa343XJYlWpX+Oq0PwnfvCct2Op2/2MF5yd5+GD2CzngK6zfLhmD0SQ
k/Zy882BxYj69V1RJZrAZZWGaFKONERV0+wXtyAffSFK05WZBePKXPFfeMvK0Zpj
Y+/+zMziZ9U94vlSH3Wmj2dwP79rVEMUcjwFQHmFFEqQHAuo+bVZAwowmxK6JExB
KMNqiofCiLtXWfxKGKja86ac5nogGiBEN74mrWLSAs27EqgfI/T685SQ15eNAgMB
AAGjggNJMIIDRTAMBgNVHRMBAf8EAjAAMB0GA1UdJQQWMBQGCCsGAQUFBwMBBggr
BgEFBQcDAjAOBgNVHQ8BAf8EBAMCBaAwOAYDVR0fBDEwLzAtoCugKYYnaHR0cDov
L2NybC5nb2RhZGR5LmNvbS9nZGlnMnMxLTQ1NzQuY3JsMF0GA1UdIARWMFQwSAYL
YIZIAYb9bQEHFwEwOTA3BggrBgEFBQcCARYraHR0cDovL2NlcnRpZmljYXRlcy5n
b2RhZGR5LmNvbS9yZXBvc2l0b3J5LzAIBgZngQwBAgEwdgYIKwYBBQUHAQEEajBo
MCQGCCsGAQUFBzABhhhodHRwOi8vb2NzcC5nb2RhZGR5LmNvbS8wQAYIKwYBBQUH
MAKGNGh0dHA6Ly9jZXJ0aWZpY2F0ZXMuZ29kYWRkeS5jb20vcmVwb3NpdG9yeS9n
ZGlnMi5jcnQwHwYDVR0jBBgwFoAUQMK9J47MNIMwojPX+2yz8LQsgM4wMwYDVR0R
BCwwKoIRY2FuaW5lc29uZHV0eS5jb22CFXd3dy5jYW5pbmVzb25kdXR5LmNvbTAd
BgNVHQ4EFgQUzQ9thr6852fjNYlNnBQ3f5lIu8owggF+BgorBgEEAdZ5AgQCBIIB
bgSCAWoBaAB2AOg+0No+9QY1MudXKLyJa8kD08vREWvs62nhd31tBr1uAAABg6V0
7zgAAAQDAEcwRQIhAJk3JRHqH3coWuscruQLSNGBzScWLJs5cit8LxrkDnOjAiA3
a/oif/Se/jJ7mWc432tpSRFlcgcDnTKNDs+TW2nYSwB3AHoyjFTYty22IOo44FIe
6YQWcDIThU070ivBOlejUutSAAABg6V08RYAAAQDAEgwRgIhALUTzK+BEbuiUMVo
ZuEvQwkyrXkVaUnKT5u617AwJgLXAiEAxKlGVjh+DTIeTLOCKCL1Jp5gnjxbYRfs
zi9EFikjv1QAdQBVgdTCFpA2AUrqC5tXPFPwwOQ4eHAlCBcvo6odBxPTDAAAAYOl
dPKcAAAEAwBGMEQCIEqi74ZYlX4PelJHzwqLt0D7CVUVQDrQ24DB7i/OgU/pAiBW
VQcJWhzOprlenOeb+FuGmAWhPYkvO9Kua0DRBVniKDANBgkqhkiG9w0BAQsFAAOC
AQEAijnQi0f0cvjKeYTrXvqJkejrbYXb37A5oIegg7UWmyQxMMPNY1IDRGqboj9M
lFOSq7F1NggmkqQ2cRIv/qffUKRsPA7XO0dGE3p8COywtSgcpLz8hkltvFzFqnBQ
UY7iBsl8QS1Q5smqs5zc/LCAglt2jnh9ENfoBo2ff7BcTXWoBhegQssGXCfEpTXl
cROI4vrvGRaNWSOiQGZ6maDdoD4WVpGyqE+pRItGcVJ0dUAOo2Gsiawy0z5DgHot
x3bWm19XtaSH+t6mHoaThxGLh7A5wilKdvMTT/uoPp/xudVDzIeCqyKwmKgp34Pt
b9eISs7inGY8+twHlsAa7Be7xw==
-----END CERTIFICATE-----

===========================================
Certificate1: 973a41276ffd01e027a2aad49e34c37846d3e976ff6a620b6712e33832041aa6
===========================================
Certificate:
    Data:
        Version: 3 (0x2)
        Serial Number: 7 (0x7)
        Signature Algorithm: sha256WithRSAEncryption
        Issuer: C = US, ST = Arizona, L = Scottsdale, O = "GoDaddy.com, Inc.", CN = Go Daddy Root Certificate Authority - G2
        Validity
            Not Before: May  3 07:00:00 2011 GMT
            Not After : May  3 07:00:00 2031 GMT
        Subject: C = US, ST = Arizona, L = Scottsdale, O = "GoDaddy.com, Inc.", OU = http://certs.godaddy.com/repository/, CN = Go Daddy Secure Certificate Authority - G2
        Subject Public Key Info:
            Public Key Algorithm: rsaEncryption
                Public-Key: (2048 bit)
                Modulus:
                    00:b9:e0:cb:10:d4:af:76:bd:d4:93:62:eb:30:64:
                    b8:81:08:6c:c3:04:d9:62:17:8e:2f:ff:3e:65:cf:
                    8f:ce:62:e6:3c:52:1c:da:16:45:4b:55:ab:78:6b:
                    63:83:62:90:ce:0f:69:6c:99:c8:1a:14:8b:4c:cc:
                    45:33:ea:88:dc:9e:a3:af:2b:fe:80:61:9d:79:57:
                    c4:cf:2e:f4:3f:30:3c:5d:47:fc:9a:16:bc:c3:37:
                    96:41:51:8e:11:4b:54:f8:28:be:d0:8c:be:f0:30:
                    38:1e:f3:b0:26:f8:66:47:63:6d:de:71:26:47:8f:
                    38:47:53:d1:46:1d:b4:e3:dc:00:ea:45:ac:bd:bc:
                    71:d9:aa:6f:00:db:db:cd:30:3a:79:4f:5f:4c:47:
                    f8:1d:ef:5b:c2:c4:9d:60:3b:b1:b2:43:91:d8:a4:
                    33:4e:ea:b3:d6:27:4f:ad:25:8a:a5:c6:f4:d5:d0:
                    a6:ae:74:05:64:57:88:b5:44:55:d4:2d:2a:3a:3e:
                    f8:b8:bd:e9:32:0a:02:94:64:c4:16:3a:50:f1:4a:
                    ae:e7:79:33:af:0c:20:07:7f:e8:df:04:39:c2:69:
                    02:6c:63:52:fa:77:c1:1b:c8:74:87:c8:b9:93:18:
                    50:54:35:4b:69:4e:bc:3b:d3:49:2e:1f:dc:c1:d2:
                    52:fb
                Exponent: 65537 (0x10001)
        X509v3 extensions:
            X509v3 Basic Constraints: critical
                CA:TRUE
            X509v3 Key Usage: critical
                Certificate Sign, CRL Sign
            X509v3 Subject Key Identifier: 
                40:C2:BD:27:8E:CC:34:83:30:A2:33:D7:FB:6C:B3:F0:B4:2C:80:CE
            X509v3 Authority Key Identifier: 
                3A:9A:85:07:10:67:28:B6:EF:F6:BD:05:41:6E:20:C1:94:DA:0F:DE
            Authority Information Access: 
                OCSP - URI:http://ocsp.godaddy.com/
            X509v3 CRL Distribution Points: 
                Full Name:
                  URI:http://crl.godaddy.com/gdroot-g2.crl
            X509v3 Certificate Policies: 
                Policy: X509v3 Any Policy
                  CPS: https://certs.godaddy.com/repository/
    Signature Algorithm: sha256WithRSAEncryption
    Signature Value:
        08:7e:6c:93:10:c8:38:b8:96:a9:90:4b:ff:a1:5f:4f:04:ef:
        6c:3e:9c:88:06:c9:50:8f:a6:73:f7:57:31:1b:be:bc:e4:2f:
        db:f8:ba:d3:5b:e0:b4:e7:e6:79:62:0e:0c:a2:d7:6a:63:73:
        31:b5:f5:a8:48:a4:3b:08:2d:a2:5d:90:d7:b4:7c:25:4f:11:
        56:30:c4:b6:44:9d:7b:2c:9d:e5:5e:e6:ef:0c:61:aa:bf:e4:
        2a:1b:ee:84:9e:b8:83:7d:c1:43:ce:44:a7:13:70:0d:91:1f:
        f4:c8:13:ad:83:60:d9:d8:72:a8:73:24:1e:b5:ac:22:0e:ca:
        17:89:62:58:44:1b:ab:89:25:01:00:0f:cd:c4:1b:62:db:51:
        b4:d3:0f:51:2a:9b:f4:bc:73:fc:76:ce:36:a4:cd:d9:d8:2c:
        ea:ae:9b:f5:2a:b2:90:d1:4d:75:18:8a:3f:8a:41:90:23:7d:
        5b:4b:fe:a4:03:58:9b:46:b2:c3:60:60:83:f8:7d:50:41:ce:
        c2:a1:90:c3:bb:ef:02:2f:d2:15:54:ee:44:15:d9:0a:ae:a7:
        8a:33:ed:b1:2d:76:36:26:dc:04:eb:9f:f7:61:1f:15:dc:87:
        6f:ee:46:96:28:ad:a1:26:7d:0a:09:a7:2e:04:a3:8d:bc:f8:
        bc:04:30:01

-----BEGIN CERTIFICATE-----
MIIE0DCCA7igAwIBAgIBBzANBgkqhkiG9w0BAQsFADCBgzELMAkGA1UEBhMCVVMx
EDAOBgNVBAgTB0FyaXpvbmExEzARBgNVBAcTClNjb3R0c2RhbGUxGjAYBgNVBAoT
EUdvRGFkZHkuY29tLCBJbmMuMTEwLwYDVQQDEyhHbyBEYWRkeSBSb290IENlcnRp
ZmljYXRlIEF1dGhvcml0eSAtIEcyMB4XDTExMDUwMzA3MDAwMFoXDTMxMDUwMzA3
MDAwMFowgbQxCzAJBgNVBAYTAlVTMRAwDgYDVQQIEwdBcml6b25hMRMwEQYDVQQH
EwpTY290dHNkYWxlMRowGAYDVQQKExFHb0RhZGR5LmNvbSwgSW5jLjEtMCsGA1UE
CxMkaHR0cDovL2NlcnRzLmdvZGFkZHkuY29tL3JlcG9zaXRvcnkvMTMwMQYDVQQD
EypHbyBEYWRkeSBTZWN1cmUgQ2VydGlmaWNhdGUgQXV0aG9yaXR5IC0gRzIwggEi
MA0GCSqGSIb3DQEBAQUAA4IBDwAwggEKAoIBAQC54MsQ1K92vdSTYuswZLiBCGzD
BNliF44v/z5lz4/OYuY8UhzaFkVLVat4a2ODYpDOD2lsmcgaFItMzEUz6ojcnqOv
K/6AYZ15V8TPLvQ/MDxdR/yaFrzDN5ZBUY4RS1T4KL7QjL7wMDge87Am+GZHY23e
cSZHjzhHU9FGHbTj3ADqRay9vHHZqm8A29vNMDp5T19MR/gd71vCxJ1gO7GyQ5HY
pDNO6rPWJ0+tJYqlxvTV0KaudAVkV4i1RFXULSo6Pvi4vekyCgKUZMQWOlDxSq7n
eTOvDCAHf+jfBDnCaQJsY1L6d8EbyHSHyLmTGFBUNUtpTrw700kuH9zB0lL7AgMB
AAGjggEaMIIBFjAPBgNVHRMBAf8EBTADAQH/MA4GA1UdDwEB/wQEAwIBBjAdBgNV
HQ4EFgQUQMK9J47MNIMwojPX+2yz8LQsgM4wHwYDVR0jBBgwFoAUOpqFBxBnKLbv
9r0FQW4gwZTaD94wNAYIKwYBBQUHAQEEKDAmMCQGCCsGAQUFBzABhhhodHRwOi8v
b2NzcC5nb2RhZGR5LmNvbS8wNQYDVR0fBC4wLDAqoCigJoYkaHR0cDovL2NybC5n
b2RhZGR5LmNvbS9nZHJvb3QtZzIuY3JsMEYGA1UdIAQ/MD0wOwYEVR0gADAzMDEG
CCsGAQUFBwIBFiVodHRwczovL2NlcnRzLmdvZGFkZHkuY29tL3JlcG9zaXRvcnkv
MA0GCSqGSIb3DQEBCwUAA4IBAQAIfmyTEMg4uJapkEv/oV9PBO9sPpyIBslQj6Zz
91cxG7685C/b+LrTW+C05+Z5Yg4MotdqY3MxtfWoSKQ7CC2iXZDXtHwlTxFWMMS2
RJ17LJ3lXubvDGGqv+QqG+6EnriDfcFDzkSnE3ANkR/0yBOtg2DZ2HKocyQetawi
DsoXiWJYRBuriSUBAA/NxBti21G00w9RKpv0vHP8ds42pM3Z2Czqrpv1KrKQ0U11
GIo/ikGQI31bS/6kA1ibRrLDYGCD+H1QQc7CoZDDu+8CL9IVVO5EFdkKrqeKM+2x
LXY2JtwE65/3YR8V3Idv7kaWKK2hJn0KCacuBKONvPi8BDAB
-----END CERTIFICATE-----
