Certificate:
    Data:
        Version: 3 (0x2)
        Serial Number: 4099 (0x1003)
        Signature Algorithm: sha256WithRSAEncryption
        Issuer: CN=E CA
        Validity
            Not Before: Jan 22 22:26:11 2025 GMT
            Not After : Jan 20 22:26:11 2035 GMT
        Subject: CN=Client Cert F
        Subject Public Key Info:
            Public Key Algorithm: rsaEncryption
                Public-Key: (2048 bit)
                Modulus:
                    00:cf:2e:60:fc:9c:8f:cd:29:a4:0d:87:0e:09:92:
                    91:20:26:f6:c3:3a:4b:55:09:60:ba:ee:60:ec:52:
                    39:9f:3e:8d:aa:34:d6:85:d3:d1:ab:8f:56:ee:12:
                    23:93:87:c8:b7:07:71:22:12:6c:2b:e3:d4:bb:83:
                    b7:91:b2:9d:95:2b:69:ba:e9:ac:71:d5:aa:5b:e7:
                    38:05:37:c9:78:1e:da:1b:8b:27:37:73:e0:05:aa:
                    3d:b9:07:19:93:54:c1:3e:61:da:36:0c:85:ab:50:
                    1a:75:e3:f8:4a:8f:0e:3d:31:fb:fb:cd:5e:02:d2:
                    0c:c0:2f:23:c4:43:af:2b:34:d8:46:93:7e:99:0b:
                    03:ad:7b:b2:c3:4d:d1:34:3e:59:14:a4:b4:56:85:
                    33:cb:9c:15:4e:0c:7d:d3:53:61:71:cb:95:d3:86:
                    dd:68:4f:4c:8d:3f:7e:cb:5d:89:5c:7c:ee:e6:e6:
                    56:1e:01:9b:6e:40:9a:cf:81:e7:06:f0:31:61:fa:
                    ae:0d:36:54:f4:39:93:4b:9a:3d:0b:b1:12:8d:3c:
                    1c:ca:43:f9:77:7e:0e:1b:be:4a:8b:a5:99:f2:27:
                    28:61:5a:d9:c8:92:95:48:44:5f:51:56:28:10:32:
                    cc:47:f3:06:aa:c3:61:16:b4:32:13:59:4b:4f:5e:
                    33:79
                Exponent: 65537 (0x10001)
        X509v3 extensions:
            X509v3 Subject Alternative Name: 
                email:santest@example.com, othername: UPN::santest@ad.corp.example.com
            X509v3 Subject Key Identifier: 
                69:C5:44:77:7B:FD:FA:75:B5:0F:2A:57:13:1A:0C:23:5B:92:49:5E
            X509v3 Authority Key Identifier: 
                7E:F4:D9:D3:2D:59:49:3B:8D:41:13:EA:C7:32:1B:C6:43:13:44:3F
    Signature Algorithm: sha256WithRSAEncryption
    Signature Value:
        3b:c5:83:0a:0c:9a:7b:68:f8:e3:9d:3f:03:48:55:e5:ae:97:
        6e:70:49:e6:90:37:13:da:dd:cb:2c:a0:2b:47:84:4a:fb:ec:
        4e:51:10:33:37:df:81:75:7f:49:ea:1a:a9:1d:02:cd:93:85:
        0c:aa:8f:bc:56:3b:ef:ca:9f:d7:d2:dc:22:2d:9c:61:d0:d1:
        fa:0d:7d:b8:24:69:bd:f0:ed:c8:68:63:eb:2c:f3:f8:93:f5:
        c7:be:1a:64:b3:ab:29:f9:06:14:59:d5:ed:43:fb:f8:b1:c6:
        8a:04:6a:56:be:67:c1:f5:42:f7:13:c1:f6:54:c4:16:04:bf:
        21:48:a6:02:c3:a9:c2:fc:11:b1:99:02:4c:d7:1a:f3:af:ba:
        88:65:4f:6e:a0:b0:6d:43:6a:88:68:4a:f7:1a:b4:54:ba:26:
        00:a7:1e:42:b0:d5:05:9a:52:9c:78:5a:09:ea:09:e1:4c:e3:
        35:5a:8e:ea:99:2f:97:46:e3:ac:84:85:17:01:59:19:f6:d0:
        12:aa:1f:02:b5:b2:47:eb:ca:e7:f2:28:bd:cb:4f:d0:57:d8:
        00:eb:fe:3b:c9:a5:ff:37:90:1d:d4:ad:8a:1f:c4:7b:3f:74:
        99:3b:89:1f:cc:94:8c:d8:89:79:76:96:94:cc:4b:ca:cd:e6:
        1d:ff:23:27
-----BEGIN CERTIFICATE-----
MIIDNDCCAhygAwIBAgICEAMwDQYJKoZIhvcNAQELBQAwDzENMAsGA1UEAwwERSBD
QTAeFw0yNTAxMjIyMjI2MTFaFw0zNTAxMjAyMjI2MTFaMBgxFjAUBgNVBAMMDUNs
aWVudCBDZXJ0IEYwggEiMA0GCSqGSIb3DQEBAQUAA4IBDwAwggEKAoIBAQDPLmD8
nI/NKaQNhw4JkpEgJvbDOktVCWC67mDsUjmfPo2qNNaF09Grj1buEiOTh8i3B3Ei
Emwr49S7g7eRsp2VK2m66axx1apb5zgFN8l4Htobiyc3c+AFqj25BxmTVME+Ydo2
DIWrUBp14/hKjw49Mfv7zV4C0gzALyPEQ68rNNhGk36ZCwOte7LDTdE0PlkUpLRW
hTPLnBVODH3TU2Fxy5XTht1oT0yNP37LXYlcfO7m5lYeAZtuQJrPgecG8DFh+q4N
NlT0OZNLmj0LsRKNPBzKQ/l3fg4bvkqLpZnyJyhhWtnIkpVIRF9RVigQMsxH8waq
w2EWtDITWUtPXjN5AgMBAAGjgZAwgY0wSwYDVR0RBEQwQoETc2FudGVzdEBleGFt
cGxlLmNvbaArBgorBgEEAYI3FAIDoB0MG3NhbnRlc3RAYWQuY29ycC5leGFtcGxl
LmNvbTAdBgNVHQ4EFgQUacVEd3v9+nW1DypXExoMI1uSSV4wHwYDVR0jBBgwFoAU
fvTZ0y1ZSTuNQRPqxzIbxkMTRD8wDQYJKoZIhvcNAQELBQADggEBADvFgwoMmnto
+OOdPwNIVeWul25wSeaQNxPa3cssoCtHhEr77E5REDM334F1f0nqGqkdAs2ThQyq
j7xWO+/Kn9fS3CItnGHQ0foNfbgkab3w7choY+ss8/iT9ce+GmSzqyn5BhRZ1e1D
+/ixxooEala+Z8H1QvcTwfZUxBYEvyFIpgLDqcL8EbGZAkzXGvOvuohlT26gsG1D
aohoSvcatFS6JgCnHkKw1QWaUpx4WgnqCeFM4zVajuqZL5dG46yEhRcBWRn20BKq
HwK1skfryufyKL3LT9BX2ADr/jvJpf83kB3UrYofxHs/dJk7iR/MlIzYiXl2lpTM
S8rN5h3/Iyc=
-----END CERTIFICATE-----
