Certificate:
    Data:
        Version: 3 (0x2)
        Serial Number: 4101 (0x1005)
        Signature Algorithm: sha256WithRSAEncryption
        Issuer: CN=E CA
        Validity
            Not Before: Oct 19 16:58:55 2022 GMT
            Not After : Oct 16 16:58:55 2032 GMT
        Subject: CN=Client Cert H
        Subject Public Key Info:
            Public Key Algorithm: id-ecPublicKey
                Public-Key: (384 bit)
                pub:
                    04:cb:7a:cf:5e:1b:31:dc:e1:ca:94:d1:0e:17:7d:
                    a6:42:4c:4c:cf:cf:f7:3f:60:08:18:c6:bd:78:b9:
                    0a:9f:9f:1d:89:6f:3f:0c:a0:e9:c2:ef:78:41:93:
                    e9:18:a6:16:fb:96:74:b9:a7:89:9b:3a:1a:c3:40:
                    ba:94:f2:a4:46:d4:00:da:07:05:5c:52:5a:de:40:
                    a3:a2:06:3a:7d:0b:32:a5:45:0f:de:f6:97:55:99:
                    51:31:e4:83:90:ff:06
                ASN1 OID: secp384r1
                NIST CURVE: P-384
        X509v3 extensions:
            X509v3 Basic Constraints: critical
                CA:FALSE
            X509v3 Extended Key Usage: 
                TLS Web Server Authentication, TLS Web Client Authentication
            X509v3 Subject Key Identifier: 
                C0:0A:7F:F5:B4:49:4C:A5:97:C3:76:A2:A5:1D:F8:A5:C8:4D:65:94
            X509v3 Authority Key Identifier: 
                F7:95:02:B8:47:AB:AF:EF:98:4D:A8:F9:C8:24:D4:A5:4F:46:47:CB
    Signature Algorithm: sha256WithRSAEncryption
    Signature Value:
        93:d5:04:f0:17:b1:15:e9:40:5a:b0:1f:e1:11:0b:6b:a7:36:
        38:80:91:87:dd:eb:f0:dd:ed:7e:7c:77:09:12:e0:5b:09:ac:
        6a:66:a6:ce:44:38:21:41:b1:7a:56:df:b3:9c:75:88:dc:0d:
        ad:5e:7d:b6:f4:84:4c:d0:ec:14:23:bc:09:81:6a:be:98:82:
        e3:27:f3:ce:f5:0b:28:8f:01:46:b4:d4:d1:9a:ea:78:7f:9e:
        78:17:42:ca:59:bb:f1:43:8b:39:f0:7d:54:8d:a5:40:60:9f:
        bc:90:cc:b2:72:76:4e:5a:55:b0:95:64:8d:dd:be:b4:35:16:
        68:af:95:3d:20:cf:07:42:dd:ec:a7:08:99:70:25:0f:4c:b8:
        1a:ef:34:72:0a:a3:ac:79:d7:02:94:2d:9b:e2:cd:ca:24:93:
        93:9a:92:e3:6f:51:89:35:74:7b:8b:bf:74:02:8c:66:57:eb:
        82:10:6e:9c:25:5e:d0:5b:55:4e:48:ff:27:a8:1b:5c:97:e7:
        99:03:d0:60:4a:e0:e6:f5:08:a4:c8:46:a6:3a:72:14:21:cb:
        c1:40:e9:99:11:ef:e6:a2:6a:4e:e4:d7:99:d8:94:3f:13:f8:
        5e:b0:a9:29:e9:03:ea:41:38:5f:2a:9c:bd:1f:9b:f1:3d:66:
        ee:9b:5a:3e
-----BEGIN CERTIFICATE-----
MIICZDCCAUygAwIBAgICEAUwDQYJKoZIhvcNAQELBQAwDzENMAsGA1UEAwwERSBD
QTAeFw0yMjEwMTkxNjU4NTVaFw0zMjEwMTYxNjU4NTVaMBgxFjAUBgNVBAMMDUNs
aWVudCBDZXJ0IEgwdjAQBgcqhkjOPQIBBgUrgQQAIgNiAATLes9eGzHc4cqU0Q4X
faZCTEzPz/c/YAgYxr14uQqfnx2Jbz8MoOnC73hBk+kYphb7lnS5p4mbOhrDQLqU
8qRG1ADaBwVcUlreQKOiBjp9CzKlRQ/e9pdVmVEx5IOQ/wajbzBtMAwGA1UdEwEB
/wQCMAAwHQYDVR0lBBYwFAYIKwYBBQUHAwEGCCsGAQUFBwMCMB0GA1UdDgQWBBTA
Cn/1tElMpZfDdqKlHfilyE1llDAfBgNVHSMEGDAWgBT3lQK4R6uv75hNqPnIJNSl
T0ZHyzANBgkqhkiG9w0BAQsFAAOCAQEAk9UE8BexFelAWrAf4RELa6c2OICRh93r
8N3tfnx3CRLgWwmsamamzkQ4IUGxelbfs5x1iNwNrV59tvSETNDsFCO8CYFqvpiC
4yfzzvULKI8BRrTU0ZrqeH+eeBdCylm78UOLOfB9VI2lQGCfvJDMsnJ2TlpVsJVk
jd2+tDUWaK+VPSDPB0Ld7KcImXAlD0y4Gu80cgqjrHnXApQtm+LNyiSTk5qS429R
iTV0e4u/dAKMZlfrghBunCVe0FtVTkj/J6gbXJfnmQPQYErg5vUIpMhGpjpyFCHL
wUDpmRHv5qJqTuTXmdiUPxP4XrCpKekD6kE4XyqcvR+b8T1m7ptaPg==
-----END CERTIFICATE-----
