Certificate:
    Data:
        Version: 3 (0x2)
        Serial Number: 4102 (0x1006)
        Signature Algorithm: sha256WithRSAEncryption
        Issuer: CN=E CA
        Validity
            Not Before: Oct 19 16:58:55 2022 GMT
            Not After : Oct 16 16:58:55 2032 GMT
        Subject: CN=Client Cert I
        Subject Public Key Info:
            Public Key Algorithm: id-ecPublicKey
                Public-Key: (521 bit)
                pub:
                    04:01:3f:63:ae:a0:ed:06:f3:f8:61:d1:bc:73:b3:
                    75:8a:45:53:8b:4e:62:56:b5:31:99:8d:4c:44:1c:
                    a4:8f:8b:c9:91:0b:19:cf:83:8c:52:81:02:67:24:
                    cd:6f:4d:28:78:97:01:34:dd:7d:93:4c:e5:b8:fe:
                    1a:d2:6b:c7:61:1f:75:01:04:6f:03:2f:50:35:f5:
                    bb:76:f0:d7:f1:17:c9:04:18:5a:f1:45:08:e6:ea:
                    f0:22:b7:80:41:43:3b:37:df:2d:40:ed:50:50:f0:
                    14:a3:fc:4b:3d:1d:87:92:8c:0a:f8:12:87:fc:35:
                    5f:e1:f6:c7:0a:5a:07:34:31:c9:da:61:23
                ASN1 OID: secp521r1
                NIST CURVE: P-521
        X509v3 extensions:
            X509v3 Basic Constraints: critical
                CA:FALSE
            X509v3 Extended Key Usage: 
                TLS Web Server Authentication, TLS Web Client Authentication
            X509v3 Subject Key Identifier: 
                C8:A5:B0:D4:13:AE:43:9C:31:DF:7E:40:BA:AF:2B:8E:EE:54:52:15
            X509v3 Authority Key Identifier: 
                F7:95:02:B8:47:AB:AF:EF:98:4D:A8:F9:C8:24:D4:A5:4F:46:47:CB
    Signature Algorithm: sha256WithRSAEncryption
    Signature Value:
        86:01:e1:dc:4e:d1:94:e3:d3:51:73:e4:cb:79:d5:b9:d0:68:
        34:a9:36:b1:51:02:45:a4:ce:98:44:cc:6e:90:07:7a:cd:b2:
        25:65:fc:7b:ca:03:1d:5e:9e:08:b8:70:56:35:65:f8:38:9b:
        e1:59:58:52:47:8b:3a:83:53:c5:4e:53:24:92:e6:a2:3a:ca:
        0c:6f:5c:1b:f2:67:51:e8:35:d2:08:85:df:7d:2a:ad:5b:a0:
        5c:6d:8f:7c:28:e9:da:e4:a7:1a:79:be:4e:78:33:a5:e3:72:
        06:b8:21:97:44:02:ba:46:d4:b6:15:b0:79:95:b7:cf:85:9a:
        ae:ee:6a:d2:a7:c0:2c:c9:4c:e1:fa:2c:29:e7:56:fc:8f:31:
        1e:6d:f5:23:67:60:ed:f7:74:7d:b2:f4:fe:e6:3c:0b:e4:59:
        e7:15:1f:7b:db:38:da:a0:1c:ff:33:33:69:11:74:e6:cb:6f:
        8d:59:d0:cd:88:7e:9e:90:a0:0a:4d:09:35:bf:22:17:c0:64:
        42:f9:9c:20:3f:50:ce:6c:de:62:e6:fa:76:89:a9:16:6f:d5:
        36:ee:52:90:aa:5a:51:94:a8:ce:6b:1c:d2:77:6c:c3:0e:46:
        4b:24:85:ec:a7:9e:c8:ce:d1:3b:f2:d6:09:19:73:a2:d1:b1:
        e1:cf:17:d5
-----BEGIN CERTIFICATE-----
MIICijCCAXKgAwIBAgICEAYwDQYJKoZIhvcNAQELBQAwDzENMAsGA1UEAwwERSBD
QTAeFw0yMjEwMTkxNjU4NTVaFw0zMjEwMTYxNjU4NTVaMBgxFjAUBgNVBAMMDUNs
aWVudCBDZXJ0IEkwgZswEAYHKoZIzj0CAQYFK4EEACMDgYYABAE/Y66g7Qbz+GHR
vHOzdYpFU4tOYla1MZmNTEQcpI+LyZELGc+DjFKBAmckzW9NKHiXATTdfZNM5bj+
GtJrx2EfdQEEbwMvUDX1u3bw1/EXyQQYWvFFCObq8CK3gEFDOzffLUDtUFDwFKP8
Sz0dh5KMCvgSh/w1X+H2xwpaBzQxydphI6NvMG0wDAYDVR0TAQH/BAIwADAdBgNV
HSUEFjAUBggrBgEFBQcDAQYIKwYBBQUHAwIwHQYDVR0OBBYEFMilsNQTrkOcMd9+
QLqvK47uVFIVMB8GA1UdIwQYMBaAFPeVArhHq6/vmE2o+cgk1KVPRkfLMA0GCSqG
SIb3DQEBCwUAA4IBAQCGAeHcTtGU49NRc+TLedW50Gg0qTaxUQJFpM6YRMxukAd6
zbIlZfx7ygMdXp4IuHBWNWX4OJvhWVhSR4s6g1PFTlMkkuaiOsoMb1wb8mdR6DXS
CIXffSqtW6BcbY98KOna5Kcaeb5OeDOl43IGuCGXRAK6RtS2FbB5lbfPhZqu7mrS
p8AsyUzh+iwp51b8jzEebfUjZ2Dt93R9svT+5jwL5FnnFR972zjaoBz/MzNpEXTm
y2+NWdDNiH6ekKAKTQk1vyIXwGRC+ZwgP1DObN5i5vp2iakWb9U27lKQqlpRlKjO
axzSd2zDDkZLJIXsp57IztE78tYJGXOi0bHhzxfV
-----END CERTIFICATE-----
