Certificate:
    Data:
        Version: 3 (0x2)
        Serial Number: 4097 (0x1001)
        Signature Algorithm: sha256WithRSAEncryption
        Issuer: CN=C Root CA
        Validity
            Not Before: Oct 19 16:58:55 2022 GMT
            Not After : Oct 16 16:58:55 2032 GMT
        Subject: CN=B CA
        Subject Public Key Info:
            Public Key Algorithm: rsaEncryption
                Public-Key: (2048 bit)
                Modulus:
                    00:95:90:e0:38:21:62:04:9f:f1:97:f7:39:cc:d9:
                    47:2b:99:0e:af:49:ea:ae:5b:cc:78:3b:b5:c6:63:
                    5c:2d:44:7c:81:ed:a2:2d:f3:64:87:e7:e8:47:f9:
                    f4:a3:41:38:1d:fa:48:6c:3f:90:ad:39:4f:e2:32:
                    57:f1:89:5f:d1:d2:af:e7:92:c3:0d:43:d3:70:c6:
                    78:b2:2c:ac:e2:cd:34:49:7d:04:20:89:08:77:b4:
                    37:c9:bc:a3:f7:84:48:31:2b:63:ed:01:ce:59:78:
                    c9:41:0f:2e:79:c4:34:41:8a:9f:7c:d0:61:ad:20:
                    db:75:ef:af:08:f5:78:a0:68:69:fe:88:27:35:b0:
                    2f:5c:a6:eb:fb:1f:ab:e0:68:4c:bb:3a:be:9b:d1:
                    e6:ab:bf:3a:d5:df:d1:80:ee:89:63:dd:0e:03:f2:
                    57:72:d0:0d:05:6e:71:b3:e1:a2:35:85:ae:c0:33:
                    e5:a8:43:a9:ed:4a:56:3f:f0:e8:1b:97:a7:65:69:
                    f9:3b:f1:42:31:09:db:c2:6b:8f:e3:7d:ec:02:58:
                    76:29:32:64:c3:9f:78:d3:f4:96:f4:03:8c:14:84:
                    50:43:4a:df:10:74:87:a1:31:29:a2:b6:3e:de:22:
                    2b:6b:67:e8:ef:f0:9b:b5:64:a0:cf:c4:6c:c8:22:
                    d4:cb
                Exponent: 65537 (0x10001)
        X509v3 extensions:
            X509v3 Basic Constraints: critical
                CA:TRUE
            X509v3 Key Usage: critical
                Certificate Sign, CRL Sign
            X509v3 Subject Key Identifier: 
                6F:C5:EC:40:44:0F:5C:78:04:8E:66:11:4E:A1:EE:1E:38:38:FD:72
            X509v3 Authority Key Identifier: 
                33:7A:38:92:82:9E:B6:FD:44:FB:B5:BA:A7:C7:0B:4D:59:28:60:9A
    Signature Algorithm: sha256WithRSAEncryption
    Signature Value:
        00:fc:20:17:c8:1d:50:93:79:fc:1b:63:80:ee:95:a3:26:0d:
        b8:29:f4:35:89:db:0d:15:ef:b8:b7:1b:e5:1d:0e:29:dd:9c:
        c3:d9:37:37:2c:f8:9e:89:f5:3b:ff:70:0c:c1:54:cc:5f:50:
        e4:27:92:9b:3c:73:8c:04:83:b9:2f:18:3e:cf:85:c3:5b:8c:
        a9:76:56:4a:3d:e9:19:4a:ac:67:68:45:fd:b0:fe:f2:21:90:
        e5:11:e5:bd:7a:a9:8d:3f:76:51:d7:dc:71:68:1e:fd:4e:97:
        56:7a:02:34:b8:ab:27:61:b8:a9:8a:20:ce:d7:ab:7e:ca:87:
        7d:fd:cc:ee:21:f0:f8:68:ce:1e:bb:e2:01:c8:a3:b7:8a:f4:
        f1:af:97:63:e4:55:c9:23:bf:b6:54:95:a1:77:c6:27:af:6e:
        fc:c3:dc:ff:12:8b:05:67:ef:ad:82:7f:4c:36:32:73:09:dd:
        a5:f3:28:93:e8:16:00:2a:0f:2a:2a:64:d7:8c:fe:d2:4e:3a:
        6d:7e:f5:ca:3c:48:86:ef:18:20:a3:97:a6:03:32:76:34:4d:
        cd:20:3f:6b:0a:d7:1a:3a:be:b6:90:08:3e:97:7b:71:b5:5b:
        b5:98:df:f4:1e:59:f8:05:f7:e8:0c:7e:af:3d:a4:db:d0:92:
        4a:4a:65:c8
-----BEGIN CERTIFICATE-----
MIIDAjCCAeqgAwIBAgICEAEwDQYJKoZIhvcNAQELBQAwFDESMBAGA1UEAwwJQyBS
b290IENBMB4XDTIyMTAxOTE2NTg1NVoXDTMyMTAxNjE2NTg1NVowDzENMAsGA1UE
AwwEQiBDQTCCASIwDQYJKoZIhvcNAQEBBQADggEPADCCAQoCggEBAJWQ4DghYgSf
8Zf3OczZRyuZDq9J6q5bzHg7tcZjXC1EfIHtoi3zZIfn6Ef59KNBOB36SGw/kK05
T+IyV/GJX9HSr+eSww1D03DGeLIsrOLNNEl9BCCJCHe0N8m8o/eESDErY+0Bzll4
yUEPLnnENEGKn3zQYa0g23Xvrwj1eKBoaf6IJzWwL1ym6/sfq+BoTLs6vpvR5qu/
OtXf0YDuiWPdDgPyV3LQDQVucbPhojWFrsAz5ahDqe1KVj/w6BuXp2Vp+TvxQjEJ
28Jrj+N97AJYdikyZMOfeNP0lvQDjBSEUENK3xB0h6ExKaK2Pt4iK2tn6O/wm7Vk
oM/EbMgi1MsCAwEAAaNjMGEwDwYDVR0TAQH/BAUwAwEB/zAOBgNVHQ8BAf8EBAMC
AQYwHQYDVR0OBBYEFG/F7EBED1x4BI5mEU6h7h44OP1yMB8GA1UdIwQYMBaAFDN6
OJKCnrb9RPu1uqfHC01ZKGCaMA0GCSqGSIb3DQEBCwUAA4IBAQAA/CAXyB1Qk3n8
G2OA7pWjJg24KfQ1idsNFe+4txvlHQ4p3ZzD2Tc3LPieifU7/3AMwVTMX1DkJ5Kb
PHOMBIO5Lxg+z4XDW4ypdlZKPekZSqxnaEX9sP7yIZDlEeW9eqmNP3ZR19xxaB79
TpdWegI0uKsnYbipiiDO16t+yod9/czuIfD4aM4eu+IByKO3ivTxr5dj5FXJI7+2
VJWhd8Ynr278w9z/EosFZ++tgn9MNjJzCd2l8yiT6BYAKg8qKmTXjP7STjptfvXK
PEiG7xggo5emAzJ2NE3NID9rCtcaOr62kAg+l3txtVu1mN/0Hln4BffoDH6vPaTb
0JJKSmXI
-----END CERTIFICATE-----
