Certificate:
    Data:
        Version: 3 (0x2)
        Serial Number: 4104 (0x1008)
        Signature Algorithm: sha256WithRSAEncryption
        Issuer: CN=E CA
        Validity
            Not Before: Apr 16 22:29:25 2026 GMT
            Not After : Apr 13 22:29:25 2036 GMT
        Subject: CN=Client Cert K
        Subject Public Key Info:
            Public Key Algorithm: ED25519
                ED25519 Public-Key:
                pub:
                    30:f4:fa:8d:29:5a:c7:72:3d:d9:3c:55:b3:5e:c3:
                    e8:76:06:1e:5c:b8:8c:50:d1:be:a4:c9:ab:c8:83:
                    84:da
        X509v3 extensions:
            X509v3 Basic Constraints: critical
                CA:FALSE
            X509v3 Extended Key Usage: 
                TLS Web Server Authentication, TLS Web Client Authentication
            X509v3 Subject Key Identifier: 
                1D:DC:C5:9C:0E:FB:23:9A:EE:92:E6:9B:F2:E5:49:47:10:D1:14:0A
            X509v3 Authority Key Identifier: 
                5C:E2:7E:C6:75:71:A7:AE:C3:AD:E9:01:B7:8F:DE:AC:92:18:1B:D4
    Signature Algorithm: sha256WithRSAEncryption
    Signature Value:
        25:28:f4:5f:7a:0c:ce:a3:6f:81:4b:a3:5c:43:2f:40:85:3d:
        fb:0f:c4:c0:67:35:28:d6:e8:ac:8b:14:20:08:13:b5:db:cd:
        08:c5:47:aa:1a:3b:a5:87:a5:5a:53:1c:7a:cf:5e:94:8e:e6:
        f6:71:ad:fa:cc:37:14:c4:1c:2b:d6:0e:8b:54:8d:f3:e1:5d:
        71:82:e3:60:f2:48:77:10:c1:e7:59:2e:81:78:f8:b4:da:af:
        07:81:54:ee:d7:3b:4e:a8:8a:2f:4b:c7:a4:d1:84:dc:bb:cd:
        d2:2f:bb:fc:0f:b7:01:94:ae:d9:7e:f8:49:39:cf:69:ba:bc:
        5f:7c:c1:d2:55:46:e8:f9:04:c0:fc:58:f2:4d:d3:ac:b7:c6:
        a4:65:41:56:0c:9e:88:21:86:90:1a:ec:c3:3e:f8:a7:c7:db:
        03:6a:9b:4c:4b:91:92:7f:ef:41:4c:9d:5e:85:43:3a:8e:80:
        b2:92:be:9d:fd:8f:d6:88:e6:26:52:f4:88:1a:50:88:19:02:
        90:b7:f2:c9:5f:b5:11:6d:3f:97:12:3e:eb:b4:fe:5d:b1:b0:
        63:fd:c5:ee:ff:73:0d:a2:e3:ba:bb:51:c9:7a:d2:f2:8d:5d:
        62:aa:64:58:b5:e3:bc:b7:13:f4:c6:c7:ec:d9:6a:4e:05:ad:
        3c:4b:d0:5a
-----BEGIN CERTIFICATE-----
MIICGDCCAQCgAwIBAgICEAgwDQYJKoZIhvcNAQELBQAwDzENMAsGA1UEAwwERSBD
QTAeFw0yNjA0MTYyMjI5MjVaFw0zNjA0MTMyMjI5MjVaMBgxFjAUBgNVBAMMDUNs
aWVudCBDZXJ0IEswKjAFBgMrZXADIQAw9PqNKVrHcj3ZPFWzXsPodgYeXLiMUNG+
pMmryIOE2qNvMG0wDAYDVR0TAQH/BAIwADAdBgNVHSUEFjAUBggrBgEFBQcDAQYI
KwYBBQUHAwIwHQYDVR0OBBYEFB3cxZwO+yOa7pLmm/LlSUcQ0RQKMB8GA1UdIwQY
MBaAFFzifsZ1caeuw63pAbeP3qySGBvUMA0GCSqGSIb3DQEBCwUAA4IBAQAlKPRf
egzOo2+BS6NcQy9AhT37D8TAZzUo1uisixQgCBO1280IxUeqGjulh6VaUxx6z16U
jub2ca36zDcUxBwr1g6LVI3z4V1xguNg8kh3EMHnWS6BePi02q8HgVTu1ztOqIov
S8ek0YTcu83SL7v8D7cBlK7ZfvhJOc9purxffMHSVUbo+QTA/FjyTdOst8akZUFW
DJ6IIYaQGuzDPvinx9sDaptMS5GSf+9BTJ1ehUM6joCykr6d/Y/WiOYmUvSIGlCI
GQKQt/LJX7URbT+XEj7rtP5dsbBj/cXu/3MNouO6u1HJetLyjV1iqmRYteO8txP0
xsfs2WpOBa08S9Ba
-----END CERTIFICATE-----
