Certificate:
    Data:
        Version: 3 (0x2)
        Serial Number: 4100 (0x1004)
        Signature Algorithm: sha256WithRSAEncryption
        Issuer: CN=E CA
        Validity
            Not Before: Oct 19 16:58:55 2022 GMT
            Not After : Oct 16 16:58:55 2032 GMT
        Subject: CN=Client Cert G
        Subject Public Key Info:
            Public Key Algorithm: id-ecPublicKey
                Public-Key: (256 bit)
                pub:
                    04:85:64:45:27:ec:62:0d:6e:fd:ca:d5:40:85:b5:
                    74:fc:16:93:23:2b:4f:b8:c7:9b:64:05:3b:f1:09:
                    5b:d2:a5:3b:2c:2e:2e:cd:60:1e:92:5e:e2:e7:6d:
                    f4:e5:fa:42:09:cc:75:de:5d:c0:28:3a:a6:61:9c:
                    d4:d8:da:31:a8
                ASN1 OID: prime256v1
                NIST CURVE: P-256
        X509v3 extensions:
            X509v3 Basic Constraints: critical
                CA:FALSE
            X509v3 Extended Key Usage: 
                TLS Web Server Authentication, TLS Web Client Authentication
            X509v3 Subject Key Identifier: 
                F4:DC:DA:D1:28:7E:11:52:81:D1:FF:8D:A0:F8:85:87:78:5F:6B:DC
            X509v3 Authority Key Identifier: 
                F7:95:02:B8:47:AB:AF:EF:98:4D:A8:F9:C8:24:D4:A5:4F:46:47:CB
    Signature Algorithm: sha256WithRSAEncryption
    Signature Value:
        84:c0:ba:64:eb:32:97:8f:1c:d4:88:0a:94:0a:d3:12:e2:3f:
        b1:8d:70:85:ad:7f:28:11:00:4f:76:04:66:e0:3f:dd:56:44:
        98:f5:f0:b6:c8:22:ff:04:77:70:f9:18:f2:9b:1e:6f:fd:2a:
        5c:fc:40:3a:8a:b2:af:8d:df:33:6b:46:26:4d:5a:23:29:cd:
        07:ef:06:f7:b2:13:61:f0:20:26:14:7b:79:c5:cf:76:04:01:
        d6:f8:22:b1:05:22:6d:78:1d:8d:1b:f3:52:9c:4d:2b:c9:bf:
        3d:9c:48:88:9a:99:1f:1f:ea:27:b3:8b:81:62:f0:59:66:a8:
        7e:3f:fb:a6:05:a4:d3:5d:e3:d4:2e:b0:ba:f2:d9:dd:80:1b:
        08:fd:2b:e3:c5:76:9d:6e:62:d0:0d:41:dd:44:5b:b7:cc:14:
        44:5f:4e:58:e1:28:aa:63:3d:69:05:82:55:b5:51:2c:6d:bd:
        ca:a5:ce:a6:5d:d6:02:cc:ca:77:e9:3e:a4:f8:05:61:eb:ef:
        23:eb:ac:b9:93:1e:b5:49:e9:40:9c:b1:3c:b7:c0:ea:20:bd:
        0f:58:64:82:ea:42:35:21:39:e8:c9:d0:66:d2:1d:e1:22:fa:
        7e:2c:b3:48:a0:ee:3b:55:f6:78:7b:ec:3e:66:75:6c:ae:48:
        dd:3e:cd:f6
-----BEGIN CERTIFICATE-----
MIICRzCCAS+gAwIBAgICEAQwDQYJKoZIhvcNAQELBQAwDzENMAsGA1UEAwwERSBD
QTAeFw0yMjEwMTkxNjU4NTVaFw0zMjEwMTYxNjU4NTVaMBgxFjAUBgNVBAMMDUNs
aWVudCBDZXJ0IEcwWTATBgcqhkjOPQIBBggqhkjOPQMBBwNCAASFZEUn7GINbv3K
1UCFtXT8FpMjK0+4x5tkBTvxCVvSpTssLi7NYB6SXuLnbfTl+kIJzHXeXcAoOqZh
nNTY2jGoo28wbTAMBgNVHRMBAf8EAjAAMB0GA1UdJQQWMBQGCCsGAQUFBwMBBggr
BgEFBQcDAjAdBgNVHQ4EFgQU9Nza0Sh+EVKB0f+NoPiFh3hfa9wwHwYDVR0jBBgw
FoAU95UCuEerr++YTaj5yCTUpU9GR8swDQYJKoZIhvcNAQELBQADggEBAITAumTr
MpePHNSICpQK0xLiP7GNcIWtfygRAE92BGbgP91WRJj18LbIIv8Ed3D5GPKbHm/9
Klz8QDqKsq+N3zNrRiZNWiMpzQfvBveyE2HwICYUe3nFz3YEAdb4IrEFIm14HY0b
81KcTSvJvz2cSIiamR8f6iezi4Fi8FlmqH4/+6YFpNNd49QusLry2d2AGwj9K+PF
dp1uYtANQd1EW7fMFERfTljhKKpjPWkFglW1USxtvcqlzqZd1gLMynfpPqT4BWHr
7yPrrLmTHrVJ6UCcsTy3wOogvQ9YZILqQjUhOejJ0GbSHeEi+n4ss0ig7jtV9nh7
7D5mdWyuSN0+zfY=
-----END CERTIFICATE-----
