Certificate:
    Data:
        Version: 3 (0x2)
        Serial Number: 4096 (0x1000)
        Signature Algorithm: sha256WithRSAEncryption
        Issuer: CN=B CA
        Validity
            Not Before: Oct 19 16:58:55 2022 GMT
            Not After : Oct 16 16:58:55 2032 GMT
        Subject: CN=Client Cert A
        Subject Public Key Info:
            Public Key Algorithm: rsaEncryption
                Public-Key: (2048 bit)
                Modulus:
                    00:da:f8:3a:bb:4d:31:52:c3:50:31:46:46:9f:b6:
                    b0:8c:f2:db:8f:6d:81:fb:35:3c:4b:74:78:a5:d0:
                    5d:b2:e0:6f:8f:be:b9:6a:37:4a:81:e3:7b:51:68:
                    a2:4f:40:46:21:1b:e4:67:a6:95:de:3a:4e:bf:01:
                    b8:0e:15:70:50:08:fa:15:25:63:a3:c7:03:17:dd:
                    e6:b7:ad:22:cc:e4:2f:71:50:ff:51:b2:77:ff:7e:
                    49:e0:0f:a1:ba:a4:ea:36:9d:88:a7:7e:0a:48:35:
                    00:e1:18:1f:eb:f0:12:6c:eb:d4:4d:86:f8:1d:6c:
                    de:1a:57:b0:73:f1:61:98:a8:a1:77:0d:58:55:f8:
                    38:b9:cc:83:8f:34:2f:73:a1:94:0f:7b:2e:1d:b8:
                    c4:b4:e8:e1:11:1b:b3:a9:f1:f1:70:b3:74:28:0b:
                    31:32:c1:57:40:6d:ef:d1:fa:6e:68:7a:0f:3b:e6:
                    f2:d5:be:63:8d:c0:38:b9:da:6a:af:e2:b8:1b:7e:
                    5f:9a:3e:1c:b2:3f:3a:11:de:17:48:3c:48:b5:dc:
                    04:01:e6:19:b2:2c:07:13:0e:db:dc:89:bd:db:78:
                    d2:f0:e7:ce:8d:5d:c6:20:41:97:5c:6c:b9:83:92:
                    35:51:0c:ae:2e:9e:21:38:41:a4:54:19:e4:49:0f:
                    6f:b1
                Exponent: 65537 (0x10001)
        X509v3 extensions:
            X509v3 Basic Constraints: critical
                CA:FALSE
            X509v3 Extended Key Usage: 
                TLS Web Server Authentication, TLS Web Client Authentication
            X509v3 Subject Key Identifier: 
                90:E3:67:93:7D:10:6E:6D:4D:49:29:65:38:E5:F5:9C:66:62:DD:69
            X509v3 Authority Key Identifier: 
                6F:C5:EC:40:44:0F:5C:78:04:8E:66:11:4E:A1:EE:1E:38:38:FD:72
    Signature Algorithm: sha256WithRSAEncryption
    Signature Value:
        3e:f3:8a:9f:b7:8a:87:4f:64:56:08:e6:a0:07:e4:b9:f1:8a:
        88:50:a0:cc:95:bd:ab:7e:02:97:0f:ce:1b:fe:56:fc:44:3c:
        fa:b2:98:f9:cf:b4:a6:07:9e:b4:c5:64:9a:49:90:4b:81:5c:
        ed:ee:cc:3a:4f:ca:36:e8:dd:3c:e7:c1:2b:6b:b9:62:29:f8:
        6d:ca:61:53:40:20:32:1b:85:f9:55:0e:85:55:cf:bf:e9:b8:
        5d:ec:16:aa:8d:1d:85:d8:18:1a:6a:aa:e2:91:cf:ba:8b:46:
        2d:e8:d4:a9:24:98:20:b5:f7:e0:b9:fe:2e:ef:e9:94:17:c3:
        54:57:8f:7f:f8:04:91:6a:d3:0c:3a:1f:50:1c:18:c1:08:fe:
        c9:83:4f:23:2f:c4:b8:8d:db:d3:f2:45:54:27:29:2b:f3:50:
        7d:79:1f:38:17:09:8a:38:90:63:8b:29:8c:12:7f:1b:da:0e:
        01:b5:c7:7d:9b:65:99:5b:3e:de:0b:b0:83:d7:81:b0:0d:b4:
        09:b4:63:6d:2a:b0:25:f5:1f:cf:df:b1:fc:8a:c4:29:29:3b:
        d3:2c:ba:ad:83:21:56:dc:1e:7b:81:b8:77:4a:cb:09:e2:15:
        32:3b:78:69:33:97:ff:2f:e0:94:83:9d:6d:27:d0:8f:f4:ae:
        9d:7b:35:18
-----BEGIN CERTIFICATE-----
MIIDEjCCAfqgAwIBAgICEAAwDQYJKoZIhvcNAQELBQAwDzENMAsGA1UEAwwEQiBD
QTAeFw0yMjEwMTkxNjU4NTVaFw0zMjEwMTYxNjU4NTVaMBgxFjAUBgNVBAMMDUNs
aWVudCBDZXJ0IEEwggEiMA0GCSqGSIb3DQEBAQUAA4IBDwAwggEKAoIBAQDa+Dq7
TTFSw1AxRkaftrCM8tuPbYH7NTxLdHil0F2y4G+PvrlqN0qB43tRaKJPQEYhG+Rn
ppXeOk6/AbgOFXBQCPoVJWOjxwMX3ea3rSLM5C9xUP9Rsnf/fkngD6G6pOo2nYin
fgpINQDhGB/r8BJs69RNhvgdbN4aV7Bz8WGYqKF3DVhV+Di5zIOPNC9zoZQPey4d
uMS06OERG7Op8fFws3QoCzEywVdAbe/R+m5oeg875vLVvmONwDi52mqv4rgbfl+a
PhyyPzoR3hdIPEi13AQB5hmyLAcTDtvcib3beNLw586NXcYgQZdcbLmDkjVRDK4u
niE4QaRUGeRJD2+xAgMBAAGjbzBtMAwGA1UdEwEB/wQCMAAwHQYDVR0lBBYwFAYI
KwYBBQUHAwEGCCsGAQUFBwMCMB0GA1UdDgQWBBSQ42eTfRBubU1JKWU45fWcZmLd
aTAfBgNVHSMEGDAWgBRvxexARA9ceASOZhFOoe4eODj9cjANBgkqhkiG9w0BAQsF
AAOCAQEAPvOKn7eKh09kVgjmoAfkufGKiFCgzJW9q34Clw/OG/5W/EQ8+rKY+c+0
pgeetMVkmkmQS4Fc7e7MOk/KNujdPOfBK2u5Yin4bcphU0AgMhuF+VUOhVXPv+m4
XewWqo0dhdgYGmqq4pHPuotGLejUqSSYILX34Ln+Lu/plBfDVFePf/gEkWrTDDof
UBwYwQj+yYNPIy/EuI3b0/JFVCcpK/NQfXkfOBcJijiQY4spjBJ/G9oOAbXHfZtl
mVs+3guwg9eBsA20CbRjbSqwJfUfz9+x/IrEKSk70yy6rYMhVtwee4G4d0rLCeIV
Mjt4aTOX/y/glIOdbSfQj/SunXs1GA==
-----END CERTIFICATE-----
