Certificate:
    Data:
        Version: 3 (0x2)
        Serial Number: 4103 (0x1007)
        Signature Algorithm: sha256WithRSAEncryption
        Issuer: CN=E CA
        Validity
            Not Before: Oct 19 16:58:55 2022 GMT
            Not After : Oct 16 16:58:55 2032 GMT
        Subject: CN=Client Cert J
        Subject Public Key Info:
            Public Key Algorithm: rsaEncryption
                Public-Key: (1024 bit)
                Modulus:
                    00:c4:bb:1a:ae:83:ae:74:7b:6a:86:bb:cc:33:e0:
                    13:70:55:37:28:cb:79:66:2c:48:e2:a4:3e:b4:8e:
                    ec:6f:08:18:04:0a:1a:f3:a5:77:c9:39:2b:f4:96:
                    91:90:20:e5:18:f5:9c:71:6d:60:45:da:bc:d7:76:
                    40:21:ea:79:43:ba:81:52:6e:d8:90:0a:72:39:1b:
                    8f:1d:6b:b1:70:42:ce:fe:30:00:99:df:e1:ea:12:
                    ed:bf:df:14:86:72:64:49:b1:10:72:87:c7:ab:08:
                    9f:81:9d:13:11:14:8e:0c:ea:a9:32:79:a2:03:32:
                    72:da:8e:57:2e:52:fe:40:23
                Exponent: 65537 (0x10001)
        X509v3 extensions:
            X509v3 Basic Constraints: critical
                CA:FALSE
            X509v3 Extended Key Usage: 
                TLS Web Server Authentication, TLS Web Client Authentication
            X509v3 Subject Key Identifier: 
                45:86:46:CC:D4:64:F8:33:5A:7A:14:24:23:39:A7:65:D5:FE:D8:07
            X509v3 Authority Key Identifier: 
                F7:95:02:B8:47:AB:AF:EF:98:4D:A8:F9:C8:24:D4:A5:4F:46:47:CB
    Signature Algorithm: sha256WithRSAEncryption
    Signature Value:
        a0:3f:52:d0:e5:5c:4e:6a:51:fa:80:16:d1:3c:e4:7e:bf:ed:
        6c:32:d4:73:d2:89:71:ca:96:d3:3a:38:e1:ca:55:dc:23:31:
        5c:e9:9e:b4:1c:48:4c:9c:2e:f8:05:9f:61:f5:3d:24:ef:95:
        41:73:c2:f2:b6:51:c2:7f:6f:5c:d2:70:c2:6e:dd:0a:79:3f:
        bf:18:48:ef:2d:23:3b:68:f2:a0:23:4c:4c:fa:ff:48:ab:26:
        11:20:9f:e2:3b:68:67:96:08:ce:56:69:ba:68:09:a0:0a:34:
        fa:a1:4f:47:a0:be:2b:94:ad:57:02:43:09:13:52:28:1f:6a:
        a2:59:58:7b:84:5e:c5:09:42:a1:7a:d4:88:88:46:54:5c:73:
        51:3a:ac:ca:b2:30:3e:1f:9b:06:f3:28:1b:f0:71:8d:97:42:
        c9:42:1f:14:49:b5:57:f3:b2:35:64:44:9f:f7:14:2b:a6:0a:
        4e:cc:8a:c8:5d:5f:53:36:51:d7:55:0d:0a:bd:e4:d8:0d:b2:
        37:46:08:93:0c:cd:9d:10:32:58:37:52:10:15:f8:5a:98:ad:
        15:c7:e0:ba:40:43:a5:8c:44:dd:72:f8:cc:8c:a3:7f:33:6a:
        d9:a5:dc:2d:0b:97:07:ad:1e:dd:0a:1c:12:6a:9d:92:13:f6:
        09:0d:16:4e
-----BEGIN CERTIFICATE-----
MIICjjCCAXagAwIBAgICEAcwDQYJKoZIhvcNAQELBQAwDzENMAsGA1UEAwwERSBD
QTAeFw0yMjEwMTkxNjU4NTVaFw0zMjEwMTYxNjU4NTVaMBgxFjAUBgNVBAMMDUNs
aWVudCBDZXJ0IEowgZ8wDQYJKoZIhvcNAQEBBQADgY0AMIGJAoGBAMS7Gq6DrnR7
aoa7zDPgE3BVNyjLeWYsSOKkPrSO7G8IGAQKGvOld8k5K/SWkZAg5Rj1nHFtYEXa
vNd2QCHqeUO6gVJu2JAKcjkbjx1rsXBCzv4wAJnf4eoS7b/fFIZyZEmxEHKHx6sI
n4GdExEUjgzqqTJ5ogMyctqOVy5S/kAjAgMBAAGjbzBtMAwGA1UdEwEB/wQCMAAw
HQYDVR0lBBYwFAYIKwYBBQUHAwEGCCsGAQUFBwMCMB0GA1UdDgQWBBRFhkbM1GT4
M1p6FCQjOadl1f7YBzAfBgNVHSMEGDAWgBT3lQK4R6uv75hNqPnIJNSlT0ZHyzAN
BgkqhkiG9w0BAQsFAAOCAQEAoD9S0OVcTmpR+oAW0Tzkfr/tbDLUc9KJccqW0zo4
4cpV3CMxXOmetBxITJwu+AWfYfU9JO+VQXPC8rZRwn9vXNJwwm7dCnk/vxhI7y0j
O2jyoCNMTPr/SKsmESCf4jtoZ5YIzlZpumgJoAo0+qFPR6C+K5StVwJDCRNSKB9q
ollYe4RexQlCoXrUiIhGVFxzUTqsyrIwPh+bBvMoG/BxjZdCyUIfFEm1V/OyNWRE
n/cUK6YKTsyKyF1fUzZR11UNCr3k2A2yN0YIkwzNnRAyWDdSEBX4WpitFcfgukBD
pYxE3XL4zIyjfzNq2aXcLQuXB60e3QocEmqdkhP2CQ0WTg==
-----END CERTIFICATE-----
