Certificate:
    Data:
        Version: 3 (0x2)
        Serial Number: 4096 (0x1000)
        Signature Algorithm: sha256WithRSAEncryption
        Issuer: CN=B CA
        Validity
            Not Before: Jan 22 22:26:11 2025 GMT
            Not After : Jan 20 22:26:11 2035 GMT
        Subject: CN=Client Cert A
        Subject Public Key Info:
            Public Key Algorithm: rsaEncryption
                Public-Key: (2048 bit)
                Modulus:
                    00:ad:99:16:89:35:30:95:d6:ac:8d:8b:63:a1:b2:
                    6e:e0:0a:48:e7:51:d4:2b:cc:e7:41:91:8f:db:03:
                    1a:b7:29:32:6e:2c:33:37:86:fd:22:b1:b7:2d:8f:
                    8f:0c:7c:08:6f:61:c2:87:df:10:0b:0b:26:23:79:
                    98:6f:83:9c:0b:3d:29:13:fe:96:f8:b8:00:73:1d:
                    11:9f:74:09:3b:37:8e:4c:44:88:48:b4:d4:a3:e2:
                    60:17:7a:63:bc:dd:cf:7b:f5:eb:7c:2a:e6:34:9b:
                    c6:12:58:cc:82:3a:d1:9d:1a:cc:2c:01:94:25:a2:
                    bb:22:1b:29:38:e5:51:d4:d8:92:e3:8a:05:af:82:
                    71:74:ac:80:81:49:29:b9:3f:9a:c2:76:f6:4a:d4:
                    77:f4:be:75:64:34:1d:70:78:19:31:c8:be:4f:f0:
                    b0:e6:25:d9:ef:95:f4:04:d3:ab:2b:ce:48:f3:69:
                    eb:24:57:5c:5c:8b:e2:fd:1e:f0:ab:8e:75:1d:5b:
                    25:57:d3:95:61:f5:4c:62:a5:90:60:5e:6c:0c:ae:
                    e2:69:10:51:82:08:a5:4c:0e:77:3c:f4:80:b4:78:
                    50:af:28:fa:b6:2c:a0:ea:9d:44:8e:36:66:87:36:
                    35:b3:d1:fb:42:ed:67:a2:82:3f:15:78:61:ec:ef:
                    c9:4f
                Exponent: 65537 (0x10001)
        X509v3 extensions:
            X509v3 Basic Constraints: critical
                CA:FALSE
            X509v3 Extended Key Usage: 
                TLS Web Server Authentication, TLS Web Client Authentication
            X509v3 Subject Key Identifier: 
                B1:C5:18:09:EA:10:68:15:B6:BA:15:8F:6B:76:4C:05:AD:F3:B3:A9
            X509v3 Authority Key Identifier: 
                4F:32:87:FE:0A:59:45:E0:2F:21:70:25:62:E7:DE:32:16:9F:14:53
    Signature Algorithm: sha256WithRSAEncryption
    Signature Value:
        47:81:db:f3:56:cc:14:94:de:ca:cb:45:ba:58:99:a2:13:47:
        1f:8c:16:aa:8c:4e:7a:ae:21:06:26:40:22:8c:97:d2:1a:db:
        28:6a:33:c3:40:ea:84:c8:9e:67:cc:d8:cb:15:4f:85:6b:00:
        2f:67:3f:64:a8:0c:76:18:ce:b0:ed:0d:b5:ad:f6:66:e5:77:
        27:ff:f1:30:62:29:0d:58:30:7d:70:dd:14:55:67:c3:00:85:
        6c:8f:72:0a:da:a9:7c:b5:93:d2:ee:34:87:d7:97:53:23:33:
        ad:1c:11:18:97:48:ec:78:b2:8a:82:dd:6f:c0:9a:29:ab:1e:
        40:91:c7:22:1a:68:42:05:54:70:54:26:df:cd:86:10:2d:39:
        97:1a:19:2d:a3:37:92:8c:8c:f0:0a:a9:9f:f8:64:8d:38:19:
        86:b7:d4:b2:7d:2c:b1:2b:3b:33:76:f5:fa:4f:4a:d6:a0:a5:
        68:83:77:c2:23:bb:1e:c3:16:15:23:68:54:80:7a:56:09:32:
        c3:8e:d2:fe:5a:a1:31:49:71:50:0d:e0:ae:50:d8:53:24:75:
        cf:1b:21:90:2f:e6:33:54:53:59:56:8f:cd:13:a0:8e:0c:c6:
        53:ab:b6:06:c0:9e:28:11:8a:f3:99:d1:fe:ed:93:3a:d2:d8:
        64:e1:8a:7e
-----BEGIN CERTIFICATE-----
MIIDEjCCAfqgAwIBAgICEAAwDQYJKoZIhvcNAQELBQAwDzENMAsGA1UEAwwEQiBD
QTAeFw0yNTAxMjIyMjI2MTFaFw0zNTAxMjAyMjI2MTFaMBgxFjAUBgNVBAMMDUNs
aWVudCBDZXJ0IEEwggEiMA0GCSqGSIb3DQEBAQUAA4IBDwAwggEKAoIBAQCtmRaJ
NTCV1qyNi2Ohsm7gCkjnUdQrzOdBkY/bAxq3KTJuLDM3hv0isbctj48MfAhvYcKH
3xALCyYjeZhvg5wLPSkT/pb4uABzHRGfdAk7N45MRIhItNSj4mAXemO83c979et8
KuY0m8YSWMyCOtGdGswsAZQlorsiGyk45VHU2JLjigWvgnF0rICBSSm5P5rCdvZK
1Hf0vnVkNB1weBkxyL5P8LDmJdnvlfQE06srzkjzaeskV1xci+L9HvCrjnUdWyVX
05Vh9UxipZBgXmwMruJpEFGCCKVMDnc89IC0eFCvKPq2LKDqnUSONmaHNjWz0ftC
7Weigj8VeGHs78lPAgMBAAGjbzBtMAwGA1UdEwEB/wQCMAAwHQYDVR0lBBYwFAYI
KwYBBQUHAwEGCCsGAQUFBwMCMB0GA1UdDgQWBBSxxRgJ6hBoFba6FY9rdkwFrfOz
qTAfBgNVHSMEGDAWgBRPMof+CllF4C8hcCVi594yFp8UUzANBgkqhkiG9w0BAQsF
AAOCAQEAR4Hb81bMFJTeystFuliZohNHH4wWqoxOeq4hBiZAIoyX0hrbKGozw0Dq
hMieZ8zYyxVPhWsAL2c/ZKgMdhjOsO0Nta32ZuV3J//xMGIpDVgwfXDdFFVnwwCF
bI9yCtqpfLWT0u40h9eXUyMzrRwRGJdI7HiyioLdb8CaKaseQJHHIhpoQgVUcFQm
382GEC05lxoZLaM3koyM8Aqpn/hkjTgZhrfUsn0ssSs7M3b1+k9K1qClaIN3wiO7
HsMWFSNoVIB6Vgkyw47S/lqhMUlxUA3grlDYUyR1zxshkC/mM1RTWVaPzROgjgzG
U6u2BsCeKBGK85nR/u2TOtLYZOGKfg==
-----END CERTIFICATE-----
