Certificate:
    Data:
        Version: 3 (0x2)
        Serial Number: 4103 (0x1007)
        Signature Algorithm: sha256WithRSAEncryption
        Issuer: CN=E CA
        Validity
            Not Before: Jan 22 22:26:11 2025 GMT
            Not After : Jan 20 22:26:11 2035 GMT
        Subject: CN=Client Cert J
        Subject Public Key Info:
            Public Key Algorithm: rsaEncryption
                Public-Key: (1024 bit)
                Modulus:
                    00:a5:5d:3f:fe:59:95:13:53:69:fa:a4:b2:12:64:
                    8e:43:6e:48:76:0c:17:a0:df:01:2d:a0:23:e2:9d:
                    05:b2:b1:9c:ae:22:ee:b4:2e:c1:e8:6f:65:3f:0d:
                    89:74:bd:b7:d1:63:19:68:06:62:5d:62:10:64:ca:
                    d7:5a:33:d8:c8:3c:64:ca:16:de:7c:fc:70:9f:b1:
                    44:89:4d:c5:35:86:b9:f3:44:5d:29:28:df:ac:c1:
                    e4:61:da:a1:a1:a2:1f:b4:eb:ac:ad:c9:ad:c7:58:
                    4d:20:88:16:a7:2b:31:96:68:b1:1d:37:7d:e3:9f:
                    b5:4e:5b:3b:d2:7b:54:5d:fd
                Exponent: 65537 (0x10001)
        X509v3 extensions:
            X509v3 Basic Constraints: critical
                CA:FALSE
            X509v3 Extended Key Usage: 
                TLS Web Server Authentication, TLS Web Client Authentication
            X509v3 Subject Key Identifier: 
                95:94:01:6D:C2:98:5B:60:A3:31:E4:04:15:98:A7:89:1E:A2:2D:7D
            X509v3 Authority Key Identifier: 
                7E:F4:D9:D3:2D:59:49:3B:8D:41:13:EA:C7:32:1B:C6:43:13:44:3F
    Signature Algorithm: sha256WithRSAEncryption
    Signature Value:
        a6:99:31:21:91:95:5f:14:15:ff:12:1c:f8:f2:a4:c5:23:62:
        5c:f8:1c:5a:92:2d:59:d6:93:62:ca:b2:f0:0f:b0:d9:a2:f8:
        b2:d2:8d:94:68:f2:9a:3a:ad:85:80:cf:14:b0:c5:17:0c:d5:
        36:e0:38:98:19:75:44:ef:85:db:a1:f7:6b:3e:d7:cf:33:44:
        e4:a3:f8:a5:67:59:b2:72:20:9a:67:5d:b8:96:4b:88:7c:dc:
        99:ed:9e:7d:45:ce:4f:95:c8:a6:a5:cf:d2:44:77:53:06:a5:
        7e:bc:d3:31:dd:4c:81:95:f0:7a:79:02:67:cb:c7:69:e9:1a:
        fd:73:ab:ec:02:93:66:95:07:52:c2:e5:b7:ab:89:d9:15:21:
        46:91:2a:f0:0b:e0:11:13:17:32:af:d8:16:31:78:af:21:be:
        32:e7:17:70:8b:6d:5a:13:7b:81:88:e1:f5:9f:7b:a1:ba:47:
        77:11:08:78:e7:6d:d3:9a:8f:51:c6:ea:36:ba:4b:4e:bb:8d:
        3f:8a:1e:43:8e:b5:b7:6c:0e:1d:81:99:46:06:95:72:fd:94:
        c5:96:1a:96:6b:19:9b:69:ab:b1:45:e9:00:3a:c3:b0:fd:89:
        fa:44:86:75:d0:65:dc:a6:81:3d:6a:f1:05:c1:cb:c2:c0:9d:
        70:ea:46:7b
-----BEGIN CERTIFICATE-----
MIICjjCCAXagAwIBAgICEAcwDQYJKoZIhvcNAQELBQAwDzENMAsGA1UEAwwERSBD
QTAeFw0yNTAxMjIyMjI2MTFaFw0zNTAxMjAyMjI2MTFaMBgxFjAUBgNVBAMMDUNs
aWVudCBDZXJ0IEowgZ8wDQYJKoZIhvcNAQEBBQADgY0AMIGJAoGBAKVdP/5ZlRNT
afqkshJkjkNuSHYMF6DfAS2gI+KdBbKxnK4i7rQuwehvZT8NiXS9t9FjGWgGYl1i
EGTK11oz2Mg8ZMoW3nz8cJ+xRIlNxTWGufNEXSko36zB5GHaoaGiH7TrrK3JrcdY
TSCIFqcrMZZosR03feOftU5bO9J7VF39AgMBAAGjbzBtMAwGA1UdEwEB/wQCMAAw
HQYDVR0lBBYwFAYIKwYBBQUHAwEGCCsGAQUFBwMCMB0GA1UdDgQWBBSVlAFtwphb
YKMx5AQVmKeJHqItfTAfBgNVHSMEGDAWgBR+9NnTLVlJO41BE+rHMhvGQxNEPzAN
BgkqhkiG9w0BAQsFAAOCAQEAppkxIZGVXxQV/xIc+PKkxSNiXPgcWpItWdaTYsqy
8A+w2aL4stKNlGjymjqthYDPFLDFFwzVNuA4mBl1RO+F26H3az7XzzNE5KP4pWdZ
snIgmmdduJZLiHzcme2efUXOT5XIpqXP0kR3UwalfrzTMd1MgZXwenkCZ8vHaeka
/XOr7AKTZpUHUsLlt6uJ2RUhRpEq8AvgERMXMq/YFjF4ryG+MucXcIttWhN7gYjh
9Z97obpHdxEIeOdt05qPUcbqNrpLTruNP4oeQ461t2wOHYGZRgaVcv2UxZYalmsZ
m2mrsUXpADrDsP2J+kSGddBl3KaBPWrxBcHLwsCdcOpGew==
-----END CERTIFICATE-----
