Certificate:
    Data:
        Version: 3 (0x2)
        Serial Number: 4098 (0x1002)
        Signature Algorithm: sha256WithRSAEncryption
        Issuer: CN=E CA
        Validity
            Not Before: Oct 19 16:58:55 2022 GMT
            Not After : Oct 16 16:58:55 2032 GMT
        Subject: CN=Client Cert D
        Subject Public Key Info:
            Public Key Algorithm: rsaEncryption
                Public-Key: (2048 bit)
                Modulus:
                    00:a7:e9:f1:77:9c:37:a7:84:ab:cf:ea:1a:8c:cc:
                    5c:64:a7:c2:d3:22:24:3a:d7:fb:bf:85:20:28:11:
                    d6:79:6a:01:30:48:64:3b:e6:d8:39:4a:2a:c8:06:
                    c9:82:c5:ef:03:d4:ac:71:d0:58:cf:82:aa:64:bb:
                    ca:b5:f6:79:03:86:a4:39:5a:fa:e8:62:f8:ef:66:
                    47:02:81:ef:f4:5e:7e:59:6d:15:e1:70:64:c5:c9:
                    49:98:47:bb:e0:8f:04:d9:d2:71:c9:30:68:a5:26:
                    82:bf:6c:bc:6b:6f:4f:ae:40:41:f0:5c:23:05:02:
                    da:2b:2f:83:34:9d:07:f2:ae:9c:06:a8:3d:fe:39:
                    a7:df:9f:1c:bf:f5:9a:f4:3a:23:65:98:47:b0:57:
                    3b:21:56:97:e9:24:64:28:32:22:15:7d:ec:2b:27:
                    a2:5d:a6:fd:bd:0d:38:7b:39:66:3e:5e:f1:ba:e4:
                    8a:11:95:13:59:88:38:ed:7a:83:f4:21:29:b2:1e:
                    77:2e:9e:8e:90:10:82:fe:df:f8:5f:fb:57:f7:54:
                    2e:04:ce:28:4e:22:e9:d6:0b:47:9e:66:36:d1:d6:
                    98:36:95:22:ce:c7:50:2e:3f:d2:66:ee:09:6e:c7:
                    aa:2a:7b:d4:10:bc:ba:a6:90:6a:cb:9b:f5:fe:7d:
                    11:8b
                Exponent: 65537 (0x10001)
        X509v3 extensions:
            X509v3 Basic Constraints: critical
                CA:FALSE
            X509v3 Extended Key Usage: 
                TLS Web Server Authentication, TLS Web Client Authentication
            X509v3 Subject Key Identifier: 
                D7:3C:2C:3F:BC:E3:23:9B:41:9E:BA:E7:65:C6:54:51:9F:FA:D6:F2
            X509v3 Authority Key Identifier: 
                F7:95:02:B8:47:AB:AF:EF:98:4D:A8:F9:C8:24:D4:A5:4F:46:47:CB
    Signature Algorithm: sha256WithRSAEncryption
    Signature Value:
        07:c9:48:cf:dd:91:07:75:be:03:de:3d:66:44:18:89:0c:ec:
        38:d7:9c:6b:6f:ce:f5:24:9f:33:cf:b9:88:2e:0b:94:ee:c5:
        9c:23:1d:c0:b3:41:34:6b:89:90:c0:2c:ef:e6:ac:a1:53:2a:
        a0:01:c8:4e:26:d6:18:8b:d2:f2:f5:cc:06:fe:05:65:8b:1e:
        62:56:eb:39:dc:ac:95:70:d7:b7:52:c0:4c:57:a5:5b:01:a6:
        5f:75:76:8b:15:3e:f0:56:83:b7:62:d1:40:11:52:68:fb:fc:
        46:ec:a0:06:0e:a0:ba:e6:3f:7e:b6:01:bd:df:a8:37:1a:2a:
        08:00:b2:7b:1a:ca:2a:7f:47:d9:c9:7d:ac:fb:fb:84:fd:c0:
        f1:d7:53:26:01:c3:04:38:ca:30:c6:01:e5:6a:24:e0:72:2b:
        be:98:3b:af:ca:bb:b4:af:d0:ad:29:27:5d:63:99:0d:d5:0b:
        8a:43:8c:f4:32:5d:a2:24:44:de:af:b9:fb:fe:b7:92:17:a5:
        a5:51:bb:30:b4:0b:1a:43:df:2b:80:d6:61:47:b0:31:36:38:
        d9:39:e4:f0:2c:cf:01:e2:6a:9e:f5:77:72:ca:42:ef:64:11:
        5d:39:af:7e:25:52:a5:3f:dd:96:9a:79:f0:cf:1a:b4:34:80:
        a1:e8:eb:31
-----BEGIN CERTIFICATE-----
MIIDEjCCAfqgAwIBAgICEAIwDQYJKoZIhvcNAQELBQAwDzENMAsGA1UEAwwERSBD
QTAeFw0yMjEwMTkxNjU4NTVaFw0zMjEwMTYxNjU4NTVaMBgxFjAUBgNVBAMMDUNs
aWVudCBDZXJ0IEQwggEiMA0GCSqGSIb3DQEBAQUAA4IBDwAwggEKAoIBAQCn6fF3
nDenhKvP6hqMzFxkp8LTIiQ61/u/hSAoEdZ5agEwSGQ75tg5SirIBsmCxe8D1Kxx
0FjPgqpku8q19nkDhqQ5WvroYvjvZkcCge/0Xn5ZbRXhcGTFyUmYR7vgjwTZ0nHJ
MGilJoK/bLxrb0+uQEHwXCMFAtorL4M0nQfyrpwGqD3+Oaffnxy/9Zr0OiNlmEew
VzshVpfpJGQoMiIVfewrJ6Jdpv29DTh7OWY+XvG65IoRlRNZiDjteoP0ISmyHncu
no6QEIL+3/hf+1f3VC4EzihOIunWC0eeZjbR1pg2lSLOx1AuP9Jm7glux6oqe9QQ
vLqmkGrLm/X+fRGLAgMBAAGjbzBtMAwGA1UdEwEB/wQCMAAwHQYDVR0lBBYwFAYI
KwYBBQUHAwEGCCsGAQUFBwMCMB0GA1UdDgQWBBTXPCw/vOMjm0GeuudlxlRRn/rW
8jAfBgNVHSMEGDAWgBT3lQK4R6uv75hNqPnIJNSlT0ZHyzANBgkqhkiG9w0BAQsF
AAOCAQEAB8lIz92RB3W+A949ZkQYiQzsONeca2/O9SSfM8+5iC4LlO7FnCMdwLNB
NGuJkMAs7+asoVMqoAHITibWGIvS8vXMBv4FZYseYlbrOdyslXDXt1LATFelWwGm
X3V2ixU+8FaDt2LRQBFSaPv8RuygBg6guuY/frYBvd+oNxoqCACyexrKKn9H2cl9
rPv7hP3A8ddTJgHDBDjKMMYB5Wok4HIrvpg7r8q7tK/QrSknXWOZDdULikOM9DJd
oiRE3q+5+/63khelpVG7MLQLGkPfK4DWYUewMTY42Tnk8CzPAeJqnvV3cspC72QR
XTmvfiVSpT/dlpp58M8atDSAoejrMQ==
-----END CERTIFICATE-----
