Certificate:
    Data:
        Version: 3 (0x2)
        Serial Number: 4098 (0x1002)
        Signature Algorithm: sha256WithRSAEncryption
        Issuer: CN=C Root CA
        Validity
            Not Before: Apr 16 22:29:24 2026 GMT
            Not After : Apr 13 22:29:24 2036 GMT
        Subject: CN=E CA
        Subject Public Key Info:
            Public Key Algorithm: rsaEncryption
                Public-Key: (2048 bit)
                Modulus:
                    00:c7:26:0e:bd:81:ba:9d:0b:b2:9b:e1:87:74:ed:
                    49:b3:65:23:65:fc:aa:05:f6:75:56:ff:40:02:0e:
                    b0:4c:4b:c5:7c:9b:9c:61:d5:cf:a9:e9:7a:37:93:
                    ce:b8:03:1c:74:3d:b8:a6:0b:9d:8c:cc:2d:8a:02:
                    d7:2d:9e:04:56:14:53:30:d0:94:35:90:fd:5f:4a:
                    54:a5:6d:8a:38:a6:9f:d2:4f:50:5e:89:bc:38:e1:
                    2a:24:7e:94:f0:7c:be:5c:00:bc:08:58:f2:05:8b:
                    ba:1a:54:7d:b3:c7:4e:e1:fd:0d:23:a4:43:d8:c4:
                    f5:57:ed:e4:b6:7a:81:74:5b:cc:b7:f8:72:a7:4d:
                    32:74:86:89:fa:98:dd:6e:7b:64:f1:ae:36:00:2b:
                    99:af:4c:f1:2c:ab:37:52:59:82:1c:d5:e6:40:c8:
                    3e:42:b0:78:93:53:80:da:0f:c5:78:80:8b:01:37:
                    48:5a:15:84:4e:44:ac:18:ca:19:af:92:28:1e:79:
                    41:8c:aa:8d:16:f0:91:e2:99:0f:ff:54:a9:15:1f:
                    d0:5f:1e:e8:16:5a:df:02:d1:5b:6b:0c:45:0f:fd:
                    30:8c:24:0b:e9:fc:5e:cd:e1:49:e3:96:06:52:ee:
                    5f:e4:ef:ab:b5:48:30:b3:5e:eb:99:40:42:f2:65:
                    7e:f1
                Exponent: 65537 (0x10001)
        X509v3 extensions:
            X509v3 Basic Constraints: critical
                CA:TRUE
            X509v3 Key Usage: critical
                Certificate Sign, CRL Sign
            X509v3 Subject Key Identifier: 
                5C:E2:7E:C6:75:71:A7:AE:C3:AD:E9:01:B7:8F:DE:AC:92:18:1B:D4
            X509v3 Authority Key Identifier: 
                10:3A:B0:B6:1B:E0:65:0B:D2:03:DD:BC:8A:CD:98:62:DF:43:33:60
    Signature Algorithm: sha256WithRSAEncryption
    Signature Value:
        6f:a5:d9:8e:e7:3a:c6:91:21:e5:f0:66:3e:cf:10:e3:96:2a:
        25:d3:fc:9f:b3:03:f0:f5:5e:55:a5:ac:47:fc:1a:99:62:ac:
        de:bc:71:10:1c:0f:6e:3f:06:b0:eb:65:17:fe:fc:8b:9b:ce:
        67:0a:9a:5c:54:a5:1d:7d:e5:be:7d:7d:c3:32:e5:f6:2e:9e:
        3d:96:d1:53:26:19:fa:70:f7:97:be:e5:57:4e:e6:0c:ee:13:
        0a:d9:48:01:96:18:3a:41:bd:27:9d:ed:ce:fe:26:6e:60:47:
        6e:38:a6:00:bb:29:34:36:33:b7:c8:37:f3:50:10:04:90:49:
        48:82:26:85:16:d2:7d:db:39:a3:8d:21:e8:c0:e9:ad:78:3b:
        f9:4b:8b:84:9a:72:eb:a0:1f:61:fb:d1:ca:4d:91:e7:a1:d2:
        4a:b3:0a:30:b3:fb:c2:28:68:9e:b8:6c:fd:79:10:7b:93:a1:
        da:9b:e6:06:44:06:7b:dc:fd:de:9e:79:3f:d8:d1:bd:41:17:
        8a:ba:e7:fe:b3:d8:ae:ef:21:4b:86:c9:12:8e:27:0f:0b:b2:
        4b:20:6b:1a:09:73:e5:b2:91:ee:d8:d9:e1:8b:af:a3:12:0a:
        c2:7a:85:51:8d:18:d6:b7:9a:5f:2a:8a:59:f3:cf:6c:83:84:
        4f:c7:32:e4
-----BEGIN CERTIFICATE-----
MIIDAjCCAeqgAwIBAgICEAIwDQYJKoZIhvcNAQELBQAwFDESMBAGA1UEAwwJQyBS
b290IENBMB4XDTI2MDQxNjIyMjkyNFoXDTM2MDQxMzIyMjkyNFowDzENMAsGA1UE
AwwERSBDQTCCASIwDQYJKoZIhvcNAQEBBQADggEPADCCAQoCggEBAMcmDr2Bup0L
spvhh3TtSbNlI2X8qgX2dVb/QAIOsExLxXybnGHVz6npejeTzrgDHHQ9uKYLnYzM
LYoC1y2eBFYUUzDQlDWQ/V9KVKVtijimn9JPUF6JvDjhKiR+lPB8vlwAvAhY8gWL
uhpUfbPHTuH9DSOkQ9jE9Vft5LZ6gXRbzLf4cqdNMnSGifqY3W57ZPGuNgArma9M
8SyrN1JZghzV5kDIPkKweJNTgNoPxXiAiwE3SFoVhE5ErBjKGa+SKB55QYyqjRbw
keKZD/9UqRUf0F8e6BZa3wLRW2sMRQ/9MIwkC+n8Xs3hSeOWBlLuX+Tvq7VIMLNe
65lAQvJlfvECAwEAAaNjMGEwDwYDVR0TAQH/BAUwAwEB/zAOBgNVHQ8BAf8EBAMC
AQYwHQYDVR0OBBYEFFzifsZ1caeuw63pAbeP3qySGBvUMB8GA1UdIwQYMBaAFBA6
sLYb4GUL0gPdvIrNmGLfQzNgMA0GCSqGSIb3DQEBCwUAA4IBAQBvpdmO5zrGkSHl
8GY+zxDjliol0/yfswPw9V5VpaxH/BqZYqzevHEQHA9uPwaw62UX/vyLm85nCppc
VKUdfeW+fX3DMuX2Lp49ltFTJhn6cPeXvuVXTuYM7hMK2UgBlhg6Qb0nne3O/iZu
YEduOKYAuyk0NjO3yDfzUBAEkElIgiaFFtJ92zmjjSHowOmteDv5S4uEmnLroB9h
+9HKTZHnodJKswows/vCKGieuGz9eRB7k6Ham+YGRAZ73P3ennk/2NG9QReKuuf+
s9iu7yFLhskSjicPC7JLIGsaCXPlspHu2Nnhi6+jEgrCeoVRjRjWt5pfKopZ889s
g4RPxzLk
-----END CERTIFICATE-----
