Certificate:
    Data:
        Version: 3 (0x2)
        Serial Number: 4100 (0x1004)
        Signature Algorithm: sha256WithRSAEncryption
        Issuer: CN=E CA
        Validity
            Not Before: Jan 22 22:26:11 2025 GMT
            Not After : Jan 20 22:26:11 2035 GMT
        Subject: CN=Client Cert G
        Subject Public Key Info:
            Public Key Algorithm: id-ecPublicKey
                Public-Key: (256 bit)
                pub:
                    04:cd:3c:1f:33:a9:1c:25:ac:8a:0c:5e:10:c4:4e:
                    51:7e:69:a3:b9:4e:db:66:71:0e:3f:cd:7c:4a:e8:
                    7e:85:3a:0e:0e:7f:40:58:5f:d2:98:99:9e:bb:b3:
                    91:c1:83:dd:f0:a5:07:b4:25:63:0f:5c:4a:b4:21:
                    61:57:74:e1:c6
                ASN1 OID: prime256v1
                NIST CURVE: P-256
        X509v3 extensions:
            X509v3 Basic Constraints: critical
                CA:FALSE
            X509v3 Extended Key Usage: 
                TLS Web Server Authentication, TLS Web Client Authentication
            X509v3 Subject Key Identifier: 
                BA:96:A6:6E:B8:9F:2B:7D:87:B0:63:8B:93:70:B9:32:95:1A:FA:3D
            X509v3 Authority Key Identifier: 
                7E:F4:D9:D3:2D:59:49:3B:8D:41:13:EA:C7:32:1B:C6:43:13:44:3F
    Signature Algorithm: sha256WithRSAEncryption
    Signature Value:
        a4:c9:5f:98:46:dd:7f:5f:b6:8c:7b:8e:cd:92:6b:97:68:2a:
        f9:e1:b6:79:aa:25:73:d5:db:cd:b6:97:e8:53:39:13:88:e3:
        f2:22:2a:e7:13:ea:10:1b:be:cc:1d:b0:63:1f:fb:3a:38:6b:
        1c:41:2f:30:36:72:18:0c:49:50:97:10:f4:7e:97:7f:1b:86:
        8b:7e:62:c5:4d:07:c0:34:f8:0b:cb:e4:40:aa:02:ef:64:d9:
        b9:f6:8c:ac:00:44:54:86:05:eb:36:7d:ef:f7:93:c0:c3:22:
        2a:54:39:9a:ca:97:cd:79:32:74:48:a3:ef:d2:36:f9:6a:3a:
        9e:98:7d:83:31:f9:f9:93:21:59:e3:90:23:56:9d:f5:42:8a:
        77:4a:5b:e1:c1:7e:40:ad:fe:c9:ab:25:d6:cc:fd:bc:e5:e2:
        9e:c2:2d:6f:5f:d0:cb:e2:4d:8a:08:08:80:74:ab:74:d5:29:
        c0:65:38:71:91:29:3c:81:b1:07:1b:58:f5:b5:be:37:ec:71:
        f6:66:a2:f5:eb:51:7d:0e:49:b0:d4:52:f9:b5:75:86:64:de:
        12:69:d4:21:ed:ea:6d:5b:34:9c:ed:06:54:d6:f4:a6:ba:5c:
        16:c6:7a:80:ee:7b:55:10:88:48:bd:7f:5c:06:fd:b5:1d:84:
        76:cb:4f:97
-----BEGIN CERTIFICATE-----
MIICRzCCAS+gAwIBAgICEAQwDQYJKoZIhvcNAQELBQAwDzENMAsGA1UEAwwERSBD
QTAeFw0yNTAxMjIyMjI2MTFaFw0zNTAxMjAyMjI2MTFaMBgxFjAUBgNVBAMMDUNs
aWVudCBDZXJ0IEcwWTATBgcqhkjOPQIBBggqhkjOPQMBBwNCAATNPB8zqRwlrIoM
XhDETlF+aaO5TttmcQ4/zXxK6H6FOg4Of0BYX9KYmZ67s5HBg93wpQe0JWMPXEq0
IWFXdOHGo28wbTAMBgNVHRMBAf8EAjAAMB0GA1UdJQQWMBQGCCsGAQUFBwMBBggr
BgEFBQcDAjAdBgNVHQ4EFgQUupambrifK32HsGOLk3C5MpUa+j0wHwYDVR0jBBgw
FoAUfvTZ0y1ZSTuNQRPqxzIbxkMTRD8wDQYJKoZIhvcNAQELBQADggEBAKTJX5hG
3X9ftox7js2Sa5doKvnhtnmqJXPV2822l+hTOROI4/IiKucT6hAbvswdsGMf+zo4
axxBLzA2chgMSVCXEPR+l38bhot+YsVNB8A0+AvL5ECqAu9k2bn2jKwARFSGBes2
fe/3k8DDIipUOZrKl815MnRIo+/SNvlqOp6YfYMx+fmTIVnjkCNWnfVCindKW+HB
fkCt/smrJdbM/bzl4p7CLW9f0MviTYoICIB0q3TVKcBlOHGRKTyBsQcbWPW1vjfs
cfZmovXrUX0OSbDUUvm1dYZk3hJp1CHt6m1bNJztBlTW9Ka6XBbGeoDue1UQiEi9
f1wG/bUdhHbLT5c=
-----END CERTIFICATE-----
