Certificate:
    Data:
        Version: 3 (0x2)
        Serial Number: 4098 (0x1002)
        Signature Algorithm: sha256WithRSAEncryption
        Issuer: CN=E CA
        Validity
            Not Before: Jan 22 22:26:11 2025 GMT
            Not After : Jan 20 22:26:11 2035 GMT
        Subject: CN=Client Cert D
        Subject Public Key Info:
            Public Key Algorithm: rsaEncryption
                Public-Key: (2048 bit)
                Modulus:
                    00:95:03:cc:ae:e9:44:73:22:a9:07:1f:15:d7:fc:
                    07:28:8c:67:02:45:49:47:6b:61:f0:c5:d7:5b:c1:
                    a6:8d:7a:b8:b4:74:48:2e:cd:c7:ed:29:1b:63:1c:
                    31:72:25:d4:f6:f8:7e:88:c5:b5:4f:d5:a1:fe:e4:
                    0a:20:ab:d9:7b:97:ce:29:c2:1a:97:d8:6d:13:e6:
                    db:6a:21:39:aa:f6:0c:ca:b4:a3:8b:a4:0a:6a:0b:
                    f3:f5:30:f9:09:94:6a:5f:41:2b:b0:fd:21:d0:6f:
                    f6:d6:b4:7d:38:39:cb:e9:2d:81:7a:d7:83:74:7c:
                    68:3d:4b:ca:6c:6d:18:78:c6:f6:d2:d0:4e:07:76:
                    df:62:f8:c1:21:88:cf:0f:fe:60:54:a9:ad:62:79:
                    64:01:da:0d:8e:84:97:39:5b:59:78:00:77:da:57:
                    0d:8d:f4:bc:2c:ee:d4:71:f8:2c:ce:db:7d:16:58:
                    bf:69:db:2e:b2:3d:70:da:bd:84:29:a1:5f:d3:ea:
                    28:9e:49:e9:f3:21:78:9b:78:18:eb:c9:fb:b0:8b:
                    96:83:35:98:53:f5:15:a6:2f:1b:e0:26:b5:7a:0e:
                    44:5a:a3:29:10:f6:38:9d:25:d0:27:cb:e5:97:7f:
                    b3:5e:b8:0f:5f:45:24:08:99:63:d3:70:ec:9a:c0:
                    8f:bd
                Exponent: 65537 (0x10001)
        X509v3 extensions:
            X509v3 Basic Constraints: critical
                CA:FALSE
            X509v3 Extended Key Usage: 
                TLS Web Server Authentication, TLS Web Client Authentication
            X509v3 Subject Key Identifier: 
                CF:5B:F1:60:B1:8C:86:07:96:A4:E9:71:13:01:E7:12:94:F1:F8:2E
            X509v3 Authority Key Identifier: 
                7E:F4:D9:D3:2D:59:49:3B:8D:41:13:EA:C7:32:1B:C6:43:13:44:3F
    Signature Algorithm: sha256WithRSAEncryption
    Signature Value:
        ae:53:0a:1c:24:73:98:50:e5:e8:2a:85:d8:c0:5c:dd:2a:39:
        9d:d7:05:b0:bd:e2:24:de:31:45:ed:46:16:0b:b0:74:e8:9a:
        da:f3:cb:e8:3b:ef:8d:37:77:44:88:3f:e3:ed:6b:01:73:2c:
        23:9f:56:6e:59:56:3a:fa:f1:52:5a:ac:f7:fa:7b:17:95:f3:
        aa:16:39:e5:63:11:40:ba:f5:64:1c:c0:14:8d:fb:a9:6f:04:
        31:4a:97:a8:2f:70:a1:6b:b2:bf:84:d1:fb:69:6f:37:19:d6:
        c8:57:01:20:88:79:be:5c:01:61:7f:e4:1d:aa:b0:5a:d3:28:
        57:a3:32:7c:33:75:69:3b:c9:a2:fa:e7:70:74:98:ab:db:60:
        ad:66:59:ec:3a:40:8a:89:9a:e2:c7:30:dd:e0:6c:84:f1:52:
        38:14:98:62:01:f1:7c:9d:98:cb:94:55:52:2c:f5:55:de:fb:
        70:de:a3:2b:97:e6:8c:d9:ec:64:60:4d:2f:71:a3:57:04:97:
        ca:5c:a5:cb:17:55:fc:bb:53:42:41:de:a8:f4:38:12:16:5f:
        1a:de:a2:67:92:96:7a:6e:b0:f7:67:0e:c4:9d:3e:cc:a2:01:
        80:8c:18:50:3b:57:a1:8a:d4:02:a3:a3:9d:04:b1:51:8c:65:
        81:16:9a:4e
-----BEGIN CERTIFICATE-----
MIIDEjCCAfqgAwIBAgICEAIwDQYJKoZIhvcNAQELBQAwDzENMAsGA1UEAwwERSBD
QTAeFw0yNTAxMjIyMjI2MTFaFw0zNTAxMjAyMjI2MTFaMBgxFjAUBgNVBAMMDUNs
aWVudCBDZXJ0IEQwggEiMA0GCSqGSIb3DQEBAQUAA4IBDwAwggEKAoIBAQCVA8yu
6URzIqkHHxXX/AcojGcCRUlHa2HwxddbwaaNeri0dEguzcftKRtjHDFyJdT2+H6I
xbVP1aH+5Aogq9l7l84pwhqX2G0T5ttqITmq9gzKtKOLpApqC/P1MPkJlGpfQSuw
/SHQb/bWtH04OcvpLYF614N0fGg9S8psbRh4xvbS0E4Hdt9i+MEhiM8P/mBUqa1i
eWQB2g2OhJc5W1l4AHfaVw2N9Lws7tRx+CzO230WWL9p2y6yPXDavYQpoV/T6iie
SenzIXibeBjryfuwi5aDNZhT9RWmLxvgJrV6DkRaoykQ9jidJdAny+WXf7NeuA9f
RSQImWPTcOyawI+9AgMBAAGjbzBtMAwGA1UdEwEB/wQCMAAwHQYDVR0lBBYwFAYI
KwYBBQUHAwEGCCsGAQUFBwMCMB0GA1UdDgQWBBTPW/FgsYyGB5ak6XETAecSlPH4
LjAfBgNVHSMEGDAWgBR+9NnTLVlJO41BE+rHMhvGQxNEPzANBgkqhkiG9w0BAQsF
AAOCAQEArlMKHCRzmFDl6CqF2MBc3So5ndcFsL3iJN4xRe1GFguwdOia2vPL6Dvv
jTd3RIg/4+1rAXMsI59WbllWOvrxUlqs9/p7F5XzqhY55WMRQLr1ZBzAFI37qW8E
MUqXqC9woWuyv4TR+2lvNxnWyFcBIIh5vlwBYX/kHaqwWtMoV6MyfDN1aTvJovrn
cHSYq9tgrWZZ7DpAioma4scw3eBshPFSOBSYYgHxfJ2Yy5RVUiz1Vd77cN6jK5fm
jNnsZGBNL3GjVwSXylylyxdV/LtTQkHeqPQ4EhZfGt6iZ5KWem6w92cOxJ0+zKIB
gIwYUDtXoYrUAqOjnQSxUYxlgRaaTg==
-----END CERTIFICATE-----
