Certificate:
    Data:
        Version: 3 (0x2)
        Serial Number: 4102 (0x1006)
        Signature Algorithm: sha256WithRSAEncryption
        Issuer: CN=E CA
        Validity
            Not Before: Jan 22 22:26:11 2025 GMT
            Not After : Jan 20 22:26:11 2035 GMT
        Subject: CN=Client Cert I
        Subject Public Key Info:
            Public Key Algorithm: id-ecPublicKey
                Public-Key: (521 bit)
                pub:
                    04:00:45:1e:df:e3:1f:86:d7:18:1b:e0:e7:e3:8c:
                    51:fa:06:49:30:ec:06:a3:5d:7a:d8:e2:2c:ed:17:
                    8f:b6:99:22:4c:f1:5c:9a:65:9a:a7:98:4b:e1:ab:
                    83:25:bf:74:4e:0a:5a:b9:74:74:f5:ec:3a:68:27:
                    33:5d:cb:3d:87:ad:0f:01:02:6a:a0:8a:18:67:25:
                    92:c2:f6:9a:a3:db:44:bb:58:83:ac:cd:62:9f:01:
                    9e:8b:2f:14:7c:ad:41:ab:da:4c:2e:6e:dc:a4:4b:
                    09:7b:e9:b8:ae:bb:14:9f:13:e1:a0:4a:bb:f7:4a:
                    b4:e1:11:82:33:f3:52:20:f5:5d:55:64:ee
                ASN1 OID: secp521r1
                NIST CURVE: P-521
        X509v3 extensions:
            X509v3 Basic Constraints: critical
                CA:FALSE
            X509v3 Extended Key Usage: 
                TLS Web Server Authentication, TLS Web Client Authentication
            X509v3 Subject Key Identifier: 
                D7:3C:83:09:07:8D:50:77:F6:43:D4:53:7C:8F:DE:1E:29:8C:17:DF
            X509v3 Authority Key Identifier: 
                7E:F4:D9:D3:2D:59:49:3B:8D:41:13:EA:C7:32:1B:C6:43:13:44:3F
    Signature Algorithm: sha256WithRSAEncryption
    Signature Value:
        5d:08:63:0f:95:9a:ad:f1:85:89:7f:5c:d8:7d:86:40:89:39:
        77:9b:16:0a:e9:a3:ee:9c:95:df:f1:d3:3e:39:60:4a:05:22:
        2f:ca:83:f6:7a:02:98:22:06:c3:35:fe:b5:ea:2a:c8:87:dd:
        b5:db:38:32:f4:1a:4f:43:33:7d:fc:43:65:41:cb:79:18:1c:
        0a:66:df:db:ac:0e:af:a9:92:f2:6a:f8:db:91:fc:55:4b:27:
        07:df:b2:82:53:c3:f9:81:88:f4:f1:dd:6f:a0:39:56:d4:ab:
        d2:e9:54:38:b3:42:75:b6:7b:d4:8c:d8:16:4c:f2:cc:be:da:
        5f:48:db:c2:85:b6:89:98:91:d9:a6:1c:0c:fa:47:76:41:e0:
        1d:90:5d:c4:b2:e9:e2:00:36:cd:a8:cd:95:62:09:4d:07:49:
        49:6f:29:f6:fc:24:20:f2:af:d6:09:d3:ad:ac:53:39:00:de:
        1d:b2:4a:9c:b5:9e:18:83:be:30:79:ff:e4:c9:e2:f0:5c:ae:
        62:ad:ef:ee:bf:7d:b6:84:61:23:11:c0:f7:85:0d:c7:14:33:
        58:5d:3a:aa:4c:4f:d7:a7:56:1e:e8:2a:69:20:74:3a:fe:3f:
        a8:95:97:39:96:7d:d1:c7:c0:de:f4:fa:d7:03:16:bb:9a:75:
        67:24:31:6a
-----BEGIN CERTIFICATE-----
MIICijCCAXKgAwIBAgICEAYwDQYJKoZIhvcNAQELBQAwDzENMAsGA1UEAwwERSBD
QTAeFw0yNTAxMjIyMjI2MTFaFw0zNTAxMjAyMjI2MTFaMBgxFjAUBgNVBAMMDUNs
aWVudCBDZXJ0IEkwgZswEAYHKoZIzj0CAQYFK4EEACMDgYYABABFHt/jH4bXGBvg
5+OMUfoGSTDsBqNdetjiLO0Xj7aZIkzxXJplmqeYS+GrgyW/dE4KWrl0dPXsOmgn
M13LPYetDwECaqCKGGclksL2mqPbRLtYg6zNYp8BnosvFHytQavaTC5u3KRLCXvp
uK67FJ8T4aBKu/dKtOERgjPzUiD1XVVk7qNvMG0wDAYDVR0TAQH/BAIwADAdBgNV
HSUEFjAUBggrBgEFBQcDAQYIKwYBBQUHAwIwHQYDVR0OBBYEFNc8gwkHjVB39kPU
U3yP3h4pjBffMB8GA1UdIwQYMBaAFH702dMtWUk7jUET6scyG8ZDE0Q/MA0GCSqG
SIb3DQEBCwUAA4IBAQBdCGMPlZqt8YWJf1zYfYZAiTl3mxYK6aPunJXf8dM+OWBK
BSIvyoP2egKYIgbDNf616irIh9212zgy9BpPQzN9/ENlQct5GBwKZt/brA6vqZLy
avjbkfxVSycH37KCU8P5gYj08d1voDlW1KvS6VQ4s0J1tnvUjNgWTPLMvtpfSNvC
hbaJmJHZphwM+kd2QeAdkF3EsuniADbNqM2VYglNB0lJbyn2/CQg8q/WCdOtrFM5
AN4dskqctZ4Yg74wef/kyeLwXK5ire/uv322hGEjEcD3hQ3HFDNYXTqqTE/Xp1Ye
6CppIHQ6/j+olZc5ln3Rx8De9PrXAxa7mnVnJDFq
-----END CERTIFICATE-----
