Certificate:
    Data:
        Version: 3 (0x2)
        Serial Number: 4099 (0x1003)
        Signature Algorithm: sha256WithRSAEncryption
        Issuer: CN=E CA
        Validity
            Not Before: Oct 19 16:58:55 2022 GMT
            Not After : Oct 16 16:58:55 2032 GMT
        Subject: CN=Client Cert F
        Subject Public Key Info:
            Public Key Algorithm: rsaEncryption
                Public-Key: (2048 bit)
                Modulus:
                    00:9f:cc:2b:88:ff:d1:9c:f4:2a:91:b2:ff:ee:b8:
                    1c:35:7a:b1:e2:09:2a:e4:bc:5f:34:b0:ef:56:5b:
                    d6:35:d5:bc:94:e8:87:a4:d7:ad:25:29:85:e3:7d:
                    32:35:ee:6b:f8:b4:c4:6c:bf:07:a1:4b:2f:a4:8a:
                    b6:b4:b1:78:b4:57:59:7b:85:4b:f2:1c:54:95:c0:
                    7d:14:d5:ee:e3:99:2d:c5:cd:ab:74:8b:ed:e0:53:
                    7a:9d:1b:95:97:d7:97:70:b6:4a:78:46:e4:5c:ed:
                    00:27:b1:e9:6c:ca:2a:fa:6b:82:a0:dc:98:af:34:
                    28:07:fd:50:e5:9e:74:30:38:1d:d0:90:14:6c:0a:
                    90:cd:7d:f3:1e:1e:4e:e8:8f:52:4d:fe:e2:46:67:
                    9d:fa:72:93:c8:bb:c0:eb:b9:b5:58:7b:47:61:1d:
                    e2:82:94:6d:be:3d:80:13:ab:80:44:ec:8c:7b:03:
                    72:8d:1a:1b:fb:7a:7f:42:cc:b3:80:e3:43:83:e5:
                    70:83:6f:68:d6:0a:42:4b:0f:43:04:fb:5f:d3:5c:
                    32:3b:22:e5:57:b4:74:65:fd:42:f0:89:66:1c:a9:
                    9c:10:d6:71:7f:a8:75:95:09:05:5d:42:d3:f4:45:
                    d4:1d:24:c8:1f:9b:fb:c4:88:7e:7a:08:ff:52:18:
                    70:e7
                Exponent: 65537 (0x10001)
        X509v3 extensions:
            X509v3 Subject Alternative Name: 
                email:santest@example.com, othername: UPN::santest@ad.corp.example.com
            X509v3 Subject Key Identifier: 
                07:70:4F:5A:12:6A:60:B9:06:FE:53:36:97:23:3B:7F:AA:29:C7:59
            X509v3 Authority Key Identifier: 
                F7:95:02:B8:47:AB:AF:EF:98:4D:A8:F9:C8:24:D4:A5:4F:46:47:CB
    Signature Algorithm: sha256WithRSAEncryption
    Signature Value:
        90:82:56:b7:4b:e1:92:3a:b3:50:00:a9:ac:c2:92:45:b5:4a:
        c1:2a:c7:b8:03:a2:c1:72:2f:eb:7e:48:4d:52:19:66:e0:2c:
        fa:24:88:7b:b2:6b:58:3e:f7:79:14:04:b6:c6:46:9e:2c:da:
        93:ac:9e:89:4f:da:91:a5:b9:fc:9b:23:4b:cd:63:9e:bc:7f:
        64:cc:c3:66:09:39:2d:6e:26:84:a1:50:4e:e4:08:68:76:92:
        89:ff:07:6a:5e:6d:44:58:8c:d8:37:60:73:ae:b3:27:b4:9f:
        e0:fe:48:4a:a7:78:c2:b0:5b:de:c6:bb:ec:b0:9e:43:00:e7:
        dc:d3:8a:0e:ea:b8:de:b8:7c:f4:3a:2b:fd:9a:a0:1e:05:ac:
        f2:ae:8d:42:15:c3:24:d2:7e:e4:bd:85:65:72:1b:2e:7f:3d:
        4f:cd:1c:43:2f:dd:94:e5:14:29:fb:af:75:7f:5b:7b:46:4e:
        05:df:b0:8f:be:5a:1b:a2:77:40:ba:ad:ad:87:1b:73:25:36:
        0f:b7:5a:c5:82:d6:20:69:fe:b9:bf:4c:4e:c9:d1:85:94:c3:
        43:e1:f3:1e:51:b8:6b:76:62:ab:fd:02:cf:c6:9e:2a:42:3c:
        58:75:b0:60:7f:e6:6b:26:d4:70:06:55:4e:af:33:6e:99:40:
        67:62:50:69
-----BEGIN CERTIFICATE-----
MIIDNDCCAhygAwIBAgICEAMwDQYJKoZIhvcNAQELBQAwDzENMAsGA1UEAwwERSBD
QTAeFw0yMjEwMTkxNjU4NTVaFw0zMjEwMTYxNjU4NTVaMBgxFjAUBgNVBAMMDUNs
aWVudCBDZXJ0IEYwggEiMA0GCSqGSIb3DQEBAQUAA4IBDwAwggEKAoIBAQCfzCuI
/9Gc9CqRsv/uuBw1erHiCSrkvF80sO9WW9Y11byU6Iek160lKYXjfTI17mv4tMRs
vwehSy+kira0sXi0V1l7hUvyHFSVwH0U1e7jmS3Fzat0i+3gU3qdG5WX15dwtkp4
RuRc7QAnselsyir6a4Kg3JivNCgH/VDlnnQwOB3QkBRsCpDNffMeHk7oj1JN/uJG
Z536cpPIu8DrubVYe0dhHeKClG2+PYATq4BE7Ix7A3KNGhv7en9CzLOA40OD5XCD
b2jWCkJLD0ME+1/TXDI7IuVXtHRl/ULwiWYcqZwQ1nF/qHWVCQVdQtP0RdQdJMgf
m/vEiH56CP9SGHDnAgMBAAGjgZAwgY0wSwYDVR0RBEQwQoETc2FudGVzdEBleGFt
cGxlLmNvbaArBgorBgEEAYI3FAIDoB0MG3NhbnRlc3RAYWQuY29ycC5leGFtcGxl
LmNvbTAdBgNVHQ4EFgQUB3BPWhJqYLkG/lM2lyM7f6opx1kwHwYDVR0jBBgwFoAU
95UCuEerr++YTaj5yCTUpU9GR8swDQYJKoZIhvcNAQELBQADggEBAJCCVrdL4ZI6
s1AAqazCkkW1SsEqx7gDosFyL+t+SE1SGWbgLPokiHuya1g+93kUBLbGRp4s2pOs
nolP2pGlufybI0vNY568f2TMw2YJOS1uJoShUE7kCGh2kon/B2pebURYjNg3YHOu
sye0n+D+SEqneMKwW97Gu+ywnkMA59zTig7quN64fPQ6K/2aoB4FrPKujUIVwyTS
fuS9hWVyGy5/PU/NHEMv3ZTlFCn7r3V/W3tGTgXfsI++Whuid0C6ra2HG3MlNg+3
WsWC1iBp/rm/TE7J0YWUw0Ph8x5RuGt2Yqv9As/GnipCPFh1sGB/5msm1HAGVU6v
M26ZQGdiUGk=
-----END CERTIFICATE-----
