Certificate:
    Data:
        Version: 3 (0x2)
        Serial Number: 4101 (0x1005)
        Signature Algorithm: sha256WithRSAEncryption
        Issuer: CN=E CA
        Validity
            Not Before: Jan 22 22:26:11 2025 GMT
            Not After : Jan 20 22:26:11 2035 GMT
        Subject: CN=Client Cert H
        Subject Public Key Info:
            Public Key Algorithm: id-ecPublicKey
                Public-Key: (384 bit)
                pub:
                    04:cc:ce:ea:9c:72:5c:fe:57:b3:9a:d9:e1:e9:16:
                    07:f4:70:fe:c9:3e:62:14:9b:f4:20:e1:80:27:dc:
                    3b:4b:c8:fc:f8:40:79:83:82:96:5e:84:c4:28:d8:
                    d0:06:d4:c7:e3:28:5e:13:b3:e1:ee:25:fc:43:10:
                    b6:ba:27:c7:54:25:c7:0e:6e:6c:94:20:41:44:f9:
                    e5:35:19:aa:ed:7f:97:da:ce:e2:9b:76:a6:b5:89:
                    88:ed:6e:43:37:aa:c2
                ASN1 OID: secp384r1
                NIST CURVE: P-384
        X509v3 extensions:
            X509v3 Basic Constraints: critical
                CA:FALSE
            X509v3 Extended Key Usage: 
                TLS Web Server Authentication, TLS Web Client Authentication
            X509v3 Subject Key Identifier: 
                13:73:A9:72:C4:AF:BD:9B:87:EE:65:38:52:FF:84:D0:61:96:0E:AC
            X509v3 Authority Key Identifier: 
                7E:F4:D9:D3:2D:59:49:3B:8D:41:13:EA:C7:32:1B:C6:43:13:44:3F
    Signature Algorithm: sha256WithRSAEncryption
    Signature Value:
        12:f5:03:bf:5d:75:a4:55:31:e0:be:52:19:f5:95:b2:05:15:
        3c:b2:e7:48:7a:df:66:20:e0:98:0a:0d:08:19:26:cd:c6:b8:
        08:98:f5:e4:60:f8:9d:b0:cc:92:70:77:de:62:36:79:e2:3c:
        36:a3:91:36:b4:14:2a:0d:9a:e4:4a:14:4e:a9:a4:46:86:05:
        f5:1c:fb:91:00:ce:56:74:88:0c:15:9c:6e:32:f0:51:50:9a:
        64:dd:67:5d:2a:e5:39:84:8f:c1:9a:ca:28:f4:32:dc:dd:94:
        1f:f8:7d:18:07:5c:68:45:75:a4:86:05:16:4a:1d:4f:ac:9a:
        6c:09:37:cc:18:04:f8:ca:b0:02:b6:75:60:f6:56:1f:7c:a7:
        33:00:87:f1:78:73:dc:e8:10:b7:9b:ca:b9:7f:c5:18:09:68:
        5a:1f:8f:7c:77:ec:26:6f:f7:0f:df:9a:21:ea:89:c4:98:21:
        7a:2d:64:eb:22:09:2e:76:8d:b5:cb:05:9a:38:b7:03:a3:d0:
        e9:4a:aa:f0:d0:ed:ab:64:ce:4f:17:38:3c:37:c2:6c:8b:78:
        ec:c3:05:62:49:40:62:e7:a0:1c:4f:99:6a:c6:1d:e0:e6:f5:
        d5:1e:15:f6:6b:f7:6a:a3:5c:49:ae:c6:d9:87:1e:2a:cc:ca:
        a4:54:bf:3b
-----BEGIN CERTIFICATE-----
MIICZDCCAUygAwIBAgICEAUwDQYJKoZIhvcNAQELBQAwDzENMAsGA1UEAwwERSBD
QTAeFw0yNTAxMjIyMjI2MTFaFw0zNTAxMjAyMjI2MTFaMBgxFjAUBgNVBAMMDUNs
aWVudCBDZXJ0IEgwdjAQBgcqhkjOPQIBBgUrgQQAIgNiAATMzuqcclz+V7Oa2eHp
Fgf0cP7JPmIUm/Qg4YAn3DtLyPz4QHmDgpZehMQo2NAG1MfjKF4Ts+HuJfxDELa6
J8dUJccObmyUIEFE+eU1Gartf5fazuKbdqa1iYjtbkM3qsKjbzBtMAwGA1UdEwEB
/wQCMAAwHQYDVR0lBBYwFAYIKwYBBQUHAwEGCCsGAQUFBwMCMB0GA1UdDgQWBBQT
c6lyxK+9m4fuZThS/4TQYZYOrDAfBgNVHSMEGDAWgBR+9NnTLVlJO41BE+rHMhvG
QxNEPzANBgkqhkiG9w0BAQsFAAOCAQEAEvUDv111pFUx4L5SGfWVsgUVPLLnSHrf
ZiDgmAoNCBkmzca4CJj15GD4nbDMknB33mI2eeI8NqORNrQUKg2a5EoUTqmkRoYF
9Rz7kQDOVnSIDBWcbjLwUVCaZN1nXSrlOYSPwZrKKPQy3N2UH/h9GAdcaEV1pIYF
FkodT6yabAk3zBgE+MqwArZ1YPZWH3ynMwCH8Xhz3OgQt5vKuX/FGAloWh+PfHfs
Jm/3D9+aIeqJxJghei1k6yIJLnaNtcsFmji3A6PQ6Uqq8NDtq2TOTxc4PDfCbIt4
7MMFYklAYuegHE+ZasYd4Ob11R4V9mv3aqNcSa7G2YceKszKpFS/Ow==
-----END CERTIFICATE-----
