Certificate:
    Data:
        Version: 3 (0x2)
        Serial Number: 4098 (0x1002)
        Signature Algorithm: sha256WithRSAEncryption
        Issuer: CN=C Root CA
        Validity
            Not Before: Jan 22 22:26:11 2025 GMT
            Not After : Jan 20 22:26:11 2035 GMT
        Subject: CN=E CA
        Subject Public Key Info:
            Public Key Algorithm: rsaEncryption
                Public-Key: (2048 bit)
                Modulus:
                    00:af:63:7e:8b:5e:69:02:bd:1b:c5:28:ed:c2:87:
                    3f:25:f8:65:26:c3:94:af:3a:91:a7:5f:fd:7c:5f:
                    df:db:29:83:44:ac:4c:35:13:b8:63:c0:b5:bb:01:
                    8c:df:67:a6:cb:08:99:10:87:b1:94:ce:97:23:d7:
                    f8:8e:92:a3:03:84:72:a6:43:b8:29:4e:89:81:02:
                    50:b4:50:70:41:df:ba:08:bc:2e:fa:a9:2a:0c:c4:
                    0b:bf:c7:95:f4:09:c6:f1:a7:5a:2c:b5:07:64:28:
                    29:04:5a:39:c4:79:4d:6d:f7:88:a6:53:b7:43:a0:
                    c9:4b:34:26:db:60:32:34:02:e9:16:bb:8e:04:54:
                    24:02:1c:18:73:e5:89:ec:a4:f9:2e:a3:ff:7a:30:
                    2f:2f:33:0b:65:2b:d5:bb:30:aa:37:6b:40:cb:d2:
                    85:db:d3:c0:74:8c:05:2d:04:b4:52:8d:02:d9:0e:
                    e1:c3:bd:60:fb:a7:c5:25:12:4b:5d:74:a6:82:6a:
                    7c:85:3e:a5:aa:ab:13:d0:d8:55:ef:5e:1f:d2:53:
                    dd:14:2f:8d:9b:8f:ac:ed:cc:7f:72:79:e9:58:cd:
                    7d:04:83:c8:f0:b7:37:b8:ef:ee:b5:49:67:ba:2f:
                    dc:f2:7f:3c:01:6f:08:d7:76:b8:53:f6:1d:af:a5:
                    8c:23
                Exponent: 65537 (0x10001)
        X509v3 extensions:
            X509v3 Basic Constraints: critical
                CA:TRUE
            X509v3 Key Usage: critical
                Certificate Sign, CRL Sign
            X509v3 Subject Key Identifier: 
                7E:F4:D9:D3:2D:59:49:3B:8D:41:13:EA:C7:32:1B:C6:43:13:44:3F
            X509v3 Authority Key Identifier: 
                6A:0F:70:91:5D:93:0A:D6:E9:2D:0A:A7:2F:C1:1D:E9:3C:17:58:F2
    Signature Algorithm: sha256WithRSAEncryption
    Signature Value:
        33:5f:13:d6:b2:ef:10:29:4f:df:de:22:bb:99:18:ff:00:64:
        33:52:9c:bc:0e:1c:7a:e3:75:47:a0:09:29:33:17:e9:1e:11:
        08:0e:3f:8a:ab:1f:e3:d4:98:e7:8a:b5:e4:12:c7:80:0d:e6:
        99:95:48:39:7c:b1:46:4d:5b:04:65:7b:c4:56:a2:ec:c3:09:
        c9:a7:b8:97:37:98:24:66:6f:a9:ef:8c:72:6e:e0:30:72:0e:
        72:cc:9c:f2:54:6e:e1:de:57:70:49:b2:45:a0:d3:03:e4:68:
        8d:20:02:3c:dc:25:7e:54:3a:4f:4a:84:bb:52:57:f9:5c:ef:
        ec:3d:37:6b:f8:53:d6:5a:5d:24:71:db:dd:c3:4e:01:a1:ff:
        15:3d:82:c5:3f:70:bc:29:cb:37:a7:84:52:7d:37:6e:d0:ae:
        a4:ed:21:8e:99:8a:c5:a4:37:23:a4:3a:30:3a:5a:a5:77:65:
        67:88:b1:a6:70:72:88:22:11:ca:4a:af:45:7f:be:16:d5:93:
        39:91:c3:a2:a1:c6:95:19:05:d8:e1:c1:a1:3e:37:3e:d3:28:
        f3:df:58:72:73:a6:e5:9c:6f:24:2a:9d:65:6f:49:59:3e:f4:
        59:86:26:8e:28:db:dc:b0:5c:ce:df:29:48:c0:39:aa:b2:7b:
        78:99:35:fa
-----BEGIN CERTIFICATE-----
MIIDAjCCAeqgAwIBAgICEAIwDQYJKoZIhvcNAQELBQAwFDESMBAGA1UEAwwJQyBS
b290IENBMB4XDTI1MDEyMjIyMjYxMVoXDTM1MDEyMDIyMjYxMVowDzENMAsGA1UE
AwwERSBDQTCCASIwDQYJKoZIhvcNAQEBBQADggEPADCCAQoCggEBAK9jfoteaQK9
G8Uo7cKHPyX4ZSbDlK86kadf/Xxf39spg0SsTDUTuGPAtbsBjN9npssImRCHsZTO
lyPX+I6SowOEcqZDuClOiYECULRQcEHfugi8LvqpKgzEC7/HlfQJxvGnWiy1B2Qo
KQRaOcR5TW33iKZTt0OgyUs0JttgMjQC6Ra7jgRUJAIcGHPlieyk+S6j/3owLy8z
C2Ur1bswqjdrQMvShdvTwHSMBS0EtFKNAtkO4cO9YPunxSUSS110poJqfIU+paqr
E9DYVe9eH9JT3RQvjZuPrO3Mf3J56VjNfQSDyPC3N7jv7rVJZ7ov3PJ/PAFvCNd2
uFP2Ha+ljCMCAwEAAaNjMGEwDwYDVR0TAQH/BAUwAwEB/zAOBgNVHQ8BAf8EBAMC
AQYwHQYDVR0OBBYEFH702dMtWUk7jUET6scyG8ZDE0Q/MB8GA1UdIwQYMBaAFGoP
cJFdkwrW6S0Kpy/BHek8F1jyMA0GCSqGSIb3DQEBCwUAA4IBAQAzXxPWsu8QKU/f
3iK7mRj/AGQzUpy8Dhx643VHoAkpMxfpHhEIDj+Kqx/j1JjnirXkEseADeaZlUg5
fLFGTVsEZXvEVqLswwnJp7iXN5gkZm+p74xybuAwcg5yzJzyVG7h3ldwSbJFoNMD
5GiNIAI83CV+VDpPSoS7Ulf5XO/sPTdr+FPWWl0kcdvdw04Bof8VPYLFP3C8Kcs3
p4RSfTdu0K6k7SGOmYrFpDcjpDowOlqld2VniLGmcHKIIhHKSq9Ff74W1ZM5kcOi
ocaVGQXY4cGhPjc+0yjz31hyc6blnG8kKp1lb0lZPvRZhiaOKNvcsFzO3ylIwDmq
snt4mTX6
-----END CERTIFICATE-----
