Certificate:
    Data:
        Version: 3 (0x2)
        Serial Number: 4098 (0x1002)
        Signature Algorithm: sha256WithRSAEncryption
        Issuer: CN=C Root CA
        Validity
            Not Before: Oct 19 16:58:55 2022 GMT
            Not After : Oct 16 16:58:55 2032 GMT
        Subject: CN=E CA
        Subject Public Key Info:
            Public Key Algorithm: rsaEncryption
                Public-Key: (2048 bit)
                Modulus:
                    00:a8:49:c7:44:8c:f4:90:52:36:4f:46:d7:68:0a:
                    3d:dc:3a:13:3c:61:45:fb:cf:5e:8e:06:c1:35:5d:
                    75:f1:33:d7:f0:5b:0e:34:99:19:9d:df:b5:81:40:
                    aa:1d:eb:f7:45:6e:7f:e2:b5:6e:70:42:5f:a5:bd:
                    47:dd:d8:f9:4e:33:03:81:ea:40:c4:0f:ed:53:35:
                    ab:78:61:e5:aa:80:46:b6:1f:b9:a1:aa:80:c6:cd:
                    4c:3c:a6:63:fd:ed:bf:fd:f2:df:1a:b9:de:e9:40:
                    1b:cb:00:39:e9:dc:cd:78:70:3d:1b:20:32:49:6b:
                    0b:eb:c5:31:27:50:4f:5f:fd:a7:7b:77:1e:d0:a1:
                    20:01:56:5c:a6:2c:1d:4b:48:8d:8d:03:94:73:e6:
                    f6:94:39:59:3c:fc:07:ae:cb:dc:02:7f:2d:04:42:
                    5c:d6:ff:86:76:a3:bc:7f:1e:0e:a0:4c:12:ce:58:
                    f7:42:2d:5b:9d:6b:ef:47:e2:ce:71:89:08:15:fd:
                    2c:47:a5:a0:7e:73:ed:0c:b0:fc:b8:7c:0e:cf:fd:
                    e4:38:5f:ce:8e:80:f2:99:db:fc:fc:ad:9d:b4:be:
                    28:4f:e5:5d:5c:93:36:75:4c:64:25:9f:53:64:a5:
                    37:66:49:5b:bf:82:f4:01:77:d8:ef:cc:ce:bb:13:
                    4c:01
                Exponent: 65537 (0x10001)
        X509v3 extensions:
            X509v3 Basic Constraints: critical
                CA:TRUE
            X509v3 Key Usage: critical
                Certificate Sign, CRL Sign
            X509v3 Subject Key Identifier: 
                F7:95:02:B8:47:AB:AF:EF:98:4D:A8:F9:C8:24:D4:A5:4F:46:47:CB
            X509v3 Authority Key Identifier: 
                33:7A:38:92:82:9E:B6:FD:44:FB:B5:BA:A7:C7:0B:4D:59:28:60:9A
    Signature Algorithm: sha256WithRSAEncryption
    Signature Value:
        79:d6:b7:44:92:09:42:bc:96:d8:da:92:c1:cb:9b:19:eb:38:
        98:66:ec:3f:b6:14:a2:31:37:9b:0d:3f:83:cb:fa:80:75:19:
        fa:1e:78:7b:05:55:43:a1:17:2d:9a:ad:f9:f2:1f:56:01:c1:
        c8:78:02:1c:60:7b:40:95:a9:b3:82:52:65:d8:74:f4:46:b4:
        03:a0:98:db:b4:75:4d:f4:dd:73:84:33:9b:7d:91:78:7a:5b:
        50:08:12:d5:f1:d3:c0:90:fd:2b:14:61:76:96:a3:03:f2:ac:
        7a:b3:f6:9e:ab:a2:07:d1:ae:4d:be:e7:d1:1e:d6:a3:32:be:
        70:70:54:fc:d1:c9:3e:bd:7c:0e:1a:03:17:12:c6:78:3b:df:
        91:61:a9:0f:0a:65:bc:b2:c0:41:da:c3:32:8a:0e:ef:75:89:
        1b:11:27:0a:bb:47:91:c2:e4:71:ea:91:d4:4d:66:c1:a1:3b:
        06:8d:54:b6:da:6f:54:e6:d7:4f:f2:18:b8:d5:59:cb:47:0d:
        9f:d8:1c:6a:20:9c:e2:93:07:a3:dd:94:13:2c:ab:1d:1a:71:
        eb:5b:62:12:20:e5:e1:cd:d1:e0:63:fd:94:34:b2:a5:b8:84:
        ee:af:2d:11:3d:f2:91:74:f2:ef:bd:55:c6:cf:72:ff:b1:74:
        e5:6e:6c:3e
-----BEGIN CERTIFICATE-----
MIIDAjCCAeqgAwIBAgICEAIwDQYJKoZIhvcNAQELBQAwFDESMBAGA1UEAwwJQyBS
b290IENBMB4XDTIyMTAxOTE2NTg1NVoXDTMyMTAxNjE2NTg1NVowDzENMAsGA1UE
AwwERSBDQTCCASIwDQYJKoZIhvcNAQEBBQADggEPADCCAQoCggEBAKhJx0SM9JBS
Nk9G12gKPdw6EzxhRfvPXo4GwTVddfEz1/BbDjSZGZ3ftYFAqh3r90Vuf+K1bnBC
X6W9R93Y+U4zA4HqQMQP7VM1q3hh5aqARrYfuaGqgMbNTDymY/3tv/3y3xq53ulA
G8sAOenczXhwPRsgMklrC+vFMSdQT1/9p3t3HtChIAFWXKYsHUtIjY0DlHPm9pQ5
WTz8B67L3AJ/LQRCXNb/hnajvH8eDqBMEs5Y90ItW51r70fiznGJCBX9LEeloH5z
7Qyw/Lh8Ds/95Dhfzo6A8pnb/PytnbS+KE/lXVyTNnVMZCWfU2SlN2ZJW7+C9AF3
2O/MzrsTTAECAwEAAaNjMGEwDwYDVR0TAQH/BAUwAwEB/zAOBgNVHQ8BAf8EBAMC
AQYwHQYDVR0OBBYEFPeVArhHq6/vmE2o+cgk1KVPRkfLMB8GA1UdIwQYMBaAFDN6
OJKCnrb9RPu1uqfHC01ZKGCaMA0GCSqGSIb3DQEBCwUAA4IBAQB51rdEkglCvJbY
2pLBy5sZ6ziYZuw/thSiMTebDT+Dy/qAdRn6Hnh7BVVDoRctmq358h9WAcHIeAIc
YHtAlamzglJl2HT0RrQDoJjbtHVN9N1zhDObfZF4eltQCBLV8dPAkP0rFGF2lqMD
8qx6s/aeq6IH0a5NvufRHtajMr5wcFT80ck+vXwOGgMXEsZ4O9+RYakPCmW8ssBB
2sMyig7vdYkbEScKu0eRwuRx6pHUTWbBoTsGjVS22m9U5tdP8hi41VnLRw2f2Bxq
IJzikwej3ZQTLKsdGnHrW2ISIOXhzdHgY/2UNLKluITury0RPfKRdPLvvVXGz3L/
sXTlbmw+
-----END CERTIFICATE-----
