Certificate:
    Data:
        Version: 3 (0x2)
        Serial Number: 4097 (0x1001)
        Signature Algorithm: sha256WithRSAEncryption
        Issuer: CN=C Root CA
        Validity
            Not Before: Jan 22 22:26:11 2025 GMT
            Not After : Jan 20 22:26:11 2035 GMT
        Subject: CN=B CA
        Subject Public Key Info:
            Public Key Algorithm: rsaEncryption
                Public-Key: (2048 bit)
                Modulus:
                    00:8c:cc:e7:84:b7:e5:1f:6f:98:7f:f3:e7:fe:ae:
                    e5:7c:a6:3a:16:f3:88:9e:df:d8:23:0c:96:8d:81:
                    36:9a:3c:61:a2:3d:5d:70:6e:ac:cf:99:65:d0:ae:
                    02:7d:17:79:ca:67:e6:cd:13:55:c2:09:ce:4c:72:
                    a7:2a:f7:df:c7:36:5b:74:21:a9:23:18:c3:ac:ba:
                    de:fd:38:cb:bf:95:a3:38:20:d1:55:22:5b:c9:e8:
                    7a:63:96:93:7f:19:d7:38:07:d1:fe:83:0e:4c:66:
                    bd:0d:0f:e5:9b:d0:46:eb:1e:d9:f4:07:06:da:76:
                    43:69:62:fc:04:2d:cb:c6:ee:35:a9:74:ce:db:2d:
                    5f:41:38:dc:f0:06:f6:3b:0c:0d:7b:0c:ff:db:d3:
                    4f:47:e5:65:44:e0:ab:4b:49:af:ce:be:83:5a:07:
                    c6:d7:3c:ea:7e:03:a7:c1:57:97:c8:6b:ce:5b:b9:
                    c6:ba:a5:73:97:6a:72:6d:c2:96:3a:3f:4c:16:b6:
                    d1:71:5d:10:51:d5:61:db:16:3d:a0:21:79:e2:0a:
                    93:f6:64:c2:ac:4f:e4:15:07:da:f9:6a:ab:fc:11:
                    b6:b8:f7:1c:02:16:60:d1:b5:d1:68:c0:ab:66:99:
                    f3:e5:b5:cd:cf:a4:a8:59:11:7f:a2:fc:41:91:17:
                    24:8b
                Exponent: 65537 (0x10001)
        X509v3 extensions:
            X509v3 Basic Constraints: critical
                CA:TRUE
            X509v3 Key Usage: critical
                Certificate Sign, CRL Sign
            X509v3 Subject Key Identifier: 
                4F:32:87:FE:0A:59:45:E0:2F:21:70:25:62:E7:DE:32:16:9F:14:53
            X509v3 Authority Key Identifier: 
                6A:0F:70:91:5D:93:0A:D6:E9:2D:0A:A7:2F:C1:1D:E9:3C:17:58:F2
    Signature Algorithm: sha256WithRSAEncryption
    Signature Value:
        18:6c:4a:7f:6c:ae:a3:48:2f:a7:0d:0b:71:d5:39:b5:5c:f5:
        16:41:a6:73:70:6a:29:19:f5:b3:43:62:63:8d:ab:6a:92:49:
        e5:85:bf:43:ba:78:be:49:53:97:c2:ef:15:60:6d:b8:41:99:
        27:54:45:91:bc:b3:bd:1f:e5:9c:4b:26:63:6f:87:9c:53:8f:
        82:bd:93:74:bb:3a:c0:34:13:a7:e0:3e:2e:e6:ac:ca:27:82:
        47:56:c6:c7:de:e9:60:91:6b:76:51:a0:3b:c8:b2:34:c0:13:
        f1:16:70:e6:96:a9:e0:0b:42:49:be:2d:f9:66:01:44:38:69:
        b1:f4:f1:bb:bf:6b:e5:2c:98:5a:f3:3b:43:10:92:4b:0d:3d:
        7a:fd:b2:83:42:51:98:4d:42:b9:bc:b4:11:c2:15:f8:3c:12:
        a2:56:2b:4e:73:9e:7d:3e:2d:cb:ad:a9:ac:a3:1a:fc:b8:82:
        7c:63:ba:b7:25:92:5e:e0:25:78:50:6d:27:6d:27:da:e2:47:
        70:ab:33:62:3b:b2:29:73:47:f4:57:97:ed:15:c6:1b:aa:e3:
        ee:d8:84:01:f5:48:08:7e:37:03:14:46:e7:d2:ae:8b:02:de:
        af:a2:49:c6:16:ad:cc:3c:3f:ce:e8:5e:3a:b4:df:b9:c1:74:
        66:97:65:5b
-----BEGIN CERTIFICATE-----
MIIDAjCCAeqgAwIBAgICEAEwDQYJKoZIhvcNAQELBQAwFDESMBAGA1UEAwwJQyBS
b290IENBMB4XDTI1MDEyMjIyMjYxMVoXDTM1MDEyMDIyMjYxMVowDzENMAsGA1UE
AwwEQiBDQTCCASIwDQYJKoZIhvcNAQEBBQADggEPADCCAQoCggEBAIzM54S35R9v
mH/z5/6u5XymOhbziJ7f2CMMlo2BNpo8YaI9XXBurM+ZZdCuAn0Xecpn5s0TVcIJ
zkxypyr338c2W3QhqSMYw6y63v04y7+Vozgg0VUiW8noemOWk38Z1zgH0f6DDkxm
vQ0P5ZvQRuse2fQHBtp2Q2li/AQty8buNal0ztstX0E43PAG9jsMDXsM/9vTT0fl
ZUTgq0tJr86+g1oHxtc86n4Dp8FXl8hrzlu5xrqlc5dqcm3Cljo/TBa20XFdEFHV
YdsWPaAheeIKk/ZkwqxP5BUH2vlqq/wRtrj3HAIWYNG10WjAq2aZ8+W1zc+kqFkR
f6L8QZEXJIsCAwEAAaNjMGEwDwYDVR0TAQH/BAUwAwEB/zAOBgNVHQ8BAf8EBAMC
AQYwHQYDVR0OBBYEFE8yh/4KWUXgLyFwJWLn3jIWnxRTMB8GA1UdIwQYMBaAFGoP
cJFdkwrW6S0Kpy/BHek8F1jyMA0GCSqGSIb3DQEBCwUAA4IBAQAYbEp/bK6jSC+n
DQtx1Tm1XPUWQaZzcGopGfWzQ2Jjjatqkknlhb9Duni+SVOXwu8VYG24QZknVEWR
vLO9H+WcSyZjb4ecU4+CvZN0uzrANBOn4D4u5qzKJ4JHVsbH3ulgkWt2UaA7yLI0
wBPxFnDmlqngC0JJvi35ZgFEOGmx9PG7v2vlLJha8ztDEJJLDT16/bKDQlGYTUK5
vLQRwhX4PBKiVitOc559Pi3Lramsoxr8uIJ8Y7q3JZJe4CV4UG0nbSfa4kdwqzNi
O7Ipc0f0V5ftFcYbquPu2IQB9UgIfjcDFEbn0q6LAt6voknGFq3MPD/O6F46tN+5
wXRml2Vb
-----END CERTIFICATE-----
