-----BEGIN PRIVATE KEY-----
MIIEvAIBADANBgkqhkiG9w0BAQEFAASCBKYwggSiAgEAAoIBAQCcvBOlD/eaadr5
NB33MsG0KC5UlkebMSJuurca1kUHzhbZqhxCWTEd3uqDbtJzNaaYLfcWoWnp1nB7
PiBtvwNanqAuUhlOw5NhVJVdi1KeFGnKxO/fupU20tHRh9z8odbKnKD1TNg9kKZo
Z0PeMaMK8FYf9sJIMhpBoakkQzsllBAxLO1tgo9VmhBgCaCRcj6A6nrpOO3x1HEC
1Q863WhMqYwyy707TSyqiJ2Ipu2/NUxhDeL/ptD+zP9NV9w4iowc3878vQIorxjV
40FhxAdwk4ohG+uPZ3gq/ln8xmGgS/BWSZ5kW+qmJvDRg0a3kO5TR1i4lZh8p7ul
BvrkzOAlAgMBAAECggEAMHs82GIIBQuZYFxuqHha0o9bRW7211prfDTlTrfYwoFN
MCcedqeAOe0qPV2aW2jND2WoeKeVS2+5e2XMQiZDs1Q92BYtHeABRqoTScw+0gce
ckpYqKveXAb6QAX2pW6qMiIg57/NY73Ku6C1rZVNCaUt/tUlY4+b75FB8KWbNhQK
vqsclR+82qQpbx0d8ttAHntF9M1RVpQCJoJWmUM+vAwKwAIg/YyxhBjHoWmYwkQM
Hj9wgCcr0hLmIWYTYV61TJVlPgg7xQQdnYnrZ+/whjLNAJDFchakviqFnAIeK6lF
lcIQZy3rPm8am0NYqg7T8bjWTx60IXJ21xUrYFRaQQKBgQDLRQCGtfn6ACg3I7Ki
dXgMgPieC3bzLZ53/DPny9NZfbpkIhU/YHqYhUOZvJ3Y4UK8Czz+SOtwXXthOFNn
62bBElNrrcDfvOuaY/U2Uq6HpYuZpMQAIwDnZ6u/brzJE9FABFApSfMWeUXllWlx
OHbhDweT69Y+eLAkW7s6N7/VHwKBgQDFZLl+WqLTO5G4qfir39oIDVahdkQGCDwg
SxGIEfiUk2URr/glXCpH9kNzzqWLHqT/B+FGgxydiHuKbcQkMdYe88iTjkJTJnYT
Im2gjdRU4Wqz09wwFcUKIrNWyPBps2GeWY5Kwe6Og23CkTDRfPyT04tv1mH2ZuOv
aXj7M57+OwKBgHoKr8oxsCh9t6eDc1k/FhjLxnl9gKl4llCLx84//mEYr7Q3EnK+
xlyUhoXjTRJODPdB+BjkRxdryQwR+WHHYCZDjnp0E/1BPGOx6CP5eHhQ2IQi/Nro
KT7Ga8PABPDlSRkafdaMY7r2jRTOpEQqFpYBpBcX3cYcSAVMXhkSJ8cZAoGAGrT1
D+5tZ00A+04r8f04f6xmUzQwIezNTcU6WwGrc1a57vmzBkMBCXl9SNbluPvtcP/8
79Bfd8T2ihUt24POp6NuOOCfgqaKhS48TOPDnbRd/nSkrvDTFvr47r4DIRn/FDCj
uuOgRjHsEM4aH83cUpflnr0PxgnHtnz7vGkQku8CgYBUYYD9/t/Et9AyH43XcT+M
XuA42PLk6ksrIs6AusVmbn7HuBBTwFAGhktVTb3zkhecv24y52VLYwGrSMP4EfFy
DNoQFgpgzeXs/qFqsYaNe3jH12NrwlPKuIRf3m5jthB7mkDgC/tc0Gad1A/ziKQF
Wc46d1a/0pS1g30Fe4NNcA==
-----END PRIVATE KEY-----
Certificate:
    Data:
        Version: 3 (0x2)
        Serial Number:
            3e:2c:9d:be:b0:42:c8:cf:fc:99:42:d5:4d:41:6a:bd
        Signature Algorithm: sha256WithRSAEncryption
        Issuer: C=US, ST=California, L=Mountain View, O=Test CA, CN=Test Root CA
        Validity
            Not Before: Dec 20 00:00:00 2017 GMT
            Not After : Dec 20 00:00:00 2020 GMT
        Subject: C=US, ST=California, L=Mountain View, O=Test CA, CN=127.0.0.1
        Subject Public Key Info:
            Public Key Algorithm: rsaEncryption
                RSA Public-Key: (2048 bit)
                Modulus:
                    00:9c:bc:13:a5:0f:f7:9a:69:da:f9:34:1d:f7:32:
                    c1:b4:28:2e:54:96:47:9b:31:22:6e:ba:b7:1a:d6:
                    45:07:ce:16:d9:aa:1c:42:59:31:1d:de:ea:83:6e:
                    d2:73:35:a6:98:2d:f7:16:a1:69:e9:d6:70:7b:3e:
                    20:6d:bf:03:5a:9e:a0:2e:52:19:4e:c3:93:61:54:
                    95:5d:8b:52:9e:14:69:ca:c4:ef:df:ba:95:36:d2:
                    d1:d1:87:dc:fc:a1:d6:ca:9c:a0:f5:4c:d8:3d:90:
                    a6:68:67:43:de:31:a3:0a:f0:56:1f:f6:c2:48:32:
                    1a:41:a1:a9:24:43:3b:25:94:10:31:2c:ed:6d:82:
                    8f:55:9a:10:60:09:a0:91:72:3e:80:ea:7a:e9:38:
                    ed:f1:d4:71:02:d5:0f:3a:dd:68:4c:a9:8c:32:cb:
                    bd:3b:4d:2c:aa:88:9d:88:a6:ed:bf:35:4c:61:0d:
                    e2:ff:a6:d0:fe:cc:ff:4d:57:dc:38:8a:8c:1c:df:
                    ce:fc:bd:02:28:af:18:d5:e3:41:61:c4:07:70:93:
                    8a:21:1b:eb:8f:67:78:2a:fe:59:fc:c6:61:a0:4b:
                    f0:56:49:9e:64:5b:ea:a6:26:f0:d1:83:46:b7:90:
                    ee:53:47:58:b8:95:98:7c:a7:bb:a5:06:fa:e4:cc:
                    e0:25
                Exponent: 65537 (0x10001)
        X509v3 extensions:
            X509v3 Basic Constraints: critical
                CA:FALSE
            X509v3 Subject Key Identifier: 
                D1:43:15:54:E5:DE:B4:84:F3:72:A1:41:40:9C:C2:B6:16:C0:F2:5C
            X509v3 Authority Key Identifier: 
                keyid:9B:26:0B:8A:98:A9:BB:1D:B9:1F:1C:E3:1A:40:33:ED:8E:17:88:AB

            X509v3 Extended Key Usage: 
                TLS Web Server Authentication, TLS Web Client Authentication
    Signature Algorithm: sha256WithRSAEncryption
         47:8b:5b:f6:5e:a2:2d:fb:86:93:bf:ec:7c:53:5d:a0:8e:7d:
         a2:93:1a:ae:fc:3e:e7:37:de:02:9e:fd:4e:ca:1e:06:3a:4c:
         76:2c:96:b6:a0:a8:f5:7a:0e:24:da:0d:38:d5:e9:75:f2:7d:
         5c:92:58:66:7a:65:b1:fb:15:2a:82:2c:a6:ae:19:d9:2f:15:
         ac:c6:b8:04:25:a0:1d:4a:30:c1:96:b7:a2:4c:0b:58:7b:79:
         ba:42:ca:41:ed:2d:70:8b:48:ae:e0:d4:4e:3d:37:29:68:fa:
         af:fb:90:7b:91:eb:01:33:58:cd:c5:2c:c6:73:81:40:fe:f2:
         8b:e3:d3:13:2b:50:9c:af:a0:88:c7:18:81:cf:9d:af:45:55:
         ff:fb:6c:1d:a4:db:c3:5c:d1:98:8b:91:d1:ac:05:e6:ae:a6:
         ca:24:5f:85:58:3f:0a:eb:4d:b2:45:df:60:a9:0d:24:94:c5:
         8a:1a:07:11:ff:23:35:3f:bf:b8:d8:e6:36:2b:40:f8:3a:08:
         74:a7:95:77:e5:8b:18:11:25:b4:23:2a:e0:b0:73:ba:d9:1a:
         69:49:63:6e:08:5b:99:1d:a7:56:0a:9e:d1:7a:b9:45:be:35:
         2e:ea:7c:86:ef:0c:be:b7:dd:e4:88:31:f8:8c:8e:4f:18:81:
         40:26:1d:57
-----BEGIN CERTIFICATE-----
MIIDvDCCAqSgAwIBAgIQPiydvrBCyM/8mULVTUFqvTANBgkqhkiG9w0BAQsFADBj
MQswCQYDVQQGEwJVUzETMBEGA1UECAwKQ2FsaWZvcm5pYTEWMBQGA1UEBwwNTW91
bnRhaW4gVmlldzEQMA4GA1UECgwHVGVzdCBDQTEVMBMGA1UEAwwMVGVzdCBSb290
IENBMB4XDTE3MTIyMDAwMDAwMFoXDTIwMTIyMDAwMDAwMFowYDELMAkGA1UEBhMC
VVMxEzARBgNVBAgMCkNhbGlmb3JuaWExFjAUBgNVBAcMDU1vdW50YWluIFZpZXcx
EDAOBgNVBAoMB1Rlc3QgQ0ExEjAQBgNVBAMMCTEyNy4wLjAuMTCCASIwDQYJKoZI
hvcNAQEBBQADggEPADCCAQoCggEBAJy8E6UP95pp2vk0HfcywbQoLlSWR5sxIm66
txrWRQfOFtmqHEJZMR3e6oNu0nM1ppgt9xahaenWcHs+IG2/A1qeoC5SGU7Dk2FU
lV2LUp4UacrE79+6lTbS0dGH3Pyh1sqcoPVM2D2QpmhnQ94xowrwVh/2wkgyGkGh
qSRDOyWUEDEs7W2Cj1WaEGAJoJFyPoDqeuk47fHUcQLVDzrdaEypjDLLvTtNLKqI
nYim7b81TGEN4v+m0P7M/01X3DiKjBzfzvy9AiivGNXjQWHEB3CTiiEb649neCr+
WfzGYaBL8FZJnmRb6qYm8NGDRreQ7lNHWLiVmHynu6UG+uTM4CUCAwEAAaNvMG0w
DAYDVR0TAQH/BAIwADAdBgNVHQ4EFgQU0UMVVOXetITzcqFBQJzCthbA8lwwHwYD
VR0jBBgwFoAUmyYLipipux25HxzjGkAz7Y4XiKswHQYDVR0lBBYwFAYIKwYBBQUH
AwEGCCsGAQUFBwMCMA0GCSqGSIb3DQEBCwUAA4IBAQBHi1v2XqIt+4aTv+x8U12g
jn2ikxqu/D7nN94Cnv1Oyh4GOkx2LJa2oKj1eg4k2g041el18n1cklhmemWx+xUq
giymrhnZLxWsxrgEJaAdSjDBlreiTAtYe3m6QspB7S1wi0iu4NROPTcpaPqv+5B7
kesBM1jNxSzGc4FA/vKL49MTK1Ccr6CIxxiBz52vRVX/+2wdpNvDXNGYi5HRrAXm
rqbKJF+FWD8K602yRd9gqQ0klMWKGgcR/yM1P7+42OY2K0D4Ogh0p5V35YsYESW0
IyrgsHO62RppSWNuCFuZHadWCp7RerlFvjUu6nyG7wy+t93kiDH4jI5PGIFAJh1X
-----END CERTIFICATE-----
