-----BEGIN PRIVATE KEY-----
MIIEvQIBADANBgkqhkiG9w0BAQEFAASCBKcwggSjAgEAAoIBAQDJABG+o501DlYn
pIeZGdbtxuX0hUvuhTCO/+u+ZajABJAsejJ8tm5qRURXOguSG2u3nKqR9cA3r/47
aQHvkkYfLpF4lnL5X7lRmkOq8vWObvwaUuvwcsA3qwxWSd5u4sVOl/eSj0yzJDq0
Lb6QVPWlbWgrZyEdDuAxg7glVTWeJagK5IMI8b2yiis7oxLXFudztUg2E3UVkIMz
Gw55unskWdOnViQ0N3kFyXfbFcnojWNm2iJfQtHxjfHN+ydGaH/z4SpYh/0SHqnC
rj46J2fojyH/LFgn2MnskeK3kOLShpEcAbnRibrbrNMcDUi5vANq3s2+bhoinS0U
fs2v53/nAgMBAAECggEAFTIjrOXWCyVC4pVQE04NQy/JShrQYgu7jijgtEhGHlGc
3oPYVRxr0lsRlN0zISoxFsC3oAK5TWYKujsdkCTtrhYcEwpSf4efpEJPRnSufmGn
xiLebJG9QWGRQHwzr5/MTLhrzBG+ddmpMxzrzo6XBOXfqUwLyuOpsq8AOTeeGtoP
kTWtvOS2ODx6ID27GNcSNGO3haeLKCZaXnlE9RKRLFnBD4IEMycivA63uEpMBe13
PHjqc6cm5tL76TKmfZ5MCC9XRtK6NbqQpJwjet/oqr0TjM6Shz0HCSUufOqNsBjy
cnpCwb/GOvtDoV3ygUNvmUc3xZDf6e2eUc0eu1aYqQKBgQD+aXgQwUYklYreU5uK
dfOWvmR05E2ekJdsxyzxsuwpR0MaPPXiJlPYnChlvdSc+0SUDVmrv0xLrh0D0J54
khDI3dOxTncNGEEzj0+/f9fHxpSH8CxHxsvfbzRNyLS/8QgN/24PfXTVw8o3xftn
1IsLg0mWk9m70BTKqDEZyKTZ7QKBgQDKQUCgj8/uuF1DeJL8HaP2O9HPdAjaymia
X39NeYQdYKqCGf28b6GyACcZMGemo8+s3Y1k3EheHEEnnvUMok+ULKJ6LnqLRyTU
IjoBQ8LOq8lAKTjDcvVYy6pF6wGG1YsDJsY4M1ED9Wrc87Ns1WnVZEY9P9FlhBNl
OQVD3sP2owKBgQDTr+hycI8vs6qX8ZNzc0+a95LY3HplXMRSg6w29HyioCQKefzS
DrgnfU/z0C9P65cVZcJeMM+IDTkhSn4Bru/+Yu1ZFAPlRnBCOZXOrs5Z8Tb3oXUG
yDgtEve/XShgqWrdUtM+WlJT6BSjsb3NmEGV88jQXPeH2czjD23DmXrpxQKBgG2x
ZjOuy79VDoABbPZ/vOVXHDu/Wu4OyRywnoKOXTDxtIhLQGpqwO+hVZM7xXuDbKb8
oisJrdYczNmIRK9NeIuMibJqctwHAdprlboJ3iXo1YWO1dJrDtXR38973aAbQQG8
jdT9P/s9p2+eXLmyJWwurkmZyx+bukkz278rmmyxAoGARoR/vqPlOj3TAcFsks1c
HeI3bqblWu/dpeZ7MhYM90Xf3e0RxigcPNkVm9H1wEragh/WVRQpunysxaTVcnAL
xKf++lCNDCPFOXAhOxTGBGpS/IbrnLfAhDCdqBX2xkyJWNGu00JGe6gfJyIQiX1Z
+919aWiM78TlJC8psjZviRs=
-----END PRIVATE KEY-----
Certificate:
    Data:
        Version: 3 (0x2)
        Serial Number:
            b0:6b:93:92:e3:5c:8d:7e:ed:9d:c8:96:59:c5:c2:83
        Signature Algorithm: sha256WithRSAEncryption
        Issuer: C=US, ST=California, L=Mountain View, O=Test CA, CN=Test Root CA
        Validity
            Not Before: Dec 20 00:00:00 2017 GMT
            Not After : Dec 20 00:00:00 2020 GMT
        Subject: C=US, ST=California, L=Mountain View, O=Test CA, CN=127.0.0.1
        Subject Public Key Info:
            Public Key Algorithm: rsaEncryption
                Public-Key: (2048 bit)
                Modulus:
                    00:c9:00:11:be:a3:9d:35:0e:56:27:a4:87:99:19:
                    d6:ed:c6:e5:f4:85:4b:ee:85:30:8e:ff:eb:be:65:
                    a8:c0:04:90:2c:7a:32:7c:b6:6e:6a:45:44:57:3a:
                    0b:92:1b:6b:b7:9c:aa:91:f5:c0:37:af:fe:3b:69:
                    01:ef:92:46:1f:2e:91:78:96:72:f9:5f:b9:51:9a:
                    43:aa:f2:f5:8e:6e:fc:1a:52:eb:f0:72:c0:37:ab:
                    0c:56:49:de:6e:e2:c5:4e:97:f7:92:8f:4c:b3:24:
                    3a:b4:2d:be:90:54:f5:a5:6d:68:2b:67:21:1d:0e:
                    e0:31:83:b8:25:55:35:9e:25:a8:0a:e4:83:08:f1:
                    bd:b2:8a:2b:3b:a3:12:d7:16:e7:73:b5:48:36:13:
                    75:15:90:83:33:1b:0e:79:ba:7b:24:59:d3:a7:56:
                    24:34:37:79:05:c9:77:db:15:c9:e8:8d:63:66:da:
                    22:5f:42:d1:f1:8d:f1:cd:fb:27:46:68:7f:f3:e1:
                    2a:58:87:fd:12:1e:a9:c2:ae:3e:3a:27:67:e8:8f:
                    21:ff:2c:58:27:d8:c9:ec:91:e2:b7:90:e2:d2:86:
                    91:1c:01:b9:d1:89:ba:db:ac:d3:1c:0d:48:b9:bc:
                    03:6a:de:cd:be:6e:1a:22:9d:2d:14:7e:cd:af:e7:
                    7f:e7
                Exponent: 65537 (0x10001)
        X509v3 extensions:
            X509v3 Basic Constraints: critical
                CA:FALSE
            X509v3 Subject Key Identifier: 
                ED:8D:2E:41:6F:59:A4:A8:A8:08:80:22:DA:52:E2:83:F8:05:A4:BE
            X509v3 Authority Key Identifier: 
                9B:26:0B:8A:98:A9:BB:1D:B9:1F:1C:E3:1A:40:33:ED:8E:17:88:AB
            X509v3 Extended Key Usage: 
                TLS Web Server Authentication, TLS Web Client Authentication
    Signature Algorithm: sha256WithRSAEncryption
    Signature Value:
        86:c1:24:8e:a7:4d:26:27:8a:f6:12:62:6d:7f:de:aa:69:07:
        97:e4:3a:78:a6:37:73:fc:63:cb:68:1d:ab:90:32:7c:b2:bd:
        b5:7c:c6:ba:a9:bf:55:22:4e:a2:ca:1e:25:a4:4b:3e:78:f7:
        5b:46:b7:04:83:99:57:82:82:fc:2f:c5:96:96:a3:da:8d:db:
        df:26:e9:62:1a:24:22:9b:95:4c:cc:79:54:c9:bb:e3:1c:bc:
        87:bb:26:74:8f:89:c2:64:57:12:ca:7e:e9:e7:cb:aa:38:9f:
        b0:96:4c:63:64:41:cc:03:e8:5e:13:2e:9c:79:73:bc:e7:b1:
        5b:54:80:51:48:eb:71:68:c7:21:fd:f9:2c:ee:a0:3f:52:06:
        ae:96:1e:62:13:46:37:0e:a4:58:b2:45:1e:7d:ea:7f:7d:70:
        47:92:7c:7b:7c:90:a8:87:7c:1a:12:51:75:75:59:92:1c:4d:
        a2:7f:7e:ad:fa:89:de:8f:ae:2f:d6:ca:c5:3b:55:a0:fb:f5:
        e0:3e:0b:60:c5:2d:d1:7e:e9:c1:cb:3c:24:77:56:8f:af:4e:
        cb:99:39:b7:53:99:07:8c:71:59:20:9c:bd:db:38:bb:cc:b8:
        5c:9a:51:66:18:46:39:96:c4:1a:ce:89:39:d3:6e:5f:79:17:
        84:92:74:16
-----BEGIN CERTIFICATE-----
MIIDvTCCAqWgAwIBAgIRALBrk5LjXI1+7Z3IllnFwoMwDQYJKoZIhvcNAQELBQAw
YzELMAkGA1UEBhMCVVMxEzARBgNVBAgMCkNhbGlmb3JuaWExFjAUBgNVBAcMDU1v
dW50YWluIFZpZXcxEDAOBgNVBAoMB1Rlc3QgQ0ExFTATBgNVBAMMDFRlc3QgUm9v
dCBDQTAeFw0xNzEyMjAwMDAwMDBaFw0yMDEyMjAwMDAwMDBaMGAxCzAJBgNVBAYT
AlVTMRMwEQYDVQQIDApDYWxpZm9ybmlhMRYwFAYDVQQHDA1Nb3VudGFpbiBWaWV3
MRAwDgYDVQQKDAdUZXN0IENBMRIwEAYDVQQDDAkxMjcuMC4wLjEwggEiMA0GCSqG
SIb3DQEBAQUAA4IBDwAwggEKAoIBAQDJABG+o501DlYnpIeZGdbtxuX0hUvuhTCO
/+u+ZajABJAsejJ8tm5qRURXOguSG2u3nKqR9cA3r/47aQHvkkYfLpF4lnL5X7lR
mkOq8vWObvwaUuvwcsA3qwxWSd5u4sVOl/eSj0yzJDq0Lb6QVPWlbWgrZyEdDuAx
g7glVTWeJagK5IMI8b2yiis7oxLXFudztUg2E3UVkIMzGw55unskWdOnViQ0N3kF
yXfbFcnojWNm2iJfQtHxjfHN+ydGaH/z4SpYh/0SHqnCrj46J2fojyH/LFgn2Mns
keK3kOLShpEcAbnRibrbrNMcDUi5vANq3s2+bhoinS0Ufs2v53/nAgMBAAGjbzBt
MAwGA1UdEwEB/wQCMAAwHQYDVR0OBBYEFO2NLkFvWaSoqAiAItpS4oP4BaS+MB8G
A1UdIwQYMBaAFJsmC4qYqbsduR8c4xpAM+2OF4irMB0GA1UdJQQWMBQGCCsGAQUF
BwMBBggrBgEFBQcDAjANBgkqhkiG9w0BAQsFAAOCAQEAhsEkjqdNJieK9hJibX/e
qmkHl+Q6eKY3c/xjy2gdq5AyfLK9tXzGuqm/VSJOosoeJaRLPnj3W0a3BIOZV4KC
/C/Flpaj2o3b3ybpYhokIpuVTMx5VMm74xy8h7smdI+JwmRXEsp+6efLqjifsJZM
Y2RBzAPoXhMunHlzvOexW1SAUUjrcWjHIf35LO6gP1IGrpYeYhNGNw6kWLJFHn3q
f31wR5J8e3yQqId8GhJRdXVZkhxNon9+rfqJ3o+uL9bKxTtVoPv14D4LYMUt0X7p
wcs8JHdWj69Oy5k5t1OZB4xxWSCcvds4u8y4XJpRZhhGOZbEGs6JOdNuX3kXhJJ0
Fg==
-----END CERTIFICATE-----
