-----BEGIN PRIVATE KEY-----
MIIEvQIBADANBgkqhkiG9w0BAQEFAASCBKcwggSjAgEAAoIBAQDJABG+o501DlYn
pIeZGdbtxuX0hUvuhTCO/+u+ZajABJAsejJ8tm5qRURXOguSG2u3nKqR9cA3r/47
aQHvkkYfLpF4lnL5X7lRmkOq8vWObvwaUuvwcsA3qwxWSd5u4sVOl/eSj0yzJDq0
Lb6QVPWlbWgrZyEdDuAxg7glVTWeJagK5IMI8b2yiis7oxLXFudztUg2E3UVkIMz
Gw55unskWdOnViQ0N3kFyXfbFcnojWNm2iJfQtHxjfHN+ydGaH/z4SpYh/0SHqnC
rj46J2fojyH/LFgn2MnskeK3kOLShpEcAbnRibrbrNMcDUi5vANq3s2+bhoinS0U
fs2v53/nAgMBAAECggEAFTIjrOXWCyVC4pVQE04NQy/JShrQYgu7jijgtEhGHlGc
3oPYVRxr0lsRlN0zISoxFsC3oAK5TWYKujsdkCTtrhYcEwpSf4efpEJPRnSufmGn
xiLebJG9QWGRQHwzr5/MTLhrzBG+ddmpMxzrzo6XBOXfqUwLyuOpsq8AOTeeGtoP
kTWtvOS2ODx6ID27GNcSNGO3haeLKCZaXnlE9RKRLFnBD4IEMycivA63uEpMBe13
PHjqc6cm5tL76TKmfZ5MCC9XRtK6NbqQpJwjet/oqr0TjM6Shz0HCSUufOqNsBjy
cnpCwb/GOvtDoV3ygUNvmUc3xZDf6e2eUc0eu1aYqQKBgQD+aXgQwUYklYreU5uK
dfOWvmR05E2ekJdsxyzxsuwpR0MaPPXiJlPYnChlvdSc+0SUDVmrv0xLrh0D0J54
khDI3dOxTncNGEEzj0+/f9fHxpSH8CxHxsvfbzRNyLS/8QgN/24PfXTVw8o3xftn
1IsLg0mWk9m70BTKqDEZyKTZ7QKBgQDKQUCgj8/uuF1DeJL8HaP2O9HPdAjaymia
X39NeYQdYKqCGf28b6GyACcZMGemo8+s3Y1k3EheHEEnnvUMok+ULKJ6LnqLRyTU
IjoBQ8LOq8lAKTjDcvVYy6pF6wGG1YsDJsY4M1ED9Wrc87Ns1WnVZEY9P9FlhBNl
OQVD3sP2owKBgQDTr+hycI8vs6qX8ZNzc0+a95LY3HplXMRSg6w29HyioCQKefzS
DrgnfU/z0C9P65cVZcJeMM+IDTkhSn4Bru/+Yu1ZFAPlRnBCOZXOrs5Z8Tb3oXUG
yDgtEve/XShgqWrdUtM+WlJT6BSjsb3NmEGV88jQXPeH2czjD23DmXrpxQKBgG2x
ZjOuy79VDoABbPZ/vOVXHDu/Wu4OyRywnoKOXTDxtIhLQGpqwO+hVZM7xXuDbKb8
oisJrdYczNmIRK9NeIuMibJqctwHAdprlboJ3iXo1YWO1dJrDtXR38973aAbQQG8
jdT9P/s9p2+eXLmyJWwurkmZyx+bukkz278rmmyxAoGARoR/vqPlOj3TAcFsks1c
HeI3bqblWu/dpeZ7MhYM90Xf3e0RxigcPNkVm9H1wEragh/WVRQpunysxaTVcnAL
xKf++lCNDCPFOXAhOxTGBGpS/IbrnLfAhDCdqBX2xkyJWNGu00JGe6gfJyIQiX1Z
+919aWiM78TlJC8psjZviRs=
-----END PRIVATE KEY-----
Certificate:
    Data:
        Version: 3 (0x2)
        Serial Number:
            f9:fc:f0:61:a5:95:a9:3e:04:b2:80:d9:e4:4d:dd:1d
        Signature Algorithm: sha256WithRSAEncryption
        Issuer: C=US, ST=California, L=Mountain View, O=Test CA, CN=Test Root CA
        Validity
            Not Before: Dec 20 00:00:00 2017 GMT
            Not After : Dec 20 00:00:00 2020 GMT
        Subject: C=US, ST=California, L=Mountain View, O=Test CA, CN=127.0.0.1
        Subject Public Key Info:
            Public Key Algorithm: rsaEncryption
                Public-Key: (2048 bit)
                Modulus:
                    00:c9:00:11:be:a3:9d:35:0e:56:27:a4:87:99:19:
                    d6:ed:c6:e5:f4:85:4b:ee:85:30:8e:ff:eb:be:65:
                    a8:c0:04:90:2c:7a:32:7c:b6:6e:6a:45:44:57:3a:
                    0b:92:1b:6b:b7:9c:aa:91:f5:c0:37:af:fe:3b:69:
                    01:ef:92:46:1f:2e:91:78:96:72:f9:5f:b9:51:9a:
                    43:aa:f2:f5:8e:6e:fc:1a:52:eb:f0:72:c0:37:ab:
                    0c:56:49:de:6e:e2:c5:4e:97:f7:92:8f:4c:b3:24:
                    3a:b4:2d:be:90:54:f5:a5:6d:68:2b:67:21:1d:0e:
                    e0:31:83:b8:25:55:35:9e:25:a8:0a:e4:83:08:f1:
                    bd:b2:8a:2b:3b:a3:12:d7:16:e7:73:b5:48:36:13:
                    75:15:90:83:33:1b:0e:79:ba:7b:24:59:d3:a7:56:
                    24:34:37:79:05:c9:77:db:15:c9:e8:8d:63:66:da:
                    22:5f:42:d1:f1:8d:f1:cd:fb:27:46:68:7f:f3:e1:
                    2a:58:87:fd:12:1e:a9:c2:ae:3e:3a:27:67:e8:8f:
                    21:ff:2c:58:27:d8:c9:ec:91:e2:b7:90:e2:d2:86:
                    91:1c:01:b9:d1:89:ba:db:ac:d3:1c:0d:48:b9:bc:
                    03:6a:de:cd:be:6e:1a:22:9d:2d:14:7e:cd:af:e7:
                    7f:e7
                Exponent: 65537 (0x10001)
        X509v3 extensions:
            X509v3 Basic Constraints: critical
                CA:FALSE
            X509v3 Subject Key Identifier: 
                ED:8D:2E:41:6F:59:A4:A8:A8:08:80:22:DA:52:E2:83:F8:05:A4:BE
            X509v3 Authority Key Identifier: 
                9B:26:0B:8A:98:A9:BB:1D:B9:1F:1C:E3:1A:40:33:ED:8E:17:88:AB
            X509v3 Extended Key Usage: 
                TLS Web Server Authentication, TLS Web Client Authentication
    Signature Algorithm: sha256WithRSAEncryption
    Signature Value:
        7e:bf:71:8a:77:94:67:bd:12:15:cd:e1:83:4f:98:ab:d5:6d:
        17:2b:bd:83:6f:6b:99:8c:68:8e:2c:ef:6c:7e:e0:f9:aa:ec:
        5b:fb:3c:80:bf:7b:0c:80:5a:eb:c1:1d:f2:0d:8d:cb:84:00:
        41:59:d0:e2:f6:68:ef:1c:fe:d4:a1:ed:e6:2f:a7:23:da:be:
        df:8c:ce:fe:fb:42:f2:5c:fb:d9:da:ba:93:fa:1e:05:10:de:
        af:10:1d:1a:86:c8:0a:e2:e5:c7:84:a2:d6:23:ad:fd:0a:77:
        68:f5:9d:39:98:a4:f4:5b:ae:9a:f6:5e:b9:01:03:97:9e:02:
        b9:49:4c:56:22:a7:9f:e2:91:f2:b6:bc:a8:a9:f0:7a:1d:5e:
        db:73:dc:50:e0:36:80:1e:c2:66:de:9f:3d:c0:fc:b6:6a:28:
        07:ba:7e:91:72:23:7d:4d:0d:cd:0a:0d:c5:5f:ef:56:18:9f:
        ed:66:8b:74:fa:58:1e:7c:d5:a7:c5:37:f6:df:46:b3:f3:86:
        6e:14:63:ac:96:c5:6e:72:e5:68:35:7b:b1:f0:1b:5d:c9:82:
        3c:d6:cb:85:f1:2a:1d:d0:25:88:fa:f3:42:e2:a7:b4:d9:41:
        bb:1a:f1:87:fc:0a:b8:2f:6d:cc:f6:66:3f:c4:b5:80:83:d2:
        3f:f6:ac:34
-----BEGIN CERTIFICATE-----
MIIDvTCCAqWgAwIBAgIRAPn88GGllak+BLKA2eRN3R0wDQYJKoZIhvcNAQELBQAw
YzELMAkGA1UEBhMCVVMxEzARBgNVBAgMCkNhbGlmb3JuaWExFjAUBgNVBAcMDU1v
dW50YWluIFZpZXcxEDAOBgNVBAoMB1Rlc3QgQ0ExFTATBgNVBAMMDFRlc3QgUm9v
dCBDQTAeFw0xNzEyMjAwMDAwMDBaFw0yMDEyMjAwMDAwMDBaMGAxCzAJBgNVBAYT
AlVTMRMwEQYDVQQIDApDYWxpZm9ybmlhMRYwFAYDVQQHDA1Nb3VudGFpbiBWaWV3
MRAwDgYDVQQKDAdUZXN0IENBMRIwEAYDVQQDDAkxMjcuMC4wLjEwggEiMA0GCSqG
SIb3DQEBAQUAA4IBDwAwggEKAoIBAQDJABG+o501DlYnpIeZGdbtxuX0hUvuhTCO
/+u+ZajABJAsejJ8tm5qRURXOguSG2u3nKqR9cA3r/47aQHvkkYfLpF4lnL5X7lR
mkOq8vWObvwaUuvwcsA3qwxWSd5u4sVOl/eSj0yzJDq0Lb6QVPWlbWgrZyEdDuAx
g7glVTWeJagK5IMI8b2yiis7oxLXFudztUg2E3UVkIMzGw55unskWdOnViQ0N3kF
yXfbFcnojWNm2iJfQtHxjfHN+ydGaH/z4SpYh/0SHqnCrj46J2fojyH/LFgn2Mns
keK3kOLShpEcAbnRibrbrNMcDUi5vANq3s2+bhoinS0Ufs2v53/nAgMBAAGjbzBt
MAwGA1UdEwEB/wQCMAAwHQYDVR0OBBYEFO2NLkFvWaSoqAiAItpS4oP4BaS+MB8G
A1UdIwQYMBaAFJsmC4qYqbsduR8c4xpAM+2OF4irMB0GA1UdJQQWMBQGCCsGAQUF
BwMBBggrBgEFBQcDAjANBgkqhkiG9w0BAQsFAAOCAQEAfr9xineUZ70SFc3hg0+Y
q9VtFyu9g29rmYxojizvbH7g+arsW/s8gL97DIBa68Ed8g2Ny4QAQVnQ4vZo7xz+
1KHt5i+nI9q+34zO/vtC8lz72dq6k/oeBRDerxAdGobICuLlx4Si1iOt/Qp3aPWd
OZik9FuumvZeuQEDl54CuUlMViKnn+KR8ra8qKnweh1e23PcUOA2gB7CZt6fPcD8
tmooB7p+kXIjfU0NzQoNxV/vVhif7WaLdPpYHnzVp8U39t9Gs/OGbhRjrJbFbnLl
aDV7sfAbXcmCPNbLhfEqHdAliPrzQuKntNlBuxrxh/wKuC9tzPZmP8S1gIPSP/as
NA==
-----END CERTIFICATE-----
