-----BEGIN PRIVATE KEY-----
MIIEvQIBADANBgkqhkiG9w0BAQEFAASCBKcwggSjAgEAAoIBAQDJABG+o501DlYn
pIeZGdbtxuX0hUvuhTCO/+u+ZajABJAsejJ8tm5qRURXOguSG2u3nKqR9cA3r/47
aQHvkkYfLpF4lnL5X7lRmkOq8vWObvwaUuvwcsA3qwxWSd5u4sVOl/eSj0yzJDq0
Lb6QVPWlbWgrZyEdDuAxg7glVTWeJagK5IMI8b2yiis7oxLXFudztUg2E3UVkIMz
Gw55unskWdOnViQ0N3kFyXfbFcnojWNm2iJfQtHxjfHN+ydGaH/z4SpYh/0SHqnC
rj46J2fojyH/LFgn2MnskeK3kOLShpEcAbnRibrbrNMcDUi5vANq3s2+bhoinS0U
fs2v53/nAgMBAAECggEAFTIjrOXWCyVC4pVQE04NQy/JShrQYgu7jijgtEhGHlGc
3oPYVRxr0lsRlN0zISoxFsC3oAK5TWYKujsdkCTtrhYcEwpSf4efpEJPRnSufmGn
xiLebJG9QWGRQHwzr5/MTLhrzBG+ddmpMxzrzo6XBOXfqUwLyuOpsq8AOTeeGtoP
kTWtvOS2ODx6ID27GNcSNGO3haeLKCZaXnlE9RKRLFnBD4IEMycivA63uEpMBe13
PHjqc6cm5tL76TKmfZ5MCC9XRtK6NbqQpJwjet/oqr0TjM6Shz0HCSUufOqNsBjy
cnpCwb/GOvtDoV3ygUNvmUc3xZDf6e2eUc0eu1aYqQKBgQD+aXgQwUYklYreU5uK
dfOWvmR05E2ekJdsxyzxsuwpR0MaPPXiJlPYnChlvdSc+0SUDVmrv0xLrh0D0J54
khDI3dOxTncNGEEzj0+/f9fHxpSH8CxHxsvfbzRNyLS/8QgN/24PfXTVw8o3xftn
1IsLg0mWk9m70BTKqDEZyKTZ7QKBgQDKQUCgj8/uuF1DeJL8HaP2O9HPdAjaymia
X39NeYQdYKqCGf28b6GyACcZMGemo8+s3Y1k3EheHEEnnvUMok+ULKJ6LnqLRyTU
IjoBQ8LOq8lAKTjDcvVYy6pF6wGG1YsDJsY4M1ED9Wrc87Ns1WnVZEY9P9FlhBNl
OQVD3sP2owKBgQDTr+hycI8vs6qX8ZNzc0+a95LY3HplXMRSg6w29HyioCQKefzS
DrgnfU/z0C9P65cVZcJeMM+IDTkhSn4Bru/+Yu1ZFAPlRnBCOZXOrs5Z8Tb3oXUG
yDgtEve/XShgqWrdUtM+WlJT6BSjsb3NmEGV88jQXPeH2czjD23DmXrpxQKBgG2x
ZjOuy79VDoABbPZ/vOVXHDu/Wu4OyRywnoKOXTDxtIhLQGpqwO+hVZM7xXuDbKb8
oisJrdYczNmIRK9NeIuMibJqctwHAdprlboJ3iXo1YWO1dJrDtXR38973aAbQQG8
jdT9P/s9p2+eXLmyJWwurkmZyx+bukkz278rmmyxAoGARoR/vqPlOj3TAcFsks1c
HeI3bqblWu/dpeZ7MhYM90Xf3e0RxigcPNkVm9H1wEragh/WVRQpunysxaTVcnAL
xKf++lCNDCPFOXAhOxTGBGpS/IbrnLfAhDCdqBX2xkyJWNGu00JGe6gfJyIQiX1Z
+919aWiM78TlJC8psjZviRs=
-----END PRIVATE KEY-----
Certificate:
    Data:
        Version: 3 (0x2)
        Serial Number:
            5a:84:70:47:19:f5:1a:b1:2b:02:fc:31:3f:08:cd:38
        Signature Algorithm: sha256WithRSAEncryption
        Issuer: C=US, ST=California, L=Mountain View, O=Test CA, CN=Test Root CA
        Validity
            Not Before: Dec 20 00:00:00 2017 GMT
            Not After : Dec 20 00:00:00 2020 GMT
        Subject: C=US, ST=California, L=Mountain View, O=Test CA, CN=127.0.0.1
        Subject Public Key Info:
            Public Key Algorithm: rsaEncryption
                Public-Key: (2048 bit)
                Modulus:
                    00:c9:00:11:be:a3:9d:35:0e:56:27:a4:87:99:19:
                    d6:ed:c6:e5:f4:85:4b:ee:85:30:8e:ff:eb:be:65:
                    a8:c0:04:90:2c:7a:32:7c:b6:6e:6a:45:44:57:3a:
                    0b:92:1b:6b:b7:9c:aa:91:f5:c0:37:af:fe:3b:69:
                    01:ef:92:46:1f:2e:91:78:96:72:f9:5f:b9:51:9a:
                    43:aa:f2:f5:8e:6e:fc:1a:52:eb:f0:72:c0:37:ab:
                    0c:56:49:de:6e:e2:c5:4e:97:f7:92:8f:4c:b3:24:
                    3a:b4:2d:be:90:54:f5:a5:6d:68:2b:67:21:1d:0e:
                    e0:31:83:b8:25:55:35:9e:25:a8:0a:e4:83:08:f1:
                    bd:b2:8a:2b:3b:a3:12:d7:16:e7:73:b5:48:36:13:
                    75:15:90:83:33:1b:0e:79:ba:7b:24:59:d3:a7:56:
                    24:34:37:79:05:c9:77:db:15:c9:e8:8d:63:66:da:
                    22:5f:42:d1:f1:8d:f1:cd:fb:27:46:68:7f:f3:e1:
                    2a:58:87:fd:12:1e:a9:c2:ae:3e:3a:27:67:e8:8f:
                    21:ff:2c:58:27:d8:c9:ec:91:e2:b7:90:e2:d2:86:
                    91:1c:01:b9:d1:89:ba:db:ac:d3:1c:0d:48:b9:bc:
                    03:6a:de:cd:be:6e:1a:22:9d:2d:14:7e:cd:af:e7:
                    7f:e7
                Exponent: 65537 (0x10001)
        X509v3 extensions:
            X509v3 Basic Constraints: critical
                CA:FALSE
            X509v3 Subject Key Identifier: 
                ED:8D:2E:41:6F:59:A4:A8:A8:08:80:22:DA:52:E2:83:F8:05:A4:BE
            X509v3 Authority Key Identifier: 
                9B:26:0B:8A:98:A9:BB:1D:B9:1F:1C:E3:1A:40:33:ED:8E:17:88:AB
            X509v3 Extended Key Usage: 
                TLS Web Server Authentication, TLS Web Client Authentication
    Signature Algorithm: sha256WithRSAEncryption
    Signature Value:
        3d:c1:4a:34:bd:08:b4:c6:bf:a3:89:7a:4e:67:76:46:f2:57:
        92:ca:25:84:b3:90:4e:8f:f7:fe:a4:c4:13:30:37:d7:47:6f:
        6d:f2:30:4a:37:e7:6f:dd:be:5d:97:95:e3:a5:5b:79:18:57:
        c8:31:c1:ca:d4:15:6d:1e:db:c9:7c:6a:db:25:9a:1c:18:b8:
        a4:16:9f:aa:c2:75:0a:45:ce:01:4c:cc:82:fa:b4:ce:f5:bd:
        8f:62:5a:ff:e8:b0:67:e1:cc:ae:91:3f:68:ee:52:8e:51:0f:
        f4:83:ce:04:5d:55:10:68:95:93:11:b0:f8:eb:69:ad:79:8d:
        13:6d:c3:fc:87:9b:52:75:32:bb:51:50:59:b0:d0:0a:9c:7d:
        09:9a:47:98:9d:fb:32:7a:b0:8f:5d:69:bc:ce:2d:21:11:5b:
        00:23:e6:e7:55:e3:99:81:68:09:92:12:95:89:23:33:c7:71:
        74:65:37:3d:ff:5d:4c:97:c3:4f:1c:cc:d8:10:eb:9d:73:3e:
        2d:42:13:3c:4c:59:23:bc:c5:78:fe:14:cc:c3:1f:cc:39:18:
        6b:8b:7a:3c:60:ca:ef:e7:1d:d6:01:fb:0a:5a:f4:13:4d:a4:
        84:28:87:33:06:67:80:d9:d3:bf:4f:c3:1d:8a:ef:28:e3:d4:
        cf:d6:b1:b0
-----BEGIN CERTIFICATE-----
MIIDvDCCAqSgAwIBAgIQWoRwRxn1GrErAvwxPwjNODANBgkqhkiG9w0BAQsFADBj
MQswCQYDVQQGEwJVUzETMBEGA1UECAwKQ2FsaWZvcm5pYTEWMBQGA1UEBwwNTW91
bnRhaW4gVmlldzEQMA4GA1UECgwHVGVzdCBDQTEVMBMGA1UEAwwMVGVzdCBSb290
IENBMB4XDTE3MTIyMDAwMDAwMFoXDTIwMTIyMDAwMDAwMFowYDELMAkGA1UEBhMC
VVMxEzARBgNVBAgMCkNhbGlmb3JuaWExFjAUBgNVBAcMDU1vdW50YWluIFZpZXcx
EDAOBgNVBAoMB1Rlc3QgQ0ExEjAQBgNVBAMMCTEyNy4wLjAuMTCCASIwDQYJKoZI
hvcNAQEBBQADggEPADCCAQoCggEBAMkAEb6jnTUOViekh5kZ1u3G5fSFS+6FMI7/
675lqMAEkCx6Mny2bmpFRFc6C5Iba7ecqpH1wDev/jtpAe+SRh8ukXiWcvlfuVGa
Q6ry9Y5u/BpS6/BywDerDFZJ3m7ixU6X95KPTLMkOrQtvpBU9aVtaCtnIR0O4DGD
uCVVNZ4lqArkgwjxvbKKKzujEtcW53O1SDYTdRWQgzMbDnm6eyRZ06dWJDQ3eQXJ
d9sVyeiNY2baIl9C0fGN8c37J0Zof/PhKliH/RIeqcKuPjonZ+iPIf8sWCfYyeyR
4reQ4tKGkRwBudGJutus0xwNSLm8A2rezb5uGiKdLRR+za/nf+cCAwEAAaNvMG0w
DAYDVR0TAQH/BAIwADAdBgNVHQ4EFgQU7Y0uQW9ZpKioCIAi2lLig/gFpL4wHwYD
VR0jBBgwFoAUmyYLipipux25HxzjGkAz7Y4XiKswHQYDVR0lBBYwFAYIKwYBBQUH
AwEGCCsGAQUFBwMCMA0GCSqGSIb3DQEBCwUAA4IBAQA9wUo0vQi0xr+jiXpOZ3ZG
8leSyiWEs5BOj/f+pMQTMDfXR29t8jBKN+dv3b5dl5XjpVt5GFfIMcHK1BVtHtvJ
fGrbJZocGLikFp+qwnUKRc4BTMyC+rTO9b2PYlr/6LBn4cyukT9o7lKOUQ/0g84E
XVUQaJWTEbD462mteY0TbcP8h5tSdTK7UVBZsNAKnH0JmkeYnfsyerCPXWm8zi0h
EVsAI+bnVeOZgWgJkhKViSMzx3F0ZTc9/11Ml8NPHMzYEOudcz4tQhM8TFkjvMV4
/hTMwx/MORhri3o8YMrv5x3WAfsKWvQTTaSEKIczBmeA2dO/T8Mdiu8o49TP1rGw
-----END CERTIFICATE-----
