-----BEGIN PRIVATE KEY-----
MIIEvQIBADANBgkqhkiG9w0BAQEFAASCBKcwggSjAgEAAoIBAQDJABG+o501DlYn
pIeZGdbtxuX0hUvuhTCO/+u+ZajABJAsejJ8tm5qRURXOguSG2u3nKqR9cA3r/47
aQHvkkYfLpF4lnL5X7lRmkOq8vWObvwaUuvwcsA3qwxWSd5u4sVOl/eSj0yzJDq0
Lb6QVPWlbWgrZyEdDuAxg7glVTWeJagK5IMI8b2yiis7oxLXFudztUg2E3UVkIMz
Gw55unskWdOnViQ0N3kFyXfbFcnojWNm2iJfQtHxjfHN+ydGaH/z4SpYh/0SHqnC
rj46J2fojyH/LFgn2MnskeK3kOLShpEcAbnRibrbrNMcDUi5vANq3s2+bhoinS0U
fs2v53/nAgMBAAECggEAFTIjrOXWCyVC4pVQE04NQy/JShrQYgu7jijgtEhGHlGc
3oPYVRxr0lsRlN0zISoxFsC3oAK5TWYKujsdkCTtrhYcEwpSf4efpEJPRnSufmGn
xiLebJG9QWGRQHwzr5/MTLhrzBG+ddmpMxzrzo6XBOXfqUwLyuOpsq8AOTeeGtoP
kTWtvOS2ODx6ID27GNcSNGO3haeLKCZaXnlE9RKRLFnBD4IEMycivA63uEpMBe13
PHjqc6cm5tL76TKmfZ5MCC9XRtK6NbqQpJwjet/oqr0TjM6Shz0HCSUufOqNsBjy
cnpCwb/GOvtDoV3ygUNvmUc3xZDf6e2eUc0eu1aYqQKBgQD+aXgQwUYklYreU5uK
dfOWvmR05E2ekJdsxyzxsuwpR0MaPPXiJlPYnChlvdSc+0SUDVmrv0xLrh0D0J54
khDI3dOxTncNGEEzj0+/f9fHxpSH8CxHxsvfbzRNyLS/8QgN/24PfXTVw8o3xftn
1IsLg0mWk9m70BTKqDEZyKTZ7QKBgQDKQUCgj8/uuF1DeJL8HaP2O9HPdAjaymia
X39NeYQdYKqCGf28b6GyACcZMGemo8+s3Y1k3EheHEEnnvUMok+ULKJ6LnqLRyTU
IjoBQ8LOq8lAKTjDcvVYy6pF6wGG1YsDJsY4M1ED9Wrc87Ns1WnVZEY9P9FlhBNl
OQVD3sP2owKBgQDTr+hycI8vs6qX8ZNzc0+a95LY3HplXMRSg6w29HyioCQKefzS
DrgnfU/z0C9P65cVZcJeMM+IDTkhSn4Bru/+Yu1ZFAPlRnBCOZXOrs5Z8Tb3oXUG
yDgtEve/XShgqWrdUtM+WlJT6BSjsb3NmEGV88jQXPeH2czjD23DmXrpxQKBgG2x
ZjOuy79VDoABbPZ/vOVXHDu/Wu4OyRywnoKOXTDxtIhLQGpqwO+hVZM7xXuDbKb8
oisJrdYczNmIRK9NeIuMibJqctwHAdprlboJ3iXo1YWO1dJrDtXR38973aAbQQG8
jdT9P/s9p2+eXLmyJWwurkmZyx+bukkz278rmmyxAoGARoR/vqPlOj3TAcFsks1c
HeI3bqblWu/dpeZ7MhYM90Xf3e0RxigcPNkVm9H1wEragh/WVRQpunysxaTVcnAL
xKf++lCNDCPFOXAhOxTGBGpS/IbrnLfAhDCdqBX2xkyJWNGu00JGe6gfJyIQiX1Z
+919aWiM78TlJC8psjZviRs=
-----END PRIVATE KEY-----
Certificate:
    Data:
        Version: 3 (0x2)
        Serial Number:
            cf:95:70:1c:b6:6c:07:bb:a4:de:63:24:47:3b:4e:da
        Signature Algorithm: sha256WithRSAEncryption
        Issuer: C=US, ST=California, L=Mountain View, O=Test CA, CN=Test Root CA
        Validity
            Not Before: Dec 20 00:00:00 2017 GMT
            Not After : Dec 20 00:00:00 2020 GMT
        Subject: C=US, ST=California, L=Mountain View, O=Test CA, CN=127.0.0.1
        Subject Public Key Info:
            Public Key Algorithm: rsaEncryption
                Public-Key: (2048 bit)
                Modulus:
                    00:c9:00:11:be:a3:9d:35:0e:56:27:a4:87:99:19:
                    d6:ed:c6:e5:f4:85:4b:ee:85:30:8e:ff:eb:be:65:
                    a8:c0:04:90:2c:7a:32:7c:b6:6e:6a:45:44:57:3a:
                    0b:92:1b:6b:b7:9c:aa:91:f5:c0:37:af:fe:3b:69:
                    01:ef:92:46:1f:2e:91:78:96:72:f9:5f:b9:51:9a:
                    43:aa:f2:f5:8e:6e:fc:1a:52:eb:f0:72:c0:37:ab:
                    0c:56:49:de:6e:e2:c5:4e:97:f7:92:8f:4c:b3:24:
                    3a:b4:2d:be:90:54:f5:a5:6d:68:2b:67:21:1d:0e:
                    e0:31:83:b8:25:55:35:9e:25:a8:0a:e4:83:08:f1:
                    bd:b2:8a:2b:3b:a3:12:d7:16:e7:73:b5:48:36:13:
                    75:15:90:83:33:1b:0e:79:ba:7b:24:59:d3:a7:56:
                    24:34:37:79:05:c9:77:db:15:c9:e8:8d:63:66:da:
                    22:5f:42:d1:f1:8d:f1:cd:fb:27:46:68:7f:f3:e1:
                    2a:58:87:fd:12:1e:a9:c2:ae:3e:3a:27:67:e8:8f:
                    21:ff:2c:58:27:d8:c9:ec:91:e2:b7:90:e2:d2:86:
                    91:1c:01:b9:d1:89:ba:db:ac:d3:1c:0d:48:b9:bc:
                    03:6a:de:cd:be:6e:1a:22:9d:2d:14:7e:cd:af:e7:
                    7f:e7
                Exponent: 65537 (0x10001)
        X509v3 extensions:
            X509v3 Basic Constraints: critical
                CA:FALSE
            X509v3 Subject Key Identifier: 
                ED:8D:2E:41:6F:59:A4:A8:A8:08:80:22:DA:52:E2:83:F8:05:A4:BE
            X509v3 Authority Key Identifier: 
                9B:26:0B:8A:98:A9:BB:1D:B9:1F:1C:E3:1A:40:33:ED:8E:17:88:AB
            X509v3 Extended Key Usage: 
                TLS Web Server Authentication, TLS Web Client Authentication
    Signature Algorithm: sha256WithRSAEncryption
    Signature Value:
        42:09:9a:97:a4:6e:14:84:8d:76:b6:c4:d9:70:71:e0:dd:96:
        73:57:12:e3:bf:5b:2d:c7:17:e3:4f:e9:31:4e:1b:7b:12:f5:
        42:b9:52:d2:2e:d1:f8:33:f6:2c:e8:41:e8:18:a1:a9:e2:34:
        4b:23:e8:05:c1:76:be:98:99:0f:be:a7:76:7a:fd:23:bb:5f:
        20:9b:04:d9:f4:3a:4a:28:aa:ad:d8:f4:4b:63:fb:c8:c5:3d:
        f8:7c:03:2c:bd:4c:11:c8:e4:34:95:04:e6:af:95:0d:43:9b:
        99:c4:e9:04:0f:75:6d:45:44:64:2c:3e:9d:12:a6:04:c7:da:
        50:c7:97:10:9b:39:b2:0e:7f:28:27:f1:74:da:4a:17:53:7e:
        fc:90:20:b0:24:50:ed:5d:84:33:a5:22:2b:31:2c:c7:a7:00:
        03:93:39:69:6c:a2:47:53:3d:81:f7:89:f1:22:aa:8d:7b:d0:
        85:fe:66:84:fa:3e:15:76:57:2f:be:e1:39:81:66:60:23:ef:
        21:c4:1a:c6:53:36:5e:bf:5d:ed:9b:ff:88:63:84:81:db:44:
        d9:5c:36:62:bc:95:bb:fb:3c:d5:8c:5b:3c:2f:d7:c4:fe:e6:
        63:c5:9e:d8:8b:45:f7:3a:4c:be:89:1d:64:8f:9e:89:11:e8:
        07:e9:5a:f4
-----BEGIN CERTIFICATE-----
MIIDvTCCAqWgAwIBAgIRAM+VcBy2bAe7pN5jJEc7TtowDQYJKoZIhvcNAQELBQAw
YzELMAkGA1UEBhMCVVMxEzARBgNVBAgMCkNhbGlmb3JuaWExFjAUBgNVBAcMDU1v
dW50YWluIFZpZXcxEDAOBgNVBAoMB1Rlc3QgQ0ExFTATBgNVBAMMDFRlc3QgUm9v
dCBDQTAeFw0xNzEyMjAwMDAwMDBaFw0yMDEyMjAwMDAwMDBaMGAxCzAJBgNVBAYT
AlVTMRMwEQYDVQQIDApDYWxpZm9ybmlhMRYwFAYDVQQHDA1Nb3VudGFpbiBWaWV3
MRAwDgYDVQQKDAdUZXN0IENBMRIwEAYDVQQDDAkxMjcuMC4wLjEwggEiMA0GCSqG
SIb3DQEBAQUAA4IBDwAwggEKAoIBAQDJABG+o501DlYnpIeZGdbtxuX0hUvuhTCO
/+u+ZajABJAsejJ8tm5qRURXOguSG2u3nKqR9cA3r/47aQHvkkYfLpF4lnL5X7lR
mkOq8vWObvwaUuvwcsA3qwxWSd5u4sVOl/eSj0yzJDq0Lb6QVPWlbWgrZyEdDuAx
g7glVTWeJagK5IMI8b2yiis7oxLXFudztUg2E3UVkIMzGw55unskWdOnViQ0N3kF
yXfbFcnojWNm2iJfQtHxjfHN+ydGaH/z4SpYh/0SHqnCrj46J2fojyH/LFgn2Mns
keK3kOLShpEcAbnRibrbrNMcDUi5vANq3s2+bhoinS0Ufs2v53/nAgMBAAGjbzBt
MAwGA1UdEwEB/wQCMAAwHQYDVR0OBBYEFO2NLkFvWaSoqAiAItpS4oP4BaS+MB8G
A1UdIwQYMBaAFJsmC4qYqbsduR8c4xpAM+2OF4irMB0GA1UdJQQWMBQGCCsGAQUF
BwMBBggrBgEFBQcDAjANBgkqhkiG9w0BAQsFAAOCAQEAQgmal6RuFISNdrbE2XBx
4N2Wc1cS479bLccX40/pMU4bexL1QrlS0i7R+DP2LOhB6BihqeI0SyPoBcF2vpiZ
D76ndnr9I7tfIJsE2fQ6Siiqrdj0S2P7yMU9+HwDLL1MEcjkNJUE5q+VDUObmcTp
BA91bUVEZCw+nRKmBMfaUMeXEJs5sg5/KCfxdNpKF1N+/JAgsCRQ7V2EM6UiKzEs
x6cAA5M5aWyiR1M9gfeJ8SKqjXvQhf5mhPo+FXZXL77hOYFmYCPvIcQaxlM2Xr9d
7Zv/iGOEgdtE2Vw2YryVu/s81YxbPC/XxP7mY8We2ItF9zpMvokdZI+eiRHoB+la
9A==
-----END CERTIFICATE-----
