-----BEGIN PRIVATE KEY-----
MIIEvQIBADANBgkqhkiG9w0BAQEFAASCBKcwggSjAgEAAoIBAQDJABG+o501DlYn
pIeZGdbtxuX0hUvuhTCO/+u+ZajABJAsejJ8tm5qRURXOguSG2u3nKqR9cA3r/47
aQHvkkYfLpF4lnL5X7lRmkOq8vWObvwaUuvwcsA3qwxWSd5u4sVOl/eSj0yzJDq0
Lb6QVPWlbWgrZyEdDuAxg7glVTWeJagK5IMI8b2yiis7oxLXFudztUg2E3UVkIMz
Gw55unskWdOnViQ0N3kFyXfbFcnojWNm2iJfQtHxjfHN+ydGaH/z4SpYh/0SHqnC
rj46J2fojyH/LFgn2MnskeK3kOLShpEcAbnRibrbrNMcDUi5vANq3s2+bhoinS0U
fs2v53/nAgMBAAECggEAFTIjrOXWCyVC4pVQE04NQy/JShrQYgu7jijgtEhGHlGc
3oPYVRxr0lsRlN0zISoxFsC3oAK5TWYKujsdkCTtrhYcEwpSf4efpEJPRnSufmGn
xiLebJG9QWGRQHwzr5/MTLhrzBG+ddmpMxzrzo6XBOXfqUwLyuOpsq8AOTeeGtoP
kTWtvOS2ODx6ID27GNcSNGO3haeLKCZaXnlE9RKRLFnBD4IEMycivA63uEpMBe13
PHjqc6cm5tL76TKmfZ5MCC9XRtK6NbqQpJwjet/oqr0TjM6Shz0HCSUufOqNsBjy
cnpCwb/GOvtDoV3ygUNvmUc3xZDf6e2eUc0eu1aYqQKBgQD+aXgQwUYklYreU5uK
dfOWvmR05E2ekJdsxyzxsuwpR0MaPPXiJlPYnChlvdSc+0SUDVmrv0xLrh0D0J54
khDI3dOxTncNGEEzj0+/f9fHxpSH8CxHxsvfbzRNyLS/8QgN/24PfXTVw8o3xftn
1IsLg0mWk9m70BTKqDEZyKTZ7QKBgQDKQUCgj8/uuF1DeJL8HaP2O9HPdAjaymia
X39NeYQdYKqCGf28b6GyACcZMGemo8+s3Y1k3EheHEEnnvUMok+ULKJ6LnqLRyTU
IjoBQ8LOq8lAKTjDcvVYy6pF6wGG1YsDJsY4M1ED9Wrc87Ns1WnVZEY9P9FlhBNl
OQVD3sP2owKBgQDTr+hycI8vs6qX8ZNzc0+a95LY3HplXMRSg6w29HyioCQKefzS
DrgnfU/z0C9P65cVZcJeMM+IDTkhSn4Bru/+Yu1ZFAPlRnBCOZXOrs5Z8Tb3oXUG
yDgtEve/XShgqWrdUtM+WlJT6BSjsb3NmEGV88jQXPeH2czjD23DmXrpxQKBgG2x
ZjOuy79VDoABbPZ/vOVXHDu/Wu4OyRywnoKOXTDxtIhLQGpqwO+hVZM7xXuDbKb8
oisJrdYczNmIRK9NeIuMibJqctwHAdprlboJ3iXo1YWO1dJrDtXR38973aAbQQG8
jdT9P/s9p2+eXLmyJWwurkmZyx+bukkz278rmmyxAoGARoR/vqPlOj3TAcFsks1c
HeI3bqblWu/dpeZ7MhYM90Xf3e0RxigcPNkVm9H1wEragh/WVRQpunysxaTVcnAL
xKf++lCNDCPFOXAhOxTGBGpS/IbrnLfAhDCdqBX2xkyJWNGu00JGe6gfJyIQiX1Z
+919aWiM78TlJC8psjZviRs=
-----END PRIVATE KEY-----
Certificate:
    Data:
        Version: 3 (0x2)
        Serial Number:
            12:f6:d9:f1:80:1b:50:9f:64:09:c8:ea:2f:16:33:bf
        Signature Algorithm: sha256WithRSAEncryption
        Issuer: C=US, ST=California, L=Mountain View, O=Test CA, CN=Test Root CA
        Validity
            Not Before: Dec 20 00:00:00 2017 GMT
            Not After : Dec 20 00:00:00 2020 GMT
        Subject: C=US, ST=California, L=Mountain View, O=Test CA, CN=127.0.0.1
        Subject Public Key Info:
            Public Key Algorithm: rsaEncryption
                RSA Public-Key: (2048 bit)
                Modulus:
                    00:c9:00:11:be:a3:9d:35:0e:56:27:a4:87:99:19:
                    d6:ed:c6:e5:f4:85:4b:ee:85:30:8e:ff:eb:be:65:
                    a8:c0:04:90:2c:7a:32:7c:b6:6e:6a:45:44:57:3a:
                    0b:92:1b:6b:b7:9c:aa:91:f5:c0:37:af:fe:3b:69:
                    01:ef:92:46:1f:2e:91:78:96:72:f9:5f:b9:51:9a:
                    43:aa:f2:f5:8e:6e:fc:1a:52:eb:f0:72:c0:37:ab:
                    0c:56:49:de:6e:e2:c5:4e:97:f7:92:8f:4c:b3:24:
                    3a:b4:2d:be:90:54:f5:a5:6d:68:2b:67:21:1d:0e:
                    e0:31:83:b8:25:55:35:9e:25:a8:0a:e4:83:08:f1:
                    bd:b2:8a:2b:3b:a3:12:d7:16:e7:73:b5:48:36:13:
                    75:15:90:83:33:1b:0e:79:ba:7b:24:59:d3:a7:56:
                    24:34:37:79:05:c9:77:db:15:c9:e8:8d:63:66:da:
                    22:5f:42:d1:f1:8d:f1:cd:fb:27:46:68:7f:f3:e1:
                    2a:58:87:fd:12:1e:a9:c2:ae:3e:3a:27:67:e8:8f:
                    21:ff:2c:58:27:d8:c9:ec:91:e2:b7:90:e2:d2:86:
                    91:1c:01:b9:d1:89:ba:db:ac:d3:1c:0d:48:b9:bc:
                    03:6a:de:cd:be:6e:1a:22:9d:2d:14:7e:cd:af:e7:
                    7f:e7
                Exponent: 65537 (0x10001)
        X509v3 extensions:
            X509v3 Basic Constraints: critical
                CA:FALSE
            X509v3 Subject Key Identifier: 
                ED:8D:2E:41:6F:59:A4:A8:A8:08:80:22:DA:52:E2:83:F8:05:A4:BE
            X509v3 Authority Key Identifier: 
                keyid:9B:26:0B:8A:98:A9:BB:1D:B9:1F:1C:E3:1A:40:33:ED:8E:17:88:AB

            X509v3 Extended Key Usage: 
                TLS Web Server Authentication, TLS Web Client Authentication
    Signature Algorithm: sha256WithRSAEncryption
         9c:a7:64:3a:82:8b:1c:35:f4:3e:14:56:83:72:01:3f:73:cd:
         40:9a:95:1c:72:f1:9d:6f:9e:90:fc:aa:23:82:4d:a3:af:0b:
         a4:14:50:40:a5:86:53:7d:85:10:9d:dc:eb:5a:fa:80:10:ae:
         42:16:5d:31:f7:6d:11:3e:c2:1e:52:4e:45:53:3c:e7:6a:29:
         20:5a:c9:df:e4:f8:7a:a4:92:2b:56:c6:ff:94:c3:a6:18:9e:
         a0:5b:02:3b:c2:e9:bc:ca:c6:33:36:a0:00:a4:ac:9b:1e:21:
         0d:34:11:09:12:d0:26:82:ab:84:b5:ba:d3:2a:4a:2a:cf:6f:
         e2:cb:1c:6e:a7:39:f2:26:10:ef:79:2a:57:7a:e5:d4:16:df:
         fa:fe:0f:8c:4b:d2:97:9e:88:44:dd:fd:13:47:d4:c0:ac:b7:
         2e:a7:fb:30:a7:23:00:32:33:c3:2a:a0:c0:41:6b:fa:05:da:
         8d:29:c0:69:0c:40:fc:3c:18:28:9a:d3:02:2a:e5:75:34:24:
         13:5d:fc:08:eb:02:6c:fd:68:ed:d9:29:e1:5b:25:cd:3c:77:
         a5:83:c0:84:fd:a2:5d:02:6c:ec:b1:22:ff:58:6f:3e:b4:96:
         29:43:72:7d:c0:cb:93:a2:04:08:27:8c:2a:20:24:86:ac:67:
         f0:14:33:5d
-----BEGIN CERTIFICATE-----
MIIDvDCCAqSgAwIBAgIQEvbZ8YAbUJ9kCcjqLxYzvzANBgkqhkiG9w0BAQsFADBj
MQswCQYDVQQGEwJVUzETMBEGA1UECAwKQ2FsaWZvcm5pYTEWMBQGA1UEBwwNTW91
bnRhaW4gVmlldzEQMA4GA1UECgwHVGVzdCBDQTEVMBMGA1UEAwwMVGVzdCBSb290
IENBMB4XDTE3MTIyMDAwMDAwMFoXDTIwMTIyMDAwMDAwMFowYDELMAkGA1UEBhMC
VVMxEzARBgNVBAgMCkNhbGlmb3JuaWExFjAUBgNVBAcMDU1vdW50YWluIFZpZXcx
EDAOBgNVBAoMB1Rlc3QgQ0ExEjAQBgNVBAMMCTEyNy4wLjAuMTCCASIwDQYJKoZI
hvcNAQEBBQADggEPADCCAQoCggEBAMkAEb6jnTUOViekh5kZ1u3G5fSFS+6FMI7/
675lqMAEkCx6Mny2bmpFRFc6C5Iba7ecqpH1wDev/jtpAe+SRh8ukXiWcvlfuVGa
Q6ry9Y5u/BpS6/BywDerDFZJ3m7ixU6X95KPTLMkOrQtvpBU9aVtaCtnIR0O4DGD
uCVVNZ4lqArkgwjxvbKKKzujEtcW53O1SDYTdRWQgzMbDnm6eyRZ06dWJDQ3eQXJ
d9sVyeiNY2baIl9C0fGN8c37J0Zof/PhKliH/RIeqcKuPjonZ+iPIf8sWCfYyeyR
4reQ4tKGkRwBudGJutus0xwNSLm8A2rezb5uGiKdLRR+za/nf+cCAwEAAaNvMG0w
DAYDVR0TAQH/BAIwADAdBgNVHQ4EFgQU7Y0uQW9ZpKioCIAi2lLig/gFpL4wHwYD
VR0jBBgwFoAUmyYLipipux25HxzjGkAz7Y4XiKswHQYDVR0lBBYwFAYIKwYBBQUH
AwEGCCsGAQUFBwMCMA0GCSqGSIb3DQEBCwUAA4IBAQCcp2Q6goscNfQ+FFaDcgE/
c81AmpUccvGdb56Q/Kojgk2jrwukFFBApYZTfYUQndzrWvqAEK5CFl0x920RPsIe
Uk5FUzznaikgWsnf5Ph6pJIrVsb/lMOmGJ6gWwI7wum8ysYzNqAApKybHiENNBEJ
EtAmgquEtbrTKkoqz2/iyxxupznyJhDveSpXeuXUFt/6/g+MS9KXnohE3f0TR9TA
rLcup/swpyMAMjPDKqDAQWv6BdqNKcBpDED8PBgomtMCKuV1NCQTXfwI6wJs/Wjt
2SnhWyXNPHelg8CE/aJdAmzssSL/WG8+tJYpQ3J9wMuTogQIJ4wqICSGrGfwFDNd
-----END CERTIFICATE-----
