-----BEGIN PRIVATE KEY-----
MIIEvgIBADANBgkqhkiG9w0BAQEFAASCBKgwggSkAgEAAoIBAQDo54gDQT1qecev
bDsUAnrPdTnIFp0Da4tLIr+UCTyfMoF5ZEVfH7PDaS5pydczRr3O5SR7+VUNOaQc
nU3E2IWgb0tD/AeI6x6Q/rjFMM7DsNvHjvzuX9xjhwGeM5KVNb9jv59g7TmwYvoF
y6QUwEpV+gySaAfGQi0GsviEIyZR3kWqzalHk8EetSsEql7BEVjeAEoz5raMLukF
qfJ9lOVkvzPMUXQVEROlCzWePHe7lXkep9LUNIdguu92Qt2458BUgNR703RsJxy3
HU0dz1pe83Pu4MrQk65Di851HAOYykkZ0NugmWFZn4zHit3KDJZJZ4cBiaq8ftgh
xPvpH2m1AgMBAAECggEAATjJG+r0Wmlf1MOlZbIhLEQil0XvZ3jXxGuj0s2khllu
SZtReuyxsJzI/fiLD/h0nK/6gyKZmjOBU3lByP6KQYkrUQcaGfC90x3nSCp3zksV
a3bu6g+Hri7BA+tBukH4CmnOW9Dt2qmcG/CFNC+958iPr6FmKLv8hkC937Uf9cL6
nD29wvDuzRibDRV/yDk/dhbc2QTpDp8kkjDBI/Hpibj6GeQra5YDDafqs78w0jQh
jOl6+E4sn79+X4ZccOCXfgcXsa8gZcskIXdVGhtWnYGWdxcyXDhJrZzKr2tEhzAw
QFhpHjlGL9l6P/lDyn0qMxp9IEFLcWJk2YTrcaV4wQKBgQD4VLNJj+l2x4O7qGpb
X5GRYLBCqI76iXLxUaEQJxZpd5qngWKaSJyS9IO82k7fcCgsbhQQnXC59UIlUQ6A
YLPO4Nj/D6V8ewttCIbiRtddTZBj9wIHJFhOfcRoDBSTskhaJ4kVB1Nh+YchQf+8
P6/wwkTcn9FRohdeHikYDnpqIQKBgQDwGN6pGMbrnIKv/+HHC55QPshUYjKIjU98
Bd7TU3Kj8tSpxiKKXY9RtkAfzoSrgPzu5SJ3bSgXBXz+xOtN9b9z5beQHJyufHaO
NaVQ4ZStMjo3afXMNj7UUd9ZbFuH2K+K1FjXy99Ab5wN/u5snRiErh2KS/w3mxze
6kOComAVFQKBgQC7vP0WHhB4VfmHg5l0ntmkOJ7IpjoBuqwFOJs1ZPeSoHNxM2Xi
EgcdKnH18m0yis40WLwem4g/beWl5JO8Bl+phV9H5QJNC5Dly059/uSOizcf+/uy
fo2sOXSk3I0p49zDG6SNG060gTrhr82w+cz/jT8WNFTBDHPyGYcjwr5VQQKBgEHU
f9BbU8csHYUGIrCBlgGohSLl3bclD6MQtPy6R5d+MCLwiW3oozAjSUevRx8C+dbC
ioW2LyTIw3HTKjUw6TJszLy9q5QH2jW5rb8UasBmIiIpclRwlx9950BMfngryE3H
VSit5GN1dpM7z8GF/T/7wWu208unQu43yxTZUoDVAoGBANzJZijbb2JYdvDSi5aX
Akv5droXiJ9DG7wew7xGJcGRdmpRw+mas2j5hdIXwfKeN7yr8KFaYxv/DDqlTsv+
sZPysvWc4TZ8NrNOL9VyAD/3QCjo9uBdd2rSssYMKHI8RXD+Jiold59AW3oMDwVk
OW8+EuyR+eoq9HueaKbjlJ5O
-----END PRIVATE KEY-----
Certificate:
    Data:
        Version: 3 (0x2)
        Serial Number: 2 (0x2)
        Signature Algorithm: sha256WithRSAEncryption
        Issuer: CN=2048 RSA Test Root CA
        Validity
            Not Before: Feb 17 17:08:51 2023 GMT
            Not After : Feb 14 17:08:51 2033 GMT
        Subject: C=US, ST=California, L=Mountain View, O=Test CA, CN=127.0.0.1
        Subject Public Key Info:
            Public Key Algorithm: rsaEncryption
                Public-Key: (2048 bit)
                Modulus:
                    00:e8:e7:88:03:41:3d:6a:79:c7:af:6c:3b:14:02:
                    7a:cf:75:39:c8:16:9d:03:6b:8b:4b:22:bf:94:09:
                    3c:9f:32:81:79:64:45:5f:1f:b3:c3:69:2e:69:c9:
                    d7:33:46:bd:ce:e5:24:7b:f9:55:0d:39:a4:1c:9d:
                    4d:c4:d8:85:a0:6f:4b:43:fc:07:88:eb:1e:90:fe:
                    b8:c5:30:ce:c3:b0:db:c7:8e:fc:ee:5f:dc:63:87:
                    01:9e:33:92:95:35:bf:63:bf:9f:60:ed:39:b0:62:
                    fa:05:cb:a4:14:c0:4a:55:fa:0c:92:68:07:c6:42:
                    2d:06:b2:f8:84:23:26:51:de:45:aa:cd:a9:47:93:
                    c1:1e:b5:2b:04:aa:5e:c1:11:58:de:00:4a:33:e6:
                    b6:8c:2e:e9:05:a9:f2:7d:94:e5:64:bf:33:cc:51:
                    74:15:11:13:a5:0b:35:9e:3c:77:bb:95:79:1e:a7:
                    d2:d4:34:87:60:ba:ef:76:42:dd:b8:e7:c0:54:80:
                    d4:7b:d3:74:6c:27:1c:b7:1d:4d:1d:cf:5a:5e:f3:
                    73:ee:e0:ca:d0:93:ae:43:8b:ce:75:1c:03:98:ca:
                    49:19:d0:db:a0:99:61:59:9f:8c:c7:8a:dd:ca:0c:
                    96:49:67:87:01:89:aa:bc:7e:d8:21:c4:fb:e9:1f:
                    69:b5
                Exponent: 65537 (0x10001)
        X509v3 extensions:
            X509v3 Subject Alternative Name: 
                IP Address:127.0.0.1
            X509v3 Basic Constraints: critical
                CA:FALSE
            X509v3 Subject Key Identifier: 
                CB:86:F3:FC:03:8D:82:4B:C6:63:57:8A:E6:9F:86:55:10:D9:00:B7
            X509v3 Extended Key Usage: critical
                Code Signing
            X509v3 Authority Key Identifier: 
                D5:28:55:87:C7:A3:BF:D7:C4:CE:BE:3D:01:D2:BE:8B:7C:E4:E2:E2
    Signature Algorithm: sha256WithRSAEncryption
    Signature Value:
        64:ff:92:1d:66:c5:2b:6c:b8:d6:82:39:80:8e:ef:55:cd:bb:
        6f:1c:16:20:a5:6b:90:fa:f3:20:c7:37:0d:7d:4f:da:f5:1f:
        9c:dc:28:3e:39:56:a7:17:eb:3b:09:53:d7:1e:1b:a1:eb:24:
        f7:7f:04:38:77:e1:e4:39:60:bf:24:13:37:05:8b:9f:36:94:
        91:e4:fc:43:97:d6:0e:11:cb:ee:a9:f9:c1:05:6e:2f:ea:76:
        af:f5:69:ae:06:97:5a:2d:97:0b:cd:3a:1d:01:30:26:ac:da:
        f6:03:e4:df:32:08:64:81:ea:36:85:0c:03:41:6a:ef:10:6b:
        2a:a4:cb:f6:59:9b:bf:fa:1b:5a:9e:05:33:b0:54:30:d1:79:
        dd:77:6b:e0:c8:be:52:37:58:7e:b0:53:23:fe:62:ce:5c:bb:
        b5:06:85:18:e0:08:08:cd:48:bc:1d:d7:cb:92:55:33:57:fe:
        42:4a:81:0d:d3:ee:02:0a:e1:4b:d2:f1:de:81:5e:bb:fa:8b:
        9f:3f:ec:0a:1a:30:0b:de:15:d3:75:5e:11:f8:a9:7e:4f:7d:
        40:03:06:e4:2f:3b:e5:5e:ff:42:f5:e6:99:02:f3:26:c0:f7:
        e2:b2:62:53:d3:e2:5b:2a:17:e3:78:5c:84:cc:14:bf:fa:0d:
        ac:d7:d0:49
-----BEGIN CERTIFICATE-----
MIIDdDCCAlygAwIBAgIBAjANBgkqhkiG9w0BAQsFADAgMR4wHAYDVQQDDBUyMDQ4
IFJTQSBUZXN0IFJvb3QgQ0EwHhcNMjMwMjE3MTcwODUxWhcNMzMwMjE0MTcwODUx
WjBgMQswCQYDVQQGEwJVUzETMBEGA1UECAwKQ2FsaWZvcm5pYTEWMBQGA1UEBwwN
TW91bnRhaW4gVmlldzEQMA4GA1UECgwHVGVzdCBDQTESMBAGA1UEAwwJMTI3LjAu
MC4xMIIBIjANBgkqhkiG9w0BAQEFAAOCAQ8AMIIBCgKCAQEA6OeIA0E9annHr2w7
FAJ6z3U5yBadA2uLSyK/lAk8nzKBeWRFXx+zw2kuacnXM0a9zuUke/lVDTmkHJ1N
xNiFoG9LQ/wHiOsekP64xTDOw7Dbx4787l/cY4cBnjOSlTW/Y7+fYO05sGL6Bcuk
FMBKVfoMkmgHxkItBrL4hCMmUd5Fqs2pR5PBHrUrBKpewRFY3gBKM+a2jC7pBany
fZTlZL8zzFF0FRETpQs1njx3u5V5HqfS1DSHYLrvdkLduOfAVIDUe9N0bCcctx1N
Hc9aXvNz7uDK0JOuQ4vOdRwDmMpJGdDboJlhWZ+Mx4rdygyWSWeHAYmqvH7YIcT7
6R9ptQIDAQABo3kwdzAPBgNVHREECDAGhwR/AAABMAwGA1UdEwEB/wQCMAAwHQYD
VR0OBBYEFMuG8/wDjYJLxmNXiuafhlUQ2QC3MBYGA1UdJQEB/wQMMAoGCCsGAQUF
BwMDMB8GA1UdIwQYMBaAFNUoVYfHo7/XxM6+PQHSvot85OLiMA0GCSqGSIb3DQEB
CwUAA4IBAQBk/5IdZsUrbLjWgjmAju9VzbtvHBYgpWuQ+vMgxzcNfU/a9R+c3Cg+
OVanF+s7CVPXHhuh6yT3fwQ4d+HkOWC/JBM3BYufNpSR5PxDl9YOEcvuqfnBBW4v
6nav9WmuBpdaLZcLzTodATAmrNr2A+TfMghkgeo2hQwDQWrvEGsqpMv2WZu/+hta
ngUzsFQw0Xndd2vgyL5SN1h+sFMj/mLOXLu1BoUY4AgIzUi8HdfLklUzV/5CSoEN
0+4CCuFL0vHegV67+oufP+wKGjAL3hXTdV4R+Kl+T31AAwbkLzvlXv9C9eaZAvMm
wPfismJT0+JbKhfjeFyEzBS/+g2s19BJ
-----END CERTIFICATE-----
