Certificate:
    Data:
        Version: 3 (0x2)
        Serial Number:
            3e:2c:9d:be:b0:42:c8:cf:fc:99:42:d5:4d:41:6a:be
        Signature Algorithm: sha256WithRSAEncryption
        Issuer: C=US, ST=California, L=Mountain View, O=Test CA, CN=Test Root CA
        Validity
            Not Before: Dec 20 00:00:00 2017 GMT
            Not After : Dec 20 00:00:00 2020 GMT
        Subject: C=US, ST=California, L=Mountain View, O=Test CA, CN=127.0.0.1
        Subject Public Key Info:
            Public Key Algorithm: rsaEncryption
                RSA Public-Key: (2048 bit)
                Modulus:
                    00:d2:eb:f5:8f:40:9e:0a:5a:c9:42:20:d0:ec:6d:
                    1b:6b:2f:e6:fc:67:0d:ef:ac:4f:23:94:70:28:2d:
                    ca:38:47:d9:c6:7e:6d:20:90:e6:89:8c:cb:60:02:
                    5c:94:06:26:12:19:36:59:f3:ba:d6:3e:7e:39:da:
                    4c:ea:69:ef:21:de:ce:6d:cc:c4:29:c6:b4:2e:c8:
                    13:6b:f5:bd:b7:93:92:09:cd:de:11:b7:cf:fa:04:
                    6d:b7:74:88:c3:60:ff:36:f2:df:5a:3a:ee:e7:96:
                    7c:43:dd:9d:2d:dd:87:b1:d7:4e:8e:a8:31:72:47:
                    aa:46:0b:5b:bc:54:1e:ef:c4:fb:f7:d1:66:37:75:
                    56:b3:e7:19:51:7c:c4:0d:6b:ab:f1:ae:89:e1:87:
                    9c:26:e6:21:f5:6a:73:8e:23:4b:86:1b:80:c5:a3:
                    27:52:1c:dd:35:68:d2:fc:35:2c:0c:f0:6f:67:fb:
                    b4:d5:84:e8:56:4e:3d:09:ad:b9:f2:fc:f7:84:d9:
                    83:7f:c9:1b:f4:3d:f3:f4:f8:03:e6:fe:bd:17:09:
                    57:cf:81:b1:ed:75:09:40:0e:36:7a:96:85:1d:a1:
                    ae:43:86:2b:c5:ee:30:66:ff:60:05:5e:f5:76:a7:
                    c7:eb:1e:65:8f:e6:88:b6:42:6b:78:86:a3:c6:7a:
                    be:73
                Exponent: 65537 (0x10001)
        X509v3 extensions:
            X509v3 Basic Constraints: critical
                CA:FALSE
            X509v3 Subject Key Identifier: 
                AF:5E:73:1B:EC:71:82:4F:A6:44:B2:11:27:57:AE:91:11:A0:50:1C
            X509v3 Authority Key Identifier: 
                keyid:9B:26:0B:8A:98:A9:BB:1D:B9:1F:1C:E3:1A:40:33:ED:8E:17:88:AB

            X509v3 Extended Key Usage: 
                TLS Web Server Authentication, TLS Web Client Authentication
            X509v3 Subject Alternative Name: 
                IP Address:127.0.0.1
    Signature Algorithm: sha256WithRSAEncryption
         b1:92:16:b1:ec:a2:8a:d2:43:e6:5e:f5:a9:91:7b:1e:82:33:
         7f:bd:ef:5d:6c:d5:75:29:02:e9:7b:dc:cf:00:05:9e:cd:2c:
         ff:d3:74:d0:1d:88:b6:c6:08:11:af:90:be:d6:96:e5:1a:35:
         18:1c:c7:ff:33:52:6e:07:65:2a:8d:8e:a4:66:d4:47:d5:74:
         79:9e:9f:59:10:53:23:11:40:be:9e:ae:67:c2:cb:bd:7d:f2:
         e6:f9:00:45:23:22:2b:48:82:1d:53:19:b6:7c:c9:3b:67:8a:
         70:23:c6:43:c0:20:74:38:01:9f:35:95:c9:3c:09:b8:61:d8:
         78:d2:44:0c:ea:fe:47:ff:b8:77:f6:ca:c0:ef:4f:5f:27:22:
         34:8e:d0:a7:cd:7a:70:e4:4d:d1:d8:1a:b7:a3:90:06:17:46:
         90:4f:0e:92:28:5e:64:d4:54:84:69:6f:b8:4a:e9:06:82:f3:
         58:67:80:80:45:f7:26:a8:80:3c:35:e3:cb:b5:c1:9c:46:64:
         a9:d5:b6:06:a3:30:81:d0:ea:45:75:da:36:1a:d6:c6:1c:38:
         a2:d9:e3:37:71:84:e9:47:ed:5e:f4:1b:a3:cc:a2:ba:19:30:
         f5:c7:18:31:b3:3e:86:3d:33:41:a9:2f:91:25:63:54:fe:3a:
         aa:b3:24:61
-----BEGIN CERTIFICATE-----
MIIDzjCCAragAwIBAgIQPiydvrBCyM/8mULVTUFqvjANBgkqhkiG9w0BAQsFADBj
MQswCQYDVQQGEwJVUzETMBEGA1UECAwKQ2FsaWZvcm5pYTEWMBQGA1UEBwwNTW91
bnRhaW4gVmlldzEQMA4GA1UECgwHVGVzdCBDQTEVMBMGA1UEAwwMVGVzdCBSb290
IENBMB4XDTE3MTIyMDAwMDAwMFoXDTIwMTIyMDAwMDAwMFowYDELMAkGA1UEBhMC
VVMxEzARBgNVBAgMCkNhbGlmb3JuaWExFjAUBgNVBAcMDU1vdW50YWluIFZpZXcx
EDAOBgNVBAoMB1Rlc3QgQ0ExEjAQBgNVBAMMCTEyNy4wLjAuMTCCASIwDQYJKoZI
hvcNAQEBBQADggEPADCCAQoCggEBANLr9Y9AngpayUIg0OxtG2sv5vxnDe+sTyOU
cCgtyjhH2cZ+bSCQ5omMy2ACXJQGJhIZNlnzutY+fjnaTOpp7yHezm3MxCnGtC7I
E2v1vbeTkgnN3hG3z/oEbbd0iMNg/zby31o67ueWfEPdnS3dh7HXTo6oMXJHqkYL
W7xUHu/E+/fRZjd1VrPnGVF8xA1rq/GuieGHnCbmIfVqc44jS4YbgMWjJ1Ic3TVo
0vw1LAzwb2f7tNWE6FZOPQmtufL894TZg3/JG/Q98/T4A+b+vRcJV8+Bse11CUAO
NnqWhR2hrkOGK8XuMGb/YAVe9Xanx+seZY/miLZCa3iGo8Z6vnMCAwEAAaOBgDB+
MAwGA1UdEwEB/wQCMAAwHQYDVR0OBBYEFK9ecxvscYJPpkSyESdXrpERoFAcMB8G
A1UdIwQYMBaAFJsmC4qYqbsduR8c4xpAM+2OF4irMB0GA1UdJQQWMBQGCCsGAQUF
BwMBBggrBgEFBQcDAjAPBgNVHREECDAGhwR/AAABMA0GCSqGSIb3DQEBCwUAA4IB
AQCxkhax7KKK0kPmXvWpkXsegjN/ve9dbNV1KQLpe9zPAAWezSz/03TQHYi2xggR
r5C+1pblGjUYHMf/M1JuB2UqjY6kZtRH1XR5np9ZEFMjEUC+nq5nwsu9ffLm+QBF
IyIrSIIdUxm2fMk7Z4pwI8ZDwCB0OAGfNZXJPAm4Ydh40kQM6v5H/7h39srA709f
JyI0jtCnzXpw5E3R2Bq3o5AGF0aQTw6SKF5k1FSEaW+4SukGgvNYZ4CARfcmqIA8
NePLtcGcRmSp1bYGozCB0OpFddo2GtbGHDii2eM3cYTpR+1e9BujzKK6GTD1xxgx
sz6GPTNBqS+RJWNU/jqqsyRh
-----END CERTIFICATE-----
