Certificate:
    Data:
        Version: 3 (0x2)
        Serial Number:
            b0:6b:93:92:e3:5c:8d:7e:ed:9d:c8:96:59:c5:c2:84
        Signature Algorithm: sha256WithRSAEncryption
        Issuer: C=US, ST=California, L=Mountain View, O=Test CA, CN=Test Root CA
        Validity
            Not Before: Dec 20 00:00:00 2017 GMT
            Not After : Dec 20 00:00:00 2020 GMT
        Subject: C=US, ST=California, L=Mountain View, O=Test CA, CN=127.0.0.1
        Subject Public Key Info:
            Public Key Algorithm: rsaEncryption
                Public-Key: (2048 bit)
                Modulus:
                    00:bb:d6:9f:20:ad:98:2d:32:9a:c8:58:d2:8f:c0:
                    e0:b0:1b:ff:5f:f9:20:93:f3:83:39:a6:5f:bd:cc:
                    3f:84:de:cc:66:92:aa:ae:c3:6d:9e:c5:88:54:ca:
                    a5:3f:7f:4c:42:bc:42:fe:93:f5:d2:96:e3:d7:fa:
                    5d:d5:bd:eb:4f:ec:a5:c2:86:95:86:de:08:c2:a9:
                    df:f8:ca:89:df:be:43:33:e6:4f:94:9e:a1:f2:57:
                    85:f2:e5:58:bc:40:24:8e:86:4b:4a:c9:37:65:ee:
                    b9:7b:2d:a0:7a:89:03:62:de:b6:93:52:63:3a:16:
                    b2:81:17:3e:40:a9:1d:88:86:25:33:75:fa:75:c3:
                    1b:d0:19:34:7f:20:ac:a3:cb:3b:30:14:d3:2a:f9:
                    78:fa:33:f2:1d:4f:57:7b:c7:d6:67:f1:38:ff:97:
                    a1:7d:6a:42:25:15:b2:5b:d0:46:6f:6d:b7:86:e0:
                    2f:70:dc:0c:f9:bd:75:08:2f:a3:28:3f:ee:4e:3b:
                    c8:00:92:96:e2:92:5b:91:56:ba:5a:11:be:f9:4f:
                    30:64:e2:ab:52:26:b1:68:1e:34:d9:bb:6b:18:50:
                    8a:b8:d4:1f:ee:2d:9f:55:ec:b0:88:93:db:3b:5a:
                    f6:f9:38:17:fe:59:dc:66:87:ef:2d:97:8d:db:7a:
                    0f:bb
                Exponent: 65537 (0x10001)
        X509v3 extensions:
            X509v3 Basic Constraints: critical
                CA:FALSE
            X509v3 Subject Key Identifier: 
                4F:93:BD:50:76:80:83:8F:B4:15:05:76:1D:40:1D:55:A4:4C:2C:53
            X509v3 Authority Key Identifier: 
                9B:26:0B:8A:98:A9:BB:1D:B9:1F:1C:E3:1A:40:33:ED:8E:17:88:AB
            X509v3 Extended Key Usage: 
                TLS Web Server Authentication, TLS Web Client Authentication
            X509v3 Subject Alternative Name: 
                IP Address:127.0.0.1
    Signature Algorithm: sha256WithRSAEncryption
    Signature Value:
        4a:73:ad:73:ac:c9:a6:45:53:69:ea:d9:6b:30:9c:36:9a:6d:
        ad:b4:ab:44:fe:8a:43:ad:df:df:95:28:8e:f3:73:f3:0c:4a:
        8c:d7:a0:48:3e:ed:d5:eb:79:74:60:cf:4b:2d:57:e8:f5:f3:
        f0:8c:e1:45:8b:05:cf:2d:18:97:4d:ea:22:3c:a1:4b:01:89:
        a3:d9:4f:c5:6d:86:0a:83:d3:4e:c2:d4:b7:0e:47:98:fa:81:
        13:fe:a9:5f:a5:79:73:34:4f:28:29:c6:a9:81:25:6d:db:18:
        d8:f6:44:39:11:83:a9:d3:11:b5:b3:8d:85:b7:0b:a5:88:9a:
        3f:21:41:df:93:b8:73:b2:49:f1:c3:bd:94:57:df:bc:08:3d:
        a2:e9:20:ed:13:ee:1f:62:f7:84:e5:0e:7f:79:2f:a0:d6:72:
        79:83:1c:5f:d4:6a:5d:c8:eb:a2:7b:b1:c2:6d:e2:cc:b2:fd:
        90:d0:5c:c1:e8:74:dc:20:e6:55:f7:6c:72:dc:05:a0:83:17:
        96:f9:85:c2:71:55:4c:4c:71:91:7d:a8:90:dd:88:eb:78:03:
        39:4e:24:e4:d4:66:ba:e4:50:5c:4d:f3:0b:aa:3a:1b:b3:e8:
        53:be:b5:10:76:ae:a2:e4:a0:d5:30:62:5b:9d:2c:1e:1e:2d:
        7c:2b:1d:d6
-----BEGIN CERTIFICATE-----
MIIDzzCCAregAwIBAgIRALBrk5LjXI1+7Z3IllnFwoQwDQYJKoZIhvcNAQELBQAw
YzELMAkGA1UEBhMCVVMxEzARBgNVBAgMCkNhbGlmb3JuaWExFjAUBgNVBAcMDU1v
dW50YWluIFZpZXcxEDAOBgNVBAoMB1Rlc3QgQ0ExFTATBgNVBAMMDFRlc3QgUm9v
dCBDQTAeFw0xNzEyMjAwMDAwMDBaFw0yMDEyMjAwMDAwMDBaMGAxCzAJBgNVBAYT
AlVTMRMwEQYDVQQIDApDYWxpZm9ybmlhMRYwFAYDVQQHDA1Nb3VudGFpbiBWaWV3
MRAwDgYDVQQKDAdUZXN0IENBMRIwEAYDVQQDDAkxMjcuMC4wLjEwggEiMA0GCSqG
SIb3DQEBAQUAA4IBDwAwggEKAoIBAQC71p8grZgtMprIWNKPwOCwG/9f+SCT84M5
pl+9zD+E3sxmkqquw22exYhUyqU/f0xCvEL+k/XSluPX+l3VvetP7KXChpWG3gjC
qd/4yonfvkMz5k+UnqHyV4Xy5Vi8QCSOhktKyTdl7rl7LaB6iQNi3raTUmM6FrKB
Fz5AqR2IhiUzdfp1wxvQGTR/IKyjyzswFNMq+Xj6M/IdT1d7x9Zn8Tj/l6F9akIl
FbJb0EZvbbeG4C9w3Az5vXUIL6MoP+5OO8gAkpbikluRVrpaEb75TzBk4qtSJrFo
HjTZu2sYUIq41B/uLZ9V7LCIk9s7Wvb5OBf+Wdxmh+8tl43beg+7AgMBAAGjgYAw
fjAMBgNVHRMBAf8EAjAAMB0GA1UdDgQWBBRPk71QdoCDj7QVBXYdQB1VpEwsUzAf
BgNVHSMEGDAWgBSbJguKmKm7HbkfHOMaQDPtjheIqzAdBgNVHSUEFjAUBggrBgEF
BQcDAQYIKwYBBQUHAwIwDwYDVR0RBAgwBocEfwAAATANBgkqhkiG9w0BAQsFAAOC
AQEASnOtc6zJpkVTaerZazCcNpptrbSrRP6KQ63f35UojvNz8wxKjNegSD7t1et5
dGDPSy1X6PXz8IzhRYsFzy0Yl03qIjyhSwGJo9lPxW2GCoPTTsLUtw5HmPqBE/6p
X6V5czRPKCnGqYElbdsY2PZEORGDqdMRtbONhbcLpYiaPyFB35O4c7JJ8cO9lFff
vAg9oukg7RPuH2L3hOUOf3kvoNZyeYMcX9RqXcjronuxwm3izLL9kNBcweh03CDm
VfdsctwFoIMXlvmFwnFVTExxkX2okN2I63gDOU4k5NRmuuRQXE3zC6o6G7PoU761
EHauouSg1TBiW50sHh4tfCsd1g==
-----END CERTIFICATE-----
