Certificate:
    Data:
        Version: 3 (0x2)
        Serial Number:
            12:f6:d9:f1:80:1b:50:9f:64:09:c8:ea:2f:16:33:c0
        Signature Algorithm: sha256WithRSAEncryption
        Issuer: C=US, ST=California, L=Mountain View, O=Test CA, CN=Test Root CA
        Validity
            Not Before: Dec 20 00:00:00 2017 GMT
            Not After : Dec 20 00:00:00 2020 GMT
        Subject: C=US, ST=California, L=Mountain View, O=Test CA, CN=127.0.0.1
        Subject Public Key Info:
            Public Key Algorithm: rsaEncryption
                RSA Public-Key: (2048 bit)
                Modulus:
                    00:dd:52:02:31:4d:6a:0c:aa:08:74:8c:ca:b1:83:
                    73:07:d0:c0:52:2f:40:b7:e6:c4:6e:36:01:19:17:
                    a9:9b:67:75:17:fb:3b:4e:7d:40:71:f2:0f:8a:cb:
                    a5:ca:eb:73:45:62:33:b2:b7:e2:10:e9:2a:3d:20:
                    eb:bd:3a:35:0c:a3:43:e3:2e:b3:6d:15:48:a6:ab:
                    de:eb:8b:97:f2:fd:55:eb:ef:d6:66:22:b4:6f:7a:
                    f4:7f:1b:47:f9:b7:d9:54:69:de:e2:48:18:95:5a:
                    19:b5:49:f2:f0:01:5d:72:dd:28:c6:53:fb:b6:01:
                    e6:94:21:5f:c0:c6:e3:94:2b:77:bd:b3:43:b8:23:
                    d3:7e:17:95:14:e0:ea:f2:a4:90:a5:7a:d5:a7:3a:
                    f0:0d:01:05:bc:2d:e8:1a:5c:63:74:16:39:ea:96:
                    6c:bb:1a:72:ad:c3:12:f9:2d:12:d3:34:91:fb:50:
                    db:74:bd:f8:e4:18:62:15:41:c9:3b:73:31:1b:70:
                    6c:3a:0e:d0:9e:d3:60:13:d9:59:04:24:09:b9:fc:
                    38:d4:6a:ad:99:28:2f:2b:bf:2a:d3:6c:23:c9:74:
                    d1:21:95:61:6f:2e:66:dd:b7:a0:b7:9a:7b:94:60:
                    2a:fd:35:c2:f5:f6:bb:71:ca:09:5e:ed:fe:54:61:
                    1f:d7
                Exponent: 65537 (0x10001)
        X509v3 extensions:
            X509v3 Basic Constraints: critical
                CA:FALSE
            X509v3 Subject Key Identifier: 
                E2:A4:9A:6D:56:D2:38:7D:3F:74:52:15:D5:EC:C3:18:E4:EA:B1:7A
            X509v3 Authority Key Identifier: 
                keyid:9B:26:0B:8A:98:A9:BB:1D:B9:1F:1C:E3:1A:40:33:ED:8E:17:88:AB

            X509v3 Extended Key Usage: 
                TLS Web Server Authentication, TLS Web Client Authentication
            X509v3 Subject Alternative Name: 
                IP Address:127.0.0.1
    Signature Algorithm: sha256WithRSAEncryption
         96:54:7e:70:93:50:ce:d6:29:4f:1b:4b:20:81:a8:3e:a6:33:
         22:f1:a5:df:8d:ec:7d:3b:e0:70:07:a7:ac:89:bd:c0:18:2c:
         23:cb:77:af:ef:62:34:4d:c8:7f:ce:12:a9:cd:3b:18:90:32:
         76:bc:2c:21:8b:84:4d:85:1b:33:83:ac:70:84:d6:7d:94:f6:
         48:2f:b0:90:31:a3:0e:06:05:a9:8c:5d:d3:ee:6f:45:44:57:
         33:75:4c:53:da:2c:76:bd:68:97:f2:71:e1:b4:fd:fc:90:b6:
         c2:93:3f:c6:0b:8e:25:a3:2f:6f:32:cb:93:72:2e:b9:90:74:
         b2:53:30:76:94:61:e1:9c:32:c4:5e:c8:ec:38:ce:29:9f:8d:
         86:2e:75:18:f5:e6:f6:7d:8f:76:94:dc:bd:59:85:b2:3d:ea:
         f8:d5:6c:0a:96:2c:ef:e3:79:ff:39:34:25:d4:4f:7c:53:34:
         8e:3a:4a:da:24:cc:53:66:58:9f:47:6e:13:e7:15:43:2a:66:
         d3:50:ca:77:5a:01:5c:44:a8:ed:29:e6:0d:0a:33:4b:e6:58:
         9f:ec:1a:51:51:96:58:c4:13:78:e5:d0:34:da:e6:f8:3a:97:
         45:a7:61:89:47:e7:2f:0a:39:c9:7a:fa:f6:63:12:3f:ac:dc:
         b6:1c:bd:81
-----BEGIN CERTIFICATE-----
MIIDzjCCAragAwIBAgIQEvbZ8YAbUJ9kCcjqLxYzwDANBgkqhkiG9w0BAQsFADBj
MQswCQYDVQQGEwJVUzETMBEGA1UECAwKQ2FsaWZvcm5pYTEWMBQGA1UEBwwNTW91
bnRhaW4gVmlldzEQMA4GA1UECgwHVGVzdCBDQTEVMBMGA1UEAwwMVGVzdCBSb290
IENBMB4XDTE3MTIyMDAwMDAwMFoXDTIwMTIyMDAwMDAwMFowYDELMAkGA1UEBhMC
VVMxEzARBgNVBAgMCkNhbGlmb3JuaWExFjAUBgNVBAcMDU1vdW50YWluIFZpZXcx
EDAOBgNVBAoMB1Rlc3QgQ0ExEjAQBgNVBAMMCTEyNy4wLjAuMTCCASIwDQYJKoZI
hvcNAQEBBQADggEPADCCAQoCggEBAN1SAjFNagyqCHSMyrGDcwfQwFIvQLfmxG42
ARkXqZtndRf7O059QHHyD4rLpcrrc0ViM7K34hDpKj0g6706NQyjQ+Mus20VSKar
3uuLl/L9Vevv1mYitG969H8bR/m32VRp3uJIGJVaGbVJ8vABXXLdKMZT+7YB5pQh
X8DG45Qrd72zQ7gj034XlRTg6vKkkKV61ac68A0BBbwt6BpcY3QWOeqWbLsacq3D
EvktEtM0kftQ23S9+OQYYhVByTtzMRtwbDoO0J7TYBPZWQQkCbn8ONRqrZkoLyu/
KtNsI8l00SGVYW8uZt23oLeae5RgKv01wvX2u3HKCV7t/lRhH9cCAwEAAaOBgDB+
MAwGA1UdEwEB/wQCMAAwHQYDVR0OBBYEFOKkmm1W0jh9P3RSFdXswxjk6rF6MB8G
A1UdIwQYMBaAFJsmC4qYqbsduR8c4xpAM+2OF4irMB0GA1UdJQQWMBQGCCsGAQUF
BwMBBggrBgEFBQcDAjAPBgNVHREECDAGhwR/AAABMA0GCSqGSIb3DQEBCwUAA4IB
AQCWVH5wk1DO1ilPG0sggag+pjMi8aXfjex9O+BwB6esib3AGCwjy3ev72I0Tch/
zhKpzTsYkDJ2vCwhi4RNhRszg6xwhNZ9lPZIL7CQMaMOBgWpjF3T7m9FRFczdUxT
2ix2vWiX8nHhtP38kLbCkz/GC44loy9vMsuTci65kHSyUzB2lGHhnDLEXsjsOM4p
n42GLnUY9eb2fY92lNy9WYWyPer41WwKlizv43n/OTQl1E98UzSOOkraJMxTZlif
R24T5xVDKmbTUMp3WgFcRKjtKeYNCjNL5lif7BpRUZZYxBN45dA02ub4OpdFp2GJ
R+cvCjnJevr2YxI/rNy2HL2B
-----END CERTIFICATE-----
