Certificate:
    Data:
        Version: 3 (0x2)
        Serial Number:
            55:72:d4:d8:57:fc:9c:cf:51:b8:6c:e7:a7:d1:a6:f3:b3:f1:25:fa
        Signature Algorithm: sha256WithRSAEncryption
        Issuer: CN = 2048 RSA Test Root CA
        Validity
            Not Before: Feb 17 17:08:50 2023 GMT
            Not After : Feb 14 17:08:50 2033 GMT
        Subject: CN = 2048 RSA Test Root CA
        Subject Public Key Info:
            Public Key Algorithm: rsaEncryption
                Public-Key: (2048 bit)
                Modulus:
                    00:d0:bc:d5:52:0a:01:4c:04:65:37:00:73:17:af:
                    1a:53:d5:0a:b1:9c:c0:5b:20:ff:c0:b4:bd:f2:d4:
                    b2:1d:2c:a5:c3:d7:eb:68:b7:f7:ab:2d:b3:6c:00:
                    c2:7a:b0:f7:5e:b1:8b:29:92:79:08:37:f6:ec:46:
                    2d:66:29:7c:66:8c:d4:54:f0:35:4d:ad:1e:e6:ef:
                    4f:43:9d:96:2f:78:49:66:eb:ea:4f:b9:e9:eb:27:
                    33:6e:03:1f:3b:c1:e4:6d:bb:a9:68:62:1c:fd:78:
                    0d:57:f2:58:89:16:4f:8d:1d:2d:94:2a:ea:b8:1a:
                    1b:57:b8:ad:8f:67:44:23:04:7f:c9:1a:1c:4a:f3:
                    19:15:1a:39:a6:fc:c9:17:ae:5e:40:97:e2:b3:ec:
                    02:4c:1b:65:0e:99:6a:d4:fe:c7:04:56:14:0c:8e:
                    0f:ee:e8:fb:4e:63:c4:cf:4a:36:ac:f5:a6:f7:1d:
                    26:07:e9:33:a9:f3:31:ee:1d:27:fc:15:10:a5:83:
                    7e:59:26:6e:24:32:87:af:19:31:6c:99:24:05:d9:
                    55:71:03:b8:b3:b6:75:f8:ee:04:ff:04:7f:b0:b6:
                    57:ad:24:e3:a6:f9:46:2c:f7:b5:53:31:d6:49:c6:
                    c3:1e:7f:a4:f0:6d:47:32:c9:8a:ff:f3:b6:7b:fd:
                    d3:7f
                Exponent: 65537 (0x10001)
        X509v3 extensions:
            X509v3 Basic Constraints: critical
                CA:TRUE
            X509v3 Subject Key Identifier: 
                D5:28:55:87:C7:A3:BF:D7:C4:CE:BE:3D:01:D2:BE:8B:7C:E4:E2:E2
            X509v3 Key Usage: critical
                Certificate Sign, CRL Sign
    Signature Algorithm: sha256WithRSAEncryption
    Signature Value:
        17:28:d3:4e:0f:70:db:86:b8:08:e2:0d:92:d1:4c:f6:32:70:
        52:6b:3f:1f:96:a0:bd:a4:d4:f8:ed:b5:a4:9e:0a:ef:45:09:
        e4:1f:8a:af:50:2d:03:4e:1c:ed:46:71:3d:91:d6:a9:0f:8f:
        bb:4f:38:a4:3c:18:2f:ff:1f:07:9e:17:06:a6:9a:f9:4d:01:
        f6:79:c9:aa:fe:01:90:79:dd:d3:eb:6d:ea:0b:b9:6c:df:9c:
        1f:4f:31:25:70:71:58:9c:62:6a:5a:85:7d:8f:20:ae:97:d4:
        e0:69:8a:79:4d:48:34:fe:c0:99:98:c3:33:ce:f3:07:80:c2:
        4b:95:a3:2e:ba:cb:ee:d7:4d:a3:e1:88:9e:71:8b:64:47:83:
        02:02:72:b0:46:ca:4f:e3:b1:f4:2c:f1:65:58:09:7a:81:18:
        b7:35:55:50:6a:37:0a:0f:87:d3:d2:b2:2f:6f:93:e1:7d:e2:
        ca:50:1f:a9:a4:6d:bc:40:1a:6e:d4:55:5e:99:e0:9c:77:7c:
        b0:06:d3:7b:0b:cb:a2:9a:3a:9a:06:b6:59:3d:50:d5:d0:7b:
        e0:51:c4:88:38:24:ba:80:3c:f0:42:07:24:c3:5c:e2:b5:6e:
        bf:8b:37:b1:df:e9:7e:6e:33:d6:b2:af:d5:51:62:eb:b0:5a:
        52:54:52:a3
-----BEGIN CERTIFICATE-----
MIIDEDCCAfigAwIBAgIUVXLU2Ff8nM9RuGznp9Gm87PxJfowDQYJKoZIhvcNAQEL
BQAwIDEeMBwGA1UEAwwVMjA0OCBSU0EgVGVzdCBSb290IENBMB4XDTIzMDIxNzE3
MDg1MFoXDTMzMDIxNDE3MDg1MFowIDEeMBwGA1UEAwwVMjA0OCBSU0EgVGVzdCBS
b290IENBMIIBIjANBgkqhkiG9w0BAQEFAAOCAQ8AMIIBCgKCAQEA0LzVUgoBTARl
NwBzF68aU9UKsZzAWyD/wLS98tSyHSylw9fraLf3qy2zbADCerD3XrGLKZJ5CDf2
7EYtZil8ZozUVPA1Ta0e5u9PQ52WL3hJZuvqT7np6yczbgMfO8HkbbupaGIc/XgN
V/JYiRZPjR0tlCrquBobV7itj2dEIwR/yRocSvMZFRo5pvzJF65eQJfis+wCTBtl
Dplq1P7HBFYUDI4P7uj7TmPEz0o2rPWm9x0mB+kzqfMx7h0n/BUQpYN+WSZuJDKH
rxkxbJkkBdlVcQO4s7Z1+O4E/wR/sLZXrSTjpvlGLPe1UzHWScbDHn+k8G1HMsmK
//O2e/3TfwIDAQABo0IwQDAPBgNVHRMBAf8EBTADAQH/MB0GA1UdDgQWBBTVKFWH
x6O/18TOvj0B0r6LfOTi4jAOBgNVHQ8BAf8EBAMCAQYwDQYJKoZIhvcNAQELBQAD
ggEBABco004PcNuGuAjiDZLRTPYycFJrPx+WoL2k1PjttaSeCu9FCeQfiq9QLQNO
HO1GcT2R1qkPj7tPOKQ8GC//HweeFwammvlNAfZ5yar+AZB53dPrbeoLuWzfnB9P
MSVwcVicYmpahX2PIK6X1OBpinlNSDT+wJmYwzPO8weAwkuVoy66y+7XTaPhiJ5x
i2RHgwICcrBGyk/jsfQs8WVYCXqBGLc1VVBqNwoPh9PSsi9vk+F94spQH6mkbbxA
Gm7UVV6Z4Jx3fLAG03sLy6KaOpoGtlk9UNXQe+BRxIg4JLqAPPBCByTDXOK1br+L
N7Hf6X5uM9ayr9VRYuuwWlJUUqM=
-----END CERTIFICATE-----
