-----BEGIN PRIVATE KEY-----
MIIEvgIBADANBgkqhkiG9w0BAQEFAASCBKgwggSkAgEAAoIBAQCpJI9UWsABnech
TqhMGPLP31R/F223xH8PLUqA6XQ8f378UeaINs/u0FikH7xUZRNxeFwV8LkOisMF
HLQly/olh8glx1P7UtTPhbryyrFnpY0uk3P5lqjkiQ68HzC1vEEiPTKZFvC+DnPt
/DcxGgh9xTzg2GLg03FPZefCfFCvIQVOs/M5LfQ+fkVHfO65u5/YDPAvkCOM1Qx3
jLvtJEYqX6b9HbMAQ1rg3OhkhodJvpn8puADAE7TUSI5ixLQfEi5j8F5tB9Z0LJ9
jjO8Tt99EmV9Au/edb/su7dripIpH5Z2BmhBu7u4u2E4IZnQBVHk80dXUgzf3ihd
HcDLEywRAgMBAAECggEAAIaywodHsTP+0R+8uHs/b9IMXLRmWVa4Cnvocml01lko
gKHDPcOG/LB1sJkdF4dvLnh2QE5FfICZQwSOIOR0gMzTnro7f751zLDhvK+XExCa
q9mKkbJohYSTx9x+Bxg7+tHTH+yZhAMbOQIdPH0ppbU2a7CfbwVaTJAzuGKofZRf
NkkWh7icUXVacM3bgsyTl2DFPXLvtdVa9QohbJJfoP3aHjoSLTyzv+oIXZ2N8ZzU
5Ur2rhyF01BHD9htuzX6qoAkkylGjmDc1+Cz9orko+cBDIWW2LHrnoP+rTa0z3Zj
WqHT1ucJWha1CF6qboykKU66M0KuZyFZ3pVgnlPkgQKBgQC8kB0ZlzyloXmOag2A
y8sJFfrtArdKw7tQ91PrwBmtX3monv9QQyQbOsIyaPQD25sv4kpBw0nKYsxc9xlp
CbL4UexcW7zos1G3tFigsFSoL9oDwyek7tr6xcKhWqxAH7Y/er5MWNx2baLmLXFu
yX9EfHO3s0HmQFMrPnh22mFckQKBgQDlom924FCzfW0ly+esxNDWRQ0I9AELLUvI
o8oLJMhrubQisb2r8ODLVx9LFAHHCIVBFZAUAdBeq7CGl6D21PpzivA3i7k2Z5qS
kz1scJERWUAqW+tPr37q7KjeDRS5g5kRI6+dNsrJbdM/yT38jmBzokj1vTXyQbIS
mIfZyMqXgQKBgQCELyqXI/P50EacVS/+F97PEb+DoqHHIYsQaTFFVLcrWIC6eitU
opyPEhPMrtJQWgRh/uo7S6FQ5Q2KJhaEEa6KcTOWUyEMp5gjhaOTkcjm1hSpCoei
EWck4Lldz2hs0045FdyNPMXfp1/IqBaaqVo0MmIUZu9Nb85dxD9CYjhaYQKBgQDH
EQqJximPf+LXyiz7c98KcO+83DHva4Pv2jUzdd6crG7BSM4BOR7Wh58kKaLk1LkX
08aD4ZKuDy5Hbzjl4XmAImjd7i1QQX4ZJLUxxV+s528diXOzL5LZuvElFbfqnm9a
EVKS+kXPWnqwKBepUg/BDmUrSqxyZ4skXcAfBtbBgQKBgD/iz6SZR68utKHU96C7
Kc537j/L0yX8/PxDrJm9pfBkg2q28OVuNWgkFfZPlCA6kxuuRn4Ivq1iQ7bFyGCP
htE+UkG3mt/WutGinndW15eN/qgqTYNDdikNgF8d1pjyp+cTMXNnzty6gOhD2+gu
wOQDHxBd2UADDfEevewip/i3
-----END PRIVATE KEY-----
Certificate:
    Data:
        Version: 3 (0x2)
        Serial Number:
            b0:6b:93:92:e3:5c:8d:7e:ed:9d:c8:96:59:c5:c2:6d
        Signature Algorithm: sha256WithRSAEncryption
        Issuer: C=US, ST=California, L=Mountain View, O=Test CA, CN=Test Root CA
        Validity
            Not Before: Oct  3 17:20:08 2022 GMT
            Not After : Oct  2 17:20:08 2024 GMT
        Subject: C=US, ST=California, L=Mountain View, O=Test CA, CN=127.0.0.1
        Subject Public Key Info:
            Public Key Algorithm: rsaEncryption
                Public-Key: (2048 bit)
                Modulus:
                    00:a9:24:8f:54:5a:c0:01:9d:e7:21:4e:a8:4c:18:
                    f2:cf:df:54:7f:17:6d:b7:c4:7f:0f:2d:4a:80:e9:
                    74:3c:7f:7e:fc:51:e6:88:36:cf:ee:d0:58:a4:1f:
                    bc:54:65:13:71:78:5c:15:f0:b9:0e:8a:c3:05:1c:
                    b4:25:cb:fa:25:87:c8:25:c7:53:fb:52:d4:cf:85:
                    ba:f2:ca:b1:67:a5:8d:2e:93:73:f9:96:a8:e4:89:
                    0e:bc:1f:30:b5:bc:41:22:3d:32:99:16:f0:be:0e:
                    73:ed:fc:37:31:1a:08:7d:c5:3c:e0:d8:62:e0:d3:
                    71:4f:65:e7:c2:7c:50:af:21:05:4e:b3:f3:39:2d:
                    f4:3e:7e:45:47:7c:ee:b9:bb:9f:d8:0c:f0:2f:90:
                    23:8c:d5:0c:77:8c:bb:ed:24:46:2a:5f:a6:fd:1d:
                    b3:00:43:5a:e0:dc:e8:64:86:87:49:be:99:fc:a6:
                    e0:03:00:4e:d3:51:22:39:8b:12:d0:7c:48:b9:8f:
                    c1:79:b4:1f:59:d0:b2:7d:8e:33:bc:4e:df:7d:12:
                    65:7d:02:ef:de:75:bf:ec:bb:b7:6b:8a:92:29:1f:
                    96:76:06:68:41:bb:bb:b8:bb:61:38:21:99:d0:05:
                    51:e4:f3:47:57:52:0c:df:de:28:5d:1d:c0:cb:13:
                    2c:11
                Exponent: 65537 (0x10001)
        X509v3 extensions:
            X509v3 Basic Constraints: critical
                CA:FALSE
            X509v3 Extended Key Usage: 
                TLS Web Server Authentication, TLS Web Client Authentication
            X509v3 Certificate Policies: 
                Policy: 2.23.140.1.1
                Policy: 1.2.3.4
            X509v3 Subject Alternative Name: 
                IP Address:127.0.0.1
            X509v3 Subject Key Identifier: 
                D7:E7:4F:D5:FC:2E:24:41:D3:A0:19:93:B9:63:E2:10:BD:81:6D:3E
            X509v3 Authority Key Identifier: 
                9B:26:0B:8A:98:A9:BB:1D:B9:1F:1C:E3:1A:40:33:ED:8E:17:88:AB
    Signature Algorithm: sha256WithRSAEncryption
    Signature Value:
        45:11:39:48:78:34:98:02:da:a7:d2:6f:64:38:0d:0d:1d:80:
        33:73:a2:33:28:c5:bc:fc:09:34:be:ba:32:7a:40:fa:26:20:
        72:12:ea:99:2b:94:a3:01:e4:19:86:14:29:0d:0a:9e:74:56:
        68:70:1a:f9:93:c1:80:43:68:1a:34:fe:4d:08:54:45:b9:8c:
        ea:1a:83:61:78:af:98:56:b7:22:bd:1b:24:9e:ef:d8:bb:83:
        cc:48:b0:74:22:7c:88:ab:ae:d0:cd:40:a0:2e:97:2e:b1:1e:
        c1:f1:24:a5:c7:1f:c8:ee:81:94:db:4e:2f:69:fe:8f:89:6a:
        de:a8:3e:2b:83:c7:a4:64:a4:a8:68:b7:02:d7:58:9d:86:63:
        b5:fa:51:bf:e5:9a:cc:5e:f6:03:a3:55:0c:ea:a0:bf:59:76:
        01:31:44:20:90:44:f8:0b:53:a2:71:df:86:a7:62:47:a8:0a:
        96:40:a1:b1:38:5e:0b:09:6b:ed:a9:94:e0:f0:e6:4b:a7:bf:
        a8:fc:6e:1d:d4:45:d4:43:68:7d:06:58:f0:0a:2b:f9:ba:5b:
        c9:e3:6f:3b:d5:07:78:97:50:66:f7:0e:6d:4a:4d:05:3b:4f:
        e5:ba:1e:87:6f:c4:25:d5:36:ed:17:8c:1b:76:86:97:5e:68:
        f1:5e:58:84
-----BEGIN CERTIFICATE-----
MIID6zCCAtOgAwIBAgIRALBrk5LjXI1+7Z3IllnFwm0wDQYJKoZIhvcNAQELBQAw
YzELMAkGA1UEBhMCVVMxEzARBgNVBAgMCkNhbGlmb3JuaWExFjAUBgNVBAcMDU1v
dW50YWluIFZpZXcxEDAOBgNVBAoMB1Rlc3QgQ0ExFTATBgNVBAMMDFRlc3QgUm9v
dCBDQTAeFw0yMjEwMDMxNzIwMDhaFw0yNDEwMDIxNzIwMDhaMGAxCzAJBgNVBAYT
AlVTMRMwEQYDVQQIDApDYWxpZm9ybmlhMRYwFAYDVQQHDA1Nb3VudGFpbiBWaWV3
MRAwDgYDVQQKDAdUZXN0IENBMRIwEAYDVQQDDAkxMjcuMC4wLjEwggEiMA0GCSqG
SIb3DQEBAQUAA4IBDwAwggEKAoIBAQCpJI9UWsABnechTqhMGPLP31R/F223xH8P
LUqA6XQ8f378UeaINs/u0FikH7xUZRNxeFwV8LkOisMFHLQly/olh8glx1P7UtTP
hbryyrFnpY0uk3P5lqjkiQ68HzC1vEEiPTKZFvC+DnPt/DcxGgh9xTzg2GLg03FP
ZefCfFCvIQVOs/M5LfQ+fkVHfO65u5/YDPAvkCOM1Qx3jLvtJEYqX6b9HbMAQ1rg
3OhkhodJvpn8puADAE7TUSI5ixLQfEi5j8F5tB9Z0LJ9jjO8Tt99EmV9Au/edb/s
u7dripIpH5Z2BmhBu7u4u2E4IZnQBVHk80dXUgzf3ihdHcDLEywRAgMBAAGjgZww
gZkwDAYDVR0TAQH/BAIwADAdBgNVHSUEFjAUBggrBgEFBQcDAQYIKwYBBQUHAwIw
GQYDVR0gBBIwEDAHBgVngQwBATAFBgMqAwQwDwYDVR0RBAgwBocEfwAAATAdBgNV
HQ4EFgQU1+dP1fwuJEHToBmTuWPiEL2BbT4wHwYDVR0jBBgwFoAUmyYLipipux25
HxzjGkAz7Y4XiKswDQYJKoZIhvcNAQELBQADggEBAEUROUh4NJgC2qfSb2Q4DQ0d
gDNzojMoxbz8CTS+ujJ6QPomIHIS6pkrlKMB5BmGFCkNCp50VmhwGvmTwYBDaBo0
/k0IVEW5jOoag2F4r5hWtyK9GySe79i7g8xIsHQifIirrtDNQKAuly6xHsHxJKXH
H8jugZTbTi9p/o+Jat6oPiuDx6RkpKhotwLXWJ2GY7X6Ub/lmsxe9gOjVQzqoL9Z
dgExRCCQRPgLU6Jx34anYkeoCpZAobE4XgsJa+2plODw5kunv6j8bh3URdRDaH0G
WPAKK/m6W8njbzvVB3iXUGb3Dm1KTQU7T+W6HodvxCXVNu0XjBt2hpdeaPFeWIQ=
-----END CERTIFICATE-----
