Certificate:
    Data:
        Version: 3 (0x2)
        Serial Number:
            a3:52:01:bf:1d:77:e1:98:22:29:4b:c0:f7:a0:c9:08
        Signature Algorithm: sha256WithRSAEncryption
        Issuer: C=US, ST=California, L=Mountain View, O=Test CA, CN=Test Root CA
        Validity
            Not Before: Sep  2 01:22:07 2020 GMT
            Not After : Sep  2 01:22:07 2022 GMT
        Subject: C=US, ST=California, L=Mountain View, O=Test CA, CN=127.0.0.1
        Subject Public Key Info:
            Public Key Algorithm: rsaEncryption
                RSA Public-Key: (2048 bit)
                Modulus:
                    00:c0:d3:f7:5e:b3:61:c1:61:cc:e7:53:d9:f9:93:
                    05:32:55:00:00:26:9d:09:2f:65:0b:2d:6f:04:1d:
                    90:9b:dc:19:e0:fd:d0:af:4f:7c:28:a6:89:60:a5:
                    65:f9:3a:c5:67:b0:37:0b:d0:7b:da:ab:c7:27:be:
                    2e:54:a5:89:a7:88:4a:67:02:62:72:c2:1a:a1:ab:
                    f2:b0:5a:19:40:f9:67:65:3f:12:1b:42:11:bc:3a:
                    82:fb:87:88:97:23:c9:ec:31:14:17:ae:4e:55:ed:
                    f0:e3:94:a1:0e:e3:e7:e0:c0:04:6a:40:bd:c0:46:
                    06:c2:6c:d3:7f:eb:60:33:0e:68:2c:06:60:5a:43:
                    b0:ff:e0:5e:5a:f3:6f:85:71:a5:56:c0:a6:88:f9:
                    1b:59:fd:c0:39:80:6a:63:30:29:ed:91:32:a2:cb:
                    c2:39:a5:dd:a1:3f:0c:31:b4:d4:86:40:47:12:19:
                    b8:d2:3c:10:55:e4:04:54:9c:42:27:ca:06:bb:6a:
                    9f:e8:3e:8f:49:51:35:b6:d4:b6:f8:01:85:8e:d4:
                    92:b1:aa:c0:93:bd:5a:98:39:c6:74:5f:e1:60:a4:
                    a3:d2:00:91:97:60:48:5e:94:42:2d:24:22:c1:ed:
                    1e:7b:b2:39:dd:f1:b8:70:7b:62:1d:d5:49:05:ec:
                    09:b9
                Exponent: 65537 (0x10001)
        X509v3 extensions:
            X509v3 Basic Constraints: critical
                CA:FALSE
            X509v3 Extended Key Usage: 
                TLS Web Server Authentication, TLS Web Client Authentication
            X509v3 Certificate Policies: 
                Policy: 2.23.140.1.1
                Policy: 1.2.3.4

            X509v3 Subject Alternative Name: 
                IP Address:127.0.0.1
    Signature Algorithm: sha256WithRSAEncryption
         ba:ea:30:19:12:cf:a3:cb:c6:4b:9c:8a:5e:0b:2d:4e:2d:ea:
         7a:08:28:9c:da:a4:39:67:01:d1:16:7a:1f:70:40:cf:b8:18:
         de:ec:7d:8a:dc:a4:7a:e7:55:e3:47:fc:d4:f4:e9:aa:b0:15:
         77:04:12:13:fc:69:29:76:f0:ad:9e:ee:07:24:fa:bb:8a:01:
         66:a5:6c:be:00:78:75:29:bd:dc:4a:66:be:37:5a:d9:7f:29:
         90:05:48:52:38:a9:ba:76:52:41:0e:59:09:6d:54:43:16:ac:
         1d:3a:5c:a7:89:62:53:18:96:11:d8:7a:d2:a7:d9:c4:14:39:
         65:72:58:40:45:10:93:70:94:8c:74:fe:53:29:3c:1e:0e:f4:
         2b:90:4d:00:21:9c:f4:f1:2d:1a:d8:28:67:5d:ce:0d:74:7c:
         08:3a:ce:6e:c8:fd:54:04:7c:86:e5:8e:57:77:67:72:f1:d2:
         c7:8e:53:68:d0:58:7d:23:0a:f1:c1:28:90:dd:a9:9a:79:a5:
         35:6a:54:a5:5c:d9:35:d2:93:25:58:d9:e2:70:7d:e8:9c:13:
         27:f5:b3:e6:26:cf:6d:09:bc:f8:4d:de:01:4e:5c:7a:f3:47:
         47:74:17:7e:72:bd:42:ba:ba:19:28:a2:99:d5:b8:b3:bf:51:
         38:84:e6:cc
-----BEGIN CERTIFICATE-----
MIIDqTCCApGgAwIBAgIRAKNSAb8dd+GYIilLwPegyQgwDQYJKoZIhvcNAQELBQAw
YzELMAkGA1UEBhMCVVMxEzARBgNVBAgMCkNhbGlmb3JuaWExFjAUBgNVBAcMDU1v
dW50YWluIFZpZXcxEDAOBgNVBAoMB1Rlc3QgQ0ExFTATBgNVBAMMDFRlc3QgUm9v
dCBDQTAeFw0yMDA5MDIwMTIyMDdaFw0yMjA5MDIwMTIyMDdaMGAxCzAJBgNVBAYT
AlVTMRMwEQYDVQQIDApDYWxpZm9ybmlhMRYwFAYDVQQHDA1Nb3VudGFpbiBWaWV3
MRAwDgYDVQQKDAdUZXN0IENBMRIwEAYDVQQDDAkxMjcuMC4wLjEwggEiMA0GCSqG
SIb3DQEBAQUAA4IBDwAwggEKAoIBAQDA0/des2HBYcznU9n5kwUyVQAAJp0JL2UL
LW8EHZCb3Bng/dCvT3wopolgpWX5OsVnsDcL0Hvaq8cnvi5UpYmniEpnAmJywhqh
q/KwWhlA+WdlPxIbQhG8OoL7h4iXI8nsMRQXrk5V7fDjlKEO4+fgwARqQL3ARgbC
bNN/62AzDmgsBmBaQ7D/4F5a82+FcaVWwKaI+RtZ/cA5gGpjMCntkTKiy8I5pd2h
PwwxtNSGQEcSGbjSPBBV5ARUnEInyga7ap/oPo9JUTW21Lb4AYWO1JKxqsCTvVqY
OcZ0X+FgpKPSAJGXYEhelEItJCLB7R57sjnd8bhwe2Id1UkF7Am5AgMBAAGjWzBZ
MAwGA1UdEwEB/wQCMAAwHQYDVR0lBBYwFAYIKwYBBQUHAwEGCCsGAQUFBwMCMBkG
A1UdIAQSMBAwBwYFZ4EMAQEwBQYDKgMEMA8GA1UdEQQIMAaHBH8AAAEwDQYJKoZI
hvcNAQELBQADggEBALrqMBkSz6PLxkucil4LLU4t6noIKJzapDlnAdEWeh9wQM+4
GN7sfYrcpHrnVeNH/NT06aqwFXcEEhP8aSl28K2e7gck+ruKAWalbL4AeHUpvdxK
Zr43Wtl/KZAFSFI4qbp2UkEOWQltVEMWrB06XKeJYlMYlhHYetKn2cQUOWVyWEBF
EJNwlIx0/lMpPB4O9CuQTQAhnPTxLRrYKGddzg10fAg6zm7I/VQEfIbljld3Z3Lx
0seOU2jQWH0jCvHBKJDdqZp5pTVqVKVc2TXSkyVY2eJwfeicEyf1s+Ymz20JvPhN
3gFOXHrzR0d0F35yvUK6uhkoopnVuLO/UTiE5sw=
-----END CERTIFICATE-----
