Certificate:
    Data:
        Version: 3 (0x2)
        Serial Number:
            12:f6:d9:f1:80:1b:50:9f:64:09:c8:ea:2f:16:33:a9
        Signature Algorithm: sha256WithRSAEncryption
        Issuer: C=US, ST=California, L=Mountain View, O=Test CA, CN=Test Root CA
        Validity
            Not Before: Dec  1 15:42:07 2021 GMT
            Not After : Dec  1 15:42:07 2023 GMT
        Subject: C=US, ST=California, L=Mountain View, O=Test CA, CN=127.0.0.1
        Subject Public Key Info:
            Public Key Algorithm: rsaEncryption
                RSA Public-Key: (2048 bit)
                Modulus:
                    00:e8:17:44:02:59:26:ba:6c:74:3f:7f:d5:af:49:
                    6e:09:e5:75:5f:6a:eb:cf:83:20:54:68:d2:1b:36:
                    28:ed:df:61:f2:70:65:e6:da:9f:96:b8:ed:63:fb:
                    bc:44:66:d4:06:b9:0c:83:6a:a5:4d:0e:97:14:54:
                    3c:6d:06:2d:6e:cc:84:81:f0:e8:69:59:08:7d:2e:
                    c6:2c:95:f6:77:20:35:a4:25:39:97:c6:71:d8:5a:
                    be:18:b5:04:6f:fb:67:cc:00:b8:94:89:36:7d:94:
                    e1:ef:41:91:ae:74:f5:bd:16:20:bd:1a:84:0a:f4:
                    a3:87:b2:3a:09:2d:8d:01:ee:a1:39:2b:3d:6c:87:
                    2e:90:40:4f:40:b0:57:ea:7f:34:d5:8a:4a:d9:45:
                    15:5a:6c:b7:90:5a:be:b5:77:9c:df:f0:09:01:09:
                    03:53:0b:d4:ad:eb:93:d1:88:ee:73:82:ca:9c:47:
                    23:56:8d:41:38:8e:52:8b:14:c5:2f:7f:82:19:84:
                    a4:9d:f1:bd:be:98:de:6e:4f:9d:3a:fc:7d:60:19:
                    34:c4:36:cd:71:17:38:e8:a8:d2:81:64:01:64:25:
                    36:47:00:c1:6f:bc:95:a4:8e:2f:90:ab:b6:d0:9f:
                    29:0d:2d:28:d3:c4:07:cb:bc:6a:d4:17:22:47:cf:
                    55:61
                Exponent: 65537 (0x10001)
        X509v3 extensions:
            X509v3 Basic Constraints: critical
                CA:FALSE
            X509v3 Extended Key Usage: 
                TLS Web Server Authentication, TLS Web Client Authentication
            X509v3 Certificate Policies: 
                Policy: 2.23.140.1.1
                Policy: 1.2.3.4

            X509v3 Subject Alternative Name: 
                IP Address:127.0.0.1
    Signature Algorithm: sha256WithRSAEncryption
         a4:4e:29:f0:35:65:b6:5a:bc:2a:5a:c3:7f:e7:c2:e8:ee:8a:
         d0:b6:b4:1b:69:67:b5:42:79:55:b5:0b:e7:b5:1b:65:a4:7a:
         dd:b4:03:dc:9f:91:0b:9b:04:a3:44:9a:81:d1:b3:b8:12:88:
         04:9b:99:5f:e5:24:91:9f:36:6c:f4:1b:88:16:9e:c2:8f:29:
         7b:40:ba:68:5b:61:fd:ea:d0:3e:cf:e5:2f:e2:e3:7a:73:35:
         e4:da:fd:0e:56:d6:45:c4:2f:af:a6:0b:1b:aa:9e:bb:fc:48:
         bd:c3:1a:b1:ae:7f:fe:d3:1a:73:03:27:33:a8:44:c9:ed:d9:
         79:c6:df:a1:ae:1e:8e:c5:82:49:ca:4a:74:84:b3:6a:2d:b0:
         01:3e:ed:12:e6:cc:7b:db:f3:09:82:3b:93:8d:a6:4d:8a:69:
         2c:b4:1d:bb:8d:3d:9f:43:30:0c:b8:8b:ac:7b:bd:3b:44:11:
         cd:37:55:12:ec:db:7d:2f:36:e5:69:b2:dc:08:9c:4c:09:b8:
         c4:5f:03:64:80:74:6d:af:a0:fe:6d:18:59:f6:d7:6c:99:b8:
         6d:1b:3a:ee:f7:12:0c:02:c7:81:09:19:1c:84:5f:3c:f9:85:
         54:b1:aa:84:50:f6:82:1d:7e:ce:ce:ae:5e:4c:74:de:44:f8:
         12:ca:31:74
-----BEGIN CERTIFICATE-----
MIIDqDCCApCgAwIBAgIQEvbZ8YAbUJ9kCcjqLxYzqTANBgkqhkiG9w0BAQsFADBj
MQswCQYDVQQGEwJVUzETMBEGA1UECAwKQ2FsaWZvcm5pYTEWMBQGA1UEBwwNTW91
bnRhaW4gVmlldzEQMA4GA1UECgwHVGVzdCBDQTEVMBMGA1UEAwwMVGVzdCBSb290
IENBMB4XDTIxMTIwMTE1NDIwN1oXDTIzMTIwMTE1NDIwN1owYDELMAkGA1UEBhMC
VVMxEzARBgNVBAgMCkNhbGlmb3JuaWExFjAUBgNVBAcMDU1vdW50YWluIFZpZXcx
EDAOBgNVBAoMB1Rlc3QgQ0ExEjAQBgNVBAMMCTEyNy4wLjAuMTCCASIwDQYJKoZI
hvcNAQEBBQADggEPADCCAQoCggEBAOgXRAJZJrpsdD9/1a9JbgnldV9q68+DIFRo
0hs2KO3fYfJwZeban5a47WP7vERm1Aa5DINqpU0OlxRUPG0GLW7MhIHw6GlZCH0u
xiyV9ncgNaQlOZfGcdhavhi1BG/7Z8wAuJSJNn2U4e9Bka509b0WIL0ahAr0o4ey
OgktjQHuoTkrPWyHLpBAT0CwV+p/NNWKStlFFVpst5BavrV3nN/wCQEJA1ML1K3r
k9GI7nOCypxHI1aNQTiOUosUxS9/ghmEpJ3xvb6Y3m5PnTr8fWAZNMQ2zXEXOOio
0oFkAWQlNkcAwW+8laSOL5CrttCfKQ0tKNPEB8u8atQXIkfPVWECAwEAAaNbMFkw
DAYDVR0TAQH/BAIwADAdBgNVHSUEFjAUBggrBgEFBQcDAQYIKwYBBQUHAwIwGQYD
VR0gBBIwEDAHBgVngQwBATAFBgMqAwQwDwYDVR0RBAgwBocEfwAAATANBgkqhkiG
9w0BAQsFAAOCAQEApE4p8DVltlq8KlrDf+fC6O6K0La0G2lntUJ5VbUL57UbZaR6
3bQD3J+RC5sEo0SagdGzuBKIBJuZX+UkkZ82bPQbiBaewo8pe0C6aFth/erQPs/l
L+LjenM15Nr9DlbWRcQvr6YLG6qeu/xIvcMasa5//tMacwMnM6hEye3Zecbfoa4e
jsWCScpKdISzai2wAT7tEubMe9vzCYI7k42mTYppLLQdu409n0MwDLiLrHu9O0QR
zTdVEuzbfS825Wmy3AicTAm4xF8DZIB0ba+g/m0YWfbXbJm4bRs67vcSDALHgQkZ
HIRfPPmFVLGqhFD2gh1+zs6uXkx03kT4EsoxdA==
-----END CERTIFICATE-----
