Certificate:
    Data:
        Version: 3 (0x2)
        Serial Number:
            06:1b:12:ca:1e:d4:af:f8:36:80:0e:78:c3:3d:db:a1:50:3b:87:ff
        Signature Algorithm: sha256WithRSAEncryption
        Issuer: C=US, ST=California, L=Mountain View, O=Test Org
        Validity
            Not Before: Oct 10 20:46:14 2024 GMT
            Not After : Oct 10 20:46:14 2026 GMT
        Subject: C=US, ST=California, L=Mountain View, O=Test Org
        Subject Public Key Info:
            Public Key Algorithm: rsaEncryption
                Public-Key: (2048 bit)
                Modulus:
                    00:cf:79:46:79:b7:2f:f7:62:26:81:e0:ed:de:4d:
                    e4:05:da:9a:49:e6:53:f6:f5:68:ab:d5:e6:89:95:
                    0f:45:6a:06:72:0b:00:b9:26:8f:fa:07:78:58:98:
                    ee:34:1c:bd:fd:49:37:1a:d6:17:e3:de:f7:bb:21:
                    9b:c8:11:0a:40:1d:96:83:0c:36:47:d8:d2:7c:2b:
                    55:44:a4:5a:e7:d7:a0:47:01:af:48:00:c6:45:ab:
                    30:56:86:be:3f:bd:8e:2f:e2:1f:94:8e:a4:61:eb:
                    df:9e:2f:32:dc:9d:39:a5:fb:b1:b2:29:42:dc:e1:
                    c4:c8:3a:45:4c:08:b5:8d:5d:d1:59:13:65:f1:6c:
                    e6:f1:29:e8:3c:3e:cc:09:b4:0a:f3:76:dd:52:7b:
                    c1:79:90:7b:08:19:0e:b3:ae:3a:e5:e1:31:eb:c1:
                    61:8d:f0:eb:03:e6:db:2c:93:6b:53:3a:50:a5:e7:
                    7f:c4:4f:7f:1b:2e:5d:2b:32:c0:0b:2d:8d:a8:ee:
                    06:e1:6e:48:ad:a7:a9:04:4c:47:58:41:d1:c9:52:
                    8c:c0:e2:df:13:7f:72:cf:ff:9c:89:0d:96:f4:10:
                    89:cf:b6:11:9f:98:d3:97:38:2b:89:b5:4a:87:62:
                    eb:42:bc:e0:a6:90:8d:ad:e7:57:95:40:ae:86:8a:
                    b0:73
                Exponent: 65537 (0x10001)
        X509v3 extensions:
            X509v3 Subject Key Identifier: 
                FE:D3:48:37:5B:2A:F6:B4:FC:76:6E:AB:CE:0E:A3:5C:AF:35:1A:AA
    Signature Algorithm: sha256WithRSAEncryption
    Signature Value:
        88:3a:3f:8d:3c:44:1a:12:6d:ab:43:47:09:b9:ef:af:8e:e5:
        49:f2:69:a0:f8:7f:2d:bc:6f:c4:7a:3e:36:80:60:7c:ca:48:
        f8:56:82:5c:e0:55:d5:7f:ae:b4:d6:ca:f8:65:c4:dc:c8:3c:
        a2:fb:af:e6:ae:41:33:a3:67:35:80:e5:a7:52:4e:bc:30:3c:
        21:90:a9:f0:0e:78:ce:50:4e:d9:fa:89:24:47:95:48:38:40:
        0f:d6:00:cc:25:07:e1:d8:bf:0f:45:91:53:1b:af:f3:03:2c:
        c4:8d:87:f4:c5:e6:76:2b:83:a0:99:ea:89:69:06:4e:97:cc:
        76:5b:e5:ee:b4:e3:08:dc:22:8c:72:c2:cb:1e:83:a9:56:ea:
        9c:b5:c1:e4:ff:bd:b4:77:ab:bb:14:0b:59:a3:9c:1a:1f:14:
        59:10:64:a0:b7:dd:e1:43:02:82:d6:11:ba:c0:ee:51:47:7c:
        6e:6c:8e:1f:c7:19:99:ab:2b:6e:c6:01:e9:e6:6d:24:d1:56:
        17:99:44:30:e0:d8:11:ce:d9:71:ea:96:95:69:3a:37:28:b4:
        5c:52:f2:d9:72:2d:11:3b:82:50:90:74:cf:6b:2f:98:52:90:
        6b:41:ba:b3:3e:ad:27:4e:19:3a:07:f7:de:05:c5:51:2d:23:
        4e:1b:32:c0
-----BEGIN CERTIFICATE-----
MIIDSTCCAjGgAwIBAgIUBhsSyh7Ur/g2gA54wz3boVA7h/8wDQYJKoZIhvcNAQEL
BQAwTTELMAkGA1UEBhMCVVMxEzARBgNVBAgMCkNhbGlmb3JuaWExFjAUBgNVBAcM
DU1vdW50YWluIFZpZXcxETAPBgNVBAoMCFRlc3QgT3JnMB4XDTI0MTAxMDIwNDYx
NFoXDTI2MTAxMDIwNDYxNFowTTELMAkGA1UEBhMCVVMxEzARBgNVBAgMCkNhbGlm
b3JuaWExFjAUBgNVBAcMDU1vdW50YWluIFZpZXcxETAPBgNVBAoMCFRlc3QgT3Jn
MIIBIjANBgkqhkiG9w0BAQEFAAOCAQ8AMIIBCgKCAQEAz3lGebcv92ImgeDt3k3k
BdqaSeZT9vVoq9XmiZUPRWoGcgsAuSaP+gd4WJjuNBy9/Uk3GtYX4973uyGbyBEK
QB2Wgww2R9jSfCtVRKRa59egRwGvSADGRaswVoa+P72OL+IflI6kYevfni8y3J05
pfuxsilC3OHEyDpFTAi1jV3RWRNl8Wzm8SnoPD7MCbQK83bdUnvBeZB7CBkOs646
5eEx68FhjfDrA+bbLJNrUzpQped/xE9/Gy5dKzLACy2NqO4G4W5IraepBExHWEHR
yVKMwOLfE39yz/+ciQ2W9BCJz7YRn5jTlzgribVKh2LrQrzgppCNredXlUCuhoqw
cwIDAQABoyEwHzAdBgNVHQ4EFgQU/tNIN1sq9rT8dm6rzg6jXK81GqowDQYJKoZI
hvcNAQELBQADggEBAIg6P408RBoSbatDRwm576+O5UnyaaD4fy28b8R6PjaAYHzK
SPhWglzgVdV/rrTWyvhlxNzIPKL7r+auQTOjZzWA5adSTrwwPCGQqfAOeM5QTtn6
iSRHlUg4QA/WAMwlB+HYvw9FkVMbr/MDLMSNh/TF5nYrg6CZ6olpBk6XzHZb5e60
4wjcIoxywsseg6lW6py1weT/vbR3q7sUC1mjnBofFFkQZKC33eFDAoLWEbrA7lFH
fG5sjh/HGZmrK27GAenmbSTRVheZRDDg2BHO2XHqlpVpOjcotFxS8tlyLRE7glCQ
dM9rL5hSkGtBurM+rSdOGToH994FxVEtI04bMsA=
-----END CERTIFICATE-----
