Certificate:
    Data:
        Version: 3 (0x2)
        Serial Number:
            db:b8:ec:63:ae:1a:19:4f:1c:b5:7c:9b:c4:a8:97:34:a2:e1:5d
        Signature Algorithm: sha256WithRSAEncryption
        Issuer: C=US, ST=California, O=Test Org
        Validity
            Not Before: Oct 10 17:12:19 2025 GMT
            Not After : Oct 10 17:12:19 2027 GMT
        Subject: C=US, ST=California, O=Test Org
        Subject Public Key Info:
            Public Key Algorithm: rsaEncryption
                Public-Key: (2048 bit)
                Modulus:
                    00:a1:6a:e0:b5:ab:bc:04:c7:f8:71:57:33:b1:fa:
                    6f:65:d0:db:10:81:2d:94:d7:51:1f:67:11:fe:79:
                    46:a2:fb:07:49:10:59:b8:db:f1:3a:2b:2e:80:b8:
                    cb:38:14:76:2a:81:b2:73:60:1c:83:15:cf:54:9b:
                    8e:27:72:4e:9f:e0:d3:7a:d3:d9:74:83:29:df:e9:
                    41:0f:44:d5:47:45:f7:7a:f5:f0:66:6d:e5:8f:ea:
                    dc:98:27:ff:18:c6:c1:ab:30:e2:1a:ba:53:b7:fb:
                    40:00:35:57:e4:bb:e1:fc:26:32:71:02:b3:7d:61:
                    1d:9a:aa:45:35:17:13:d6:32:68:8b:c2:9d:3e:b9:
                    95:45:fe:cb:83:77:fb:fc:bc:6d:8c:bf:a6:36:be:
                    35:6a:6b:5a:fa:b8:d2:a3:ba:4d:26:74:ce:22:16:
                    92:d9:f5:a1:0b:94:56:71:ce:48:35:1d:68:a4:23:
                    8c:d7:90:e4:cd:96:91:a4:4c:d1:72:cc:b7:d3:3c:
                    24:c8:84:b8:09:89:a5:d4:78:93:4d:67:cd:10:62:
                    08:83:41:6b:b6:99:25:c6:20:48:c9:e9:14:c2:76:
                    5c:b8:9f:6d:dd:fc:31:ad:c0:63:e2:f1:77:97:a6:
                    15:a7:9c:31:a3:78:f1:05:7c:78:d3:73:4f:e7:80:
                    13:8b
                Exponent: 65537 (0x10001)
        X509v3 extensions:
            X509v3 Subject Key Identifier: 
                38:C8:75:DA:48:78:4A:5B:C2:18:B7:CD:D0:0E:CD:28:F3:D6:11:A1
    Signature Algorithm: sha256WithRSAEncryption
    Signature Value:
        9d:f6:65:a5:8e:28:a0:bb:8e:55:05:e8:8d:5d:f3:e3:c5:b1:
        9b:93:01:fa:09:d4:32:fe:77:0f:67:e1:48:06:e6:0a:56:d2:
        2c:ed:fd:c4:17:87:b0:06:d7:b5:81:07:65:40:f7:62:ce:dd:
        b0:02:90:55:5c:75:5b:28:9e:14:38:4a:fe:57:19:5c:e5:3d:
        31:45:5d:87:99:99:c9:3d:1c:9e:5a:fa:93:12:be:7c:00:bd:
        c5:1a:1b:2a:35:4f:53:e0:93:5b:11:f5:d4:f4:1a:f6:b8:2a:
        2e:db:0b:7e:65:48:68:59:d5:ee:f4:3f:a9:c6:42:56:70:63:
        15:f4:ca:e1:15:57:af:4c:10:2f:b5:ed:79:e8:f0:f4:73:5d:
        f3:29:bb:67:23:16:48:07:ff:5a:eb:21:9f:26:d5:e1:f7:11:
        cf:ae:a2:2f:a1:2b:1f:6e:fd:33:c0:ea:41:d9:17:99:d8:f4:
        1b:dc:91:b4:07:ff:57:f9:77:5b:ae:d9:d1:d4:fc:2e:3c:c6:
        8d:46:7c:77:12:d0:1f:ff:82:d2:00:66:4a:80:14:85:a1:65:
        d0:95:0b:3e:2d:9f:1f:d7:86:8a:03:0f:6c:1a:b2:6b:bc:8a:
        30:e8:25:65:f0:70:80:ff:04:19:f4:02:f4:6e:f3:6c:e0:aa:
        0a:14:3e:b4
-----BEGIN CERTIFICATE-----
MIIDGTCCAgGgAwIBAgIUANu47GOuGhlPHLV8m8SolzSi4V0wDQYJKoZIhvcNAQEL
BQAwNTELMAkGA1UEBhMCVVMxEzARBgNVBAgMCkNhbGlmb3JuaWExETAPBgNVBAoM
CFRlc3QgT3JnMB4XDTI1MTAxMDE3MTIxOVoXDTI3MTAxMDE3MTIxOVowNTELMAkG
A1UEBhMCVVMxEzARBgNVBAgMCkNhbGlmb3JuaWExETAPBgNVBAoMCFRlc3QgT3Jn
MIIBIjANBgkqhkiG9w0BAQEFAAOCAQ8AMIIBCgKCAQEAoWrgtau8BMf4cVczsfpv
ZdDbEIEtlNdRH2cR/nlGovsHSRBZuNvxOisugLjLOBR2KoGyc2AcgxXPVJuOJ3JO
n+DTetPZdIMp3+lBD0TVR0X3evXwZm3lj+rcmCf/GMbBqzDiGrpTt/tAADVX5Lvh
/CYycQKzfWEdmqpFNRcT1jJoi8KdPrmVRf7Lg3f7/LxtjL+mNr41amta+rjSo7pN
JnTOIhaS2fWhC5RWcc5INR1opCOM15DkzZaRpEzRcsy30zwkyIS4CYml1HiTTWfN
EGIIg0FrtpklxiBIyekUwnZcuJ9t3fwxrcBj4vF3l6YVp5wxo3jxBXx403NP54AT
iwIDAQABoyEwHzAdBgNVHQ4EFgQUOMh12kh4SlvCGLfN0A7NKPPWEaEwDQYJKoZI
hvcNAQELBQADggEBAJ32ZaWOKKC7jlUF6I1d8+PFsZuTAfoJ1DL+dw9n4UgG5gpW
0izt/cQXh7AG17WBB2VA92LO3bACkFVcdVsonhQ4Sv5XGVzlPTFFXYeZmck9HJ5a
+pMSvnwAvcUaGyo1T1Pgk1sR9dT0Gva4Ki7bC35lSGhZ1e70P6nGQlZwYxX0yuEV
V69MEC+17Xno8PRzXfMpu2cjFkgH/1rrIZ8m1eH3Ec+uoi+hKx9u/TPA6kHZF5nY
9BvckbQH/1f5d1uu2dHU/C48xo1GfHcS0B//gtIAZkqAFIWhZdCVCz4tnx/XhooD
D2wasmu8ijDoJWXwcID/BBn0AvRu82zgqgoUPrQ=
-----END CERTIFICATE-----
