Certificate:
    Data:
        Version: 1 (0x0)
        Serial Number:
            08:e7:72:d8:3b:cb:68:18:0b:32:f6:09:9f:39:d9:79:bd:af:c7:e0
        Signature Algorithm: sha256WithRSAEncryption
        Issuer: C = US, ST = California, O = Test Org
        Validity
            Not Before: Oct  3 17:20:32 2022 GMT
            Not After : Oct  2 17:20:32 2024 GMT
        Subject: C = US, ST = California, O = Test Org
        Subject Public Key Info:
            Public Key Algorithm: rsaEncryption
                Public-Key: (2048 bit)
                Modulus:
                    00:a4:1f:f6:07:e1:9b:b1:eb:c6:5a:45:70:e2:80:
                    c0:71:48:d3:2e:d8:1e:38:a0:4a:5e:d0:28:d0:81:
                    e8:3d:ec:bf:c9:94:c2:e8:1d:7c:c2:fd:30:e6:d3:
                    72:f3:e5:83:95:df:ba:94:82:db:7b:c7:af:2e:c4:
                    6e:96:fa:8b:75:7c:78:33:3b:69:8f:89:aa:68:14:
                    e5:d8:a8:22:51:85:90:65:9b:98:27:8d:f0:a7:ad:
                    3f:b0:46:47:67:8c:a0:6f:65:de:c4:5c:f0:e3:4c:
                    ed:d4:63:21:dc:d4:77:f6:98:40:95:f3:38:c7:12:
                    fe:5a:b0:0e:78:3d:c4:ea:c6:b8:56:51:55:9f:64:
                    08:22:63:a1:52:01:7c:a5:95:b4:17:61:27:a0:e0:
                    aa:28:df:21:22:c5:22:66:e9:a8:0e:7a:81:d1:c0:
                    b8:8d:95:17:9a:71:2c:67:2d:ef:51:cf:31:3b:19:
                    e2:b0:5f:3f:05:41:ac:7c:ee:4b:64:db:0e:56:97:
                    93:f5:ce:9a:62:28:ef:e9:a2:15:91:10:0a:a6:67:
                    08:ad:e3:e2:b4:9e:50:d7:c2:52:76:0d:ca:a4:36:
                    8b:0b:41:f9:0d:c6:13:cb:6b:97:52:f3:02:19:aa:
                    4f:96:83:9f:c6:ff:60:ef:ca:4e:59:ba:cd:c1:56:
                    1e:55
                Exponent: 65537 (0x10001)
    Signature Algorithm: sha256WithRSAEncryption
    Signature Value:
        7a:50:d2:45:b9:8c:3c:1d:90:a4:fb:cf:15:fd:88:76:39:ed:
        9d:70:d5:81:58:1f:eb:ad:2f:dd:5d:cd:3b:be:bb:90:0f:5b:
        c9:89:8d:d4:43:60:a9:2e:c1:38:f0:11:44:ab:c6:89:21:d3:
        46:75:1a:d9:bd:95:15:09:a0:82:b3:e2:86:e9:30:c1:41:4f:
        56:6c:3f:2d:b7:f8:15:7c:2e:67:b1:91:41:2b:63:77:2c:8e:
        ee:66:00:c6:1f:5f:d2:38:49:2a:f3:38:6c:42:c6:26:b7:36:
        a8:63:ac:89:ef:46:0a:c3:79:fd:b9:94:d9:37:7a:c2:2d:33:
        61:2b:6d:58:33:cb:bd:98:3c:70:37:e5:12:b9:b5:7a:8f:85:
        73:f5:fc:6a:7e:06:8c:91:2d:97:db:84:f6:ba:9f:39:5f:84:
        f8:37:73:0f:29:35:bb:0c:bd:49:6e:b3:67:4c:f2:e2:c7:7b:
        27:45:78:19:fa:2b:ba:f8:fc:ce:31:9e:b5:91:61:27:b7:01:
        5f:ac:7a:41:c0:5b:da:f3:cc:72:21:3a:11:dd:08:8b:c3:d2:
        d3:1e:6d:0e:e0:e9:3d:8b:aa:67:a2:6f:c6:02:ac:e8:b2:7e:
        69:60:e2:7e:40:56:32:d6:76:42:ed:e5:56:db:07:e6:4f:39:
        74:3f:de:8b
-----BEGIN CERTIFICATE-----
MIIC8TCCAdkCFAjnctg7y2gYCzL2CZ852Xm9r8fgMA0GCSqGSIb3DQEBCwUAMDUx
CzAJBgNVBAYTAlVTMRMwEQYDVQQIDApDYWxpZm9ybmlhMREwDwYDVQQKDAhUZXN0
IE9yZzAeFw0yMjEwMDMxNzIwMzJaFw0yNDEwMDIxNzIwMzJaMDUxCzAJBgNVBAYT
AlVTMRMwEQYDVQQIDApDYWxpZm9ybmlhMREwDwYDVQQKDAhUZXN0IE9yZzCCASIw
DQYJKoZIhvcNAQEBBQADggEPADCCAQoCggEBAKQf9gfhm7HrxlpFcOKAwHFI0y7Y
HjigSl7QKNCB6D3sv8mUwugdfML9MObTcvPlg5XfupSC23vHry7Ebpb6i3V8eDM7
aY+JqmgU5dioIlGFkGWbmCeN8KetP7BGR2eMoG9l3sRc8ONM7dRjIdzUd/aYQJXz
OMcS/lqwDng9xOrGuFZRVZ9kCCJjoVIBfKWVtBdhJ6DgqijfISLFImbpqA56gdHA
uI2VF5pxLGct71HPMTsZ4rBfPwVBrHzuS2TbDlaXk/XOmmIo7+miFZEQCqZnCK3j
4rSeUNfCUnYNyqQ2iwtB+Q3GE8trl1LzAhmqT5aDn8b/YO/KTlm6zcFWHlUCAwEA
ATANBgkqhkiG9w0BAQsFAAOCAQEAelDSRbmMPB2QpPvPFf2IdjntnXDVgVgf660v
3V3NO767kA9byYmN1ENgqS7BOPARRKvGiSHTRnUa2b2VFQmggrPihukwwUFPVmw/
Lbf4FXwuZ7GRQStjdyyO7mYAxh9f0jhJKvM4bELGJrc2qGOsie9GCsN5/bmU2Td6
wi0zYSttWDPLvZg8cDflErm1eo+Fc/X8an4GjJEtl9uE9rqfOV+E+DdzDyk1uwy9
SW6zZ0zy4sd7J0V4Gforuvj8zjGetZFhJ7cBX6x6QcBb2vPMciE6Ed0Ii8PS0x5t
DuDpPYuqZ6JvxgKs6LJ+aWDifkBWMtZ2Qu3lVtsH5k85dD/eiw==
-----END CERTIFICATE-----
