Certificate:
    Data:
        Version: 1 (0x0)
        Serial Number:
            5e:7e:30:79:54:01:67:46:bc:d8:77:ca:76:08:4b:12:38:ab:c6:68
        Signature Algorithm: sha256WithRSAEncryption
        Issuer: C = US, ST = California, O = Test Org
        Validity
            Not Before: Dec  1 15:42:30 2021 GMT
            Not After : Dec  1 15:42:30 2023 GMT
        Subject: C = US, ST = California, O = Test Org
        Subject Public Key Info:
            Public Key Algorithm: rsaEncryption
                RSA Public-Key: (2048 bit)
                Modulus:
                    00:e8:35:3f:06:9a:e2:a6:0f:2d:93:78:3e:0f:74:
                    1f:8d:49:7e:40:48:72:20:59:6b:72:5c:ac:e9:5d:
                    cb:83:7a:d7:29:73:f9:ea:4a:5f:f1:3a:58:07:ad:
                    ae:24:70:89:99:9e:c4:90:b0:d3:87:6c:f8:64:25:
                    a2:92:0a:c1:54:42:eb:e3:dd:09:be:8b:3a:77:5c:
                    fb:40:e5:3f:ab:7b:29:8b:59:a8:fd:b9:1d:10:52:
                    d8:41:70:f3:f7:96:1e:0c:a9:64:ed:33:ba:0f:2c:
                    83:f1:4a:f9:68:38:83:f5:a9:b5:54:10:ea:55:4f:
                    01:17:f7:48:69:6d:89:05:eb:e3:40:66:af:47:e2:
                    8a:27:c3:3a:1f:2b:b8:2e:95:f7:28:23:ec:33:4e:
                    25:e4:a6:b2:0c:4c:c9:5b:29:5a:bc:0a:b8:dd:69:
                    4c:28:19:50:c0:54:46:7a:cb:26:f5:a7:41:02:e4:
                    a3:a0:6e:42:26:48:56:87:99:f9:6b:b9:f7:79:8e:
                    7b:e0:da:9b:c1:14:cd:12:8b:56:d2:b0:0b:01:b9:
                    3d:0b:dd:19:72:83:96:ea:14:d6:cc:bf:33:ee:79:
                    f1:e7:cd:34:17:50:1c:f2:0c:ee:53:70:99:61:75:
                    f6:0c:20:61:29:84:69:7d:f7:62:e6:cf:a6:6c:c6:
                    6e:b7
                Exponent: 65537 (0x10001)
    Signature Algorithm: sha256WithRSAEncryption
         e5:17:02:f9:2f:c7:95:9c:44:2d:6f:4d:81:86:46:5c:70:cd:
         a7:30:aa:74:23:42:1e:a5:bb:cb:c0:2c:66:52:de:43:29:9c:
         42:16:88:60:f2:cf:4f:3f:e0:aa:bb:cd:7a:f6:62:99:c5:bc:
         22:ea:25:b2:e5:18:1e:a6:fc:cd:37:b7:08:30:fd:cd:b6:57:
         94:59:6e:3a:7c:ee:7c:48:82:8b:84:73:af:d1:5c:f3:b7:8e:
         53:c0:4a:7e:47:53:60:00:6e:a7:60:fa:17:ca:a0:63:bd:c0:
         8d:b0:d2:44:50:80:b7:73:e9:30:57:81:c1:b8:01:1d:00:41:
         31:18:07:74:83:69:ab:8c:c5:94:0a:7b:e6:f3:cd:87:76:20:
         2d:da:01:81:10:8b:ea:f7:9a:be:af:08:81:d2:da:9e:64:81:
         99:a7:ff:d1:fe:98:8b:cb:3c:58:fa:99:f3:5f:e6:26:88:e1:
         70:d6:8c:7e:22:94:77:c6:fd:6b:5c:0e:32:68:f6:22:69:35:
         6b:c2:1b:b8:e6:54:c8:6f:0d:c6:cd:3c:5b:64:1e:e9:88:03:
         28:e9:53:7c:97:26:d5:ff:fc:a6:97:75:fa:2e:74:34:d2:a1:
         ec:8c:13:57:0b:94:e7:df:27:83:db:31:df:03:8f:15:6e:8d:
         97:58:3c:5f
-----BEGIN CERTIFICATE-----
MIIC8TCCAdkCFF5+MHlUAWdGvNh3ynYISxI4q8ZoMA0GCSqGSIb3DQEBCwUAMDUx
CzAJBgNVBAYTAlVTMRMwEQYDVQQIDApDYWxpZm9ybmlhMREwDwYDVQQKDAhUZXN0
IE9yZzAeFw0yMTEyMDExNTQyMzBaFw0yMzEyMDExNTQyMzBaMDUxCzAJBgNVBAYT
AlVTMRMwEQYDVQQIDApDYWxpZm9ybmlhMREwDwYDVQQKDAhUZXN0IE9yZzCCASIw
DQYJKoZIhvcNAQEBBQADggEPADCCAQoCggEBAOg1Pwaa4qYPLZN4Pg90H41JfkBI
ciBZa3JcrOldy4N61ylz+epKX/E6WAetriRwiZmexJCw04ds+GQlopIKwVRC6+Pd
Cb6LOndc+0DlP6t7KYtZqP25HRBS2EFw8/eWHgypZO0zug8sg/FK+Wg4g/WptVQQ
6lVPARf3SGltiQXr40Bmr0fiiifDOh8ruC6V9ygj7DNOJeSmsgxMyVspWrwKuN1p
TCgZUMBURnrLJvWnQQLko6BuQiZIVoeZ+Wu593mOe+Dam8EUzRKLVtKwCwG5PQvd
GXKDluoU1sy/M+558efNNBdQHPIM7lNwmWF19gwgYSmEaX33YubPpmzGbrcCAwEA
ATANBgkqhkiG9w0BAQsFAAOCAQEA5RcC+S/HlZxELW9NgYZGXHDNpzCqdCNCHqW7
y8AsZlLeQymcQhaIYPLPTz/gqrvNevZimcW8IuolsuUYHqb8zTe3CDD9zbZXlFlu
OnzufEiCi4Rzr9Fc87eOU8BKfkdTYABup2D6F8qgY73AjbDSRFCAt3PpMFeBwbgB
HQBBMRgHdINpq4zFlAp75vPNh3YgLdoBgRCL6veavq8IgdLanmSBmaf/0f6Yi8s8
WPqZ81/mJojhcNaMfiKUd8b9a1wOMmj2Imk1a8IbuOZUyG8Nxs08W2Qe6YgDKOlT
fJcm1f/8ppd1+i50NNKh7IwTVwuU598ng9sx3wOPFW6Nl1g8Xw==
-----END CERTIFICATE-----
