Certificate:
    Data:
        Version: 1 (0x0)
        Serial Number:
            53:09:3e:01:61:14:4d:c5:a3:57:d3:66:76:b9:9b:ab:c9:07:7a:c6
        Signature Algorithm: sha256WithRSAEncryption
        Issuer: C = US, ST = California, O = Test Org
        Validity
            Not Before: Apr 10 18:36:42 2020 GMT
            Not After : Apr 10 18:36:42 2022 GMT
        Subject: C = US, ST = California, O = Test Org
        Subject Public Key Info:
            Public Key Algorithm: rsaEncryption
                RSA Public-Key: (2048 bit)
                Modulus:
                    00:f3:e0:35:ed:52:11:24:c5:f3:a2:0f:b9:41:2d:
                    eb:4d:ec:f9:57:7c:4d:80:8d:9b:3b:f4:73:50:78:
                    d8:a3:bd:7a:51:7f:20:e6:0a:b4:f7:2a:b4:fa:0e:
                    1a:6c:aa:a6:19:f7:06:f4:39:8e:33:43:1b:70:f5:
                    d6:b0:22:0e:c0:36:a6:7d:8a:3c:41:48:b6:a2:8b:
                    ec:78:e3:f0:8f:7b:1a:14:c9:d8:6f:ca:af:28:4a:
                    cc:6c:d1:2f:90:16:e1:0d:e8:5e:98:ec:9b:2f:6a:
                    46:5c:e2:89:05:41:a5:93:bc:87:47:d4:23:05:c4:
                    7f:a9:76:6d:06:29:c1:46:93:f6:50:9f:06:1b:79:
                    55:68:74:40:be:cc:e9:41:1b:2e:c8:1a:dc:00:70:
                    6d:2e:fd:cc:5f:93:2d:cb:9f:35:51:0c:fe:63:fb:
                    1f:11:74:ed:5d:82:a4:00:67:9a:22:67:dd:91:94:
                    db:6e:6f:5e:47:f2:bd:04:8d:f1:e7:73:76:bf:db:
                    69:3a:a7:8a:8f:97:0d:17:11:34:4f:de:5a:c4:3b:
                    1a:f0:b6:8f:c7:1f:41:7e:5f:68:98:38:d1:18:85:
                    5e:75:71:29:d0:d9:aa:74:ed:6b:fd:11:07:85:c1:
                    65:10:04:6b:9e:a4:b9:4d:d5:da:80:8d:02:33:18:
                    27:7b
                Exponent: 65537 (0x10001)
    Signature Algorithm: sha256WithRSAEncryption
         09:46:1a:3e:97:c5:ac:c2:f8:c4:c9:51:e2:ff:9b:e1:68:c2:
         6a:aa:a2:11:32:34:93:95:a8:37:31:fa:2d:dc:fd:04:c5:e3:
         0f:15:92:96:53:a6:7b:60:42:65:79:1d:b6:3c:f7:16:93:f8:
         c9:a6:72:42:c6:e2:1c:26:e5:ca:07:5c:44:96:a7:ad:8e:74:
         ac:ea:1a:e1:6c:fe:f6:b1:de:b7:03:69:6b:30:ea:8e:8f:af:
         be:36:2c:10:20:7f:e1:7e:0d:b6:a1:cf:8e:05:4f:59:c8:3c:
         e8:7c:5c:16:ff:f2:d3:eb:6a:31:57:66:06:da:f6:5c:99:a7:
         9c:3f:09:f9:6a:b9:fe:4c:5a:b8:81:b8:04:bc:ce:ff:5c:62:
         f8:0c:e6:0c:e6:68:32:e5:69:61:18:dd:6b:7e:a9:6c:1a:7e:
         a9:c0:63:a2:bf:c6:48:80:48:17:d7:f8:8b:e6:7d:ae:72:f8:
         26:75:b3:75:d1:6c:b1:55:53:7a:5b:7d:f3:d9:ca:b0:b8:8b:
         84:d3:a8:a3:f0:6e:21:79:95:3e:aa:48:bd:cc:c6:5a:8f:6e:
         fb:eb:9c:12:56:86:1e:d9:48:ec:ce:ce:06:8d:09:43:07:1a:
         0f:4b:c4:ab:83:a2:13:8d:a5:40:96:1f:f2:da:42:c6:94:a2:
         35:d1:82:bb
-----BEGIN CERTIFICATE-----
MIIC8TCCAdkCFFMJPgFhFE3Fo1fTZna5m6vJB3rGMA0GCSqGSIb3DQEBCwUAMDUx
CzAJBgNVBAYTAlVTMRMwEQYDVQQIDApDYWxpZm9ybmlhMREwDwYDVQQKDAhUZXN0
IE9yZzAeFw0yMDA0MTAxODM2NDJaFw0yMjA0MTAxODM2NDJaMDUxCzAJBgNVBAYT
AlVTMRMwEQYDVQQIDApDYWxpZm9ybmlhMREwDwYDVQQKDAhUZXN0IE9yZzCCASIw
DQYJKoZIhvcNAQEBBQADggEPADCCAQoCggEBAPPgNe1SESTF86IPuUEt603s+Vd8
TYCNmzv0c1B42KO9elF/IOYKtPcqtPoOGmyqphn3BvQ5jjNDG3D11rAiDsA2pn2K
PEFItqKL7Hjj8I97GhTJ2G/KryhKzGzRL5AW4Q3oXpjsmy9qRlziiQVBpZO8h0fU
IwXEf6l2bQYpwUaT9lCfBht5VWh0QL7M6UEbLsga3ABwbS79zF+TLcufNVEM/mP7
HxF07V2CpABnmiJn3ZGU225vXkfyvQSN8edzdr/baTqnio+XDRcRNE/eWsQ7GvC2
j8cfQX5faJg40RiFXnVxKdDZqnTta/0RB4XBZRAEa56kuU3V2oCNAjMYJ3sCAwEA
ATANBgkqhkiG9w0BAQsFAAOCAQEACUYaPpfFrML4xMlR4v+b4WjCaqqiETI0k5Wo
NzH6Ldz9BMXjDxWSllOme2BCZXkdtjz3FpP4yaZyQsbiHCblygdcRJanrY50rOoa
4Wz+9rHetwNpazDqjo+vvjYsECB/4X4NtqHPjgVPWcg86HxcFv/y0+tqMVdmBtr2
XJmnnD8J+Wq5/kxauIG4BLzO/1xi+AzmDOZoMuVpYRjda36pbBp+qcBjor/GSIBI
F9f4i+Z9rnL4JnWzddFssVVTelt989nKsLiLhNOoo/BuIXmVPqpIvczGWo9u++uc
ElaGHtlI7M7OBo0JQwcaD0vEq4OiE42lQJYf8tpCxpSiNdGCuw==
-----END CERTIFICATE-----
