Certificate:
    Data:
        Version: 3 (0x2)
        Serial Number:
            64:18:6c:31:34:2c:9b:75:c0:f7:19:a0:a9:f0:e2:60:95:37:8a:2c
        Signature Algorithm: sha256WithRSAEncryption
        Issuer: C=US, ST=California, O=Test Org
        Validity
            Not Before: Oct 10 20:46:14 2024 GMT
            Not After : Oct 10 20:46:14 2026 GMT
        Subject: C=US, ST=California, O=Test Org
        Subject Public Key Info:
            Public Key Algorithm: rsaEncryption
                Public-Key: (2048 bit)
                Modulus:
                    00:be:74:d6:df:7c:84:a0:05:d3:3c:47:7e:19:15:
                    a6:cd:5c:95:11:40:45:5c:2e:02:5e:b4:63:29:49:
                    8d:bb:16:2c:72:31:25:f4:e6:2a:6c:d3:37:4d:9a:
                    8c:80:2e:97:bf:2f:a3:9a:17:e7:0b:f8:3f:60:85:
                    f9:64:cf:70:e3:24:45:79:04:cb:5f:8d:0c:a1:ab:
                    1c:97:cd:22:86:92:7e:c7:07:72:73:55:c3:f2:8c:
                    08:1c:da:0d:4d:83:54:ab:9d:db:56:23:c3:d2:ea:
                    81:ee:99:34:42:01:5c:d0:04:f6:f6:93:9d:a6:da:
                    93:fe:34:2a:5c:f9:d5:60:fa:81:6a:f4:55:16:d8:
                    ee:3a:b0:d9:3b:14:64:9b:3c:84:28:41:2f:27:2b:
                    f1:15:39:87:15:25:fd:14:8f:0f:20:dc:62:13:9a:
                    08:3e:56:a2:01:83:d2:a9:91:73:68:db:54:8d:ea:
                    da:6e:fa:4b:c1:f7:38:27:30:90:2d:9f:af:3b:c5:
                    03:4f:17:e6:01:20:42:5c:b3:fe:2a:fa:6c:63:a8:
                    01:10:e5:e0:63:59:4f:5a:80:b8:4a:27:df:37:08:
                    29:1f:b9:f5:31:d5:22:9a:88:04:ff:4f:85:ae:45:
                    37:67:14:72:a2:a9:4b:24:1f:a1:94:90:51:d3:56:
                    2c:cb
                Exponent: 65537 (0x10001)
        X509v3 extensions:
            X509v3 Subject Key Identifier: 
                75:77:44:14:97:F5:53:B8:81:5E:CD:AE:20:D2:5A:36:1C:15:42:53
    Signature Algorithm: sha256WithRSAEncryption
    Signature Value:
        68:bf:01:9f:87:b5:67:19:62:cf:c4:96:cc:c9:15:bd:2a:8b:
        53:34:6a:59:fd:6f:b1:79:37:fb:e0:54:72:93:0b:9e:ed:b4:
        ab:d7:7e:a8:0c:3e:ac:08:81:85:20:f1:fb:65:02:1c:a0:e1:
        a2:26:1d:c4:66:64:a7:c2:9a:df:de:56:78:d2:93:ae:e8:6e:
        8e:75:65:45:bf:2d:6f:ed:19:29:19:56:df:1f:c7:c1:60:62:
        24:f9:4d:cf:a4:e7:b0:51:cd:4b:f9:7f:e7:13:74:57:fb:55:
        cd:77:5e:3d:7c:57:47:dc:38:46:fa:2e:30:e2:b0:4f:fd:49:
        99:47:49:a8:5d:0c:71:f5:06:bc:a4:c9:35:b5:c4:ac:8a:96:
        86:20:bd:94:e4:25:43:d7:75:19:6b:d4:74:c9:ce:04:71:05:
        0d:04:dd:ee:01:f0:d3:5d:ef:1e:86:b2:d7:ae:f4:ef:2d:f3:
        df:5a:46:61:6b:45:d6:94:ff:01:9a:7b:23:bc:5f:88:ba:01:
        43:b6:d9:d3:33:36:54:71:96:e0:2d:83:ea:37:5c:8c:be:74:
        f5:be:8f:bd:71:42:ea:02:c7:88:cc:04:7f:5b:39:11:7a:d0:
        3b:b1:4a:f6:88:a2:eb:d2:3c:1a:58:f3:f6:af:4a:29:6f:ea:
        41:ed:98:1d
-----BEGIN CERTIFICATE-----
MIIDGTCCAgGgAwIBAgIUZBhsMTQsm3XA9xmgqfDiYJU3iiwwDQYJKoZIhvcNAQEL
BQAwNTELMAkGA1UEBhMCVVMxEzARBgNVBAgMCkNhbGlmb3JuaWExETAPBgNVBAoM
CFRlc3QgT3JnMB4XDTI0MTAxMDIwNDYxNFoXDTI2MTAxMDIwNDYxNFowNTELMAkG
A1UEBhMCVVMxEzARBgNVBAgMCkNhbGlmb3JuaWExETAPBgNVBAoMCFRlc3QgT3Jn
MIIBIjANBgkqhkiG9w0BAQEFAAOCAQ8AMIIBCgKCAQEAvnTW33yEoAXTPEd+GRWm
zVyVEUBFXC4CXrRjKUmNuxYscjEl9OYqbNM3TZqMgC6Xvy+jmhfnC/g/YIX5ZM9w
4yRFeQTLX40Moascl80ihpJ+xwdyc1XD8owIHNoNTYNUq53bViPD0uqB7pk0QgFc
0AT29pOdptqT/jQqXPnVYPqBavRVFtjuOrDZOxRkmzyEKEEvJyvxFTmHFSX9FI8P
INxiE5oIPlaiAYPSqZFzaNtUjerabvpLwfc4JzCQLZ+vO8UDTxfmASBCXLP+Kvps
Y6gBEOXgY1lPWoC4SiffNwgpH7n1MdUimogE/0+FrkU3ZxRyoqlLJB+hlJBR01Ys
ywIDAQABoyEwHzAdBgNVHQ4EFgQUdXdEFJf1U7iBXs2uINJaNhwVQlMwDQYJKoZI
hvcNAQELBQADggEBAGi/AZ+HtWcZYs/ElszJFb0qi1M0aln9b7F5N/vgVHKTC57t
tKvXfqgMPqwIgYUg8ftlAhyg4aImHcRmZKfCmt/eVnjSk67obo51ZUW/LW/tGSkZ
Vt8fx8FgYiT5Tc+k57BRzUv5f+cTdFf7Vc13Xj18V0fcOEb6LjDisE/9SZlHSahd
DHH1BrykyTW1xKyKloYgvZTkJUPXdRlr1HTJzgRxBQ0E3e4B8NNd7x6Gsteu9O8t
899aRmFrRdaU/wGaeyO8X4i6AUO22dMzNlRxluAtg+o3XIy+dPW+j71xQuoCx4jM
BH9bORF60DuxSvaIouvSPBpY8/avSilv6kHtmB0=
-----END CERTIFICATE-----
