Certificate:
    Data:
        Version: 3 (0x2)
        Serial Number:
            5b:61:dc:37:c0:71:36:87:37:4f:92:c3:4c:e6:22:a1:17:62:cf:82
        Signature Algorithm: sha256WithRSAEncryption
        Issuer: C=US, ST=California, L=Mountain View, O=Test Org
        Validity
            Not Before: Oct 10 17:12:19 2025 GMT
            Not After : Oct 10 17:12:19 2027 GMT
        Subject: C=US, ST=California, L=Mountain View, O=Test Org
        Subject Public Key Info:
            Public Key Algorithm: rsaEncryption
                Public-Key: (2048 bit)
                Modulus:
                    00:a5:20:28:f2:b4:f3:3a:fb:05:70:db:9c:b3:f4:
                    0a:47:ad:5c:cb:7f:64:32:b8:a5:cb:a5:1e:00:20:
                    b7:79:9d:7a:51:f3:ae:60:b1:81:60:d1:94:a6:13:
                    77:49:b3:05:6b:7e:eb:9a:a0:02:be:56:58:56:83:
                    77:44:f0:1f:5c:34:58:3f:a1:17:d4:36:d5:28:25:
                    7f:72:ed:b2:3e:0e:e8:18:96:a9:b3:90:88:c0:8a:
                    9e:64:24:91:e7:6e:ae:ad:74:9b:75:ef:c3:28:77:
                    3d:8a:81:5e:38:35:ed:ec:20:ba:7e:54:42:71:85:
                    98:8e:d5:27:af:34:8f:66:8f:e2:14:47:ad:65:ea:
                    fc:b9:8e:1d:4d:6c:03:eb:7b:0b:e6:57:87:9c:be:
                    73:13:07:14:3d:4c:9b:2f:5a:76:1a:52:71:3a:4e:
                    e5:fc:dc:51:59:1a:21:0a:c0:93:b2:b9:8d:69:5d:
                    f5:c6:50:84:31:09:cc:d4:a7:e2:a3:bb:ac:41:ef:
                    bb:00:cc:1e:11:bd:f7:70:0f:a3:89:0f:6e:af:03:
                    b9:c0:c3:29:76:ac:bf:a2:24:0f:9e:f0:14:3c:93:
                    e4:a3:3e:56:b9:83:41:09:6f:c5:b4:50:ae:b6:43:
                    4d:5d:1b:16:3e:e7:ac:1e:fc:f5:d7:c8:6d:06:a3:
                    4e:d1
                Exponent: 65537 (0x10001)
        X509v3 extensions:
            X509v3 Subject Key Identifier: 
                C4:F5:7A:43:1D:D2:59:DA:45:B6:C8:40:D2:4C:3B:97:BA:D3:AC:51
    Signature Algorithm: sha256WithRSAEncryption
    Signature Value:
        5b:98:19:04:1b:85:63:81:73:74:a2:38:2d:1a:f6:26:25:16:
        6a:1e:39:9a:f1:a8:e5:40:43:5a:b2:81:cc:c1:4f:64:e4:47:
        a8:71:ee:4c:e5:09:ce:c0:9f:aa:04:9b:14:fd:1b:a2:11:b6:
        db:90:3d:52:f3:15:5c:dc:4d:e4:3b:ff:f5:9f:66:b9:c5:09:
        f9:fb:b2:09:b0:69:07:7c:d3:71:69:f1:ab:eb:12:30:16:15:
        77:8e:e6:ba:80:bb:e6:3a:ad:16:1a:1e:de:e1:28:0b:d9:0e:
        2c:d9:3b:2e:71:89:e0:93:c7:fa:42:37:7a:8c:35:0a:dd:cc:
        c4:2f:91:9c:76:43:f1:21:95:9d:4b:04:77:91:84:3e:b1:0b:
        b0:8d:53:1c:0b:3a:e3:ef:27:2e:90:53:15:e0:a9:a0:89:78:
        c7:21:d1:8b:94:6d:35:e8:a7:fe:57:5b:c8:16:eb:fb:ee:9c:
        bf:5d:9d:84:1a:cc:75:43:c3:52:2b:53:e4:93:ce:e2:5d:46:
        55:77:e2:e1:ac:96:4d:06:7c:17:cb:f0:26:f2:a0:c7:9a:7c:
        8d:cc:09:a1:83:c1:9a:18:0f:19:3c:dd:26:05:37:d1:d8:71:
        e1:cf:48:07:ca:88:e3:9c:08:72:6d:78:e8:33:66:e3:cd:33:
        8f:87:9c:55
-----BEGIN CERTIFICATE-----
MIIDSTCCAjGgAwIBAgIUW2HcN8BxNoc3T5LDTOYioRdiz4IwDQYJKoZIhvcNAQEL
BQAwTTELMAkGA1UEBhMCVVMxEzARBgNVBAgMCkNhbGlmb3JuaWExFjAUBgNVBAcM
DU1vdW50YWluIFZpZXcxETAPBgNVBAoMCFRlc3QgT3JnMB4XDTI1MTAxMDE3MTIx
OVoXDTI3MTAxMDE3MTIxOVowTTELMAkGA1UEBhMCVVMxEzARBgNVBAgMCkNhbGlm
b3JuaWExFjAUBgNVBAcMDU1vdW50YWluIFZpZXcxETAPBgNVBAoMCFRlc3QgT3Jn
MIIBIjANBgkqhkiG9w0BAQEFAAOCAQ8AMIIBCgKCAQEApSAo8rTzOvsFcNucs/QK
R61cy39kMrily6UeACC3eZ16UfOuYLGBYNGUphN3SbMFa37rmqACvlZYVoN3RPAf
XDRYP6EX1DbVKCV/cu2yPg7oGJaps5CIwIqeZCSR526urXSbde/DKHc9ioFeODXt
7CC6flRCcYWYjtUnrzSPZo/iFEetZer8uY4dTWwD63sL5leHnL5zEwcUPUybL1p2
GlJxOk7l/NxRWRohCsCTsrmNaV31xlCEMQnM1Kfio7usQe+7AMweEb33cA+jiQ9u
rwO5wMMpdqy/oiQPnvAUPJPkoz5WuYNBCW/FtFCutkNNXRsWPuesHvz118htBqNO
0QIDAQABoyEwHzAdBgNVHQ4EFgQUxPV6Qx3SWdpFtshA0kw7l7rTrFEwDQYJKoZI
hvcNAQELBQADggEBAFuYGQQbhWOBc3SiOC0a9iYlFmoeOZrxqOVAQ1qygczBT2Tk
R6hx7kzlCc7An6oEmxT9G6IRttuQPVLzFVzcTeQ7//WfZrnFCfn7sgmwaQd803Fp
8avrEjAWFXeO5rqAu+Y6rRYaHt7hKAvZDizZOy5xieCTx/pCN3qMNQrdzMQvkZx2
Q/EhlZ1LBHeRhD6xC7CNUxwLOuPvJy6QUxXgqaCJeMch0YuUbTXop/5XW8gW6/vu
nL9dnYQazHVDw1IrU+STzuJdRlV34uGslk0GfBfL8CbyoMeafI3MCaGDwZoYDxk8
3SYFN9HYceHPSAfKiOOcCHJteOgzZuPNM4+HnFU=
-----END CERTIFICATE-----
