Certificate:
    Data:
        Version: 1 (0x0)
        Serial Number:
            67:7c:da:93:dd:1e:fa:5d:6b:34:fc:48:d2:10:59:da:8c:4e:65:92
        Signature Algorithm: sha256WithRSAEncryption
        Issuer: C = US, ST = California, L = Mountain View, O = Test Org
        Validity
            Not Before: Dec  1 15:42:30 2021 GMT
            Not After : Dec  1 15:42:30 2023 GMT
        Subject: C = US, ST = California, L = Mountain View, O = Test Org
        Subject Public Key Info:
            Public Key Algorithm: rsaEncryption
                RSA Public-Key: (2048 bit)
                Modulus:
                    00:d7:f6:76:ec:2b:92:4e:c7:3e:6e:c5:f2:de:12:
                    e4:58:f8:a7:07:97:98:3a:ea:da:f7:36:b9:bf:ed:
                    f1:e6:67:cc:38:f6:73:70:48:da:ef:88:44:78:eb:
                    15:db:9b:83:d8:60:ae:ac:f9:83:e8:a0:5a:c8:48:
                    0e:96:6b:c8:a5:05:a0:11:45:ce:22:30:7e:cc:ef:
                    0f:13:dc:f4:93:a8:db:13:85:db:7f:3c:6e:ce:9e:
                    cb:0e:bb:ee:de:3e:df:30:f1:6f:50:44:1e:67:84:
                    36:e2:fb:9d:6d:30:2d:0d:34:13:c1:26:e6:18:07:
                    19:c6:68:dc:3e:3c:33:f0:7e:8e:77:78:36:15:b4:
                    2c:fe:9a:16:79:2c:e0:2e:ce:a0:7d:e7:60:15:be:
                    e4:e6:7b:67:b4:a5:8b:10:9c:4e:bc:b8:f7:bc:49:
                    46:4f:49:22:77:27:ca:42:ec:9c:6f:7b:b3:83:73:
                    73:1f:87:19:f9:95:14:80:60:08:f9:0a:0c:e8:45:
                    2b:82:ea:44:0a:2c:13:77:2e:15:ce:a4:49:05:1f:
                    57:92:09:47:31:ce:39:61:26:bb:1b:89:b7:71:f2:
                    b9:07:67:79:2c:fe:e3:fd:b1:17:2b:d4:d8:bb:2a:
                    b8:6c:ae:88:c5:84:28:40:e8:c5:1a:2b:ee:75:35:
                    e2:71
                Exponent: 65537 (0x10001)
    Signature Algorithm: sha256WithRSAEncryption
         15:d0:f9:e2:be:d5:27:94:cb:fe:7b:ee:21:0f:2d:24:c3:f8:
         14:a0:02:a7:79:1d:11:31:fe:2b:9e:8c:b1:b4:70:20:1c:c0:
         47:1d:ac:61:f7:25:11:fa:3a:b4:35:90:f5:8f:a9:14:33:5e:
         63:fa:7d:30:dc:b6:fd:ce:71:a5:38:7e:b9:fb:84:cd:53:b9:
         2a:77:79:10:e6:3f:6f:0e:5f:9c:33:e4:5e:d7:16:b4:33:aa:
         65:4a:44:6e:e5:4e:21:a4:c9:02:15:03:60:02:c5:44:c9:78:
         21:72:63:92:6e:a4:8c:2c:6a:14:7a:0a:a9:a4:2d:dd:2e:a8:
         39:1e:bc:82:9e:db:86:a3:1e:4e:6c:b1:3f:33:ae:12:f3:ae:
         93:f3:b3:88:c8:2b:c4:46:77:dd:b0:fd:3e:cb:e9:e9:ab:d2:
         8f:d7:2c:96:cd:36:79:7c:9b:76:ea:c2:d5:7c:dd:af:ee:86:
         86:ac:65:ed:95:47:2c:bc:6e:40:f9:72:e7:46:91:1f:39:7b:
         bc:11:21:d2:13:0e:32:aa:07:0a:5a:e3:48:05:78:c1:02:0b:
         69:03:76:b7:fa:9a:cf:06:0c:7d:3b:db:97:98:67:7a:ff:24:
         45:f5:61:26:72:cd:61:b7:ac:b8:4a:04:51:95:44:1d:d7:96:
         bc:96:20:79
-----BEGIN CERTIFICATE-----
MIIDITCCAgkCFGd82pPdHvpdazT8SNIQWdqMTmWSMA0GCSqGSIb3DQEBCwUAME0x
CzAJBgNVBAYTAlVTMRMwEQYDVQQIDApDYWxpZm9ybmlhMRYwFAYDVQQHDA1Nb3Vu
dGFpbiBWaWV3MREwDwYDVQQKDAhUZXN0IE9yZzAeFw0yMTEyMDExNTQyMzBaFw0y
MzEyMDExNTQyMzBaME0xCzAJBgNVBAYTAlVTMRMwEQYDVQQIDApDYWxpZm9ybmlh
MRYwFAYDVQQHDA1Nb3VudGFpbiBWaWV3MREwDwYDVQQKDAhUZXN0IE9yZzCCASIw
DQYJKoZIhvcNAQEBBQADggEPADCCAQoCggEBANf2duwrkk7HPm7F8t4S5Fj4pweX
mDrq2vc2ub/t8eZnzDj2c3BI2u+IRHjrFdubg9hgrqz5g+igWshIDpZryKUFoBFF
ziIwfszvDxPc9JOo2xOF2388bs6eyw677t4+3zDxb1BEHmeENuL7nW0wLQ00E8Em
5hgHGcZo3D48M/B+jnd4NhW0LP6aFnks4C7OoH3nYBW+5OZ7Z7SlixCcTry497xJ
Rk9JIncnykLsnG97s4Nzcx+HGfmVFIBgCPkKDOhFK4LqRAosE3cuFc6kSQUfV5IJ
RzHOOWEmuxuJt3HyuQdneSz+4/2xFyvU2LsquGyuiMWEKEDoxRor7nU14nECAwEA
ATANBgkqhkiG9w0BAQsFAAOCAQEAFdD54r7VJ5TL/nvuIQ8tJMP4FKACp3kdETH+
K56MsbRwIBzARx2sYfclEfo6tDWQ9Y+pFDNeY/p9MNy2/c5xpTh+ufuEzVO5Knd5
EOY/bw5fnDPkXtcWtDOqZUpEbuVOIaTJAhUDYALFRMl4IXJjkm6kjCxqFHoKqaQt
3S6oOR68gp7bhqMeTmyxPzOuEvOuk/OziMgrxEZ33bD9Psvp6avSj9csls02eXyb
durC1Xzdr+6Ghqxl7ZVHLLxuQPly50aRHzl7vBEh0hMOMqoHClrjSAV4wQILaQN2
t/qazwYMfTvbl5hnev8kRfVhJnLNYbesuEoEUZVEHdeWvJYgeQ==
-----END CERTIFICATE-----
