Certificate:
    Data:
        Version: 1 (0x0)
        Serial Number:
            31:50:cc:1a:80:23:f6:67:14:20:93:99:25:65:eb:fd:2d:ef:ed:cd
        Signature Algorithm: sha256WithRSAEncryption
        Issuer: C = US, ST = California, L = Mountain View, O = Test Org
        Validity
            Not Before: Oct 30 18:43:24 2023 GMT
            Not After : Oct 29 18:43:24 2025 GMT
        Subject: C = US, ST = California, L = Mountain View, O = Test Org
        Subject Public Key Info:
            Public Key Algorithm: rsaEncryption
                Public-Key: (2048 bit)
                Modulus:
                    00:96:9d:57:66:04:56:1b:e6:8a:9a:80:7e:86:74:
                    81:56:13:7e:fb:42:6c:51:8a:2c:f6:2a:a7:1a:fb:
                    b7:e2:15:bf:b2:e4:01:74:fd:f0:85:8c:c7:a1:fc:
                    b0:5f:7c:2c:62:05:bd:e7:18:cb:14:37:98:ed:0b:
                    4d:ec:94:19:61:13:d0:ac:d2:17:ee:c9:ea:17:04:
                    7c:b1:d5:a1:b0:3b:58:50:31:ea:75:35:d1:16:d7:
                    25:e4:c7:34:2f:15:91:fc:b1:6d:38:03:84:de:78:
                    4f:1d:68:29:07:84:5a:1c:e1:1e:52:25:c2:be:9d:
                    64:9a:90:c0:79:f9:e8:e4:9d:df:b6:ca:b6:d1:68:
                    0d:5d:7f:f2:72:3c:f9:12:55:58:36:38:49:3d:3d:
                    16:8d:ec:7b:0e:6e:1f:16:01:c4:d0:a1:f7:0d:39:
                    92:1d:02:be:20:3e:b2:7a:d5:3a:d5:57:78:17:50:
                    38:6c:b5:2e:fc:4d:d0:c3:23:0a:c0:48:7b:cf:fb:
                    d6:f0:df:7d:0b:03:cb:7d:09:fc:a8:3d:a3:7b:5d:
                    58:ce:f4:49:2b:8e:17:0b:15:6f:b9:a7:b5:fa:7c:
                    63:62:07:7b:d3:f6:0c:30:36:35:01:5d:38:2f:60:
                    35:94:55:68:80:15:b4:52:3a:61:fa:cb:85:ea:e0:
                    3c:fd
                Exponent: 65537 (0x10001)
    Signature Algorithm: sha256WithRSAEncryption
    Signature Value:
        7e:37:91:4a:0c:56:81:a9:5c:32:0f:ae:e3:a0:fd:f8:3d:66:
        8d:1f:d5:a1:87:e0:d8:6b:81:66:86:21:e5:4d:f6:42:54:79:
        fd:94:01:c9:7b:f2:a7:69:35:c8:d3:a9:4f:44:5a:53:15:71:
        2e:b4:c2:b5:01:83:75:3a:44:40:ce:af:02:88:03:8e:38:4b:
        e2:d8:a5:d3:20:c8:c6:e3:d1:b7:72:d9:ec:0c:36:f3:c2:da:
        db:63:5f:ac:4e:45:89:33:7e:36:4d:ff:2a:0a:e5:32:fd:62:
        e9:ef:46:5d:3d:07:c3:79:18:17:d3:78:5a:6d:ff:c8:ac:78:
        73:a7:84:0b:13:e7:cf:db:2f:cb:7e:f4:a1:71:17:3f:a2:6b:
        48:31:eb:cb:7c:fd:f8:41:5a:44:ef:85:cc:2b:1e:6f:32:1c:
        14:a3:9a:19:c7:64:98:1e:0a:02:4b:61:4b:dc:8b:d2:79:d7:
        37:65:ee:87:be:8a:42:0c:3b:a6:5d:16:8a:8c:0e:45:ea:c2:
        bd:45:d0:b1:31:b3:62:07:1a:41:f8:cc:03:31:2f:5d:e0:d5:
        24:e2:14:3c:5b:63:4a:f0:7f:7c:31:71:70:bf:dd:8d:bc:c4:
        17:9e:d0:70:1d:fe:c6:47:62:c9:eb:08:fa:7c:d1:e4:5e:ab:
        ba:0b:21:8a
-----BEGIN CERTIFICATE-----
MIIDITCCAgkCFDFQzBqAI/ZnFCCTmSVl6/0t7+3NMA0GCSqGSIb3DQEBCwUAME0x
CzAJBgNVBAYTAlVTMRMwEQYDVQQIDApDYWxpZm9ybmlhMRYwFAYDVQQHDA1Nb3Vu
dGFpbiBWaWV3MREwDwYDVQQKDAhUZXN0IE9yZzAeFw0yMzEwMzAxODQzMjRaFw0y
NTEwMjkxODQzMjRaME0xCzAJBgNVBAYTAlVTMRMwEQYDVQQIDApDYWxpZm9ybmlh
MRYwFAYDVQQHDA1Nb3VudGFpbiBWaWV3MREwDwYDVQQKDAhUZXN0IE9yZzCCASIw
DQYJKoZIhvcNAQEBBQADggEPADCCAQoCggEBAJadV2YEVhvmipqAfoZ0gVYTfvtC
bFGKLPYqpxr7t+IVv7LkAXT98IWMx6H8sF98LGIFvecYyxQ3mO0LTeyUGWET0KzS
F+7J6hcEfLHVobA7WFAx6nU10RbXJeTHNC8VkfyxbTgDhN54Tx1oKQeEWhzhHlIl
wr6dZJqQwHn56OSd37bKttFoDV1/8nI8+RJVWDY4ST09Fo3sew5uHxYBxNCh9w05
kh0CviA+snrVOtVXeBdQOGy1LvxN0MMjCsBIe8/71vDffQsDy30J/Kg9o3tdWM70
SSuOFwsVb7mntfp8Y2IHe9P2DDA2NQFdOC9gNZRVaIAVtFI6YfrLhergPP0CAwEA
ATANBgkqhkiG9w0BAQsFAAOCAQEAfjeRSgxWgalcMg+u46D9+D1mjR/VoYfg2GuB
ZoYh5U32QlR5/ZQByXvyp2k1yNOpT0RaUxVxLrTCtQGDdTpEQM6vAogDjjhL4til
0yDIxuPRt3LZ7Aw288La22NfrE5FiTN+Nk3/KgrlMv1i6e9GXT0Hw3kYF9N4Wm3/
yKx4c6eECxPnz9svy370oXEXP6JrSDHry3z9+EFaRO+FzCsebzIcFKOaGcdkmB4K
AkthS9yL0nnXN2Xuh76KQgw7pl0WiowORerCvUXQsTGzYgcaQfjMAzEvXeDVJOIU
PFtjSvB/fDFxcL/djbzEF57QcB3+xkdiyesI+nzR5F6rugshig==
-----END CERTIFICATE-----
