Certificate:
    Data:
        Version: 1 (0x0)
        Serial Number:
            76:70:77:fb:69:b5:13:08:c1:79:b8:d7:95:33:03:52:f0:1a:61:13
        Signature Algorithm: sha256WithRSAEncryption
        Issuer: C = US, ST = California, L = Mountain View, O = Test Org
        Validity
            Not Before: Apr 10 18:36:42 2020 GMT
            Not After : Apr 10 18:36:42 2022 GMT
        Subject: C = US, ST = California, L = Mountain View, O = Test Org
        Subject Public Key Info:
            Public Key Algorithm: rsaEncryption
                RSA Public-Key: (2048 bit)
                Modulus:
                    00:bd:83:f9:36:21:cf:0c:f0:fe:30:71:90:e5:bb:
                    9b:77:67:00:5f:43:96:c1:a6:99:06:bf:d2:41:27:
                    f9:d5:7f:be:5f:3a:55:a6:ff:4c:7c:07:fe:36:4f:
                    9f:46:54:2d:3e:d9:13:ab:e3:e0:66:45:b6:ac:5a:
                    62:21:13:f9:52:d9:20:c9:a7:92:b1:47:b1:46:98:
                    8e:6a:e6:3e:48:2c:a2:ac:3a:65:b0:ce:7a:14:14:
                    7f:88:d1:93:4a:9c:4d:dc:e8:89:ba:8b:68:c7:f0:
                    3f:b7:80:de:97:4d:9c:16:2c:66:a7:e0:37:bd:9f:
                    01:ed:dd:4a:bb:3b:d3:67:58:27:c5:e9:a6:8e:97:
                    4a:35:02:00:04:ea:78:65:a3:d0:01:e8:8c:ef:88:
                    e2:fe:d8:77:a0:60:8e:08:a1:b1:90:e5:8d:4e:2b:
                    7d:a8:b2:17:24:81:e2:6b:85:68:ee:11:41:65:d1:
                    5b:08:d3:a8:2d:2a:98:7e:1d:c4:a9:8f:7f:ec:69:
                    2a:97:a8:5c:bc:d2:85:de:a6:53:5f:73:8e:ca:97:
                    66:d4:04:41:d8:ef:20:12:0c:3b:21:75:dc:6d:69:
                    2b:00:a3:e4:09:9a:53:8e:be:f6:92:40:2e:a6:4f:
                    55:d4:59:34:18:8b:79:0b:19:98:0d:c5:48:45:db:
                    b1:5b
                Exponent: 65537 (0x10001)
    Signature Algorithm: sha256WithRSAEncryption
         70:b2:c2:f6:4f:8e:82:a2:fc:6c:0e:a4:1a:e9:ee:90:ff:0c:
         70:f3:a3:77:bd:21:76:3d:83:58:12:27:33:9c:1e:74:0d:7f:
         19:bd:80:4a:ec:29:48:2b:09:5e:d7:f3:1a:db:39:f8:ca:f6:
         b1:51:f8:84:86:2e:f7:d1:7b:84:93:dd:63:c0:d3:2a:da:3b:
         be:75:bf:9e:3f:02:ea:82:1f:13:3a:ab:1c:40:a1:16:a2:31:
         91:71:50:7a:9f:a3:97:37:a6:77:77:84:85:65:3c:4c:47:d8:
         ef:42:f5:b4:dc:87:1f:2a:3a:b0:72:4f:6f:75:b2:b0:60:f3:
         ff:a2:e9:f0:ec:a8:b5:a1:dc:1a:74:1d:f3:4a:13:9e:1f:06:
         c8:c6:c9:6e:b0:9a:67:e8:90:b5:38:51:ce:8f:96:f4:89:f8:
         b2:b4:44:f5:35:98:20:32:a1:e6:7a:ee:8d:88:9c:cb:fc:36:
         a3:3d:4b:8a:6f:4a:e0:0b:21:b7:5d:9d:68:ab:88:60:7f:db:
         61:a0:cd:0a:76:bb:b4:19:36:79:84:c3:ea:69:67:50:60:e3:
         20:9a:74:74:8f:44:52:fa:b4:31:6b:0d:12:37:38:bc:39:f7:
         b6:d9:07:10:89:31:50:2a:20:a7:2f:16:df:a6:4c:0c:ae:70:
         93:24:30:ef
-----BEGIN CERTIFICATE-----
MIIDITCCAgkCFHZwd/tptRMIwXm415UzA1LwGmETMA0GCSqGSIb3DQEBCwUAME0x
CzAJBgNVBAYTAlVTMRMwEQYDVQQIDApDYWxpZm9ybmlhMRYwFAYDVQQHDA1Nb3Vu
dGFpbiBWaWV3MREwDwYDVQQKDAhUZXN0IE9yZzAeFw0yMDA0MTAxODM2NDJaFw0y
MjA0MTAxODM2NDJaME0xCzAJBgNVBAYTAlVTMRMwEQYDVQQIDApDYWxpZm9ybmlh
MRYwFAYDVQQHDA1Nb3VudGFpbiBWaWV3MREwDwYDVQQKDAhUZXN0IE9yZzCCASIw
DQYJKoZIhvcNAQEBBQADggEPADCCAQoCggEBAL2D+TYhzwzw/jBxkOW7m3dnAF9D
lsGmmQa/0kEn+dV/vl86Vab/THwH/jZPn0ZULT7ZE6vj4GZFtqxaYiET+VLZIMmn
krFHsUaYjmrmPkgsoqw6ZbDOehQUf4jRk0qcTdzoibqLaMfwP7eA3pdNnBYsZqfg
N72fAe3dSrs702dYJ8Xppo6XSjUCAATqeGWj0AHojO+I4v7Yd6BgjgihsZDljU4r
faiyFySB4muFaO4RQWXRWwjTqC0qmH4dxKmPf+xpKpeoXLzShd6mU19zjsqXZtQE
QdjvIBIMOyF13G1pKwCj5AmaU46+9pJALqZPVdRZNBiLeQsZmA3FSEXbsVsCAwEA
ATANBgkqhkiG9w0BAQsFAAOCAQEAcLLC9k+OgqL8bA6kGunukP8McPOjd70hdj2D
WBInM5wedA1/Gb2ASuwpSCsJXtfzGts5+Mr2sVH4hIYu99F7hJPdY8DTKto7vnW/
nj8C6oIfEzqrHEChFqIxkXFQep+jlzemd3eEhWU8TEfY70L1tNyHHyo6sHJPb3Wy
sGDz/6Lp8OyotaHcGnQd80oTnh8GyMbJbrCaZ+iQtThRzo+W9In4srRE9TWYIDKh
5nrujYicy/w2oz1Lim9K4Asht12daKuIYH/bYaDNCna7tBk2eYTD6mlnUGDjIJp0
dI9EUvq0MWsNEjc4vDn3ttkHEIkxUCogpy8W36ZMDK5wkyQw7w==
-----END CERTIFICATE-----
