Certificate:
    Data:
        Version: 1 (0x0)
        Serial Number:
            05:1a:d9:14:e2:4e:b8:9f:be:d0:25:9e:80:e4:f8:22:bc:71:9d:be
        Signature Algorithm: sha256WithRSAEncryption
        Issuer: C = US, ST = California, L = Mountain View, O = Test Org
        Validity
            Not Before: Oct  3 17:20:32 2022 GMT
            Not After : Oct  2 17:20:32 2024 GMT
        Subject: C = US, ST = California, L = Mountain View, O = Test Org
        Subject Public Key Info:
            Public Key Algorithm: rsaEncryption
                Public-Key: (2048 bit)
                Modulus:
                    00:9f:e4:ed:a7:ff:2d:7e:3b:26:5a:d2:5f:5e:81:
                    5d:b7:b0:c7:b6:7c:dc:0b:5c:b2:f5:0f:f6:ee:7b:
                    34:cc:4b:91:c4:bf:36:ea:0c:4c:c2:b6:d8:8f:5d:
                    35:cc:1e:63:43:a8:3f:e6:36:47:1a:fa:c7:30:89:
                    8d:5f:cd:74:66:69:1c:50:69:6d:b6:ac:25:95:ef:
                    49:fb:1b:7f:13:45:1b:8a:2d:88:06:4c:b4:36:20:
                    a2:6e:44:e5:f9:fe:e4:84:de:93:64:7f:22:22:46:
                    3e:5c:f6:c3:6b:a2:66:05:27:a6:29:91:3d:70:8b:
                    b9:f3:07:85:01:e7:79:25:aa:8f:88:b4:8f:6a:17:
                    a7:5f:23:5a:50:5e:f0:ce:52:f5:1c:a5:b0:d2:76:
                    8a:f7:75:7f:0e:57:e9:c3:74:2c:f1:ad:25:9a:4c:
                    4b:ad:f9:91:a7:e2:18:db:19:79:7c:6f:1d:8f:c0:
                    ad:f7:39:ae:6b:1c:75:9e:30:70:04:81:f9:33:25:
                    38:aa:df:0d:ad:73:2e:b1:5c:03:99:a0:7f:01:db:
                    62:c9:77:ed:da:9b:e6:92:0c:a8:f9:51:f0:66:0b:
                    8c:0f:00:a5:fa:5d:9b:14:e0:5f:57:0a:75:a5:cc:
                    a2:ba:f9:06:9b:bd:6b:d9:d7:c1:e0:02:b4:d0:c2:
                    b9:1f
                Exponent: 65537 (0x10001)
    Signature Algorithm: sha256WithRSAEncryption
    Signature Value:
        42:f5:17:0a:da:d7:5c:2c:1f:af:04:99:e9:d9:d6:4c:0c:d6:
        cb:ac:6d:0d:4c:0f:b0:3a:18:36:ab:68:d2:5f:8e:d9:e0:13:
        a2:64:bf:72:33:7f:86:c2:26:d8:40:5c:af:38:0b:5b:22:30:
        dc:88:4f:5f:73:b0:0b:60:b9:30:be:8d:b9:54:9e:f9:2d:c8:
        fb:d1:07:49:56:16:7a:8f:f2:7e:c4:c0:9b:be:f4:2d:a7:4c:
        de:eb:cc:d5:fe:6f:ab:cf:65:15:f6:ab:1f:ed:1f:5d:09:4a:
        65:aa:3e:5c:55:af:21:d9:ea:2c:4e:d4:f9:37:70:84:12:f5:
        99:fb:89:d0:eb:9d:d2:62:b6:03:43:0f:e7:72:22:16:58:58:
        a3:7c:b8:ee:f1:fd:76:73:5d:31:08:82:68:78:9b:9c:88:3e:
        53:b8:76:0e:a4:9e:36:95:7f:f5:18:d5:32:fb:08:54:1c:89:
        8e:73:80:13:99:39:32:79:ba:c1:00:aa:d3:ab:05:a6:d1:27:
        fb:22:95:68:2f:c1:7a:5a:92:73:6a:de:0e:b4:c5:c8:9f:e6:
        4e:8b:68:d2:23:5d:3c:16:54:02:dd:90:12:4e:fb:2c:a5:3b:
        42:46:bb:67:e6:bb:1b:f6:94:75:30:91:28:cd:a1:db:6e:1d:
        be:db:be:f8
-----BEGIN CERTIFICATE-----
MIIDITCCAgkCFAUa2RTiTrifvtAlnoDk+CK8cZ2+MA0GCSqGSIb3DQEBCwUAME0x
CzAJBgNVBAYTAlVTMRMwEQYDVQQIDApDYWxpZm9ybmlhMRYwFAYDVQQHDA1Nb3Vu
dGFpbiBWaWV3MREwDwYDVQQKDAhUZXN0IE9yZzAeFw0yMjEwMDMxNzIwMzJaFw0y
NDEwMDIxNzIwMzJaME0xCzAJBgNVBAYTAlVTMRMwEQYDVQQIDApDYWxpZm9ybmlh
MRYwFAYDVQQHDA1Nb3VudGFpbiBWaWV3MREwDwYDVQQKDAhUZXN0IE9yZzCCASIw
DQYJKoZIhvcNAQEBBQADggEPADCCAQoCggEBAJ/k7af/LX47JlrSX16BXbewx7Z8
3AtcsvUP9u57NMxLkcS/NuoMTMK22I9dNcweY0OoP+Y2Rxr6xzCJjV/NdGZpHFBp
bbasJZXvSfsbfxNFG4otiAZMtDYgom5E5fn+5ITek2R/IiJGPlz2w2uiZgUnpimR
PXCLufMHhQHneSWqj4i0j2oXp18jWlBe8M5S9RylsNJ2ivd1fw5X6cN0LPGtJZpM
S635kafiGNsZeXxvHY/Arfc5rmscdZ4wcASB+TMlOKrfDa1zLrFcA5mgfwHbYsl3
7dqb5pIMqPlR8GYLjA8ApfpdmxTgX1cKdaXMorr5Bpu9a9nXweACtNDCuR8CAwEA
ATANBgkqhkiG9w0BAQsFAAOCAQEAQvUXCtrXXCwfrwSZ6dnWTAzWy6xtDUwPsDoY
Nqto0l+O2eATomS/cjN/hsIm2EBcrzgLWyIw3IhPX3OwC2C5ML6NuVSe+S3I+9EH
SVYWeo/yfsTAm770LadM3uvM1f5vq89lFfarH+0fXQlKZao+XFWvIdnqLE7U+Tdw
hBL1mfuJ0Oud0mK2A0MP53IiFlhYo3y47vH9dnNdMQiCaHibnIg+U7h2DqSeNpV/
9RjVMvsIVByJjnOAE5k5Mnm6wQCq06sFptEn+yKVaC/BelqSc2reDrTFyJ/mToto
0iNdPBZUAt2QEk77LKU7Qka7Z+a7G/aUdTCRKM2h224dvtu++A==
-----END CERTIFICATE-----
