Certificate:
    Data:
        Version: 1 (0x0)
        Serial Number:
            65:ad:2c:a8:8f:5b:87:7e:bd:01:50:a0:e1:91:7c:d6:bb:00:81:c3
        Signature Algorithm: sha256WithRSAEncryption
        Issuer: C = US, ST = California, O = Test Org
        Validity
            Not Before: Oct 30 18:43:24 2023 GMT
            Not After : Oct 29 18:43:24 2025 GMT
        Subject: C = US, ST = California, O = Test Org
        Subject Public Key Info:
            Public Key Algorithm: rsaEncryption
                Public-Key: (2048 bit)
                Modulus:
                    00:b5:8b:a8:f7:ad:c0:74:bf:07:27:a2:66:1d:55:
                    b7:78:be:e5:f1:23:32:0b:e0:5f:74:3b:02:59:b2:
                    3c:3b:34:23:aa:c5:ea:0b:2b:fc:07:02:bd:b4:7b:
                    72:c3:28:74:9f:64:ae:95:7b:ee:07:a4:3b:a6:60:
                    bf:3f:43:b0:78:25:73:fb:2f:c8:c2:74:6d:31:f4:
                    6e:a9:f6:ae:7e:15:34:aa:18:65:42:51:b0:7f:39:
                    db:05:c8:a5:bd:e8:d0:6e:b0:16:3f:d7:70:96:58:
                    22:32:66:7f:71:4b:70:f4:b5:ec:6c:12:7c:79:30:
                    10:48:23:c0:a3:36:a8:e6:89:f5:e8:89:5a:01:fd:
                    34:72:e8:ac:bb:08:08:ea:97:bf:e0:71:23:b4:66:
                    15:e4:78:da:5d:94:0a:57:46:cc:78:84:65:7b:26:
                    33:96:8d:87:63:50:63:25:fb:e0:07:12:3b:a0:1d:
                    b9:84:d2:24:76:ac:3c:ec:d5:58:86:96:9c:c9:45:
                    29:a4:66:40:75:76:a7:5a:17:4c:e9:68:4f:13:c1:
                    bd:0d:4c:0c:89:fa:71:6b:c7:2c:75:f1:d0:6e:eb:
                    ba:55:61:88:cf:ad:dd:eb:67:6b:5c:6b:64:57:07:
                    eb:fa:16:d5:3d:b0:e1:bc:91:00:0c:71:4e:3c:d8:
                    68:9d
                Exponent: 65537 (0x10001)
    Signature Algorithm: sha256WithRSAEncryption
    Signature Value:
        42:f9:33:cb:fd:5b:92:31:1d:32:3d:4e:6c:54:e9:0f:b3:04:
        25:a7:4b:aa:50:52:27:15:c4:95:7b:87:8c:d5:d7:41:47:2f:
        4b:f7:e9:a8:a6:60:a1:c8:1b:20:52:1e:b7:a5:89:05:91:0a:
        d9:c7:03:84:13:27:75:81:6a:31:1b:3f:2f:49:61:cc:81:70:
        23:5c:fb:97:07:7b:0f:ca:f6:90:cf:ad:92:4f:7b:68:af:b8:
        03:14:c3:46:35:8d:76:11:22:67:e4:6e:17:3d:12:ba:83:4e:
        50:b3:c7:0b:02:df:57:27:7f:38:94:71:19:7b:2c:1d:0c:67:
        87:6b:ef:15:8c:86:22:2c:47:07:b6:a7:59:0f:d2:67:0e:80:
        ab:2a:c1:a8:72:4e:b1:68:99:da:75:41:08:99:0b:3f:c2:87:
        31:19:ad:a0:1d:8b:21:7b:d2:73:2a:5f:4c:1d:cd:4c:a7:7c:
        93:4b:03:0f:d3:c4:05:09:68:a7:9d:6f:11:4c:7f:3e:a1:a2:
        d7:ea:3a:df:60:60:71:a4:36:6e:8e:e7:5b:c7:47:82:ce:98:
        0e:e4:2b:fa:24:f5:7a:9e:56:4f:27:c3:fc:d1:97:95:84:ac:
        f6:f6:d2:25:9b:30:c7:73:0c:40:1d:1d:88:a0:33:d0:e0:e8:
        d3:ae:11:c9
-----BEGIN CERTIFICATE-----
MIIC8TCCAdkCFGWtLKiPW4d+vQFQoOGRfNa7AIHDMA0GCSqGSIb3DQEBCwUAMDUx
CzAJBgNVBAYTAlVTMRMwEQYDVQQIDApDYWxpZm9ybmlhMREwDwYDVQQKDAhUZXN0
IE9yZzAeFw0yMzEwMzAxODQzMjRaFw0yNTEwMjkxODQzMjRaMDUxCzAJBgNVBAYT
AlVTMRMwEQYDVQQIDApDYWxpZm9ybmlhMREwDwYDVQQKDAhUZXN0IE9yZzCCASIw
DQYJKoZIhvcNAQEBBQADggEPADCCAQoCggEBALWLqPetwHS/ByeiZh1Vt3i+5fEj
MgvgX3Q7AlmyPDs0I6rF6gsr/AcCvbR7csModJ9krpV77gekO6Zgvz9DsHglc/sv
yMJ0bTH0bqn2rn4VNKoYZUJRsH852wXIpb3o0G6wFj/XcJZYIjJmf3FLcPS17GwS
fHkwEEgjwKM2qOaJ9eiJWgH9NHLorLsICOqXv+BxI7RmFeR42l2UCldGzHiEZXsm
M5aNh2NQYyX74AcSO6AduYTSJHasPOzVWIaWnMlFKaRmQHV2p1oXTOloTxPBvQ1M
DIn6cWvHLHXx0G7rulVhiM+t3etna1xrZFcH6/oW1T2w4byRAAxxTjzYaJ0CAwEA
ATANBgkqhkiG9w0BAQsFAAOCAQEAQvkzy/1bkjEdMj1ObFTpD7MEJadLqlBSJxXE
lXuHjNXXQUcvS/fpqKZgocgbIFIet6WJBZEK2ccDhBMndYFqMRs/L0lhzIFwI1z7
lwd7D8r2kM+tkk97aK+4AxTDRjWNdhEiZ+RuFz0SuoNOULPHCwLfVyd/OJRxGXss
HQxnh2vvFYyGIixHB7anWQ/SZw6AqyrBqHJOsWiZ2nVBCJkLP8KHMRmtoB2LIXvS
cypfTB3NTKd8k0sDD9PEBQlop51vEUx/PqGi1+o632BgcaQ2bo7nW8dHgs6YDuQr
+iT1ep5WTyfD/NGXlYSs9vbSJZswx3MMQB0diKAz0ODo064RyQ==
-----END CERTIFICATE-----
