-----BEGIN PRIVATE KEY-----
MIIEvAIBADANBgkqhkiG9w0BAQEFAASCBKYwggSiAgEAAoIBAQC3I3bZDnNngrCP
srB5V+Pbtr1g3LZ7kvqzsSGRSztLiIuoJaBQrV/5EJIkf0az7bJGlBXkbPd4inTZ
t5+MvaWe8qkMLtmVr9QntK5UzVnWEPcgPhp6/sfbTvMAwR5iitqNMkA4j6FVF4jr
CSmQDmdHuzTWEx9qLoaJh+Dpc2RPywAVx8voW+QJGJv8pCJuIJWkuV9+dSXezAf3
2ba5hLn/+ztJqgYbDRSASovnaO59elnC9CYJ11Hh92ryoMNciJpSmpu0dfCk99OT
L1lbdDUKfX9GkVtlwfTUMXpiChvLW49zVlveaTHmKSiiFscbOR5bJ1sNhO2I01op
8cxl7qHJAgMBAAECggEAIJmNhGHQJTLcXxf91fvRMcE7wMxJJ4IoYmg7g3OS4IUz
5wCbowDZvqo2eYy2dzzuqSWfKARFoQ10c3T+T71KiBrGAMcuMDkWWOMOzUWoojRu
6Sxk5lQIG3/YPeAimoQBF3VEfU0D+POxibUd0ujddaVbaGgLBYm2pTCs1qGVz6YT
1JGXqjSeg8r+/gUENo9a00V/XXXUwvmnq9GSQklQz8JkFcPt/WV32CdyoATxUXvX
TDHnWDf0fUtATjYgRJLrBDbLZbrpPca0VUfPTBV2iiaj9Ibk6qH1X9/CczrOm8Mg
IwA+boWkAZhyjlPnY3jf5GR5YevvrrtIogwka6EdAQKBgQDpm8wFvnhFX9YN22Ih
64fosbylvOjtDha7Z7y8elY4B72xZBzkvymlYa+cifNU9Gf0Wc8i9+l+EeQgNl9V
wPyQZfOLCZwHBPS7wfQIYqIuN+LSUjwUvtcl8+Dtlwl98WSrK8FcWYxWJvJB9bCX
9WlqwGsl05gB77gG+kQNpJEh8QKBgQDIsUBdwgsadfcjU9xaDSk2hmaR7axMopKR
vglyEJTrMKd8/XhVKW3JUXF8yN0D0sdUg1HJv9RbT+1s2SsfVux4XcG2upmuzLxB
SsFLW0n1oIB41V+O28iIABvVRkz8VIzQ7BEVI5rWwqvymBGeJ5rfxaZbRMfjKClA
X3S5XLIlWQKBgC2i/QmGOzK6VTPhztr3i1Z/Gm56aDqfTPuReYKMl7lcccds2mQp
oDYpzkfTf1DyajiHLvsS2W+CiUFtvdQf3ndLI3ffCbcpVbI0YrscobhLvKj/3bLj
0V4dtaxUnEsZVGRIKP8kk1DlTOBr4fLdw5lSO9xo6MJAFYBvdcoAg0XRAoGAHBJn
DXZJ9U6Q3hkp1lLG9ACCsmDLXADVfZtWWOUm32rz0pDl1wuvdpx0wl6aQ6GlDhY8
R3sUqh0Y+cO6u2x+MSv0H6okOwYaQwvA09iWFMx5i+1Uq3fkqdlSC1gFBrqQ49xR
W2KakvWx9YH93OBvUmOkLFoHl6eTdZSkkBT+OikCgYBxbC+jy0EwBtkFCo+22H7S
891Zq5vyztVn78PeK7/bC7MT26gZC5Pz3hsue+YDUizoutDXmzhzBZzmLKgS3yDd
ZkfyPXsvzh32VF/GCaBMf0Bv8NNDEIlvwvres6xUgEnxE5xRpTDuD6SJG5eqERwM
S1bbeuh3nNfChmUQE3+0Hg==
-----END PRIVATE KEY-----
Certificate:
    Data:
        Version: 3 (0x2)
        Serial Number:
            3e:2c:9d:be:b0:42:c8:cf:fc:99:42:d5:4d:41:6a:a3
        Signature Algorithm: sha256WithRSAEncryption
        Issuer: C=US, ST=California, L=Mountain View, O=Test CA, CN=Test Root CA
        Validity
            Not Before: Jan  1 00:00:00 2006 GMT
            Not After : Jan  1 00:00:00 2007 GMT
        Subject: C=US, ST=California, L=Mountain View, O=Test CA, CN=127.0.0.1
        Subject Public Key Info:
            Public Key Algorithm: rsaEncryption
                RSA Public-Key: (2048 bit)
                Modulus:
                    00:b7:23:76:d9:0e:73:67:82:b0:8f:b2:b0:79:57:
                    e3:db:b6:bd:60:dc:b6:7b:92:fa:b3:b1:21:91:4b:
                    3b:4b:88:8b:a8:25:a0:50:ad:5f:f9:10:92:24:7f:
                    46:b3:ed:b2:46:94:15:e4:6c:f7:78:8a:74:d9:b7:
                    9f:8c:bd:a5:9e:f2:a9:0c:2e:d9:95:af:d4:27:b4:
                    ae:54:cd:59:d6:10:f7:20:3e:1a:7a:fe:c7:db:4e:
                    f3:00:c1:1e:62:8a:da:8d:32:40:38:8f:a1:55:17:
                    88:eb:09:29:90:0e:67:47:bb:34:d6:13:1f:6a:2e:
                    86:89:87:e0:e9:73:64:4f:cb:00:15:c7:cb:e8:5b:
                    e4:09:18:9b:fc:a4:22:6e:20:95:a4:b9:5f:7e:75:
                    25:de:cc:07:f7:d9:b6:b9:84:b9:ff:fb:3b:49:aa:
                    06:1b:0d:14:80:4a:8b:e7:68:ee:7d:7a:59:c2:f4:
                    26:09:d7:51:e1:f7:6a:f2:a0:c3:5c:88:9a:52:9a:
                    9b:b4:75:f0:a4:f7:d3:93:2f:59:5b:74:35:0a:7d:
                    7f:46:91:5b:65:c1:f4:d4:31:7a:62:0a:1b:cb:5b:
                    8f:73:56:5b:de:69:31:e6:29:28:a2:16:c7:1b:39:
                    1e:5b:27:5b:0d:84:ed:88:d3:5a:29:f1:cc:65:ee:
                    a1:c9
                Exponent: 65537 (0x10001)
        X509v3 extensions:
            X509v3 Basic Constraints: critical
                CA:FALSE
            X509v3 Subject Key Identifier: 
                13:95:38:F8:17:3A:90:4F:19:29:53:12:1E:4D:7B:BB:AE:D9:27:A5
            X509v3 Authority Key Identifier: 
                keyid:9B:26:0B:8A:98:A9:BB:1D:B9:1F:1C:E3:1A:40:33:ED:8E:17:88:AB

            X509v3 Extended Key Usage: 
                TLS Web Server Authentication, TLS Web Client Authentication
            X509v3 Subject Alternative Name: 
                IP Address:127.0.0.1
    Signature Algorithm: sha256WithRSAEncryption
         63:a5:49:11:ed:15:84:22:60:6d:f5:16:be:c8:1e:de:d7:99:
         55:4a:23:c3:c0:ba:be:ba:6e:95:03:5c:25:97:f8:29:ff:c0:
         95:a8:38:5e:b8:c1:b6:f9:4c:fe:e1:ef:78:5c:f3:d0:67:d4:
         e4:47:57:44:9d:ce:a4:be:3f:42:ec:03:d7:3b:57:80:0b:92:
         02:b4:fd:50:06:ab:82:05:d3:62:5a:99:62:f0:ba:02:25:c7:
         88:61:20:12:ab:27:5c:ee:f8:7e:90:4a:ab:1e:6e:32:8c:49:
         d8:47:e2:7e:0b:74:fe:c4:c7:2c:11:a1:c1:3c:48:89:95:aa:
         1e:55:50:69:1c:03:ea:90:50:ad:89:3e:13:7e:aa:d4:80:0a:
         3d:0c:cc:82:52:1b:c6:fd:2f:b3:25:e8:23:c2:03:01:e8:5b:
         12:5b:a3:e5:f1:1e:f9:70:49:5d:56:63:7f:8d:00:25:0a:92:
         ca:73:25:db:29:52:e3:17:10:ec:95:b9:f7:03:77:ae:20:fa:
         47:e1:31:3f:af:23:eb:9d:6d:f8:14:fe:6a:be:cc:6f:25:84:
         bb:92:07:8f:86:3c:ce:bf:61:d1:d0:3d:89:4a:d1:82:24:03:
         54:b8:f8:18:aa:64:7d:ef:08:fa:cb:30:8c:f4:72:60:20:c7:
         fc:ae:26:38
-----BEGIN CERTIFICATE-----
MIIDzjCCAragAwIBAgIQPiydvrBCyM/8mULVTUFqozANBgkqhkiG9w0BAQsFADBj
MQswCQYDVQQGEwJVUzETMBEGA1UECAwKQ2FsaWZvcm5pYTEWMBQGA1UEBwwNTW91
bnRhaW4gVmlldzEQMA4GA1UECgwHVGVzdCBDQTEVMBMGA1UEAwwMVGVzdCBSb290
IENBMB4XDTA2MDEwMTAwMDAwMFoXDTA3MDEwMTAwMDAwMFowYDELMAkGA1UEBhMC
VVMxEzARBgNVBAgMCkNhbGlmb3JuaWExFjAUBgNVBAcMDU1vdW50YWluIFZpZXcx
EDAOBgNVBAoMB1Rlc3QgQ0ExEjAQBgNVBAMMCTEyNy4wLjAuMTCCASIwDQYJKoZI
hvcNAQEBBQADggEPADCCAQoCggEBALcjdtkOc2eCsI+ysHlX49u2vWDctnuS+rOx
IZFLO0uIi6gloFCtX/kQkiR/RrPtskaUFeRs93iKdNm3n4y9pZ7yqQwu2ZWv1Ce0
rlTNWdYQ9yA+Gnr+x9tO8wDBHmKK2o0yQDiPoVUXiOsJKZAOZ0e7NNYTH2ouhomH
4OlzZE/LABXHy+hb5AkYm/ykIm4glaS5X351Jd7MB/fZtrmEuf/7O0mqBhsNFIBK
i+do7n16WcL0JgnXUeH3avKgw1yImlKam7R18KT305MvWVt0NQp9f0aRW2XB9NQx
emIKG8tbj3NWW95pMeYpKKIWxxs5HlsnWw2E7YjTWinxzGXuockCAwEAAaOBgDB+
MAwGA1UdEwEB/wQCMAAwHQYDVR0OBBYEFBOVOPgXOpBPGSlTEh5Ne7uu2SelMB8G
A1UdIwQYMBaAFJsmC4qYqbsduR8c4xpAM+2OF4irMB0GA1UdJQQWMBQGCCsGAQUF
BwMBBggrBgEFBQcDAjAPBgNVHREECDAGhwR/AAABMA0GCSqGSIb3DQEBCwUAA4IB
AQBjpUkR7RWEImBt9Ra+yB7e15lVSiPDwLq+um6VA1wll/gp/8CVqDheuMG2+Uz+
4e94XPPQZ9TkR1dEnc6kvj9C7APXO1eAC5ICtP1QBquCBdNiWpli8LoCJceIYSAS
qydc7vh+kEqrHm4yjEnYR+J+C3T+xMcsEaHBPEiJlaoeVVBpHAPqkFCtiT4TfqrU
gAo9DMyCUhvG/S+zJegjwgMB6FsSW6Pl8R75cEldVmN/jQAlCpLKcyXbKVLjFxDs
lbn3A3euIPpH4TE/ryPrnW34FP5qvsxvJYS7kgePhjzOv2HR0D2JStGCJANUuPgY
qmR97wj6yzCM9HJgIMf8riY4
-----END CERTIFICATE-----
