-----BEGIN PRIVATE KEY-----
MIIEvQIBADANBgkqhkiG9w0BAQEFAASCBKcwggSjAgEAAoIBAQDDRq7weUiGT7XM
lZAosAKK0m8PeYfDwrrz6wqTSmXpJS8BzINzyIBa6zoIETKvhcG84QeDdAoCAft9
nV6uPLxzzmuRhWwiAarYIuSg7qiiNgD66IjA05sWPMHBuWSD7Eb2UyxLCME9kxH+
LFcxDGBOrTf8NSKpr7hMaZkhpY8MyKqWKbaF1oXUH7CqQ+95HDgc2a05d9+xV2cy
EVTTG8VAvf8j0nVSxCcSrOfqH9+v488diuGdJqxt7yH3jvX9BfqzKlUEv7J2GIiB
F3zztOZUj8RLzbLy18eKMeCfjxjzxnxYmfT6chQadzaAUwxHlPSKskKIuFj8T/Fl
G4EBfabrAgMBAAECggEAOq5M97qajrH5Ycc4EOIDgZAHC9FreOpVn+LrxKNAyLUB
0TqR7gM8fxXc1HvGjXRWadn9lgUS1NOfrXnS7+0UfIB1Vr+PZRC3NEgYCDxvtH8i
AERMhBWSrzYGy55YlEQ2duM7ljjFSSme6JCOixC7CCmJf2LATdmeOmgpOjE0MZS9
Cz6W1AEw949YIsNCyBuG54Pf50RR/uwk8a9bctOlL7fmMoHETslgmwVYHGoY2TQH
WsLHcjEpVPmyigbkGQs6xteCeKLo+SN+3cdlzZVkhrRm85zXoY9Fk08Ll21cRHOF
waGoGg9GYQDrE1aWXKZqMoAL26TvsFa4KRUcm7/ZEQKBgQDsBRjBzhprehSVaFeM
8JXL0DKAk8bLm+kFo2CoLmNphUNk43q7MnfM1Dp3HM4UEq2AIA8oKtrI1aqc7ChT
JDMKA57nNQ1SSlFhnR0maFRD32h8BlFW6qNpl1S0vh/clDT3keTXVXpiNtV4z0uL
r5kKE/j4ya91nJRoFuZZaQz0hQKBgQDTzpuTN+dMcI2r1GcTA6wonRshypRi8d1K
DsBPcGX/SuT8iyorGvJh1IG9FSYM+0liN99fA3xu3PC8NyL2WkaN+KWKJaCf0BqN
fLYZb9s2b4ae3qrTzGyIjS26DmX1ZuBkp2nvCLqlfBDaukn03ZiRQOe9zeUmYS7h
x0nnp+CArwKBgAzQQgXTkK+hExkBby9hqGBGT1eXrkVDk6UQt6Cp1A/Ygk4p43Hi
TYq7QulQkQeZ8/1uwCPoH7SjlP2r/Ix2/KZgh/H5eV2sVzq7cuew5lJBAMUq+qOD
XZfP9XNSlxw8l5uROiFOrLREUdabOni88cwQRYYMPRBfjdcQ1zSndWKZAoGBAIBy
i2Z8QIjauQ+7f8bIM19t50ZW1CYtB0YiK/4A69omUTfWLXx2mwc5GHTSnoDA43/s
4kl8k7mnw1ZhGZLMrHzsjXd52i8QxQmI1+YVL5uThtBRuMc48ZjeBR0QHkT0XqCr
5lJPuOEinBYJY1BcEmoEMoWol47u4L+LXAZgiIWBAoGAEm+mJyT22ajB4JK+Zizm
qyY2YF9+XU4aRN+zuAYX6yVulK6wLF4g3YWEEP2YdFICMZa7AbuQK9t6RXMXH9/C
n64w/TBNvihKkAb9NqFFjqAE1DqTPeeusoaJ7kHfdF12F7bUNFbvixk+x8bt9CQC
9p8zmBjX4cGflRSpat09lr4=
-----END PRIVATE KEY-----
Certificate:
    Data:
        Version: 3 (0x2)
        Serial Number:
            b0:6b:93:92:e3:5c:8d:7e:ed:9d:c8:96:59:c5:c2:65
        Signature Algorithm: sha256WithRSAEncryption
        Issuer: C=US, ST=California, L=Mountain View, O=Test CA, CN=Test Root CA
        Validity
            Not Before: Jan  1 00:00:00 2006 GMT
            Not After : Jan  1 00:00:00 2007 GMT
        Subject: C=US, ST=California, L=Mountain View, O=Test CA, CN=127.0.0.1
        Subject Public Key Info:
            Public Key Algorithm: rsaEncryption
                Public-Key: (2048 bit)
                Modulus:
                    00:c3:46:ae:f0:79:48:86:4f:b5:cc:95:90:28:b0:
                    02:8a:d2:6f:0f:79:87:c3:c2:ba:f3:eb:0a:93:4a:
                    65:e9:25:2f:01:cc:83:73:c8:80:5a:eb:3a:08:11:
                    32:af:85:c1:bc:e1:07:83:74:0a:02:01:fb:7d:9d:
                    5e:ae:3c:bc:73:ce:6b:91:85:6c:22:01:aa:d8:22:
                    e4:a0:ee:a8:a2:36:00:fa:e8:88:c0:d3:9b:16:3c:
                    c1:c1:b9:64:83:ec:46:f6:53:2c:4b:08:c1:3d:93:
                    11:fe:2c:57:31:0c:60:4e:ad:37:fc:35:22:a9:af:
                    b8:4c:69:99:21:a5:8f:0c:c8:aa:96:29:b6:85:d6:
                    85:d4:1f:b0:aa:43:ef:79:1c:38:1c:d9:ad:39:77:
                    df:b1:57:67:32:11:54:d3:1b:c5:40:bd:ff:23:d2:
                    75:52:c4:27:12:ac:e7:ea:1f:df:af:e3:cf:1d:8a:
                    e1:9d:26:ac:6d:ef:21:f7:8e:f5:fd:05:fa:b3:2a:
                    55:04:bf:b2:76:18:88:81:17:7c:f3:b4:e6:54:8f:
                    c4:4b:cd:b2:f2:d7:c7:8a:31:e0:9f:8f:18:f3:c6:
                    7c:58:99:f4:fa:72:14:1a:77:36:80:53:0c:47:94:
                    f4:8a:b2:42:88:b8:58:fc:4f:f1:65:1b:81:01:7d:
                    a6:eb
                Exponent: 65537 (0x10001)
        X509v3 extensions:
            X509v3 Basic Constraints: critical
                CA:FALSE
            X509v3 Subject Key Identifier: 
                F3:9E:DE:55:DE:AD:DA:14:A3:B8:AA:E5:3A:D3:84:E6:88:B1:7E:C6
            X509v3 Authority Key Identifier: 
                9B:26:0B:8A:98:A9:BB:1D:B9:1F:1C:E3:1A:40:33:ED:8E:17:88:AB
            X509v3 Extended Key Usage: 
                TLS Web Server Authentication, TLS Web Client Authentication
            X509v3 Subject Alternative Name: 
                IP Address:127.0.0.1
    Signature Algorithm: sha256WithRSAEncryption
    Signature Value:
        36:3c:43:bc:10:33:eb:68:3a:c5:9c:24:4c:b4:ce:59:6f:88:
        13:02:e4:a4:31:e4:f2:8d:cb:b3:f1:bb:56:a3:c5:bb:f9:e9:
        28:3b:88:97:c4:4a:fa:79:df:23:60:8b:7f:32:14:21:43:de:
        60:87:21:e9:de:9a:b6:42:8c:e5:fc:c5:bd:f2:08:f8:3a:82:
        00:b7:ed:14:3a:76:c1:4b:ca:6d:17:32:27:e3:4e:32:d7:08:
        17:03:79:77:3f:81:a1:39:c9:d3:4e:32:83:65:18:ca:f7:fb:
        1a:6c:54:27:2c:e2:1e:82:dd:c1:ef:a9:cf:01:d7:4e:e2:ca:
        e1:2e:3f:64:7d:ce:4a:45:22:60:c3:cf:bd:96:91:54:99:9b:
        99:12:d7:1c:7d:3e:54:8a:00:f7:00:c4:e9:6b:61:2b:87:f0:
        6a:51:c0:62:ce:24:58:6a:af:bb:76:34:cd:6a:25:84:94:2b:
        c2:66:9f:e2:50:f6:d0:6a:1b:6a:be:de:ed:db:ce:69:1b:17:
        87:91:36:46:8d:cf:6a:82:38:06:b2:99:c4:da:10:17:77:90:
        15:e1:c0:78:76:72:fd:12:65:06:1e:b6:26:eb:bb:99:a4:42:
        b3:ef:14:73:2d:5d:03:ee:f7:b4:17:9d:c6:18:dd:71:d3:81:
        88:11:ba:7e
-----BEGIN CERTIFICATE-----
MIIDzzCCAregAwIBAgIRALBrk5LjXI1+7Z3IllnFwmUwDQYJKoZIhvcNAQELBQAw
YzELMAkGA1UEBhMCVVMxEzARBgNVBAgMCkNhbGlmb3JuaWExFjAUBgNVBAcMDU1v
dW50YWluIFZpZXcxEDAOBgNVBAoMB1Rlc3QgQ0ExFTATBgNVBAMMDFRlc3QgUm9v
dCBDQTAeFw0wNjAxMDEwMDAwMDBaFw0wNzAxMDEwMDAwMDBaMGAxCzAJBgNVBAYT
AlVTMRMwEQYDVQQIDApDYWxpZm9ybmlhMRYwFAYDVQQHDA1Nb3VudGFpbiBWaWV3
MRAwDgYDVQQKDAdUZXN0IENBMRIwEAYDVQQDDAkxMjcuMC4wLjEwggEiMA0GCSqG
SIb3DQEBAQUAA4IBDwAwggEKAoIBAQDDRq7weUiGT7XMlZAosAKK0m8PeYfDwrrz
6wqTSmXpJS8BzINzyIBa6zoIETKvhcG84QeDdAoCAft9nV6uPLxzzmuRhWwiAarY
IuSg7qiiNgD66IjA05sWPMHBuWSD7Eb2UyxLCME9kxH+LFcxDGBOrTf8NSKpr7hM
aZkhpY8MyKqWKbaF1oXUH7CqQ+95HDgc2a05d9+xV2cyEVTTG8VAvf8j0nVSxCcS
rOfqH9+v488diuGdJqxt7yH3jvX9BfqzKlUEv7J2GIiBF3zztOZUj8RLzbLy18eK
MeCfjxjzxnxYmfT6chQadzaAUwxHlPSKskKIuFj8T/FlG4EBfabrAgMBAAGjgYAw
fjAMBgNVHRMBAf8EAjAAMB0GA1UdDgQWBBTznt5V3q3aFKO4quU604TmiLF+xjAf
BgNVHSMEGDAWgBSbJguKmKm7HbkfHOMaQDPtjheIqzAdBgNVHSUEFjAUBggrBgEF
BQcDAQYIKwYBBQUHAwIwDwYDVR0RBAgwBocEfwAAATANBgkqhkiG9w0BAQsFAAOC
AQEANjxDvBAz62g6xZwkTLTOWW+IEwLkpDHk8o3Ls/G7VqPFu/npKDuIl8RK+nnf
I2CLfzIUIUPeYIch6d6atkKM5fzFvfII+DqCALftFDp2wUvKbRcyJ+NOMtcIFwN5
dz+BoTnJ004yg2UYyvf7GmxUJyziHoLdwe+pzwHXTuLK4S4/ZH3OSkUiYMPPvZaR
VJmbmRLXHH0+VIoA9wDE6WthK4fwalHAYs4kWGqvu3Y0zWolhJQrwmaf4lD20Gob
ar7e7dvOaRsXh5E2Ro3PaoI4BrKZxNoQF3eQFeHAeHZy/RJlBh62Juu7maRCs+8U
cy1dA+73tBedxhjdcdOBiBG6fg==
-----END CERTIFICATE-----
