-----BEGIN PRIVATE KEY-----
MIIEvQIBADANBgkqhkiG9w0BAQEFAASCBKcwggSjAgEAAoIBAQDDRq7weUiGT7XM
lZAosAKK0m8PeYfDwrrz6wqTSmXpJS8BzINzyIBa6zoIETKvhcG84QeDdAoCAft9
nV6uPLxzzmuRhWwiAarYIuSg7qiiNgD66IjA05sWPMHBuWSD7Eb2UyxLCME9kxH+
LFcxDGBOrTf8NSKpr7hMaZkhpY8MyKqWKbaF1oXUH7CqQ+95HDgc2a05d9+xV2cy
EVTTG8VAvf8j0nVSxCcSrOfqH9+v488diuGdJqxt7yH3jvX9BfqzKlUEv7J2GIiB
F3zztOZUj8RLzbLy18eKMeCfjxjzxnxYmfT6chQadzaAUwxHlPSKskKIuFj8T/Fl
G4EBfabrAgMBAAECggEAOq5M97qajrH5Ycc4EOIDgZAHC9FreOpVn+LrxKNAyLUB
0TqR7gM8fxXc1HvGjXRWadn9lgUS1NOfrXnS7+0UfIB1Vr+PZRC3NEgYCDxvtH8i
AERMhBWSrzYGy55YlEQ2duM7ljjFSSme6JCOixC7CCmJf2LATdmeOmgpOjE0MZS9
Cz6W1AEw949YIsNCyBuG54Pf50RR/uwk8a9bctOlL7fmMoHETslgmwVYHGoY2TQH
WsLHcjEpVPmyigbkGQs6xteCeKLo+SN+3cdlzZVkhrRm85zXoY9Fk08Ll21cRHOF
waGoGg9GYQDrE1aWXKZqMoAL26TvsFa4KRUcm7/ZEQKBgQDsBRjBzhprehSVaFeM
8JXL0DKAk8bLm+kFo2CoLmNphUNk43q7MnfM1Dp3HM4UEq2AIA8oKtrI1aqc7ChT
JDMKA57nNQ1SSlFhnR0maFRD32h8BlFW6qNpl1S0vh/clDT3keTXVXpiNtV4z0uL
r5kKE/j4ya91nJRoFuZZaQz0hQKBgQDTzpuTN+dMcI2r1GcTA6wonRshypRi8d1K
DsBPcGX/SuT8iyorGvJh1IG9FSYM+0liN99fA3xu3PC8NyL2WkaN+KWKJaCf0BqN
fLYZb9s2b4ae3qrTzGyIjS26DmX1ZuBkp2nvCLqlfBDaukn03ZiRQOe9zeUmYS7h
x0nnp+CArwKBgAzQQgXTkK+hExkBby9hqGBGT1eXrkVDk6UQt6Cp1A/Ygk4p43Hi
TYq7QulQkQeZ8/1uwCPoH7SjlP2r/Ix2/KZgh/H5eV2sVzq7cuew5lJBAMUq+qOD
XZfP9XNSlxw8l5uROiFOrLREUdabOni88cwQRYYMPRBfjdcQ1zSndWKZAoGBAIBy
i2Z8QIjauQ+7f8bIM19t50ZW1CYtB0YiK/4A69omUTfWLXx2mwc5GHTSnoDA43/s
4kl8k7mnw1ZhGZLMrHzsjXd52i8QxQmI1+YVL5uThtBRuMc48ZjeBR0QHkT0XqCr
5lJPuOEinBYJY1BcEmoEMoWol47u4L+LXAZgiIWBAoGAEm+mJyT22ajB4JK+Zizm
qyY2YF9+XU4aRN+zuAYX6yVulK6wLF4g3YWEEP2YdFICMZa7AbuQK9t6RXMXH9/C
n64w/TBNvihKkAb9NqFFjqAE1DqTPeeusoaJ7kHfdF12F7bUNFbvixk+x8bt9CQC
9p8zmBjX4cGflRSpat09lr4=
-----END PRIVATE KEY-----
Certificate:
    Data:
        Version: 3 (0x2)
        Serial Number:
            5a:84:70:47:19:f5:1a:b1:2b:02:fc:31:3f:08:cd:30
        Signature Algorithm: sha256WithRSAEncryption
        Issuer: C=US, ST=California, L=Mountain View, O=Test CA, CN=Test Root CA
        Validity
            Not Before: Jan  1 00:00:00 2006 GMT
            Not After : Jan  1 00:00:00 2007 GMT
        Subject: C=US, ST=California, L=Mountain View, O=Test CA, CN=127.0.0.1
        Subject Public Key Info:
            Public Key Algorithm: rsaEncryption
                Public-Key: (2048 bit)
                Modulus:
                    00:c3:46:ae:f0:79:48:86:4f:b5:cc:95:90:28:b0:
                    02:8a:d2:6f:0f:79:87:c3:c2:ba:f3:eb:0a:93:4a:
                    65:e9:25:2f:01:cc:83:73:c8:80:5a:eb:3a:08:11:
                    32:af:85:c1:bc:e1:07:83:74:0a:02:01:fb:7d:9d:
                    5e:ae:3c:bc:73:ce:6b:91:85:6c:22:01:aa:d8:22:
                    e4:a0:ee:a8:a2:36:00:fa:e8:88:c0:d3:9b:16:3c:
                    c1:c1:b9:64:83:ec:46:f6:53:2c:4b:08:c1:3d:93:
                    11:fe:2c:57:31:0c:60:4e:ad:37:fc:35:22:a9:af:
                    b8:4c:69:99:21:a5:8f:0c:c8:aa:96:29:b6:85:d6:
                    85:d4:1f:b0:aa:43:ef:79:1c:38:1c:d9:ad:39:77:
                    df:b1:57:67:32:11:54:d3:1b:c5:40:bd:ff:23:d2:
                    75:52:c4:27:12:ac:e7:ea:1f:df:af:e3:cf:1d:8a:
                    e1:9d:26:ac:6d:ef:21:f7:8e:f5:fd:05:fa:b3:2a:
                    55:04:bf:b2:76:18:88:81:17:7c:f3:b4:e6:54:8f:
                    c4:4b:cd:b2:f2:d7:c7:8a:31:e0:9f:8f:18:f3:c6:
                    7c:58:99:f4:fa:72:14:1a:77:36:80:53:0c:47:94:
                    f4:8a:b2:42:88:b8:58:fc:4f:f1:65:1b:81:01:7d:
                    a6:eb
                Exponent: 65537 (0x10001)
        X509v3 extensions:
            X509v3 Basic Constraints: critical
                CA:FALSE
            X509v3 Subject Key Identifier: 
                F3:9E:DE:55:DE:AD:DA:14:A3:B8:AA:E5:3A:D3:84:E6:88:B1:7E:C6
            X509v3 Authority Key Identifier: 
                9B:26:0B:8A:98:A9:BB:1D:B9:1F:1C:E3:1A:40:33:ED:8E:17:88:AB
            X509v3 Extended Key Usage: 
                TLS Web Server Authentication, TLS Web Client Authentication
            X509v3 Subject Alternative Name: 
                IP Address:127.0.0.1
    Signature Algorithm: sha256WithRSAEncryption
    Signature Value:
        ba:ff:bd:61:a9:c5:2e:2d:d0:88:bb:a1:ac:c9:63:7a:5b:e0:
        b3:35:40:1c:90:cb:fe:c8:3d:5b:9c:24:3c:7e:ce:21:97:cc:
        75:92:13:e0:c2:94:11:6a:0b:d9:14:a4:26:a0:9b:eb:ac:28:
        d0:a5:75:ba:4d:84:1e:d6:49:1f:d2:a5:c7:ae:32:01:33:6a:
        71:1d:e8:f0:60:5e:4f:dd:10:0a:89:b5:d1:b4:4b:b8:cc:32:
        14:09:83:02:d6:25:b8:ff:5e:97:77:d6:a0:a9:66:b2:78:bd:
        73:1d:41:e9:c6:7a:08:63:d2:cd:3b:3b:87:ad:3c:e6:04:91:
        17:b4:6f:88:6d:71:27:0a:67:ef:be:13:de:01:f5:63:51:02:
        b8:0e:48:9e:c7:a1:da:47:79:86:e4:f1:73:60:c1:0a:7a:d2:
        15:5c:28:12:bf:76:23:54:d6:5a:16:70:79:c8:e4:30:ee:9f:
        c8:83:22:89:b8:57:d1:e9:2d:e1:19:48:90:1f:fe:d2:f5:d0:
        a2:be:3e:17:87:24:82:9f:49:bc:5c:79:c6:ec:e6:c2:61:4b:
        c0:9a:cc:0f:7a:aa:b1:83:54:0e:8e:59:e6:07:bc:30:d2:89:
        70:f4:47:bb:c7:ed:c0:62:d9:6f:51:52:49:be:d5:37:07:97:
        6f:07:cc:6e
-----BEGIN CERTIFICATE-----
MIIDzjCCAragAwIBAgIQWoRwRxn1GrErAvwxPwjNMDANBgkqhkiG9w0BAQsFADBj
MQswCQYDVQQGEwJVUzETMBEGA1UECAwKQ2FsaWZvcm5pYTEWMBQGA1UEBwwNTW91
bnRhaW4gVmlldzEQMA4GA1UECgwHVGVzdCBDQTEVMBMGA1UEAwwMVGVzdCBSb290
IENBMB4XDTA2MDEwMTAwMDAwMFoXDTA3MDEwMTAwMDAwMFowYDELMAkGA1UEBhMC
VVMxEzARBgNVBAgMCkNhbGlmb3JuaWExFjAUBgNVBAcMDU1vdW50YWluIFZpZXcx
EDAOBgNVBAoMB1Rlc3QgQ0ExEjAQBgNVBAMMCTEyNy4wLjAuMTCCASIwDQYJKoZI
hvcNAQEBBQADggEPADCCAQoCggEBAMNGrvB5SIZPtcyVkCiwAorSbw95h8PCuvPr
CpNKZeklLwHMg3PIgFrrOggRMq+FwbzhB4N0CgIB+32dXq48vHPOa5GFbCIBqtgi
5KDuqKI2AProiMDTmxY8wcG5ZIPsRvZTLEsIwT2TEf4sVzEMYE6tN/w1IqmvuExp
mSGljwzIqpYptoXWhdQfsKpD73kcOBzZrTl337FXZzIRVNMbxUC9/yPSdVLEJxKs
5+of36/jzx2K4Z0mrG3vIfeO9f0F+rMqVQS/snYYiIEXfPO05lSPxEvNsvLXx4ox
4J+PGPPGfFiZ9PpyFBp3NoBTDEeU9IqyQoi4WPxP8WUbgQF9pusCAwEAAaOBgDB+
MAwGA1UdEwEB/wQCMAAwHQYDVR0OBBYEFPOe3lXerdoUo7iq5TrThOaIsX7GMB8G
A1UdIwQYMBaAFJsmC4qYqbsduR8c4xpAM+2OF4irMB0GA1UdJQQWMBQGCCsGAQUF
BwMBBggrBgEFBQcDAjAPBgNVHREECDAGhwR/AAABMA0GCSqGSIb3DQEBCwUAA4IB
AQC6/71hqcUuLdCIu6GsyWN6W+CzNUAckMv+yD1bnCQ8fs4hl8x1khPgwpQRagvZ
FKQmoJvrrCjQpXW6TYQe1kkf0qXHrjIBM2pxHejwYF5P3RAKibXRtEu4zDIUCYMC
1iW4/16Xd9agqWayeL1zHUHpxnoIY9LNOzuHrTzmBJEXtG+IbXEnCmfvvhPeAfVj
UQK4Dkiex6HaR3mG5PFzYMEKetIVXCgSv3YjVNZaFnB5yOQw7p/IgyKJuFfR6S3h
GUiQH/7S9dCivj4XhySCn0m8XHnG7ObCYUvAmswPeqqxg1QOjlnmB7ww0olw9Ee7
x+3AYtlvUVJJvtU3B5dvB8xu
-----END CERTIFICATE-----
