-----BEGIN PRIVATE KEY-----
MIIEvQIBADANBgkqhkiG9w0BAQEFAASCBKcwggSjAgEAAoIBAQDDRq7weUiGT7XM
lZAosAKK0m8PeYfDwrrz6wqTSmXpJS8BzINzyIBa6zoIETKvhcG84QeDdAoCAft9
nV6uPLxzzmuRhWwiAarYIuSg7qiiNgD66IjA05sWPMHBuWSD7Eb2UyxLCME9kxH+
LFcxDGBOrTf8NSKpr7hMaZkhpY8MyKqWKbaF1oXUH7CqQ+95HDgc2a05d9+xV2cy
EVTTG8VAvf8j0nVSxCcSrOfqH9+v488diuGdJqxt7yH3jvX9BfqzKlUEv7J2GIiB
F3zztOZUj8RLzbLy18eKMeCfjxjzxnxYmfT6chQadzaAUwxHlPSKskKIuFj8T/Fl
G4EBfabrAgMBAAECggEAOq5M97qajrH5Ycc4EOIDgZAHC9FreOpVn+LrxKNAyLUB
0TqR7gM8fxXc1HvGjXRWadn9lgUS1NOfrXnS7+0UfIB1Vr+PZRC3NEgYCDxvtH8i
AERMhBWSrzYGy55YlEQ2duM7ljjFSSme6JCOixC7CCmJf2LATdmeOmgpOjE0MZS9
Cz6W1AEw949YIsNCyBuG54Pf50RR/uwk8a9bctOlL7fmMoHETslgmwVYHGoY2TQH
WsLHcjEpVPmyigbkGQs6xteCeKLo+SN+3cdlzZVkhrRm85zXoY9Fk08Ll21cRHOF
waGoGg9GYQDrE1aWXKZqMoAL26TvsFa4KRUcm7/ZEQKBgQDsBRjBzhprehSVaFeM
8JXL0DKAk8bLm+kFo2CoLmNphUNk43q7MnfM1Dp3HM4UEq2AIA8oKtrI1aqc7ChT
JDMKA57nNQ1SSlFhnR0maFRD32h8BlFW6qNpl1S0vh/clDT3keTXVXpiNtV4z0uL
r5kKE/j4ya91nJRoFuZZaQz0hQKBgQDTzpuTN+dMcI2r1GcTA6wonRshypRi8d1K
DsBPcGX/SuT8iyorGvJh1IG9FSYM+0liN99fA3xu3PC8NyL2WkaN+KWKJaCf0BqN
fLYZb9s2b4ae3qrTzGyIjS26DmX1ZuBkp2nvCLqlfBDaukn03ZiRQOe9zeUmYS7h
x0nnp+CArwKBgAzQQgXTkK+hExkBby9hqGBGT1eXrkVDk6UQt6Cp1A/Ygk4p43Hi
TYq7QulQkQeZ8/1uwCPoH7SjlP2r/Ix2/KZgh/H5eV2sVzq7cuew5lJBAMUq+qOD
XZfP9XNSlxw8l5uROiFOrLREUdabOni88cwQRYYMPRBfjdcQ1zSndWKZAoGBAIBy
i2Z8QIjauQ+7f8bIM19t50ZW1CYtB0YiK/4A69omUTfWLXx2mwc5GHTSnoDA43/s
4kl8k7mnw1ZhGZLMrHzsjXd52i8QxQmI1+YVL5uThtBRuMc48ZjeBR0QHkT0XqCr
5lJPuOEinBYJY1BcEmoEMoWol47u4L+LXAZgiIWBAoGAEm+mJyT22ajB4JK+Zizm
qyY2YF9+XU4aRN+zuAYX6yVulK6wLF4g3YWEEP2YdFICMZa7AbuQK9t6RXMXH9/C
n64w/TBNvihKkAb9NqFFjqAE1DqTPeeusoaJ7kHfdF12F7bUNFbvixk+x8bt9CQC
9p8zmBjX4cGflRSpat09lr4=
-----END PRIVATE KEY-----
Certificate:
    Data:
        Version: 3 (0x2)
        Serial Number:
            12:f6:d9:f1:80:1b:50:9f:64:09:c8:ea:2f:16:33:a1
        Signature Algorithm: sha256WithRSAEncryption
        Issuer: C=US, ST=California, L=Mountain View, O=Test CA, CN=Test Root CA
        Validity
            Not Before: Jan  1 00:00:00 2006 GMT
            Not After : Jan  1 00:00:00 2007 GMT
        Subject: C=US, ST=California, L=Mountain View, O=Test CA, CN=127.0.0.1
        Subject Public Key Info:
            Public Key Algorithm: rsaEncryption
                RSA Public-Key: (2048 bit)
                Modulus:
                    00:c3:46:ae:f0:79:48:86:4f:b5:cc:95:90:28:b0:
                    02:8a:d2:6f:0f:79:87:c3:c2:ba:f3:eb:0a:93:4a:
                    65:e9:25:2f:01:cc:83:73:c8:80:5a:eb:3a:08:11:
                    32:af:85:c1:bc:e1:07:83:74:0a:02:01:fb:7d:9d:
                    5e:ae:3c:bc:73:ce:6b:91:85:6c:22:01:aa:d8:22:
                    e4:a0:ee:a8:a2:36:00:fa:e8:88:c0:d3:9b:16:3c:
                    c1:c1:b9:64:83:ec:46:f6:53:2c:4b:08:c1:3d:93:
                    11:fe:2c:57:31:0c:60:4e:ad:37:fc:35:22:a9:af:
                    b8:4c:69:99:21:a5:8f:0c:c8:aa:96:29:b6:85:d6:
                    85:d4:1f:b0:aa:43:ef:79:1c:38:1c:d9:ad:39:77:
                    df:b1:57:67:32:11:54:d3:1b:c5:40:bd:ff:23:d2:
                    75:52:c4:27:12:ac:e7:ea:1f:df:af:e3:cf:1d:8a:
                    e1:9d:26:ac:6d:ef:21:f7:8e:f5:fd:05:fa:b3:2a:
                    55:04:bf:b2:76:18:88:81:17:7c:f3:b4:e6:54:8f:
                    c4:4b:cd:b2:f2:d7:c7:8a:31:e0:9f:8f:18:f3:c6:
                    7c:58:99:f4:fa:72:14:1a:77:36:80:53:0c:47:94:
                    f4:8a:b2:42:88:b8:58:fc:4f:f1:65:1b:81:01:7d:
                    a6:eb
                Exponent: 65537 (0x10001)
        X509v3 extensions:
            X509v3 Basic Constraints: critical
                CA:FALSE
            X509v3 Subject Key Identifier: 
                F3:9E:DE:55:DE:AD:DA:14:A3:B8:AA:E5:3A:D3:84:E6:88:B1:7E:C6
            X509v3 Authority Key Identifier: 
                keyid:9B:26:0B:8A:98:A9:BB:1D:B9:1F:1C:E3:1A:40:33:ED:8E:17:88:AB

            X509v3 Extended Key Usage: 
                TLS Web Server Authentication, TLS Web Client Authentication
            X509v3 Subject Alternative Name: 
                IP Address:127.0.0.1
    Signature Algorithm: sha256WithRSAEncryption
         18:24:12:01:0b:0d:e4:5e:93:22:32:dc:86:80:47:b4:79:02:
         b0:f8:f7:c7:81:cc:08:70:5c:02:c4:f2:f1:62:d6:19:92:fb:
         d4:d7:f3:b0:4c:73:43:0e:7d:2c:f9:a5:34:55:90:2c:97:e7:
         61:93:c8:6c:13:1a:b1:c2:58:86:1c:70:1d:12:17:1e:d2:92:
         5d:8d:94:37:29:52:29:7d:e1:c6:de:8f:dd:91:c7:a4:ce:8c:
         5e:e5:56:a2:ba:ef:e6:f0:02:89:1a:f9:94:19:43:51:e7:7e:
         d4:7a:15:49:89:a1:15:56:72:8a:41:e2:2d:8a:11:46:70:04:
         aa:6c:25:aa:65:d0:59:96:c2:6a:5d:dd:97:6c:7f:79:3c:23:
         de:ca:36:d8:e1:56:f4:eb:94:ef:50:14:dd:e9:79:f4:5a:09:
         82:2d:d9:31:49:1d:57:6a:03:ec:07:c9:87:af:8f:a7:64:2e:
         06:26:65:49:6c:ad:42:4d:d9:25:6a:56:0b:ed:38:09:94:53:
         fc:e5:80:11:c3:fb:5b:eb:77:54:49:6c:3c:88:87:af:24:69:
         6a:35:9d:db:8b:f5:97:ea:c8:42:59:5c:ca:5a:0c:e5:fc:38:
         52:5f:ac:da:b7:5c:ef:37:80:04:b5:a7:d2:04:9c:bd:ba:70:
         0b:c6:55:f3
-----BEGIN CERTIFICATE-----
MIIDzjCCAragAwIBAgIQEvbZ8YAbUJ9kCcjqLxYzoTANBgkqhkiG9w0BAQsFADBj
MQswCQYDVQQGEwJVUzETMBEGA1UECAwKQ2FsaWZvcm5pYTEWMBQGA1UEBwwNTW91
bnRhaW4gVmlldzEQMA4GA1UECgwHVGVzdCBDQTEVMBMGA1UEAwwMVGVzdCBSb290
IENBMB4XDTA2MDEwMTAwMDAwMFoXDTA3MDEwMTAwMDAwMFowYDELMAkGA1UEBhMC
VVMxEzARBgNVBAgMCkNhbGlmb3JuaWExFjAUBgNVBAcMDU1vdW50YWluIFZpZXcx
EDAOBgNVBAoMB1Rlc3QgQ0ExEjAQBgNVBAMMCTEyNy4wLjAuMTCCASIwDQYJKoZI
hvcNAQEBBQADggEPADCCAQoCggEBAMNGrvB5SIZPtcyVkCiwAorSbw95h8PCuvPr
CpNKZeklLwHMg3PIgFrrOggRMq+FwbzhB4N0CgIB+32dXq48vHPOa5GFbCIBqtgi
5KDuqKI2AProiMDTmxY8wcG5ZIPsRvZTLEsIwT2TEf4sVzEMYE6tN/w1IqmvuExp
mSGljwzIqpYptoXWhdQfsKpD73kcOBzZrTl337FXZzIRVNMbxUC9/yPSdVLEJxKs
5+of36/jzx2K4Z0mrG3vIfeO9f0F+rMqVQS/snYYiIEXfPO05lSPxEvNsvLXx4ox
4J+PGPPGfFiZ9PpyFBp3NoBTDEeU9IqyQoi4WPxP8WUbgQF9pusCAwEAAaOBgDB+
MAwGA1UdEwEB/wQCMAAwHQYDVR0OBBYEFPOe3lXerdoUo7iq5TrThOaIsX7GMB8G
A1UdIwQYMBaAFJsmC4qYqbsduR8c4xpAM+2OF4irMB0GA1UdJQQWMBQGCCsGAQUF
BwMBBggrBgEFBQcDAjAPBgNVHREECDAGhwR/AAABMA0GCSqGSIb3DQEBCwUAA4IB
AQAYJBIBCw3kXpMiMtyGgEe0eQKw+PfHgcwIcFwCxPLxYtYZkvvU1/OwTHNDDn0s
+aU0VZAsl+dhk8hsExqxwliGHHAdEhce0pJdjZQ3KVIpfeHG3o/dkcekzoxe5Vai
uu/m8AKJGvmUGUNR537UehVJiaEVVnKKQeItihFGcASqbCWqZdBZlsJqXd2XbH95
PCPeyjbY4Vb065TvUBTd6Xn0WgmCLdkxSR1XagPsB8mHr4+nZC4GJmVJbK1CTdkl
alYL7TgJlFP85YARw/tb63dUSWw8iIevJGlqNZ3bi/WX6shCWVzKWgzl/DhSX6za
t1zvN4AEtafSBJy9unALxlXz
-----END CERTIFICATE-----
