-----BEGIN PRIVATE KEY-----
MIIEvQIBADANBgkqhkiG9w0BAQEFAASCBKcwggSjAgEAAoIBAQDDRq7weUiGT7XM
lZAosAKK0m8PeYfDwrrz6wqTSmXpJS8BzINzyIBa6zoIETKvhcG84QeDdAoCAft9
nV6uPLxzzmuRhWwiAarYIuSg7qiiNgD66IjA05sWPMHBuWSD7Eb2UyxLCME9kxH+
LFcxDGBOrTf8NSKpr7hMaZkhpY8MyKqWKbaF1oXUH7CqQ+95HDgc2a05d9+xV2cy
EVTTG8VAvf8j0nVSxCcSrOfqH9+v488diuGdJqxt7yH3jvX9BfqzKlUEv7J2GIiB
F3zztOZUj8RLzbLy18eKMeCfjxjzxnxYmfT6chQadzaAUwxHlPSKskKIuFj8T/Fl
G4EBfabrAgMBAAECggEAOq5M97qajrH5Ycc4EOIDgZAHC9FreOpVn+LrxKNAyLUB
0TqR7gM8fxXc1HvGjXRWadn9lgUS1NOfrXnS7+0UfIB1Vr+PZRC3NEgYCDxvtH8i
AERMhBWSrzYGy55YlEQ2duM7ljjFSSme6JCOixC7CCmJf2LATdmeOmgpOjE0MZS9
Cz6W1AEw949YIsNCyBuG54Pf50RR/uwk8a9bctOlL7fmMoHETslgmwVYHGoY2TQH
WsLHcjEpVPmyigbkGQs6xteCeKLo+SN+3cdlzZVkhrRm85zXoY9Fk08Ll21cRHOF
waGoGg9GYQDrE1aWXKZqMoAL26TvsFa4KRUcm7/ZEQKBgQDsBRjBzhprehSVaFeM
8JXL0DKAk8bLm+kFo2CoLmNphUNk43q7MnfM1Dp3HM4UEq2AIA8oKtrI1aqc7ChT
JDMKA57nNQ1SSlFhnR0maFRD32h8BlFW6qNpl1S0vh/clDT3keTXVXpiNtV4z0uL
r5kKE/j4ya91nJRoFuZZaQz0hQKBgQDTzpuTN+dMcI2r1GcTA6wonRshypRi8d1K
DsBPcGX/SuT8iyorGvJh1IG9FSYM+0liN99fA3xu3PC8NyL2WkaN+KWKJaCf0BqN
fLYZb9s2b4ae3qrTzGyIjS26DmX1ZuBkp2nvCLqlfBDaukn03ZiRQOe9zeUmYS7h
x0nnp+CArwKBgAzQQgXTkK+hExkBby9hqGBGT1eXrkVDk6UQt6Cp1A/Ygk4p43Hi
TYq7QulQkQeZ8/1uwCPoH7SjlP2r/Ix2/KZgh/H5eV2sVzq7cuew5lJBAMUq+qOD
XZfP9XNSlxw8l5uROiFOrLREUdabOni88cwQRYYMPRBfjdcQ1zSndWKZAoGBAIBy
i2Z8QIjauQ+7f8bIM19t50ZW1CYtB0YiK/4A69omUTfWLXx2mwc5GHTSnoDA43/s
4kl8k7mnw1ZhGZLMrHzsjXd52i8QxQmI1+YVL5uThtBRuMc48ZjeBR0QHkT0XqCr
5lJPuOEinBYJY1BcEmoEMoWol47u4L+LXAZgiIWBAoGAEm+mJyT22ajB4JK+Zizm
qyY2YF9+XU4aRN+zuAYX6yVulK6wLF4g3YWEEP2YdFICMZa7AbuQK9t6RXMXH9/C
n64w/TBNvihKkAb9NqFFjqAE1DqTPeeusoaJ7kHfdF12F7bUNFbvixk+x8bt9CQC
9p8zmBjX4cGflRSpat09lr4=
-----END PRIVATE KEY-----
Certificate:
    Data:
        Version: 3 (0x2)
        Serial Number:
            f9:fc:f0:61:a5:95:a9:3e:04:b2:80:d9:e4:4d:dd:16
        Signature Algorithm: sha256WithRSAEncryption
        Issuer: C=US, ST=California, L=Mountain View, O=Test CA, CN=Test Root CA
        Validity
            Not Before: Jan  1 00:00:00 2006 GMT
            Not After : Jan  1 00:00:00 2007 GMT
        Subject: C=US, ST=California, L=Mountain View, O=Test CA, CN=127.0.0.1
        Subject Public Key Info:
            Public Key Algorithm: rsaEncryption
                Public-Key: (2048 bit)
                Modulus:
                    00:c3:46:ae:f0:79:48:86:4f:b5:cc:95:90:28:b0:
                    02:8a:d2:6f:0f:79:87:c3:c2:ba:f3:eb:0a:93:4a:
                    65:e9:25:2f:01:cc:83:73:c8:80:5a:eb:3a:08:11:
                    32:af:85:c1:bc:e1:07:83:74:0a:02:01:fb:7d:9d:
                    5e:ae:3c:bc:73:ce:6b:91:85:6c:22:01:aa:d8:22:
                    e4:a0:ee:a8:a2:36:00:fa:e8:88:c0:d3:9b:16:3c:
                    c1:c1:b9:64:83:ec:46:f6:53:2c:4b:08:c1:3d:93:
                    11:fe:2c:57:31:0c:60:4e:ad:37:fc:35:22:a9:af:
                    b8:4c:69:99:21:a5:8f:0c:c8:aa:96:29:b6:85:d6:
                    85:d4:1f:b0:aa:43:ef:79:1c:38:1c:d9:ad:39:77:
                    df:b1:57:67:32:11:54:d3:1b:c5:40:bd:ff:23:d2:
                    75:52:c4:27:12:ac:e7:ea:1f:df:af:e3:cf:1d:8a:
                    e1:9d:26:ac:6d:ef:21:f7:8e:f5:fd:05:fa:b3:2a:
                    55:04:bf:b2:76:18:88:81:17:7c:f3:b4:e6:54:8f:
                    c4:4b:cd:b2:f2:d7:c7:8a:31:e0:9f:8f:18:f3:c6:
                    7c:58:99:f4:fa:72:14:1a:77:36:80:53:0c:47:94:
                    f4:8a:b2:42:88:b8:58:fc:4f:f1:65:1b:81:01:7d:
                    a6:eb
                Exponent: 65537 (0x10001)
        X509v3 extensions:
            X509v3 Basic Constraints: critical
                CA:FALSE
            X509v3 Subject Key Identifier: 
                F3:9E:DE:55:DE:AD:DA:14:A3:B8:AA:E5:3A:D3:84:E6:88:B1:7E:C6
            X509v3 Authority Key Identifier: 
                9B:26:0B:8A:98:A9:BB:1D:B9:1F:1C:E3:1A:40:33:ED:8E:17:88:AB
            X509v3 Extended Key Usage: 
                TLS Web Server Authentication, TLS Web Client Authentication
            X509v3 Subject Alternative Name: 
                IP Address:127.0.0.1
    Signature Algorithm: sha256WithRSAEncryption
    Signature Value:
        a4:89:94:34:e3:9d:74:c6:3c:56:d2:94:d8:85:a5:ad:db:3d:
        e3:a2:b5:a2:b4:0b:11:f1:5e:3a:6c:7e:51:dd:0a:82:5a:a5:
        f2:a4:6f:65:9b:fe:c3:a3:e5:1e:4b:1a:6c:6c:4f:bb:34:f2:
        a3:a6:91:14:c0:af:d8:3a:e9:f3:3f:a7:32:83:dd:b4:7f:36:
        a6:61:2f:71:ce:6f:7d:5d:ec:f4:4d:09:3b:48:62:54:e9:f3:
        6d:d0:9c:f7:d1:d5:be:63:ca:43:90:16:43:49:e4:42:4d:1e:
        5a:40:80:3c:9a:f1:75:ff:44:91:d4:88:88:98:9b:39:8a:35:
        08:14:ed:40:03:21:6e:4b:d0:ab:d7:91:c1:84:f3:9e:da:41:
        c0:8e:64:78:0f:c3:4e:4a:ab:f1:69:50:9b:bf:d9:f9:dc:d6:
        21:e9:69:03:05:50:a3:96:f3:c9:ff:e9:7a:75:6a:34:7a:44:
        a0:53:61:88:47:42:3a:4a:b0:7e:7a:7e:6b:17:13:ee:76:7a:
        ac:23:ae:9b:0f:c8:42:75:de:6b:49:2e:cd:3c:4f:d3:e8:81:
        eb:c3:24:3a:17:a4:95:0e:92:c3:6a:4a:ce:0d:bc:05:22:5a:
        1c:d2:53:75:1f:c4:b0:7f:56:07:a8:b7:ce:e6:4d:15:2c:7e:
        e7:fd:83:cd
-----BEGIN CERTIFICATE-----
MIIDzzCCAregAwIBAgIRAPn88GGllak+BLKA2eRN3RYwDQYJKoZIhvcNAQELBQAw
YzELMAkGA1UEBhMCVVMxEzARBgNVBAgMCkNhbGlmb3JuaWExFjAUBgNVBAcMDU1v
dW50YWluIFZpZXcxEDAOBgNVBAoMB1Rlc3QgQ0ExFTATBgNVBAMMDFRlc3QgUm9v
dCBDQTAeFw0wNjAxMDEwMDAwMDBaFw0wNzAxMDEwMDAwMDBaMGAxCzAJBgNVBAYT
AlVTMRMwEQYDVQQIDApDYWxpZm9ybmlhMRYwFAYDVQQHDA1Nb3VudGFpbiBWaWV3
MRAwDgYDVQQKDAdUZXN0IENBMRIwEAYDVQQDDAkxMjcuMC4wLjEwggEiMA0GCSqG
SIb3DQEBAQUAA4IBDwAwggEKAoIBAQDDRq7weUiGT7XMlZAosAKK0m8PeYfDwrrz
6wqTSmXpJS8BzINzyIBa6zoIETKvhcG84QeDdAoCAft9nV6uPLxzzmuRhWwiAarY
IuSg7qiiNgD66IjA05sWPMHBuWSD7Eb2UyxLCME9kxH+LFcxDGBOrTf8NSKpr7hM
aZkhpY8MyKqWKbaF1oXUH7CqQ+95HDgc2a05d9+xV2cyEVTTG8VAvf8j0nVSxCcS
rOfqH9+v488diuGdJqxt7yH3jvX9BfqzKlUEv7J2GIiBF3zztOZUj8RLzbLy18eK
MeCfjxjzxnxYmfT6chQadzaAUwxHlPSKskKIuFj8T/FlG4EBfabrAgMBAAGjgYAw
fjAMBgNVHRMBAf8EAjAAMB0GA1UdDgQWBBTznt5V3q3aFKO4quU604TmiLF+xjAf
BgNVHSMEGDAWgBSbJguKmKm7HbkfHOMaQDPtjheIqzAdBgNVHSUEFjAUBggrBgEF
BQcDAQYIKwYBBQUHAwIwDwYDVR0RBAgwBocEfwAAATANBgkqhkiG9w0BAQsFAAOC
AQEApImUNOOddMY8VtKU2IWlrds946K1orQLEfFeOmx+Ud0Kglql8qRvZZv+w6Pl
HksabGxPuzTyo6aRFMCv2Drp8z+nMoPdtH82pmEvcc5vfV3s9E0JO0hiVOnzbdCc
99HVvmPKQ5AWQ0nkQk0eWkCAPJrxdf9EkdSIiJibOYo1CBTtQAMhbkvQq9eRwYTz
ntpBwI5keA/DTkqr8WlQm7/Z+dzWIelpAwVQo5bzyf/penVqNHpEoFNhiEdCOkqw
fnp+axcT7nZ6rCOumw/IQnXea0kuzTxP0+iB68MkOheklQ6Sw2pKzg28BSJaHNJT
dR/EsH9WB6i3zuZNFSx+5/2DzQ==
-----END CERTIFICATE-----
