-----BEGIN PRIVATE KEY-----
MIIEvwIBADANBgkqhkiG9w0BAQEFAASCBKkwggSlAgEAAoIBAQDgW7Otnp6foAgf
YpuM2MHhNawGCHwgsCgplkJngENLI+2ScEO9NTHCB7aXmNo2LLbzqWq6wVSDGmFc
ZTRsRexaU982ojDPKkvwz0eIOJtMObSjNqiiCWik50Mm53LFVKRS2L2+atdct+r6
v66xdIC2vx1r4v7LnyR8mpOvucv3sLtlffP6UZfIuW0Eibf6zRBp0ny5VZG8Mqgb
ViQ4eZhJ3V+RQL/IFo9Etne19wI/shqhcLyB1UlF0batogcimb5RUIi+yf2HIVmh
Sy8VXm8OQ9ZGFVsNDRL5YMic/yaRYBnRNjcm4NwO6aLU6JiDV0ktUb8uobJfL5qZ
6jab4xIJAgMBAAECggEABBZLkkW91kLWLwsu8fyHYKTHiNcZ+sb2vlYzSLsmjq19
gBHNPBrGWKZnEkEptXuwTAVJsVQBB//gpuwdjbzi2rzlJ7PB754xwrXl89JzKsrw
0lnWLdh9yGZBnAlyluttMGisITZFTNY5YL7B7g/lId8eqDbbBSbVpXLz7os0DuOn
scKoYLGTOFmPWMRd5ftE8JKHDADOnLk4WEz6NfjOffll16BM7rxtdNbu/EP7RISJ
/PEguN27RWUu52RRm5uhpQeubNfM1iyzYv7uVxncEiHRylcTogCunBqfUZLdig5h
bASoqnm2k7WFMSaLr9kI8qkzPZ1XvZAQ3Hxm6fma4QKBgQD81LxJ6LjJ6djYiH9M
tUdKskcCN2wJ0nuA885vTcFCSKt6boKFQrgnsO2qqbDB73ThoDz3bfmijgb+rfLB
uvMw9V7+PhrGYXyNIq+VfjL9/OmbZPaRNycmzODpi0gmOIug0atjzECljs4DfgO1
M2u9oMj1k8zy/HP5z290J71voQKBgQDjK5rnWLd1hAHNDNdE8sVk1F2XnAX4sgbn
yVqe7A52l1Fm1SSorOg2rx7nimst5ky2vm/NHrJRUlm7R4z2dSKSQaINMPMLFmlP
Cfirg+HGkph1HavHzupSLhyN5J5l+c1SIMm/W0uHi0ObjOECbVRdHDIuBgbtj8As
ljW8PB+paQKBgQD3vhVKbuozoBtGAmqK5c8X2J1QBLKu5Trz3vNXiV9n7gFplMP8
hKYi7nHUmzaCsntbY0KaSX8l0/nysMyBHQmT3bvZcU2XOotrWKOo3uJkkuDtzf71
yI9qq7Nv5XUrTpkzWoCQ5+Io2EfykBZeBib6x4RjbxKSvuF91c+miBJOQQKBgQCs
QP4+ehjydNxgvWHmGCfxYs5tDZPBlkyCKT4bz2bQKcFBtlELzcBu5q8KZv0KWtzE
nPZtlN8lpsn/piuPHhbOzBGy6vD/8Uh89FSoyWHDjpkoBQ2ifpVTJz/jn/0z2g0E
P3R7MyC8cK8dHd/oVTppN94c49kQ/bV8mZG5X+WqMQKBgQDK4ooHs6i0NwA05b6V
glqYLX+Jw3p8yOA6onpSviwW2bSJfm6rJnXCkPw9OehBzi9o00odMwQhL2GMXkFB
WuIornGx7iRIGFat9k71tGsJ65uo2uz2eGQAEPqq3HSnQSHzeD6R+PGZxb6OJ3l0
7bJis0S0Gfr2QMR1yBu70MnpxQ==
-----END PRIVATE KEY-----
Certificate:
    Data:
        Version: 3 (0x2)
        Serial Number:
            45:dd:29:1d:b7:b1:7f:d5:93:96:f7:d4:d9:c0:dd:13
        Signature Algorithm: sha256WithRSAEncryption
        Issuer: C=US, ST=California, L=Mountain View, O=Test CA, CN=Test Root CA
        Validity
            Not Before: Oct 29 21:30:02 2025 GMT
            Not After : Oct 27 21:30:02 2035 GMT
        Subject: C=US, ST=California, L=Mountain View, O=Test CA, CN=127.0.0.1
        Subject Public Key Info:
            Public Key Algorithm: rsaEncryption
                Public-Key: (2048 bit)
                Modulus:
                    00:e0:5b:b3:ad:9e:9e:9f:a0:08:1f:62:9b:8c:d8:
                    c1:e1:35:ac:06:08:7c:20:b0:28:29:96:42:67:80:
                    43:4b:23:ed:92:70:43:bd:35:31:c2:07:b6:97:98:
                    da:36:2c:b6:f3:a9:6a:ba:c1:54:83:1a:61:5c:65:
                    34:6c:45:ec:5a:53:df:36:a2:30:cf:2a:4b:f0:cf:
                    47:88:38:9b:4c:39:b4:a3:36:a8:a2:09:68:a4:e7:
                    43:26:e7:72:c5:54:a4:52:d8:bd:be:6a:d7:5c:b7:
                    ea:fa:bf:ae:b1:74:80:b6:bf:1d:6b:e2:fe:cb:9f:
                    24:7c:9a:93:af:b9:cb:f7:b0:bb:65:7d:f3:fa:51:
                    97:c8:b9:6d:04:89:b7:fa:cd:10:69:d2:7c:b9:55:
                    91:bc:32:a8:1b:56:24:38:79:98:49:dd:5f:91:40:
                    bf:c8:16:8f:44:b6:77:b5:f7:02:3f:b2:1a:a1:70:
                    bc:81:d5:49:45:d1:b6:ad:a2:07:22:99:be:51:50:
                    88:be:c9:fd:87:21:59:a1:4b:2f:15:5e:6f:0e:43:
                    d6:46:15:5b:0d:0d:12:f9:60:c8:9c:ff:26:91:60:
                    19:d1:36:37:26:e0:dc:0e:e9:a2:d4:e8:98:83:57:
                    49:2d:51:bf:2e:a1:b2:5f:2f:9a:99:ea:36:9b:e3:
                    12:09
                Exponent: 65537 (0x10001)
        X509v3 extensions:
            X509v3 Basic Constraints: critical
                CA:FALSE
            X509v3 Subject Key Identifier:
                F4:DF:79:0A:9B:B1:B1:0D:3B:E1:AB:32:65:B1:F5:A8:71:A2:B9:48
            X509v3 Authority Key Identifier:
                1A:B0:02:88:CC:BF:41:6A:1D:09:4A:50:F1:6E:0E:24:D2:40:68:2B
            X509v3 Extended Key Usage:
                TLS Web Server Authentication, TLS Web Client Authentication
            X509v3 Subject Alternative Name:
                DNS:*.google.com
    Signature Algorithm: sha256WithRSAEncryption
    Signature Value:
        6c:24:89:31:82:d3:a4:23:46:57:79:6b:5a:33:66:21:c7:86:
        c5:73:de:09:98:91:00:61:e3:d3:5f:7f:cb:53:43:9e:9d:dc:
        95:c2:8e:a4:d7:7b:07:1a:38:b8:37:d9:96:b6:34:32:c9:a3:
        23:0b:8d:50:ef:1c:a3:ec:ed:c9:b9:b7:bd:3d:2d:48:11:37:
        5a:27:d0:56:8e:48:17:0b:8d:ea:9e:14:c6:b2:14:11:1c:b6:
        58:20:0f:9d:79:55:37:1e:e6:a8:b0:e0:b2:5c:2a:d9:07:da:
        d0:76:83:8a:5a:17:ea:fd:3a:2a:8a:42:65:d9:81:dd:87:b8:
        24:14:58:89:22:7c:11:55:36:39:b0:f3:c7:9e:54:8a:af:86:
        85:86:fe:98:4d:1e:20:0d:47:45:08:1f:20:6a:06:82:ed:93:
        85:59:40:6c:ef:d7:96:48:c6:b6:40:30:60:61:d3:71:9b:63:
        42:63:b5:c6:7c:14:47:57:0a:fd:c0:83:79:bc:e0:43:5a:94:
        8d:51:37:6d:8b:2b:e5:a0:2e:55:27:49:c5:00:41:df:58:ec:
        bd:a6:48:87:b2:72:2c:6b:6d:eb:d4:41:1a:ff:a8:34:57:c8:
        f4:b9:44:8b:96:5d:56:27:2a:3b:23:08:ee:d2:34:9d:7b:7b:
        b2:54:63:f3
-----BEGIN CERTIFICATE-----
MIID1zCCAr+gAwIBAgIQRd0pHbexf9WTlvfU2cDdEzANBgkqhkiG9w0BAQsFADBj
MQswCQYDVQQGEwJVUzETMBEGA1UECAwKQ2FsaWZvcm5pYTEWMBQGA1UEBwwNTW91
bnRhaW4gVmlldzEQMA4GA1UECgwHVGVzdCBDQTEVMBMGA1UEAwwMVGVzdCBSb290
IENBMB4XDTI1MTAyOTIxMzAwMloXDTM1MTAyNzIxMzAwMlowYDELMAkGA1UEBhMC
VVMxEzARBgNVBAgMCkNhbGlmb3JuaWExFjAUBgNVBAcMDU1vdW50YWluIFZpZXcx
EDAOBgNVBAoMB1Rlc3QgQ0ExEjAQBgNVBAMMCTEyNy4wLjAuMTCCASIwDQYJKoZI
hvcNAQEBBQADggEPADCCAQoCggEBAOBbs62enp+gCB9im4zYweE1rAYIfCCwKCmW
QmeAQ0sj7ZJwQ701McIHtpeY2jYstvOparrBVIMaYVxlNGxF7FpT3zaiMM8qS/DP
R4g4m0w5tKM2qKIJaKTnQybncsVUpFLYvb5q11y36vq/rrF0gLa/HWvi/sufJHya
k6+5y/ewu2V98/pRl8i5bQSJt/rNEGnSfLlVkbwyqBtWJDh5mEndX5FAv8gWj0S2
d7X3Aj+yGqFwvIHVSUXRtq2iByKZvlFQiL7J/YchWaFLLxVebw5D1kYVWw0NEvlg
yJz/JpFgGdE2Nybg3A7potTomINXSS1Rvy6hsl8vmpnqNpvjEgkCAwEAAaOBiTCB
hjAMBgNVHRMBAf8EAjAAMB0GA1UdDgQWBBT033kKm7GxDTvhqzJlsfWocaK5SDAf
BgNVHSMEGDAWgBQasAKIzL9Bah0JSlDxbg4k0kBoKzAdBgNVHSUEFjAUBggrBgEF
BQcDAQYIKwYBBQUHAwIwFwYDVR0RBBAwDoIMKi5nb29nbGUuY29tMA0GCSqGSIb3
DQEBCwUAA4IBAQBsJIkxgtOkI0ZXeWtaM2Yhx4bFc94JmJEAYePTX3/LU0OendyV
wo6k13sHGji4N9mWtjQyyaMjC41Q7xyj7O3Jube9PS1IETdaJ9BWjkgXC43qnhTG
shQRHLZYIA+deVU3HuaosOCyXCrZB9rQdoOKWhfq/ToqikJl2YHdh7gkFFiJInwR
VTY5sPPHnlSKr4aFhv6YTR4gDUdFCB8gagaC7ZOFWUBs79eWSMa2QDBgYdNxm2NC
Y7XGfBRHVwr9wIN5vOBDWpSNUTdtiyvloC5VJ0nFAEHfWOy9pkiHsnIsa23r1EEa
/6g0V8j0uUSLll1WJyo7Iwju0jSde3uyVGPz
-----END CERTIFICATE-----
