-----BEGIN PRIVATE KEY-----
MIIEvQIBADANBgkqhkiG9w0BAQEFAASCBKcwggSjAgEAAoIBAQCd6b3kPUov+8L5
5iIqQhVGHIyPR0zpxVeVH2ZwkyLwlMO7tVvvpG/Ix4mVdboMNr9Oa6k1RwhDnilq
4sP7A7cftuFRa+17Gcf5zjvcZelmx4OUxNFO7u1kS4HxGupaZBgbak6T0BNskGDK
0k63JBb4sghYnY2nM0UVNIGtLS2cYO/5K5j+edONLEjbEpH0Lvq/9SbBggWA3Uyo
cL+nvBA0dznbRwQP7USyZUYiIIhZKA/HDKK0kaWiqsoFn4qbbqPL1KToJHWdIIEi
W193PsnxHq7rijOMJ1sevm0hG0JyleOeEwN1p1jUvmgS/mOOSxF6NOeja91zrj4Z
muyRi3OvAgMBAAECggEBAJwu2gyK/fw1YqNtlS78izP7+p2fZJf2AejQ1K3VKQKP
8IOQHW0I0zLe/9oeRTPdVhtG6mVyat8N6GL6A+IZy54HcBTqzUgquJn++z/CYDWy
cRbMD0SllY/UCqIf/9gFFb7PxwX1D7EZn1Ia7ZW/kSTKWOzkb30GfXY6p2NTwr/d
psacQ5v6+o8z3RD2N44gPvrGA2d1P83YT0oIYwKAHtpu6c46CBQmf54lhjs1LdxE
UgF8w+Y8T8DZQ5WekchIWBcGZLiqBkm49+uBoGtlfrcszZkC3pnX++HoZAYE9ms4
OCdWhEBHUyhd/os7GjaX+CGUM4nNx0LmoqeJBhBt0qkCgYEAzcsWqVYruimpnES+
lzFIiFZXI6rYd7hkJ+semFst4UFQM51TE0gXkrzZdIu/rgmRlb05to739V1i2z0B
TxGka+WzL6j4ZtJjy2WBl35GceoeL5Iwbjs8OiJFr8TAkq9v3TT2iymuUDGSHCCz
1T9GfS4/zoLNGiqKOxp7O6ZwaC0CgYEAxHBFRtQ1eeKYL5FZwWv2JklivutDWURK
0dzbzsvKaUf40ZdZe+A6cFomckm7xubHwMckY+8Y011pgF581JWWIaRs8u8jJuWA
ajjfmFSC0L5uuk6qYHa9eWQu8LvUGmKX9SMs7Mt2h7BS+l+ZDbgr6LngoK1CWGEK
DLo0/fp7OMsCgYAi++RVUx3J3u1DcHhJ8YnYC31yxcdYytLT6mdgFRf+lADTVWpa
+8VuH4aEBoHGT0AdiXZ3L2S9pGt6w6smSuR9pyXH81yO9jMaz52xKDlHgjoxchOj
mZRKeasJD1SBWyuUGj3TOHm2jka9W13W4ZPVEfis3ZWKXjLzizPp1wiC3QKBgEMX
ESIKsiTptg5w9xWveMdEwxvvn/Xp9B/O7aeoRH5GnX1/0okTYQIkWAMqmZ5qDYkS
uqQC8himS7UTEFFOsZLV5HvoHrpXIc+lkwAkxPTkRU8ONPRzOW0vQTTpAZztVXbc
x6gsKVRYbU6jvdNItn5qlYRrCEDFC7ijFBw2I0WXAoGARVYDlmIrSvnwqZ07YzPa
QeLueBBfnHqN+7XAGTctn0MOhE96OgURw0lWVnyoGtTmUAHtdho5EeDDUxQm/n1x
whGM72yqlFlslpnodQUqAYz1Eqe+RgP9V8KXdUVz652jqZwhuqLBjtAc9e9knwR8
MTmwsskxSp9DWTu+tCjNrwM=
-----END PRIVATE KEY-----
Certificate:
    Data:
        Version: 3 (0x2)
        Serial Number:
            f9:fc:f0:61:a5:95:a9:3e:04:b2:80:d9:e4:4d:dd:15
        Signature Algorithm: sha256WithRSAEncryption
        Issuer: C=US, ST=California, L=Mountain View, O=Test CA, CN=Test Root CA
        Validity
            Not Before: Oct 10 17:12:19 2025 GMT
            Not After : Oct  8 17:12:19 2035 GMT
        Subject: C=US, ST=California, L=Mountain View, O=Test CA, CN=Test Intermediate CA
        Subject Public Key Info:
            Public Key Algorithm: rsaEncryption
                Public-Key: (2048 bit)
                Modulus:
                    00:9d:e9:bd:e4:3d:4a:2f:fb:c2:f9:e6:22:2a:42:
                    15:46:1c:8c:8f:47:4c:e9:c5:57:95:1f:66:70:93:
                    22:f0:94:c3:bb:b5:5b:ef:a4:6f:c8:c7:89:95:75:
                    ba:0c:36:bf:4e:6b:a9:35:47:08:43:9e:29:6a:e2:
                    c3:fb:03:b7:1f:b6:e1:51:6b:ed:7b:19:c7:f9:ce:
                    3b:dc:65:e9:66:c7:83:94:c4:d1:4e:ee:ed:64:4b:
                    81:f1:1a:ea:5a:64:18:1b:6a:4e:93:d0:13:6c:90:
                    60:ca:d2:4e:b7:24:16:f8:b2:08:58:9d:8d:a7:33:
                    45:15:34:81:ad:2d:2d:9c:60:ef:f9:2b:98:fe:79:
                    d3:8d:2c:48:db:12:91:f4:2e:fa:bf:f5:26:c1:82:
                    05:80:dd:4c:a8:70:bf:a7:bc:10:34:77:39:db:47:
                    04:0f:ed:44:b2:65:46:22:20:88:59:28:0f:c7:0c:
                    a2:b4:91:a5:a2:aa:ca:05:9f:8a:9b:6e:a3:cb:d4:
                    a4:e8:24:75:9d:20:81:22:5b:5f:77:3e:c9:f1:1e:
                    ae:eb:8a:33:8c:27:5b:1e:be:6d:21:1b:42:72:95:
                    e3:9e:13:03:75:a7:58:d4:be:68:12:fe:63:8e:4b:
                    11:7a:34:e7:a3:6b:dd:73:ae:3e:19:9a:ec:91:8b:
                    73:af
                Exponent: 65537 (0x10001)
        X509v3 extensions:
            X509v3 Basic Constraints: critical
                CA:TRUE
            X509v3 Subject Key Identifier: 
                17:5C:45:F3:D0:AC:1C:10:4C:8B:43:44:20:C4:DD:93:C5:C5:19:3B
            X509v3 Key Usage: critical
                Certificate Sign, CRL Sign
            X509v3 Authority Key Identifier: 
                9B:26:0B:8A:98:A9:BB:1D:B9:1F:1C:E3:1A:40:33:ED:8E:17:88:AB
    Signature Algorithm: sha256WithRSAEncryption
    Signature Value:
        22:24:b6:d3:ed:ba:4a:c1:c9:4f:be:de:2a:41:72:2b:56:a7:
        64:35:a4:7d:41:74:fc:76:c2:f6:e1:4e:ed:e4:34:e0:10:f1:
        cd:26:f6:78:76:50:f7:38:df:c8:60:9a:92:be:e0:d6:17:0d:
        ea:6d:bd:2c:d2:a3:d2:0e:46:d0:81:7a:1c:02:b2:05:ce:2b:
        b3:e6:17:8e:4a:73:11:a3:3f:9a:8c:47:91:8e:c9:47:f2:d1:
        d4:8d:b8:46:5b:55:fe:8a:21:50:26:5b:e8:10:7d:35:34:5f:
        6e:09:83:15:46:50:4f:ba:86:dc:04:57:55:9c:3e:05:ac:e8:
        f9:87:10:e2:91:ff:24:3e:6a:31:75:4b:de:72:5d:52:3b:fe:
        02:e6:c9:3f:65:83:a0:59:d3:d9:4d:c5:51:0f:5f:2f:c8:90:
        30:e4:17:3a:95:d9:d9:f0:e3:af:2f:8f:01:ab:23:90:da:e4:
        29:55:3a:31:c5:de:67:3e:b3:4b:cc:f0:5b:94:fd:5d:f6:55:
        ba:c3:8e:f3:70:e8:88:19:40:b8:7f:d7:29:4c:1c:12:7e:a4:
        61:ad:02:33:d2:0a:14:d1:fb:79:82:20:96:20:17:8e:dc:49:
        cf:70:38:a6:18:d1:ae:97:cc:4b:d6:b6:bb:09:36:74:e8:29:
        41:ee:70:e6
-----BEGIN CERTIFICATE-----
MIIDvDCCAqSgAwIBAgIRAPn88GGllak+BLKA2eRN3RUwDQYJKoZIhvcNAQELBQAw
YzELMAkGA1UEBhMCVVMxEzARBgNVBAgMCkNhbGlmb3JuaWExFjAUBgNVBAcMDU1v
dW50YWluIFZpZXcxEDAOBgNVBAoMB1Rlc3QgQ0ExFTATBgNVBAMMDFRlc3QgUm9v
dCBDQTAeFw0yNTEwMTAxNzEyMTlaFw0zNTEwMDgxNzEyMTlaMGsxCzAJBgNVBAYT
AlVTMRMwEQYDVQQIDApDYWxpZm9ybmlhMRYwFAYDVQQHDA1Nb3VudGFpbiBWaWV3
MRAwDgYDVQQKDAdUZXN0IENBMR0wGwYDVQQDDBRUZXN0IEludGVybWVkaWF0ZSBD
QTCCASIwDQYJKoZIhvcNAQEBBQADggEPADCCAQoCggEBAJ3pveQ9Si/7wvnmIipC
FUYcjI9HTOnFV5UfZnCTIvCUw7u1W++kb8jHiZV1ugw2v05rqTVHCEOeKWriw/sD
tx+24VFr7XsZx/nOO9xl6WbHg5TE0U7u7WRLgfEa6lpkGBtqTpPQE2yQYMrSTrck
FviyCFidjaczRRU0ga0tLZxg7/krmP55040sSNsSkfQu+r/1JsGCBYDdTKhwv6e8
EDR3OdtHBA/tRLJlRiIgiFkoD8cMorSRpaKqygWfiptuo8vUpOgkdZ0ggSJbX3c+
yfEeruuKM4wnWx6+bSEbQnKV454TA3WnWNS+aBL+Y45LEXo056Nr3XOuPhma7JGL
c68CAwEAAaNjMGEwDwYDVR0TAQH/BAUwAwEB/zAdBgNVHQ4EFgQUF1xF89CsHBBM
i0NEIMTdk8XFGTswDgYDVR0PAQH/BAQDAgEGMB8GA1UdIwQYMBaAFJsmC4qYqbsd
uR8c4xpAM+2OF4irMA0GCSqGSIb3DQEBCwUAA4IBAQAiJLbT7bpKwclPvt4qQXIr
VqdkNaR9QXT8dsL24U7t5DTgEPHNJvZ4dlD3ON/IYJqSvuDWFw3qbb0s0qPSDkbQ
gXocArIFziuz5heOSnMRoz+ajEeRjslH8tHUjbhGW1X+iiFQJlvoEH01NF9uCYMV
RlBPuobcBFdVnD4FrOj5hxDikf8kPmoxdUvecl1SO/4C5sk/ZYOgWdPZTcVRD18v
yJAw5Bc6ldnZ8OOvL48BqyOQ2uQpVToxxd5nPrNLzPBblP1d9lW6w47zcOiIGUC4
f9cpTBwSfqRhrQIz0goU0ft5giCWIBeO3EnPcDimGNGul8xL1ra7CTZ06ClB7nDm
-----END CERTIFICATE-----
