-----BEGIN PRIVATE KEY-----
MIIEvQIBADANBgkqhkiG9w0BAQEFAASCBKcwggSjAgEAAoIBAQCd6b3kPUov+8L5
5iIqQhVGHIyPR0zpxVeVH2ZwkyLwlMO7tVvvpG/Ix4mVdboMNr9Oa6k1RwhDnilq
4sP7A7cftuFRa+17Gcf5zjvcZelmx4OUxNFO7u1kS4HxGupaZBgbak6T0BNskGDK
0k63JBb4sghYnY2nM0UVNIGtLS2cYO/5K5j+edONLEjbEpH0Lvq/9SbBggWA3Uyo
cL+nvBA0dznbRwQP7USyZUYiIIhZKA/HDKK0kaWiqsoFn4qbbqPL1KToJHWdIIEi
W193PsnxHq7rijOMJ1sevm0hG0JyleOeEwN1p1jUvmgS/mOOSxF6NOeja91zrj4Z
muyRi3OvAgMBAAECggEBAJwu2gyK/fw1YqNtlS78izP7+p2fZJf2AejQ1K3VKQKP
8IOQHW0I0zLe/9oeRTPdVhtG6mVyat8N6GL6A+IZy54HcBTqzUgquJn++z/CYDWy
cRbMD0SllY/UCqIf/9gFFb7PxwX1D7EZn1Ia7ZW/kSTKWOzkb30GfXY6p2NTwr/d
psacQ5v6+o8z3RD2N44gPvrGA2d1P83YT0oIYwKAHtpu6c46CBQmf54lhjs1LdxE
UgF8w+Y8T8DZQ5WekchIWBcGZLiqBkm49+uBoGtlfrcszZkC3pnX++HoZAYE9ms4
OCdWhEBHUyhd/os7GjaX+CGUM4nNx0LmoqeJBhBt0qkCgYEAzcsWqVYruimpnES+
lzFIiFZXI6rYd7hkJ+semFst4UFQM51TE0gXkrzZdIu/rgmRlb05to739V1i2z0B
TxGka+WzL6j4ZtJjy2WBl35GceoeL5Iwbjs8OiJFr8TAkq9v3TT2iymuUDGSHCCz
1T9GfS4/zoLNGiqKOxp7O6ZwaC0CgYEAxHBFRtQ1eeKYL5FZwWv2JklivutDWURK
0dzbzsvKaUf40ZdZe+A6cFomckm7xubHwMckY+8Y011pgF581JWWIaRs8u8jJuWA
ajjfmFSC0L5uuk6qYHa9eWQu8LvUGmKX9SMs7Mt2h7BS+l+ZDbgr6LngoK1CWGEK
DLo0/fp7OMsCgYAi++RVUx3J3u1DcHhJ8YnYC31yxcdYytLT6mdgFRf+lADTVWpa
+8VuH4aEBoHGT0AdiXZ3L2S9pGt6w6smSuR9pyXH81yO9jMaz52xKDlHgjoxchOj
mZRKeasJD1SBWyuUGj3TOHm2jka9W13W4ZPVEfis3ZWKXjLzizPp1wiC3QKBgEMX
ESIKsiTptg5w9xWveMdEwxvvn/Xp9B/O7aeoRH5GnX1/0okTYQIkWAMqmZ5qDYkS
uqQC8himS7UTEFFOsZLV5HvoHrpXIc+lkwAkxPTkRU8ONPRzOW0vQTTpAZztVXbc
x6gsKVRYbU6jvdNItn5qlYRrCEDFC7ijFBw2I0WXAoGARVYDlmIrSvnwqZ07YzPa
QeLueBBfnHqN+7XAGTctn0MOhE96OgURw0lWVnyoGtTmUAHtdho5EeDDUxQm/n1x
whGM72yqlFlslpnodQUqAYz1Eqe+RgP9V8KXdUVz652jqZwhuqLBjtAc9e9knwR8
MTmwsskxSp9DWTu+tCjNrwM=
-----END PRIVATE KEY-----
Certificate:
    Data:
        Version: 3 (0x2)
        Serial Number:
            12:f6:d9:f1:80:1b:50:9f:64:09:c8:ea:2f:16:33:a0
        Signature Algorithm: sha256WithRSAEncryption
        Issuer: C=US, ST=California, L=Mountain View, O=Test CA, CN=Test Root CA
        Validity
            Not Before: Dec  1 15:42:06 2021 GMT
            Not After : Nov 29 15:42:06 2031 GMT
        Subject: C=US, ST=California, L=Mountain View, O=Test CA, CN=Test Intermediate CA
        Subject Public Key Info:
            Public Key Algorithm: rsaEncryption
                RSA Public-Key: (2048 bit)
                Modulus:
                    00:9d:e9:bd:e4:3d:4a:2f:fb:c2:f9:e6:22:2a:42:
                    15:46:1c:8c:8f:47:4c:e9:c5:57:95:1f:66:70:93:
                    22:f0:94:c3:bb:b5:5b:ef:a4:6f:c8:c7:89:95:75:
                    ba:0c:36:bf:4e:6b:a9:35:47:08:43:9e:29:6a:e2:
                    c3:fb:03:b7:1f:b6:e1:51:6b:ed:7b:19:c7:f9:ce:
                    3b:dc:65:e9:66:c7:83:94:c4:d1:4e:ee:ed:64:4b:
                    81:f1:1a:ea:5a:64:18:1b:6a:4e:93:d0:13:6c:90:
                    60:ca:d2:4e:b7:24:16:f8:b2:08:58:9d:8d:a7:33:
                    45:15:34:81:ad:2d:2d:9c:60:ef:f9:2b:98:fe:79:
                    d3:8d:2c:48:db:12:91:f4:2e:fa:bf:f5:26:c1:82:
                    05:80:dd:4c:a8:70:bf:a7:bc:10:34:77:39:db:47:
                    04:0f:ed:44:b2:65:46:22:20:88:59:28:0f:c7:0c:
                    a2:b4:91:a5:a2:aa:ca:05:9f:8a:9b:6e:a3:cb:d4:
                    a4:e8:24:75:9d:20:81:22:5b:5f:77:3e:c9:f1:1e:
                    ae:eb:8a:33:8c:27:5b:1e:be:6d:21:1b:42:72:95:
                    e3:9e:13:03:75:a7:58:d4:be:68:12:fe:63:8e:4b:
                    11:7a:34:e7:a3:6b:dd:73:ae:3e:19:9a:ec:91:8b:
                    73:af
                Exponent: 65537 (0x10001)
        X509v3 extensions:
            X509v3 Basic Constraints: critical
                CA:TRUE
            X509v3 Subject Key Identifier: 
                17:5C:45:F3:D0:AC:1C:10:4C:8B:43:44:20:C4:DD:93:C5:C5:19:3B
            X509v3 Key Usage: critical
                Certificate Sign, CRL Sign
    Signature Algorithm: sha256WithRSAEncryption
         9c:b1:c1:f7:c5:82:aa:43:3e:04:32:9c:32:18:de:ec:e4:d8:
         60:d8:83:a3:b0:9b:76:b8:e8:4e:e5:e2:45:d6:71:76:cc:f9:
         4d:5a:18:cb:06:4f:fb:a6:22:56:f3:d2:1b:c2:64:ff:c6:1e:
         21:da:34:a5:e3:eb:e6:98:cf:6e:2d:77:bb:e6:ac:37:24:b1:
         12:21:8b:88:11:ef:59:cf:b0:e0:a3:b5:6d:8c:ec:f8:de:ea:
         5e:e4:e0:ed:2f:7c:91:a1:d0:ba:69:d6:bc:24:b7:fe:7d:11:
         9e:65:ba:25:a5:22:55:53:fd:6b:18:30:17:ec:d3:d8:69:5a:
         51:4c:e4:27:47:13:a9:b1:8b:1b:b4:9a:f0:8f:a9:a2:91:56:
         b4:b9:e1:ed:c0:7e:58:34:e9:a5:2d:fd:02:b3:3b:47:02:42:
         6c:ce:c2:98:b1:45:11:06:68:3a:48:be:cc:bf:66:b0:8e:c6:
         02:ff:b8:68:64:d8:4b:44:25:b6:c5:78:63:17:53:e6:1b:8d:
         8d:5d:0c:54:c7:fa:01:25:e5:5d:d6:dc:52:e0:25:9d:12:0d:
         56:01:a9:c7:d9:3e:86:74:e1:d6:de:f9:0e:60:e2:6a:0f:a9:
         fa:4d:3a:1d:5b:b1:26:1c:a7:5f:9e:71:62:f0:2c:ad:1e:e8:
         ec:87:20:cf
-----BEGIN CERTIFICATE-----
MIIDmjCCAoKgAwIBAgIQEvbZ8YAbUJ9kCcjqLxYzoDANBgkqhkiG9w0BAQsFADBj
MQswCQYDVQQGEwJVUzETMBEGA1UECAwKQ2FsaWZvcm5pYTEWMBQGA1UEBwwNTW91
bnRhaW4gVmlldzEQMA4GA1UECgwHVGVzdCBDQTEVMBMGA1UEAwwMVGVzdCBSb290
IENBMB4XDTIxMTIwMTE1NDIwNloXDTMxMTEyOTE1NDIwNlowazELMAkGA1UEBhMC
VVMxEzARBgNVBAgMCkNhbGlmb3JuaWExFjAUBgNVBAcMDU1vdW50YWluIFZpZXcx
EDAOBgNVBAoMB1Rlc3QgQ0ExHTAbBgNVBAMMFFRlc3QgSW50ZXJtZWRpYXRlIENB
MIIBIjANBgkqhkiG9w0BAQEFAAOCAQ8AMIIBCgKCAQEAnem95D1KL/vC+eYiKkIV
RhyMj0dM6cVXlR9mcJMi8JTDu7Vb76RvyMeJlXW6DDa/TmupNUcIQ54pauLD+wO3
H7bhUWvtexnH+c473GXpZseDlMTRTu7tZEuB8RrqWmQYG2pOk9ATbJBgytJOtyQW
+LIIWJ2NpzNFFTSBrS0tnGDv+SuY/nnTjSxI2xKR9C76v/UmwYIFgN1MqHC/p7wQ
NHc520cED+1EsmVGIiCIWSgPxwyitJGloqrKBZ+Km26jy9Sk6CR1nSCBIltfdz7J
8R6u64ozjCdbHr5tIRtCcpXjnhMDdadY1L5oEv5jjksRejTno2vdc64+GZrskYtz
rwIDAQABo0IwQDAPBgNVHRMBAf8EBTADAQH/MB0GA1UdDgQWBBQXXEXz0KwcEEyL
Q0QgxN2TxcUZOzAOBgNVHQ8BAf8EBAMCAQYwDQYJKoZIhvcNAQELBQADggEBAJyx
wffFgqpDPgQynDIY3uzk2GDYg6Owm3a46E7l4kXWcXbM+U1aGMsGT/umIlbz0hvC
ZP/GHiHaNKXj6+aYz24td7vmrDcksRIhi4gR71nPsOCjtW2M7Pje6l7k4O0vfJGh
0Lpp1rwkt/59EZ5luiWlIlVT/WsYMBfs09hpWlFM5CdHE6mxixu0mvCPqaKRVrS5
4e3Aflg06aUt/QKzO0cCQmzOwpixRREGaDpIvsy/ZrCOxgL/uGhk2EtEJbbFeGMX
U+YbjY1dDFTH+gEl5V3W3FLgJZ0SDVYBqcfZPoZ04dbe+Q5g4moPqfpNOh1bsSYc
p1+ecWLwLK0e6OyHIM8=
-----END CERTIFICATE-----
