-----BEGIN PRIVATE KEY-----
MIIEvQIBADANBgkqhkiG9w0BAQEFAASCBKcwggSjAgEAAoIBAQCd6b3kPUov+8L5
5iIqQhVGHIyPR0zpxVeVH2ZwkyLwlMO7tVvvpG/Ix4mVdboMNr9Oa6k1RwhDnilq
4sP7A7cftuFRa+17Gcf5zjvcZelmx4OUxNFO7u1kS4HxGupaZBgbak6T0BNskGDK
0k63JBb4sghYnY2nM0UVNIGtLS2cYO/5K5j+edONLEjbEpH0Lvq/9SbBggWA3Uyo
cL+nvBA0dznbRwQP7USyZUYiIIhZKA/HDKK0kaWiqsoFn4qbbqPL1KToJHWdIIEi
W193PsnxHq7rijOMJ1sevm0hG0JyleOeEwN1p1jUvmgS/mOOSxF6NOeja91zrj4Z
muyRi3OvAgMBAAECggEBAJwu2gyK/fw1YqNtlS78izP7+p2fZJf2AejQ1K3VKQKP
8IOQHW0I0zLe/9oeRTPdVhtG6mVyat8N6GL6A+IZy54HcBTqzUgquJn++z/CYDWy
cRbMD0SllY/UCqIf/9gFFb7PxwX1D7EZn1Ia7ZW/kSTKWOzkb30GfXY6p2NTwr/d
psacQ5v6+o8z3RD2N44gPvrGA2d1P83YT0oIYwKAHtpu6c46CBQmf54lhjs1LdxE
UgF8w+Y8T8DZQ5WekchIWBcGZLiqBkm49+uBoGtlfrcszZkC3pnX++HoZAYE9ms4
OCdWhEBHUyhd/os7GjaX+CGUM4nNx0LmoqeJBhBt0qkCgYEAzcsWqVYruimpnES+
lzFIiFZXI6rYd7hkJ+semFst4UFQM51TE0gXkrzZdIu/rgmRlb05to739V1i2z0B
TxGka+WzL6j4ZtJjy2WBl35GceoeL5Iwbjs8OiJFr8TAkq9v3TT2iymuUDGSHCCz
1T9GfS4/zoLNGiqKOxp7O6ZwaC0CgYEAxHBFRtQ1eeKYL5FZwWv2JklivutDWURK
0dzbzsvKaUf40ZdZe+A6cFomckm7xubHwMckY+8Y011pgF581JWWIaRs8u8jJuWA
ajjfmFSC0L5uuk6qYHa9eWQu8LvUGmKX9SMs7Mt2h7BS+l+ZDbgr6LngoK1CWGEK
DLo0/fp7OMsCgYAi++RVUx3J3u1DcHhJ8YnYC31yxcdYytLT6mdgFRf+lADTVWpa
+8VuH4aEBoHGT0AdiXZ3L2S9pGt6w6smSuR9pyXH81yO9jMaz52xKDlHgjoxchOj
mZRKeasJD1SBWyuUGj3TOHm2jka9W13W4ZPVEfis3ZWKXjLzizPp1wiC3QKBgEMX
ESIKsiTptg5w9xWveMdEwxvvn/Xp9B/O7aeoRH5GnX1/0okTYQIkWAMqmZ5qDYkS
uqQC8himS7UTEFFOsZLV5HvoHrpXIc+lkwAkxPTkRU8ONPRzOW0vQTTpAZztVXbc
x6gsKVRYbU6jvdNItn5qlYRrCEDFC7ijFBw2I0WXAoGARVYDlmIrSvnwqZ07YzPa
QeLueBBfnHqN+7XAGTctn0MOhE96OgURw0lWVnyoGtTmUAHtdho5EeDDUxQm/n1x
whGM72yqlFlslpnodQUqAYz1Eqe+RgP9V8KXdUVz652jqZwhuqLBjtAc9e9knwR8
MTmwsskxSp9DWTu+tCjNrwM=
-----END PRIVATE KEY-----
Certificate:
    Data:
        Version: 3 (0x2)
        Serial Number:
            b0:6b:93:92:e3:5c:8d:7e:ed:9d:c8:96:59:c5:c2:64
        Signature Algorithm: sha256WithRSAEncryption
        Issuer: C=US, ST=California, L=Mountain View, O=Test CA, CN=Test Root CA
        Validity
            Not Before: Oct  3 17:20:08 2022 GMT
            Not After : Sep 30 17:20:08 2032 GMT
        Subject: C=US, ST=California, L=Mountain View, O=Test CA, CN=Test Intermediate CA
        Subject Public Key Info:
            Public Key Algorithm: rsaEncryption
                Public-Key: (2048 bit)
                Modulus:
                    00:9d:e9:bd:e4:3d:4a:2f:fb:c2:f9:e6:22:2a:42:
                    15:46:1c:8c:8f:47:4c:e9:c5:57:95:1f:66:70:93:
                    22:f0:94:c3:bb:b5:5b:ef:a4:6f:c8:c7:89:95:75:
                    ba:0c:36:bf:4e:6b:a9:35:47:08:43:9e:29:6a:e2:
                    c3:fb:03:b7:1f:b6:e1:51:6b:ed:7b:19:c7:f9:ce:
                    3b:dc:65:e9:66:c7:83:94:c4:d1:4e:ee:ed:64:4b:
                    81:f1:1a:ea:5a:64:18:1b:6a:4e:93:d0:13:6c:90:
                    60:ca:d2:4e:b7:24:16:f8:b2:08:58:9d:8d:a7:33:
                    45:15:34:81:ad:2d:2d:9c:60:ef:f9:2b:98:fe:79:
                    d3:8d:2c:48:db:12:91:f4:2e:fa:bf:f5:26:c1:82:
                    05:80:dd:4c:a8:70:bf:a7:bc:10:34:77:39:db:47:
                    04:0f:ed:44:b2:65:46:22:20:88:59:28:0f:c7:0c:
                    a2:b4:91:a5:a2:aa:ca:05:9f:8a:9b:6e:a3:cb:d4:
                    a4:e8:24:75:9d:20:81:22:5b:5f:77:3e:c9:f1:1e:
                    ae:eb:8a:33:8c:27:5b:1e:be:6d:21:1b:42:72:95:
                    e3:9e:13:03:75:a7:58:d4:be:68:12:fe:63:8e:4b:
                    11:7a:34:e7:a3:6b:dd:73:ae:3e:19:9a:ec:91:8b:
                    73:af
                Exponent: 65537 (0x10001)
        X509v3 extensions:
            X509v3 Basic Constraints: critical
                CA:TRUE
            X509v3 Subject Key Identifier: 
                17:5C:45:F3:D0:AC:1C:10:4C:8B:43:44:20:C4:DD:93:C5:C5:19:3B
            X509v3 Key Usage: critical
                Certificate Sign, CRL Sign
            X509v3 Authority Key Identifier: 
                9B:26:0B:8A:98:A9:BB:1D:B9:1F:1C:E3:1A:40:33:ED:8E:17:88:AB
    Signature Algorithm: sha256WithRSAEncryption
    Signature Value:
        25:54:8b:68:3b:3c:92:ed:1b:c7:a1:62:b3:7c:ff:7e:8c:57:
        7c:67:5c:ea:74:9f:e8:f1:b5:c8:e4:88:0e:c9:a3:f3:28:c4:
        05:af:8f:ad:51:32:66:ae:5d:7a:b1:77:7e:99:06:c8:30:26:
        5a:9f:1e:34:ea:aa:3e:0a:73:a2:40:e3:8f:1a:01:96:a2:6d:
        2f:6c:d9:36:65:98:c8:86:41:0e:ee:0d:aa:da:62:54:62:23:
        c6:23:b0:f1:ca:35:7b:e5:4b:d1:ab:80:80:d6:00:2b:19:85:
        9d:e0:3c:3f:13:1e:90:d2:df:c3:31:90:0f:a8:40:08:33:4e:
        f7:a4:d0:ed:3e:a4:41:cf:e8:37:49:d1:58:e8:07:3d:4b:a1:
        c9:fe:12:07:9a:de:e0:c8:f3:68:d6:31:5d:03:77:2f:fa:b0:
        e6:2c:f3:80:59:d0:9b:1b:59:22:cd:7e:58:c6:cf:82:92:c3:
        76:95:78:b2:75:c8:fa:59:9f:0e:c0:e3:6d:70:f9:82:ba:db:
        89:89:81:b7:b9:e1:41:63:51:56:8a:5a:d2:52:c2:19:2f:d9:
        c0:9d:19:82:59:79:f9:56:1c:25:81:4d:0a:cd:77:1b:de:85:
        6e:51:04:08:0b:0c:33:65:52:f6:90:a8:82:25:77:a0:fa:5e:
        9c:2a:91:66
-----BEGIN CERTIFICATE-----
MIIDvDCCAqSgAwIBAgIRALBrk5LjXI1+7Z3IllnFwmQwDQYJKoZIhvcNAQELBQAw
YzELMAkGA1UEBhMCVVMxEzARBgNVBAgMCkNhbGlmb3JuaWExFjAUBgNVBAcMDU1v
dW50YWluIFZpZXcxEDAOBgNVBAoMB1Rlc3QgQ0ExFTATBgNVBAMMDFRlc3QgUm9v
dCBDQTAeFw0yMjEwMDMxNzIwMDhaFw0zMjA5MzAxNzIwMDhaMGsxCzAJBgNVBAYT
AlVTMRMwEQYDVQQIDApDYWxpZm9ybmlhMRYwFAYDVQQHDA1Nb3VudGFpbiBWaWV3
MRAwDgYDVQQKDAdUZXN0IENBMR0wGwYDVQQDDBRUZXN0IEludGVybWVkaWF0ZSBD
QTCCASIwDQYJKoZIhvcNAQEBBQADggEPADCCAQoCggEBAJ3pveQ9Si/7wvnmIipC
FUYcjI9HTOnFV5UfZnCTIvCUw7u1W++kb8jHiZV1ugw2v05rqTVHCEOeKWriw/sD
tx+24VFr7XsZx/nOO9xl6WbHg5TE0U7u7WRLgfEa6lpkGBtqTpPQE2yQYMrSTrck
FviyCFidjaczRRU0ga0tLZxg7/krmP55040sSNsSkfQu+r/1JsGCBYDdTKhwv6e8
EDR3OdtHBA/tRLJlRiIgiFkoD8cMorSRpaKqygWfiptuo8vUpOgkdZ0ggSJbX3c+
yfEeruuKM4wnWx6+bSEbQnKV454TA3WnWNS+aBL+Y45LEXo056Nr3XOuPhma7JGL
c68CAwEAAaNjMGEwDwYDVR0TAQH/BAUwAwEB/zAdBgNVHQ4EFgQUF1xF89CsHBBM
i0NEIMTdk8XFGTswDgYDVR0PAQH/BAQDAgEGMB8GA1UdIwQYMBaAFJsmC4qYqbsd
uR8c4xpAM+2OF4irMA0GCSqGSIb3DQEBCwUAA4IBAQAlVItoOzyS7RvHoWKzfP9+
jFd8Z1zqdJ/o8bXI5IgOyaPzKMQFr4+tUTJmrl16sXd+mQbIMCZanx406qo+CnOi
QOOPGgGWom0vbNk2ZZjIhkEO7g2q2mJUYiPGI7DxyjV75UvRq4CA1gArGYWd4Dw/
Ex6Q0t/DMZAPqEAIM073pNDtPqRBz+g3SdFY6Ac9S6HJ/hIHmt7gyPNo1jFdA3cv
+rDmLPOAWdCbG1kizX5Yxs+CksN2lXiydcj6WZ8OwONtcPmCutuJiYG3ueFBY1FW
ilrSUsIZL9nAnRmCWXn5VhwlgU0KzXcb3oVuUQQICwwzZVL2kKiCJXeg+l6cKpFm
-----END CERTIFICATE-----
