-----BEGIN RSA PRIVATE KEY-----
MIIEowIBAAKCAQEAnem95D1KL/vC+eYiKkIVRhyMj0dM6cVXlR9mcJMi8JTDu7Vb
76RvyMeJlXW6DDa/TmupNUcIQ54pauLD+wO3H7bhUWvtexnH+c473GXpZseDlMTR
Tu7tZEuB8RrqWmQYG2pOk9ATbJBgytJOtyQW+LIIWJ2NpzNFFTSBrS0tnGDv+SuY
/nnTjSxI2xKR9C76v/UmwYIFgN1MqHC/p7wQNHc520cED+1EsmVGIiCIWSgPxwyi
tJGloqrKBZ+Km26jy9Sk6CR1nSCBIltfdz7J8R6u64ozjCdbHr5tIRtCcpXjnhMD
dadY1L5oEv5jjksRejTno2vdc64+GZrskYtzrwIDAQABAoIBAQCcLtoMiv38NWKj
bZUu/Isz+/qdn2SX9gHo0NSt1SkCj/CDkB1tCNMy3v/aHkUz3VYbRuplcmrfDehi
+gPiGcueB3AU6s1IKriZ/vs/wmA1snEWzA9EpZWP1AqiH//YBRW+z8cF9Q+xGZ9S
Gu2Vv5Ekyljs5G99Bn12OqdjU8K/3abGnEOb+vqPM90Q9jeOID76xgNndT/N2E9K
CGMCgB7abunOOggUJn+eJYY7NS3cRFIBfMPmPE/A2UOVnpHISFgXBmS4qgZJuPfr
gaBrZX63LM2ZAt6Z1/vh6GQGBPZrODgnVoRAR1MoXf6LOxo2l/ghlDOJzcdC5qKn
iQYQbdKpAoGBAM3LFqlWK7opqZxEvpcxSIhWVyOq2He4ZCfrHphbLeFBUDOdUxNI
F5K82XSLv64JkZW9ObaO9/VdYts9AU8RpGvlsy+o+GbSY8tlgZd+RnHqHi+SMG47
PDoiRa/EwJKvb9009osprlAxkhwgs9U/Rn0uP86CzRoqijsaezumcGgtAoGBAMRw
RUbUNXnimC+RWcFr9iZJYr7rQ1lEStHc287LymlH+NGXWXvgOnBaJnJJu8bmx8DH
JGPvGNNdaYBefNSVliGkbPLvIyblgGo435hUgtC+brpOqmB2vXlkLvC71Bpil/Uj
LOzLdoewUvpfmQ24K+i54KCtQlhhCgy6NP36ezjLAoGAIvvkVVMdyd7tQ3B4SfGJ
2At9csXHWMrS0+pnYBUX/pQA01VqWvvFbh+GhAaBxk9AHYl2dy9kvaRresOrJkrk
faclx/NcjvYzGs+dsSg5R4I6MXITo5mUSnmrCQ9UgVsrlBo90zh5to5GvVtd1uGT
1RH4rN2Vil4y84sz6dcIgt0CgYBDFxEiCrIk6bYOcPcVr3jHRMMb75/16fQfzu2n
qER+Rp19f9KJE2ECJFgDKpmeag2JErqkAvIYpku1ExBRTrGS1eR76B66VyHPpZMA
JMT05EVPDjT0czltL0E06QGc7VV23MeoLClUWG1Oo73TSLZ+apWEawhAxQu4oxQc
NiNFlwKBgEVWA5ZiK0r58KmdO2Mz2kHi7ngQX5x6jfu1wBk3LZ9DDoRPejoFEcNJ
VlZ8qBrU5lAB7XYaORHgw1MUJv59ccIRjO9sqpRZbJaZ6HUFKgGM9RKnvkYD/VfC
l3VFc+udo6mcIbqiwY7QHPXvZJ8EfDE5sLLJMUqfQ1k7vrQoza8D
-----END RSA PRIVATE KEY-----
Certificate:
    Data:
        Version: 3 (0x2)
        Serial Number:
            3e:2c:9d:be:b0:42:c8:cf:fc:99:42:d5:4d:41:6a:a2
        Signature Algorithm: sha256WithRSAEncryption
        Issuer: C=US, ST=California, L=Mountain View, O=Test CA, CN=Test Root CA
        Validity
            Not Before: Mar 13 20:46:16 2020 GMT
            Not After : Mar 11 20:46:16 2030 GMT
        Subject: C=US, ST=California, L=Mountain View, O=Test CA, CN=Test Intermediate CA
        Subject Public Key Info:
            Public Key Algorithm: rsaEncryption
                RSA Public-Key: (2048 bit)
                Modulus:
                    00:9d:e9:bd:e4:3d:4a:2f:fb:c2:f9:e6:22:2a:42:
                    15:46:1c:8c:8f:47:4c:e9:c5:57:95:1f:66:70:93:
                    22:f0:94:c3:bb:b5:5b:ef:a4:6f:c8:c7:89:95:75:
                    ba:0c:36:bf:4e:6b:a9:35:47:08:43:9e:29:6a:e2:
                    c3:fb:03:b7:1f:b6:e1:51:6b:ed:7b:19:c7:f9:ce:
                    3b:dc:65:e9:66:c7:83:94:c4:d1:4e:ee:ed:64:4b:
                    81:f1:1a:ea:5a:64:18:1b:6a:4e:93:d0:13:6c:90:
                    60:ca:d2:4e:b7:24:16:f8:b2:08:58:9d:8d:a7:33:
                    45:15:34:81:ad:2d:2d:9c:60:ef:f9:2b:98:fe:79:
                    d3:8d:2c:48:db:12:91:f4:2e:fa:bf:f5:26:c1:82:
                    05:80:dd:4c:a8:70:bf:a7:bc:10:34:77:39:db:47:
                    04:0f:ed:44:b2:65:46:22:20:88:59:28:0f:c7:0c:
                    a2:b4:91:a5:a2:aa:ca:05:9f:8a:9b:6e:a3:cb:d4:
                    a4:e8:24:75:9d:20:81:22:5b:5f:77:3e:c9:f1:1e:
                    ae:eb:8a:33:8c:27:5b:1e:be:6d:21:1b:42:72:95:
                    e3:9e:13:03:75:a7:58:d4:be:68:12:fe:63:8e:4b:
                    11:7a:34:e7:a3:6b:dd:73:ae:3e:19:9a:ec:91:8b:
                    73:af
                Exponent: 65537 (0x10001)
        X509v3 extensions:
            X509v3 Basic Constraints: critical
                CA:TRUE
            X509v3 Subject Key Identifier: 
                17:5C:45:F3:D0:AC:1C:10:4C:8B:43:44:20:C4:DD:93:C5:C5:19:3B
            X509v3 Key Usage: critical
                Certificate Sign, CRL Sign
    Signature Algorithm: sha256WithRSAEncryption
         00:25:9c:ba:83:ee:0f:a2:57:cc:9a:d4:50:15:d5:e0:e7:4a:
         8a:57:d1:3e:b1:de:a5:be:26:f0:22:98:35:c0:ee:f1:84:4f:
         aa:8d:92:e5:5c:29:23:ad:68:fb:9a:68:d0:2c:6e:04:5e:25:
         fb:a0:65:04:fc:82:0b:ec:5b:53:a9:f4:61:1e:15:0f:5e:93:
         94:ec:d3:31:82:06:a1:16:09:01:b9:cb:90:a9:f9:ac:e3:d3:
         15:4c:2c:75:1c:97:24:d3:33:33:e1:b3:53:28:4e:e3:8e:6f:
         59:06:83:20:06:bd:9b:e9:44:8a:bd:80:59:6d:c2:cd:ce:c5:
         9c:81:31:3c:72:f5:6c:bf:31:69:a9:7c:32:28:cb:0e:d3:fd:
         23:5b:30:e0:c1:e9:c8:f8:6e:21:d1:86:c6:ca:62:a6:d6:19:
         e4:0b:25:88:95:74:ce:b3:c6:4c:3c:32:63:d6:6a:8b:a3:49:
         53:15:85:9d:1a:06:16:e5:62:35:f5:d2:8c:99:91:15:35:9e:
         9d:36:98:75:4d:f9:39:de:2e:74:8f:36:2b:3a:b4:51:74:26:
         7c:22:6b:c3:52:3e:03:9f:cc:31:e9:24:68:6b:49:63:b5:24:
         6f:08:79:ed:4a:c1:6b:b5:da:72:1f:d5:a4:7e:6c:9b:4d:d2:
         4d:5d:c1:2b
-----BEGIN CERTIFICATE-----
MIIDmjCCAoKgAwIBAgIQPiydvrBCyM/8mULVTUFqojANBgkqhkiG9w0BAQsFADBj
MQswCQYDVQQGEwJVUzETMBEGA1UECAwKQ2FsaWZvcm5pYTEWMBQGA1UEBwwNTW91
bnRhaW4gVmlldzEQMA4GA1UECgwHVGVzdCBDQTEVMBMGA1UEAwwMVGVzdCBSb290
IENBMB4XDTIwMDMxMzIwNDYxNloXDTMwMDMxMTIwNDYxNlowazELMAkGA1UEBhMC
VVMxEzARBgNVBAgMCkNhbGlmb3JuaWExFjAUBgNVBAcMDU1vdW50YWluIFZpZXcx
EDAOBgNVBAoMB1Rlc3QgQ0ExHTAbBgNVBAMMFFRlc3QgSW50ZXJtZWRpYXRlIENB
MIIBIjANBgkqhkiG9w0BAQEFAAOCAQ8AMIIBCgKCAQEAnem95D1KL/vC+eYiKkIV
RhyMj0dM6cVXlR9mcJMi8JTDu7Vb76RvyMeJlXW6DDa/TmupNUcIQ54pauLD+wO3
H7bhUWvtexnH+c473GXpZseDlMTRTu7tZEuB8RrqWmQYG2pOk9ATbJBgytJOtyQW
+LIIWJ2NpzNFFTSBrS0tnGDv+SuY/nnTjSxI2xKR9C76v/UmwYIFgN1MqHC/p7wQ
NHc520cED+1EsmVGIiCIWSgPxwyitJGloqrKBZ+Km26jy9Sk6CR1nSCBIltfdz7J
8R6u64ozjCdbHr5tIRtCcpXjnhMDdadY1L5oEv5jjksRejTno2vdc64+GZrskYtz
rwIDAQABo0IwQDAPBgNVHRMBAf8EBTADAQH/MB0GA1UdDgQWBBQXXEXz0KwcEEyL
Q0QgxN2TxcUZOzAOBgNVHQ8BAf8EBAMCAQYwDQYJKoZIhvcNAQELBQADggEBAAAl
nLqD7g+iV8ya1FAV1eDnSopX0T6x3qW+JvAimDXA7vGET6qNkuVcKSOtaPuaaNAs
bgReJfugZQT8ggvsW1Op9GEeFQ9ek5Ts0zGCBqEWCQG5y5Cp+azj0xVMLHUclyTT
MzPhs1MoTuOOb1kGgyAGvZvpRIq9gFltws3OxZyBMTxy9Wy/MWmpfDIoyw7T/SNb
MODB6cj4biHRhsbKYqbWGeQLJYiVdM6zxkw8MmPWaoujSVMVhZ0aBhblYjX10oyZ
kRU1np02mHVN+TneLnSPNis6tFF0Jnwia8NSPgOfzDHpJGhrSWO1JG8Iee1KwWu1
2nIf1aR+bJtN0k1dwSs=
-----END CERTIFICATE-----
