-----BEGIN RSA PRIVATE KEY-----
MIIEowIBAAKCAQEAqSCdZFMJPeZbkgJRdKS1eKm+mH2UrcCFgr4r9LJV7ltttFfz
vR2CEmIWrQWo3wc/d2vrUMTMks4TaGun/YB2UbI8gnYlSy+B/5ExPZvfEtIib3lj
hm6O23k9Ln7VYumy3AnU8AH5lZvknkk489KrHk1FdpeB5W3+480w3/cB0Rk/MiBN
S1y2T0XhQmLhd37yfyv34Zex7Ir4gwMaq3fQgHYV05ykK8OynOTgSaFkacQw+0RK
vJ9veprmHVfYVS+yLJaNn1QFRMw+1KLGnt1aP47JV4N0m/tFhT554i9+uGYF+11D
l0o5HeMTHuVUSb9y6GkCGVPXocTrt5tq3CuZ7QIDAQABAoIBAGZ0OIRu/Pk/lBdW
SiwEH17STYCpCqlbKEX0mEIqyn2Ta1jFswTMXGBwhVYZSJybEmpwuON75IXGSuGF
3gVmjcad16QcmCj8xZ6hQRgWVcNcArpO6eilDuuLfXGuKew6sDw1xIYEXEKyZoMw
zkx+QWUg4ESgMXNf9/nd8o6qXrJgwcgnETXRvnd38euQZs5EpFKjD/6VTMDtwrFD
7prFe24527V8qS9EC6GZDOEI1lmg1Zrwu565BpwsHViExHN40/ixcMaru0X1K9nJ
A7FSPY+YN5SRTDf6A8cOPEpmfho5PD9LCQ/KUQJty+m5nQ+OxI2T87h7czBVEcJO
vu0CQC0CgYEA1RPBwXP/MQR27GIRT57kMYkXM8/xxOVT7zRe9WZCE1fHkKsgnwr/
V2Sg+uDAf/eTRh6CEsTyw9d9K9Dh/LyzjvaBRvLs3wBkhgVo2raLbyqYduPn481/
2OA6zuEbGQXincwMYYCAHtYjfiVaD9/y/Qk7x8YGxDqPY/2z1HyMY4cCgYEAyzJl
/diffYieQ4CX0GOrgkHVA9FxB3U3zLhAksTnL4UGR9O7vkaQnDUBJdH5G/zkA8Ki
hAIXMvONgQI/UArKVP6Urts2rcCZ4JNoPGD99qapJHbj/kNUFePaGcRt5sd7DbNF
JShqmYLnyMUSVSbV0Olk0NsXtm2PFQriY34LG+sCgYEAlxUULFxYVORKgp+ikKck
PG9tMUK/thG5awHiVvRz4405Jr4AOmUs2kWy01BrjhD4rx5QsohNbkmsKlZI9tDC
LJti3PDAvfpkTJcnWvVWdrNoOdytftwmS5vqdugsM5j1r1eQa84WikbiEb7gViNA
AuT6K1OhVqADLi4kxYSucp8CgYBgiweOfnf4ywp3BAgdiN2aO/EbqU1Mv9LNP9Xe
ZhN5rnh3dBBFrX1T2pM7BvKW66bian2QvvWKzdEztH+kZhwQGg1GrvzhvRrfauoh
levUXwcKPjrBOfgflmyvxXZ6Kdk7fyuhJfzQBzRdXdUCBDue0OWHnjE8Cf3rf4pk
vyREFQKBgEx/yROl1HUIX2pmD5vR8LGh1bpGsu8qX6FOwENpE/R6gXjJOrCLBfi6
bSWBJKVOKDKLrPEzqTlJXvsmzSB/+OljuuQD889yvd9yn9RFVroW74P/ExuRpHVM
woCHpqVne8CzbvGnA1U9OOyShgL7LQ3xKjShKC6bSO4whTq0INMo
-----END RSA PRIVATE KEY-----
Certificate:
    Data:
        Version: 3 (0x2)
        Serial Number:
            1d:b8:83:e4:45:52:b9:81:15:74:5c:51:59:ce:51:f4:71:58:52:9d
        Signature Algorithm: sha256WithRSAEncryption
        Issuer: CN = RSA-2048 keyEncipherment and digitalSignature
        Validity
            Not Before: Mar 22 18:44:47 2019 GMT
            Not After : Mar 19 18:44:47 2029 GMT
        Subject: CN = RSA-2048 keyEncipherment and digitalSignature
        Subject Public Key Info:
            Public Key Algorithm: rsaEncryption
                RSA Public-Key: (2048 bit)
                Modulus:
                    00:a9:20:9d:64:53:09:3d:e6:5b:92:02:51:74:a4:
                    b5:78:a9:be:98:7d:94:ad:c0:85:82:be:2b:f4:b2:
                    55:ee:5b:6d:b4:57:f3:bd:1d:82:12:62:16:ad:05:
                    a8:df:07:3f:77:6b:eb:50:c4:cc:92:ce:13:68:6b:
                    a7:fd:80:76:51:b2:3c:82:76:25:4b:2f:81:ff:91:
                    31:3d:9b:df:12:d2:22:6f:79:63:86:6e:8e:db:79:
                    3d:2e:7e:d5:62:e9:b2:dc:09:d4:f0:01:f9:95:9b:
                    e4:9e:49:38:f3:d2:ab:1e:4d:45:76:97:81:e5:6d:
                    fe:e3:cd:30:df:f7:01:d1:19:3f:32:20:4d:4b:5c:
                    b6:4f:45:e1:42:62:e1:77:7e:f2:7f:2b:f7:e1:97:
                    b1:ec:8a:f8:83:03:1a:ab:77:d0:80:76:15:d3:9c:
                    a4:2b:c3:b2:9c:e4:e0:49:a1:64:69:c4:30:fb:44:
                    4a:bc:9f:6f:7a:9a:e6:1d:57:d8:55:2f:b2:2c:96:
                    8d:9f:54:05:44:cc:3e:d4:a2:c6:9e:dd:5a:3f:8e:
                    c9:57:83:74:9b:fb:45:85:3e:79:e2:2f:7e:b8:66:
                    05:fb:5d:43:97:4a:39:1d:e3:13:1e:e5:54:49:bf:
                    72:e8:69:02:19:53:d7:a1:c4:eb:b7:9b:6a:dc:2b:
                    99:ed
                Exponent: 65537 (0x10001)
        X509v3 extensions:
            X509v3 Key Usage: critical
                Digital Signature, Key Encipherment
    Signature Algorithm: sha256WithRSAEncryption
         07:0f:79:15:f1:d2:1e:d3:65:ae:b1:7d:d1:31:ed:66:ee:07:
         3c:b3:b6:1a:2f:eb:ca:e2:6c:50:cd:af:e7:d4:7d:39:cc:91:
         9e:1c:87:76:f9:5e:97:9f:5d:a1:9c:66:00:41:b8:73:70:7c:
         ed:e2:65:95:77:ad:a0:25:91:7b:d7:f5:b8:54:7f:d5:fc:36:
         78:d7:5e:e9:06:df:d6:46:8f:fa:32:11:25:b2:1d:f8:4b:7d:
         53:46:29:4d:86:26:18:a5:66:9d:11:2e:38:ae:ed:95:5d:2d:
         f9:cd:02:2c:dc:aa:9a:4e:2a:28:0e:3c:43:c5:19:8c:67:6d:
         e1:2c:7e:5a:45:34:08:a3:af:2b:ee:5a:29:da:14:63:84:de:
         44:fb:70:3b:25:4c:66:94:56:08:0c:a4:55:4c:d0:66:68:5b:
         d6:d0:c9:23:55:60:9b:34:f1:17:cc:0f:78:88:15:77:56:8a:
         ca:30:3b:4d:87:d1:e8:bd:1a:4c:79:1d:0e:1b:78:8a:82:8d:
         ae:c2:b7:03:dd:36:d3:10:e3:80:b6:27:f0:ea:38:dd:95:ba:
         94:aa:77:a3:6d:5f:ee:5b:c6:10:5b:2c:e1:0a:c8:fe:ed:9e:
         59:3e:5f:67:36:dd:0f:14:39:9b:c2:c3:99:43:25:81:3f:7e:
         c5:2a:4e:58
-----BEGIN CERTIFICATE-----
MIIDEDCCAfigAwIBAgIUHbiD5EVSuYEVdFxRWc5R9HFYUp0wDQYJKoZIhvcNAQEL
BQAwODE2MDQGA1UEAwwtUlNBLTIwNDgga2V5RW5jaXBoZXJtZW50IGFuZCBkaWdp
dGFsU2lnbmF0dXJlMB4XDTE5MDMyMjE4NDQ0N1oXDTI5MDMxOTE4NDQ0N1owODE2
MDQGA1UEAwwtUlNBLTIwNDgga2V5RW5jaXBoZXJtZW50IGFuZCBkaWdpdGFsU2ln
bmF0dXJlMIIBIjANBgkqhkiG9w0BAQEFAAOCAQ8AMIIBCgKCAQEAqSCdZFMJPeZb
kgJRdKS1eKm+mH2UrcCFgr4r9LJV7ltttFfzvR2CEmIWrQWo3wc/d2vrUMTMks4T
aGun/YB2UbI8gnYlSy+B/5ExPZvfEtIib3ljhm6O23k9Ln7VYumy3AnU8AH5lZvk
nkk489KrHk1FdpeB5W3+480w3/cB0Rk/MiBNS1y2T0XhQmLhd37yfyv34Zex7Ir4
gwMaq3fQgHYV05ykK8OynOTgSaFkacQw+0RKvJ9veprmHVfYVS+yLJaNn1QFRMw+
1KLGnt1aP47JV4N0m/tFhT554i9+uGYF+11Dl0o5HeMTHuVUSb9y6GkCGVPXocTr
t5tq3CuZ7QIDAQABoxIwEDAOBgNVHQ8BAf8EBAMCBaAwDQYJKoZIhvcNAQELBQAD
ggEBAAcPeRXx0h7TZa6xfdEx7WbuBzyzthov68ribFDNr+fUfTnMkZ4ch3b5Xpef
XaGcZgBBuHNwfO3iZZV3raAlkXvX9bhUf9X8NnjXXukG39ZGj/oyESWyHfhLfVNG
KU2GJhilZp0RLjiu7ZVdLfnNAizcqppOKigOPEPFGYxnbeEsflpFNAijryvuWina
FGOE3kT7cDslTGaUVggMpFVM0GZoW9bQySNVYJs08RfMD3iIFXdWisowO02H0ei9
Gkx5HQ4beIqCja7CtwPdNtMQ44C2J/DqON2VupSqd6NtX+5bxhBbLOEKyP7tnlk+
X2c23Q8UOZvCw5lDJYE/fsUqTlg=
-----END CERTIFICATE-----
