-----BEGIN PRIVATE KEY-----
MIIEvgIBADANBgkqhkiG9w0BAQEFAASCBKgwggSkAgEAAoIBAQC1DXXelAoZJiao
NVAj+VG+uFlhp5GJt4hwYTR1oxqXEgricS6ElM7W/VHEJuJv+2KFtRfYSi1xLVri
uRHZNALmLW40UDi1qKJdLMFiTqMg/BEXVM5L1bgAw4kfNm7EwZ64DCdYSPnPq+PN
tBAxnmvzp/7feKc33nq9pv9CUVVeVvIovd9un4e2jdqZh+p750Ly1Ujx+7bOGTox
Xzl5+IsJDIVF5vPGoSSazxrnpgIwFGwH2W69ySsMBM4KAFW6GFQiFFxOPI9a1gxj
sKHFfy2U/dHRymYqbm4w+afgo/lZjJv9l3eQALL+r4wQlr1kLq0FWpcUEpZDW40F
65UdYPbhAgMBAAECggEBAK90nvCXeH3MuhOyrrpeCDkSgBQiBul2QjPeD6+c48zZ
QFEXrCPx7czs6wtzP2eUL3Mx/yytHgKbGIO1JDXgsJqOFkl+IKbzCH3RPItfd7kk
bg+1MMLPF6Ut2Tm1T30/wefMZ2ioN+doRbh4MmVTiHw1Jss8Kpj68unN53tGRLvJ
VvamRDOrtfhuM2fiKap3FH0bBGQzLJ6ZX6Xpscf3flxQhjCm5XeViBWJUo1tgVGN
Sq8GgAy/ohVQqmUbvX3Zg/yTtVfoDU44OJ2RLhDoB+5VsMtzu0i4k4zoeR0YgT53
C4VdSmxDSPlpc0xLTmxugGZBxYSAbnyA1cdeufI5F80CgYEA4KppyNukJKu1ZS2c
Fqx08cR+PQqTzMOdZE1ZYRNtULI0Y6ajceW/l78OYOzxFQEho4Y00UQZTKUxp5/O
RxalI7b1zPlW3jXJ+2j8JWH4AnPs4aDEDcJVeuCRwlEZ9C3q3cVcjv2Ty6sNe3pe
OhupkBwAe6WwT9soDOKTSMvB5hsCgYEAzk3ceZAPXGYnjkFF58rhdFdGV0NKKePD
kAQDjpsoISCbN0RM4vNA4UNWszRd+Js/2ePVIB/k6SPRXZbcOhu2etzk1tTbeynF
7EzG5FnMGYykQVz2X1JYA+UT5AnujANJUMH1jjDyHdMFS8/1oYT0OwnnbYZ8/sev
eYK3MJyAVrMCgYEAgM2SqmIqQA/lhmVYuLMUtMtnaI2Y4OtBYBDsbjhaEsqoOH1/
9Tu31ULm9nDBYr5sT7kQrO0y5/tJdYWsGJuF/+zUDTjiMbF65FVzQedh7d4Sb+Tg
odbJdRIs3s/qZlCw94ZAI4aD5l9h8mncfcoAM6uqJzl91Lqbwo9fy3tt5gMCgYBG
kqYQQ7KthhiT9kpGn8V+OfjLEy7Eo7CbjHP3DaatpmzSfB/dJx+Tr6hyB0D6MYmn
LOQUaDSzeFg/rsLJcf97iiMSRqCKQmD9k8oaBYnnV5A89+Mj+pQ3SN8EDE25QcqL
wL4SlTXN9AkExTAev8+YfqvXcMFDmuWxKIEoNPFGNwKBgDEWCNvj86HZnQH+7ANc
84HzHNzBz3XEtn09FeLA69r+C9vLqodxgTvPNdif42Igw4mK640jUP5JruJZ0kq0
jYsF2yzgpVFfYbo7hU4ZGCZM24WhHhaXLE6Oi/ExCAqstLwCpaVTS1FoljtcNV7P
mZfK4GN9JSGsRqiWK21Ly2bC
-----END PRIVATE KEY-----
Certificate:
    Data:
        Version: 3 (0x2)
        Serial Number:
            34:89:46:9e:a3:b8:36:7b:92:51:76:f8:42:69:93:a7:cf:ce:50:e2
        Signature Algorithm: sha256WithRSAEncryption
        Issuer: CN = RSA-2048 digitalSignature
        Validity
            Not Before: Jul  1 17:45:04 2020 GMT
            Not After : Jun 29 17:45:04 2030 GMT
        Subject: CN = RSA-2048 digitalSignature
        Subject Public Key Info:
            Public Key Algorithm: rsaEncryption
                RSA Public-Key: (2048 bit)
                Modulus:
                    00:b5:0d:75:de:94:0a:19:26:26:a8:35:50:23:f9:
                    51:be:b8:59:61:a7:91:89:b7:88:70:61:34:75:a3:
                    1a:97:12:0a:e2:71:2e:84:94:ce:d6:fd:51:c4:26:
                    e2:6f:fb:62:85:b5:17:d8:4a:2d:71:2d:5a:e2:b9:
                    11:d9:34:02:e6:2d:6e:34:50:38:b5:a8:a2:5d:2c:
                    c1:62:4e:a3:20:fc:11:17:54:ce:4b:d5:b8:00:c3:
                    89:1f:36:6e:c4:c1:9e:b8:0c:27:58:48:f9:cf:ab:
                    e3:cd:b4:10:31:9e:6b:f3:a7:fe:df:78:a7:37:de:
                    7a:bd:a6:ff:42:51:55:5e:56:f2:28:bd:df:6e:9f:
                    87:b6:8d:da:99:87:ea:7b:e7:42:f2:d5:48:f1:fb:
                    b6:ce:19:3a:31:5f:39:79:f8:8b:09:0c:85:45:e6:
                    f3:c6:a1:24:9a:cf:1a:e7:a6:02:30:14:6c:07:d9:
                    6e:bd:c9:2b:0c:04:ce:0a:00:55:ba:18:54:22:14:
                    5c:4e:3c:8f:5a:d6:0c:63:b0:a1:c5:7f:2d:94:fd:
                    d1:d1:ca:66:2a:6e:6e:30:f9:a7:e0:a3:f9:59:8c:
                    9b:fd:97:77:90:00:b2:fe:af:8c:10:96:bd:64:2e:
                    ad:05:5a:97:14:12:96:43:5b:8d:05:eb:95:1d:60:
                    f6:e1
                Exponent: 65537 (0x10001)
        X509v3 extensions:
            X509v3 Key Usage: critical
                Digital Signature
    Signature Algorithm: sha256WithRSAEncryption
         8a:23:82:ea:a0:d9:96:ad:0b:3b:1f:b5:02:a9:bf:65:85:28:
         fb:c5:a9:ca:bc:90:9e:65:48:80:ae:d0:92:a5:4b:d4:ac:0d:
         5c:72:4c:9b:e3:8e:29:e9:8d:04:81:ff:bb:86:92:3f:1e:63:
         77:51:ea:84:48:e6:50:37:b2:22:2f:36:19:40:f9:de:b0:3d:
         bf:78:09:66:7a:33:66:f6:b9:87:60:e8:e9:76:a2:d3:70:91:
         1c:4a:3a:7a:21:71:5b:31:f1:7a:81:5d:fa:ce:ca:82:6d:f3:
         34:9e:ff:ba:2d:3d:84:a6:7b:6b:35:09:73:37:ee:09:f9:5d:
         67:41:2a:a7:97:20:00:06:9c:da:d4:fc:03:e2:1f:3d:84:0d:
         a0:24:f0:00:87:79:7f:d6:6d:be:40:b1:d9:ab:a2:74:eb:f7:
         4a:d1:f6:d9:30:10:71:0e:56:34:f4:3c:8a:73:69:c1:2b:ce:
         6a:5f:a0:43:5d:89:35:fa:4a:8c:8b:8f:4a:df:e6:17:92:20:
         b5:1a:13:da:11:d1:3b:10:f8:2f:7e:84:b7:13:e5:67:38:44:
         6b:04:ab:e6:bc:3c:48:46:f2:43:fb:79:2d:0c:3d:7d:35:12:
         df:90:54:7b:93:ed:fa:c4:62:f3:5b:54:a8:88:0c:da:0f:e5:
         51:dc:84:fa
-----BEGIN CERTIFICATE-----
MIIC6DCCAdCgAwIBAgIUNIlGnqO4NnuSUXb4QmmTp8/OUOIwDQYJKoZIhvcNAQEL
BQAwJDEiMCAGA1UEAwwZUlNBLTIwNDggZGlnaXRhbFNpZ25hdHVyZTAeFw0yMDA3
MDExNzQ1MDRaFw0zMDA2MjkxNzQ1MDRaMCQxIjAgBgNVBAMMGVJTQS0yMDQ4IGRp
Z2l0YWxTaWduYXR1cmUwggEiMA0GCSqGSIb3DQEBAQUAA4IBDwAwggEKAoIBAQC1
DXXelAoZJiaoNVAj+VG+uFlhp5GJt4hwYTR1oxqXEgricS6ElM7W/VHEJuJv+2KF
tRfYSi1xLVriuRHZNALmLW40UDi1qKJdLMFiTqMg/BEXVM5L1bgAw4kfNm7EwZ64
DCdYSPnPq+PNtBAxnmvzp/7feKc33nq9pv9CUVVeVvIovd9un4e2jdqZh+p750Ly
1Ujx+7bOGToxXzl5+IsJDIVF5vPGoSSazxrnpgIwFGwH2W69ySsMBM4KAFW6GFQi
FFxOPI9a1gxjsKHFfy2U/dHRymYqbm4w+afgo/lZjJv9l3eQALL+r4wQlr1kLq0F
WpcUEpZDW40F65UdYPbhAgMBAAGjEjAQMA4GA1UdDwEB/wQEAwIHgDANBgkqhkiG
9w0BAQsFAAOCAQEAiiOC6qDZlq0LOx+1Aqm/ZYUo+8WpyryQnmVIgK7QkqVL1KwN
XHJMm+OOKemNBIH/u4aSPx5jd1HqhEjmUDeyIi82GUD53rA9v3gJZnozZva5h2Do
6Xai03CRHEo6eiFxWzHxeoFd+s7Kgm3zNJ7/ui09hKZ7azUJczfuCfldZ0Eqp5cg
AAac2tT8A+IfPYQNoCTwAId5f9ZtvkCx2auidOv3StH22TAQcQ5WNPQ8inNpwSvO
al+gQ12JNfpKjIuPSt/mF5IgtRoT2hHROxD4L36EtxPlZzhEawSr5rw8SEbyQ/t5
LQw9fTUS35BUe5Pt+sRi81tUqIgM2g/lUdyE+g==
-----END CERTIFICATE-----
