-----BEGIN EC PRIVATE KEY-----
MHcCAQEEIKMMXIjb6PROYeXlSIibBPN6figqdrEfRfuhKPHc5fQtoAoGCCqGSM49
AwEHoUQDQgAEB9uj8C4QKvKDuuNsUtrp3gsS+f8snCYhuoCVwNi0MOjrtd9bBHGg
G7eswIOb+Mf025iMZpbovjg2SO5ta+LQ/A==
-----END EC PRIVATE KEY-----
Certificate:
    Data:
        Version: 3 (0x2)
        Serial Number:
            30:0c:bd:58:9b:b4:bd:6f:1d:33:be:04:d3:06:b0:9d:bb:5f:6b:91
        Signature Algorithm: ecdsa-with-SHA256
        Issuer: CN = P-256 keyAgreement
        Validity
            Not Before: Mar 22 18:44:47 2019 GMT
            Not After : Mar 19 18:44:47 2029 GMT
        Subject: CN = P-256 keyAgreement
        Subject Public Key Info:
            Public Key Algorithm: id-ecPublicKey
                Public-Key: (256 bit)
                pub:
                    04:07:db:a3:f0:2e:10:2a:f2:83:ba:e3:6c:52:da:
                    e9:de:0b:12:f9:ff:2c:9c:26:21:ba:80:95:c0:d8:
                    b4:30:e8:eb:b5:df:5b:04:71:a0:1b:b7:ac:c0:83:
                    9b:f8:c7:f4:db:98:8c:66:96:e8:be:38:36:48:ee:
                    6d:6b:e2:d0:fc
                ASN1 OID: prime256v1
                NIST CURVE: P-256
        X509v3 extensions:
            X509v3 Key Usage: critical
                Key Agreement
    Signature Algorithm: ecdsa-with-SHA256
         30:45:02:20:55:14:90:f0:f6:0d:ab:00:9e:1a:c1:fa:54:54:
         3d:07:fd:cb:d2:82:61:7e:b9:37:fe:7d:78:da:de:8c:a9:8e:
         02:21:00:9c:a5:98:eb:07:39:60:36:01:28:b9:2b:85:5a:7e:
         54:8e:88:f5:31:9e:84:06:9f:c8:7e:dd:69:24:7d:73:5b
-----BEGIN CERTIFICATE-----
MIIBTTCB9KADAgECAhQwDL1Ym7S9bx0zvgTTBrCdu19rkTAKBggqhkjOPQQDAjAd
MRswGQYDVQQDDBJQLTI1NiBrZXlBZ3JlZW1lbnQwHhcNMTkwMzIyMTg0NDQ3WhcN
MjkwMzE5MTg0NDQ3WjAdMRswGQYDVQQDDBJQLTI1NiBrZXlBZ3JlZW1lbnQwWTAT
BgcqhkjOPQIBBggqhkjOPQMBBwNCAAQH26PwLhAq8oO642xS2uneCxL5/yycJiG6
gJXA2LQw6Ou131sEcaAbt6zAg5v4x/TbmIxmlui+ODZI7m1r4tD8oxIwEDAOBgNV
HQ8BAf8EBAMCAwgwCgYIKoZIzj0EAwIDSAAwRQIgVRSQ8PYNqwCeGsH6VFQ9B/3L
0oJhfrk3/n142t6MqY4CIQCcpZjrBzlgNgEouSuFWn5Ujoj1MZ6EBp/Ift1pJH1z
Ww==
-----END CERTIFICATE-----
