-----BEGIN RSA PRIVATE KEY-----
MIIEowIBAAKCAQEAqSCdZFMJPeZbkgJRdKS1eKm+mH2UrcCFgr4r9LJV7ltttFfz
vR2CEmIWrQWo3wc/d2vrUMTMks4TaGun/YB2UbI8gnYlSy+B/5ExPZvfEtIib3lj
hm6O23k9Ln7VYumy3AnU8AH5lZvknkk489KrHk1FdpeB5W3+480w3/cB0Rk/MiBN
S1y2T0XhQmLhd37yfyv34Zex7Ir4gwMaq3fQgHYV05ykK8OynOTgSaFkacQw+0RK
vJ9veprmHVfYVS+yLJaNn1QFRMw+1KLGnt1aP47JV4N0m/tFhT554i9+uGYF+11D
l0o5HeMTHuVUSb9y6GkCGVPXocTrt5tq3CuZ7QIDAQABAoIBAGZ0OIRu/Pk/lBdW
SiwEH17STYCpCqlbKEX0mEIqyn2Ta1jFswTMXGBwhVYZSJybEmpwuON75IXGSuGF
3gVmjcad16QcmCj8xZ6hQRgWVcNcArpO6eilDuuLfXGuKew6sDw1xIYEXEKyZoMw
zkx+QWUg4ESgMXNf9/nd8o6qXrJgwcgnETXRvnd38euQZs5EpFKjD/6VTMDtwrFD
7prFe24527V8qS9EC6GZDOEI1lmg1Zrwu565BpwsHViExHN40/ixcMaru0X1K9nJ
A7FSPY+YN5SRTDf6A8cOPEpmfho5PD9LCQ/KUQJty+m5nQ+OxI2T87h7czBVEcJO
vu0CQC0CgYEA1RPBwXP/MQR27GIRT57kMYkXM8/xxOVT7zRe9WZCE1fHkKsgnwr/
V2Sg+uDAf/eTRh6CEsTyw9d9K9Dh/LyzjvaBRvLs3wBkhgVo2raLbyqYduPn481/
2OA6zuEbGQXincwMYYCAHtYjfiVaD9/y/Qk7x8YGxDqPY/2z1HyMY4cCgYEAyzJl
/diffYieQ4CX0GOrgkHVA9FxB3U3zLhAksTnL4UGR9O7vkaQnDUBJdH5G/zkA8Ki
hAIXMvONgQI/UArKVP6Urts2rcCZ4JNoPGD99qapJHbj/kNUFePaGcRt5sd7DbNF
JShqmYLnyMUSVSbV0Olk0NsXtm2PFQriY34LG+sCgYEAlxUULFxYVORKgp+ikKck
PG9tMUK/thG5awHiVvRz4405Jr4AOmUs2kWy01BrjhD4rx5QsohNbkmsKlZI9tDC
LJti3PDAvfpkTJcnWvVWdrNoOdytftwmS5vqdugsM5j1r1eQa84WikbiEb7gViNA
AuT6K1OhVqADLi4kxYSucp8CgYBgiweOfnf4ywp3BAgdiN2aO/EbqU1Mv9LNP9Xe
ZhN5rnh3dBBFrX1T2pM7BvKW66bian2QvvWKzdEztH+kZhwQGg1GrvzhvRrfauoh
levUXwcKPjrBOfgflmyvxXZ6Kdk7fyuhJfzQBzRdXdUCBDue0OWHnjE8Cf3rf4pk
vyREFQKBgEx/yROl1HUIX2pmD5vR8LGh1bpGsu8qX6FOwENpE/R6gXjJOrCLBfi6
bSWBJKVOKDKLrPEzqTlJXvsmzSB/+OljuuQD889yvd9yn9RFVroW74P/ExuRpHVM
woCHpqVne8CzbvGnA1U9OOyShgL7LQ3xKjShKC6bSO4whTq0INMo
-----END RSA PRIVATE KEY-----
Certificate:
    Data:
        Version: 3 (0x2)
        Serial Number:
            28:53:37:46:0f:45:e3:fa:03:7a:1e:47:c6:41:d1:a6:af:16:f9:10
        Signature Algorithm: sha256WithRSAEncryption
        Issuer: CN = RSA-2048 no keyUsage extension
        Validity
            Not Before: Mar 22 18:44:47 2019 GMT
            Not After : Mar 19 18:44:47 2029 GMT
        Subject: CN = RSA-2048 no keyUsage extension
        Subject Public Key Info:
            Public Key Algorithm: rsaEncryption
                RSA Public-Key: (2048 bit)
                Modulus:
                    00:a9:20:9d:64:53:09:3d:e6:5b:92:02:51:74:a4:
                    b5:78:a9:be:98:7d:94:ad:c0:85:82:be:2b:f4:b2:
                    55:ee:5b:6d:b4:57:f3:bd:1d:82:12:62:16:ad:05:
                    a8:df:07:3f:77:6b:eb:50:c4:cc:92:ce:13:68:6b:
                    a7:fd:80:76:51:b2:3c:82:76:25:4b:2f:81:ff:91:
                    31:3d:9b:df:12:d2:22:6f:79:63:86:6e:8e:db:79:
                    3d:2e:7e:d5:62:e9:b2:dc:09:d4:f0:01:f9:95:9b:
                    e4:9e:49:38:f3:d2:ab:1e:4d:45:76:97:81:e5:6d:
                    fe:e3:cd:30:df:f7:01:d1:19:3f:32:20:4d:4b:5c:
                    b6:4f:45:e1:42:62:e1:77:7e:f2:7f:2b:f7:e1:97:
                    b1:ec:8a:f8:83:03:1a:ab:77:d0:80:76:15:d3:9c:
                    a4:2b:c3:b2:9c:e4:e0:49:a1:64:69:c4:30:fb:44:
                    4a:bc:9f:6f:7a:9a:e6:1d:57:d8:55:2f:b2:2c:96:
                    8d:9f:54:05:44:cc:3e:d4:a2:c6:9e:dd:5a:3f:8e:
                    c9:57:83:74:9b:fb:45:85:3e:79:e2:2f:7e:b8:66:
                    05:fb:5d:43:97:4a:39:1d:e3:13:1e:e5:54:49:bf:
                    72:e8:69:02:19:53:d7:a1:c4:eb:b7:9b:6a:dc:2b:
                    99:ed
                Exponent: 65537 (0x10001)
    Signature Algorithm: sha256WithRSAEncryption
         42:68:4c:92:f9:6a:55:8f:70:05:fc:29:06:33:15:57:65:0a:
         d3:0d:8c:3d:7f:c8:5d:f4:f0:15:3b:04:e9:3a:1e:63:18:42:
         4f:23:02:17:ba:5e:c2:18:c4:00:1c:7a:75:e7:cb:71:33:e4:
         24:ce:11:af:9a:54:e3:cb:76:31:7e:8f:36:a4:f6:41:67:88:
         c0:4e:fd:18:49:21:1a:40:3f:2f:d5:f4:39:3e:f0:8c:2a:fe:
         6b:ce:87:c0:18:c5:78:29:28:9c:64:ed:d6:3e:44:b4:15:f4:
         e3:8b:73:4c:5d:73:56:54:c4:b0:d5:45:e9:38:1f:0c:63:ca:
         50:a2:1f:76:32:b9:a1:5f:c8:cf:af:b1:32:3c:1f:7c:94:1a:
         a9:da:97:70:9d:48:7e:96:e8:2e:10:ac:b4:e9:7e:99:8a:88:
         f7:b5:6e:04:04:5f:94:e9:22:5b:4d:c7:08:f2:cb:d6:e3:9b:
         ec:71:8e:cc:c0:ca:94:7f:13:cd:62:0c:3c:2e:85:23:80:d3:
         74:19:fc:22:c1:39:d2:ea:6b:a8:e3:5c:dd:f6:40:39:b3:01:
         16:6d:75:42:24:3f:90:58:29:45:e6:2c:4b:44:80:65:99:9a:
         94:c8:23:73:05:94:ac:9c:40:37:83:57:e4:2a:20:f2:e3:b1:
         3f:12:33:ce
-----BEGIN CERTIFICATE-----
MIIC3jCCAcagAwIBAgIUKFM3Rg9F4/oDeh5HxkHRpq8W+RAwDQYJKoZIhvcNAQEL
BQAwKTEnMCUGA1UEAwweUlNBLTIwNDggbm8ga2V5VXNhZ2UgZXh0ZW5zaW9uMB4X
DTE5MDMyMjE4NDQ0N1oXDTI5MDMxOTE4NDQ0N1owKTEnMCUGA1UEAwweUlNBLTIw
NDggbm8ga2V5VXNhZ2UgZXh0ZW5zaW9uMIIBIjANBgkqhkiG9w0BAQEFAAOCAQ8A
MIIBCgKCAQEAqSCdZFMJPeZbkgJRdKS1eKm+mH2UrcCFgr4r9LJV7ltttFfzvR2C
EmIWrQWo3wc/d2vrUMTMks4TaGun/YB2UbI8gnYlSy+B/5ExPZvfEtIib3ljhm6O
23k9Ln7VYumy3AnU8AH5lZvknkk489KrHk1FdpeB5W3+480w3/cB0Rk/MiBNS1y2
T0XhQmLhd37yfyv34Zex7Ir4gwMaq3fQgHYV05ykK8OynOTgSaFkacQw+0RKvJ9v
eprmHVfYVS+yLJaNn1QFRMw+1KLGnt1aP47JV4N0m/tFhT554i9+uGYF+11Dl0o5
HeMTHuVUSb9y6GkCGVPXocTrt5tq3CuZ7QIDAQABMA0GCSqGSIb3DQEBCwUAA4IB
AQBCaEyS+WpVj3AF/CkGMxVXZQrTDYw9f8hd9PAVOwTpOh5jGEJPIwIXul7CGMQA
HHp158txM+QkzhGvmlTjy3Yxfo82pPZBZ4jATv0YSSEaQD8v1fQ5PvCMKv5rzofA
GMV4KSicZO3WPkS0FfTji3NMXXNWVMSw1UXpOB8MY8pQoh92MrmhX8jPr7EyPB98
lBqp2pdwnUh+luguEKy06X6Zioj3tW4EBF+U6SJbTccI8svW45vscY7MwMqUfxPN
Ygw8LoUjgNN0GfwiwTnS6muo41zd9kA5swEWbXVCJD+QWClF5ixLRIBlmZqUyCNz
BZSsnEA3g1fkKiDy47E/EjPO
-----END CERTIFICATE-----
