-----BEGIN RSA PRIVATE KEY-----
MIIEowIBAAKCAQEAqSCdZFMJPeZbkgJRdKS1eKm+mH2UrcCFgr4r9LJV7ltttFfz
vR2CEmIWrQWo3wc/d2vrUMTMks4TaGun/YB2UbI8gnYlSy+B/5ExPZvfEtIib3lj
hm6O23k9Ln7VYumy3AnU8AH5lZvknkk489KrHk1FdpeB5W3+480w3/cB0Rk/MiBN
S1y2T0XhQmLhd37yfyv34Zex7Ir4gwMaq3fQgHYV05ykK8OynOTgSaFkacQw+0RK
vJ9veprmHVfYVS+yLJaNn1QFRMw+1KLGnt1aP47JV4N0m/tFhT554i9+uGYF+11D
l0o5HeMTHuVUSb9y6GkCGVPXocTrt5tq3CuZ7QIDAQABAoIBAGZ0OIRu/Pk/lBdW
SiwEH17STYCpCqlbKEX0mEIqyn2Ta1jFswTMXGBwhVYZSJybEmpwuON75IXGSuGF
3gVmjcad16QcmCj8xZ6hQRgWVcNcArpO6eilDuuLfXGuKew6sDw1xIYEXEKyZoMw
zkx+QWUg4ESgMXNf9/nd8o6qXrJgwcgnETXRvnd38euQZs5EpFKjD/6VTMDtwrFD
7prFe24527V8qS9EC6GZDOEI1lmg1Zrwu565BpwsHViExHN40/ixcMaru0X1K9nJ
A7FSPY+YN5SRTDf6A8cOPEpmfho5PD9LCQ/KUQJty+m5nQ+OxI2T87h7czBVEcJO
vu0CQC0CgYEA1RPBwXP/MQR27GIRT57kMYkXM8/xxOVT7zRe9WZCE1fHkKsgnwr/
V2Sg+uDAf/eTRh6CEsTyw9d9K9Dh/LyzjvaBRvLs3wBkhgVo2raLbyqYduPn481/
2OA6zuEbGQXincwMYYCAHtYjfiVaD9/y/Qk7x8YGxDqPY/2z1HyMY4cCgYEAyzJl
/diffYieQ4CX0GOrgkHVA9FxB3U3zLhAksTnL4UGR9O7vkaQnDUBJdH5G/zkA8Ki
hAIXMvONgQI/UArKVP6Urts2rcCZ4JNoPGD99qapJHbj/kNUFePaGcRt5sd7DbNF
JShqmYLnyMUSVSbV0Olk0NsXtm2PFQriY34LG+sCgYEAlxUULFxYVORKgp+ikKck
PG9tMUK/thG5awHiVvRz4405Jr4AOmUs2kWy01BrjhD4rx5QsohNbkmsKlZI9tDC
LJti3PDAvfpkTJcnWvVWdrNoOdytftwmS5vqdugsM5j1r1eQa84WikbiEb7gViNA
AuT6K1OhVqADLi4kxYSucp8CgYBgiweOfnf4ywp3BAgdiN2aO/EbqU1Mv9LNP9Xe
ZhN5rnh3dBBFrX1T2pM7BvKW66bian2QvvWKzdEztH+kZhwQGg1GrvzhvRrfauoh
levUXwcKPjrBOfgflmyvxXZ6Kdk7fyuhJfzQBzRdXdUCBDue0OWHnjE8Cf3rf4pk
vyREFQKBgEx/yROl1HUIX2pmD5vR8LGh1bpGsu8qX6FOwENpE/R6gXjJOrCLBfi6
bSWBJKVOKDKLrPEzqTlJXvsmzSB/+OljuuQD889yvd9yn9RFVroW74P/ExuRpHVM
woCHpqVne8CzbvGnA1U9OOyShgL7LQ3xKjShKC6bSO4whTq0INMo
-----END RSA PRIVATE KEY-----
Certificate:
    Data:
        Version: 3 (0x2)
        Serial Number:
            61:48:a7:19:f6:35:b2:8b:d1:b9:2e:f3:46:14:63:b5:70:7d:bc:00
        Signature Algorithm: sha256WithRSAEncryption
        Issuer: CN = RSA-2048 keyEncipherment
        Validity
            Not Before: Mar 22 18:44:47 2019 GMT
            Not After : Mar 19 18:44:47 2029 GMT
        Subject: CN = RSA-2048 keyEncipherment
        Subject Public Key Info:
            Public Key Algorithm: rsaEncryption
                RSA Public-Key: (2048 bit)
                Modulus:
                    00:a9:20:9d:64:53:09:3d:e6:5b:92:02:51:74:a4:
                    b5:78:a9:be:98:7d:94:ad:c0:85:82:be:2b:f4:b2:
                    55:ee:5b:6d:b4:57:f3:bd:1d:82:12:62:16:ad:05:
                    a8:df:07:3f:77:6b:eb:50:c4:cc:92:ce:13:68:6b:
                    a7:fd:80:76:51:b2:3c:82:76:25:4b:2f:81:ff:91:
                    31:3d:9b:df:12:d2:22:6f:79:63:86:6e:8e:db:79:
                    3d:2e:7e:d5:62:e9:b2:dc:09:d4:f0:01:f9:95:9b:
                    e4:9e:49:38:f3:d2:ab:1e:4d:45:76:97:81:e5:6d:
                    fe:e3:cd:30:df:f7:01:d1:19:3f:32:20:4d:4b:5c:
                    b6:4f:45:e1:42:62:e1:77:7e:f2:7f:2b:f7:e1:97:
                    b1:ec:8a:f8:83:03:1a:ab:77:d0:80:76:15:d3:9c:
                    a4:2b:c3:b2:9c:e4:e0:49:a1:64:69:c4:30:fb:44:
                    4a:bc:9f:6f:7a:9a:e6:1d:57:d8:55:2f:b2:2c:96:
                    8d:9f:54:05:44:cc:3e:d4:a2:c6:9e:dd:5a:3f:8e:
                    c9:57:83:74:9b:fb:45:85:3e:79:e2:2f:7e:b8:66:
                    05:fb:5d:43:97:4a:39:1d:e3:13:1e:e5:54:49:bf:
                    72:e8:69:02:19:53:d7:a1:c4:eb:b7:9b:6a:dc:2b:
                    99:ed
                Exponent: 65537 (0x10001)
        X509v3 extensions:
            X509v3 Key Usage: critical
                Key Encipherment
    Signature Algorithm: sha256WithRSAEncryption
         57:be:9e:d6:18:e1:34:b9:51:d2:eb:b5:ce:1c:46:ef:4d:5c:
         6a:8d:30:02:8c:25:02:92:c1:5d:9f:a9:85:2d:a0:d7:c2:b7:
         d6:d8:c0:85:0f:a7:ad:16:ec:84:e3:04:c7:82:1f:2b:1f:28:
         fb:c8:8f:e6:9c:42:54:4a:72:e6:7a:1d:56:26:98:73:7e:f0:
         d7:6b:c4:c0:35:63:03:af:e5:9a:f4:1c:25:04:91:15:6f:ee:
         7e:ab:46:2a:0e:25:e5:57:8a:3e:7a:4d:fa:ea:4e:8e:af:22:
         23:a9:61:1a:b7:7f:75:da:83:ab:6f:20:b8:75:6c:6b:aa:c2:
         70:31:dc:83:70:06:71:f7:35:84:51:83:66:14:ee:51:d3:f4:
         b6:2e:7b:b7:52:f0:4f:d3:a9:c7:9c:63:67:f8:6e:c3:d5:39:
         8e:5c:bf:66:88:aa:15:d3:a7:c0:24:08:09:fe:20:9f:13:1e:
         cd:e2:b5:5d:c0:f2:3f:f9:91:d7:32:0f:6d:12:09:4c:28:b8:
         3c:a3:9d:6d:ca:c6:f9:24:2a:db:f4:67:7b:34:43:0a:5f:97:
         a6:e4:e3:82:ee:38:fb:c9:4b:e5:b2:7e:42:9b:6e:54:1f:ed:
         6e:ce:55:d9:84:8a:14:b8:f8:61:95:97:d2:9f:68:51:1e:c8:
         2e:87:23:f3
-----BEGIN CERTIFICATE-----
MIIC5jCCAc6gAwIBAgIUYUinGfY1sovRuS7zRhRjtXB9vAAwDQYJKoZIhvcNAQEL
BQAwIzEhMB8GA1UEAwwYUlNBLTIwNDgga2V5RW5jaXBoZXJtZW50MB4XDTE5MDMy
MjE4NDQ0N1oXDTI5MDMxOTE4NDQ0N1owIzEhMB8GA1UEAwwYUlNBLTIwNDgga2V5
RW5jaXBoZXJtZW50MIIBIjANBgkqhkiG9w0BAQEFAAOCAQ8AMIIBCgKCAQEAqSCd
ZFMJPeZbkgJRdKS1eKm+mH2UrcCFgr4r9LJV7ltttFfzvR2CEmIWrQWo3wc/d2vr
UMTMks4TaGun/YB2UbI8gnYlSy+B/5ExPZvfEtIib3ljhm6O23k9Ln7VYumy3AnU
8AH5lZvknkk489KrHk1FdpeB5W3+480w3/cB0Rk/MiBNS1y2T0XhQmLhd37yfyv3
4Zex7Ir4gwMaq3fQgHYV05ykK8OynOTgSaFkacQw+0RKvJ9veprmHVfYVS+yLJaN
n1QFRMw+1KLGnt1aP47JV4N0m/tFhT554i9+uGYF+11Dl0o5HeMTHuVUSb9y6GkC
GVPXocTrt5tq3CuZ7QIDAQABoxIwEDAOBgNVHQ8BAf8EBAMCBSAwDQYJKoZIhvcN
AQELBQADggEBAFe+ntYY4TS5UdLrtc4cRu9NXGqNMAKMJQKSwV2fqYUtoNfCt9bY
wIUPp60W7ITjBMeCHysfKPvIj+acQlRKcuZ6HVYmmHN+8NdrxMA1YwOv5Zr0HCUE
kRVv7n6rRioOJeVXij56TfrqTo6vIiOpYRq3f3Xag6tvILh1bGuqwnAx3INwBnH3
NYRRg2YU7lHT9LYue7dS8E/TqcecY2f4bsPVOY5cv2aIqhXTp8AkCAn+IJ8THs3i
tV3A8j/5kdcyD20SCUwouDyjnW3KxvkkKtv0Z3s0Qwpfl6bk44LuOPvJS+WyfkKb
blQf7W7OVdmEihS4+GGVl9KfaFEeyC6HI/M=
-----END CERTIFICATE-----
