-----BEGIN PRIVATE KEY-----
MIGHAgEAMBMGByqGSM49AgEGCCqGSM49AwEHBG0wawIBAQQgeor3507Mmwvc9idK
suXWTudE0GDlVmEc64H7acez5xShRANCAATzrZ6+AHOlorp9D4i4ZEuFW2IcT16D
RCr5q46eSP89CxqRkr4fDMaHCr0GRwtjBrcnuljjBWRtHTAo7u7yqXuT
-----END PRIVATE KEY-----
Certificate:
    Data:
        Version: 3 (0x2)
        Serial Number:
            07:77:fa:ef:2d:fb:92:c6:49:d9:9a:42:5a:06:67:bf:e1:24:41:9d
        Signature Algorithm: ecdsa-with-SHA256
        Issuer: CN = P-256 no keyUsage extension
        Validity
            Not Before: Jul  1 17:45:04 2020 GMT
            Not After : Jun 29 17:45:04 2030 GMT
        Subject: CN = P-256 no keyUsage extension
        Subject Public Key Info:
            Public Key Algorithm: id-ecPublicKey
                Public-Key: (256 bit)
                pub:
                    04:f3:ad:9e:be:00:73:a5:a2:ba:7d:0f:88:b8:64:
                    4b:85:5b:62:1c:4f:5e:83:44:2a:f9:ab:8e:9e:48:
                    ff:3d:0b:1a:91:92:be:1f:0c:c6:87:0a:bd:06:47:
                    0b:63:06:b7:27:ba:58:e3:05:64:6d:1d:30:28:ee:
                    ee:f2:a9:7b:93
                ASN1 OID: prime256v1
                NIST CURVE: P-256
    Signature Algorithm: ecdsa-with-SHA256
         30:45:02:20:47:ab:e1:e2:b3:e7:96:d1:c5:c7:b6:b2:ac:fd:
         89:37:3c:7f:43:d2:ac:e5:b6:f7:90:ef:1f:a4:e8:10:62:73:
         02:21:00:d5:47:83:f1:88:be:e9:5c:e4:3f:7e:c9:3a:a5:70:
         6a:20:d5:a1:1f:e4:c5:20:ea:31:d1:11:aa:0a:0e:97:87
-----BEGIN CERTIFICATE-----
MIIBSzCB8qADAgECAhQHd/rvLfuSxknZmkJaBme/4SRBnTAKBggqhkjOPQQDAjAm
MSQwIgYDVQQDDBtQLTI1NiBubyBrZXlVc2FnZSBleHRlbnNpb24wHhcNMjAwNzAx
MTc0NTA0WhcNMzAwNjI5MTc0NTA0WjAmMSQwIgYDVQQDDBtQLTI1NiBubyBrZXlV
c2FnZSBleHRlbnNpb24wWTATBgcqhkjOPQIBBggqhkjOPQMBBwNCAATzrZ6+AHOl
orp9D4i4ZEuFW2IcT16DRCr5q46eSP89CxqRkr4fDMaHCr0GRwtjBrcnuljjBWRt
HTAo7u7yqXuTMAoGCCqGSM49BAMCA0gAMEUCIEer4eKz55bRxce2sqz9iTc8f0PS
rOW295DvH6ToEGJzAiEA1UeD8Yi+6VzkP37JOqVwaiDVoR/kxSDqMdERqgoOl4c=
-----END CERTIFICATE-----
