-----BEGIN EC PRIVATE KEY-----
MHcCAQEEIKMMXIjb6PROYeXlSIibBPN6figqdrEfRfuhKPHc5fQtoAoGCCqGSM49
AwEHoUQDQgAEB9uj8C4QKvKDuuNsUtrp3gsS+f8snCYhuoCVwNi0MOjrtd9bBHGg
G7eswIOb+Mf025iMZpbovjg2SO5ta+LQ/A==
-----END EC PRIVATE KEY-----
Certificate:
    Data:
        Version: 3 (0x2)
        Serial Number:
            46:c2:38:d2:dc:b3:96:34:cb:24:d1:85:ba:89:25:94:82:7a:66:3a
        Signature Algorithm: ecdsa-with-SHA256
        Issuer: CN = P-256 keyAgreement and digitalSignature
        Validity
            Not Before: Mar 22 18:44:47 2019 GMT
            Not After : Mar 19 18:44:47 2029 GMT
        Subject: CN = P-256 keyAgreement and digitalSignature
        Subject Public Key Info:
            Public Key Algorithm: id-ecPublicKey
                Public-Key: (256 bit)
                pub:
                    04:07:db:a3:f0:2e:10:2a:f2:83:ba:e3:6c:52:da:
                    e9:de:0b:12:f9:ff:2c:9c:26:21:ba:80:95:c0:d8:
                    b4:30:e8:eb:b5:df:5b:04:71:a0:1b:b7:ac:c0:83:
                    9b:f8:c7:f4:db:98:8c:66:96:e8:be:38:36:48:ee:
                    6d:6b:e2:d0:fc
                ASN1 OID: prime256v1
                NIST CURVE: P-256
        X509v3 extensions:
            X509v3 Key Usage: critical
                Digital Signature, Key Agreement
    Signature Algorithm: ecdsa-with-SHA256
         30:46:02:21:00:af:e1:2b:c4:fa:9f:6a:04:16:f6:b6:39:21:
         9b:fc:02:0a:73:26:8f:5f:3e:c5:9b:ed:a1:5e:ff:60:c0:8b:
         04:02:21:00:c9:45:91:1e:6d:58:48:90:e5:64:da:59:51:1c:
         d3:ad:56:84:72:39:70:47:2d:78:b6:f8:f2:95:66:5c:a6:f9
-----BEGIN CERTIFICATE-----
MIIBeTCCAR6gAwIBAgIURsI40tyzljTLJNGFuokllIJ6ZjowCgYIKoZIzj0EAwIw
MjEwMC4GA1UEAwwnUC0yNTYga2V5QWdyZWVtZW50IGFuZCBkaWdpdGFsU2lnbmF0
dXJlMB4XDTE5MDMyMjE4NDQ0N1oXDTI5MDMxOTE4NDQ0N1owMjEwMC4GA1UEAwwn
UC0yNTYga2V5QWdyZWVtZW50IGFuZCBkaWdpdGFsU2lnbmF0dXJlMFkwEwYHKoZI
zj0CAQYIKoZIzj0DAQcDQgAEB9uj8C4QKvKDuuNsUtrp3gsS+f8snCYhuoCVwNi0
MOjrtd9bBHGgG7eswIOb+Mf025iMZpbovjg2SO5ta+LQ/KMSMBAwDgYDVR0PAQH/
BAQDAgOIMAoGCCqGSM49BAMCA0kAMEYCIQCv4SvE+p9qBBb2tjkhm/wCCnMmj18+
xZvtoV7/YMCLBAIhAMlFkR5tWEiQ5WTaWVEc061WhHI5cEcteLb48pVmXKb5
-----END CERTIFICATE-----
