-----BEGIN EC PRIVATE KEY-----
MHcCAQEEIKMMXIjb6PROYeXlSIibBPN6figqdrEfRfuhKPHc5fQtoAoGCCqGSM49
AwEHoUQDQgAEB9uj8C4QKvKDuuNsUtrp3gsS+f8snCYhuoCVwNi0MOjrtd9bBHGg
G7eswIOb+Mf025iMZpbovjg2SO5ta+LQ/A==
-----END EC PRIVATE KEY-----
Certificate:
    Data:
        Version: 3 (0x2)
        Serial Number:
            5c:1a:84:3a:04:4b:f2:d4:76:64:b4:84:e0:00:a7:47:2c:a6:fd:26
        Signature Algorithm: ecdsa-with-SHA256
        Issuer: CN = P-256 digitalSignature
        Validity
            Not Before: Mar 22 18:44:47 2019 GMT
            Not After : Mar 19 18:44:47 2029 GMT
        Subject: CN = P-256 digitalSignature
        Subject Public Key Info:
            Public Key Algorithm: id-ecPublicKey
                Public-Key: (256 bit)
                pub:
                    04:07:db:a3:f0:2e:10:2a:f2:83:ba:e3:6c:52:da:
                    e9:de:0b:12:f9:ff:2c:9c:26:21:ba:80:95:c0:d8:
                    b4:30:e8:eb:b5:df:5b:04:71:a0:1b:b7:ac:c0:83:
                    9b:f8:c7:f4:db:98:8c:66:96:e8:be:38:36:48:ee:
                    6d:6b:e2:d0:fc
                ASN1 OID: prime256v1
                NIST CURVE: P-256
        X509v3 extensions:
            X509v3 Key Usage: critical
                Digital Signature
    Signature Algorithm: ecdsa-with-SHA256
         30:45:02:20:34:43:44:15:20:4f:94:7e:dc:be:7a:ae:1d:07:
         1e:1a:d8:93:1b:bb:b0:a0:e4:7a:87:89:55:93:81:c9:55:7a:
         02:21:00:a1:59:01:df:19:8a:53:9b:eb:10:a8:26:39:39:f8:
         81:ff:db:e9:77:43:24:5a:ad:e7:b6:ea:b4:0a:23:4e:df
-----BEGIN CERTIFICATE-----
MIIBVTCB/KADAgECAhRcGoQ6BEvy1HZktITgAKdHLKb9JjAKBggqhkjOPQQDAjAh
MR8wHQYDVQQDDBZQLTI1NiBkaWdpdGFsU2lnbmF0dXJlMB4XDTE5MDMyMjE4NDQ0
N1oXDTI5MDMxOTE4NDQ0N1owITEfMB0GA1UEAwwWUC0yNTYgZGlnaXRhbFNpZ25h
dHVyZTBZMBMGByqGSM49AgEGCCqGSM49AwEHA0IABAfbo/AuECryg7rjbFLa6d4L
Evn/LJwmIbqAlcDYtDDo67XfWwRxoBu3rMCDm/jH9NuYjGaW6L44NkjubWvi0Pyj
EjAQMA4GA1UdDwEB/wQEAwIHgDAKBggqhkjOPQQDAgNIADBFAiA0Q0QVIE+Ufty+
eq4dBx4a2JMbu7Cg5HqHiVWTgclVegIhAKFZAd8ZilOb6xCoJjk5+IH/2+l3QyRa
ree26rQKI07f
-----END CERTIFICATE-----
