-----BEGIN PRIVATE KEY-----
MIGHAgEAMBMGByqGSM49AgEGCCqGSM49AwEHBG0wawIBAQQgeor3507Mmwvc9idK
suXWTudE0GDlVmEc64H7acez5xShRANCAATzrZ6+AHOlorp9D4i4ZEuFW2IcT16D
RCr5q46eSP89CxqRkr4fDMaHCr0GRwtjBrcnuljjBWRtHTAo7u7yqXuT
-----END PRIVATE KEY-----
Certificate:
    Data:
        Version: 3 (0x2)
        Serial Number:
            41:34:6d:4f:6a:37:a4:52:ee:07:2a:9e:a0:e2:db:63:55:b1:d8:32
        Signature Algorithm: ecdsa-with-SHA256
        Issuer: CN = P-256 digitalSignature
        Validity
            Not Before: Jul  1 17:45:04 2020 GMT
            Not After : Jun 29 17:45:04 2030 GMT
        Subject: CN = P-256 digitalSignature
        Subject Public Key Info:
            Public Key Algorithm: id-ecPublicKey
                Public-Key: (256 bit)
                pub:
                    04:f3:ad:9e:be:00:73:a5:a2:ba:7d:0f:88:b8:64:
                    4b:85:5b:62:1c:4f:5e:83:44:2a:f9:ab:8e:9e:48:
                    ff:3d:0b:1a:91:92:be:1f:0c:c6:87:0a:bd:06:47:
                    0b:63:06:b7:27:ba:58:e3:05:64:6d:1d:30:28:ee:
                    ee:f2:a9:7b:93
                ASN1 OID: prime256v1
                NIST CURVE: P-256
        X509v3 extensions:
            X509v3 Key Usage: critical
                Digital Signature
    Signature Algorithm: ecdsa-with-SHA256
         30:45:02:21:00:80:73:dd:d0:09:2c:51:44:37:bc:83:d4:b2:
         33:87:c5:70:ad:50:35:7c:bb:ba:f2:15:cc:31:83:d7:a2:c2:
         41:02:20:28:6b:40:d1:b5:20:68:e9:a0:b0:a9:32:37:4f:e9:
         c8:f5:ac:ba:ec:22:94:ce:1c:37:26:1d:e2:43:b0:66:03
-----BEGIN CERTIFICATE-----
MIIBVTCB/KADAgECAhRBNG1PajekUu4HKp6g4ttjVbHYMjAKBggqhkjOPQQDAjAh
MR8wHQYDVQQDDBZQLTI1NiBkaWdpdGFsU2lnbmF0dXJlMB4XDTIwMDcwMTE3NDUw
NFoXDTMwMDYyOTE3NDUwNFowITEfMB0GA1UEAwwWUC0yNTYgZGlnaXRhbFNpZ25h
dHVyZTBZMBMGByqGSM49AgEGCCqGSM49AwEHA0IABPOtnr4Ac6Wiun0PiLhkS4Vb
YhxPXoNEKvmrjp5I/z0LGpGSvh8MxocKvQZHC2MGtye6WOMFZG0dMCju7vKpe5Oj
EjAQMA4GA1UdDwEB/wQEAwIHgDAKBggqhkjOPQQDAgNIADBFAiEAgHPd0AksUUQ3
vIPUsjOHxXCtUDV8u7ryFcwxg9eiwkECIChrQNG1IGjpoLCpMjdP6cj1rLrsIpTO
HDcmHeJDsGYD
-----END CERTIFICATE-----
