-----BEGIN PRIVATE KEY-----
MIIEvgIBADANBgkqhkiG9w0BAQEFAASCBKgwggSkAgEAAoIBAQC1DXXelAoZJiao
NVAj+VG+uFlhp5GJt4hwYTR1oxqXEgricS6ElM7W/VHEJuJv+2KFtRfYSi1xLVri
uRHZNALmLW40UDi1qKJdLMFiTqMg/BEXVM5L1bgAw4kfNm7EwZ64DCdYSPnPq+PN
tBAxnmvzp/7feKc33nq9pv9CUVVeVvIovd9un4e2jdqZh+p750Ly1Ujx+7bOGTox
Xzl5+IsJDIVF5vPGoSSazxrnpgIwFGwH2W69ySsMBM4KAFW6GFQiFFxOPI9a1gxj
sKHFfy2U/dHRymYqbm4w+afgo/lZjJv9l3eQALL+r4wQlr1kLq0FWpcUEpZDW40F
65UdYPbhAgMBAAECggEBAK90nvCXeH3MuhOyrrpeCDkSgBQiBul2QjPeD6+c48zZ
QFEXrCPx7czs6wtzP2eUL3Mx/yytHgKbGIO1JDXgsJqOFkl+IKbzCH3RPItfd7kk
bg+1MMLPF6Ut2Tm1T30/wefMZ2ioN+doRbh4MmVTiHw1Jss8Kpj68unN53tGRLvJ
VvamRDOrtfhuM2fiKap3FH0bBGQzLJ6ZX6Xpscf3flxQhjCm5XeViBWJUo1tgVGN
Sq8GgAy/ohVQqmUbvX3Zg/yTtVfoDU44OJ2RLhDoB+5VsMtzu0i4k4zoeR0YgT53
C4VdSmxDSPlpc0xLTmxugGZBxYSAbnyA1cdeufI5F80CgYEA4KppyNukJKu1ZS2c
Fqx08cR+PQqTzMOdZE1ZYRNtULI0Y6ajceW/l78OYOzxFQEho4Y00UQZTKUxp5/O
RxalI7b1zPlW3jXJ+2j8JWH4AnPs4aDEDcJVeuCRwlEZ9C3q3cVcjv2Ty6sNe3pe
OhupkBwAe6WwT9soDOKTSMvB5hsCgYEAzk3ceZAPXGYnjkFF58rhdFdGV0NKKePD
kAQDjpsoISCbN0RM4vNA4UNWszRd+Js/2ePVIB/k6SPRXZbcOhu2etzk1tTbeynF
7EzG5FnMGYykQVz2X1JYA+UT5AnujANJUMH1jjDyHdMFS8/1oYT0OwnnbYZ8/sev
eYK3MJyAVrMCgYEAgM2SqmIqQA/lhmVYuLMUtMtnaI2Y4OtBYBDsbjhaEsqoOH1/
9Tu31ULm9nDBYr5sT7kQrO0y5/tJdYWsGJuF/+zUDTjiMbF65FVzQedh7d4Sb+Tg
odbJdRIs3s/qZlCw94ZAI4aD5l9h8mncfcoAM6uqJzl91Lqbwo9fy3tt5gMCgYBG
kqYQQ7KthhiT9kpGn8V+OfjLEy7Eo7CbjHP3DaatpmzSfB/dJx+Tr6hyB0D6MYmn
LOQUaDSzeFg/rsLJcf97iiMSRqCKQmD9k8oaBYnnV5A89+Mj+pQ3SN8EDE25QcqL
wL4SlTXN9AkExTAev8+YfqvXcMFDmuWxKIEoNPFGNwKBgDEWCNvj86HZnQH+7ANc
84HzHNzBz3XEtn09FeLA69r+C9vLqodxgTvPNdif42Igw4mK640jUP5JruJZ0kq0
jYsF2yzgpVFfYbo7hU4ZGCZM24WhHhaXLE6Oi/ExCAqstLwCpaVTS1FoljtcNV7P
mZfK4GN9JSGsRqiWK21Ly2bC
-----END PRIVATE KEY-----
Certificate:
    Data:
        Version: 3 (0x2)
        Serial Number:
            01:1f:2f:6e:e9:f3:7b:74:ba:87:90:bf:40:e4:a1:f0:fd:cd:35:7f
        Signature Algorithm: sha256WithRSAEncryption
        Issuer: CN = RSA-2048 keyEncipherment
        Validity
            Not Before: Jul  1 17:45:04 2020 GMT
            Not After : Jun 29 17:45:04 2030 GMT
        Subject: CN = RSA-2048 keyEncipherment
        Subject Public Key Info:
            Public Key Algorithm: rsaEncryption
                RSA Public-Key: (2048 bit)
                Modulus:
                    00:b5:0d:75:de:94:0a:19:26:26:a8:35:50:23:f9:
                    51:be:b8:59:61:a7:91:89:b7:88:70:61:34:75:a3:
                    1a:97:12:0a:e2:71:2e:84:94:ce:d6:fd:51:c4:26:
                    e2:6f:fb:62:85:b5:17:d8:4a:2d:71:2d:5a:e2:b9:
                    11:d9:34:02:e6:2d:6e:34:50:38:b5:a8:a2:5d:2c:
                    c1:62:4e:a3:20:fc:11:17:54:ce:4b:d5:b8:00:c3:
                    89:1f:36:6e:c4:c1:9e:b8:0c:27:58:48:f9:cf:ab:
                    e3:cd:b4:10:31:9e:6b:f3:a7:fe:df:78:a7:37:de:
                    7a:bd:a6:ff:42:51:55:5e:56:f2:28:bd:df:6e:9f:
                    87:b6:8d:da:99:87:ea:7b:e7:42:f2:d5:48:f1:fb:
                    b6:ce:19:3a:31:5f:39:79:f8:8b:09:0c:85:45:e6:
                    f3:c6:a1:24:9a:cf:1a:e7:a6:02:30:14:6c:07:d9:
                    6e:bd:c9:2b:0c:04:ce:0a:00:55:ba:18:54:22:14:
                    5c:4e:3c:8f:5a:d6:0c:63:b0:a1:c5:7f:2d:94:fd:
                    d1:d1:ca:66:2a:6e:6e:30:f9:a7:e0:a3:f9:59:8c:
                    9b:fd:97:77:90:00:b2:fe:af:8c:10:96:bd:64:2e:
                    ad:05:5a:97:14:12:96:43:5b:8d:05:eb:95:1d:60:
                    f6:e1
                Exponent: 65537 (0x10001)
        X509v3 extensions:
            X509v3 Key Usage: critical
                Key Encipherment
    Signature Algorithm: sha256WithRSAEncryption
         3c:1b:15:b3:72:84:5a:81:97:bf:64:f9:e6:73:e7:e3:50:6b:
         df:f9:e3:c7:27:10:ce:8c:b1:c1:d4:67:75:68:c1:c1:7d:6c:
         24:e4:c4:1e:ca:a9:64:58:46:b8:5d:0f:ea:f0:ab:ed:97:f1:
         1e:f0:b7:48:60:71:1c:01:42:70:31:8e:19:af:51:f4:47:f3:
         26:00:b3:1c:25:5c:fa:22:83:51:8f:5c:f3:c1:e6:43:2d:d2:
         b0:40:c6:c6:dd:87:58:2d:8e:71:da:a0:3c:32:3b:f5:b3:8b:
         88:94:50:cc:1e:51:a1:f8:cc:d9:aa:90:77:d7:95:59:29:dd:
         ff:e9:fa:0e:94:8f:f7:77:c9:6c:29:b6:a2:e9:3f:59:99:12:
         c1:78:06:d1:84:72:8e:14:c3:ca:51:4e:d7:47:8f:e1:c0:4c:
         ea:94:70:1e:48:a7:0e:b2:0c:12:c9:08:c7:78:0f:aa:be:26:
         8b:fc:e8:58:cd:1e:89:01:a2:15:c8:0a:52:e0:6c:8f:90:c3:
         2b:d5:30:b6:37:c9:98:4f:34:e3:1e:21:e8:d5:0f:70:6b:7c:
         1f:d4:6e:99:4f:e3:50:78:61:ec:40:52:2f:d6:01:03:53:f1:
         cd:97:94:1a:44:2b:71:ab:eb:07:45:16:50:dd:4c:96:1d:c8:
         d5:7a:e9:3f
-----BEGIN CERTIFICATE-----
MIIC5jCCAc6gAwIBAgIUAR8vbunze3S6h5C/QOSh8P3NNX8wDQYJKoZIhvcNAQEL
BQAwIzEhMB8GA1UEAwwYUlNBLTIwNDgga2V5RW5jaXBoZXJtZW50MB4XDTIwMDcw
MTE3NDUwNFoXDTMwMDYyOTE3NDUwNFowIzEhMB8GA1UEAwwYUlNBLTIwNDgga2V5
RW5jaXBoZXJtZW50MIIBIjANBgkqhkiG9w0BAQEFAAOCAQ8AMIIBCgKCAQEAtQ11
3pQKGSYmqDVQI/lRvrhZYaeRibeIcGE0daMalxIK4nEuhJTO1v1RxCbib/tihbUX
2EotcS1a4rkR2TQC5i1uNFA4taiiXSzBYk6jIPwRF1TOS9W4AMOJHzZuxMGeuAwn
WEj5z6vjzbQQMZ5r86f+33inN956vab/QlFVXlbyKL3fbp+Hto3amYfqe+dC8tVI
8fu2zhk6MV85efiLCQyFRebzxqEkms8a56YCMBRsB9luvckrDATOCgBVuhhUIhRc
TjyPWtYMY7ChxX8tlP3R0cpmKm5uMPmn4KP5WYyb/Zd3kACy/q+MEJa9ZC6tBVqX
FBKWQ1uNBeuVHWD24QIDAQABoxIwEDAOBgNVHQ8BAf8EBAMCBSAwDQYJKoZIhvcN
AQELBQADggEBADwbFbNyhFqBl79k+eZz5+NQa9/548cnEM6MscHUZ3VowcF9bCTk
xB7KqWRYRrhdD+rwq+2X8R7wt0hgcRwBQnAxjhmvUfRH8yYAsxwlXPoig1GPXPPB
5kMt0rBAxsbdh1gtjnHaoDwyO/Wzi4iUUMweUaH4zNmqkHfXlVkp3f/p+g6Uj/d3
yWwptqLpP1mZEsF4BtGEco4Uw8pRTtdHj+HATOqUcB5Ipw6yDBLJCMd4D6q+Jov8
6FjNHokBohXIClLgbI+QwyvVMLY3yZhPNOMeIejVD3BrfB/UbplP41B4YexAUi/W
AQNT8c2XlBpEK3Gr6wdFFlDdTJYdyNV66T8=
-----END CERTIFICATE-----
