-----BEGIN PRIVATE KEY-----
MIIEvgIBADANBgkqhkiG9w0BAQEFAASCBKgwggSkAgEAAoIBAQC1DXXelAoZJiao
NVAj+VG+uFlhp5GJt4hwYTR1oxqXEgricS6ElM7W/VHEJuJv+2KFtRfYSi1xLVri
uRHZNALmLW40UDi1qKJdLMFiTqMg/BEXVM5L1bgAw4kfNm7EwZ64DCdYSPnPq+PN
tBAxnmvzp/7feKc33nq9pv9CUVVeVvIovd9un4e2jdqZh+p750Ly1Ujx+7bOGTox
Xzl5+IsJDIVF5vPGoSSazxrnpgIwFGwH2W69ySsMBM4KAFW6GFQiFFxOPI9a1gxj
sKHFfy2U/dHRymYqbm4w+afgo/lZjJv9l3eQALL+r4wQlr1kLq0FWpcUEpZDW40F
65UdYPbhAgMBAAECggEBAK90nvCXeH3MuhOyrrpeCDkSgBQiBul2QjPeD6+c48zZ
QFEXrCPx7czs6wtzP2eUL3Mx/yytHgKbGIO1JDXgsJqOFkl+IKbzCH3RPItfd7kk
bg+1MMLPF6Ut2Tm1T30/wefMZ2ioN+doRbh4MmVTiHw1Jss8Kpj68unN53tGRLvJ
VvamRDOrtfhuM2fiKap3FH0bBGQzLJ6ZX6Xpscf3flxQhjCm5XeViBWJUo1tgVGN
Sq8GgAy/ohVQqmUbvX3Zg/yTtVfoDU44OJ2RLhDoB+5VsMtzu0i4k4zoeR0YgT53
C4VdSmxDSPlpc0xLTmxugGZBxYSAbnyA1cdeufI5F80CgYEA4KppyNukJKu1ZS2c
Fqx08cR+PQqTzMOdZE1ZYRNtULI0Y6ajceW/l78OYOzxFQEho4Y00UQZTKUxp5/O
RxalI7b1zPlW3jXJ+2j8JWH4AnPs4aDEDcJVeuCRwlEZ9C3q3cVcjv2Ty6sNe3pe
OhupkBwAe6WwT9soDOKTSMvB5hsCgYEAzk3ceZAPXGYnjkFF58rhdFdGV0NKKePD
kAQDjpsoISCbN0RM4vNA4UNWszRd+Js/2ePVIB/k6SPRXZbcOhu2etzk1tTbeynF
7EzG5FnMGYykQVz2X1JYA+UT5AnujANJUMH1jjDyHdMFS8/1oYT0OwnnbYZ8/sev
eYK3MJyAVrMCgYEAgM2SqmIqQA/lhmVYuLMUtMtnaI2Y4OtBYBDsbjhaEsqoOH1/
9Tu31ULm9nDBYr5sT7kQrO0y5/tJdYWsGJuF/+zUDTjiMbF65FVzQedh7d4Sb+Tg
odbJdRIs3s/qZlCw94ZAI4aD5l9h8mncfcoAM6uqJzl91Lqbwo9fy3tt5gMCgYBG
kqYQQ7KthhiT9kpGn8V+OfjLEy7Eo7CbjHP3DaatpmzSfB/dJx+Tr6hyB0D6MYmn
LOQUaDSzeFg/rsLJcf97iiMSRqCKQmD9k8oaBYnnV5A89+Mj+pQ3SN8EDE25QcqL
wL4SlTXN9AkExTAev8+YfqvXcMFDmuWxKIEoNPFGNwKBgDEWCNvj86HZnQH+7ANc
84HzHNzBz3XEtn09FeLA69r+C9vLqodxgTvPNdif42Igw4mK640jUP5JruJZ0kq0
jYsF2yzgpVFfYbo7hU4ZGCZM24WhHhaXLE6Oi/ExCAqstLwCpaVTS1FoljtcNV7P
mZfK4GN9JSGsRqiWK21Ly2bC
-----END PRIVATE KEY-----
Certificate:
    Data:
        Version: 3 (0x2)
        Serial Number:
            77:a5:a7:19:39:55:bf:33:16:38:f4:8a:36:a0:0b:09:ae:52:51:2c
        Signature Algorithm: sha256WithRSAEncryption
        Issuer: CN = RSA-2048 no keyUsage extension
        Validity
            Not Before: Jul  1 17:45:04 2020 GMT
            Not After : Jun 29 17:45:04 2030 GMT
        Subject: CN = RSA-2048 no keyUsage extension
        Subject Public Key Info:
            Public Key Algorithm: rsaEncryption
                RSA Public-Key: (2048 bit)
                Modulus:
                    00:b5:0d:75:de:94:0a:19:26:26:a8:35:50:23:f9:
                    51:be:b8:59:61:a7:91:89:b7:88:70:61:34:75:a3:
                    1a:97:12:0a:e2:71:2e:84:94:ce:d6:fd:51:c4:26:
                    e2:6f:fb:62:85:b5:17:d8:4a:2d:71:2d:5a:e2:b9:
                    11:d9:34:02:e6:2d:6e:34:50:38:b5:a8:a2:5d:2c:
                    c1:62:4e:a3:20:fc:11:17:54:ce:4b:d5:b8:00:c3:
                    89:1f:36:6e:c4:c1:9e:b8:0c:27:58:48:f9:cf:ab:
                    e3:cd:b4:10:31:9e:6b:f3:a7:fe:df:78:a7:37:de:
                    7a:bd:a6:ff:42:51:55:5e:56:f2:28:bd:df:6e:9f:
                    87:b6:8d:da:99:87:ea:7b:e7:42:f2:d5:48:f1:fb:
                    b6:ce:19:3a:31:5f:39:79:f8:8b:09:0c:85:45:e6:
                    f3:c6:a1:24:9a:cf:1a:e7:a6:02:30:14:6c:07:d9:
                    6e:bd:c9:2b:0c:04:ce:0a:00:55:ba:18:54:22:14:
                    5c:4e:3c:8f:5a:d6:0c:63:b0:a1:c5:7f:2d:94:fd:
                    d1:d1:ca:66:2a:6e:6e:30:f9:a7:e0:a3:f9:59:8c:
                    9b:fd:97:77:90:00:b2:fe:af:8c:10:96:bd:64:2e:
                    ad:05:5a:97:14:12:96:43:5b:8d:05:eb:95:1d:60:
                    f6:e1
                Exponent: 65537 (0x10001)
    Signature Algorithm: sha256WithRSAEncryption
         0f:6e:2d:5a:08:c5:3e:62:2a:77:1c:ab:d2:65:50:20:66:16:
         9e:43:2e:74:8d:38:5b:54:8a:56:85:37:9b:3c:1f:f2:f2:84:
         83:63:ac:00:da:cb:0f:4a:81:d4:d4:af:13:88:4c:c2:24:9c:
         c1:cb:db:21:c7:b7:85:78:ff:12:ff:f4:63:99:40:9b:58:a0:
         23:25:5f:5f:dc:c7:64:46:47:4d:d8:ef:cc:96:38:e7:83:2a:
         1e:7b:fd:d1:39:3d:ff:a7:90:d7:66:53:6d:3a:ad:0f:0f:a2:
         8e:c5:71:95:33:18:89:79:1c:d4:bc:8e:0d:b7:ca:ab:25:03:
         45:c6:2d:6c:dc:52:7a:06:b5:b9:8a:18:3c:8c:50:9a:e6:d8:
         17:de:69:af:0d:d3:50:03:ee:99:53:be:aa:a3:08:7d:a0:30:
         0f:22:74:c8:8c:f3:c1:3c:c8:4a:84:ae:c0:aa:01:7f:6e:63:
         a5:29:a6:03:a8:fb:25:77:d3:0f:e1:df:89:c1:9f:b3:1c:30:
         36:73:74:66:cf:1f:2d:91:c2:42:99:51:66:3f:c4:36:c4:71:
         f0:01:33:aa:ba:18:9d:f8:24:ca:dd:53:a1:99:98:e8:95:a5:
         59:29:7d:cf:dc:93:9c:59:f9:85:f7:f3:98:cb:11:f0:b7:53:
         df:3c:cb:07
-----BEGIN CERTIFICATE-----
MIIC3jCCAcagAwIBAgIUd6WnGTlVvzMWOPSKNqALCa5SUSwwDQYJKoZIhvcNAQEL
BQAwKTEnMCUGA1UEAwweUlNBLTIwNDggbm8ga2V5VXNhZ2UgZXh0ZW5zaW9uMB4X
DTIwMDcwMTE3NDUwNFoXDTMwMDYyOTE3NDUwNFowKTEnMCUGA1UEAwweUlNBLTIw
NDggbm8ga2V5VXNhZ2UgZXh0ZW5zaW9uMIIBIjANBgkqhkiG9w0BAQEFAAOCAQ8A
MIIBCgKCAQEAtQ113pQKGSYmqDVQI/lRvrhZYaeRibeIcGE0daMalxIK4nEuhJTO
1v1RxCbib/tihbUX2EotcS1a4rkR2TQC5i1uNFA4taiiXSzBYk6jIPwRF1TOS9W4
AMOJHzZuxMGeuAwnWEj5z6vjzbQQMZ5r86f+33inN956vab/QlFVXlbyKL3fbp+H
to3amYfqe+dC8tVI8fu2zhk6MV85efiLCQyFRebzxqEkms8a56YCMBRsB9luvckr
DATOCgBVuhhUIhRcTjyPWtYMY7ChxX8tlP3R0cpmKm5uMPmn4KP5WYyb/Zd3kACy
/q+MEJa9ZC6tBVqXFBKWQ1uNBeuVHWD24QIDAQABMA0GCSqGSIb3DQEBCwUAA4IB
AQAPbi1aCMU+Yip3HKvSZVAgZhaeQy50jThbVIpWhTebPB/y8oSDY6wA2ssPSoHU
1K8TiEzCJJzBy9shx7eFeP8S//RjmUCbWKAjJV9f3MdkRkdN2O/Mljjngyoee/3R
OT3/p5DXZlNtOq0PD6KOxXGVMxiJeRzUvI4Nt8qrJQNFxi1s3FJ6BrW5ihg8jFCa
5tgX3mmvDdNQA+6ZU76qowh9oDAPInTIjPPBPMhKhK7AqgF/bmOlKaYDqPsld9MP
4d+JwZ+zHDA2c3Rmzx8tkcJCmVFmP8Q2xHHwATOquhid+CTK3VOhmZjolaVZKX3P
3JOcWfmF9/OYyxHwt1PfPMsH
-----END CERTIFICATE-----
