-----BEGIN PRIVATE KEY-----
MIGHAgEAMBMGByqGSM49AgEGCCqGSM49AwEHBG0wawIBAQQgeor3507Mmwvc9idK
suXWTudE0GDlVmEc64H7acez5xShRANCAATzrZ6+AHOlorp9D4i4ZEuFW2IcT16D
RCr5q46eSP89CxqRkr4fDMaHCr0GRwtjBrcnuljjBWRtHTAo7u7yqXuT
-----END PRIVATE KEY-----
Certificate:
    Data:
        Version: 3 (0x2)
        Serial Number:
            29:16:18:ee:33:5e:08:0e:f8:68:83:0e:5f:3f:de:0a:f5:0e:46:b3
        Signature Algorithm: ecdsa-with-SHA256
        Issuer: CN = P-256 keyAgreement
        Validity
            Not Before: Jul  1 17:45:04 2020 GMT
            Not After : Jun 29 17:45:04 2030 GMT
        Subject: CN = P-256 keyAgreement
        Subject Public Key Info:
            Public Key Algorithm: id-ecPublicKey
                Public-Key: (256 bit)
                pub:
                    04:f3:ad:9e:be:00:73:a5:a2:ba:7d:0f:88:b8:64:
                    4b:85:5b:62:1c:4f:5e:83:44:2a:f9:ab:8e:9e:48:
                    ff:3d:0b:1a:91:92:be:1f:0c:c6:87:0a:bd:06:47:
                    0b:63:06:b7:27:ba:58:e3:05:64:6d:1d:30:28:ee:
                    ee:f2:a9:7b:93
                ASN1 OID: prime256v1
                NIST CURVE: P-256
        X509v3 extensions:
            X509v3 Key Usage: critical
                Key Agreement
    Signature Algorithm: ecdsa-with-SHA256
         30:45:02:21:00:ca:5e:82:62:84:49:72:35:04:6e:56:0c:3b:
         70:f6:ae:03:d9:74:e9:e5:a8:86:bd:7e:c9:4b:d5:59:2a:2b:
         52:02:20:40:27:b3:d5:08:39:05:f4:35:9c:5d:58:02:dd:70:
         11:97:a8:15:5e:21:09:3a:f4:d5:5b:f6:69:ad:7a:4f:61
-----BEGIN CERTIFICATE-----
MIIBTTCB9KADAgECAhQpFhjuM14IDvhogw5fP94K9Q5GszAKBggqhkjOPQQDAjAd
MRswGQYDVQQDDBJQLTI1NiBrZXlBZ3JlZW1lbnQwHhcNMjAwNzAxMTc0NTA0WhcN
MzAwNjI5MTc0NTA0WjAdMRswGQYDVQQDDBJQLTI1NiBrZXlBZ3JlZW1lbnQwWTAT
BgcqhkjOPQIBBggqhkjOPQMBBwNCAATzrZ6+AHOlorp9D4i4ZEuFW2IcT16DRCr5
q46eSP89CxqRkr4fDMaHCr0GRwtjBrcnuljjBWRtHTAo7u7yqXuToxIwEDAOBgNV
HQ8BAf8EBAMCAwgwCgYIKoZIzj0EAwIDSAAwRQIhAMpegmKESXI1BG5WDDtw9q4D
2XTp5aiGvX7JS9VZKitSAiBAJ7PVCDkF9DWcXVgC3XARl6gVXiEJOvTVW/ZprXpP
YQ==
-----END CERTIFICATE-----
