-----BEGIN PRIVATE KEY-----
MIGHAgEAMBMGByqGSM49AgEGCCqGSM49AwEHBG0wawIBAQQgeor3507Mmwvc9idK
suXWTudE0GDlVmEc64H7acez5xShRANCAATzrZ6+AHOlorp9D4i4ZEuFW2IcT16D
RCr5q46eSP89CxqRkr4fDMaHCr0GRwtjBrcnuljjBWRtHTAo7u7yqXuT
-----END PRIVATE KEY-----
Certificate:
    Data:
        Version: 3 (0x2)
        Serial Number:
            75:3d:62:cc:15:9d:78:a8:e2:fa:a7:5f:a2:62:83:12:c6:b5:50:bb
        Signature Algorithm: ecdsa-with-SHA256
        Issuer: CN = P-256 keyAgreement and digitalSignature
        Validity
            Not Before: Jul  1 17:45:04 2020 GMT
            Not After : Jun 29 17:45:04 2030 GMT
        Subject: CN = P-256 keyAgreement and digitalSignature
        Subject Public Key Info:
            Public Key Algorithm: id-ecPublicKey
                Public-Key: (256 bit)
                pub:
                    04:f3:ad:9e:be:00:73:a5:a2:ba:7d:0f:88:b8:64:
                    4b:85:5b:62:1c:4f:5e:83:44:2a:f9:ab:8e:9e:48:
                    ff:3d:0b:1a:91:92:be:1f:0c:c6:87:0a:bd:06:47:
                    0b:63:06:b7:27:ba:58:e3:05:64:6d:1d:30:28:ee:
                    ee:f2:a9:7b:93
                ASN1 OID: prime256v1
                NIST CURVE: P-256
        X509v3 extensions:
            X509v3 Key Usage: critical
                Digital Signature, Key Agreement
    Signature Algorithm: ecdsa-with-SHA256
         30:45:02:20:3c:d9:e5:7a:d5:65:3b:93:62:80:1c:c4:26:d2:
         31:6b:fc:39:c9:bf:66:60:dd:06:89:e3:71:d4:2f:e2:d2:7d:
         02:21:00:c2:5b:1f:c6:73:8d:6e:ce:6e:e7:fa:db:88:55:be:
         08:8d:6f:8d:80:16:59:d7:73:26:0e:70:02:50:e6:41:35
-----BEGIN CERTIFICATE-----
MIIBeDCCAR6gAwIBAgIUdT1izBWdeKji+qdfomKDEsa1ULswCgYIKoZIzj0EAwIw
MjEwMC4GA1UEAwwnUC0yNTYga2V5QWdyZWVtZW50IGFuZCBkaWdpdGFsU2lnbmF0
dXJlMB4XDTIwMDcwMTE3NDUwNFoXDTMwMDYyOTE3NDUwNFowMjEwMC4GA1UEAwwn
UC0yNTYga2V5QWdyZWVtZW50IGFuZCBkaWdpdGFsU2lnbmF0dXJlMFkwEwYHKoZI
zj0CAQYIKoZIzj0DAQcDQgAE862evgBzpaK6fQ+IuGRLhVtiHE9eg0Qq+auOnkj/
PQsakZK+HwzGhwq9BkcLYwa3J7pY4wVkbR0wKO7u8ql7k6MSMBAwDgYDVR0PAQH/
BAQDAgOIMAoGCCqGSM49BAMCA0gAMEUCIDzZ5XrVZTuTYoAcxCbSMWv8Ocm/ZmDd
BonjcdQv4tJ9AiEAwlsfxnONbs5u5/rbiFW+CI1vjYAWWddzJg5wAlDmQTU=
-----END CERTIFICATE-----
