-----BEGIN RSA PRIVATE KEY-----
MIIEowIBAAKCAQEAqSCdZFMJPeZbkgJRdKS1eKm+mH2UrcCFgr4r9LJV7ltttFfz
vR2CEmIWrQWo3wc/d2vrUMTMks4TaGun/YB2UbI8gnYlSy+B/5ExPZvfEtIib3lj
hm6O23k9Ln7VYumy3AnU8AH5lZvknkk489KrHk1FdpeB5W3+480w3/cB0Rk/MiBN
S1y2T0XhQmLhd37yfyv34Zex7Ir4gwMaq3fQgHYV05ykK8OynOTgSaFkacQw+0RK
vJ9veprmHVfYVS+yLJaNn1QFRMw+1KLGnt1aP47JV4N0m/tFhT554i9+uGYF+11D
l0o5HeMTHuVUSb9y6GkCGVPXocTrt5tq3CuZ7QIDAQABAoIBAGZ0OIRu/Pk/lBdW
SiwEH17STYCpCqlbKEX0mEIqyn2Ta1jFswTMXGBwhVYZSJybEmpwuON75IXGSuGF
3gVmjcad16QcmCj8xZ6hQRgWVcNcArpO6eilDuuLfXGuKew6sDw1xIYEXEKyZoMw
zkx+QWUg4ESgMXNf9/nd8o6qXrJgwcgnETXRvnd38euQZs5EpFKjD/6VTMDtwrFD
7prFe24527V8qS9EC6GZDOEI1lmg1Zrwu565BpwsHViExHN40/ixcMaru0X1K9nJ
A7FSPY+YN5SRTDf6A8cOPEpmfho5PD9LCQ/KUQJty+m5nQ+OxI2T87h7czBVEcJO
vu0CQC0CgYEA1RPBwXP/MQR27GIRT57kMYkXM8/xxOVT7zRe9WZCE1fHkKsgnwr/
V2Sg+uDAf/eTRh6CEsTyw9d9K9Dh/LyzjvaBRvLs3wBkhgVo2raLbyqYduPn481/
2OA6zuEbGQXincwMYYCAHtYjfiVaD9/y/Qk7x8YGxDqPY/2z1HyMY4cCgYEAyzJl
/diffYieQ4CX0GOrgkHVA9FxB3U3zLhAksTnL4UGR9O7vkaQnDUBJdH5G/zkA8Ki
hAIXMvONgQI/UArKVP6Urts2rcCZ4JNoPGD99qapJHbj/kNUFePaGcRt5sd7DbNF
JShqmYLnyMUSVSbV0Olk0NsXtm2PFQriY34LG+sCgYEAlxUULFxYVORKgp+ikKck
PG9tMUK/thG5awHiVvRz4405Jr4AOmUs2kWy01BrjhD4rx5QsohNbkmsKlZI9tDC
LJti3PDAvfpkTJcnWvVWdrNoOdytftwmS5vqdugsM5j1r1eQa84WikbiEb7gViNA
AuT6K1OhVqADLi4kxYSucp8CgYBgiweOfnf4ywp3BAgdiN2aO/EbqU1Mv9LNP9Xe
ZhN5rnh3dBBFrX1T2pM7BvKW66bian2QvvWKzdEztH+kZhwQGg1GrvzhvRrfauoh
levUXwcKPjrBOfgflmyvxXZ6Kdk7fyuhJfzQBzRdXdUCBDue0OWHnjE8Cf3rf4pk
vyREFQKBgEx/yROl1HUIX2pmD5vR8LGh1bpGsu8qX6FOwENpE/R6gXjJOrCLBfi6
bSWBJKVOKDKLrPEzqTlJXvsmzSB/+OljuuQD889yvd9yn9RFVroW74P/ExuRpHVM
woCHpqVne8CzbvGnA1U9OOyShgL7LQ3xKjShKC6bSO4whTq0INMo
-----END RSA PRIVATE KEY-----
Certificate:
    Data:
        Version: 3 (0x2)
        Serial Number:
            0c:98:18:0f:fa:ce:57:55:66:0e:a6:00:f8:c3:eb:78:e0:a2:ff:4a
        Signature Algorithm: sha256WithRSAEncryption
        Issuer: CN = RSA-2048 digitalSignature
        Validity
            Not Before: Mar 22 18:44:47 2019 GMT
            Not After : Mar 19 18:44:47 2029 GMT
        Subject: CN = RSA-2048 digitalSignature
        Subject Public Key Info:
            Public Key Algorithm: rsaEncryption
                RSA Public-Key: (2048 bit)
                Modulus:
                    00:a9:20:9d:64:53:09:3d:e6:5b:92:02:51:74:a4:
                    b5:78:a9:be:98:7d:94:ad:c0:85:82:be:2b:f4:b2:
                    55:ee:5b:6d:b4:57:f3:bd:1d:82:12:62:16:ad:05:
                    a8:df:07:3f:77:6b:eb:50:c4:cc:92:ce:13:68:6b:
                    a7:fd:80:76:51:b2:3c:82:76:25:4b:2f:81:ff:91:
                    31:3d:9b:df:12:d2:22:6f:79:63:86:6e:8e:db:79:
                    3d:2e:7e:d5:62:e9:b2:dc:09:d4:f0:01:f9:95:9b:
                    e4:9e:49:38:f3:d2:ab:1e:4d:45:76:97:81:e5:6d:
                    fe:e3:cd:30:df:f7:01:d1:19:3f:32:20:4d:4b:5c:
                    b6:4f:45:e1:42:62:e1:77:7e:f2:7f:2b:f7:e1:97:
                    b1:ec:8a:f8:83:03:1a:ab:77:d0:80:76:15:d3:9c:
                    a4:2b:c3:b2:9c:e4:e0:49:a1:64:69:c4:30:fb:44:
                    4a:bc:9f:6f:7a:9a:e6:1d:57:d8:55:2f:b2:2c:96:
                    8d:9f:54:05:44:cc:3e:d4:a2:c6:9e:dd:5a:3f:8e:
                    c9:57:83:74:9b:fb:45:85:3e:79:e2:2f:7e:b8:66:
                    05:fb:5d:43:97:4a:39:1d:e3:13:1e:e5:54:49:bf:
                    72:e8:69:02:19:53:d7:a1:c4:eb:b7:9b:6a:dc:2b:
                    99:ed
                Exponent: 65537 (0x10001)
        X509v3 extensions:
            X509v3 Key Usage: critical
                Digital Signature
    Signature Algorithm: sha256WithRSAEncryption
         2d:eb:a6:01:8d:f9:30:d5:89:f4:5a:b5:f0:06:b6:da:f8:cb:
         53:35:70:e6:c4:33:c8:58:dd:19:2b:61:8c:13:32:88:58:bc:
         62:1e:e5:44:a2:b9:10:62:f7:06:a0:b0:4a:1c:40:4b:0e:7b:
         69:cc:3f:dd:47:29:1e:0b:49:1b:42:13:ff:16:09:32:73:31:
         af:b4:4b:a7:bd:8c:74:67:e2:b5:fc:14:6e:74:cc:ea:05:d0:
         8e:98:d4:9e:0f:10:b6:06:87:59:2a:d5:f4:1f:be:05:3a:18:
         c2:ea:f5:ee:c8:91:79:d8:6c:de:0d:f6:12:3e:c9:45:16:75:
         99:fe:e4:6f:f7:f2:75:b0:a2:6b:c8:a3:96:93:af:e9:82:49:
         77:4e:28:8c:e6:67:24:04:fc:c9:68:db:b4:c8:39:80:1b:42:
         68:5e:42:a5:8c:d1:c4:02:05:77:d9:99:41:3a:93:67:5c:32:
         45:58:bb:0c:8d:e7:1b:58:d1:60:5d:6d:8f:fc:71:81:1a:39:
         67:92:62:88:b8:eb:65:fa:d2:92:b5:51:8b:1c:49:63:47:9f:
         d2:b7:1c:5c:c7:ae:95:17:c1:fe:0a:85:f5:66:31:06:f7:e1:
         8e:b9:56:7b:ec:2e:a5:74:d9:61:fd:32:62:78:74:72:fb:5a:
         c0:c4:2d:fe
-----BEGIN CERTIFICATE-----
MIIC6DCCAdCgAwIBAgIUDJgYD/rOV1VmDqYA+MPreOCi/0owDQYJKoZIhvcNAQEL
BQAwJDEiMCAGA1UEAwwZUlNBLTIwNDggZGlnaXRhbFNpZ25hdHVyZTAeFw0xOTAz
MjIxODQ0NDdaFw0yOTAzMTkxODQ0NDdaMCQxIjAgBgNVBAMMGVJTQS0yMDQ4IGRp
Z2l0YWxTaWduYXR1cmUwggEiMA0GCSqGSIb3DQEBAQUAA4IBDwAwggEKAoIBAQCp
IJ1kUwk95luSAlF0pLV4qb6YfZStwIWCviv0slXuW220V/O9HYISYhatBajfBz93
a+tQxMySzhNoa6f9gHZRsjyCdiVLL4H/kTE9m98S0iJveWOGbo7beT0uftVi6bLc
CdTwAfmVm+SeSTjz0qseTUV2l4Hlbf7jzTDf9wHRGT8yIE1LXLZPReFCYuF3fvJ/
K/fhl7HsiviDAxqrd9CAdhXTnKQrw7Kc5OBJoWRpxDD7REq8n296muYdV9hVL7Is
lo2fVAVEzD7Uosae3Vo/jslXg3Sb+0WFPnniL364ZgX7XUOXSjkd4xMe5VRJv3Lo
aQIZU9ehxOu3m2rcK5ntAgMBAAGjEjAQMA4GA1UdDwEB/wQEAwIHgDANBgkqhkiG
9w0BAQsFAAOCAQEALeumAY35MNWJ9Fq18Aa22vjLUzVw5sQzyFjdGSthjBMyiFi8
Yh7lRKK5EGL3BqCwShxASw57acw/3UcpHgtJG0IT/xYJMnMxr7RLp72MdGfitfwU
bnTM6gXQjpjUng8QtgaHWSrV9B++BToYwur17siRedhs3g32Ej7JRRZ1mf7kb/fy
dbCia8ijlpOv6YJJd04ojOZnJAT8yWjbtMg5gBtCaF5CpYzRxAIFd9mZQTqTZ1wy
RVi7DI3nG1jRYF1tj/xxgRo5Z5JiiLjrZfrSkrVRixxJY0ef0rccXMeulRfB/gqF
9WYxBvfhjrlWe+wupXTZYf0yYnh0cvtawMQt/g==
-----END CERTIFICATE-----
