-----BEGIN PRIVATE KEY-----
MIIEvgIBADANBgkqhkiG9w0BAQEFAASCBKgwggSkAgEAAoIBAQC1DXXelAoZJiao
NVAj+VG+uFlhp5GJt4hwYTR1oxqXEgricS6ElM7W/VHEJuJv+2KFtRfYSi1xLVri
uRHZNALmLW40UDi1qKJdLMFiTqMg/BEXVM5L1bgAw4kfNm7EwZ64DCdYSPnPq+PN
tBAxnmvzp/7feKc33nq9pv9CUVVeVvIovd9un4e2jdqZh+p750Ly1Ujx+7bOGTox
Xzl5+IsJDIVF5vPGoSSazxrnpgIwFGwH2W69ySsMBM4KAFW6GFQiFFxOPI9a1gxj
sKHFfy2U/dHRymYqbm4w+afgo/lZjJv9l3eQALL+r4wQlr1kLq0FWpcUEpZDW40F
65UdYPbhAgMBAAECggEBAK90nvCXeH3MuhOyrrpeCDkSgBQiBul2QjPeD6+c48zZ
QFEXrCPx7czs6wtzP2eUL3Mx/yytHgKbGIO1JDXgsJqOFkl+IKbzCH3RPItfd7kk
bg+1MMLPF6Ut2Tm1T30/wefMZ2ioN+doRbh4MmVTiHw1Jss8Kpj68unN53tGRLvJ
VvamRDOrtfhuM2fiKap3FH0bBGQzLJ6ZX6Xpscf3flxQhjCm5XeViBWJUo1tgVGN
Sq8GgAy/ohVQqmUbvX3Zg/yTtVfoDU44OJ2RLhDoB+5VsMtzu0i4k4zoeR0YgT53
C4VdSmxDSPlpc0xLTmxugGZBxYSAbnyA1cdeufI5F80CgYEA4KppyNukJKu1ZS2c
Fqx08cR+PQqTzMOdZE1ZYRNtULI0Y6ajceW/l78OYOzxFQEho4Y00UQZTKUxp5/O
RxalI7b1zPlW3jXJ+2j8JWH4AnPs4aDEDcJVeuCRwlEZ9C3q3cVcjv2Ty6sNe3pe
OhupkBwAe6WwT9soDOKTSMvB5hsCgYEAzk3ceZAPXGYnjkFF58rhdFdGV0NKKePD
kAQDjpsoISCbN0RM4vNA4UNWszRd+Js/2ePVIB/k6SPRXZbcOhu2etzk1tTbeynF
7EzG5FnMGYykQVz2X1JYA+UT5AnujANJUMH1jjDyHdMFS8/1oYT0OwnnbYZ8/sev
eYK3MJyAVrMCgYEAgM2SqmIqQA/lhmVYuLMUtMtnaI2Y4OtBYBDsbjhaEsqoOH1/
9Tu31ULm9nDBYr5sT7kQrO0y5/tJdYWsGJuF/+zUDTjiMbF65FVzQedh7d4Sb+Tg
odbJdRIs3s/qZlCw94ZAI4aD5l9h8mncfcoAM6uqJzl91Lqbwo9fy3tt5gMCgYBG
kqYQQ7KthhiT9kpGn8V+OfjLEy7Eo7CbjHP3DaatpmzSfB/dJx+Tr6hyB0D6MYmn
LOQUaDSzeFg/rsLJcf97iiMSRqCKQmD9k8oaBYnnV5A89+Mj+pQ3SN8EDE25QcqL
wL4SlTXN9AkExTAev8+YfqvXcMFDmuWxKIEoNPFGNwKBgDEWCNvj86HZnQH+7ANc
84HzHNzBz3XEtn09FeLA69r+C9vLqodxgTvPNdif42Igw4mK640jUP5JruJZ0kq0
jYsF2yzgpVFfYbo7hU4ZGCZM24WhHhaXLE6Oi/ExCAqstLwCpaVTS1FoljtcNV7P
mZfK4GN9JSGsRqiWK21Ly2bC
-----END PRIVATE KEY-----
Certificate:
    Data:
        Version: 3 (0x2)
        Serial Number:
            49:e7:3e:c9:55:56:16:c5:a1:7f:f2:31:ce:1b:e9:ab:8c:5c:e7:92
        Signature Algorithm: sha256WithRSAEncryption
        Issuer: CN = RSA-2048 keyEncipherment and digitalSignature
        Validity
            Not Before: Jul  1 17:45:04 2020 GMT
            Not After : Jun 29 17:45:04 2030 GMT
        Subject: CN = RSA-2048 keyEncipherment and digitalSignature
        Subject Public Key Info:
            Public Key Algorithm: rsaEncryption
                RSA Public-Key: (2048 bit)
                Modulus:
                    00:b5:0d:75:de:94:0a:19:26:26:a8:35:50:23:f9:
                    51:be:b8:59:61:a7:91:89:b7:88:70:61:34:75:a3:
                    1a:97:12:0a:e2:71:2e:84:94:ce:d6:fd:51:c4:26:
                    e2:6f:fb:62:85:b5:17:d8:4a:2d:71:2d:5a:e2:b9:
                    11:d9:34:02:e6:2d:6e:34:50:38:b5:a8:a2:5d:2c:
                    c1:62:4e:a3:20:fc:11:17:54:ce:4b:d5:b8:00:c3:
                    89:1f:36:6e:c4:c1:9e:b8:0c:27:58:48:f9:cf:ab:
                    e3:cd:b4:10:31:9e:6b:f3:a7:fe:df:78:a7:37:de:
                    7a:bd:a6:ff:42:51:55:5e:56:f2:28:bd:df:6e:9f:
                    87:b6:8d:da:99:87:ea:7b:e7:42:f2:d5:48:f1:fb:
                    b6:ce:19:3a:31:5f:39:79:f8:8b:09:0c:85:45:e6:
                    f3:c6:a1:24:9a:cf:1a:e7:a6:02:30:14:6c:07:d9:
                    6e:bd:c9:2b:0c:04:ce:0a:00:55:ba:18:54:22:14:
                    5c:4e:3c:8f:5a:d6:0c:63:b0:a1:c5:7f:2d:94:fd:
                    d1:d1:ca:66:2a:6e:6e:30:f9:a7:e0:a3:f9:59:8c:
                    9b:fd:97:77:90:00:b2:fe:af:8c:10:96:bd:64:2e:
                    ad:05:5a:97:14:12:96:43:5b:8d:05:eb:95:1d:60:
                    f6:e1
                Exponent: 65537 (0x10001)
        X509v3 extensions:
            X509v3 Key Usage: critical
                Digital Signature, Key Encipherment
    Signature Algorithm: sha256WithRSAEncryption
         0f:5a:73:cc:20:c1:a3:e6:49:a4:08:4b:73:ec:c2:fd:43:9d:
         a0:b2:7e:17:35:1a:7e:34:2d:68:99:2e:4a:5b:82:0a:20:9e:
         57:3a:b2:38:bd:57:08:c6:5c:7c:43:3e:5a:57:f0:bf:88:e4:
         55:fd:be:ae:3e:03:0d:17:cf:d0:e0:c6:0b:8c:de:ed:a6:06:
         c1:6f:90:63:a2:de:e8:53:71:da:67:5a:f2:2a:8c:6f:c5:d9:
         fc:f5:c6:ac:ee:07:b1:cd:b2:5f:42:b0:b2:b2:b0:e6:6d:a0:
         c8:88:1a:f2:37:5d:cb:5f:b3:9d:66:98:32:1d:49:c4:b1:63:
         5f:44:83:25:b1:32:e5:8a:0e:ca:24:72:eb:c1:17:85:0b:79:
         ce:3e:9f:78:41:c9:c6:45:cc:2f:3e:b2:1f:af:33:27:8c:75:
         e9:8d:3f:6a:eb:54:34:68:0f:ff:9e:4e:21:88:76:f6:41:de:
         c6:69:09:5a:38:05:a7:e3:6b:db:e3:4c:16:64:c9:1c:70:ad:
         00:1e:01:90:be:9b:f4:ed:42:b7:e8:b2:ff:2d:d5:ca:ba:7b:
         bd:6e:57:51:a2:18:3c:79:43:42:a0:32:5c:df:74:db:41:a5:
         7c:99:0e:2b:24:6e:f3:e2:5e:b5:43:78:d7:43:c6:29:0d:77:
         4c:b4:b0:48
-----BEGIN CERTIFICATE-----
MIIDEDCCAfigAwIBAgIUSec+yVVWFsWhf/Ixzhvpq4xc55IwDQYJKoZIhvcNAQEL
BQAwODE2MDQGA1UEAwwtUlNBLTIwNDgga2V5RW5jaXBoZXJtZW50IGFuZCBkaWdp
dGFsU2lnbmF0dXJlMB4XDTIwMDcwMTE3NDUwNFoXDTMwMDYyOTE3NDUwNFowODE2
MDQGA1UEAwwtUlNBLTIwNDgga2V5RW5jaXBoZXJtZW50IGFuZCBkaWdpdGFsU2ln
bmF0dXJlMIIBIjANBgkqhkiG9w0BAQEFAAOCAQ8AMIIBCgKCAQEAtQ113pQKGSYm
qDVQI/lRvrhZYaeRibeIcGE0daMalxIK4nEuhJTO1v1RxCbib/tihbUX2EotcS1a
4rkR2TQC5i1uNFA4taiiXSzBYk6jIPwRF1TOS9W4AMOJHzZuxMGeuAwnWEj5z6vj
zbQQMZ5r86f+33inN956vab/QlFVXlbyKL3fbp+Hto3amYfqe+dC8tVI8fu2zhk6
MV85efiLCQyFRebzxqEkms8a56YCMBRsB9luvckrDATOCgBVuhhUIhRcTjyPWtYM
Y7ChxX8tlP3R0cpmKm5uMPmn4KP5WYyb/Zd3kACy/q+MEJa9ZC6tBVqXFBKWQ1uN
BeuVHWD24QIDAQABoxIwEDAOBgNVHQ8BAf8EBAMCBaAwDQYJKoZIhvcNAQELBQAD
ggEBAA9ac8wgwaPmSaQIS3Pswv1DnaCyfhc1Gn40LWiZLkpbggognlc6sji9VwjG
XHxDPlpX8L+I5FX9vq4+Aw0Xz9DgxguM3u2mBsFvkGOi3uhTcdpnWvIqjG/F2fz1
xqzuB7HNsl9CsLKysOZtoMiIGvI3Xctfs51mmDIdScSxY19EgyWxMuWKDsokcuvB
F4ULec4+n3hBycZFzC8+sh+vMyeMdemNP2rrVDRoD/+eTiGIdvZB3sZpCVo4Bafj
a9vjTBZkyRxwrQAeAZC+m/TtQrfosv8t1cq6e71uV1GiGDx5Q0KgMlzfdNtBpXyZ
DiskbvPiXrVDeNdDxikNd0y0sEg=
-----END CERTIFICATE-----
