-----BEGIN EC PRIVATE KEY-----
MHcCAQEEIKMMXIjb6PROYeXlSIibBPN6figqdrEfRfuhKPHc5fQtoAoGCCqGSM49
AwEHoUQDQgAEB9uj8C4QKvKDuuNsUtrp3gsS+f8snCYhuoCVwNi0MOjrtd9bBHGg
G7eswIOb+Mf025iMZpbovjg2SO5ta+LQ/A==
-----END EC PRIVATE KEY-----
Certificate:
    Data:
        Version: 3 (0x2)
        Serial Number:
            12:73:1e:4b:3d:cb:ef:0d:a8:6c:ce:8c:56:bf:a4:1d:2c:47:f4:32
        Signature Algorithm: ecdsa-with-SHA256
        Issuer: CN = P-256 no keyUsage extension
        Validity
            Not Before: Mar 22 18:44:47 2019 GMT
            Not After : Mar 19 18:44:47 2029 GMT
        Subject: CN = P-256 no keyUsage extension
        Subject Public Key Info:
            Public Key Algorithm: id-ecPublicKey
                Public-Key: (256 bit)
                pub:
                    04:07:db:a3:f0:2e:10:2a:f2:83:ba:e3:6c:52:da:
                    e9:de:0b:12:f9:ff:2c:9c:26:21:ba:80:95:c0:d8:
                    b4:30:e8:eb:b5:df:5b:04:71:a0:1b:b7:ac:c0:83:
                    9b:f8:c7:f4:db:98:8c:66:96:e8:be:38:36:48:ee:
                    6d:6b:e2:d0:fc
                ASN1 OID: prime256v1
                NIST CURVE: P-256
    Signature Algorithm: ecdsa-with-SHA256
         30:46:02:21:00:fb:97:2d:78:2b:d0:f7:cf:84:75:05:36:10:
         b2:fc:20:27:7a:55:59:9e:63:e5:e4:e9:f2:a1:0e:ef:44:ce:
         a9:02:21:00:8b:ad:e5:a6:f6:4b:f4:b0:02:e4:16:41:02:1e:
         89:87:39:3c:87:d0:1b:95:e4:1e:4e:82:b4:21:c2:ce:d7:fe
-----BEGIN CERTIFICATE-----
MIIBTDCB8qADAgECAhQScx5LPcvvDahszoxWv6QdLEf0MjAKBggqhkjOPQQDAjAm
MSQwIgYDVQQDDBtQLTI1NiBubyBrZXlVc2FnZSBleHRlbnNpb24wHhcNMTkwMzIy
MTg0NDQ3WhcNMjkwMzE5MTg0NDQ3WjAmMSQwIgYDVQQDDBtQLTI1NiBubyBrZXlV
c2FnZSBleHRlbnNpb24wWTATBgcqhkjOPQIBBggqhkjOPQMBBwNCAAQH26PwLhAq
8oO642xS2uneCxL5/yycJiG6gJXA2LQw6Ou131sEcaAbt6zAg5v4x/TbmIxmlui+
ODZI7m1r4tD8MAoGCCqGSM49BAMCA0kAMEYCIQD7ly14K9D3z4R1BTYQsvwgJ3pV
WZ5j5eTp8qEO70TOqQIhAIut5ab2S/SwAuQWQQIeiYc5PIfQG5XkHk6CtCHCztf+
-----END CERTIFICATE-----
