===========================================
Certificate0: faa69abfa4062c4721a533fc63a1a296c33ed5014aaaff99da6ebd62b526c037
===========================================
Certificate:
    Data:
        Version: 3 (0x2)
        Serial Number: 5657422781115766923 (0x4e83340b8c9b988b)
        Signature Algorithm: sha256WithRSAEncryption
        Issuer: C=US, ST=Arizona, L=Scottsdale, O=GoDaddy.com, Inc., OU=http://certs.godaddy.com/repository/, CN=Go Daddy Secure Certificate Authority - G2
        Validity
            Not Before: Oct  8 02:36:48 2024 GMT
            Not After : Nov  9 02:36:48 2025 GMT
        Subject: CN=timberfirepizza.com
        Subject Public Key Info:
            Public Key Algorithm: rsaEncryption
                Public-Key: (2048 bit)
                Modulus:
                    00:c7:d7:13:72:76:24:87:6b:4f:08:3c:96:9f:9f:
                    0c:d6:fe:94:5b:d4:21:8a:06:09:4d:99:64:bf:17:
                    f9:97:4f:c3:7d:a7:f3:c0:32:e7:e3:8e:84:30:c5:
                    10:de:e7:dc:d1:b0:ca:1d:88:79:95:9c:7f:0e:8e:
                    a6:69:56:de:99:45:72:af:4c:51:c8:06:85:0b:25:
                    5a:c2:8b:11:86:aa:12:a3:dd:5c:e0:cb:7d:2f:93:
                    ac:70:87:bb:32:cc:68:75:fc:3d:ab:5d:d1:63:0c:
                    ac:16:33:9c:f0:89:0b:ca:55:38:6e:c3:ec:8d:22:
                    d6:4c:ce:95:dc:5a:77:80:43:94:24:b9:6f:13:22:
                    54:0a:13:eb:58:6e:2e:ba:5b:8b:97:5d:0e:f6:24:
                    5b:59:77:59:d3:bc:db:bf:cc:6c:9a:4c:54:6f:93:
                    fd:5d:ee:44:f5:01:be:12:1b:d6:6c:43:eb:6d:2b:
                    c4:67:90:b5:7b:bb:6e:c8:c3:40:ce:d3:2c:c8:a7:
                    e9:90:94:17:a1:f5:40:90:f7:c0:85:29:ac:ea:7c:
                    e4:e7:a0:37:38:7d:fb:b7:3d:8e:92:fd:03:7a:91:
                    c5:c1:77:1c:60:81:f6:49:90:1d:1e:46:5c:69:3e:
                    82:17:ea:30:67:f0:c1:5c:d2:37:db:ec:fd:bd:8e:
                    7f:53
                Exponent: 65537 (0x10001)
        X509v3 extensions:
            X509v3 Basic Constraints: critical
                CA:FALSE
            X509v3 Extended Key Usage: 
                TLS Web Server Authentication, TLS Web Client Authentication
            X509v3 Key Usage: critical
                Digital Signature, Key Encipherment
            X509v3 CRL Distribution Points: 
                Full Name:
                  URI:http://crl.godaddy.com/gdig2s1-31192.crl
            X509v3 Certificate Policies: 
                Policy: 2.16.840.1.114413.1.7.23.1
                  CPS: http://certificates.godaddy.com/repository/
                Policy: 2.23.140.1.2.1
            Authority Information Access: 
                OCSP - URI:http://ocsp.godaddy.com/
                CA Issuers - URI:http://certificates.godaddy.com/repository/gdig2.crt
            X509v3 Authority Key Identifier: 
                40:C2:BD:27:8E:CC:34:83:30:A2:33:D7:FB:6C:B3:F0:B4:2C:80:CE
            X509v3 Subject Alternative Name: 
                DNS:timberfirepizza.com, DNS:www.timberfirepizza.com
            X509v3 Subject Key Identifier: 
                00:E9:5E:F3:ED:B2:B1:92:EF:E5:DB:52:C0:0C:78:87:2F:D1:5A:0D
            CT Precertificate SCTs: 
                Signed Certificate Timestamp:
                    Version   : v1 (0x0)
                    Log ID    : 12:F1:4E:34:BD:53:72:4C:84:06:19:C3:8F:3F:7A:13:
                                F8:E7:B5:62:87:88:9C:6D:30:05:84:EB:E5:86:26:3A
                    Timestamp : Oct  8 02:36:49.154 2024 GMT
                    Extensions: none
                    Signature : ecdsa-with-SHA256
                                30:44:02:20:32:69:3D:8D:98:83:46:E0:FA:02:A3:5F:
                                32:5D:2A:34:A0:E9:10:6B:99:92:7A:0B:26:01:96:A4:
                                5D:1B:2F:D0:02:20:56:E9:65:5E:B0:CF:57:AE:7E:63:
                                FA:E7:D4:2E:DF:15:61:33:BC:73:D8:95:39:DC:AA:B6:
                                9D:FF:7B:FF:41:27
                Signed Certificate Timestamp:
                    Version   : v1 (0x0)
                    Log ID    : 7D:59:1E:12:E1:78:2A:7B:1C:61:67:7C:5E:FD:F8:D0:
                                87:5C:14:A0:4E:95:9E:B9:03:2F:D9:0E:8C:2E:79:B8
                    Timestamp : Oct  8 02:36:49.302 2024 GMT
                    Extensions: none
                    Signature : ecdsa-with-SHA256
                                30:46:02:21:00:F8:75:EE:D9:92:50:D1:35:1D:EB:B7:
                                2C:69:33:7E:C1:63:ED:C5:95:88:B5:82:28:EB:4B:22:
                                D9:71:9E:3A:74:02:21:00:D9:88:3D:00:92:BF:84:5F:
                                A1:28:55:21:18:93:72:04:4D:A9:96:C2:5F:02:86:10:
                                29:9C:43:A0:23:1A:E2:B3
                Signed Certificate Timestamp:
                    Version   : v1 (0x0)
                    Log ID    : CC:FB:0F:6A:85:71:09:65:FE:95:9B:53:CE:E9:B2:7C:
                                22:E9:85:5C:0D:97:8D:B6:A9:7E:54:C0:FE:4C:0D:B0
                    Timestamp : Oct  8 02:36:49.444 2024 GMT
                    Extensions: none
                    Signature : ecdsa-with-SHA256
                                30:45:02:21:00:FC:98:4C:7F:08:E5:18:82:96:33:07:
                                28:28:3C:CE:0B:9C:4C:DC:DF:8F:BC:B7:82:82:42:0E:
                                89:52:27:0C:C9:02:20:2B:BE:81:B9:E4:71:38:46:9D:
                                A4:5E:96:A8:3C:D4:54:0F:29:8F:28:8B:40:1B:2E:49:
                                BB:94:9D:F3:60:56:0D
    Signature Algorithm: sha256WithRSAEncryption
    Signature Value:
        54:b2:84:8c:92:a6:d3:1d:be:71:ab:13:4e:c7:4b:3c:99:3d:
        46:06:7c:f2:2d:29:de:78:88:6b:db:6a:9d:ff:38:fe:de:a4:
        1a:41:19:92:6b:83:ce:44:ce:1f:4d:99:ea:e0:25:ef:7d:62:
        70:79:a7:d1:78:ba:2d:a3:d4:fd:1d:e3:bd:7b:cd:fe:d5:63:
        12:39:cc:62:1c:8f:ac:9e:49:f8:5f:c6:15:ec:d3:bd:13:a3:
        fb:75:82:1d:41:d0:3b:f9:67:b9:94:56:4a:bf:a9:3c:ba:19:
        c3:e5:33:b4:5e:cb:28:df:fc:f0:95:fc:cb:3e:75:e1:76:ae:
        a5:aa:ae:6d:34:61:7f:68:3d:69:fc:ee:bc:99:ca:a1:1a:74:
        f3:79:dd:a2:33:cd:b5:78:98:f4:b5:e4:4d:f6:b3:5f:f5:c0:
        ed:cf:7c:a9:a5:fb:f2:1a:0a:08:34:68:99:d4:2f:02:07:df:
        66:f9:22:95:7f:c1:dd:ec:c0:f3:05:ec:91:6b:7f:1a:f0:02:
        32:2b:79:8f:98:5a:7e:c8:d2:3a:1f:19:82:d1:9b:b4:95:45:
        06:a2:44:32:44:c9:15:25:83:66:fc:1b:c0:99:33:27:62:af:
        77:55:1c:b9:65:69:2f:9f:f5:ea:12:14:22:e0:7b:a1:a3:bb:
        95:2e:2b:cd

-----BEGIN CERTIFICATE-----
MIIGpTCCBY2gAwIBAgIIToM0C4ybmIswDQYJKoZIhvcNAQELBQAwgbQxCzAJBgNV
BAYTAlVTMRAwDgYDVQQIEwdBcml6b25hMRMwEQYDVQQHEwpTY290dHNkYWxlMRow
GAYDVQQKExFHb0RhZGR5LmNvbSwgSW5jLjEtMCsGA1UECxMkaHR0cDovL2NlcnRz
LmdvZGFkZHkuY29tL3JlcG9zaXRvcnkvMTMwMQYDVQQDEypHbyBEYWRkeSBTZWN1
cmUgQ2VydGlmaWNhdGUgQXV0aG9yaXR5IC0gRzIwHhcNMjQxMDA4MDIzNjQ4WhcN
MjUxMTA5MDIzNjQ4WjAeMRwwGgYDVQQDExN0aW1iZXJmaXJlcGl6emEuY29tMIIB
IjANBgkqhkiG9w0BAQEFAAOCAQ8AMIIBCgKCAQEAx9cTcnYkh2tPCDyWn58M1v6U
W9QhigYJTZlkvxf5l0/DfafzwDLn446EMMUQ3ufc0bDKHYh5lZx/Do6maVbemUVy
r0xRyAaFCyVawosRhqoSo91c4Mt9L5OscIe7Msxodfw9q13RYwysFjOc8IkLylU4
bsPsjSLWTM6V3Fp3gEOUJLlvEyJUChPrWG4uuluLl10O9iRbWXdZ07zbv8xsmkxU
b5P9Xe5E9QG+EhvWbEPrbSvEZ5C1e7tuyMNAztMsyKfpkJQXofVAkPfAhSms6nzk
56A3OH37tz2Okv0DepHFwXccYIH2SZAdHkZcaT6CF+owZ/DBXNI32+z9vY5/UwID
AQABo4IDTjCCA0owDAYDVR0TAQH/BAIwADAdBgNVHSUEFjAUBggrBgEFBQcDAQYI
KwYBBQUHAwIwDgYDVR0PAQH/BAQDAgWgMDkGA1UdHwQyMDAwLqAsoCqGKGh0dHA6
Ly9jcmwuZ29kYWRkeS5jb20vZ2RpZzJzMS0zMTE5Mi5jcmwwXQYDVR0gBFYwVDBI
BgtghkgBhv1tAQcXATA5MDcGCCsGAQUFBwIBFitodHRwOi8vY2VydGlmaWNhdGVz
LmdvZGFkZHkuY29tL3JlcG9zaXRvcnkvMAgGBmeBDAECATB2BggrBgEFBQcBAQRq
MGgwJAYIKwYBBQUHMAGGGGh0dHA6Ly9vY3NwLmdvZGFkZHkuY29tLzBABggrBgEF
BQcwAoY0aHR0cDovL2NlcnRpZmljYXRlcy5nb2RhZGR5LmNvbS9yZXBvc2l0b3J5
L2dkaWcyLmNydDAfBgNVHSMEGDAWgBRAwr0njsw0gzCiM9f7bLPwtCyAzjA3BgNV
HREEMDAughN0aW1iZXJmaXJlcGl6emEuY29tghd3d3cudGltYmVyZmlyZXBpenph
LmNvbTAdBgNVHQ4EFgQUAOle8+2ysZLv5dtSwAx4hy/RWg0wggF+BgorBgEEAdZ5
AgQCBIIBbgSCAWoBaAB1ABLxTjS9U3JMhAYZw48/ehP457Vih4icbTAFhOvlhiY6
AAABkmn8goIAAAQDAEYwRAIgMmk9jZiDRuD6AqNfMl0qNKDpEGuZknoLJgGWpF0b
L9ACIFbpZV6wz1eufmP659Qu3xVhM7xz2JU53Kq2nf97/0EnAHcAfVkeEuF4Knsc
YWd8Xv340IdcFKBOlZ65Ay/ZDowuebgAAAGSafyDFgAABAMASDBGAiEA+HXu2ZJQ
0TUd67csaTN+wWPtxZWItYIo60si2XGeOnQCIQDZiD0Akr+EX6EoVSEYk3IETamW
wl8ChhApnEOgIxriswB2AMz7D2qFcQll/pWbU87psnwi6YVcDZeNtql+VMD+TA2w
AAABkmn8g6QAAAQDAEcwRQIhAPyYTH8I5RiCljMHKCg8zgucTNzfj7y3goJCDolS
JwzJAiArvoG55HE4Rp2kXpaoPNRUDymPKItAGy5Ju5Sd82BWDTANBgkqhkiG9w0B
AQsFAAOCAQEAVLKEjJKm0x2+casTTsdLPJk9RgZ88i0p3niIa9tqnf84/t6kGkEZ
kmuDzkTOH02Z6uAl731icHmn0Xi6LaPU/R3jvXvN/tVjEjnMYhyPrJ5J+F/GFezT
vROj+3WCHUHQO/lnuZRWSr+pPLoZw+UztF7LKN/88JX8yz514XaupaqubTRhf2g9
afzuvJnKoRp083ndojPNtXiY9LXkTfazX/XA7c98qaX78hoKCDRomdQvAgffZvki
lX/B3ezA8wXskWt/GvACMit5j5hafsjSOh8ZgtGbtJVFBqJEMkTJFSWDZvwbwJkz
J2Kvd1UcuWVpL5/16hIUIuB7oaO7lS4rzQ==
-----END CERTIFICATE-----

===========================================
Certificate1: 973a41276ffd01e027a2aad49e34c37846d3e976ff6a620b6712e33832041aa6
===========================================
Certificate:
    Data:
        Version: 3 (0x2)
        Serial Number: 7 (0x7)
        Signature Algorithm: sha256WithRSAEncryption
        Issuer: C=US, ST=Arizona, L=Scottsdale, O=GoDaddy.com, Inc., CN=Go Daddy Root Certificate Authority - G2
        Validity
            Not Before: May  3 07:00:00 2011 GMT
            Not After : May  3 07:00:00 2031 GMT
        Subject: C=US, ST=Arizona, L=Scottsdale, O=GoDaddy.com, Inc., OU=http://certs.godaddy.com/repository/, CN=Go Daddy Secure Certificate Authority - G2
        Subject Public Key Info:
            Public Key Algorithm: rsaEncryption
                Public-Key: (2048 bit)
                Modulus:
                    00:b9:e0:cb:10:d4:af:76:bd:d4:93:62:eb:30:64:
                    b8:81:08:6c:c3:04:d9:62:17:8e:2f:ff:3e:65:cf:
                    8f:ce:62:e6:3c:52:1c:da:16:45:4b:55:ab:78:6b:
                    63:83:62:90:ce:0f:69:6c:99:c8:1a:14:8b:4c:cc:
                    45:33:ea:88:dc:9e:a3:af:2b:fe:80:61:9d:79:57:
                    c4:cf:2e:f4:3f:30:3c:5d:47:fc:9a:16:bc:c3:37:
                    96:41:51:8e:11:4b:54:f8:28:be:d0:8c:be:f0:30:
                    38:1e:f3:b0:26:f8:66:47:63:6d:de:71:26:47:8f:
                    38:47:53:d1:46:1d:b4:e3:dc:00:ea:45:ac:bd:bc:
                    71:d9:aa:6f:00:db:db:cd:30:3a:79:4f:5f:4c:47:
                    f8:1d:ef:5b:c2:c4:9d:60:3b:b1:b2:43:91:d8:a4:
                    33:4e:ea:b3:d6:27:4f:ad:25:8a:a5:c6:f4:d5:d0:
                    a6:ae:74:05:64:57:88:b5:44:55:d4:2d:2a:3a:3e:
                    f8:b8:bd:e9:32:0a:02:94:64:c4:16:3a:50:f1:4a:
                    ae:e7:79:33:af:0c:20:07:7f:e8:df:04:39:c2:69:
                    02:6c:63:52:fa:77:c1:1b:c8:74:87:c8:b9:93:18:
                    50:54:35:4b:69:4e:bc:3b:d3:49:2e:1f:dc:c1:d2:
                    52:fb
                Exponent: 65537 (0x10001)
        X509v3 extensions:
            X509v3 Basic Constraints: critical
                CA:TRUE
            X509v3 Key Usage: critical
                Certificate Sign, CRL Sign
            X509v3 Subject Key Identifier: 
                40:C2:BD:27:8E:CC:34:83:30:A2:33:D7:FB:6C:B3:F0:B4:2C:80:CE
            X509v3 Authority Key Identifier: 
                3A:9A:85:07:10:67:28:B6:EF:F6:BD:05:41:6E:20:C1:94:DA:0F:DE
            Authority Information Access: 
                OCSP - URI:http://ocsp.godaddy.com/
            X509v3 CRL Distribution Points: 
                Full Name:
                  URI:http://crl.godaddy.com/gdroot-g2.crl
            X509v3 Certificate Policies: 
                Policy: X509v3 Any Policy
                  CPS: https://certs.godaddy.com/repository/
    Signature Algorithm: sha256WithRSAEncryption
    Signature Value:
        08:7e:6c:93:10:c8:38:b8:96:a9:90:4b:ff:a1:5f:4f:04:ef:
        6c:3e:9c:88:06:c9:50:8f:a6:73:f7:57:31:1b:be:bc:e4:2f:
        db:f8:ba:d3:5b:e0:b4:e7:e6:79:62:0e:0c:a2:d7:6a:63:73:
        31:b5:f5:a8:48:a4:3b:08:2d:a2:5d:90:d7:b4:7c:25:4f:11:
        56:30:c4:b6:44:9d:7b:2c:9d:e5:5e:e6:ef:0c:61:aa:bf:e4:
        2a:1b:ee:84:9e:b8:83:7d:c1:43:ce:44:a7:13:70:0d:91:1f:
        f4:c8:13:ad:83:60:d9:d8:72:a8:73:24:1e:b5:ac:22:0e:ca:
        17:89:62:58:44:1b:ab:89:25:01:00:0f:cd:c4:1b:62:db:51:
        b4:d3:0f:51:2a:9b:f4:bc:73:fc:76:ce:36:a4:cd:d9:d8:2c:
        ea:ae:9b:f5:2a:b2:90:d1:4d:75:18:8a:3f:8a:41:90:23:7d:
        5b:4b:fe:a4:03:58:9b:46:b2:c3:60:60:83:f8:7d:50:41:ce:
        c2:a1:90:c3:bb:ef:02:2f:d2:15:54:ee:44:15:d9:0a:ae:a7:
        8a:33:ed:b1:2d:76:36:26:dc:04:eb:9f:f7:61:1f:15:dc:87:
        6f:ee:46:96:28:ad:a1:26:7d:0a:09:a7:2e:04:a3:8d:bc:f8:
        bc:04:30:01

-----BEGIN CERTIFICATE-----
MIIE0DCCA7igAwIBAgIBBzANBgkqhkiG9w0BAQsFADCBgzELMAkGA1UEBhMCVVMx
EDAOBgNVBAgTB0FyaXpvbmExEzARBgNVBAcTClNjb3R0c2RhbGUxGjAYBgNVBAoT
EUdvRGFkZHkuY29tLCBJbmMuMTEwLwYDVQQDEyhHbyBEYWRkeSBSb290IENlcnRp
ZmljYXRlIEF1dGhvcml0eSAtIEcyMB4XDTExMDUwMzA3MDAwMFoXDTMxMDUwMzA3
MDAwMFowgbQxCzAJBgNVBAYTAlVTMRAwDgYDVQQIEwdBcml6b25hMRMwEQYDVQQH
EwpTY290dHNkYWxlMRowGAYDVQQKExFHb0RhZGR5LmNvbSwgSW5jLjEtMCsGA1UE
CxMkaHR0cDovL2NlcnRzLmdvZGFkZHkuY29tL3JlcG9zaXRvcnkvMTMwMQYDVQQD
EypHbyBEYWRkeSBTZWN1cmUgQ2VydGlmaWNhdGUgQXV0aG9yaXR5IC0gRzIwggEi
MA0GCSqGSIb3DQEBAQUAA4IBDwAwggEKAoIBAQC54MsQ1K92vdSTYuswZLiBCGzD
BNliF44v/z5lz4/OYuY8UhzaFkVLVat4a2ODYpDOD2lsmcgaFItMzEUz6ojcnqOv
K/6AYZ15V8TPLvQ/MDxdR/yaFrzDN5ZBUY4RS1T4KL7QjL7wMDge87Am+GZHY23e
cSZHjzhHU9FGHbTj3ADqRay9vHHZqm8A29vNMDp5T19MR/gd71vCxJ1gO7GyQ5HY
pDNO6rPWJ0+tJYqlxvTV0KaudAVkV4i1RFXULSo6Pvi4vekyCgKUZMQWOlDxSq7n
eTOvDCAHf+jfBDnCaQJsY1L6d8EbyHSHyLmTGFBUNUtpTrw700kuH9zB0lL7AgMB
AAGjggEaMIIBFjAPBgNVHRMBAf8EBTADAQH/MA4GA1UdDwEB/wQEAwIBBjAdBgNV
HQ4EFgQUQMK9J47MNIMwojPX+2yz8LQsgM4wHwYDVR0jBBgwFoAUOpqFBxBnKLbv
9r0FQW4gwZTaD94wNAYIKwYBBQUHAQEEKDAmMCQGCCsGAQUFBzABhhhodHRwOi8v
b2NzcC5nb2RhZGR5LmNvbS8wNQYDVR0fBC4wLDAqoCigJoYkaHR0cDovL2NybC5n
b2RhZGR5LmNvbS9nZHJvb3QtZzIuY3JsMEYGA1UdIAQ/MD0wOwYEVR0gADAzMDEG
CCsGAQUFBwIBFiVodHRwczovL2NlcnRzLmdvZGFkZHkuY29tL3JlcG9zaXRvcnkv
MA0GCSqGSIb3DQEBCwUAA4IBAQAIfmyTEMg4uJapkEv/oV9PBO9sPpyIBslQj6Zz
91cxG7685C/b+LrTW+C05+Z5Yg4MotdqY3MxtfWoSKQ7CC2iXZDXtHwlTxFWMMS2
RJ17LJ3lXubvDGGqv+QqG+6EnriDfcFDzkSnE3ANkR/0yBOtg2DZ2HKocyQetawi
DsoXiWJYRBuriSUBAA/NxBti21G00w9RKpv0vHP8ds42pM3Z2Czqrpv1KrKQ0U11
GIo/ikGQI31bS/6kA1ibRrLDYGCD+H1QQc7CoZDDu+8CL9IVVO5EFdkKrqeKM+2x
LXY2JtwE65/3YR8V3Idv7kaWKK2hJn0KCacuBKONvPi8BDAB
-----END CERTIFICATE-----
