===========================================
Certificate0: c74f724a594ff8156228aa8d5b06c2335c45bcc0381cf16deb7ec0330cb454a0
===========================================
Certificate:
    Data:
        Version: 3 (0x2)
        Serial Number:
            13:00:0f:ee:63:1b:df:c3:25:02:e3:e0:7e:a6:39:50
        Signature Algorithm: sha256WithRSAEncryption
        Issuer: C = GB, ST = Greater Manchester, L = Salford, O = Sectigo Limited, CN = Sectigo RSA Domain Validation Secure Server CA
        Validity
            Not Before: Apr 10 00:00:00 2023 GMT
            Not After : May 10 23:59:59 2024 GMT
        Subject: CN = horseweather.com
        Subject Public Key Info:
            Public Key Algorithm: rsaEncryption
                Public-Key: (2048 bit)
                Modulus:
                    00:b5:4f:7d:c0:1a:22:1c:a6:88:a0:85:01:3e:4a:
                    56:e3:3e:2a:f9:9c:f8:15:ce:6f:f7:44:74:00:41:
                    0f:d9:54:ce:7b:51:70:95:0c:9b:35:b1:68:b9:a6:
                    75:1a:28:93:4b:c9:64:9c:7e:ea:30:d4:4b:73:44:
                    62:fa:97:0d:5b:19:f6:6e:a3:44:b1:ea:67:7b:c6:
                    86:c6:1f:b8:1b:9b:ce:b1:9d:f7:f1:63:f4:63:03:
                    6b:07:72:f8:9c:f7:62:89:5d:15:2f:eb:ea:f8:18:
                    8f:55:1d:33:e7:2c:76:fd:3e:1a:16:fb:42:c1:02:
                    3a:03:82:f8:92:9a:a2:de:f1:8b:06:8e:cc:f9:ca:
                    1e:29:1c:48:7e:dc:0f:c1:5e:81:91:5c:36:eb:41:
                    1f:55:23:67:f2:b3:3b:10:73:fc:f0:48:2c:9e:8e:
                    1b:66:1e:52:38:09:0b:53:10:47:96:39:47:bb:81:
                    67:c4:4f:33:f2:74:19:c8:b5:16:0b:27:1e:d2:0e:
                    09:c7:4e:c5:e3:a8:8f:aa:00:1a:3c:9a:19:45:09:
                    c8:aa:74:e0:7e:a0:7f:e2:46:8e:27:42:d4:ee:80:
                    60:5d:e1:b4:fc:23:9d:cb:70:be:d6:5b:88:ee:15:
                    61:1d:f5:4b:8d:02:ae:2f:19:5c:20:fc:17:9f:fc:
                    5d:b9
                Exponent: 65537 (0x10001)
        X509v3 extensions:
            X509v3 Authority Key Identifier: 
                8D:8C:5E:C4:54:AD:8A:E1:77:E9:9B:F9:9B:05:E1:B8:01:8D:61:E1
            X509v3 Subject Key Identifier: 
                DE:B8:1F:8D:E5:9F:B7:B7:F7:B6:96:56:D3:F4:2F:58:30:4C:36:0D
            X509v3 Key Usage: critical
                Digital Signature, Key Encipherment
            X509v3 Basic Constraints: critical
                CA:FALSE
            X509v3 Extended Key Usage: 
                TLS Web Server Authentication, TLS Web Client Authentication
            X509v3 Certificate Policies: 
                Policy: 1.3.6.1.4.1.6449.1.2.2.7
                  CPS: https://sectigo.com/CPS
                Policy: 2.23.140.1.2.1
            Authority Information Access: 
                CA Issuers - URI:http://crt.sectigo.com/SectigoRSADomainValidationSecureServerCA.crt
                OCSP - URI:http://ocsp.sectigo.com
            X509v3 Subject Alternative Name: 
                DNS:horseweather.com, DNS:www.horseweather.com
            CT Precertificate SCTs: 
                Signed Certificate Timestamp:
                    Version   : v1 (0x0)
                    Log ID    : 76:FF:88:3F:0A:B6:FB:95:51:C2:61:CC:F5:87:BA:34:
                                B4:A4:CD:BB:29:DC:68:42:0A:9F:E6:67:4C:5A:3A:74
                    Timestamp : Apr 10 14:57:58.554 2023 GMT
                    Extensions: none
                    Signature : ecdsa-with-SHA256
                                30:44:02:20:2C:72:0F:4C:A5:E0:DE:BA:0F:50:D6:79:
                                57:BB:1E:4C:57:63:08:41:3E:CE:92:04:AF:1D:8B:43:
                                AC:D3:E0:A9:02:20:73:BD:5A:86:55:76:F4:84:E5:71:
                                CE:D4:3B:D4:2F:7F:9F:7F:E9:DB:10:8B:97:0B:A5:EC:
                                FB:B3:99:03:5A:DF
                Signed Certificate Timestamp:
                    Version   : v1 (0x0)
                    Log ID    : DA:B6:BF:6B:3F:B5:B6:22:9F:9B:C2:BB:5C:6B:E8:70:
                                91:71:6C:BB:51:84:85:34:BD:A4:3D:30:48:D7:FB:AB
                    Timestamp : Apr 10 14:57:58.648 2023 GMT
                    Extensions: none
                    Signature : ecdsa-with-SHA256
                                30:45:02:20:6A:FD:3F:78:6C:23:EE:5E:6D:6F:4C:67:
                                D5:22:B0:9A:CB:78:01:D2:24:79:DF:56:44:40:23:4E:
                                8B:CE:B9:10:02:21:00:E7:15:11:84:48:04:FC:2C:CD:
                                F1:88:4E:79:31:19:4B:DC:E0:B3:74:12:49:3C:DD:4E:
                                DB:E5:6D:D9:1B:B9:60
                Signed Certificate Timestamp:
                    Version   : v1 (0x0)
                    Log ID    : EE:CD:D0:64:D5:DB:1A:CE:C5:5C:B7:9D:B4:CD:13:A2:
                                32:87:46:7C:BC:EC:DE:C3:51:48:59:46:71:1F:B5:9B
                    Timestamp : Apr 10 14:57:58.679 2023 GMT
                    Extensions: none
                    Signature : ecdsa-with-SHA256
                                30:46:02:21:00:AF:8C:27:AC:66:5E:08:AC:BA:19:1D:
                                5A:CF:9A:F5:B8:28:A6:CC:9F:C4:99:45:59:10:2E:80:
                                17:BA:BA:B0:5E:02:21:00:CD:4E:51:2B:C6:12:73:4D:
                                7E:23:61:15:22:CB:08:CA:19:62:81:95:7E:31:08:B9:
                                64:F7:96:71:B0:1E:D2:A8
    Signature Algorithm: sha256WithRSAEncryption
    Signature Value:
        3b:67:4e:46:c0:7f:d6:2f:4e:64:63:80:21:e4:ea:af:46:06:
        e3:83:47:99:88:73:27:6c:96:ae:5e:eb:d3:36:60:4a:1d:b4:
        28:57:7d:07:df:40:e2:87:54:d3:dd:bc:5a:e4:e7:9b:f7:72:
        4b:c7:5f:5d:50:da:c6:c0:6a:0d:36:c3:f9:ff:db:b5:d2:71:
        84:b6:66:0a:15:31:46:79:39:0f:b2:bc:c0:91:8f:d6:03:ab:
        10:7d:ea:7e:59:16:13:6c:3a:47:55:12:8b:c5:4a:1f:21:bc:
        00:f1:a1:0a:0e:e5:e8:b5:af:38:47:78:44:e9:ab:d9:0c:94:
        a1:af:a1:2c:18:5a:15:00:e1:4e:9f:c5:06:88:87:41:25:e7:
        92:bf:9e:ee:66:93:88:4d:15:ae:c5:d8:1b:c4:58:e1:3c:fd:
        12:bc:8e:44:fa:74:4b:a3:37:bd:7d:49:f9:3e:90:a7:bd:2e:
        dc:3d:24:5d:5b:9f:47:3e:6c:3a:7d:17:ab:dc:3b:3c:53:f1:
        ac:39:1b:74:51:a9:47:08:d2:af:c1:0c:5b:d3:4c:ed:85:97:
        5a:d6:75:1e:d7:d5:69:50:e3:1e:bd:26:cf:b9:94:1a:fb:74:
        0b:ac:18:48:6b:61:10:6a:4e:89:6e:b5:c6:eb:c3:90:64:ee:
        38:5d:18:17

-----BEGIN CERTIFICATE-----
MIIGPzCCBSegAwIBAgIQEwAP7mMb38MlAuPgfqY5UDANBgkqhkiG9w0BAQsFADCB
jzELMAkGA1UEBhMCR0IxGzAZBgNVBAgTEkdyZWF0ZXIgTWFuY2hlc3RlcjEQMA4G
A1UEBxMHU2FsZm9yZDEYMBYGA1UEChMPU2VjdGlnbyBMaW1pdGVkMTcwNQYDVQQD
Ey5TZWN0aWdvIFJTQSBEb21haW4gVmFsaWRhdGlvbiBTZWN1cmUgU2VydmVyIENB
MB4XDTIzMDQxMDAwMDAwMFoXDTI0MDUxMDIzNTk1OVowGzEZMBcGA1UEAxMQaG9y
c2V3ZWF0aGVyLmNvbTCCASIwDQYJKoZIhvcNAQEBBQADggEPADCCAQoCggEBALVP
fcAaIhymiKCFAT5KVuM+Kvmc+BXOb/dEdABBD9lUzntRcJUMmzWxaLmmdRook0vJ
ZJx+6jDUS3NEYvqXDVsZ9m6jRLHqZ3vGhsYfuBubzrGd9/Fj9GMDawdy+Jz3Yold
FS/r6vgYj1UdM+csdv0+Ghb7QsECOgOC+JKaot7xiwaOzPnKHikcSH7cD8FegZFc
NutBH1UjZ/KzOxBz/PBILJ6OG2YeUjgJC1MQR5Y5R7uBZ8RPM/J0Gci1FgsnHtIO
CcdOxeOoj6oAGjyaGUUJyKp04H6gf+JGjidC1O6AYF3htPwjnctwvtZbiO4VYR31
S40Cri8ZXCD8F5/8XbkCAwEAAaOCAwgwggMEMB8GA1UdIwQYMBaAFI2MXsRUrYrh
d+mb+ZsF4bgBjWHhMB0GA1UdDgQWBBTeuB+N5Z+3t/e2llbT9C9YMEw2DTAOBgNV
HQ8BAf8EBAMCBaAwDAYDVR0TAQH/BAIwADAdBgNVHSUEFjAUBggrBgEFBQcDAQYI
KwYBBQUHAwIwSQYDVR0gBEIwQDA0BgsrBgEEAbIxAQICBzAlMCMGCCsGAQUFBwIB
FhdodHRwczovL3NlY3RpZ28uY29tL0NQUzAIBgZngQwBAgEwgYQGCCsGAQUFBwEB
BHgwdjBPBggrBgEFBQcwAoZDaHR0cDovL2NydC5zZWN0aWdvLmNvbS9TZWN0aWdv
UlNBRG9tYWluVmFsaWRhdGlvblNlY3VyZVNlcnZlckNBLmNydDAjBggrBgEFBQcw
AYYXaHR0cDovL29jc3Auc2VjdGlnby5jb20wMQYDVR0RBCowKIIQaG9yc2V3ZWF0
aGVyLmNvbYIUd3d3LmhvcnNld2VhdGhlci5jb20wggF+BgorBgEEAdZ5AgQCBIIB
bgSCAWoBaAB1AHb/iD8KtvuVUcJhzPWHujS0pM27KdxoQgqf5mdMWjp0AAABh2us
exoAAAQDAEYwRAIgLHIPTKXg3roPUNZ5V7seTFdjCEE+zpIErx2LQ6zT4KkCIHO9
WoZVdvSE5XHO1DvUL3+ff+nbEIuXC6Xs+7OZA1rfAHYA2ra/az+1tiKfm8K7XGvo
cJFxbLtRhIU0vaQ9MEjX+6sAAAGHa6x7eAAABAMARzBFAiBq/T94bCPuXm1vTGfV
IrCay3gB0iR531ZEQCNOi865EAIhAOcVEYRIBPwszfGITnkxGUvc4LN0Ekk83U7b
5W3ZG7lgAHcA7s3QZNXbGs7FXLedtM0TojKHRny87N7DUUhZRnEftZsAAAGHa6x7
lwAABAMASDBGAiEAr4wnrGZeCKy6GR1az5r1uCimzJ/EmUVZEC6AF7q6sF4CIQDN
TlErxhJzTX4jYRUiywjKGWKBlX4xCLlk95ZxsB7SqDANBgkqhkiG9w0BAQsFAAOC
AQEAO2dORsB/1i9OZGOAIeTqr0YG44NHmYhzJ2yWrl7r0zZgSh20KFd9B99A4odU
0928WuTnm/dyS8dfXVDaxsBqDTbD+f/btdJxhLZmChUxRnk5D7K8wJGP1gOrEH3q
flkWE2w6R1USi8VKHyG8APGhCg7l6LWvOEd4ROmr2QyUoa+hLBhaFQDhTp/FBoiH
QSXnkr+e7maTiE0VrsXYG8RY4Tz9EryORPp0S6M3vX1J+T6Qp70u3D0kXVufRz5s
On0Xq9w7PFPxrDkbdFGpRwjSr8EMW9NM7YWXWtZ1HtfVaVDjHr0mz7mUGvt0C6wY
SGthEGpOiW61xuvDkGTuOF0YFw==
-----END CERTIFICATE-----

===========================================
Certificate1: 7fa4ff68ec04a99d7528d5085f94907f4d1dd1c5381bacdc832ed5c960214676
===========================================
Certificate:
    Data:
        Version: 3 (0x2)
        Serial Number:
            7d:5b:51:26:b4:76:ba:11:db:74:16:0b:bc:53:0d:a7
        Signature Algorithm: sha384WithRSAEncryption
        Issuer: C = US, ST = New Jersey, L = Jersey City, O = The USERTRUST Network, CN = USERTrust RSA Certification Authority
        Validity
            Not Before: Nov  2 00:00:00 2018 GMT
            Not After : Dec 31 23:59:59 2030 GMT
        Subject: C = GB, ST = Greater Manchester, L = Salford, O = Sectigo Limited, CN = Sectigo RSA Domain Validation Secure Server CA
        Subject Public Key Info:
            Public Key Algorithm: rsaEncryption
                Public-Key: (2048 bit)
                Modulus:
                    00:d6:73:33:d6:d7:3c:20:d0:00:d2:17:45:b8:d6:
                    3e:07:a2:3f:c7:41:ee:32:30:c9:b0:6c:fd:f4:9f:
                    cb:12:98:0f:2d:3f:8d:4d:01:0c:82:0f:17:7f:62:
                    2e:e9:b8:48:79:fb:16:83:4e:ad:d7:32:25:93:b7:
                    07:bf:b9:50:3f:a9:4c:c3:40:2a:e9:39:ff:d9:81:
                    ca:1f:16:32:41:da:80:26:b9:23:7a:87:20:1e:e3:
                    ff:20:9a:3c:95:44:6f:87:75:06:90:40:b4:32:93:
                    16:09:10:08:23:3e:d2:dd:87:0f:6f:5d:51:14:6a:
                    0a:69:c5:4f:01:72:69:cf:d3:93:4c:6d:04:a0:a3:
                    1b:82:7e:b1:9a:b9:ed:c5:9e:c5:37:78:9f:9a:08:
                    34:fb:56:2e:58:c4:09:0e:06:64:5b:bc:37:dc:f1:
                    9f:28:68:a8:56:b0:92:a3:5c:9f:bb:88:98:08:1b:
                    24:1d:ab:30:85:ae:af:b0:2e:9e:7a:9d:c1:c0:42:
                    1c:e2:02:f0:ea:e0:4a:d2:ef:90:0e:b4:c1:40:16:
                    f0:6f:85:42:4a:64:f7:a4:30:a0:fe:bf:2e:a3:27:
                    5a:8e:8b:58:b8:ad:c3:19:17:84:63:ed:6f:56:fd:
                    83:cb:60:34:c4:74:be:e6:9d:db:e1:e4:e5:ca:0c:
                    5f:15
                Exponent: 65537 (0x10001)
        X509v3 extensions:
            X509v3 Authority Key Identifier: 
                53:79:BF:5A:AA:2B:4A:CF:54:80:E1:D8:9B:C0:9D:F2:B2:03:66:CB
            X509v3 Subject Key Identifier: 
                8D:8C:5E:C4:54:AD:8A:E1:77:E9:9B:F9:9B:05:E1:B8:01:8D:61:E1
            X509v3 Key Usage: critical
                Digital Signature, Certificate Sign, CRL Sign
            X509v3 Basic Constraints: critical
                CA:TRUE, pathlen:0
            X509v3 Extended Key Usage: 
                TLS Web Server Authentication, TLS Web Client Authentication
            X509v3 Certificate Policies: 
                Policy: X509v3 Any Policy
                Policy: 2.23.140.1.2.1
            X509v3 CRL Distribution Points: 
                Full Name:
                  URI:http://crl.usertrust.com/USERTrustRSACertificationAuthority.crl
            Authority Information Access: 
                CA Issuers - URI:http://crt.usertrust.com/USERTrustRSAAddTrustCA.crt
                OCSP - URI:http://ocsp.usertrust.com
    Signature Algorithm: sha384WithRSAEncryption
    Signature Value:
        32:bf:61:bd:0e:48:c3:4f:c7:ba:47:4d:f8:9c:78:19:01:dc:
        13:1d:80:6f:fc:c3:70:b4:52:9a:31:33:9a:57:52:fb:31:9e:
        6b:a4:ef:54:aa:89:8d:40:17:68:f8:11:10:7c:d2:ca:b1:f1:
        55:86:c7:ee:b3:36:91:86:f6:39:51:bf:46:bf:0f:a0:ba:b4:
        f7:7e:49:c4:2a:36:17:9e:e4:68:39:7a:af:94:4e:56:6f:b2:
        7b:3b:bf:0a:86:bd:cd:c5:77:1c:03:b8:38:b1:a2:1f:5f:7e:
        db:8a:dc:46:48:b6:68:0a:cf:b2:b5:b4:e2:34:e4:67:a9:38:
        66:09:5e:d2:b8:fc:9d:28:3a:17:40:27:c2:72:4e:29:fd:21:
        3c:7c:cf:13:fb:96:2c:c5:31:44:fd:13:ed:d5:9b:a9:69:68:
        77:7c:ee:e1:ff:a4:f9:36:38:08:53:39:a2:84:34:9c:19:f3:
        be:0e:ac:d5:24:37:eb:23:a8:78:d0:d3:e7:ef:92:47:64:62:
        39:22:ef:c6:f7:11:be:22:85:c6:66:44:24:26:8e:10:32:8d:
        c8:93:ae:07:9e:83:3e:2f:d9:f9:f5:46:8e:63:be:c1:e6:b4:
        dc:a6:cd:21:a8:86:0a:95:d9:2e:85:26:1a:fd:fc:b1:b6:57:
        42:6d:95:d1:33:f6:39:14:06:82:41:38:f5:8f:58:dc:80:5b:
        a4:d5:7d:95:78:fd:a7:9b:ff:fd:c5:a8:69:ab:26:e7:a7:a4:
        05:87:5b:a9:b7:b8:a3:20:0b:97:a9:45:85:dd:b3:8b:e5:89:
        37:8e:29:0d:fc:06:17:f6:38:40:0e:42:e4:12:06:fb:7b:f3:
        c6:11:68:62:df:e3:98:f4:13:d8:15:4f:8b:b1:69:d9:10:60:
        bc:64:2a:ea:31:b7:e4:b5:a3:3a:14:9b:26:e3:0b:7b:fd:02:
        8e:b6:99:c1:38:97:59:36:f6:a8:74:a2:86:b6:5e:eb:c6:64:
        ea:cf:a0:a3:f9:6e:9e:ba:2d:11:b6:86:98:08:58:2d:c9:ac:
        25:64:f2:5e:75:b4:38:c1:ae:7f:5a:46:83:ea:51:ca:b6:f1:
        99:11:35:6b:a5:6a:7b:c6:00:b0:e7:f8:be:64:b2:ad:c8:c2:
        f1:ac:e3:51:ea:a4:93:e0:79:c8:e1:81:40:c9:0a:5b:e1:12:
        3c:c1:60:2a:e3:97:c0:89:42:ca:94:cf:46:98:12:69:bb:98:
        d0:c2:d3:0d:72:4b:47:6e:e5:93:c4:32:28:63:87:43:e4:b0:
        32:3e:0a:d3:4b:bf:23:9b:14:29:41:2b:9a:04:1f:93:2d:f1:
        c7:39:48:3c:ad:5a:12:7f

-----BEGIN CERTIFICATE-----
MIIGEzCCA/ugAwIBAgIQfVtRJrR2uhHbdBYLvFMNpzANBgkqhkiG9w0BAQwFADCB
iDELMAkGA1UEBhMCVVMxEzARBgNVBAgTCk5ldyBKZXJzZXkxFDASBgNVBAcTC0pl
cnNleSBDaXR5MR4wHAYDVQQKExVUaGUgVVNFUlRSVVNUIE5ldHdvcmsxLjAsBgNV
BAMTJVVTRVJUcnVzdCBSU0EgQ2VydGlmaWNhdGlvbiBBdXRob3JpdHkwHhcNMTgx
MTAyMDAwMDAwWhcNMzAxMjMxMjM1OTU5WjCBjzELMAkGA1UEBhMCR0IxGzAZBgNV
BAgTEkdyZWF0ZXIgTWFuY2hlc3RlcjEQMA4GA1UEBxMHU2FsZm9yZDEYMBYGA1UE
ChMPU2VjdGlnbyBMaW1pdGVkMTcwNQYDVQQDEy5TZWN0aWdvIFJTQSBEb21haW4g
VmFsaWRhdGlvbiBTZWN1cmUgU2VydmVyIENBMIIBIjANBgkqhkiG9w0BAQEFAAOC
AQ8AMIIBCgKCAQEA1nMz1tc8INAA0hdFuNY+B6I/x0HuMjDJsGz99J/LEpgPLT+N
TQEMgg8Xf2Iu6bhIefsWg06t1zIlk7cHv7lQP6lMw0Aq6Tn/2YHKHxYyQdqAJrkj
eocgHuP/IJo8lURvh3UGkEC0MpMWCRAIIz7S3YcPb11RFGoKacVPAXJpz9OTTG0E
oKMbgn6xmrntxZ7FN3ifmgg0+1YuWMQJDgZkW7w33PGfKGioVrCSo1yfu4iYCBsk
Haswha6vsC6eep3BwEIc4gLw6uBK0u+QDrTBQBbwb4VCSmT3pDCg/r8uoydajotY
uK3DGReEY+1vVv2Dy2A0xHS+5p3b4eTlygxfFQIDAQABo4IBbjCCAWowHwYDVR0j
BBgwFoAUU3m/WqorSs9UgOHYm8Cd8rIDZsswHQYDVR0OBBYEFI2MXsRUrYrhd+mb
+ZsF4bgBjWHhMA4GA1UdDwEB/wQEAwIBhjASBgNVHRMBAf8ECDAGAQH/AgEAMB0G
A1UdJQQWMBQGCCsGAQUFBwMBBggrBgEFBQcDAjAbBgNVHSAEFDASMAYGBFUdIAAw
CAYGZ4EMAQIBMFAGA1UdHwRJMEcwRaBDoEGGP2h0dHA6Ly9jcmwudXNlcnRydXN0
LmNvbS9VU0VSVHJ1c3RSU0FDZXJ0aWZpY2F0aW9uQXV0aG9yaXR5LmNybDB2Bggr
BgEFBQcBAQRqMGgwPwYIKwYBBQUHMAKGM2h0dHA6Ly9jcnQudXNlcnRydXN0LmNv
bS9VU0VSVHJ1c3RSU0FBZGRUcnVzdENBLmNydDAlBggrBgEFBQcwAYYZaHR0cDov
L29jc3AudXNlcnRydXN0LmNvbTANBgkqhkiG9w0BAQwFAAOCAgEAMr9hvQ5Iw0/H
ukdN+Jx4GQHcEx2Ab/zDcLRSmjEzmldS+zGea6TvVKqJjUAXaPgREHzSyrHxVYbH
7rM2kYb2OVG/Rr8PoLq0935JxCo2F57kaDl6r5ROVm+yezu/Coa9zcV3HAO4OLGi
H19+24rcRki2aArPsrW04jTkZ6k4Zgle0rj8nSg6F0AnwnJOKf0hPHzPE/uWLMUx
RP0T7dWbqWlod3zu4f+k+TY4CFM5ooQ0nBnzvg6s1SQ36yOoeNDT5++SR2RiOSLv
xvcRviKFxmZEJCaOEDKNyJOuB56DPi/Z+fVGjmO+wea03KbNIaiGCpXZLoUmGv38
sbZXQm2V0TP2ORQGgkE49Y9Y3IBbpNV9lXj9p5v//cWoaasm56ekBYdbqbe4oyAL
l6lFhd2zi+WJN44pDfwGF/Y4QA5C5BIG+3vzxhFoYt/jmPQT2BVPi7Fp2RBgvGQq
6jG35LWjOhSbJuMLe/0CjraZwTiXWTb2qHSihrZe68Zk6s+go/lunrotEbaGmAhY
LcmsJWTyXnW0OMGuf1pGg+pRyrbxmRE1a6Vqe8YAsOf4vmSyrcjC8azjUeqkk+B5
yOGBQMkKW+ESPMFgKuOXwIlCypTPRpgSabuY0MLTDXJLR27lk8QyKGOHQ+SwMj4K
00u/I5sUKUErmgQfky3xxzlIPK1aEn8=
-----END CERTIFICATE-----

