===========================================
Certificate0: e6643eb028dd3b0a4c332d1a8770848bc88ed15d9e64c087f9dab04bc02f82bd
===========================================
Certificate:
    Data:
        Version: 3 (0x2)
        Serial Number:
            2d:08:d4:77:70:9c:f0:4c:d3:f0:96:04:e4:28:14:7b
        Signature Algorithm: sha256WithRSAEncryption
        Issuer: C = GB, ST = Greater Manchester, L = Salford, O = Sectigo Limited, CN = Sectigo RSA Domain Validation Secure Server CA
        Validity
            Not Before: Apr 10 00:00:00 2024 GMT
            Not After : May 11 23:59:59 2025 GMT
        Subject: CN = *.chickentools.org
        Subject Public Key Info:
            Public Key Algorithm: rsaEncryption
                Public-Key: (2048 bit)
                Modulus:
                    00:b2:18:78:ac:62:a2:dc:de:3a:44:d1:ad:37:19:
                    47:e3:54:d1:2e:ef:54:97:f6:59:4a:55:97:53:2f:
                    9d:41:1c:f3:9e:50:b7:83:d6:56:05:fb:78:95:f3:
                    8c:f3:b2:c0:75:61:92:74:20:da:cb:2b:a1:3a:ab:
                    21:03:1d:77:af:74:42:bc:b0:d4:82:7f:d7:0c:77:
                    1f:2f:3e:ca:c3:83:8c:c5:3d:55:91:4c:6d:06:b4:
                    5d:fa:6a:f8:ce:6a:48:2f:a2:03:2a:d9:61:96:4f:
                    b2:9a:93:ba:35:d2:8d:5f:f5:ed:41:7e:3b:6b:0d:
                    e2:3c:c6:b1:08:a1:5e:e9:24:a0:c0:ef:e8:2a:6b:
                    a3:a8:a0:8e:9f:f6:45:03:39:7b:d8:94:3c:f0:3c:
                    9e:67:fd:b8:ac:08:3a:36:22:d3:f0:73:29:e3:7d:
                    f8:f0:ad:98:39:6c:2a:f3:50:06:0e:37:f7:24:46:
                    f7:67:66:6d:ba:62:21:70:a7:29:bc:02:b2:1b:f9:
                    40:75:2e:39:0f:d6:8f:a6:81:b2:51:de:2d:15:34:
                    dd:8e:4e:d1:4b:09:71:4a:3c:44:8d:9d:4f:1b:a1:
                    ff:24:4e:f9:d7:a4:df:db:dc:dc:63:9c:64:74:47:
                    5b:91:70:03:4b:dd:5e:4a:20:f4:2f:80:fc:d1:e8:
                    4c:a9
                Exponent: 65537 (0x10001)
        X509v3 extensions:
            X509v3 Authority Key Identifier: 
                8D:8C:5E:C4:54:AD:8A:E1:77:E9:9B:F9:9B:05:E1:B8:01:8D:61:E1
            X509v3 Subject Key Identifier: 
                D3:33:20:76:53:F5:2A:26:22:F1:86:B7:DF:32:01:2D:58:B8:2E:B0
            X509v3 Key Usage: critical
                Digital Signature, Key Encipherment
            X509v3 Basic Constraints: critical
                CA:FALSE
            X509v3 Extended Key Usage: 
                TLS Web Server Authentication, TLS Web Client Authentication
            X509v3 Certificate Policies: 
                Policy: 1.3.6.1.4.1.6449.1.2.2.7
                  CPS: https://sectigo.com/CPS
                Policy: 2.23.140.1.2.1
            Authority Information Access: 
                CA Issuers - URI:http://crt.sectigo.com/SectigoRSADomainValidationSecureServerCA.crt
                OCSP - URI:http://ocsp.sectigo.com
            X509v3 Subject Alternative Name: 
                DNS:*.chickentools.org, DNS:chickentools.org
            CT Precertificate SCTs: 
                Signed Certificate Timestamp:
                    Version   : v1 (0x0)
                    Log ID    : CF:11:56:EE:D5:2E:7C:AF:F3:87:5B:D9:69:2E:9B:E9:
                                1A:71:67:4A:B0:17:EC:AC:01:D2:5B:77:CE:CC:3B:08
                    Timestamp : Apr 10 08:15:25.571 2024 GMT
                    Extensions: none
                    Signature : ecdsa-with-SHA256
                                30:45:02:20:1E:3F:A8:1B:80:FB:A8:40:E4:56:B6:D3:
                                F2:7C:93:2A:55:35:06:CB:55:86:CC:E2:F8:30:9C:1E:
                                6F:12:9E:64:02:21:00:DE:07:F3:49:7F:68:EC:A4:96:
                                68:49:9C:56:2C:E8:E3:0C:BF:08:28:B7:9E:29:65:BB:
                                37:A6:51:FA:2F:04:D5
                Signed Certificate Timestamp:
                    Version   : v1 (0x0)
                    Log ID    : A2:E3:0A:E4:45:EF:BD:AD:9B:7E:38:ED:47:67:77:53:
                                D7:82:5B:84:94:D7:2B:5E:1B:2C:C4:B9:50:A4:47:E7
                    Timestamp : Apr 10 08:15:25.506 2024 GMT
                    Extensions: none
                    Signature : ecdsa-with-SHA256
                                30:45:02:21:00:A6:B9:D2:6F:E8:3E:B1:76:12:EB:0C:
                                E2:6E:CD:5E:74:44:13:40:76:28:72:CC:5B:58:AC:AD:
                                5D:10:2A:1B:77:02:20:37:F8:8E:FD:42:2E:8B:D3:2D:
                                CA:4D:36:48:F2:70:DB:FD:1F:71:5D:25:0B:8B:72:07:
                                8B:7D:15:E8:83:DF:9D
                Signed Certificate Timestamp:
                    Version   : v1 (0x0)
                    Log ID    : 4E:75:A3:27:5C:9A:10:C3:38:5B:6C:D4:DF:3F:52:EB:
                                1D:F0:E0:8E:1B:8D:69:C0:B1:FA:64:B1:62:9A:39:DF
                    Timestamp : Apr 10 08:15:25.459 2024 GMT
                    Extensions: none
                    Signature : ecdsa-with-SHA256
                                30:45:02:21:00:D1:71:1F:3B:20:28:93:22:D6:C3:8B:
                                A1:9B:DB:B3:91:89:52:02:5F:FE:58:11:9A:E2:05:0E:
                                2A:D0:A1:6F:C8:02:20:19:12:C7:27:EB:CA:30:99:A1:
                                13:12:DC:8C:48:CF:B8:11:41:C4:A4:0E:5E:C6:D3:51:
                                15:A4:C0:7E:FA:2E:FE
    Signature Algorithm: sha256WithRSAEncryption
    Signature Value:
        5a:a9:cb:0e:0b:a4:16:c1:5b:9c:3a:a2:6d:aa:3f:92:e1:d6:
        42:19:db:d3:5e:a8:a4:29:f4:cd:19:af:2e:ee:8c:d6:34:78:
        99:c0:66:03:54:37:76:ce:67:f1:8a:b7:80:28:cd:24:b5:97:
        a8:56:c7:a9:fe:cc:b4:43:9a:83:8c:1e:65:66:0a:e8:aa:99:
        10:2a:63:46:59:35:1e:c6:1c:31:78:74:d4:fa:2f:d7:43:09:
        18:b8:96:4e:4c:55:5c:88:36:99:bb:b8:a2:8f:3d:77:f9:31:
        25:19:ac:60:f7:b4:11:49:d9:04:e4:fd:a6:3c:6c:ed:dd:95:
        92:54:ff:83:75:5a:f4:8c:9c:80:c2:e3:30:22:ea:dd:3a:49:
        3d:db:86:c4:c2:fa:d0:06:9d:59:4f:5d:24:44:3b:cf:d0:57:
        7d:a4:cc:58:f6:fc:80:f9:9e:9e:5c:ec:25:7c:4b:bf:da:6d:
        08:99:59:34:16:60:c8:03:7f:dd:f8:5c:df:4c:85:c9:9a:2a:
        5b:8a:95:de:5d:0d:1d:90:40:f0:61:57:cc:7f:17:6e:0a:be:
        8d:43:64:7e:e4:86:fc:8d:af:af:cc:bc:f2:90:f8:da:6a:68:
        c1:cc:1d:1f:76:7c:1c:52:58:7b:c8:29:18:1c:42:2e:ca:41:
        99:17:eb:0c

-----BEGIN CERTIFICATE-----
MIIGPzCCBSegAwIBAgIQLQjUd3Cc8EzT8JYE5CgUezANBgkqhkiG9w0BAQsFADCB
jzELMAkGA1UEBhMCR0IxGzAZBgNVBAgTEkdyZWF0ZXIgTWFuY2hlc3RlcjEQMA4G
A1UEBxMHU2FsZm9yZDEYMBYGA1UEChMPU2VjdGlnbyBMaW1pdGVkMTcwNQYDVQQD
Ey5TZWN0aWdvIFJTQSBEb21haW4gVmFsaWRhdGlvbiBTZWN1cmUgU2VydmVyIENB
MB4XDTI0MDQxMDAwMDAwMFoXDTI1MDUxMTIzNTk1OVowHTEbMBkGA1UEAwwSKi5j
aGlja2VudG9vbHMub3JnMIIBIjANBgkqhkiG9w0BAQEFAAOCAQ8AMIIBCgKCAQEA
shh4rGKi3N46RNGtNxlH41TRLu9Ul/ZZSlWXUy+dQRzznlC3g9ZWBft4lfOM87LA
dWGSdCDayyuhOqshAx13r3RCvLDUgn/XDHcfLz7Kw4OMxT1VkUxtBrRd+mr4zmpI
L6IDKtlhlk+ympO6NdKNX/XtQX47aw3iPMaxCKFe6SSgwO/oKmujqKCOn/ZFAzl7
2JQ88DyeZ/24rAg6NiLT8HMp43348K2YOWwq81AGDjf3JEb3Z2ZtumIhcKcpvAKy
G/lAdS45D9aPpoGyUd4tFTTdjk7RSwlxSjxEjZ1PG6H/JE7516Tf29zcY5xkdEdb
kXADS91eSiD0L4D80ehMqQIDAQABo4IDBjCCAwIwHwYDVR0jBBgwFoAUjYxexFSt
iuF36Zv5mwXhuAGNYeEwHQYDVR0OBBYEFNMzIHZT9SomIvGGt98yAS1YuC6wMA4G
A1UdDwEB/wQEAwIFoDAMBgNVHRMBAf8EAjAAMB0GA1UdJQQWMBQGCCsGAQUFBwMB
BggrBgEFBQcDAjBJBgNVHSAEQjBAMDQGCysGAQQBsjEBAgIHMCUwIwYIKwYBBQUH
AgEWF2h0dHBzOi8vc2VjdGlnby5jb20vQ1BTMAgGBmeBDAECATCBhAYIKwYBBQUH
AQEEeDB2ME8GCCsGAQUFBzAChkNodHRwOi8vY3J0LnNlY3RpZ28uY29tL1NlY3Rp
Z29SU0FEb21haW5WYWxpZGF0aW9uU2VjdXJlU2VydmVyQ0EuY3J0MCMGCCsGAQUF
BzABhhdodHRwOi8vb2NzcC5zZWN0aWdvLmNvbTAvBgNVHREEKDAmghIqLmNoaWNr
ZW50b29scy5vcmeCEGNoaWNrZW50b29scy5vcmcwggF+BgorBgEEAdZ5AgQCBIIB
bgSCAWoBaAB2AM8RVu7VLnyv84db2Wkum+kacWdKsBfsrAHSW3fOzDsIAAABjscT
d4MAAAQDAEcwRQIgHj+oG4D7qEDkVrbT8nyTKlU1BstVhszi+DCcHm8SnmQCIQDe
B/NJf2jspJZoSZxWLOjjDL8IKLeeKWW7N6ZR+i8E1QB2AKLjCuRF772tm3447Udn
d1PXgluElNcrXhssxLlQpEfnAAABjscTd0IAAAQDAEcwRQIhAKa50m/oPrF2EusM
4m7NXnREE0B2KHLMW1isrV0QKht3AiA3+I79Qi6L0y3KTTZI8nDb/R9xXSULi3IH
i30V6IPfnQB2AE51oydcmhDDOFts1N8/Uusd8OCOG41pwLH6ZLFimjnfAAABjscT
dxMAAAQDAEcwRQIhANFxHzsgKJMi1sOLoZvbs5GJUgJf/lgRmuIFDirQoW/IAiAZ
Escn68owmaETEtyMSM+4EUHEpA5extNRFaTAfvou/jANBgkqhkiG9w0BAQsFAAOC
AQEAWqnLDgukFsFbnDqibao/kuHWQhnb016opCn0zRmvLu6M1jR4mcBmA1Q3ds5n
8Yq3gCjNJLWXqFbHqf7MtEOag4weZWYK6KqZECpjRlk1HsYcMXh01Pov10MJGLiW
TkxVXIg2mbu4oo89d/kxJRmsYPe0EUnZBOT9pjxs7d2VklT/g3Va9IycgMLjMCLq
3TpJPduGxML60AadWU9dJEQ7z9BXfaTMWPb8gPmenlzsJXxLv9ptCJlZNBZgyAN/
3fhc30yFyZoqW4qV3l0NHZBA8GFXzH8Xbgq+jUNkfuSG/I2vr8y88pD42mpowcwd
H3Z8HFJYe8gpGBxCLspBmRfrDA==
-----END CERTIFICATE-----

===========================================
Certificate1: 7fa4ff68ec04a99d7528d5085f94907f4d1dd1c5381bacdc832ed5c960214676
===========================================
Certificate:
    Data:
        Version: 3 (0x2)
        Serial Number:
            7d:5b:51:26:b4:76:ba:11:db:74:16:0b:bc:53:0d:a7
        Signature Algorithm: sha384WithRSAEncryption
        Issuer: C = US, ST = New Jersey, L = Jersey City, O = The USERTRUST Network, CN = USERTrust RSA Certification Authority
        Validity
            Not Before: Nov  2 00:00:00 2018 GMT
            Not After : Dec 31 23:59:59 2030 GMT
        Subject: C = GB, ST = Greater Manchester, L = Salford, O = Sectigo Limited, CN = Sectigo RSA Domain Validation Secure Server CA
        Subject Public Key Info:
            Public Key Algorithm: rsaEncryption
                Public-Key: (2048 bit)
                Modulus:
                    00:d6:73:33:d6:d7:3c:20:d0:00:d2:17:45:b8:d6:
                    3e:07:a2:3f:c7:41:ee:32:30:c9:b0:6c:fd:f4:9f:
                    cb:12:98:0f:2d:3f:8d:4d:01:0c:82:0f:17:7f:62:
                    2e:e9:b8:48:79:fb:16:83:4e:ad:d7:32:25:93:b7:
                    07:bf:b9:50:3f:a9:4c:c3:40:2a:e9:39:ff:d9:81:
                    ca:1f:16:32:41:da:80:26:b9:23:7a:87:20:1e:e3:
                    ff:20:9a:3c:95:44:6f:87:75:06:90:40:b4:32:93:
                    16:09:10:08:23:3e:d2:dd:87:0f:6f:5d:51:14:6a:
                    0a:69:c5:4f:01:72:69:cf:d3:93:4c:6d:04:a0:a3:
                    1b:82:7e:b1:9a:b9:ed:c5:9e:c5:37:78:9f:9a:08:
                    34:fb:56:2e:58:c4:09:0e:06:64:5b:bc:37:dc:f1:
                    9f:28:68:a8:56:b0:92:a3:5c:9f:bb:88:98:08:1b:
                    24:1d:ab:30:85:ae:af:b0:2e:9e:7a:9d:c1:c0:42:
                    1c:e2:02:f0:ea:e0:4a:d2:ef:90:0e:b4:c1:40:16:
                    f0:6f:85:42:4a:64:f7:a4:30:a0:fe:bf:2e:a3:27:
                    5a:8e:8b:58:b8:ad:c3:19:17:84:63:ed:6f:56:fd:
                    83:cb:60:34:c4:74:be:e6:9d:db:e1:e4:e5:ca:0c:
                    5f:15
                Exponent: 65537 (0x10001)
        X509v3 extensions:
            X509v3 Authority Key Identifier: 
                53:79:BF:5A:AA:2B:4A:CF:54:80:E1:D8:9B:C0:9D:F2:B2:03:66:CB
            X509v3 Subject Key Identifier: 
                8D:8C:5E:C4:54:AD:8A:E1:77:E9:9B:F9:9B:05:E1:B8:01:8D:61:E1
            X509v3 Key Usage: critical
                Digital Signature, Certificate Sign, CRL Sign
            X509v3 Basic Constraints: critical
                CA:TRUE, pathlen:0
            X509v3 Extended Key Usage: 
                TLS Web Server Authentication, TLS Web Client Authentication
            X509v3 Certificate Policies: 
                Policy: X509v3 Any Policy
                Policy: 2.23.140.1.2.1
            X509v3 CRL Distribution Points: 
                Full Name:
                  URI:http://crl.usertrust.com/USERTrustRSACertificationAuthority.crl
            Authority Information Access: 
                CA Issuers - URI:http://crt.usertrust.com/USERTrustRSAAddTrustCA.crt
                OCSP - URI:http://ocsp.usertrust.com
    Signature Algorithm: sha384WithRSAEncryption
    Signature Value:
        32:bf:61:bd:0e:48:c3:4f:c7:ba:47:4d:f8:9c:78:19:01:dc:
        13:1d:80:6f:fc:c3:70:b4:52:9a:31:33:9a:57:52:fb:31:9e:
        6b:a4:ef:54:aa:89:8d:40:17:68:f8:11:10:7c:d2:ca:b1:f1:
        55:86:c7:ee:b3:36:91:86:f6:39:51:bf:46:bf:0f:a0:ba:b4:
        f7:7e:49:c4:2a:36:17:9e:e4:68:39:7a:af:94:4e:56:6f:b2:
        7b:3b:bf:0a:86:bd:cd:c5:77:1c:03:b8:38:b1:a2:1f:5f:7e:
        db:8a:dc:46:48:b6:68:0a:cf:b2:b5:b4:e2:34:e4:67:a9:38:
        66:09:5e:d2:b8:fc:9d:28:3a:17:40:27:c2:72:4e:29:fd:21:
        3c:7c:cf:13:fb:96:2c:c5:31:44:fd:13:ed:d5:9b:a9:69:68:
        77:7c:ee:e1:ff:a4:f9:36:38:08:53:39:a2:84:34:9c:19:f3:
        be:0e:ac:d5:24:37:eb:23:a8:78:d0:d3:e7:ef:92:47:64:62:
        39:22:ef:c6:f7:11:be:22:85:c6:66:44:24:26:8e:10:32:8d:
        c8:93:ae:07:9e:83:3e:2f:d9:f9:f5:46:8e:63:be:c1:e6:b4:
        dc:a6:cd:21:a8:86:0a:95:d9:2e:85:26:1a:fd:fc:b1:b6:57:
        42:6d:95:d1:33:f6:39:14:06:82:41:38:f5:8f:58:dc:80:5b:
        a4:d5:7d:95:78:fd:a7:9b:ff:fd:c5:a8:69:ab:26:e7:a7:a4:
        05:87:5b:a9:b7:b8:a3:20:0b:97:a9:45:85:dd:b3:8b:e5:89:
        37:8e:29:0d:fc:06:17:f6:38:40:0e:42:e4:12:06:fb:7b:f3:
        c6:11:68:62:df:e3:98:f4:13:d8:15:4f:8b:b1:69:d9:10:60:
        bc:64:2a:ea:31:b7:e4:b5:a3:3a:14:9b:26:e3:0b:7b:fd:02:
        8e:b6:99:c1:38:97:59:36:f6:a8:74:a2:86:b6:5e:eb:c6:64:
        ea:cf:a0:a3:f9:6e:9e:ba:2d:11:b6:86:98:08:58:2d:c9:ac:
        25:64:f2:5e:75:b4:38:c1:ae:7f:5a:46:83:ea:51:ca:b6:f1:
        99:11:35:6b:a5:6a:7b:c6:00:b0:e7:f8:be:64:b2:ad:c8:c2:
        f1:ac:e3:51:ea:a4:93:e0:79:c8:e1:81:40:c9:0a:5b:e1:12:
        3c:c1:60:2a:e3:97:c0:89:42:ca:94:cf:46:98:12:69:bb:98:
        d0:c2:d3:0d:72:4b:47:6e:e5:93:c4:32:28:63:87:43:e4:b0:
        32:3e:0a:d3:4b:bf:23:9b:14:29:41:2b:9a:04:1f:93:2d:f1:
        c7:39:48:3c:ad:5a:12:7f

-----BEGIN CERTIFICATE-----
MIIGEzCCA/ugAwIBAgIQfVtRJrR2uhHbdBYLvFMNpzANBgkqhkiG9w0BAQwFADCB
iDELMAkGA1UEBhMCVVMxEzARBgNVBAgTCk5ldyBKZXJzZXkxFDASBgNVBAcTC0pl
cnNleSBDaXR5MR4wHAYDVQQKExVUaGUgVVNFUlRSVVNUIE5ldHdvcmsxLjAsBgNV
BAMTJVVTRVJUcnVzdCBSU0EgQ2VydGlmaWNhdGlvbiBBdXRob3JpdHkwHhcNMTgx
MTAyMDAwMDAwWhcNMzAxMjMxMjM1OTU5WjCBjzELMAkGA1UEBhMCR0IxGzAZBgNV
BAgTEkdyZWF0ZXIgTWFuY2hlc3RlcjEQMA4GA1UEBxMHU2FsZm9yZDEYMBYGA1UE
ChMPU2VjdGlnbyBMaW1pdGVkMTcwNQYDVQQDEy5TZWN0aWdvIFJTQSBEb21haW4g
VmFsaWRhdGlvbiBTZWN1cmUgU2VydmVyIENBMIIBIjANBgkqhkiG9w0BAQEFAAOC
AQ8AMIIBCgKCAQEA1nMz1tc8INAA0hdFuNY+B6I/x0HuMjDJsGz99J/LEpgPLT+N
TQEMgg8Xf2Iu6bhIefsWg06t1zIlk7cHv7lQP6lMw0Aq6Tn/2YHKHxYyQdqAJrkj
eocgHuP/IJo8lURvh3UGkEC0MpMWCRAIIz7S3YcPb11RFGoKacVPAXJpz9OTTG0E
oKMbgn6xmrntxZ7FN3ifmgg0+1YuWMQJDgZkW7w33PGfKGioVrCSo1yfu4iYCBsk
Haswha6vsC6eep3BwEIc4gLw6uBK0u+QDrTBQBbwb4VCSmT3pDCg/r8uoydajotY
uK3DGReEY+1vVv2Dy2A0xHS+5p3b4eTlygxfFQIDAQABo4IBbjCCAWowHwYDVR0j
BBgwFoAUU3m/WqorSs9UgOHYm8Cd8rIDZsswHQYDVR0OBBYEFI2MXsRUrYrhd+mb
+ZsF4bgBjWHhMA4GA1UdDwEB/wQEAwIBhjASBgNVHRMBAf8ECDAGAQH/AgEAMB0G
A1UdJQQWMBQGCCsGAQUFBwMBBggrBgEFBQcDAjAbBgNVHSAEFDASMAYGBFUdIAAw
CAYGZ4EMAQIBMFAGA1UdHwRJMEcwRaBDoEGGP2h0dHA6Ly9jcmwudXNlcnRydXN0
LmNvbS9VU0VSVHJ1c3RSU0FDZXJ0aWZpY2F0aW9uQXV0aG9yaXR5LmNybDB2Bggr
BgEFBQcBAQRqMGgwPwYIKwYBBQUHMAKGM2h0dHA6Ly9jcnQudXNlcnRydXN0LmNv
bS9VU0VSVHJ1c3RSU0FBZGRUcnVzdENBLmNydDAlBggrBgEFBQcwAYYZaHR0cDov
L29jc3AudXNlcnRydXN0LmNvbTANBgkqhkiG9w0BAQwFAAOCAgEAMr9hvQ5Iw0/H
ukdN+Jx4GQHcEx2Ab/zDcLRSmjEzmldS+zGea6TvVKqJjUAXaPgREHzSyrHxVYbH
7rM2kYb2OVG/Rr8PoLq0935JxCo2F57kaDl6r5ROVm+yezu/Coa9zcV3HAO4OLGi
H19+24rcRki2aArPsrW04jTkZ6k4Zgle0rj8nSg6F0AnwnJOKf0hPHzPE/uWLMUx
RP0T7dWbqWlod3zu4f+k+TY4CFM5ooQ0nBnzvg6s1SQ36yOoeNDT5++SR2RiOSLv
xvcRviKFxmZEJCaOEDKNyJOuB56DPi/Z+fVGjmO+wea03KbNIaiGCpXZLoUmGv38
sbZXQm2V0TP2ORQGgkE49Y9Y3IBbpNV9lXj9p5v//cWoaasm56ekBYdbqbe4oyAL
l6lFhd2zi+WJN44pDfwGF/Y4QA5C5BIG+3vzxhFoYt/jmPQT2BVPi7Fp2RBgvGQq
6jG35LWjOhSbJuMLe/0CjraZwTiXWTb2qHSihrZe68Zk6s+go/lunrotEbaGmAhY
LcmsJWTyXnW0OMGuf1pGg+pRyrbxmRE1a6Vqe8YAsOf4vmSyrcjC8azjUeqkk+B5
yOGBQMkKW+ESPMFgKuOXwIlCypTPRpgSabuY0MLTDXJLR27lk8QyKGOHQ+SwMj4K
00u/I5sUKUErmgQfky3xxzlIPK1aEn8=
-----END CERTIFICATE-----

===========================================
Certificate2: 68b9c761219a5b1f0131784474665db61bbdb109e00f05ca9f74244ee5f5f52b
===========================================
Certificate:
    Data:
        Version: 3 (0x2)
        Serial Number:
            39:72:44:3a:f9:22:b7:51:d7:d3:6c:10:dd:31:35:95
        Signature Algorithm: sha384WithRSAEncryption
        Issuer: C = GB, ST = Greater Manchester, L = Salford, O = Comodo CA Limited, CN = AAA Certificate Services
        Validity
            Not Before: Mar 12 00:00:00 2019 GMT
            Not After : Dec 31 23:59:59 2028 GMT
        Subject: C = US, ST = New Jersey, L = Jersey City, O = The USERTRUST Network, CN = USERTrust RSA Certification Authority
        Subject Public Key Info:
            Public Key Algorithm: rsaEncryption
                Public-Key: (4096 bit)
                Modulus:
                    00:80:12:65:17:36:0e:c3:db:08:b3:d0:ac:57:0d:
                    76:ed:cd:27:d3:4c:ad:50:83:61:e2:aa:20:4d:09:
                    2d:64:09:dc:ce:89:9f:cc:3d:a9:ec:f6:cf:c1:dc:
                    f1:d3:b1:d6:7b:37:28:11:2b:47:da:39:c6:bc:3a:
                    19:b4:5f:a6:bd:7d:9d:a3:63:42:b6:76:f2:a9:3b:
                    2b:91:f8:e2:6f:d0:ec:16:20:90:09:3e:e2:e8:74:
                    c9:18:b4:91:d4:62:64:db:7f:a3:06:f1:88:18:6a:
                    90:22:3c:bc:fe:13:f0:87:14:7b:f6:e4:1f:8e:d4:
                    e4:51:c6:11:67:46:08:51:cb:86:14:54:3f:bc:33:
                    fe:7e:6c:9c:ff:16:9d:18:bd:51:8e:35:a6:a7:66:
                    c8:72:67:db:21:66:b1:d4:9b:78:03:c0:50:3a:e8:
                    cc:f0:dc:bc:9e:4c:fe:af:05:96:35:1f:57:5a:b7:
                    ff:ce:f9:3d:b7:2c:b6:f6:54:dd:c8:e7:12:3a:4d:
                    ae:4c:8a:b7:5c:9a:b4:b7:20:3d:ca:7f:22:34:ae:
                    7e:3b:68:66:01:44:e7:01:4e:46:53:9b:33:60:f7:
                    94:be:53:37:90:73:43:f3:32:c3:53:ef:db:aa:fe:
                    74:4e:69:c7:6b:8c:60:93:de:c4:c7:0c:df:e1:32:
                    ae:cc:93:3b:51:78:95:67:8b:ee:3d:56:fe:0c:d0:
                    69:0f:1b:0f:f3:25:26:6b:33:6d:f7:6e:47:fa:73:
                    43:e5:7e:0e:a5:66:b1:29:7c:32:84:63:55:89:c4:
                    0d:c1:93:54:30:19:13:ac:d3:7d:37:a7:eb:5d:3a:
                    6c:35:5c:db:41:d7:12:da:a9:49:0b:df:d8:80:8a:
                    09:93:62:8e:b5:66:cf:25:88:cd:84:b8:b1:3f:a4:
                    39:0f:d9:02:9e:eb:12:4c:95:7c:f3:6b:05:a9:5e:
                    16:83:cc:b8:67:e2:e8:13:9d:cc:5b:82:d3:4c:b3:
                    ed:5b:ff:de:e5:73:ac:23:3b:2d:00:bf:35:55:74:
                    09:49:d8:49:58:1a:7f:92:36:e6:51:92:0e:f3:26:
                    7d:1c:4d:17:bc:c9:ec:43:26:d0:bf:41:5f:40:a9:
                    44:44:f4:99:e7:57:87:9e:50:1f:57:54:a8:3e:fd:
                    74:63:2f:b1:50:65:09:e6:58:42:2e:43:1a:4c:b4:
                    f0:25:47:59:fa:04:1e:93:d4:26:46:4a:50:81:b2:
                    de:be:78:b7:fc:67:15:e1:c9:57:84:1e:0f:63:d6:
                    e9:62:ba:d6:5f:55:2e:ea:5c:c6:28:08:04:25:39:
                    b8:0e:2b:a9:f2:4c:97:1c:07:3f:0d:52:f5:ed:ef:
                    2f:82:0f
                Exponent: 65537 (0x10001)
        X509v3 extensions:
            X509v3 Authority Key Identifier: 
                A0:11:0A:23:3E:96:F1:07:EC:E2:AF:29:EF:82:A5:7F:D0:30:A4:B4
            X509v3 Subject Key Identifier: 
                53:79:BF:5A:AA:2B:4A:CF:54:80:E1:D8:9B:C0:9D:F2:B2:03:66:CB
            X509v3 Key Usage: critical
                Digital Signature, Certificate Sign, CRL Sign
            X509v3 Basic Constraints: critical
                CA:TRUE
            X509v3 Certificate Policies: 
                Policy: X509v3 Any Policy
            X509v3 CRL Distribution Points: 
                Full Name:
                  URI:http://crl.comodoca.com/AAACertificateServices.crl
            Authority Information Access: 
                OCSP - URI:http://ocsp.comodoca.com
    Signature Algorithm: sha384WithRSAEncryption
    Signature Value:
        18:87:51:dc:74:21:3d:9c:8a:e0:27:b7:33:d0:2e:cc:ec:f0:
        e6:cb:5e:11:de:22:6f:9b:75:8e:9e:72:fe:e4:d6:fe:aa:1f:
        9c:96:2d:ef:03:4a:7e:ae:f4:8d:6f:72:3c:43:3b:c0:3f:eb:
        b8:df:5c:aa:a9:c6:ae:f2:fc:d8:ee:a3:7b:43:f6:86:36:7c:
        14:e0:cd:f4:f7:3f:fe:de:b8:b4:8a:f0:91:96:fe:fd:43:64:
        7e:fd:cc:d2:01:a1:7d:7d:f8:19:19:c9:42:2b:13:bf:58:8b:
        ba:a4:a2:66:04:76:88:91:4e:0c:89:14:ce:a2:4d:c9:32:b3:
        ba:e8:14:1a:bc:71:f1:5b:f0:41:0b:98:00:0a:22:03:10:e5:
        0c:b1:f9:cd:92:37:19:ed:3b:f1:e4:3a:b6:f9:45:13:26:75:
        af:bb:aa:ef:3f:7b:77:3b:d2:c4:02:91:3d:19:00:d3:17:5c:
        39:db:3f:7b:18:0d:45:cd:93:85:96:2f:5d:df:59:16:4f:3f:
        51:bd:d5:45:18:3f:ed:4a:8e:e8:06:61:74:23:16:b5:0d:50:
        73:27:44:47:7f:10:5d:89:2a:6b:85:31:14:c4:e8:a9:6a:4c:
        80:bc:6a:78:cf:b8:7f:8e:76:72:99:0c:9d:fe:d7:91:08:16:
        a1:a3:5f:95

-----BEGIN CERTIFICATE-----
MIIFgTCCBGmgAwIBAgIQOXJEOvkit1HX02wQ3TE1lTANBgkqhkiG9w0BAQwFADB7
MQswCQYDVQQGEwJHQjEbMBkGA1UECAwSR3JlYXRlciBNYW5jaGVzdGVyMRAwDgYD
VQQHDAdTYWxmb3JkMRowGAYDVQQKDBFDb21vZG8gQ0EgTGltaXRlZDEhMB8GA1UE
AwwYQUFBIENlcnRpZmljYXRlIFNlcnZpY2VzMB4XDTE5MDMxMjAwMDAwMFoXDTI4
MTIzMTIzNTk1OVowgYgxCzAJBgNVBAYTAlVTMRMwEQYDVQQIEwpOZXcgSmVyc2V5
MRQwEgYDVQQHEwtKZXJzZXkgQ2l0eTEeMBwGA1UEChMVVGhlIFVTRVJUUlVTVCBO
ZXR3b3JrMS4wLAYDVQQDEyVVU0VSVHJ1c3QgUlNBIENlcnRpZmljYXRpb24gQXV0
aG9yaXR5MIICIjANBgkqhkiG9w0BAQEFAAOCAg8AMIICCgKCAgEAgBJlFzYOw9sI
s9CsVw127c0n00ytUINh4qogTQktZAnczomfzD2p7PbPwdzx07HWezcoEStH2jnG
vDoZtF+mvX2do2NCtnbyqTsrkfjib9DsFiCQCT7i6HTJGLSR1GJk23+jBvGIGGqQ
Ijy8/hPwhxR79uQfjtTkUcYRZ0YIUcuGFFQ/vDP+fmyc/xadGL1RjjWmp2bIcmfb
IWax1Jt4A8BQOujM8Ny8nkz+rwWWNR9XWrf/zvk9tyy29lTdyOcSOk2uTIq3XJq0
tyA9yn8iNK5+O2hmAUTnAU5GU5szYPeUvlM3kHND8zLDU+/bqv50TmnHa4xgk97E
xwzf4TKuzJM7UXiVZ4vuPVb+DNBpDxsP8yUmazNt925H+nND5X4OpWaxKXwyhGNV
icQNwZNUMBkTrNN9N6frXTpsNVzbQdcS2qlJC9/YgIoJk2KOtWbPJYjNhLixP6Q5
D9kCnusSTJV882sFqV4Wg8y4Z+LoE53MW4LTTLPtW//e5XOsIzstAL81VXQJSdhJ
WBp/kjbmUZIO8yZ9HE0XvMnsQybQv0FfQKlERPSZ51eHnlAfV1SoPv10Yy+xUGUJ
5lhCLkMaTLTwJUdZ+gQek9QmRkpQgbLevni3/GcV4clXhB4PY9bpYrrWX1Uu6lzG
KAgEJTm4Diup8kyXHAc/DVL17e8vgg8CAwEAAaOB8jCB7zAfBgNVHSMEGDAWgBSg
EQojPpbxB+zirynvgqV/0DCktDAdBgNVHQ4EFgQUU3m/WqorSs9UgOHYm8Cd8rID
ZsswDgYDVR0PAQH/BAQDAgGGMA8GA1UdEwEB/wQFMAMBAf8wEQYDVR0gBAowCDAG
BgRVHSAAMEMGA1UdHwQ8MDowOKA2oDSGMmh0dHA6Ly9jcmwuY29tb2RvY2EuY29t
L0FBQUNlcnRpZmljYXRlU2VydmljZXMuY3JsMDQGCCsGAQUFBwEBBCgwJjAkBggr
BgEFBQcwAYYYaHR0cDovL29jc3AuY29tb2RvY2EuY29tMA0GCSqGSIb3DQEBDAUA
A4IBAQAYh1HcdCE9nIrgJ7cz0C7M7PDmy14R3iJvm3WOnnL+5Nb+qh+cli3vA0p+
rvSNb3I8QzvAP+u431yqqcau8vzY7qN7Q/aGNnwU4M309z/+3ri0ivCRlv79Q2R+
/czSAaF9ffgZGclCKxO/WIu6pKJmBHaIkU4MiRTOok3JMrO66BQavHHxW/BBC5gA
CiIDEOUMsfnNkjcZ7Tvx5Dq2+UUTJnWvu6rvP3t3O9LEApE9GQDTF1w52z97GA1F
zZOFli9d31kWTz9RvdVFGD/tSo7oBmF0Ixa1DVBzJ0RHfxBdiSprhTEUxOipakyA
vGp4z7h/jnZymQyd/teRCBaho1+V
-----END CERTIFICATE-----

