===========================================
Certificate0: 1e6b31c1294d8b21f22a7997e7675f89ec02499ce448dae8baf2ba66e7630fc8
===========================================
Certificate:
    Data:
        Version: 3 (0x2)
        Serial Number:
            98:16:56:f9:4d:7a:56:37
        Signature Algorithm: sha256WithRSAEncryption
        Issuer: C=US, ST=Arizona, L=Scottsdale, O=GoDaddy.com, Inc., OU=http://certs.godaddy.com/repository/, CN=Go Daddy Secure Certificate Authority - G2
        Validity
            Not Before: Apr 16 05:46:54 2025 GMT
            Not After : May 18 05:46:54 2026 GMT
        Subject: CN=arabianhorseplay.com
        Subject Public Key Info:
            Public Key Algorithm: rsaEncryption
                Public-Key: (2048 bit)
                Modulus:
                    00:9d:0f:bf:81:ad:4a:8e:c0:fd:ae:98:18:20:f6:
                    e2:ee:53:94:f8:97:34:c1:ae:2c:c8:82:9b:d2:9c:
                    72:1e:7b:05:25:db:61:48:e7:8c:92:19:d5:f0:47:
                    70:ea:b4:d4:ad:5b:70:fa:f1:3f:87:d3:8b:90:d0:
                    b5:9a:d0:a1:32:b2:3b:0c:1d:ba:88:45:72:3d:99:
                    28:49:5a:3b:26:b1:81:4c:71:e5:c3:a5:6a:4a:71:
                    57:b1:8d:f5:a3:cc:db:9b:aa:38:d9:2b:92:54:cf:
                    76:ef:32:53:a4:c0:83:97:3e:61:24:e1:2c:82:cf:
                    b8:b0:97:7c:3a:40:91:6f:26:93:87:bb:a0:9a:0e:
                    64:21:72:66:74:a9:e2:98:20:b7:24:86:28:58:7c:
                    64:66:89:79:75:89:5c:12:5c:b4:96:a5:b5:25:25:
                    21:97:da:43:2e:a4:25:03:7e:32:f7:ac:2e:7e:10:
                    24:2a:db:01:6d:87:bb:18:28:86:a1:11:fe:a6:16:
                    08:51:5f:f7:f4:01:24:64:f1:fa:a4:f0:7b:07:15:
                    5d:f8:14:a7:f9:c1:47:09:69:ce:0b:64:2b:24:94:
                    f5:cb:c3:47:6d:a5:25:e8:f6:71:45:d2:0e:c1:b0:
                    03:c9:29:0e:55:29:c3:72:08:06:7e:4f:2f:ee:f9:
                    38:1f
                Exponent: 65537 (0x10001)
        X509v3 extensions:
            X509v3 Basic Constraints: critical
                CA:FALSE
            X509v3 Extended Key Usage: 
                TLS Web Server Authentication, TLS Web Client Authentication
            X509v3 Key Usage: critical
                Digital Signature, Key Encipherment
            X509v3 CRL Distribution Points: 
                Full Name:
                  URI:http://crl.godaddy.com/gdig2s1-44050.crl

            X509v3 Certificate Policies: 
                Policy: 2.16.840.1.114413.1.7.23.1
                  CPS: http://certificates.godaddy.com/repository/
                Policy: 2.23.140.1.2.1
            Authority Information Access: 
                OCSP - URI:http://ocsp.godaddy.com/
                CA Issuers - URI:http://certificates.godaddy.com/repository/gdig2.crt
            X509v3 Authority Key Identifier: 
                40:C2:BD:27:8E:CC:34:83:30:A2:33:D7:FB:6C:B3:F0:B4:2C:80:CE
            X509v3 Subject Alternative Name: 
                DNS:arabianhorseplay.com, DNS:www.arabianhorseplay.com
            X509v3 Subject Key Identifier: 
                91:4B:E5:5D:7E:6C:7B:AA:E4:08:A9:C3:B4:A6:D9:54:22:01:D5:72
            CT Precertificate SCTs: 
                Signed Certificate Timestamp:
                    Version   : v1 (0x0)
                    Log ID    : 0E:57:94:BC:F3:AE:A9:3E:33:1B:2C:99:07:B3:F7:90:
                                DF:9B:C2:3D:71:32:25:DD:21:A9:25:AC:61:C5:4E:21
                    Timestamp : Apr 16 05:46:54.753 2025 GMT
                    Extensions: none
                    Signature : ecdsa-with-SHA256
                                30:46:02:21:00:D2:55:F0:D2:38:63:B8:B9:86:76:71:
                                FC:CC:EE:01:98:23:3F:56:7F:22:C2:37:75:03:91:DE:
                                BC:FD:F3:05:51:02:21:00:AB:8E:4F:C5:D6:71:14:05:
                                7A:40:E7:CD:BF:37:81:5A:F3:1B:7A:D3:17:EC:62:6B:
                                82:FB:D5:B1:05:43:B0:C9
                Signed Certificate Timestamp:
                    Version   : v1 (0x0)
                    Log ID    : 64:11:C4:6C:A4:12:EC:A7:89:1C:A2:02:2E:00:BC:AB:
                                4F:28:07:D4:1E:35:27:AB:EA:FE:D5:03:C9:7D:CD:F0
                    Timestamp : Apr 16 05:46:55.005 2025 GMT
                    Extensions: none
                    Signature : ecdsa-with-SHA256
                                30:45:02:21:00:B9:79:0C:AA:40:09:41:48:34:79:9F:
                                95:F1:37:18:4E:D4:A5:78:9D:66:2E:F0:D9:96:31:00:
                                FF:4F:35:83:0F:02:20:51:CE:A4:98:AE:E0:67:87:4E:
                                C6:37:F1:1F:97:4E:1A:EB:F0:DE:25:86:B8:64:79:48:
                                D7:53:5A:A9:42:B3:04
                Signed Certificate Timestamp:
                    Version   : v1 (0x0)
                    Log ID    : CB:38:F7:15:89:7C:84:A1:44:5F:5B:C1:DD:FB:C9:6E:
                                F2:9A:59:CD:47:0A:69:05:85:B0:CB:14:C3:14:58:E7
                    Timestamp : Apr 16 05:46:56.175 2025 GMT
                    Extensions: none
                    Signature : ecdsa-with-SHA256
                                30:44:02:20:17:99:BB:54:AD:7A:6D:0D:37:EA:B4:63:
                                A4:75:4E:DD:23:BC:B6:BD:55:9A:C4:2E:A7:1B:AE:81:
                                AA:89:E2:46:02:20:4F:42:74:CB:02:2B:9E:59:4A:2A:
                                A2:F4:15:76:79:D3:48:3D:12:8F:CC:0A:45:A0:35:04:
                                44:64:75:C0:5E:F6
    Signature Algorithm: sha256WithRSAEncryption
    Signature Value:
        5a:29:b9:38:0d:40:cd:f0:bd:d5:62:e1:75:de:6b:06:a6:37:
        d9:0c:c7:a4:b5:0f:2c:93:50:26:41:e9:ac:cb:d6:cb:1d:72:
        7a:3f:a4:56:13:6a:54:91:6f:76:0a:ce:30:66:7b:b5:11:5e:
        0d:54:25:49:a8:53:ce:f9:ae:38:db:ac:09:3f:d3:bc:8d:a8:
        12:ed:79:52:50:26:bb:e3:63:79:84:e3:e4:6e:5d:bc:d3:08:
        9e:d4:f2:1c:68:e1:de:b1:e8:de:c1:e6:4d:91:1e:da:54:67:
        af:c5:72:fc:57:67:74:cc:f2:71:7c:8d:58:9c:b1:85:15:12:
        3c:f2:ea:41:b8:c9:ef:f7:c2:6b:71:9a:67:8b:94:05:22:2d:
        58:6c:43:e2:6e:3a:98:ba:59:fb:33:59:1f:94:b7:05:ed:24:
        2e:eb:53:11:6c:45:38:95:bb:58:39:08:52:27:42:87:d5:05:
        aa:f8:f7:5e:60:6c:e4:86:36:e5:6e:d7:03:b5:85:b0:ab:d7:
        b8:db:7e:62:7b:74:a9:f3:1a:7c:53:2e:e0:0f:fa:e6:30:b5:
        54:99:a2:47:d8:52:ac:dd:8e:b5:27:11:25:04:58:90:f3:0a:
        9a:77:0f:ac:1c:fd:e4:a8:35:87:2c:1d:2f:9f:e7:1a:28:65:
        c4:b7:e7:7b

-----BEGIN CERTIFICATE-----
MIIGqTCCBZGgAwIBAgIJAJgWVvlNelY3MA0GCSqGSIb3DQEBCwUAMIG0MQswCQYD
VQQGEwJVUzEQMA4GA1UECBMHQXJpem9uYTETMBEGA1UEBxMKU2NvdHRzZGFsZTEa
MBgGA1UEChMRR29EYWRkeS5jb20sIEluYy4xLTArBgNVBAsTJGh0dHA6Ly9jZXJ0
cy5nb2RhZGR5LmNvbS9yZXBvc2l0b3J5LzEzMDEGA1UEAxMqR28gRGFkZHkgU2Vj
dXJlIENlcnRpZmljYXRlIEF1dGhvcml0eSAtIEcyMB4XDTI1MDQxNjA1NDY1NFoX
DTI2MDUxODA1NDY1NFowHzEdMBsGA1UEAxMUYXJhYmlhbmhvcnNlcGxheS5jb20w
ggEiMA0GCSqGSIb3DQEBAQUAA4IBDwAwggEKAoIBAQCdD7+BrUqOwP2umBgg9uLu
U5T4lzTBrizIgpvSnHIeewUl22FI54ySGdXwR3DqtNStW3D68T+H04uQ0LWa0KEy
sjsMHbqIRXI9mShJWjsmsYFMceXDpWpKcVexjfWjzNubqjjZK5JUz3bvMlOkwIOX
PmEk4SyCz7iwl3w6QJFvJpOHu6CaDmQhcmZ0qeKYILckhihYfGRmiXl1iVwSXLSW
pbUlJSGX2kMupCUDfjL3rC5+ECQq2wFth7sYKIahEf6mFghRX/f0ASRk8fqk8HsH
FV34FKf5wUcJac4LZCsklPXLw0dtpSXo9nFF0g7BsAPJKQ5VKcNyCAZ+Ty/u+Tgf
AgMBAAGjggNQMIIDTDAMBgNVHRMBAf8EAjAAMB0GA1UdJQQWMBQGCCsGAQUFBwMB
BggrBgEFBQcDAjAOBgNVHQ8BAf8EBAMCBaAwOQYDVR0fBDIwMDAuoCygKoYoaHR0
cDovL2NybC5nb2RhZGR5LmNvbS9nZGlnMnMxLTQ0MDUwLmNybDBdBgNVHSAEVjBU
MEgGC2CGSAGG/W0BBxcBMDkwNwYIKwYBBQUHAgEWK2h0dHA6Ly9jZXJ0aWZpY2F0
ZXMuZ29kYWRkeS5jb20vcmVwb3NpdG9yeS8wCAYGZ4EMAQIBMHYGCCsGAQUFBwEB
BGowaDAkBggrBgEFBQcwAYYYaHR0cDovL29jc3AuZ29kYWRkeS5jb20vMEAGCCsG
AQUFBzAChjRodHRwOi8vY2VydGlmaWNhdGVzLmdvZGFkZHkuY29tL3JlcG9zaXRv
cnkvZ2RpZzIuY3J0MB8GA1UdIwQYMBaAFEDCvSeOzDSDMKIz1/tss/C0LIDOMDkG
A1UdEQQyMDCCFGFyYWJpYW5ob3JzZXBsYXkuY29tghh3d3cuYXJhYmlhbmhvcnNl
cGxheS5jb20wHQYDVR0OBBYEFJFL5V1+bHuq5Aipw7Sm2VQiAdVyMIIBfgYKKwYB
BAHWeQIEAgSCAW4EggFqAWgAdwAOV5S8866pPjMbLJkHs/eQ35vCPXEyJd0hqSWs
YcVOIQAAAZY9ItOhAAAEAwBIMEYCIQDSVfDSOGO4uYZ2cfzM7gGYIz9WfyLCN3UD
kd68/fMFUQIhAKuOT8XWcRQFekDnzb83gVrzG3rTF+xia4L71bEFQ7DJAHYAZBHE
bKQS7KeJHKICLgC8q08oB9QeNSer6v7VA8l9zfAAAAGWPSLUnQAABAMARzBFAiEA
uXkMqkAJQUg0eZ+V8TcYTtSleJ1mLvDZljEA/081gw8CIFHOpJiu4GeHTsY38R+X
Thrr8N4lhrhkeUjXU1qpQrMEAHUAyzj3FYl8hKFEX1vB3fvJbvKaWc1HCmkFhbDL
FMMUWOcAAAGWPSLZLwAABAMARjBEAiAXmbtUrXptDTfqtGOkdU7dI7y2vVWaxC6n
G66BqoniRgIgT0J0ywIrnllKKqL0FXZ500g9Eo/MCkWgNQREZHXAXvYwDQYJKoZI
hvcNAQELBQADggEBAFopuTgNQM3wvdVi4XXeawamN9kMx6S1DyyTUCZB6azL1ssd
cno/pFYTalSRb3YKzjBme7URXg1UJUmoU875rjjbrAk/07yNqBLteVJQJrvjY3mE
4+RuXbzTCJ7U8hxo4d6x6N7B5k2RHtpUZ6/FcvxXZ3TM8nF8jVicsYUVEjzy6kG4
ye/3wmtxmmeLlAUiLVhsQ+JuOpi6WfszWR+UtwXtJC7rUxFsRTiVu1g5CFInQofV
Bar4915gbOSGNuVu1wO1hbCr17jbfmJ7dKnzGnxTLuAP+uYwtVSZokfYUqzdjrUn
ESUEWJDzCpp3D6wc/eSoNYcsHS+f5xooZcS353s=
-----END CERTIFICATE-----

===========================================
Certificate1: 973a41276ffd01e027a2aad49e34c37846d3e976ff6a620b6712e33832041aa6
===========================================
Certificate:
    Data:
        Version: 3 (0x2)
        Serial Number: 7 (0x7)
        Signature Algorithm: sha256WithRSAEncryption
        Issuer: C=US, ST=Arizona, L=Scottsdale, O=GoDaddy.com, Inc., CN=Go Daddy Root Certificate Authority - G2
        Validity
            Not Before: May  3 07:00:00 2011 GMT
            Not After : May  3 07:00:00 2031 GMT
        Subject: C=US, ST=Arizona, L=Scottsdale, O=GoDaddy.com, Inc., OU=http://certs.godaddy.com/repository/, CN=Go Daddy Secure Certificate Authority - G2
        Subject Public Key Info:
            Public Key Algorithm: rsaEncryption
                Public-Key: (2048 bit)
                Modulus:
                    00:b9:e0:cb:10:d4:af:76:bd:d4:93:62:eb:30:64:
                    b8:81:08:6c:c3:04:d9:62:17:8e:2f:ff:3e:65:cf:
                    8f:ce:62:e6:3c:52:1c:da:16:45:4b:55:ab:78:6b:
                    63:83:62:90:ce:0f:69:6c:99:c8:1a:14:8b:4c:cc:
                    45:33:ea:88:dc:9e:a3:af:2b:fe:80:61:9d:79:57:
                    c4:cf:2e:f4:3f:30:3c:5d:47:fc:9a:16:bc:c3:37:
                    96:41:51:8e:11:4b:54:f8:28:be:d0:8c:be:f0:30:
                    38:1e:f3:b0:26:f8:66:47:63:6d:de:71:26:47:8f:
                    38:47:53:d1:46:1d:b4:e3:dc:00:ea:45:ac:bd:bc:
                    71:d9:aa:6f:00:db:db:cd:30:3a:79:4f:5f:4c:47:
                    f8:1d:ef:5b:c2:c4:9d:60:3b:b1:b2:43:91:d8:a4:
                    33:4e:ea:b3:d6:27:4f:ad:25:8a:a5:c6:f4:d5:d0:
                    a6:ae:74:05:64:57:88:b5:44:55:d4:2d:2a:3a:3e:
                    f8:b8:bd:e9:32:0a:02:94:64:c4:16:3a:50:f1:4a:
                    ae:e7:79:33:af:0c:20:07:7f:e8:df:04:39:c2:69:
                    02:6c:63:52:fa:77:c1:1b:c8:74:87:c8:b9:93:18:
                    50:54:35:4b:69:4e:bc:3b:d3:49:2e:1f:dc:c1:d2:
                    52:fb
                Exponent: 65537 (0x10001)
        X509v3 extensions:
            X509v3 Basic Constraints: critical
                CA:TRUE
            X509v3 Key Usage: critical
                Certificate Sign, CRL Sign
            X509v3 Subject Key Identifier: 
                40:C2:BD:27:8E:CC:34:83:30:A2:33:D7:FB:6C:B3:F0:B4:2C:80:CE
            X509v3 Authority Key Identifier: 
                3A:9A:85:07:10:67:28:B6:EF:F6:BD:05:41:6E:20:C1:94:DA:0F:DE
            Authority Information Access: 
                OCSP - URI:http://ocsp.godaddy.com/
            X509v3 CRL Distribution Points: 
                Full Name:
                  URI:http://crl.godaddy.com/gdroot-g2.crl

            X509v3 Certificate Policies: 
                Policy: X509v3 Any Policy
                  CPS: https://certs.godaddy.com/repository/
    Signature Algorithm: sha256WithRSAEncryption
    Signature Value:
        08:7e:6c:93:10:c8:38:b8:96:a9:90:4b:ff:a1:5f:4f:04:ef:
        6c:3e:9c:88:06:c9:50:8f:a6:73:f7:57:31:1b:be:bc:e4:2f:
        db:f8:ba:d3:5b:e0:b4:e7:e6:79:62:0e:0c:a2:d7:6a:63:73:
        31:b5:f5:a8:48:a4:3b:08:2d:a2:5d:90:d7:b4:7c:25:4f:11:
        56:30:c4:b6:44:9d:7b:2c:9d:e5:5e:e6:ef:0c:61:aa:bf:e4:
        2a:1b:ee:84:9e:b8:83:7d:c1:43:ce:44:a7:13:70:0d:91:1f:
        f4:c8:13:ad:83:60:d9:d8:72:a8:73:24:1e:b5:ac:22:0e:ca:
        17:89:62:58:44:1b:ab:89:25:01:00:0f:cd:c4:1b:62:db:51:
        b4:d3:0f:51:2a:9b:f4:bc:73:fc:76:ce:36:a4:cd:d9:d8:2c:
        ea:ae:9b:f5:2a:b2:90:d1:4d:75:18:8a:3f:8a:41:90:23:7d:
        5b:4b:fe:a4:03:58:9b:46:b2:c3:60:60:83:f8:7d:50:41:ce:
        c2:a1:90:c3:bb:ef:02:2f:d2:15:54:ee:44:15:d9:0a:ae:a7:
        8a:33:ed:b1:2d:76:36:26:dc:04:eb:9f:f7:61:1f:15:dc:87:
        6f:ee:46:96:28:ad:a1:26:7d:0a:09:a7:2e:04:a3:8d:bc:f8:
        bc:04:30:01

-----BEGIN CERTIFICATE-----
MIIE0DCCA7igAwIBAgIBBzANBgkqhkiG9w0BAQsFADCBgzELMAkGA1UEBhMCVVMx
EDAOBgNVBAgTB0FyaXpvbmExEzARBgNVBAcTClNjb3R0c2RhbGUxGjAYBgNVBAoT
EUdvRGFkZHkuY29tLCBJbmMuMTEwLwYDVQQDEyhHbyBEYWRkeSBSb290IENlcnRp
ZmljYXRlIEF1dGhvcml0eSAtIEcyMB4XDTExMDUwMzA3MDAwMFoXDTMxMDUwMzA3
MDAwMFowgbQxCzAJBgNVBAYTAlVTMRAwDgYDVQQIEwdBcml6b25hMRMwEQYDVQQH
EwpTY290dHNkYWxlMRowGAYDVQQKExFHb0RhZGR5LmNvbSwgSW5jLjEtMCsGA1UE
CxMkaHR0cDovL2NlcnRzLmdvZGFkZHkuY29tL3JlcG9zaXRvcnkvMTMwMQYDVQQD
EypHbyBEYWRkeSBTZWN1cmUgQ2VydGlmaWNhdGUgQXV0aG9yaXR5IC0gRzIwggEi
MA0GCSqGSIb3DQEBAQUAA4IBDwAwggEKAoIBAQC54MsQ1K92vdSTYuswZLiBCGzD
BNliF44v/z5lz4/OYuY8UhzaFkVLVat4a2ODYpDOD2lsmcgaFItMzEUz6ojcnqOv
K/6AYZ15V8TPLvQ/MDxdR/yaFrzDN5ZBUY4RS1T4KL7QjL7wMDge87Am+GZHY23e
cSZHjzhHU9FGHbTj3ADqRay9vHHZqm8A29vNMDp5T19MR/gd71vCxJ1gO7GyQ5HY
pDNO6rPWJ0+tJYqlxvTV0KaudAVkV4i1RFXULSo6Pvi4vekyCgKUZMQWOlDxSq7n
eTOvDCAHf+jfBDnCaQJsY1L6d8EbyHSHyLmTGFBUNUtpTrw700kuH9zB0lL7AgMB
AAGjggEaMIIBFjAPBgNVHRMBAf8EBTADAQH/MA4GA1UdDwEB/wQEAwIBBjAdBgNV
HQ4EFgQUQMK9J47MNIMwojPX+2yz8LQsgM4wHwYDVR0jBBgwFoAUOpqFBxBnKLbv
9r0FQW4gwZTaD94wNAYIKwYBBQUHAQEEKDAmMCQGCCsGAQUFBzABhhhodHRwOi8v
b2NzcC5nb2RhZGR5LmNvbS8wNQYDVR0fBC4wLDAqoCigJoYkaHR0cDovL2NybC5n
b2RhZGR5LmNvbS9nZHJvb3QtZzIuY3JsMEYGA1UdIAQ/MD0wOwYEVR0gADAzMDEG
CCsGAQUFBwIBFiVodHRwczovL2NlcnRzLmdvZGFkZHkuY29tL3JlcG9zaXRvcnkv
MA0GCSqGSIb3DQEBCwUAA4IBAQAIfmyTEMg4uJapkEv/oV9PBO9sPpyIBslQj6Zz
91cxG7685C/b+LrTW+C05+Z5Yg4MotdqY3MxtfWoSKQ7CC2iXZDXtHwlTxFWMMS2
RJ17LJ3lXubvDGGqv+QqG+6EnriDfcFDzkSnE3ANkR/0yBOtg2DZ2HKocyQetawi
DsoXiWJYRBuriSUBAA/NxBti21G00w9RKpv0vHP8ds42pM3Z2Czqrpv1KrKQ0U11
GIo/ikGQI31bS/6kA1ibRrLDYGCD+H1QQc7CoZDDu+8CL9IVVO5EFdkKrqeKM+2x
LXY2JtwE65/3YR8V3Idv7kaWKK2hJn0KCacuBKONvPi8BDAB
-----END CERTIFICATE-----

