===========================================
Certificate0: 6091eceb0c7649bd2e446f4984f739c8c7284d1c55388b2313e3a8a27d4cef96
===========================================
Certificate:
    Data:
        Version: 3 (0x2)
        Serial Number:
            04:7b:f4:fd:2c:fb:01:92:d5:30:c1:0f:c9:19:83:2a:49:ef
        Signature Algorithm: sha256WithRSAEncryption
        Issuer: C = US, O = Let's Encrypt, CN = R3
        Validity
            Not Before: Jan  1 19:45:05 2022 GMT
            Not After : Apr  1 19:45:04 2022 GMT
        Subject: CN = t.wayfair.com
        Subject Public Key Info:
            Public Key Algorithm: rsaEncryption
                RSA Public-Key: (2048 bit)
                Modulus:
                    00:e6:ad:89:9c:97:2e:b0:72:e8:dc:a5:4c:9c:2c:
                    29:4f:4a:4f:f1:ce:b7:06:b2:a5:21:e3:6d:47:03:
                    c9:53:18:81:a9:0c:db:54:46:7a:1e:41:c9:89:12:
                    72:dd:c2:b2:49:02:30:23:9d:b6:c9:d3:e0:22:45:
                    31:d7:1d:48:38:30:31:b4:a6:12:72:6a:66:8c:51:
                    ba:48:b8:aa:cf:e9:4d:4c:ee:97:63:36:19:1a:79:
                    3c:1e:be:6a:d4:a7:b4:15:5b:05:8e:e1:04:b3:7e:
                    25:08:48:0b:bc:8f:f4:07:4a:98:e0:df:2e:a7:fc:
                    74:06:43:77:3f:38:ba:bf:e3:18:65:87:68:62:5a:
                    25:80:e4:5a:c8:b2:8a:cb:a2:05:67:f3:5f:0e:6e:
                    dc:4f:69:1f:69:98:cf:12:a4:db:f9:fe:9e:b6:7a:
                    2b:d2:82:35:c9:eb:5b:12:94:aa:ff:89:b5:44:5f:
                    d7:7b:cd:a8:0e:da:92:ce:46:2f:eb:d5:be:28:4b:
                    b3:ee:a0:2f:5e:87:b2:a7:1e:9c:32:b6:57:cf:1c:
                    c3:02:09:a2:b1:a0:0a:c1:7c:1c:11:09:93:d5:70:
                    32:11:98:9c:08:03:00:cc:00:d9:2c:af:48:ac:78:
                    39:87:4e:91:07:1a:8f:fa:75:34:2a:a4:16:0e:93:
                    1d:6b
                Exponent: 65537 (0x10001)
        X509v3 extensions:
            X509v3 Key Usage: critical
                Digital Signature, Key Encipherment
            X509v3 Extended Key Usage: 
                TLS Web Server Authentication, TLS Web Client Authentication
            X509v3 Basic Constraints: critical
                CA:FALSE
            X509v3 Subject Key Identifier: 
                E7:58:20:5D:82:32:8D:06:2C:35:1C:97:EC:1D:F9:74:84:A9:46:D1
            X509v3 Authority Key Identifier: 
                keyid:14:2E:B3:17:B7:58:56:CB:AE:50:09:40:E6:1F:AF:9D:8B:14:C2:C6

            Authority Information Access: 
                OCSP - URI:http://r3.o.lencr.org
                CA Issuers - URI:http://r3.i.lencr.org/

            X509v3 Subject Alternative Name: 
                DNS:magellan.wayfair.com, DNS:t.wayfair.com
            X509v3 Certificate Policies: 
                Policy: 2.23.140.1.2.1
                Policy: 1.3.6.1.4.1.44947.1.1.1
                  CPS: http://cps.letsencrypt.org

            CT Precertificate SCTs: 
                Signed Certificate Timestamp:
                    Version   : v1 (0x0)
                    Log ID    : 41:C8:CA:B1:DF:22:46:4A:10:C6:A1:3A:09:42:87:5E:
                                4E:31:8B:1B:03:EB:EB:4B:C7:68:F0:90:62:96:06:F6
                    Timestamp : Jan  1 20:45:05.213 2022 GMT
                    Extensions: none
                    Signature : ecdsa-with-SHA256
                                30:45:02:20:05:FB:47:45:BD:63:AD:FD:E7:AF:9E:7E:
                                D6:51:5A:1E:AB:62:FE:2A:27:4B:A0:ED:8A:4A:8F:B3:
                                C8:36:8C:BD:02:21:00:8B:07:10:4C:BF:07:1C:ED:54:
                                DF:28:2C:E3:B2:32:6B:43:48:E4:04:80:28:17:91:50:
                                8D:28:FC:58:08:BF:7C
                Signed Certificate Timestamp:
                    Version   : v1 (0x0)
                    Log ID    : 46:A5:55:EB:75:FA:91:20:30:B5:A2:89:69:F4:F3:7D:
                                11:2C:41:74:BE:FD:49:B8:85:AB:F2:FC:70:FE:6D:47
                    Timestamp : Jan  1 20:45:05.235 2022 GMT
                    Extensions: none
                    Signature : ecdsa-with-SHA256
                                30:44:02:20:73:8C:D6:ED:CC:59:2D:3D:5E:1A:37:E9:
                                42:A2:74:6D:95:1B:20:0E:19:91:40:0E:AD:A3:80:66:
                                48:FB:17:32:02:20:02:3A:61:DA:61:EF:CB:37:BB:97:
                                5E:AC:79:08:2B:5E:71:EA:9B:7B:FC:B4:F5:50:04:2E:
                                E0:40:42:44:2C:79
    Signature Algorithm: sha256WithRSAEncryption
         9d:eb:00:3c:46:54:f1:6d:64:29:7e:64:b8:73:6e:b2:69:c8:
         f9:bd:11:b1:46:a5:f6:4c:cd:77:ef:a3:51:24:65:bc:80:13:
         84:7c:07:6b:38:eb:37:7a:f3:77:79:ad:25:7a:7d:4b:43:f8:
         0d:e6:ad:4d:05:51:b6:b5:ba:6d:48:85:28:48:0b:13:eb:29:
         16:7d:e9:ad:dc:25:82:73:d5:68:7a:e5:de:2c:f2:c4:08:4f:
         84:e9:ba:db:e2:6d:31:7c:76:e0:95:85:0f:d9:cc:a8:f1:4a:
         79:58:18:23:dc:b0:21:ee:eb:36:13:d2:82:9a:34:8f:16:b2:
         e1:c0:39:3a:85:2c:05:22:89:2c:ad:22:9a:dc:9a:98:77:44:
         11:30:6d:2c:5d:7f:8e:9d:d7:86:6e:a6:bc:12:ce:74:22:83:
         51:20:62:ba:69:e6:12:46:7d:75:b9:7b:8d:a2:78:66:94:a4:
         dd:9e:b6:d4:9a:bf:d2:47:44:7f:0f:a3:cd:ce:4c:e8:80:b2:
         53:b8:ed:f7:96:16:0c:2d:04:16:63:e2:9d:07:c0:ea:6a:c8:
         31:78:cb:e2:81:cd:0a:12:e1:ff:a1:c4:05:00:32:4c:0f:68:
         04:11:7a:37:06:98:a8:34:26:b6:c3:b5:e8:14:93:8b:25:d5:
         27:2b:2a:a4

-----BEGIN CERTIFICATE-----
MIIFNTCCBB2gAwIBAgISBHv0/Sz7AZLVMMEPyRmDKknvMA0GCSqGSIb3DQEBCwUA
MDIxCzAJBgNVBAYTAlVTMRYwFAYDVQQKEw1MZXQncyBFbmNyeXB0MQswCQYDVQQD
EwJSMzAeFw0yMjAxMDExOTQ1MDVaFw0yMjA0MDExOTQ1MDRaMBgxFjAUBgNVBAMT
DXQud2F5ZmFpci5jb20wggEiMA0GCSqGSIb3DQEBAQUAA4IBDwAwggEKAoIBAQDm
rYmcly6wcujcpUycLClPSk/xzrcGsqUh421HA8lTGIGpDNtURnoeQcmJEnLdwrJJ
AjAjnbbJ0+AiRTHXHUg4MDG0phJyamaMUbpIuKrP6U1M7pdjNhkaeTwevmrUp7QV
WwWO4QSzfiUISAu8j/QHSpjg3y6n/HQGQ3c/OLq/4xhlh2hiWiWA5FrIsorLogVn
818ObtxPaR9pmM8SpNv5/p62eivSgjXJ61sSlKr/ibVEX9d7zagO2pLORi/r1b4o
S7PuoC9eh7KnHpwytlfPHMMCCaKxoArBfBwRCZPVcDIRmJwIAwDMANksr0iseDmH
TpEHGo/6dTQqpBYOkx1rAgMBAAGjggJdMIICWTAOBgNVHQ8BAf8EBAMCBaAwHQYD
VR0lBBYwFAYIKwYBBQUHAwEGCCsGAQUFBwMCMAwGA1UdEwEB/wQCMAAwHQYDVR0O
BBYEFOdYIF2CMo0GLDUcl+wd+XSEqUbRMB8GA1UdIwQYMBaAFBQusxe3WFbLrlAJ
QOYfr52LFMLGMFUGCCsGAQUFBwEBBEkwRzAhBggrBgEFBQcwAYYVaHR0cDovL3Iz
Lm8ubGVuY3Iub3JnMCIGCCsGAQUFBzAChhZodHRwOi8vcjMuaS5sZW5jci5vcmcv
MC4GA1UdEQQnMCWCFG1hZ2VsbGFuLndheWZhaXIuY29tgg10LndheWZhaXIuY29t
MEwGA1UdIARFMEMwCAYGZ4EMAQIBMDcGCysGAQQBgt8TAQEBMCgwJgYIKwYBBQUH
AgEWGmh0dHA6Ly9jcHMubGV0c2VuY3J5cHQub3JnMIIBAwYKKwYBBAHWeQIEAgSB
9ASB8QDvAHYAQcjKsd8iRkoQxqE6CUKHXk4xixsD6+tLx2jwkGKWBvYAAAF+F2OF
PQAABAMARzBFAiAF+0dFvWOt/eevnn7WUVoeq2L+KidLoO2KSo+zyDaMvQIhAIsH
EEy/BxztVN8oLOOyMmtDSOQEgCgXkVCNKPxYCL98AHUARqVV63X6kSAwtaKJafTz
fREsQXS+/Um4havy/HD+bUcAAAF+F2OFUwAABAMARjBEAiBzjNbtzFktPV4aN+lC
onRtlRsgDhmRQA6to4BmSPsXMgIgAjph2mHvyze7l16seQgrXnHqm3v8tPVQBC7g
QEJELHkwDQYJKoZIhvcNAQELBQADggEBAJ3rADxGVPFtZCl+ZLhzbrJpyPm9EbFG
pfZMzXfvo1EkZbyAE4R8B2s46zd683d5rSV6fUtD+A3mrU0FUba1um1IhShICxPr
KRZ96a3cJYJz1Wh65d4s8sQIT4TputvibTF8duCVhQ/ZzKjxSnlYGCPcsCHu6zYT
0oKaNI8WsuHAOTqFLAUiiSytIprcmph3RBEwbSxdf46d14ZuprwSznQig1EgYrpp
5hJGfXW5e42ieGaUpN2ettSav9JHRH8Po83OTOiAslO47feWFgwtBBZj4p0HwOpq
yDF4y+KBzQoS4f+hxAUAMkwPaAQRejcGmKg0JrbDtegUk4sl1ScrKqQ=
-----END CERTIFICATE-----

===========================================
Certificate1: 67add1166b020ae61b8f5fc96813c04c2aa589960796865572a3c7e737613dfd
===========================================
Certificate:
    Data:
        Version: 3 (0x2)
        Serial Number:
            91:2b:08:4a:cf:0c:18:a7:53:f6:d6:2e:25:a7:5f:5a
        Signature Algorithm: sha256WithRSAEncryption
        Issuer: C = US, O = Internet Security Research Group, CN = ISRG Root X1
        Validity
            Not Before: Sep  4 00:00:00 2020 GMT
            Not After : Sep 15 16:00:00 2025 GMT
        Subject: C = US, O = Let's Encrypt, CN = R3
        Subject Public Key Info:
            Public Key Algorithm: rsaEncryption
                RSA Public-Key: (2048 bit)
                Modulus:
                    00:bb:02:15:28:cc:f6:a0:94:d3:0f:12:ec:8d:55:
                    92:c3:f8:82:f1:99:a6:7a:42:88:a7:5d:26:aa:b5:
                    2b:b9:c5:4c:b1:af:8e:6b:f9:75:c8:a3:d7:0f:47:
                    94:14:55:35:57:8c:9e:a8:a2:39:19:f5:82:3c:42:
                    a9:4e:6e:f5:3b:c3:2e:db:8d:c0:b0:5c:f3:59:38:
                    e7:ed:cf:69:f0:5a:0b:1b:be:c0:94:24:25:87:fa:
                    37:71:b3:13:e7:1c:ac:e1:9b:ef:db:e4:3b:45:52:
                    45:96:a9:c1:53:ce:34:c8:52:ee:b5:ae:ed:8f:de:
                    60:70:e2:a5:54:ab:b6:6d:0e:97:a5:40:34:6b:2b:
                    d3:bc:66:eb:66:34:7c:fa:6b:8b:8f:57:29:99:f8:
                    30:17:5d:ba:72:6f:fb:81:c5:ad:d2:86:58:3d:17:
                    c7:e7:09:bb:f1:2b:f7:86:dc:c1:da:71:5d:d4:46:
                    e3:cc:ad:25:c1:88:bc:60:67:75:66:b3:f1:18:f7:
                    a2:5c:e6:53:ff:3a:88:b6:47:a5:ff:13:18:ea:98:
                    09:77:3f:9d:53:f9:cf:01:e5:f5:a6:70:17:14:af:
                    63:a4:ff:99:b3:93:9d:dc:53:a7:06:fe:48:85:1d:
                    a1:69:ae:25:75:bb:13:cc:52:03:f5:ed:51:a1:8b:
                    db:15
                Exponent: 65537 (0x10001)
        X509v3 extensions:
            X509v3 Key Usage: critical
                Digital Signature, Certificate Sign, CRL Sign
            X509v3 Extended Key Usage: 
                TLS Web Client Authentication, TLS Web Server Authentication
            X509v3 Basic Constraints: critical
                CA:TRUE, pathlen:0
            X509v3 Subject Key Identifier: 
                14:2E:B3:17:B7:58:56:CB:AE:50:09:40:E6:1F:AF:9D:8B:14:C2:C6
            X509v3 Authority Key Identifier: 
                keyid:79:B4:59:E6:7B:B6:E5:E4:01:73:80:08:88:C8:1A:58:F6:E9:9B:6E

            Authority Information Access: 
                CA Issuers - URI:http://x1.i.lencr.org/

            X509v3 CRL Distribution Points: 

                Full Name:
                  URI:http://x1.c.lencr.org/

            X509v3 Certificate Policies: 
                Policy: 2.23.140.1.2.1
                Policy: 1.3.6.1.4.1.44947.1.1.1

    Signature Algorithm: sha256WithRSAEncryption
         85:ca:4e:47:3e:a3:f7:85:44:85:bc:d5:67:78:b2:98:63:ad:
         75:4d:1e:96:3d:33:65:72:54:2d:81:a0:ea:c3:ed:f8:20:bf:
         5f:cc:b7:70:00:b7:6e:3b:f6:5e:94:de:e4:20:9f:a6:ef:8b:
         b2:03:e7:a2:b5:16:3c:91:ce:b4:ed:39:02:e7:7c:25:8a:47:
         e6:65:6e:3f:46:f4:d9:f0:ce:94:2b:ee:54:ce:12:bc:8c:27:
         4b:b8:c1:98:2f:a2:af:cd:71:91:4a:08:b7:c8:b8:23:7b:04:
         2d:08:f9:08:57:3e:83:d9:04:33:0a:47:21:78:09:82:27:c3:
         2a:c8:9b:b9:ce:5c:f2:64:c8:c0:be:79:c0:4f:8e:6d:44:0c:
         5e:92:bb:2e:f7:8b:10:e1:e8:1d:44:29:db:59:20:ed:63:b9:
         21:f8:12:26:94:93:57:a0:1d:65:04:c1:0a:22:ae:10:0d:43:
         97:a1:18:1f:7e:e0:e0:86:37:b5:5a:b1:bd:30:bf:87:6e:2b:
         2a:ff:21:4e:1b:05:c3:f5:18:97:f0:5e:ac:c3:a5:b8:6a:f0:
         2e:bc:3b:33:b9:ee:4b:de:cc:fc:e4:af:84:0b:86:3f:c0:55:
         43:36:f6:68:e1:36:17:6a:8e:99:d1:ff:a5:40:a7:34:b7:c0:
         d0:63:39:35:39:75:6e:f2:ba:76:c8:93:02:e9:a9:4b:6c:17:
         ce:0c:02:d9:bd:81:fb:9f:b7:68:d4:06:65:b3:82:3d:77:53:
         f8:8e:79:03:ad:0a:31:07:75:2a:43:d8:55:97:72:c4:29:0e:
         f7:c4:5d:4e:c8:ae:46:84:30:d7:f2:85:5f:18:a1:79:bb:e7:
         5e:70:8b:07:e1:86:93:c3:b9:8f:dc:61:71:25:2a:af:df:ed:
         25:50:52:68:8b:92:dc:e5:d6:b5:e3:da:7d:d0:87:6c:84:21:
         31:ae:82:f5:fb:b9:ab:c8:89:17:3d:e1:4c:e5:38:0e:f6:bd:
         2b:bd:96:81:14:eb:d5:db:3d:20:a7:7e:59:d3:e2:f8:58:f9:
         5b:b8:48:cd:fe:5c:4f:16:29:fe:1e:55:23:af:c8:11:b0:8d:
         ea:7c:93:90:17:2f:fd:ac:a2:09:47:46:3f:f0:e9:b0:b7:ff:
         28:4d:68:32:d6:67:5e:1e:69:a3:93:b8:f5:9d:8b:2f:0b:d2:
         52:43:a6:6f:32:57:65:4d:32:81:df:38:53:85:5d:7e:5d:66:
         29:ea:b8:dd:e4:95:b5:cd:b5:56:12:42:cd:c4:4e:c6:25:38:
         44:50:6d:ec:ce:00:55:18:fe:e9:49:64:d4:4e:ca:97:9c:b4:
         5b:c0:73:a8:ab:b8:47:c2

-----BEGIN CERTIFICATE-----
MIIFFjCCAv6gAwIBAgIRAJErCErPDBinU/bWLiWnX1owDQYJKoZIhvcNAQELBQAw
TzELMAkGA1UEBhMCVVMxKTAnBgNVBAoTIEludGVybmV0IFNlY3VyaXR5IFJlc2Vh
cmNoIEdyb3VwMRUwEwYDVQQDEwxJU1JHIFJvb3QgWDEwHhcNMjAwOTA0MDAwMDAw
WhcNMjUwOTE1MTYwMDAwWjAyMQswCQYDVQQGEwJVUzEWMBQGA1UEChMNTGV0J3Mg
RW5jcnlwdDELMAkGA1UEAxMCUjMwggEiMA0GCSqGSIb3DQEBAQUAA4IBDwAwggEK
AoIBAQC7AhUozPaglNMPEuyNVZLD+ILxmaZ6QoinXSaqtSu5xUyxr45r+XXIo9cP
R5QUVTVXjJ6oojkZ9YI8QqlObvU7wy7bjcCwXPNZOOftz2nwWgsbvsCUJCWH+jdx
sxPnHKzhm+/b5DtFUkWWqcFTzjTIUu61ru2P3mBw4qVUq7ZtDpelQDRrK9O8Zutm
NHz6a4uPVymZ+DAXXbpyb/uBxa3Shlg9F8fnCbvxK/eG3MHacV3URuPMrSXBiLxg
Z3Vms/EY96Jc5lP/Ooi2R6X/ExjqmAl3P51T+c8B5fWmcBcUr2Ok/5mzk53cU6cG
/kiFHaFpriV1uxPMUgP17VGhi9sVAgMBAAGjggEIMIIBBDAOBgNVHQ8BAf8EBAMC
AYYwHQYDVR0lBBYwFAYIKwYBBQUHAwIGCCsGAQUFBwMBMBIGA1UdEwEB/wQIMAYB
Af8CAQAwHQYDVR0OBBYEFBQusxe3WFbLrlAJQOYfr52LFMLGMB8GA1UdIwQYMBaA
FHm0WeZ7tuXkAXOACIjIGlj26ZtuMDIGCCsGAQUFBwEBBCYwJDAiBggrBgEFBQcw
AoYWaHR0cDovL3gxLmkubGVuY3Iub3JnLzAnBgNVHR8EIDAeMBygGqAYhhZodHRw
Oi8veDEuYy5sZW5jci5vcmcvMCIGA1UdIAQbMBkwCAYGZ4EMAQIBMA0GCysGAQQB
gt8TAQEBMA0GCSqGSIb3DQEBCwUAA4ICAQCFyk5HPqP3hUSFvNVneLKYY611TR6W
PTNlclQtgaDqw+34IL9fzLdwALduO/ZelN7kIJ+m74uyA+eitRY8kc607TkC53wl
ikfmZW4/RvTZ8M6UK+5UzhK8jCdLuMGYL6KvzXGRSgi3yLgjewQtCPkIVz6D2QQz
CkcheAmCJ8MqyJu5zlzyZMjAvnnAT45tRAxekrsu94sQ4egdRCnbWSDtY7kh+BIm
lJNXoB1lBMEKIq4QDUOXoRgffuDghje1WrG9ML+Hbisq/yFOGwXD9RiX8F6sw6W4
avAuvDszue5L3sz85K+EC4Y/wFVDNvZo4TYXao6Z0f+lQKc0t8DQYzk1OXVu8rp2
yJMC6alLbBfODALZvYH7n7do1AZls4I9d1P4jnkDrQoxB3UqQ9hVl3LEKQ73xF1O
yK5GhDDX8oVfGKF5u+decIsH4YaTw7mP3GFxJSqv3+0lUFJoi5Lc5da149p90Ids
hCExroL1+7mryIkXPeFM5TgO9r0rvZaBFOvV2z0gp35Z0+L4WPlbuEjN/lxPFin+
HlUjr8gRsI3qfJOQFy/9rKIJR0Y/8Omwt/8oTWgy1mdeHmmjk7j1nYsvC9JSQ6Zv
MldlTTKB3zhThV1+XWYp6rjd5JW1zbVWEkLNxE7GJThEUG3szgBVGP7pSWTUTsqX
nLRbwHOoq7hHwg==
-----END CERTIFICATE-----

===========================================
Certificate2: 96bcec06264976f37460779acf28c5a7cfe8a3c0aae11a8ffcee05c0bddf08c6
===========================================
Certificate:
    Data:
        Version: 3 (0x2)
        Serial Number:
            82:10:cf:b0:d2:40:e3:59:44:63:e0:bb:63:82:8b:00
        Signature Algorithm: sha256WithRSAEncryption
        Issuer: C = US, O = Internet Security Research Group, CN = ISRG Root X1
        Validity
            Not Before: Jun  4 11:04:38 2015 GMT
            Not After : Jun  4 11:04:38 2035 GMT
        Subject: C = US, O = Internet Security Research Group, CN = ISRG Root X1
        Subject Public Key Info:
            Public Key Algorithm: rsaEncryption
                RSA Public-Key: (4096 bit)
                Modulus:
                    00:ad:e8:24:73:f4:14:37:f3:9b:9e:2b:57:28:1c:
                    87:be:dc:b7:df:38:90:8c:6e:3c:e6:57:a0:78:f7:
                    75:c2:a2:fe:f5:6a:6e:f6:00:4f:28:db:de:68:86:
                    6c:44:93:b6:b1:63:fd:14:12:6b:bf:1f:d2:ea:31:
                    9b:21:7e:d1:33:3c:ba:48:f5:dd:79:df:b3:b8:ff:
                    12:f1:21:9a:4b:c1:8a:86:71:69:4a:66:66:6c:8f:
                    7e:3c:70:bf:ad:29:22:06:f3:e4:c0:e6:80:ae:e2:
                    4b:8f:b7:99:7e:94:03:9f:d3:47:97:7c:99:48:23:
                    53:e8:38:ae:4f:0a:6f:83:2e:d1:49:57:8c:80:74:
                    b6:da:2f:d0:38:8d:7b:03:70:21:1b:75:f2:30:3c:
                    fa:8f:ae:dd:da:63:ab:eb:16:4f:c2:8e:11:4b:7e:
                    cf:0b:e8:ff:b5:77:2e:f4:b2:7b:4a:e0:4c:12:25:
                    0c:70:8d:03:29:a0:e1:53:24:ec:13:d9:ee:19:bf:
                    10:b3:4a:8c:3f:89:a3:61:51:de:ac:87:07:94:f4:
                    63:71:ec:2e:e2:6f:5b:98:81:e1:89:5c:34:79:6c:
                    76:ef:3b:90:62:79:e6:db:a4:9a:2f:26:c5:d0:10:
                    e1:0e:de:d9:10:8e:16:fb:b7:f7:a8:f7:c7:e5:02:
                    07:98:8f:36:08:95:e7:e2:37:96:0d:36:75:9e:fb:
                    0e:72:b1:1d:9b:bc:03:f9:49:05:d8:81:dd:05:b4:
                    2a:d6:41:e9:ac:01:76:95:0a:0f:d8:df:d5:bd:12:
                    1f:35:2f:28:17:6c:d2:98:c1:a8:09:64:77:6e:47:
                    37:ba:ce:ac:59:5e:68:9d:7f:72:d6:89:c5:06:41:
                    29:3e:59:3e:dd:26:f5:24:c9:11:a7:5a:a3:4c:40:
                    1f:46:a1:99:b5:a7:3a:51:6e:86:3b:9e:7d:72:a7:
                    12:05:78:59:ed:3e:51:78:15:0b:03:8f:8d:d0:2f:
                    05:b2:3e:7b:4a:1c:4b:73:05:12:fc:c6:ea:e0:50:
                    13:7c:43:93:74:b3:ca:74:e7:8e:1f:01:08:d0:30:
                    d4:5b:71:36:b4:07:ba:c1:30:30:5c:48:b7:82:3b:
                    98:a6:7d:60:8a:a2:a3:29:82:cc:ba:bd:83:04:1b:
                    a2:83:03:41:a1:d6:05:f1:1b:c2:b6:f0:a8:7c:86:
                    3b:46:a8:48:2a:88:dc:76:9a:76:bf:1f:6a:a5:3d:
                    19:8f:eb:38:f3:64:de:c8:2b:0d:0a:28:ff:f7:db:
                    e2:15:42:d4:22:d0:27:5d:e1:79:fe:18:e7:70:88:
                    ad:4e:e6:d9:8b:3a:c6:dd:27:51:6e:ff:bc:64:f5:
                    33:43:4f
                Exponent: 65537 (0x10001)
        X509v3 extensions:
            X509v3 Key Usage: critical
                Certificate Sign, CRL Sign
            X509v3 Basic Constraints: critical
                CA:TRUE
            X509v3 Subject Key Identifier: 
                79:B4:59:E6:7B:B6:E5:E4:01:73:80:08:88:C8:1A:58:F6:E9:9B:6E
    Signature Algorithm: sha256WithRSAEncryption
         55:1f:58:a9:bc:b2:a8:50:d0:0c:b1:d8:1a:69:20:27:29:08:
         ac:61:75:5c:8a:6e:f8:82:e5:69:2f:d5:f6:56:4b:b9:b8:73:
         10:59:d3:21:97:7e:e7:4c:71:fb:b2:d2:60:ad:39:a8:0b:ea:
         17:21:56:85:f1:50:0e:59:eb:ce:e0:59:e9:ba:c9:15:ef:86:
         9d:8f:84:80:f6:e4:e9:91:90:dc:17:9b:62:1b:45:f0:66:95:
         d2:7c:6f:c2:ea:3b:ef:1f:cf:cb:d6:ae:27:f1:a9:b0:c8:ae:
         fd:7d:7e:9a:fa:22:04:eb:ff:d9:7f:ea:91:2b:22:b1:17:0e:
         8f:f2:8a:34:5b:58:d8:fc:01:c9:54:b9:b8:26:cc:8a:88:33:
         89:4c:2d:84:3c:82:df:ee:96:57:05:ba:2c:bb:f7:c4:b7:c7:
         4e:3b:82:be:31:c8:22:73:73:92:d1:c2:80:a4:39:39:10:33:
         23:82:4c:3c:9f:86:b2:55:98:1d:be:29:86:8c:22:9b:9e:e2:
         6b:3b:57:3a:82:70:4d:dc:09:c7:89:cb:0a:07:4d:6c:e8:5d:
         8e:c9:ef:ce:ab:c7:bb:b5:2b:4e:45:d6:4a:d0:26:cc:e5:72:
         ca:08:6a:a5:95:e3:15:a1:f7:a4:ed:c9:2c:5f:a5:fb:ff:ac:
         28:02:2e:be:d7:7b:bb:e3:71:7b:90:16:d3:07:5e:46:53:7c:
         37:07:42:8c:d3:c4:96:9c:d5:99:b5:2a:e0:95:1a:80:48:ae:
         4c:39:07:ce:cc:47:a4:52:95:2b:ba:b8:fb:ad:d2:33:53:7d:
         e5:1d:4d:6d:d5:a1:b1:c7:42:6f:e6:40:27:35:5c:a3:28:b7:
         07:8d:e7:8d:33:90:e7:23:9f:fb:50:9c:79:6c:46:d5:b4:15:
         b3:96:6e:7e:9b:0c:96:3a:b8:52:2d:3f:d6:5b:e1:fb:08:c2:
         84:fe:24:a8:a3:89:da:ac:6a:e1:18:2a:b1:a8:43:61:5b:d3:
         1f:dc:3b:8d:76:f2:2d:e8:8d:75:df:17:33:6c:3d:53:fb:7b:
         cb:41:5f:ff:dc:a2:d0:61:38:e1:96:b8:ac:5d:8b:37:d7:75:
         d5:33:c0:99:11:ae:9d:41:c1:72:75:84:be:02:41:42:5f:67:
         24:48:94:d1:9b:27:be:07:3f:b9:b8:4f:81:74:51:e1:7a:b7:
         ed:9d:23:e2:be:e0:d5:28:04:13:3c:31:03:9e:dd:7a:6c:8f:
         c6:07:18:c6:7f:de:47:8e:3f:28:9e:04:06:cf:a5:54:34:77:
         bd:ec:89:9b:e9:17:43:df:5b:db:5f:fe:8e:1e:57:a2:cd:40:
         9d:7e:62:22:da:de:18:27

-----BEGIN CERTIFICATE-----
MIIFazCCA1OgAwIBAgIRAIIQz7DSQONZRGPgu2OCiwAwDQYJKoZIhvcNAQELBQAw
TzELMAkGA1UEBhMCVVMxKTAnBgNVBAoTIEludGVybmV0IFNlY3VyaXR5IFJlc2Vh
cmNoIEdyb3VwMRUwEwYDVQQDEwxJU1JHIFJvb3QgWDEwHhcNMTUwNjA0MTEwNDM4
WhcNMzUwNjA0MTEwNDM4WjBPMQswCQYDVQQGEwJVUzEpMCcGA1UEChMgSW50ZXJu
ZXQgU2VjdXJpdHkgUmVzZWFyY2ggR3JvdXAxFTATBgNVBAMTDElTUkcgUm9vdCBY
MTCCAiIwDQYJKoZIhvcNAQEBBQADggIPADCCAgoCggIBAK3oJHP0FDfzm54rVygc
h77ct984kIxuPOZXoHj3dcKi/vVqbvYATyjb3miGbESTtrFj/RQSa78f0uoxmyF+
0TM8ukj13Xnfs7j/EvEhmkvBioZxaUpmZmyPfjxwv60pIgbz5MDmgK7iS4+3mX6U
A5/TR5d8mUgjU+g4rk8Kb4Mu0UlXjIB0ttov0DiNewNwIRt18jA8+o+u3dpjq+sW
T8KOEUt+zwvo/7V3LvSye0rgTBIlDHCNAymg4VMk7BPZ7hm/ELNKjD+Jo2FR3qyH
B5T0Y3HsLuJvW5iB4YlcNHlsdu87kGJ55tukmi8mxdAQ4Q7e2RCOFvu396j3x+UC
B5iPNgiV5+I3lg02dZ77DnKxHZu8A/lJBdiB3QW0KtZB6awBdpUKD9jf1b0SHzUv
KBds0pjBqAlkd25HN7rOrFleaJ1/ctaJxQZBKT5ZPt0m9STJEadao0xAH0ahmbWn
OlFuhjuefXKnEgV4We0+UXgVCwOPjdAvBbI+e0ocS3MFEvzG6uBQE3xDk3SzynTn
jh8BCNAw1FtxNrQHusEwMFxIt4I7mKZ9YIqioymCzLq9gwQbooMDQaHWBfEbwrbw
qHyGO0aoSCqI3Haadr8faqU9GY/rOPNk3sgrDQoo//fb4hVC1CLQJ13hef4Y53CI
rU7m2Ys6xt0nUW7/vGT1M0NPAgMBAAGjQjBAMA4GA1UdDwEB/wQEAwIBBjAPBgNV
HRMBAf8EBTADAQH/MB0GA1UdDgQWBBR5tFnme7bl5AFzgAiIyBpY9umbbjANBgkq
hkiG9w0BAQsFAAOCAgEAVR9YqbyyqFDQDLHYGmkgJykIrGF1XIpu+ILlaS/V9lZL
ubhzEFnTIZd+50xx+7LSYK05qAvqFyFWhfFQDlnrzuBZ6brJFe+GnY+EgPbk6ZGQ
3BebYhtF8GaV0nxvwuo77x/Py9auJ/GpsMiu/X1+mvoiBOv/2X/qkSsisRcOj/KK
NFtY2PwByVS5uCbMiogziUwthDyC3+6WVwW6LLv3xLfHTjuCvjHIInNzktHCgKQ5
ORAzI4JMPJ+GslWYHb4phowim57iaztXOoJwTdwJx4nLCgdNbOhdjsnvzqvHu7Ur
TkXWStAmzOVyyghqpZXjFaH3pO3JLF+l+/+sKAIuvtd7u+Nxe5AW0wdeRlN8NwdC
jNPElpzVmbUq4JUagEiuTDkHzsxHpFKVK7q4+63SM1N95R1NbdWhscdCb+ZAJzVc
oyi3B43njTOQ5yOf+1CceWxG1bQVs5ZufpsMljq4Ui0/1lvh+wjChP4kqKOJ2qxq
4RgqsahDYVvTH9w7jXbyLeiNdd8XM2w9U/t7y0Ff/9yi0GE44Za4rF2LN9d11TPA
mRGunUHBcnWEvgJBQl9nJEiU0Zsnvgc/ubhPgXRR4Xq37Z0j4r7g1SgEEzwxA57d
emyPxgcYxn/eR44/KJ4EBs+lVDR3veyJm+kXQ99b21/+jh5Xos1AnX5iItreGCc=
-----END CERTIFICATE-----

