-----BEGIN PRIVATE KEY-----
MIIEvwIBADANBgkqhkiG9w0BAQEFAASCBKkwggSlAgEAAoIBAQDdMNTtFer7VSdt
l6zPVbTtl9+an2G7yIJJM/SxOmDfoxkgYKnuOfR8D45dcjVTDzyRQTxUQfIXfRWx
ZqzSjVA1ax2Jc7+nAQV58q7aIpXG1dUkxS23uYKXenkZLRdr7s97F1+xiTJxYuqB
KIIqI5q6H9TWHkgbsVbywc5hIlThH1DDPs7eopMnKfq3tK3QGemaviIhcVPFouh5
OW97udBXzeRB9niLLyHbH9tlxdUmBm+eNZu+kZtFVGz+a9bleRFPnReevSomqLfD
DYbuuCSOyXKiGOjtaiJ+MZRkHZF+arHoGq4u4bElyQf7waJyfoxnJn8qE3Ek9jo7
Ddy/g+CPAgMBAAECggEBANbEnVp/F6RmMFx3E3JV09GGz7SA4RLGQ8r0Sbjz6C/9
W15WvWj0mPEE4cTWKfS2LKcVYpClX31zFOclvNTMJX9YvFtEKmjr0vdvrltbjXZ9
FfIYCqYD2Etgvci2QbGpNYhdT6tAfdweoXg7bvefjpL+aVhmGrnY3YXkrJEgFq5m
PWoPflqmrBA7ktNI2crLa/ty/bIIH6srIJVpRRle1NdUMIv9W1vFsK0HLV+BuOoQ
TqkjMybqWapAhCfTj85fjeoMggRbJyq9+uDpZBYqIcb/qFkSnWyqEq3y+xvpQqN7
oGPaeh4+Zyb6aHcQnVHBrhr5lbo6mgGYDw/yO/KDaIECgYEA9KX/xZb6z8on36kp
f9Kv8U/eq4rcyywxJtl+HPVLcSz/fIb5pAhtGbfG9VTjc/mVlrh/lB5w7qb/Lq+f
8oGUTv5eUzUXRI+d5AZwf2aTLeHWMSn02ouK1u8bJ8C2qv8FYu7Kb5lIDTJM7SEE
7hbdPF7FPlZAh59oLdUUXW8Aj+ECgYEA53QyIwbM4nMQVbeC4T+ahkLIYfZP+Yct
PMxW49VjDuZIQzeGMbxCMebsG2BHJ3n7vh9WUDEotb2ApFaBc7ChiJCOvH3vdJWM
ljBxVebaZsKSdv8ZzbYbpJR2tO2ZzifMN67JrM3Ge7k5sgJLhxsMfn7uXIO3aPQj
lsgdWc0NPm8CgYEArVCcLgKTlHkGXnCcsa00b6PBf41UdarM91TE/wbXd0oFhNaq
LAa8I6gKDusgZ5y82JXD687U+nzb8tsAWPBrfLq/X/sQjMWheVUGhXrJcYu4DgRH
LjwFE9c4SaVAw0r/KeM5Dm5smMy1qpflwjX4bThGS68W7/2B9FYrozVsFIECgYAk
vHqguJmYb67uC/yIB/Jc0QjBE7lJ37y8Y6p+6wWX/dEGai+wgTL4fLCI/9ULXP8q
BAtNGyBdCED81IYjeKuK43bkUBDLrljsFbBHdCbCHKvmm0LbNcZZbv8QZI3+/K4b
QHDeLqMMTC/uIxMd1Js9EKSApp9b1zQ24HhYIoWxnQKBgQDxsyI6BCxtLO8wzAjW
xWie6xH3o8MXi544URFhFs3Y/xCj4slha1yYb/CBzLN/IxKtBA2Kbox4/rWHaWLT
QUmcL8vcTRTx7yvrXuMXGunoF8q7adcfPDrAqaJ4OdkMy5W5VBhHqMjj+4cIy9Yq
LkC9LPJjUl2Ai8j8tLTVGB01HQ==
-----END PRIVATE KEY-----
Certificate:
    Data:
        Version: 3 (0x2)
        Serial Number:
            5a:84:70:47:19:f5:1a:b1:2b:02:fc:31:3f:08:cd:33
        Signature Algorithm: sha256WithRSAEncryption
        Issuer: C=US, ST=California, L=Mountain View, O=Test CA, CN=Test Root CA
        Validity
            Not Before: Oct 10 20:46:12 2024 GMT
            Not After : Oct 10 20:46:12 2026 GMT
        Subject: C=US, ST=California, L=Mountain View, O=Test CA, CN=localhost
        Subject Public Key Info:
            Public Key Algorithm: rsaEncryption
                Public-Key: (2048 bit)
                Modulus:
                    00:dd:30:d4:ed:15:ea:fb:55:27:6d:97:ac:cf:55:
                    b4:ed:97:df:9a:9f:61:bb:c8:82:49:33:f4:b1:3a:
                    60:df:a3:19:20:60:a9:ee:39:f4:7c:0f:8e:5d:72:
                    35:53:0f:3c:91:41:3c:54:41:f2:17:7d:15:b1:66:
                    ac:d2:8d:50:35:6b:1d:89:73:bf:a7:01:05:79:f2:
                    ae:da:22:95:c6:d5:d5:24:c5:2d:b7:b9:82:97:7a:
                    79:19:2d:17:6b:ee:cf:7b:17:5f:b1:89:32:71:62:
                    ea:81:28:82:2a:23:9a:ba:1f:d4:d6:1e:48:1b:b1:
                    56:f2:c1:ce:61:22:54:e1:1f:50:c3:3e:ce:de:a2:
                    93:27:29:fa:b7:b4:ad:d0:19:e9:9a:be:22:21:71:
                    53:c5:a2:e8:79:39:6f:7b:b9:d0:57:cd:e4:41:f6:
                    78:8b:2f:21:db:1f:db:65:c5:d5:26:06:6f:9e:35:
                    9b:be:91:9b:45:54:6c:fe:6b:d6:e5:79:11:4f:9d:
                    17:9e:bd:2a:26:a8:b7:c3:0d:86:ee:b8:24:8e:c9:
                    72:a2:18:e8:ed:6a:22:7e:31:94:64:1d:91:7e:6a:
                    b1:e8:1a:ae:2e:e1:b1:25:c9:07:fb:c1:a2:72:7e:
                    8c:67:26:7f:2a:13:71:24:f6:3a:3b:0d:dc:bf:83:
                    e0:8f
                Exponent: 65537 (0x10001)
        X509v3 extensions:
            X509v3 Basic Constraints: critical
                CA:FALSE
            X509v3 Subject Key Identifier: 
                82:64:D7:FB:A9:83:29:D9:3D:A4:7B:9E:A5:2F:1C:FB:C4:34:4D:CB
            X509v3 Authority Key Identifier: 
                9B:26:0B:8A:98:A9:BB:1D:B9:1F:1C:E3:1A:40:33:ED:8E:17:88:AB
            X509v3 Extended Key Usage: 
                TLS Web Server Authentication, TLS Web Client Authentication
            X509v3 Subject Alternative Name: 
                DNS:localhost
    Signature Algorithm: sha256WithRSAEncryption
    Signature Value:
        2c:b1:4a:7d:c9:9f:5a:a0:8e:08:71:20:22:1c:ed:53:db:5f:
        ba:8b:05:b6:61:76:43:ae:c1:16:dd:0a:e2:c0:85:b8:63:00:
        4b:f0:51:fb:ad:bb:06:f8:c9:cd:5e:95:c6:17:b6:82:16:34:
        39:2c:38:b7:4b:e2:58:2b:c4:de:ed:78:32:ef:5c:e9:53:6b:
        b1:b2:16:d9:87:ba:9d:ff:41:76:f6:20:2a:9b:40:4a:71:7d:
        5e:48:2e:88:6d:60:2a:ff:e1:7c:4a:f3:6f:16:ec:78:ba:9e:
        c0:b3:df:0b:47:6d:10:c8:cb:7b:67:ac:7a:e6:1c:64:74:a0:
        56:2d:60:8c:42:4b:f0:1f:d0:2d:4f:9e:5d:58:48:b5:d8:bf:
        a2:c6:cc:0a:af:7b:fa:88:65:ba:89:09:f5:88:3c:8f:11:a5:
        7c:17:46:d9:1b:70:f8:43:f5:9e:7a:dd:dc:ce:7f:0d:c1:fb:
        14:a8:67:47:bc:96:0e:92:d0:91:cd:4b:61:e8:ee:7a:8c:ef:
        10:89:1e:23:47:64:73:88:c6:8d:ae:7c:a3:0b:9a:3f:10:36:
        27:21:35:71:5f:f3:ec:61:4d:8b:d4:8f:58:32:83:b5:e6:ed:
        b3:0c:c6:1b:1f:6b:50:af:ca:dd:eb:93:bc:2a:df:33:df:79:
        ad:3e:52:44
-----BEGIN CERTIFICATE-----
MIID1DCCArygAwIBAgIQWoRwRxn1GrErAvwxPwjNMzANBgkqhkiG9w0BAQsFADBj
MQswCQYDVQQGEwJVUzETMBEGA1UECAwKQ2FsaWZvcm5pYTEWMBQGA1UEBwwNTW91
bnRhaW4gVmlldzEQMA4GA1UECgwHVGVzdCBDQTEVMBMGA1UEAwwMVGVzdCBSb290
IENBMB4XDTI0MTAxMDIwNDYxMloXDTI2MTAxMDIwNDYxMlowYDELMAkGA1UEBhMC
VVMxEzARBgNVBAgMCkNhbGlmb3JuaWExFjAUBgNVBAcMDU1vdW50YWluIFZpZXcx
EDAOBgNVBAoMB1Rlc3QgQ0ExEjAQBgNVBAMMCWxvY2FsaG9zdDCCASIwDQYJKoZI
hvcNAQEBBQADggEPADCCAQoCggEBAN0w1O0V6vtVJ22XrM9VtO2X35qfYbvIgkkz
9LE6YN+jGSBgqe459HwPjl1yNVMPPJFBPFRB8hd9FbFmrNKNUDVrHYlzv6cBBXny
rtoilcbV1STFLbe5gpd6eRktF2vuz3sXX7GJMnFi6oEogiojmrof1NYeSBuxVvLB
zmEiVOEfUMM+zt6ikycp+re0rdAZ6Zq+IiFxU8Wi6Hk5b3u50FfN5EH2eIsvIdsf
22XF1SYGb541m76Rm0VUbP5r1uV5EU+dF569Kiaot8MNhu64JI7JcqIY6O1qIn4x
lGQdkX5qsegari7hsSXJB/vBonJ+jGcmfyoTcST2OjsN3L+D4I8CAwEAAaOBhjCB
gzAMBgNVHRMBAf8EAjAAMB0GA1UdDgQWBBSCZNf7qYMp2T2ke56lLxz7xDRNyzAf
BgNVHSMEGDAWgBSbJguKmKm7HbkfHOMaQDPtjheIqzAdBgNVHSUEFjAUBggrBgEF
BQcDAQYIKwYBBQUHAwIwFAYDVR0RBA0wC4IJbG9jYWxob3N0MA0GCSqGSIb3DQEB
CwUAA4IBAQAssUp9yZ9aoI4IcSAiHO1T21+6iwW2YXZDrsEW3QriwIW4YwBL8FH7
rbsG+MnNXpXGF7aCFjQ5LDi3S+JYK8Te7Xgy71zpU2uxshbZh7qd/0F29iAqm0BK
cX1eSC6IbWAq/+F8SvNvFux4up7As98LR20QyMt7Z6x65hxkdKBWLWCMQkvwH9At
T55dWEi12L+ixswKr3v6iGW6iQn1iDyPEaV8F0bZG3D4Q/Weet3czn8NwfsUqGdH
vJYOktCRzUth6O56jO8QiR4jR2RziMaNrnyjC5o/EDYnITVxX/PsYU2L1I9YMoO1
5u2zDMYbH2tQr8rd65O8Kt8z33mtPlJE
-----END CERTIFICATE-----
