-----BEGIN PRIVATE KEY-----
MIIEvwIBADANBgkqhkiG9w0BAQEFAASCBKkwggSlAgEAAoIBAQDdMNTtFer7VSdt
l6zPVbTtl9+an2G7yIJJM/SxOmDfoxkgYKnuOfR8D45dcjVTDzyRQTxUQfIXfRWx
ZqzSjVA1ax2Jc7+nAQV58q7aIpXG1dUkxS23uYKXenkZLRdr7s97F1+xiTJxYuqB
KIIqI5q6H9TWHkgbsVbywc5hIlThH1DDPs7eopMnKfq3tK3QGemaviIhcVPFouh5
OW97udBXzeRB9niLLyHbH9tlxdUmBm+eNZu+kZtFVGz+a9bleRFPnReevSomqLfD
DYbuuCSOyXKiGOjtaiJ+MZRkHZF+arHoGq4u4bElyQf7waJyfoxnJn8qE3Ek9jo7
Ddy/g+CPAgMBAAECggEBANbEnVp/F6RmMFx3E3JV09GGz7SA4RLGQ8r0Sbjz6C/9
W15WvWj0mPEE4cTWKfS2LKcVYpClX31zFOclvNTMJX9YvFtEKmjr0vdvrltbjXZ9
FfIYCqYD2Etgvci2QbGpNYhdT6tAfdweoXg7bvefjpL+aVhmGrnY3YXkrJEgFq5m
PWoPflqmrBA7ktNI2crLa/ty/bIIH6srIJVpRRle1NdUMIv9W1vFsK0HLV+BuOoQ
TqkjMybqWapAhCfTj85fjeoMggRbJyq9+uDpZBYqIcb/qFkSnWyqEq3y+xvpQqN7
oGPaeh4+Zyb6aHcQnVHBrhr5lbo6mgGYDw/yO/KDaIECgYEA9KX/xZb6z8on36kp
f9Kv8U/eq4rcyywxJtl+HPVLcSz/fIb5pAhtGbfG9VTjc/mVlrh/lB5w7qb/Lq+f
8oGUTv5eUzUXRI+d5AZwf2aTLeHWMSn02ouK1u8bJ8C2qv8FYu7Kb5lIDTJM7SEE
7hbdPF7FPlZAh59oLdUUXW8Aj+ECgYEA53QyIwbM4nMQVbeC4T+ahkLIYfZP+Yct
PMxW49VjDuZIQzeGMbxCMebsG2BHJ3n7vh9WUDEotb2ApFaBc7ChiJCOvH3vdJWM
ljBxVebaZsKSdv8ZzbYbpJR2tO2ZzifMN67JrM3Ge7k5sgJLhxsMfn7uXIO3aPQj
lsgdWc0NPm8CgYEArVCcLgKTlHkGXnCcsa00b6PBf41UdarM91TE/wbXd0oFhNaq
LAa8I6gKDusgZ5y82JXD687U+nzb8tsAWPBrfLq/X/sQjMWheVUGhXrJcYu4DgRH
LjwFE9c4SaVAw0r/KeM5Dm5smMy1qpflwjX4bThGS68W7/2B9FYrozVsFIECgYAk
vHqguJmYb67uC/yIB/Jc0QjBE7lJ37y8Y6p+6wWX/dEGai+wgTL4fLCI/9ULXP8q
BAtNGyBdCED81IYjeKuK43bkUBDLrljsFbBHdCbCHKvmm0LbNcZZbv8QZI3+/K4b
QHDeLqMMTC/uIxMd1Js9EKSApp9b1zQ24HhYIoWxnQKBgQDxsyI6BCxtLO8wzAjW
xWie6xH3o8MXi544URFhFs3Y/xCj4slha1yYb/CBzLN/IxKtBA2Kbox4/rWHaWLT
QUmcL8vcTRTx7yvrXuMXGunoF8q7adcfPDrAqaJ4OdkMy5W5VBhHqMjj+4cIy9Yq
LkC9LPJjUl2Ai8j8tLTVGB01HQ==
-----END PRIVATE KEY-----
Certificate:
    Data:
        Version: 3 (0x2)
        Serial Number:
            f9:fc:f0:61:a5:95:a9:3e:04:b2:80:d9:e4:4d:dd:19
        Signature Algorithm: sha256WithRSAEncryption
        Issuer: C=US, ST=California, L=Mountain View, O=Test CA, CN=Test Root CA
        Validity
            Not Before: Oct 10 17:12:19 2025 GMT
            Not After : Oct 10 17:12:19 2027 GMT
        Subject: C=US, ST=California, L=Mountain View, O=Test CA, CN=localhost
        Subject Public Key Info:
            Public Key Algorithm: rsaEncryption
                Public-Key: (2048 bit)
                Modulus:
                    00:dd:30:d4:ed:15:ea:fb:55:27:6d:97:ac:cf:55:
                    b4:ed:97:df:9a:9f:61:bb:c8:82:49:33:f4:b1:3a:
                    60:df:a3:19:20:60:a9:ee:39:f4:7c:0f:8e:5d:72:
                    35:53:0f:3c:91:41:3c:54:41:f2:17:7d:15:b1:66:
                    ac:d2:8d:50:35:6b:1d:89:73:bf:a7:01:05:79:f2:
                    ae:da:22:95:c6:d5:d5:24:c5:2d:b7:b9:82:97:7a:
                    79:19:2d:17:6b:ee:cf:7b:17:5f:b1:89:32:71:62:
                    ea:81:28:82:2a:23:9a:ba:1f:d4:d6:1e:48:1b:b1:
                    56:f2:c1:ce:61:22:54:e1:1f:50:c3:3e:ce:de:a2:
                    93:27:29:fa:b7:b4:ad:d0:19:e9:9a:be:22:21:71:
                    53:c5:a2:e8:79:39:6f:7b:b9:d0:57:cd:e4:41:f6:
                    78:8b:2f:21:db:1f:db:65:c5:d5:26:06:6f:9e:35:
                    9b:be:91:9b:45:54:6c:fe:6b:d6:e5:79:11:4f:9d:
                    17:9e:bd:2a:26:a8:b7:c3:0d:86:ee:b8:24:8e:c9:
                    72:a2:18:e8:ed:6a:22:7e:31:94:64:1d:91:7e:6a:
                    b1:e8:1a:ae:2e:e1:b1:25:c9:07:fb:c1:a2:72:7e:
                    8c:67:26:7f:2a:13:71:24:f6:3a:3b:0d:dc:bf:83:
                    e0:8f
                Exponent: 65537 (0x10001)
        X509v3 extensions:
            X509v3 Basic Constraints: critical
                CA:FALSE
            X509v3 Subject Key Identifier: 
                82:64:D7:FB:A9:83:29:D9:3D:A4:7B:9E:A5:2F:1C:FB:C4:34:4D:CB
            X509v3 Authority Key Identifier: 
                9B:26:0B:8A:98:A9:BB:1D:B9:1F:1C:E3:1A:40:33:ED:8E:17:88:AB
            X509v3 Extended Key Usage: 
                TLS Web Server Authentication, TLS Web Client Authentication
            X509v3 Subject Alternative Name: 
                DNS:localhost
    Signature Algorithm: sha256WithRSAEncryption
    Signature Value:
        65:b8:4f:be:3c:7c:f6:b0:e6:c8:12:78:40:63:55:cd:5b:c7:
        09:a9:f4:ab:c9:bc:f9:cf:80:00:91:a5:ca:b5:2e:d8:4e:00:
        f3:78:f7:3b:46:44:6c:59:86:2f:38:70:29:c5:f1:b1:4b:87:
        4b:31:83:a7:2f:67:a6:b1:0d:2d:e8:73:ed:b3:4a:cd:16:b8:
        ea:5a:37:45:a5:36:b1:2d:4f:6a:9f:90:33:96:fb:64:5a:cc:
        6b:b9:33:f8:0b:67:c9:55:06:4d:c3:9f:5c:6a:3b:20:79:09:
        6b:93:c9:50:65:b5:72:d7:85:4e:04:ce:bb:e6:26:c3:9b:25:
        7b:cb:ad:de:70:71:03:fc:19:35:df:f4:15:cd:35:24:0f:97:
        77:0b:ad:44:16:dc:df:fa:24:e0:8d:b4:4d:ef:94:79:3c:3d:
        ab:8d:c6:98:66:9b:71:05:f9:c0:94:43:94:bd:2a:5f:b0:24:
        e9:40:ba:84:d5:20:f4:55:b2:30:ba:f5:d7:0b:d0:5a:c7:43:
        09:74:01:87:64:a9:9a:cf:23:1f:df:5f:57:ab:8d:10:f2:c2:
        b3:bc:ee:87:57:8f:1e:8d:a5:48:8c:04:52:38:11:84:bb:0f:
        82:85:3a:b6:51:6b:08:53:75:3b:c5:e8:cc:09:b0:04:c4:ed:
        9b:29:ee:85
-----BEGIN CERTIFICATE-----
MIID1TCCAr2gAwIBAgIRAPn88GGllak+BLKA2eRN3RkwDQYJKoZIhvcNAQELBQAw
YzELMAkGA1UEBhMCVVMxEzARBgNVBAgMCkNhbGlmb3JuaWExFjAUBgNVBAcMDU1v
dW50YWluIFZpZXcxEDAOBgNVBAoMB1Rlc3QgQ0ExFTATBgNVBAMMDFRlc3QgUm9v
dCBDQTAeFw0yNTEwMTAxNzEyMTlaFw0yNzEwMTAxNzEyMTlaMGAxCzAJBgNVBAYT
AlVTMRMwEQYDVQQIDApDYWxpZm9ybmlhMRYwFAYDVQQHDA1Nb3VudGFpbiBWaWV3
MRAwDgYDVQQKDAdUZXN0IENBMRIwEAYDVQQDDAlsb2NhbGhvc3QwggEiMA0GCSqG
SIb3DQEBAQUAA4IBDwAwggEKAoIBAQDdMNTtFer7VSdtl6zPVbTtl9+an2G7yIJJ
M/SxOmDfoxkgYKnuOfR8D45dcjVTDzyRQTxUQfIXfRWxZqzSjVA1ax2Jc7+nAQV5
8q7aIpXG1dUkxS23uYKXenkZLRdr7s97F1+xiTJxYuqBKIIqI5q6H9TWHkgbsVby
wc5hIlThH1DDPs7eopMnKfq3tK3QGemaviIhcVPFouh5OW97udBXzeRB9niLLyHb
H9tlxdUmBm+eNZu+kZtFVGz+a9bleRFPnReevSomqLfDDYbuuCSOyXKiGOjtaiJ+
MZRkHZF+arHoGq4u4bElyQf7waJyfoxnJn8qE3Ek9jo7Ddy/g+CPAgMBAAGjgYYw
gYMwDAYDVR0TAQH/BAIwADAdBgNVHQ4EFgQUgmTX+6mDKdk9pHuepS8c+8Q0Tcsw
HwYDVR0jBBgwFoAUmyYLipipux25HxzjGkAz7Y4XiKswHQYDVR0lBBYwFAYIKwYB
BQUHAwEGCCsGAQUFBwMCMBQGA1UdEQQNMAuCCWxvY2FsaG9zdDANBgkqhkiG9w0B
AQsFAAOCAQEAZbhPvjx89rDmyBJ4QGNVzVvHCan0q8m8+c+AAJGlyrUu2E4A83j3
O0ZEbFmGLzhwKcXxsUuHSzGDpy9nprENLehz7bNKzRa46lo3RaU2sS1Pap+QM5b7
ZFrMa7kz+AtnyVUGTcOfXGo7IHkJa5PJUGW1cteFTgTOu+Ymw5sle8ut3nBxA/wZ
Nd/0Fc01JA+XdwutRBbc3/ok4I20Te+UeTw9q43GmGabcQX5wJRDlL0qX7Ak6UC6
hNUg9FWyMLr11wvQWsdDCXQBh2Spms8jH99fV6uNEPLCs7zuh1ePHo2lSIwEUjgR
hLsPgoU6tlFrCFN1O8XozAmwBMTtmynuhQ==
-----END CERTIFICATE-----
