-----BEGIN PRIVATE KEY-----
MIIEvwIBADANBgkqhkiG9w0BAQEFAASCBKkwggSlAgEAAoIBAQDdMNTtFer7VSdt
l6zPVbTtl9+an2G7yIJJM/SxOmDfoxkgYKnuOfR8D45dcjVTDzyRQTxUQfIXfRWx
ZqzSjVA1ax2Jc7+nAQV58q7aIpXG1dUkxS23uYKXenkZLRdr7s97F1+xiTJxYuqB
KIIqI5q6H9TWHkgbsVbywc5hIlThH1DDPs7eopMnKfq3tK3QGemaviIhcVPFouh5
OW97udBXzeRB9niLLyHbH9tlxdUmBm+eNZu+kZtFVGz+a9bleRFPnReevSomqLfD
DYbuuCSOyXKiGOjtaiJ+MZRkHZF+arHoGq4u4bElyQf7waJyfoxnJn8qE3Ek9jo7
Ddy/g+CPAgMBAAECggEBANbEnVp/F6RmMFx3E3JV09GGz7SA4RLGQ8r0Sbjz6C/9
W15WvWj0mPEE4cTWKfS2LKcVYpClX31zFOclvNTMJX9YvFtEKmjr0vdvrltbjXZ9
FfIYCqYD2Etgvci2QbGpNYhdT6tAfdweoXg7bvefjpL+aVhmGrnY3YXkrJEgFq5m
PWoPflqmrBA7ktNI2crLa/ty/bIIH6srIJVpRRle1NdUMIv9W1vFsK0HLV+BuOoQ
TqkjMybqWapAhCfTj85fjeoMggRbJyq9+uDpZBYqIcb/qFkSnWyqEq3y+xvpQqN7
oGPaeh4+Zyb6aHcQnVHBrhr5lbo6mgGYDw/yO/KDaIECgYEA9KX/xZb6z8on36kp
f9Kv8U/eq4rcyywxJtl+HPVLcSz/fIb5pAhtGbfG9VTjc/mVlrh/lB5w7qb/Lq+f
8oGUTv5eUzUXRI+d5AZwf2aTLeHWMSn02ouK1u8bJ8C2qv8FYu7Kb5lIDTJM7SEE
7hbdPF7FPlZAh59oLdUUXW8Aj+ECgYEA53QyIwbM4nMQVbeC4T+ahkLIYfZP+Yct
PMxW49VjDuZIQzeGMbxCMebsG2BHJ3n7vh9WUDEotb2ApFaBc7ChiJCOvH3vdJWM
ljBxVebaZsKSdv8ZzbYbpJR2tO2ZzifMN67JrM3Ge7k5sgJLhxsMfn7uXIO3aPQj
lsgdWc0NPm8CgYEArVCcLgKTlHkGXnCcsa00b6PBf41UdarM91TE/wbXd0oFhNaq
LAa8I6gKDusgZ5y82JXD687U+nzb8tsAWPBrfLq/X/sQjMWheVUGhXrJcYu4DgRH
LjwFE9c4SaVAw0r/KeM5Dm5smMy1qpflwjX4bThGS68W7/2B9FYrozVsFIECgYAk
vHqguJmYb67uC/yIB/Jc0QjBE7lJ37y8Y6p+6wWX/dEGai+wgTL4fLCI/9ULXP8q
BAtNGyBdCED81IYjeKuK43bkUBDLrljsFbBHdCbCHKvmm0LbNcZZbv8QZI3+/K4b
QHDeLqMMTC/uIxMd1Js9EKSApp9b1zQ24HhYIoWxnQKBgQDxsyI6BCxtLO8wzAjW
xWie6xH3o8MXi544URFhFs3Y/xCj4slha1yYb/CBzLN/IxKtBA2Kbox4/rWHaWLT
QUmcL8vcTRTx7yvrXuMXGunoF8q7adcfPDrAqaJ4OdkMy5W5VBhHqMjj+4cIy9Yq
LkC9LPJjUl2Ai8j8tLTVGB01HQ==
-----END PRIVATE KEY-----
Certificate:
    Data:
        Version: 3 (0x2)
        Serial Number:
            b0:6b:93:92:e3:5c:8d:7e:ed:9d:c8:96:59:c5:c2:6a
        Signature Algorithm: sha256WithRSAEncryption
        Issuer: C=US, ST=California, L=Mountain View, O=Test CA, CN=Test Root CA
        Validity
            Not Before: Oct  3 17:20:08 2022 GMT
            Not After : Oct  2 17:20:08 2024 GMT
        Subject: C=US, ST=California, L=Mountain View, O=Test CA, CN=localhost
        Subject Public Key Info:
            Public Key Algorithm: rsaEncryption
                Public-Key: (2048 bit)
                Modulus:
                    00:dd:30:d4:ed:15:ea:fb:55:27:6d:97:ac:cf:55:
                    b4:ed:97:df:9a:9f:61:bb:c8:82:49:33:f4:b1:3a:
                    60:df:a3:19:20:60:a9:ee:39:f4:7c:0f:8e:5d:72:
                    35:53:0f:3c:91:41:3c:54:41:f2:17:7d:15:b1:66:
                    ac:d2:8d:50:35:6b:1d:89:73:bf:a7:01:05:79:f2:
                    ae:da:22:95:c6:d5:d5:24:c5:2d:b7:b9:82:97:7a:
                    79:19:2d:17:6b:ee:cf:7b:17:5f:b1:89:32:71:62:
                    ea:81:28:82:2a:23:9a:ba:1f:d4:d6:1e:48:1b:b1:
                    56:f2:c1:ce:61:22:54:e1:1f:50:c3:3e:ce:de:a2:
                    93:27:29:fa:b7:b4:ad:d0:19:e9:9a:be:22:21:71:
                    53:c5:a2:e8:79:39:6f:7b:b9:d0:57:cd:e4:41:f6:
                    78:8b:2f:21:db:1f:db:65:c5:d5:26:06:6f:9e:35:
                    9b:be:91:9b:45:54:6c:fe:6b:d6:e5:79:11:4f:9d:
                    17:9e:bd:2a:26:a8:b7:c3:0d:86:ee:b8:24:8e:c9:
                    72:a2:18:e8:ed:6a:22:7e:31:94:64:1d:91:7e:6a:
                    b1:e8:1a:ae:2e:e1:b1:25:c9:07:fb:c1:a2:72:7e:
                    8c:67:26:7f:2a:13:71:24:f6:3a:3b:0d:dc:bf:83:
                    e0:8f
                Exponent: 65537 (0x10001)
        X509v3 extensions:
            X509v3 Basic Constraints: critical
                CA:FALSE
            X509v3 Subject Key Identifier: 
                82:64:D7:FB:A9:83:29:D9:3D:A4:7B:9E:A5:2F:1C:FB:C4:34:4D:CB
            X509v3 Authority Key Identifier: 
                9B:26:0B:8A:98:A9:BB:1D:B9:1F:1C:E3:1A:40:33:ED:8E:17:88:AB
            X509v3 Extended Key Usage: 
                TLS Web Server Authentication, TLS Web Client Authentication
            X509v3 Subject Alternative Name: 
                DNS:localhost
    Signature Algorithm: sha256WithRSAEncryption
    Signature Value:
        7c:c0:17:74:a4:4c:c8:0e:40:ca:d8:ae:3f:f3:f5:fb:e7:cb:
        40:59:46:48:5f:13:a3:c7:3a:13:d9:28:77:11:14:1b:66:c0:
        76:78:86:84:bb:ad:48:ad:ec:2f:fe:42:0e:37:0b:c9:90:16:
        cd:23:72:e7:65:14:62:bb:04:06:a2:da:68:25:a4:47:a9:1c:
        c3:a5:c2:2f:a5:7e:6a:8c:74:fd:34:5e:e2:ea:a3:89:48:12:
        c0:09:96:1b:aa:0e:c1:d3:1c:a2:34:8b:74:52:00:be:e4:ee:
        8b:d4:2d:c0:80:fe:c4:fd:57:d7:19:a8:97:6d:2b:c0:a7:51:
        42:4f:9a:ee:81:4c:49:76:db:2b:20:fd:f0:11:96:6a:d7:f7:
        1c:42:b8:17:a8:d4:e1:73:1e:1c:65:e5:32:5f:86:36:dd:51:
        6e:92:53:1a:62:4a:bc:4d:92:bb:71:63:c7:00:1d:e2:72:98:
        2d:9c:52:6d:72:16:46:8b:c6:1f:86:80:23:44:e7:cc:45:08:
        ee:f5:d5:a2:f7:a4:91:9e:2e:3f:07:2c:87:80:db:db:8e:43:
        00:24:d9:ad:23:ef:a1:23:33:e2:21:82:5f:db:3c:2c:64:02:
        b6:2b:af:ad:6f:bc:2b:0d:4f:19:3c:5a:2a:96:dc:41:44:57:
        dc:d0:5b:2c
-----BEGIN CERTIFICATE-----
MIID1TCCAr2gAwIBAgIRALBrk5LjXI1+7Z3IllnFwmowDQYJKoZIhvcNAQELBQAw
YzELMAkGA1UEBhMCVVMxEzARBgNVBAgMCkNhbGlmb3JuaWExFjAUBgNVBAcMDU1v
dW50YWluIFZpZXcxEDAOBgNVBAoMB1Rlc3QgQ0ExFTATBgNVBAMMDFRlc3QgUm9v
dCBDQTAeFw0yMjEwMDMxNzIwMDhaFw0yNDEwMDIxNzIwMDhaMGAxCzAJBgNVBAYT
AlVTMRMwEQYDVQQIDApDYWxpZm9ybmlhMRYwFAYDVQQHDA1Nb3VudGFpbiBWaWV3
MRAwDgYDVQQKDAdUZXN0IENBMRIwEAYDVQQDDAlsb2NhbGhvc3QwggEiMA0GCSqG
SIb3DQEBAQUAA4IBDwAwggEKAoIBAQDdMNTtFer7VSdtl6zPVbTtl9+an2G7yIJJ
M/SxOmDfoxkgYKnuOfR8D45dcjVTDzyRQTxUQfIXfRWxZqzSjVA1ax2Jc7+nAQV5
8q7aIpXG1dUkxS23uYKXenkZLRdr7s97F1+xiTJxYuqBKIIqI5q6H9TWHkgbsVby
wc5hIlThH1DDPs7eopMnKfq3tK3QGemaviIhcVPFouh5OW97udBXzeRB9niLLyHb
H9tlxdUmBm+eNZu+kZtFVGz+a9bleRFPnReevSomqLfDDYbuuCSOyXKiGOjtaiJ+
MZRkHZF+arHoGq4u4bElyQf7waJyfoxnJn8qE3Ek9jo7Ddy/g+CPAgMBAAGjgYYw
gYMwDAYDVR0TAQH/BAIwADAdBgNVHQ4EFgQUgmTX+6mDKdk9pHuepS8c+8Q0Tcsw
HwYDVR0jBBgwFoAUmyYLipipux25HxzjGkAz7Y4XiKswHQYDVR0lBBYwFAYIKwYB
BQUHAwEGCCsGAQUFBwMCMBQGA1UdEQQNMAuCCWxvY2FsaG9zdDANBgkqhkiG9w0B
AQsFAAOCAQEAfMAXdKRMyA5AytiuP/P1++fLQFlGSF8To8c6E9kodxEUG2bAdniG
hLutSK3sL/5CDjcLyZAWzSNy52UUYrsEBqLaaCWkR6kcw6XCL6V+aox0/TRe4uqj
iUgSwAmWG6oOwdMcojSLdFIAvuTui9QtwID+xP1X1xmol20rwKdRQk+a7oFMSXbb
KyD98BGWatf3HEK4F6jU4XMeHGXlMl+GNt1RbpJTGmJKvE2Su3FjxwAd4nKYLZxS
bXIWRovGH4aAI0TnzEUI7vXVovekkZ4uPwcsh4Db245DACTZrSPvoSMz4iGCX9s8
LGQCtiuvrW+8Kw1PGTxaKpbcQURX3NBbLA==
-----END CERTIFICATE-----
