-----BEGIN PRIVATE KEY-----
MIIEvwIBADANBgkqhkiG9w0BAQEFAASCBKkwggSlAgEAAoIBAQDdMNTtFer7VSdt
l6zPVbTtl9+an2G7yIJJM/SxOmDfoxkgYKnuOfR8D45dcjVTDzyRQTxUQfIXfRWx
ZqzSjVA1ax2Jc7+nAQV58q7aIpXG1dUkxS23uYKXenkZLRdr7s97F1+xiTJxYuqB
KIIqI5q6H9TWHkgbsVbywc5hIlThH1DDPs7eopMnKfq3tK3QGemaviIhcVPFouh5
OW97udBXzeRB9niLLyHbH9tlxdUmBm+eNZu+kZtFVGz+a9bleRFPnReevSomqLfD
DYbuuCSOyXKiGOjtaiJ+MZRkHZF+arHoGq4u4bElyQf7waJyfoxnJn8qE3Ek9jo7
Ddy/g+CPAgMBAAECggEBANbEnVp/F6RmMFx3E3JV09GGz7SA4RLGQ8r0Sbjz6C/9
W15WvWj0mPEE4cTWKfS2LKcVYpClX31zFOclvNTMJX9YvFtEKmjr0vdvrltbjXZ9
FfIYCqYD2Etgvci2QbGpNYhdT6tAfdweoXg7bvefjpL+aVhmGrnY3YXkrJEgFq5m
PWoPflqmrBA7ktNI2crLa/ty/bIIH6srIJVpRRle1NdUMIv9W1vFsK0HLV+BuOoQ
TqkjMybqWapAhCfTj85fjeoMggRbJyq9+uDpZBYqIcb/qFkSnWyqEq3y+xvpQqN7
oGPaeh4+Zyb6aHcQnVHBrhr5lbo6mgGYDw/yO/KDaIECgYEA9KX/xZb6z8on36kp
f9Kv8U/eq4rcyywxJtl+HPVLcSz/fIb5pAhtGbfG9VTjc/mVlrh/lB5w7qb/Lq+f
8oGUTv5eUzUXRI+d5AZwf2aTLeHWMSn02ouK1u8bJ8C2qv8FYu7Kb5lIDTJM7SEE
7hbdPF7FPlZAh59oLdUUXW8Aj+ECgYEA53QyIwbM4nMQVbeC4T+ahkLIYfZP+Yct
PMxW49VjDuZIQzeGMbxCMebsG2BHJ3n7vh9WUDEotb2ApFaBc7ChiJCOvH3vdJWM
ljBxVebaZsKSdv8ZzbYbpJR2tO2ZzifMN67JrM3Ge7k5sgJLhxsMfn7uXIO3aPQj
lsgdWc0NPm8CgYEArVCcLgKTlHkGXnCcsa00b6PBf41UdarM91TE/wbXd0oFhNaq
LAa8I6gKDusgZ5y82JXD687U+nzb8tsAWPBrfLq/X/sQjMWheVUGhXrJcYu4DgRH
LjwFE9c4SaVAw0r/KeM5Dm5smMy1qpflwjX4bThGS68W7/2B9FYrozVsFIECgYAk
vHqguJmYb67uC/yIB/Jc0QjBE7lJ37y8Y6p+6wWX/dEGai+wgTL4fLCI/9ULXP8q
BAtNGyBdCED81IYjeKuK43bkUBDLrljsFbBHdCbCHKvmm0LbNcZZbv8QZI3+/K4b
QHDeLqMMTC/uIxMd1Js9EKSApp9b1zQ24HhYIoWxnQKBgQDxsyI6BCxtLO8wzAjW
xWie6xH3o8MXi544URFhFs3Y/xCj4slha1yYb/CBzLN/IxKtBA2Kbox4/rWHaWLT
QUmcL8vcTRTx7yvrXuMXGunoF8q7adcfPDrAqaJ4OdkMy5W5VBhHqMjj+4cIy9Yq
LkC9LPJjUl2Ai8j8tLTVGB01HQ==
-----END PRIVATE KEY-----
Certificate:
    Data:
        Version: 3 (0x2)
        Serial Number:
            12:f6:d9:f1:80:1b:50:9f:64:09:c8:ea:2f:16:33:a6
        Signature Algorithm: sha256WithRSAEncryption
        Issuer: C=US, ST=California, L=Mountain View, O=Test CA, CN=Test Root CA
        Validity
            Not Before: Dec  1 15:42:07 2021 GMT
            Not After : Dec  1 15:42:07 2023 GMT
        Subject: C=US, ST=California, L=Mountain View, O=Test CA, CN=localhost
        Subject Public Key Info:
            Public Key Algorithm: rsaEncryption
                RSA Public-Key: (2048 bit)
                Modulus:
                    00:dd:30:d4:ed:15:ea:fb:55:27:6d:97:ac:cf:55:
                    b4:ed:97:df:9a:9f:61:bb:c8:82:49:33:f4:b1:3a:
                    60:df:a3:19:20:60:a9:ee:39:f4:7c:0f:8e:5d:72:
                    35:53:0f:3c:91:41:3c:54:41:f2:17:7d:15:b1:66:
                    ac:d2:8d:50:35:6b:1d:89:73:bf:a7:01:05:79:f2:
                    ae:da:22:95:c6:d5:d5:24:c5:2d:b7:b9:82:97:7a:
                    79:19:2d:17:6b:ee:cf:7b:17:5f:b1:89:32:71:62:
                    ea:81:28:82:2a:23:9a:ba:1f:d4:d6:1e:48:1b:b1:
                    56:f2:c1:ce:61:22:54:e1:1f:50:c3:3e:ce:de:a2:
                    93:27:29:fa:b7:b4:ad:d0:19:e9:9a:be:22:21:71:
                    53:c5:a2:e8:79:39:6f:7b:b9:d0:57:cd:e4:41:f6:
                    78:8b:2f:21:db:1f:db:65:c5:d5:26:06:6f:9e:35:
                    9b:be:91:9b:45:54:6c:fe:6b:d6:e5:79:11:4f:9d:
                    17:9e:bd:2a:26:a8:b7:c3:0d:86:ee:b8:24:8e:c9:
                    72:a2:18:e8:ed:6a:22:7e:31:94:64:1d:91:7e:6a:
                    b1:e8:1a:ae:2e:e1:b1:25:c9:07:fb:c1:a2:72:7e:
                    8c:67:26:7f:2a:13:71:24:f6:3a:3b:0d:dc:bf:83:
                    e0:8f
                Exponent: 65537 (0x10001)
        X509v3 extensions:
            X509v3 Basic Constraints: critical
                CA:FALSE
            X509v3 Subject Key Identifier: 
                82:64:D7:FB:A9:83:29:D9:3D:A4:7B:9E:A5:2F:1C:FB:C4:34:4D:CB
            X509v3 Authority Key Identifier: 
                keyid:9B:26:0B:8A:98:A9:BB:1D:B9:1F:1C:E3:1A:40:33:ED:8E:17:88:AB

            X509v3 Extended Key Usage: 
                TLS Web Server Authentication, TLS Web Client Authentication
            X509v3 Subject Alternative Name: 
                DNS:localhost
    Signature Algorithm: sha256WithRSAEncryption
         41:f1:a7:30:bc:d6:ed:8f:95:28:cb:73:fe:5c:b5:48:80:6a:
         00:5c:aa:58:9a:c4:f6:b1:37:1c:3f:e5:f4:89:6a:33:53:7f:
         4d:fd:c8:40:11:b2:f9:39:86:e1:9a:9b:ec:9c:3f:50:01:07:
         6c:3a:9e:77:fb:ef:4f:29:b0:08:fd:4b:e5:b8:c1:ce:65:31:
         a7:af:07:c4:2a:a3:b9:92:a9:55:4a:d5:c2:5c:01:ad:d7:aa:
         10:09:db:d5:fe:15:28:c1:12:79:8d:ac:9e:ff:da:43:45:c1:
         e0:2c:db:7f:0a:76:e1:de:40:2a:28:3e:d3:6e:8e:1e:a3:e0:
         84:ca:be:44:ab:59:3a:d7:90:8b:74:2f:b5:7f:02:28:a1:d6:
         ed:ac:d0:46:f6:16:e5:88:9e:d8:d8:8a:55:da:4d:d9:dc:7a:
         53:c6:0c:4b:32:ed:39:2a:1b:aa:5d:1f:33:a6:11:60:00:7c:
         4c:c1:e7:a7:bc:c3:84:70:eb:25:f7:38:3e:41:56:66:37:3c:
         31:93:6d:79:43:07:05:ff:75:0f:84:ec:a6:e4:18:13:bc:fc:
         ee:69:30:14:32:92:5f:c4:73:5f:56:8c:b5:1a:a7:6a:5b:e3:
         82:30:e6:c7:04:da:cb:27:e5:33:de:c2:e2:27:58:62:00:05:
         3d:4d:cc:84
-----BEGIN CERTIFICATE-----
MIID1DCCArygAwIBAgIQEvbZ8YAbUJ9kCcjqLxYzpjANBgkqhkiG9w0BAQsFADBj
MQswCQYDVQQGEwJVUzETMBEGA1UECAwKQ2FsaWZvcm5pYTEWMBQGA1UEBwwNTW91
bnRhaW4gVmlldzEQMA4GA1UECgwHVGVzdCBDQTEVMBMGA1UEAwwMVGVzdCBSb290
IENBMB4XDTIxMTIwMTE1NDIwN1oXDTIzMTIwMTE1NDIwN1owYDELMAkGA1UEBhMC
VVMxEzARBgNVBAgMCkNhbGlmb3JuaWExFjAUBgNVBAcMDU1vdW50YWluIFZpZXcx
EDAOBgNVBAoMB1Rlc3QgQ0ExEjAQBgNVBAMMCWxvY2FsaG9zdDCCASIwDQYJKoZI
hvcNAQEBBQADggEPADCCAQoCggEBAN0w1O0V6vtVJ22XrM9VtO2X35qfYbvIgkkz
9LE6YN+jGSBgqe459HwPjl1yNVMPPJFBPFRB8hd9FbFmrNKNUDVrHYlzv6cBBXny
rtoilcbV1STFLbe5gpd6eRktF2vuz3sXX7GJMnFi6oEogiojmrof1NYeSBuxVvLB
zmEiVOEfUMM+zt6ikycp+re0rdAZ6Zq+IiFxU8Wi6Hk5b3u50FfN5EH2eIsvIdsf
22XF1SYGb541m76Rm0VUbP5r1uV5EU+dF569Kiaot8MNhu64JI7JcqIY6O1qIn4x
lGQdkX5qsegari7hsSXJB/vBonJ+jGcmfyoTcST2OjsN3L+D4I8CAwEAAaOBhjCB
gzAMBgNVHRMBAf8EAjAAMB0GA1UdDgQWBBSCZNf7qYMp2T2ke56lLxz7xDRNyzAf
BgNVHSMEGDAWgBSbJguKmKm7HbkfHOMaQDPtjheIqzAdBgNVHSUEFjAUBggrBgEF
BQcDAQYIKwYBBQUHAwIwFAYDVR0RBA0wC4IJbG9jYWxob3N0MA0GCSqGSIb3DQEB
CwUAA4IBAQBB8acwvNbtj5Uoy3P+XLVIgGoAXKpYmsT2sTccP+X0iWozU39N/chA
EbL5OYbhmpvsnD9QAQdsOp53++9PKbAI/UvluMHOZTGnrwfEKqO5kqlVStXCXAGt
16oQCdvV/hUowRJ5jaye/9pDRcHgLNt/Cnbh3kAqKD7Tbo4eo+CEyr5Eq1k615CL
dC+1fwIoodbtrNBG9hbliJ7Y2IpV2k3Z3HpTxgxLMu05KhuqXR8zphFgAHxMween
vMOEcOsl9zg+QVZmNzwxk215QwcF/3UPhOym5BgTvPzuaTAUMpJfxHNfVoy1Gqdq
W+OCMObHBNrLJ+Uz3sLiJ1hiAAU9TcyE
-----END CERTIFICATE-----
