-----BEGIN PRIVATE KEY-----
MIIEvAIBADANBgkqhkiG9w0BAQEFAASCBKYwggSiAgEAAoIBAQDlB6n9XNFWE704
QoakrHZP/RhqyBF9/F9pNf8PTu+5jBNFdEiqaUds/Ve1DW7UepAzQ932GMhmJ8Q9
eDfULwNzsDp/LzOLN27Ej7/kQlk/eNlTe8dwVYMP/I8/I3XVwzfyJs4P/7kw/iVI
/iK+tqMgEjvLrGjwYAxq95/a+pvkvmiwcAzwBkP76YvfsfmmiWt5waGDv5yazqQW
Wl0+i3W6Y+rFS8ckTXTcW0d5na8v5wAWyQwUjVp1+lTLo02C0nHm37AgT8jV1yly
4rXR8Nm5v07pPikOpQdBFQblg5dBTx80SKS66yaBmu83FLjXAmG1uhGT3OOBAxwk
aZUrt4xxAgMBAAECggEAe6/M5PB4eRUF7lk3H72n04Dq69gKYlCmMkqf6WOG4Vy9
l5e6GpXqpfiXokaT4RojwBvZxisSJuE5AL1o4SVWpua4YLFcE8YnAu5jAmG2kymv
rH8/cPItarfJoJ6E56GbGCJOzKMdH1FRT383wmkd5ZcTReZhcdddPXNnmDoZcMlC
X60CQgJolD7mCvKAwTHYFX3vAlM1MgbbF6Mq1hePXGTSKPrlD5vRlMz9BNykCfr4
GnRjdB9w78ry+UYMQppP+AdNJiRi/6enNrwBWQBAUmnqtRCQHDMlR+0DEbdLorRG
LpiZMuqCRU8p8qFEku0Oqj9iFp3oSLxLCy8mGoe/9QKBgQD4UEGEgknY2DR/mTf+
RBStiwVXHpRwhgMpEgfUpB6Sc/aRgFrm6AkoCVttVSsHN6XW16d4u613Z/WGW81J
Af0F8lc2jsj8WQufZHYbZrto6DOsuE8WintBg7jc8RE3kXpf+esAuy23YUI3hE2I
BgMre+4lHzreAxguhnbEG1fMewKBgQDsHpjF0Mm+q2G02a4Rx8XDxkJWYsBQdj0G
Ph62ZNcD7O5ajQ3hVqOyFwW2U0b4F9sSrwBgXz2MKYbm7SnJgXHAy/BtYKYaPEV5
rYkjFmsblElvhgz4+l8Rxe+yYxESbjEMiw86eNaPd3rtmcWVXn4tRN68BAdMsl/9
YbIV+clFAwKBgAZGQOGQST1peSogPQH3xm38LU5eP3H4cOwAwKHm477fn0Nd8u4S
vuh8FAtXM5cjGNWs7VZnp6J0xgd3GmDV5AbacMm4Iev+dAS7DSD0H5gvBd8/aQAw
z5yAL5Olo8G7s1PphL6n/Ce+FWZBuZPOUxYuM35Mo7goa9wBGc8qwbUxAoGAOj1t
x1UxfeM97WLH6cDRyfFMCYzADNitQq3t22VSF7jILfOe2dcJ93JwSUGPPsB7m8co
m5zCTKEtkiYraXWRPlHPUttE/TGinVmtescb0iioWGbDKmJvMq4U6nY/DsG5PXPL
ZMvLeIWq/5IvRyGQk8/p9Iw11LgmrxP63irHd0sCgYB6lOmu3b219ILbif2BTod8
0Afd6NdELAB5i6k/L+rqloJlzYdRgsx3Csy1qJCprLVdINNLHsIflEtHsbRLbutC
ZJBEltwfEnvXZiZKDOAAfXoem31ibIeqVfhMQTjyLKXrQZHqGegACVW9ETYbvLfr
dBmaTVqHfwZ+PD2lUog7RQ==
-----END PRIVATE KEY-----
Certificate:
    Data:
        Version: 3 (0x2)
        Serial Number:
            3e:2c:9d:be:b0:42:c8:cf:fc:99:42:d5:4d:41:6a:a8
        Signature Algorithm: sha256WithRSAEncryption
        Issuer: C=US, ST=California, L=Mountain View, O=Test CA, CN=Test Root CA
        Validity
            Not Before: Mar 13 20:46:17 2020 GMT
            Not After : Mar 13 20:46:17 2022 GMT
        Subject: C=US, ST=California, L=Mountain View, O=Test CA, CN=localhost
        Subject Public Key Info:
            Public Key Algorithm: rsaEncryption
                RSA Public-Key: (2048 bit)
                Modulus:
                    00:e5:07:a9:fd:5c:d1:56:13:bd:38:42:86:a4:ac:
                    76:4f:fd:18:6a:c8:11:7d:fc:5f:69:35:ff:0f:4e:
                    ef:b9:8c:13:45:74:48:aa:69:47:6c:fd:57:b5:0d:
                    6e:d4:7a:90:33:43:dd:f6:18:c8:66:27:c4:3d:78:
                    37:d4:2f:03:73:b0:3a:7f:2f:33:8b:37:6e:c4:8f:
                    bf:e4:42:59:3f:78:d9:53:7b:c7:70:55:83:0f:fc:
                    8f:3f:23:75:d5:c3:37:f2:26:ce:0f:ff:b9:30:fe:
                    25:48:fe:22:be:b6:a3:20:12:3b:cb:ac:68:f0:60:
                    0c:6a:f7:9f:da:fa:9b:e4:be:68:b0:70:0c:f0:06:
                    43:fb:e9:8b:df:b1:f9:a6:89:6b:79:c1:a1:83:bf:
                    9c:9a:ce:a4:16:5a:5d:3e:8b:75:ba:63:ea:c5:4b:
                    c7:24:4d:74:dc:5b:47:79:9d:af:2f:e7:00:16:c9:
                    0c:14:8d:5a:75:fa:54:cb:a3:4d:82:d2:71:e6:df:
                    b0:20:4f:c8:d5:d7:29:72:e2:b5:d1:f0:d9:b9:bf:
                    4e:e9:3e:29:0e:a5:07:41:15:06:e5:83:97:41:4f:
                    1f:34:48:a4:ba:eb:26:81:9a:ef:37:14:b8:d7:02:
                    61:b5:ba:11:93:dc:e3:81:03:1c:24:69:95:2b:b7:
                    8c:71
                Exponent: 65537 (0x10001)
        X509v3 extensions:
            X509v3 Basic Constraints: critical
                CA:FALSE
            X509v3 Subject Key Identifier: 
                DE:5D:1D:65:FC:4D:F4:F9:7F:12:6B:EE:9C:B5:0D:9B:62:EA:4A:11
            X509v3 Authority Key Identifier: 
                keyid:9B:26:0B:8A:98:A9:BB:1D:B9:1F:1C:E3:1A:40:33:ED:8E:17:88:AB

            X509v3 Extended Key Usage: 
                TLS Web Server Authentication, TLS Web Client Authentication
            X509v3 Subject Alternative Name: 
                DNS:localhost
    Signature Algorithm: sha256WithRSAEncryption
         a1:c7:70:45:63:c1:6a:22:4c:f7:23:0b:71:dd:07:5f:a9:70:
         6d:7f:46:88:18:0b:ed:c4:5d:92:f9:3f:d4:27:e2:68:fd:0e:
         19:96:1e:30:1e:65:85:cf:9c:7d:90:37:88:de:cd:60:fa:95:
         98:ff:5f:66:12:53:65:28:8e:01:19:d6:ba:a9:e0:7a:a8:b4:
         a6:d9:6f:73:00:01:da:4b:ab:18:48:6a:d0:b2:bc:6b:99:8f:
         fd:36:52:ab:27:ef:dc:0b:6e:a2:71:78:02:8a:c2:d0:46:30:
         b3:e1:3f:65:58:84:0c:04:f0:58:74:a3:e7:ca:c0:60:7a:a0:
         eb:61:1b:86:fa:7e:81:c1:9d:93:57:ba:cc:32:80:6f:11:86:
         79:82:4c:27:5e:0a:2f:d3:44:5b:79:3f:33:33:80:87:d0:b2:
         dc:74:db:f0:ec:d7:fd:cb:49:4a:b6:26:31:d2:1c:9a:22:7f:
         18:b1:a7:d1:63:8d:41:c9:d0:04:17:0c:e6:71:6c:d2:45:01:
         b7:f8:ac:b3:b1:a2:d3:28:bb:ff:f4:4d:63:d0:ce:c6:4a:55:
         4d:da:20:16:23:19:53:aa:1a:63:cd:51:73:97:9c:f2:df:10:
         5a:48:a2:ce:b0:39:15:1d:d2:21:28:fe:98:09:66:17:26:c5:
         a4:7d:a0:04
-----BEGIN CERTIFICATE-----
MIID1DCCArygAwIBAgIQPiydvrBCyM/8mULVTUFqqDANBgkqhkiG9w0BAQsFADBj
MQswCQYDVQQGEwJVUzETMBEGA1UECAwKQ2FsaWZvcm5pYTEWMBQGA1UEBwwNTW91
bnRhaW4gVmlldzEQMA4GA1UECgwHVGVzdCBDQTEVMBMGA1UEAwwMVGVzdCBSb290
IENBMB4XDTIwMDMxMzIwNDYxN1oXDTIyMDMxMzIwNDYxN1owYDELMAkGA1UEBhMC
VVMxEzARBgNVBAgMCkNhbGlmb3JuaWExFjAUBgNVBAcMDU1vdW50YWluIFZpZXcx
EDAOBgNVBAoMB1Rlc3QgQ0ExEjAQBgNVBAMMCWxvY2FsaG9zdDCCASIwDQYJKoZI
hvcNAQEBBQADggEPADCCAQoCggEBAOUHqf1c0VYTvThChqSsdk/9GGrIEX38X2k1
/w9O77mME0V0SKppR2z9V7UNbtR6kDND3fYYyGYnxD14N9QvA3OwOn8vM4s3bsSP
v+RCWT942VN7x3BVgw/8jz8jddXDN/Imzg//uTD+JUj+Ir62oyASO8usaPBgDGr3
n9r6m+S+aLBwDPAGQ/vpi9+x+aaJa3nBoYO/nJrOpBZaXT6Ldbpj6sVLxyRNdNxb
R3mdry/nABbJDBSNWnX6VMujTYLScebfsCBPyNXXKXLitdHw2bm/Tuk+KQ6lB0EV
BuWDl0FPHzRIpLrrJoGa7zcUuNcCYbW6EZPc44EDHCRplSu3jHECAwEAAaOBhjCB
gzAMBgNVHRMBAf8EAjAAMB0GA1UdDgQWBBTeXR1l/E30+X8Sa+6ctQ2bYupKETAf
BgNVHSMEGDAWgBSbJguKmKm7HbkfHOMaQDPtjheIqzAdBgNVHSUEFjAUBggrBgEF
BQcDAQYIKwYBBQUHAwIwFAYDVR0RBA0wC4IJbG9jYWxob3N0MA0GCSqGSIb3DQEB
CwUAA4IBAQChx3BFY8FqIkz3Iwtx3QdfqXBtf0aIGAvtxF2S+T/UJ+Jo/Q4Zlh4w
HmWFz5x9kDeI3s1g+pWY/19mElNlKI4BGda6qeB6qLSm2W9zAAHaS6sYSGrQsrxr
mY/9NlKrJ+/cC26icXgCisLQRjCz4T9lWIQMBPBYdKPnysBgeqDrYRuG+n6BwZ2T
V7rMMoBvEYZ5gkwnXgov00RbeT8zM4CH0LLcdNvw7Nf9y0lKtiYx0hyaIn8YsafR
Y41BydAEFwzmcWzSRQG3+KyzsaLTKLv/9E1j0M7GSlVN2iAWIxlTqhpjzVFzl5zy
3xBaSKLOsDkVHdIhKP6YCWYXJsWkfaAE
-----END CERTIFICATE-----
