-----BEGIN PRIVATE KEY-----
MIIEvwIBADANBgkqhkiG9w0BAQEFAASCBKkwggSlAgEAAoIBAQDdMNTtFer7VSdt
l6zPVbTtl9+an2G7yIJJM/SxOmDfoxkgYKnuOfR8D45dcjVTDzyRQTxUQfIXfRWx
ZqzSjVA1ax2Jc7+nAQV58q7aIpXG1dUkxS23uYKXenkZLRdr7s97F1+xiTJxYuqB
KIIqI5q6H9TWHkgbsVbywc5hIlThH1DDPs7eopMnKfq3tK3QGemaviIhcVPFouh5
OW97udBXzeRB9niLLyHbH9tlxdUmBm+eNZu+kZtFVGz+a9bleRFPnReevSomqLfD
DYbuuCSOyXKiGOjtaiJ+MZRkHZF+arHoGq4u4bElyQf7waJyfoxnJn8qE3Ek9jo7
Ddy/g+CPAgMBAAECggEBANbEnVp/F6RmMFx3E3JV09GGz7SA4RLGQ8r0Sbjz6C/9
W15WvWj0mPEE4cTWKfS2LKcVYpClX31zFOclvNTMJX9YvFtEKmjr0vdvrltbjXZ9
FfIYCqYD2Etgvci2QbGpNYhdT6tAfdweoXg7bvefjpL+aVhmGrnY3YXkrJEgFq5m
PWoPflqmrBA7ktNI2crLa/ty/bIIH6srIJVpRRle1NdUMIv9W1vFsK0HLV+BuOoQ
TqkjMybqWapAhCfTj85fjeoMggRbJyq9+uDpZBYqIcb/qFkSnWyqEq3y+xvpQqN7
oGPaeh4+Zyb6aHcQnVHBrhr5lbo6mgGYDw/yO/KDaIECgYEA9KX/xZb6z8on36kp
f9Kv8U/eq4rcyywxJtl+HPVLcSz/fIb5pAhtGbfG9VTjc/mVlrh/lB5w7qb/Lq+f
8oGUTv5eUzUXRI+d5AZwf2aTLeHWMSn02ouK1u8bJ8C2qv8FYu7Kb5lIDTJM7SEE
7hbdPF7FPlZAh59oLdUUXW8Aj+ECgYEA53QyIwbM4nMQVbeC4T+ahkLIYfZP+Yct
PMxW49VjDuZIQzeGMbxCMebsG2BHJ3n7vh9WUDEotb2ApFaBc7ChiJCOvH3vdJWM
ljBxVebaZsKSdv8ZzbYbpJR2tO2ZzifMN67JrM3Ge7k5sgJLhxsMfn7uXIO3aPQj
lsgdWc0NPm8CgYEArVCcLgKTlHkGXnCcsa00b6PBf41UdarM91TE/wbXd0oFhNaq
LAa8I6gKDusgZ5y82JXD687U+nzb8tsAWPBrfLq/X/sQjMWheVUGhXrJcYu4DgRH
LjwFE9c4SaVAw0r/KeM5Dm5smMy1qpflwjX4bThGS68W7/2B9FYrozVsFIECgYAk
vHqguJmYb67uC/yIB/Jc0QjBE7lJ37y8Y6p+6wWX/dEGai+wgTL4fLCI/9ULXP8q
BAtNGyBdCED81IYjeKuK43bkUBDLrljsFbBHdCbCHKvmm0LbNcZZbv8QZI3+/K4b
QHDeLqMMTC/uIxMd1Js9EKSApp9b1zQ24HhYIoWxnQKBgQDxsyI6BCxtLO8wzAjW
xWie6xH3o8MXi544URFhFs3Y/xCj4slha1yYb/CBzLN/IxKtBA2Kbox4/rWHaWLT
QUmcL8vcTRTx7yvrXuMXGunoF8q7adcfPDrAqaJ4OdkMy5W5VBhHqMjj+4cIy9Yq
LkC9LPJjUl2Ai8j8tLTVGB01HQ==
-----END PRIVATE KEY-----
Certificate:
    Data:
        Version: 3 (0x2)
        Serial Number:
            cf:95:70:1c:b6:6c:07:bb:a4:de:63:24:47:3b:4e:c4
        Signature Algorithm: sha256WithRSAEncryption
        Issuer: C=US, ST=California, L=Mountain View, O=Test CA, CN=Test Root CA
        Validity
            Not Before: Oct 30 18:43:14 2023 GMT
            Not After : Oct 29 18:43:14 2025 GMT
        Subject: C=US, ST=California, L=Mountain View, O=Test CA, CN=localhost
        Subject Public Key Info:
            Public Key Algorithm: rsaEncryption
                Public-Key: (2048 bit)
                Modulus:
                    00:dd:30:d4:ed:15:ea:fb:55:27:6d:97:ac:cf:55:
                    b4:ed:97:df:9a:9f:61:bb:c8:82:49:33:f4:b1:3a:
                    60:df:a3:19:20:60:a9:ee:39:f4:7c:0f:8e:5d:72:
                    35:53:0f:3c:91:41:3c:54:41:f2:17:7d:15:b1:66:
                    ac:d2:8d:50:35:6b:1d:89:73:bf:a7:01:05:79:f2:
                    ae:da:22:95:c6:d5:d5:24:c5:2d:b7:b9:82:97:7a:
                    79:19:2d:17:6b:ee:cf:7b:17:5f:b1:89:32:71:62:
                    ea:81:28:82:2a:23:9a:ba:1f:d4:d6:1e:48:1b:b1:
                    56:f2:c1:ce:61:22:54:e1:1f:50:c3:3e:ce:de:a2:
                    93:27:29:fa:b7:b4:ad:d0:19:e9:9a:be:22:21:71:
                    53:c5:a2:e8:79:39:6f:7b:b9:d0:57:cd:e4:41:f6:
                    78:8b:2f:21:db:1f:db:65:c5:d5:26:06:6f:9e:35:
                    9b:be:91:9b:45:54:6c:fe:6b:d6:e5:79:11:4f:9d:
                    17:9e:bd:2a:26:a8:b7:c3:0d:86:ee:b8:24:8e:c9:
                    72:a2:18:e8:ed:6a:22:7e:31:94:64:1d:91:7e:6a:
                    b1:e8:1a:ae:2e:e1:b1:25:c9:07:fb:c1:a2:72:7e:
                    8c:67:26:7f:2a:13:71:24:f6:3a:3b:0d:dc:bf:83:
                    e0:8f
                Exponent: 65537 (0x10001)
        X509v3 extensions:
            X509v3 Basic Constraints: critical
                CA:FALSE
            X509v3 Subject Key Identifier: 
                82:64:D7:FB:A9:83:29:D9:3D:A4:7B:9E:A5:2F:1C:FB:C4:34:4D:CB
            X509v3 Authority Key Identifier: 
                9B:26:0B:8A:98:A9:BB:1D:B9:1F:1C:E3:1A:40:33:ED:8E:17:88:AB
            X509v3 Extended Key Usage: 
                TLS Web Server Authentication, TLS Web Client Authentication
            X509v3 Subject Alternative Name: 
                DNS:localhost
    Signature Algorithm: sha256WithRSAEncryption
    Signature Value:
        5d:5b:34:26:8e:d0:d1:f9:3e:97:44:ef:82:ec:84:e8:de:ec:
        f8:52:81:98:5c:8e:16:de:ae:25:fd:b4:53:b9:fc:84:9a:6c:
        a1:1c:45:9c:eb:ee:7f:ed:2f:02:75:1c:30:20:13:a3:6e:dd:
        45:fe:6d:8d:04:82:4c:32:cd:7a:56:b4:ed:d7:4a:3d:d2:88:
        05:69:3d:72:81:cc:5f:5b:89:f5:37:ab:22:d9:9c:aa:48:35:
        30:a7:6d:9f:54:06:f6:67:26:23:00:d1:ce:73:2d:ce:f9:94:
        ec:e3:1f:04:f6:ae:41:84:ff:94:9a:15:1f:f2:8e:2c:c6:03:
        8d:8e:46:8a:68:b9:a1:e9:b0:7c:c5:ca:7c:18:e6:d8:4c:c8:
        07:72:29:4c:b8:f3:95:1e:32:eb:0a:ac:ce:75:ec:84:6c:9e:
        c8:f0:64:a0:b0:04:6e:7d:06:9e:24:73:86:c9:dc:11:99:be:
        03:0e:51:9c:1b:8d:ff:9e:e4:2d:fb:f7:e2:b6:b5:3b:2d:cc:
        93:f0:56:f2:60:2c:eb:1f:d1:c0:1a:3a:8f:92:ae:4d:10:8c:
        b2:01:a0:82:c4:6c:47:18:ea:d4:62:d4:3b:8b:65:f3:de:fb:
        0b:5f:7a:1e:7f:94:a4:4a:c7:49:bc:50:bf:12:b9:35:e9:c3:
        66:89:30:b4
-----BEGIN CERTIFICATE-----
MIID1TCCAr2gAwIBAgIRAM+VcBy2bAe7pN5jJEc7TsQwDQYJKoZIhvcNAQELBQAw
YzELMAkGA1UEBhMCVVMxEzARBgNVBAgMCkNhbGlmb3JuaWExFjAUBgNVBAcMDU1v
dW50YWluIFZpZXcxEDAOBgNVBAoMB1Rlc3QgQ0ExFTATBgNVBAMMDFRlc3QgUm9v
dCBDQTAeFw0yMzEwMzAxODQzMTRaFw0yNTEwMjkxODQzMTRaMGAxCzAJBgNVBAYT
AlVTMRMwEQYDVQQIDApDYWxpZm9ybmlhMRYwFAYDVQQHDA1Nb3VudGFpbiBWaWV3
MRAwDgYDVQQKDAdUZXN0IENBMRIwEAYDVQQDDAlsb2NhbGhvc3QwggEiMA0GCSqG
SIb3DQEBAQUAA4IBDwAwggEKAoIBAQDdMNTtFer7VSdtl6zPVbTtl9+an2G7yIJJ
M/SxOmDfoxkgYKnuOfR8D45dcjVTDzyRQTxUQfIXfRWxZqzSjVA1ax2Jc7+nAQV5
8q7aIpXG1dUkxS23uYKXenkZLRdr7s97F1+xiTJxYuqBKIIqI5q6H9TWHkgbsVby
wc5hIlThH1DDPs7eopMnKfq3tK3QGemaviIhcVPFouh5OW97udBXzeRB9niLLyHb
H9tlxdUmBm+eNZu+kZtFVGz+a9bleRFPnReevSomqLfDDYbuuCSOyXKiGOjtaiJ+
MZRkHZF+arHoGq4u4bElyQf7waJyfoxnJn8qE3Ek9jo7Ddy/g+CPAgMBAAGjgYYw
gYMwDAYDVR0TAQH/BAIwADAdBgNVHQ4EFgQUgmTX+6mDKdk9pHuepS8c+8Q0Tcsw
HwYDVR0jBBgwFoAUmyYLipipux25HxzjGkAz7Y4XiKswHQYDVR0lBBYwFAYIKwYB
BQUHAwEGCCsGAQUFBwMCMBQGA1UdEQQNMAuCCWxvY2FsaG9zdDANBgkqhkiG9w0B
AQsFAAOCAQEAXVs0Jo7Q0fk+l0TvguyE6N7s+FKBmFyOFt6uJf20U7n8hJpsoRxF
nOvuf+0vAnUcMCATo27dRf5tjQSCTDLNela07ddKPdKIBWk9coHMX1uJ9TerItmc
qkg1MKdtn1QG9mcmIwDRznMtzvmU7OMfBPauQYT/lJoVH/KOLMYDjY5Gimi5oemw
fMXKfBjm2EzIB3IpTLjzlR4y6wqsznXshGyeyPBkoLAEbn0GniRzhsncEZm+Aw5R
nBuN/57kLfv34ra1Oy3Mk/BW8mAs6x/RwBo6j5KuTRCMsgGggsRsRxjq1GLUO4tl
8977C196Hn+UpErHSbxQvxK5NenDZokwtA==
-----END CERTIFICATE-----
