Certificate:
    Data:
        Version: 3 (0x2)
        Serial Number:
            b0:6b:93:92:e3:5c:8d:7e:ed:9d:c8:96:59:c5:c2:85
        Signature Algorithm: sha256WithRSAEncryption
        Issuer: C=US, ST=California, L=Mountain View, O=Test CA, CN=Test Root CA
        Validity
            Not Before: May  1 00:00:00 2018 GMT
            Not After : Aug  3 00:00:00 2020 GMT
        Subject: C=US, ST=California, L=Mountain View, O=Test CA, CN=127.0.0.1
        Subject Public Key Info:
            Public Key Algorithm: rsaEncryption
                Public-Key: (2048 bit)
                Modulus:
                    00:ea:e1:1f:7d:6f:ea:1e:9b:48:0b:ef:50:23:47:
                    bf:7d:b7:1e:bf:0f:21:96:f7:71:50:9c:8c:85:3e:
                    d8:c1:04:1e:77:bf:22:a1:86:98:c1:77:ce:b0:26:
                    43:64:a5:0c:38:b5:a7:47:12:b1:15:d1:9e:c1:99:
                    5c:bf:49:af:74:89:6f:6d:72:73:db:75:78:d6:59:
                    26:de:56:f5:e7:bc:99:4f:3e:9e:56:57:37:fc:c8:
                    47:19:ab:82:19:64:a8:20:50:2d:a9:1c:d3:0b:e1:
                    0a:b9:ac:71:92:26:3a:cd:cc:e9:24:28:9c:0f:5a:
                    3b:55:1f:4d:56:2d:70:c0:7c:f5:d2:22:42:a5:d5:
                    2b:1c:69:a7:58:a2:13:ea:31:ef:0a:c7:83:22:19:
                    63:bb:8a:69:0b:14:47:02:48:b1:e5:bf:86:53:57:
                    b8:66:8a:e5:96:99:4e:c5:aa:0b:a3:13:f5:a0:d5:
                    46:92:d4:30:ea:04:59:d2:0d:88:05:83:d4:7f:ea:
                    2a:6c:05:3d:c7:1f:ec:d4:e8:8e:cc:6c:65:e0:53:
                    a3:ce:60:85:ac:02:a8:e5:0d:93:22:33:f7:dc:fa:
                    d9:56:a5:cc:3b:6d:58:ad:6d:7b:82:ff:e9:78:2b:
                    59:37:ff:01:a2:e0:3b:0f:71:86:b6:fa:0d:b4:0b:
                    21:2f
                Exponent: 65537 (0x10001)
        X509v3 extensions:
            X509v3 Basic Constraints: critical
                CA:FALSE
            X509v3 Subject Key Identifier: 
                44:18:DF:A8:01:30:8C:D7:AE:44:06:6E:FA:98:D9:7D:43:35:92:07
            X509v3 Authority Key Identifier: 
                9B:26:0B:8A:98:A9:BB:1D:B9:1F:1C:E3:1A:40:33:ED:8E:17:88:AB
            X509v3 Extended Key Usage: 
                TLS Web Server Authentication, TLS Web Client Authentication
            X509v3 Subject Alternative Name: 
                IP Address:127.0.0.1
    Signature Algorithm: sha256WithRSAEncryption
    Signature Value:
        35:bd:31:e9:2f:8f:24:03:63:ac:0f:eb:42:8c:79:3e:9a:2b:
        a0:67:c3:a2:87:11:74:61:8a:f5:d4:5f:43:b4:9d:47:ff:86:
        f8:52:66:b0:1f:f5:55:d2:e6:ba:11:cc:ca:2d:57:9a:90:e1:
        60:b4:3d:38:78:cf:9d:31:e2:8f:b0:b5:96:cc:2e:a4:bd:68:
        5a:dc:48:41:f8:d7:71:9f:bc:52:84:15:d9:5c:46:70:20:d0:
        57:d9:67:47:dd:b4:17:12:7f:0b:20:94:4b:6d:3d:66:fc:02:
        6b:43:a4:b5:db:a7:88:6e:91:c3:66:c1:1a:e5:ec:bb:c2:13:
        29:f1:3f:81:11:99:1a:58:88:de:b5:fc:d6:0e:c0:a6:31:df:
        ba:e0:c0:3a:a3:1b:60:7a:c6:9c:e0:46:e4:98:a5:08:48:a8:
        c6:83:c6:8a:3b:b9:8b:e1:2e:21:91:58:ad:8c:fc:e3:99:bb:
        68:70:15:19:13:38:89:0b:c9:b3:03:52:65:52:68:37:64:c5:
        fd:50:99:90:74:d4:b3:29:8a:49:a6:65:e1:fb:df:14:5b:6f:
        eb:ac:59:f8:91:68:07:c1:ea:e3:63:31:ec:66:d5:57:bd:82:
        34:b3:8a:75:80:f8:75:28:9e:92:33:84:d8:d8:7b:f1:85:14:
        be:60:e6:33
-----BEGIN CERTIFICATE-----
MIIDzzCCAregAwIBAgIRALBrk5LjXI1+7Z3IllnFwoUwDQYJKoZIhvcNAQELBQAw
YzELMAkGA1UEBhMCVVMxEzARBgNVBAgMCkNhbGlmb3JuaWExFjAUBgNVBAcMDU1v
dW50YWluIFZpZXcxEDAOBgNVBAoMB1Rlc3QgQ0ExFTATBgNVBAMMDFRlc3QgUm9v
dCBDQTAeFw0xODA1MDEwMDAwMDBaFw0yMDA4MDMwMDAwMDBaMGAxCzAJBgNVBAYT
AlVTMRMwEQYDVQQIDApDYWxpZm9ybmlhMRYwFAYDVQQHDA1Nb3VudGFpbiBWaWV3
MRAwDgYDVQQKDAdUZXN0IENBMRIwEAYDVQQDDAkxMjcuMC4wLjEwggEiMA0GCSqG
SIb3DQEBAQUAA4IBDwAwggEKAoIBAQDq4R99b+oem0gL71AjR799tx6/DyGW93FQ
nIyFPtjBBB53vyKhhpjBd86wJkNkpQw4tadHErEV0Z7BmVy/Sa90iW9tcnPbdXjW
WSbeVvXnvJlPPp5WVzf8yEcZq4IZZKggUC2pHNML4Qq5rHGSJjrNzOkkKJwPWjtV
H01WLXDAfPXSIkKl1SscaadYohPqMe8Kx4MiGWO7imkLFEcCSLHlv4ZTV7hmiuWW
mU7FqgujE/Wg1UaS1DDqBFnSDYgFg9R/6ipsBT3HH+zU6I7MbGXgU6POYIWsAqjl
DZMiM/fc+tlWpcw7bVitbXuC/+l4K1k3/wGi4DsPcYa2+g20CyEvAgMBAAGjgYAw
fjAMBgNVHRMBAf8EAjAAMB0GA1UdDgQWBBREGN+oATCM165EBm76mNl9QzWSBzAf
BgNVHSMEGDAWgBSbJguKmKm7HbkfHOMaQDPtjheIqzAdBgNVHSUEFjAUBggrBgEF
BQcDAQYIKwYBBQUHAwIwDwYDVR0RBAgwBocEfwAAATANBgkqhkiG9w0BAQsFAAOC
AQEANb0x6S+PJANjrA/rQox5PporoGfDoocRdGGK9dRfQ7SdR/+G+FJmsB/1VdLm
uhHMyi1XmpDhYLQ9OHjPnTHij7C1lswupL1oWtxIQfjXcZ+8UoQV2VxGcCDQV9ln
R920FxJ/CyCUS209ZvwCa0OktduniG6Rw2bBGuXsu8ITKfE/gRGZGliI3rX81g7A
pjHfuuDAOqMbYHrGnOBG5JilCEioxoPGiju5i+EuIZFYrYz845m7aHAVGRM4iQvJ
swNSZVJoN2TF/VCZkHTUsymKSaZl4fvfFFtv66xZ+JFoB8Hq42Mx7GbVV72CNLOK
dYD4dSiekjOE2Nh78YUUvmDmMw==
-----END CERTIFICATE-----
