Certificate:
    Data:
        Version: 3 (0x2)
        Serial Number:
            cf:95:70:1c:b6:6c:07:bb:a4:de:63:24:47:3b:4e:db
        Signature Algorithm: sha256WithRSAEncryption
        Issuer: C=US, ST=California, L=Mountain View, O=Test CA, CN=Test Root CA
        Validity
            Not Before: May  1 00:00:00 2018 GMT
            Not After : Aug  3 00:00:00 2020 GMT
        Subject: C=US, ST=California, L=Mountain View, O=Test CA, CN=127.0.0.1
        Subject Public Key Info:
            Public Key Algorithm: rsaEncryption
                Public-Key: (2048 bit)
                Modulus:
                    00:a9:a5:d4:9c:4d:92:4f:6e:21:31:dc:bc:75:04:
                    ea:d4:93:94:bb:db:33:ed:64:d2:99:4b:78:dc:2f:
                    d2:8b:cf:3c:bc:7f:6d:48:be:09:bd:18:12:58:83:
                    91:4f:d8:33:bf:26:70:aa:fa:08:e3:6a:e0:e4:70:
                    a7:39:0a:21:84:a3:b8:83:4c:d7:b0:07:3d:55:92:
                    be:95:b5:25:bf:04:8c:90:d7:29:40:18:16:9f:1f:
                    49:7f:b5:4b:b6:1e:93:b8:0d:fe:aa:1e:c8:60:64:
                    8d:d3:ca:e0:80:4d:73:26:79:75:64:17:88:30:ac:
                    f9:05:4e:e4:c2:0f:00:75:54:f7:48:87:10:d7:e2:
                    11:1d:e5:45:c2:d5:fd:ed:93:e8:4f:45:d6:0e:7f:
                    43:63:e1:fc:39:ae:e0:f4:a3:53:a4:18:5b:40:0c:
                    8c:bf:83:0c:9c:e0:01:8e:ba:11:46:08:97:f9:32:
                    f2:ce:ca:89:7e:93:5c:3a:3f:9e:fa:73:ba:59:68:
                    68:8d:57:1b:d6:41:76:30:17:c9:44:5a:43:03:15:
                    e8:66:41:20:74:7a:da:22:b2:a0:a9:66:f5:5f:52:
                    25:b7:c8:f7:12:d8:d9:df:37:09:62:1f:d1:49:12:
                    75:64:69:00:48:79:af:a7:9e:b5:26:4b:ac:df:6d:
                    93:3f
                Exponent: 65537 (0x10001)
        X509v3 extensions:
            X509v3 Basic Constraints: critical
                CA:FALSE
            X509v3 Subject Key Identifier: 
                7F:61:58:1B:CE:0B:6A:D4:53:9A:E7:01:00:1F:0B:11:99:C8:40:DB
            X509v3 Authority Key Identifier: 
                9B:26:0B:8A:98:A9:BB:1D:B9:1F:1C:E3:1A:40:33:ED:8E:17:88:AB
            X509v3 Extended Key Usage: 
                TLS Web Server Authentication, TLS Web Client Authentication
            X509v3 Subject Alternative Name: 
                IP Address:127.0.0.1
    Signature Algorithm: sha256WithRSAEncryption
    Signature Value:
        37:62:1c:20:06:7f:78:d1:c1:00:4d:de:c6:98:0b:af:9e:30:
        59:10:d0:95:74:46:f5:7c:da:fe:d1:52:cb:eb:cf:84:0b:02:
        fc:88:0c:84:73:89:bc:db:e7:68:5a:83:6e:03:9e:2e:b6:ba:
        cd:37:7b:23:d4:f4:a5:d8:80:56:44:e0:5c:72:23:02:08:39:
        ba:d7:7a:24:31:7f:ce:5e:f1:6d:ab:c8:da:d0:fa:ad:dd:f2:
        e2:8c:e1:f1:54:c2:7a:e6:ec:58:91:33:6a:a5:3f:b1:e2:ff:
        91:76:c2:0d:a4:a0:82:d6:6f:06:1f:b9:94:f2:e1:a4:02:fe:
        95:e3:36:38:98:67:7e:b9:23:d3:17:f4:19:65:76:15:ff:aa:
        4c:a7:82:15:a7:04:17:ab:f2:5a:26:d9:60:cb:83:05:e4:f1:
        1e:5a:6e:b2:94:a5:e8:1b:00:41:2d:67:d4:db:f3:54:eb:dd:
        3d:38:c8:55:20:5b:93:35:4f:72:5d:7f:89:57:9d:80:b4:d7:
        2d:c4:d8:31:61:4e:b4:7d:52:61:9f:39:c5:97:3d:f2:1a:9f:
        41:01:fc:e2:dc:94:d0:e3:19:8e:6b:2c:a6:99:fd:9c:49:16:
        69:7a:b9:43:6f:00:65:fd:0e:6c:0b:94:ae:a1:b8:07:6e:4b:
        2c:b7:63:ff
-----BEGIN CERTIFICATE-----
MIIDzzCCAregAwIBAgIRAM+VcBy2bAe7pN5jJEc7TtswDQYJKoZIhvcNAQELBQAw
YzELMAkGA1UEBhMCVVMxEzARBgNVBAgMCkNhbGlmb3JuaWExFjAUBgNVBAcMDU1v
dW50YWluIFZpZXcxEDAOBgNVBAoMB1Rlc3QgQ0ExFTATBgNVBAMMDFRlc3QgUm9v
dCBDQTAeFw0xODA1MDEwMDAwMDBaFw0yMDA4MDMwMDAwMDBaMGAxCzAJBgNVBAYT
AlVTMRMwEQYDVQQIDApDYWxpZm9ybmlhMRYwFAYDVQQHDA1Nb3VudGFpbiBWaWV3
MRAwDgYDVQQKDAdUZXN0IENBMRIwEAYDVQQDDAkxMjcuMC4wLjEwggEiMA0GCSqG
SIb3DQEBAQUAA4IBDwAwggEKAoIBAQCppdScTZJPbiEx3Lx1BOrUk5S72zPtZNKZ
S3jcL9KLzzy8f21Ivgm9GBJYg5FP2DO/JnCq+gjjauDkcKc5CiGEo7iDTNewBz1V
kr6VtSW/BIyQ1ylAGBafH0l/tUu2HpO4Df6qHshgZI3TyuCATXMmeXVkF4gwrPkF
TuTCDwB1VPdIhxDX4hEd5UXC1f3tk+hPRdYOf0Nj4fw5ruD0o1OkGFtADIy/gwyc
4AGOuhFGCJf5MvLOyol+k1w6P576c7pZaGiNVxvWQXYwF8lEWkMDFehmQSB0etoi
sqCpZvVfUiW3yPcS2NnfNwliH9FJEnVkaQBIea+nnrUmS6zfbZM/AgMBAAGjgYAw
fjAMBgNVHRMBAf8EAjAAMB0GA1UdDgQWBBR/YVgbzgtq1FOa5wEAHwsRmchA2zAf
BgNVHSMEGDAWgBSbJguKmKm7HbkfHOMaQDPtjheIqzAdBgNVHSUEFjAUBggrBgEF
BQcDAQYIKwYBBQUHAwIwDwYDVR0RBAgwBocEfwAAATANBgkqhkiG9w0BAQsFAAOC
AQEAN2IcIAZ/eNHBAE3expgLr54wWRDQlXRG9Xza/tFSy+vPhAsC/IgMhHOJvNvn
aFqDbgOeLra6zTd7I9T0pdiAVkTgXHIjAgg5utd6JDF/zl7xbavI2tD6rd3y4ozh
8VTCeubsWJEzaqU/seL/kXbCDaSggtZvBh+5lPLhpAL+leM2OJhnfrkj0xf0GWV2
Ff+qTKeCFacEF6vyWibZYMuDBeTxHlpuspSl6BsAQS1n1NvzVOvdPTjIVSBbkzVP
cl1/iVedgLTXLcTYMWFOtH1SYZ85xZc98hqfQQH84tyU0OMZjmssppn9nEkWaXq5
Q28AZf0ObAuUrqG4B25LLLdj/w==
-----END CERTIFICATE-----
