Certificate:
    Data:
        Version: 3 (0x2)
        Serial Number:
            12:f6:d9:f1:80:1b:50:9f:64:09:c8:ea:2f:16:33:c1
        Signature Algorithm: sha256WithRSAEncryption
        Issuer: C=US, ST=California, L=Mountain View, O=Test CA, CN=Test Root CA
        Validity
            Not Before: May  1 00:00:00 2018 GMT
            Not After : Aug  3 00:00:00 2020 GMT
        Subject: C=US, ST=California, L=Mountain View, O=Test CA, CN=127.0.0.1
        Subject Public Key Info:
            Public Key Algorithm: rsaEncryption
                RSA Public-Key: (2048 bit)
                Modulus:
                    00:c7:db:d4:ed:51:ec:ba:52:12:a1:ce:4b:44:c2:
                    3d:10:09:ae:63:8d:3e:61:53:51:04:bf:df:9d:90:
                    bc:dc:74:44:4c:30:cd:1f:83:5a:63:5b:1f:dc:c5:
                    7e:80:86:1e:0e:f5:94:36:54:90:65:36:a4:5a:97:
                    cb:c1:47:16:24:9c:be:01:d3:4e:11:8f:d4:97:1a:
                    c0:93:16:80:43:00:04:f4:d0:0b:9d:58:7f:a7:c0:
                    8c:1f:85:b2:cf:19:de:3f:80:8c:37:52:68:db:e4:
                    67:84:0d:94:d7:cc:a1:62:16:87:7e:6e:5b:ad:c0:
                    bf:32:b3:ac:9c:1c:0c:27:00:c1:49:c3:05:93:06:
                    16:05:1d:dd:d8:a6:b2:33:c1:4f:73:1d:d1:43:75:
                    1d:05:05:e1:aa:ea:3b:b0:4f:8c:d0:94:63:ef:08:
                    da:21:bd:03:73:51:4c:53:94:0f:34:a6:dc:9b:b6:
                    b2:87:a8:e3:3e:e9:e6:bb:59:ba:df:31:8e:49:db:
                    cf:ea:21:37:bb:7a:c4:02:d1:40:3a:ed:90:49:9c:
                    7b:6f:1d:bd:ab:e5:7d:93:41:1d:c7:fb:34:c2:7e:
                    9c:92:8f:a6:cb:e1:c4:16:1f:8e:4e:c7:7e:cc:65:
                    5b:de:78:4a:5a:80:b2:0e:21:6d:9b:35:60:e4:59:
                    23:ab
                Exponent: 65537 (0x10001)
        X509v3 extensions:
            X509v3 Basic Constraints: critical
                CA:FALSE
            X509v3 Subject Key Identifier: 
                9E:32:85:AA:3A:EF:9C:98:42:FF:C1:31:9A:66:80:F5:FC:A5:58:1F
            X509v3 Authority Key Identifier: 
                keyid:9B:26:0B:8A:98:A9:BB:1D:B9:1F:1C:E3:1A:40:33:ED:8E:17:88:AB

            X509v3 Extended Key Usage: 
                TLS Web Server Authentication, TLS Web Client Authentication
            X509v3 Subject Alternative Name: 
                IP Address:127.0.0.1
    Signature Algorithm: sha256WithRSAEncryption
         16:ec:81:71:d3:db:7b:d5:77:88:2a:34:fa:4b:b6:ea:d1:7a:
         e9:b3:83:0d:99:9c:08:13:ff:da:f9:db:c1:5a:30:d2:9c:f1:
         db:f6:af:9e:99:0b:fd:45:f1:ae:03:3a:6f:41:0d:c9:8b:f3:
         cb:b0:46:15:65:73:06:6a:da:ed:b4:55:b9:aa:b0:fb:e2:03:
         8c:09:f6:c4:76:90:43:8d:cd:d0:1b:03:50:95:b9:88:67:76:
         26:dd:24:24:cf:1d:66:a3:5a:eb:38:2d:f3:19:42:1f:2b:66:
         a4:75:49:94:da:92:84:91:77:aa:0a:57:66:f0:8b:3f:a9:c3:
         aa:8e:12:25:23:52:17:27:7d:7f:39:1f:a1:db:8a:33:82:a9:
         10:6b:d2:d3:ad:7c:e4:18:3e:d6:5b:99:76:e9:4c:35:cd:11:
         74:0a:27:1b:f1:24:3b:46:de:de:67:3f:53:4c:cc:0e:d1:9e:
         66:e5:97:68:92:e4:8c:7d:38:2b:c2:c0:fa:13:51:5d:69:63:
         7f:7f:94:77:c3:7a:20:fa:97:1a:96:b9:c4:87:85:e7:95:30:
         9b:d4:fd:30:dc:13:8a:99:fc:60:9d:f2:29:13:76:de:2c:de:
         83:cb:40:b2:9b:7f:f6:ff:6c:c3:2f:0d:0f:30:74:a2:43:ca:
         65:b8:c6:bf
-----BEGIN CERTIFICATE-----
MIIDzjCCAragAwIBAgIQEvbZ8YAbUJ9kCcjqLxYzwTANBgkqhkiG9w0BAQsFADBj
MQswCQYDVQQGEwJVUzETMBEGA1UECAwKQ2FsaWZvcm5pYTEWMBQGA1UEBwwNTW91
bnRhaW4gVmlldzEQMA4GA1UECgwHVGVzdCBDQTEVMBMGA1UEAwwMVGVzdCBSb290
IENBMB4XDTE4MDUwMTAwMDAwMFoXDTIwMDgwMzAwMDAwMFowYDELMAkGA1UEBhMC
VVMxEzARBgNVBAgMCkNhbGlmb3JuaWExFjAUBgNVBAcMDU1vdW50YWluIFZpZXcx
EDAOBgNVBAoMB1Rlc3QgQ0ExEjAQBgNVBAMMCTEyNy4wLjAuMTCCASIwDQYJKoZI
hvcNAQEBBQADggEPADCCAQoCggEBAMfb1O1R7LpSEqHOS0TCPRAJrmONPmFTUQS/
352QvNx0REwwzR+DWmNbH9zFfoCGHg71lDZUkGU2pFqXy8FHFiScvgHTThGP1Jca
wJMWgEMABPTQC51Yf6fAjB+Fss8Z3j+AjDdSaNvkZ4QNlNfMoWIWh35uW63AvzKz
rJwcDCcAwUnDBZMGFgUd3dimsjPBT3Md0UN1HQUF4arqO7BPjNCUY+8I2iG9A3NR
TFOUDzSm3Ju2soeo4z7p5rtZut8xjknbz+ohN7t6xALRQDrtkEmce28dvavlfZNB
Hcf7NMJ+nJKPpsvhxBYfjk7HfsxlW954SlqAsg4hbZs1YORZI6sCAwEAAaOBgDB+
MAwGA1UdEwEB/wQCMAAwHQYDVR0OBBYEFJ4yhao675yYQv/BMZpmgPX8pVgfMB8G
A1UdIwQYMBaAFJsmC4qYqbsduR8c4xpAM+2OF4irMB0GA1UdJQQWMBQGCCsGAQUF
BwMBBggrBgEFBQcDAjAPBgNVHREECDAGhwR/AAABMA0GCSqGSIb3DQEBCwUAA4IB
AQAW7IFx09t71XeIKjT6S7bq0Xrps4MNmZwIE//a+dvBWjDSnPHb9q+emQv9RfGu
AzpvQQ3Ji/PLsEYVZXMGatrttFW5qrD74gOMCfbEdpBDjc3QGwNQlbmIZ3Ym3SQk
zx1mo1rrOC3zGUIfK2akdUmU2pKEkXeqCldm8Is/qcOqjhIlI1IXJ31/OR+h24oz
gqkQa9LTrXzkGD7WW5l26Uw1zRF0Cicb8SQ7Rt7eZz9TTMwO0Z5m5ZdokuSMfTgr
wsD6E1FdaWN/f5R3w3og+pcalrnEh4XnlTCb1P0w3BOKmfxgnfIpE3beLN6Dy0Cy
m3/2/2zDLw0PMHSiQ8pluMa/
-----END CERTIFICATE-----
