Certificate:
    Data:
        Version: 3 (0x2)
        Serial Number:
            3e:2c:9d:be:b0:42:c8:cf:fc:99:42:d5:4d:41:6a:bf
        Signature Algorithm: sha256WithRSAEncryption
        Issuer: C=US, ST=California, L=Mountain View, O=Test CA, CN=Test Root CA
        Validity
            Not Before: May  1 00:00:00 2018 GMT
            Not After : Aug  3 00:00:00 2020 GMT
        Subject: C=US, ST=California, L=Mountain View, O=Test CA, CN=127.0.0.1
        Subject Public Key Info:
            Public Key Algorithm: rsaEncryption
                RSA Public-Key: (2048 bit)
                Modulus:
                    00:a8:20:d7:b5:53:a5:b8:d6:5a:82:8b:5c:96:c6:
                    88:55:d4:0d:4b:76:b8:31:9f:c7:55:1b:fb:6c:34:
                    e8:4e:92:f9:bb:91:54:c8:f6:90:6a:19:c2:d5:2c:
                    6c:dd:1c:74:ae:0a:be:80:38:12:54:a9:22:6a:83:
                    d4:b2:a0:c8:e4:45:88:36:66:b8:6d:5f:b3:26:7c:
                    4a:ee:64:77:02:37:fe:2f:4b:af:78:a2:36:d9:2e:
                    2b:8a:f5:36:05:83:04:d0:75:0d:65:cc:4b:95:72:
                    49:b1:b4:12:9a:a4:e6:b7:98:79:34:8e:75:bd:fa:
                    cb:f3:02:66:bf:2d:b4:54:cb:ce:e3:f2:53:9d:41:
                    31:30:47:28:72:cc:55:de:73:ea:36:c6:45:c5:66:
                    d2:82:03:cc:de:0e:34:4a:27:dc:31:2d:3d:8c:5f:
                    dc:98:da:2c:74:c8:86:04:06:ba:dc:99:57:48:c0:
                    ed:bc:cd:94:34:bd:a2:be:46:b6:e7:8b:c7:04:3d:
                    06:27:7e:a5:f2:69:d7:75:6f:8b:0b:29:2c:1c:bd:
                    7e:0e:92:34:0c:0f:9b:5f:79:4f:a0:d5:5e:37:b1:
                    b8:24:ab:d8:b7:59:ea:e0:37:82:bd:b6:79:f1:51:
                    b3:16:98:6e:92:3c:a5:e6:03:0e:55:36:99:cd:71:
                    89:2b
                Exponent: 65537 (0x10001)
        X509v3 extensions:
            X509v3 Basic Constraints: critical
                CA:FALSE
            X509v3 Subject Key Identifier: 
                C5:B9:ED:68:6D:83:F9:9F:CA:5E:A1:DC:64:A5:0B:55:A3:C1:B4:D2
            X509v3 Authority Key Identifier: 
                keyid:9B:26:0B:8A:98:A9:BB:1D:B9:1F:1C:E3:1A:40:33:ED:8E:17:88:AB

            X509v3 Extended Key Usage: 
                TLS Web Server Authentication, TLS Web Client Authentication
            X509v3 Subject Alternative Name: 
                IP Address:127.0.0.1
    Signature Algorithm: sha256WithRSAEncryption
         3c:43:c3:c6:fd:bf:4d:ed:7c:50:08:cb:ea:18:95:40:6c:32:
         9a:78:fd:90:72:64:6a:2b:95:23:2c:7e:29:6e:fd:ab:e7:22:
         5c:91:ae:cf:6a:89:d7:14:15:d9:da:b9:d1:c7:b9:ae:1b:b8:
         53:0f:aa:58:52:65:ba:24:b7:4b:b6:6e:db:12:3e:44:1f:60:
         06:49:0b:cb:5b:e1:87:4f:13:7e:3a:1f:63:70:0f:38:99:44:
         3a:49:a9:7a:ea:81:ef:94:22:88:21:3a:5b:af:5e:e4:4f:e4:
         57:3b:6c:79:87:1c:53:d6:60:e6:64:77:a5:6b:cf:8b:90:28:
         32:44:7b:6d:c3:01:ac:38:bf:2d:64:63:a5:03:c4:d0:46:8d:
         16:7c:a8:89:e6:10:5e:25:af:a4:1a:3d:8f:08:65:c6:75:f5:
         e4:6e:a2:11:62:9a:03:d7:fe:f7:22:c6:c4:da:c7:83:f3:cf:
         93:c5:8c:47:30:79:16:c8:79:ea:02:96:bf:e9:26:03:a9:da:
         54:75:eb:13:85:f4:5e:53:8b:75:d1:cc:c3:22:a3:07:c1:68:
         17:de:a9:90:0c:b1:7e:72:c6:f8:02:9b:a8:d2:33:fa:c4:4e:
         eb:8d:a3:49:62:2c:4c:0d:48:a0:7b:a6:98:42:dd:82:33:a8:
         1d:57:b7:32
-----BEGIN CERTIFICATE-----
MIIDzjCCAragAwIBAgIQPiydvrBCyM/8mULVTUFqvzANBgkqhkiG9w0BAQsFADBj
MQswCQYDVQQGEwJVUzETMBEGA1UECAwKQ2FsaWZvcm5pYTEWMBQGA1UEBwwNTW91
bnRhaW4gVmlldzEQMA4GA1UECgwHVGVzdCBDQTEVMBMGA1UEAwwMVGVzdCBSb290
IENBMB4XDTE4MDUwMTAwMDAwMFoXDTIwMDgwMzAwMDAwMFowYDELMAkGA1UEBhMC
VVMxEzARBgNVBAgMCkNhbGlmb3JuaWExFjAUBgNVBAcMDU1vdW50YWluIFZpZXcx
EDAOBgNVBAoMB1Rlc3QgQ0ExEjAQBgNVBAMMCTEyNy4wLjAuMTCCASIwDQYJKoZI
hvcNAQEBBQADggEPADCCAQoCggEBAKgg17VTpbjWWoKLXJbGiFXUDUt2uDGfx1Ub
+2w06E6S+buRVMj2kGoZwtUsbN0cdK4KvoA4ElSpImqD1LKgyORFiDZmuG1fsyZ8
Su5kdwI3/i9Lr3iiNtkuK4r1NgWDBNB1DWXMS5VySbG0Epqk5reYeTSOdb36y/MC
Zr8ttFTLzuPyU51BMTBHKHLMVd5z6jbGRcVm0oIDzN4ONEon3DEtPYxf3JjaLHTI
hgQGutyZV0jA7bzNlDS9or5GtueLxwQ9Bid+pfJp13VviwspLBy9fg6SNAwPm195
T6DVXjexuCSr2LdZ6uA3gr22efFRsxaYbpI8peYDDlU2mc1xiSsCAwEAAaOBgDB+
MAwGA1UdEwEB/wQCMAAwHQYDVR0OBBYEFMW57Whtg/mfyl6h3GSlC1WjwbTSMB8G
A1UdIwQYMBaAFJsmC4qYqbsduR8c4xpAM+2OF4irMB0GA1UdJQQWMBQGCCsGAQUF
BwMBBggrBgEFBQcDAjAPBgNVHREECDAGhwR/AAABMA0GCSqGSIb3DQEBCwUAA4IB
AQA8Q8PG/b9N7XxQCMvqGJVAbDKaeP2QcmRqK5UjLH4pbv2r5yJcka7PaonXFBXZ
2rnRx7muG7hTD6pYUmW6JLdLtm7bEj5EH2AGSQvLW+GHTxN+Oh9jcA84mUQ6Sal6
6oHvlCKIITpbr17kT+RXO2x5hxxT1mDmZHela8+LkCgyRHttwwGsOL8tZGOlA8TQ
Ro0WfKiJ5hBeJa+kGj2PCGXGdfXkbqIRYpoD1/73IsbE2seD88+TxYxHMHkWyHnq
Apa/6SYDqdpUdesThfReU4t10czDIqMHwWgX3qmQDLF+csb4Apuo0jP6xE7rjaNJ
YixMDUige6aYQt2CM6gdV7cy
-----END CERTIFICATE-----
