Certificate:
    Data:
        Version: 3 (0x2)
        Serial Number:
            5a:84:70:47:19:f5:1a:b1:2b:02:fc:31:3f:08:cd:39
        Signature Algorithm: sha256WithRSAEncryption
        Issuer: C=US, ST=California, L=Mountain View, O=Test CA, CN=Test Root CA
        Validity
            Not Before: May  1 00:00:00 2018 GMT
            Not After : Aug  3 00:00:00 2020 GMT
        Subject: C=US, ST=California, L=Mountain View, O=Test CA, CN=127.0.0.1
        Subject Public Key Info:
            Public Key Algorithm: rsaEncryption
                Public-Key: (2048 bit)
                Modulus:
                    00:d4:4a:d4:ac:3e:73:fd:a4:1b:3c:16:e9:06:55:
                    5e:be:ec:55:13:dc:5a:34:ea:6b:02:f1:63:6b:c8:
                    a9:ff:95:1f:7b:6a:06:e7:26:74:54:03:ea:1e:1f:
                    36:37:96:b1:8b:fe:1b:1c:c6:4b:d5:ef:e0:d6:b6:
                    4a:90:44:02:5a:48:9c:9f:dc:f5:38:a2:40:25:50:
                    3a:b2:18:9c:a6:e9:e3:65:24:39:ae:1f:9f:ff:7b:
                    c5:ce:ba:b1:98:60:be:75:39:6a:56:b2:ee:0a:52:
                    44:a9:f6:36:b6:48:5f:c7:31:5d:07:be:9e:67:6a:
                    fd:fd:09:df:b1:c4:9a:e2:63:c4:ed:f0:5f:d0:08:
                    87:af:1f:51:a7:89:28:2b:0e:a0:09:ba:b6:7e:fc:
                    5e:7f:d9:34:f1:e8:ca:b8:a0:14:cf:ad:7a:b0:5f:
                    e0:4c:42:d3:28:80:ad:01:bd:10:4a:ec:ef:46:8f:
                    64:5f:b9:2d:2c:7e:29:a6:cf:51:15:19:e5:11:34:
                    c4:0d:6c:f1:87:00:fa:c6:f4:e8:ab:11:b3:c6:e8:
                    a1:f7:cf:cb:ad:6c:af:e5:f6:57:cb:74:26:0b:e8:
                    36:36:94:7d:f2:4b:1b:0d:36:00:ca:fb:d5:8f:59:
                    b9:6d:cd:e4:e0:e8:35:0e:6c:d4:85:eb:47:08:d3:
                    dd:d3
                Exponent: 65537 (0x10001)
        X509v3 extensions:
            X509v3 Basic Constraints: critical
                CA:FALSE
            X509v3 Subject Key Identifier: 
                DE:1C:70:E5:94:23:A7:41:EC:68:70:9F:98:99:B8:81:13:4A:CD:62
            X509v3 Authority Key Identifier: 
                9B:26:0B:8A:98:A9:BB:1D:B9:1F:1C:E3:1A:40:33:ED:8E:17:88:AB
            X509v3 Extended Key Usage: 
                TLS Web Server Authentication, TLS Web Client Authentication
            X509v3 Subject Alternative Name: 
                IP Address:127.0.0.1
    Signature Algorithm: sha256WithRSAEncryption
    Signature Value:
        23:2e:ee:93:0d:f3:3a:45:78:a9:25:c1:8c:09:d9:04:0c:85:
        25:32:92:5a:45:f1:45:a5:14:51:07:a3:63:78:b2:44:f7:59:
        20:a7:f7:2e:f9:a4:f6:5f:0c:c6:c1:bd:2f:4b:8d:ff:e6:10:
        5d:c3:9e:44:bb:9e:cd:c7:55:dd:80:c1:5d:2d:ac:46:8f:6a:
        1d:75:b2:cb:1e:3a:a1:89:3a:5b:0d:1a:04:b1:36:8a:ce:93:
        7b:85:18:45:12:ed:52:c8:30:da:23:d8:b2:03:18:62:07:3a:
        69:de:45:dc:c4:e5:90:0e:64:13:19:51:ae:d4:6a:15:0b:44:
        c5:38:9c:45:97:61:cd:7f:e1:00:01:a2:f7:a8:a6:72:ee:bd:
        8f:0b:47:82:fd:5d:13:64:32:a4:d9:70:19:78:2c:54:df:e4:
        b5:7c:a5:92:78:ec:58:20:37:9a:e4:ed:43:e4:eb:23:4d:43:
        13:77:a7:72:b5:ca:ef:76:07:76:b4:8f:06:e0:30:dd:e2:b4:
        bf:ef:cb:51:02:ea:a6:1b:f3:b3:3f:72:c4:a6:57:12:b4:8b:
        2e:2a:ce:17:b7:00:9a:9a:3e:8c:05:7f:25:e2:ff:71:a3:54:
        04:bd:e5:df:23:92:37:fe:1b:40:42:7f:25:01:73:11:0b:ba:
        f7:7d:4b:92
-----BEGIN CERTIFICATE-----
MIIDzjCCAragAwIBAgIQWoRwRxn1GrErAvwxPwjNOTANBgkqhkiG9w0BAQsFADBj
MQswCQYDVQQGEwJVUzETMBEGA1UECAwKQ2FsaWZvcm5pYTEWMBQGA1UEBwwNTW91
bnRhaW4gVmlldzEQMA4GA1UECgwHVGVzdCBDQTEVMBMGA1UEAwwMVGVzdCBSb290
IENBMB4XDTE4MDUwMTAwMDAwMFoXDTIwMDgwMzAwMDAwMFowYDELMAkGA1UEBhMC
VVMxEzARBgNVBAgMCkNhbGlmb3JuaWExFjAUBgNVBAcMDU1vdW50YWluIFZpZXcx
EDAOBgNVBAoMB1Rlc3QgQ0ExEjAQBgNVBAMMCTEyNy4wLjAuMTCCASIwDQYJKoZI
hvcNAQEBBQADggEPADCCAQoCggEBANRK1Kw+c/2kGzwW6QZVXr7sVRPcWjTqawLx
Y2vIqf+VH3tqBucmdFQD6h4fNjeWsYv+GxzGS9Xv4Na2SpBEAlpInJ/c9TiiQCVQ
OrIYnKbp42UkOa4fn/97xc66sZhgvnU5alay7gpSRKn2NrZIX8cxXQe+nmdq/f0J
37HEmuJjxO3wX9AIh68fUaeJKCsOoAm6tn78Xn/ZNPHoyrigFM+terBf4ExC0yiA
rQG9EErs70aPZF+5LSx+KabPURUZ5RE0xA1s8YcA+sb06KsRs8booffPy61sr+X2
V8t0JgvoNjaUffJLGw02AMr71Y9ZuW3N5ODoNQ5s1IXrRwjT3dMCAwEAAaOBgDB+
MAwGA1UdEwEB/wQCMAAwHQYDVR0OBBYEFN4ccOWUI6dB7Ghwn5iZuIETSs1iMB8G
A1UdIwQYMBaAFJsmC4qYqbsduR8c4xpAM+2OF4irMB0GA1UdJQQWMBQGCCsGAQUF
BwMBBggrBgEFBQcDAjAPBgNVHREECDAGhwR/AAABMA0GCSqGSIb3DQEBCwUAA4IB
AQAjLu6TDfM6RXipJcGMCdkEDIUlMpJaRfFFpRRRB6NjeLJE91kgp/cu+aT2XwzG
wb0vS43/5hBdw55Eu57Nx1XdgMFdLaxGj2oddbLLHjqhiTpbDRoEsTaKzpN7hRhF
Eu1SyDDaI9iyAxhiBzpp3kXcxOWQDmQTGVGu1GoVC0TFOJxFl2HNf+EAAaL3qKZy
7r2PC0eC/V0TZDKk2XAZeCxU3+S1fKWSeOxYIDea5O1D5OsjTUMTd6dytcrvdgd2
tI8G4DDd4rS/78tRAuqmG/OzP3LEplcStIsuKs4XtwCamj6MBX8l4v9xo1QEveXf
I5I3/htAQn8lAXMRC7r3fUuS
-----END CERTIFICATE-----
