Certificate:
    Data:
        Version: 3 (0x2)
        Serial Number:
            10:05:5f:6e:5f:f7:a3:a1:ef:94:8e:68:22:50:f5:11
        Signature Algorithm: sha256WithRSAEncryption
        Issuer: CN=F CA - Multi-root
        Validity
            Not Before: Oct  5 00:00:00 2025 GMT
            Not After : Oct  2 00:00:00 2035 GMT
        Subject: CN=B CA - Multi-root
        Subject Public Key Info:
            Public Key Algorithm: rsaEncryption
                Public-Key: (2048 bit)
                Modulus:
                    00:ba:21:38:72:00:15:3e:b6:fa:6c:68:04:8a:90:
                    3b:f0:51:fd:6b:c8:f1:07:c8:a6:20:c9:ae:95:0f:
                    ae:0e:45:48:1a:16:fb:51:15:e4:3e:a1:ac:c0:b7:
                    b6:51:2c:17:e2:06:e3:cd:ad:23:be:20:51:b2:f6:
                    26:6d:0f:25:a8:d3:3f:02:70:d1:47:69:ce:cb:ab:
                    fa:f3:c9:a3:72:5a:46:f1:bd:22:0a:9f:49:4d:89:
                    b8:54:65:c2:99:56:c6:02:90:27:2a:ed:7d:f9:2c:
                    d8:27:f3:dc:88:a9:d7:f6:49:32:d4:ee:f6:a1:45:
                    58:9a:ab:fd:a4:51:1b:8a:fb:c4:1c:8a:2a:ce:b6:
                    bf:7c:42:08:1a:3b:b8:8f:ef:34:d5:61:62:cc:78:
                    09:82:18:41:3c:84:43:5c:ba:22:f5:97:14:68:26:
                    71:0e:3b:54:c1:62:ee:23:0c:e0:74:f5:0d:f9:37:
                    f9:82:93:3b:e8:5e:b9:e6:e0:8f:2f:b3:fd:71:29:
                    f8:0f:f4:94:85:50:c1:e7:a2:51:70:1a:17:66:20:
                    50:18:c9:05:94:d2:c3:28:11:07:88:bc:2d:a4:0b:
                    db:fc:02:8a:5f:43:32:f8:ad:ad:c1:4a:b5:6a:97:
                    f1:9c:65:75:7e:21:62:62:08:3f:a8:00:3b:6b:74:
                    73:cd
                Exponent: 65537 (0x10001)
        X509v3 extensions:
            X509v3 Basic Constraints: critical
                CA:TRUE
            X509v3 Subject Key Identifier: 
                7C:87:32:26:69:03:AB:87:75:8C:A9:63:67:1A:B1:5E:C4:E6:4C:58
            X509v3 Key Usage: critical
                Certificate Sign, CRL Sign
            X509v3 Authority Key Identifier: 
                98:36:D5:66:89:C8:82:BF:A8:B7:34:63:5D:93:50:3E:27:D2:8E:F1
    Signature Algorithm: sha256WithRSAEncryption
    Signature Value:
        8a:2a:7f:ed:e5:c2:7b:7d:5c:b5:7d:bc:15:ea:61:48:e7:43:
        cb:4f:5a:b1:8a:d7:f6:76:b5:e4:09:14:4b:50:f7:fa:5a:5e:
        38:3c:d9:ca:37:70:e8:63:e7:66:cb:31:30:83:8a:1f:8a:ed:
        b9:d3:37:7f:95:fa:34:ef:04:22:53:8e:57:fe:7d:06:cb:36:
        86:b6:6f:46:23:e0:4c:6a:47:7e:4a:66:ea:0f:ae:15:4b:23:
        89:d6:ab:c2:19:9e:a0:c7:a5:2d:db:8f:28:ee:1d:ac:ce:11:
        38:36:96:bc:3e:18:fd:59:27:87:55:69:66:e2:0e:93:b2:b9:
        e4:77:16:13:fa:07:65:2a:95:ea:9e:d7:e8:dd:e2:28:92:af:
        80:78:0b:95:05:6e:b9:d7:19:dd:32:ac:e0:ba:7e:12:28:20:
        3a:44:86:64:43:bc:dc:e4:22:f8:58:bc:57:61:27:88:b5:1e:
        41:21:12:50:f1:f8:fa:b9:fd:b7:00:21:14:70:27:17:33:d4:
        11:c3:98:61:e5:b0:e8:f7:bb:e5:21:e6:ea:64:cb:d0:33:b3:
        49:da:ce:db:47:ea:60:5b:39:85:fb:eb:a0:bf:43:6b:a4:86:
        61:78:c8:59:75:34:c9:0b:a1:53:be:2f:b9:5f:89:3b:00:99:
        e1:68:79:d4
-----BEGIN CERTIFICATE-----
MIIDJTCCAg2gAwIBAgIQEAVfbl/3o6HvlI5oIlD1ETANBgkqhkiG9w0BAQsFADAc
MRowGAYDVQQDDBFGIENBIC0gTXVsdGktcm9vdDAeFw0yNTEwMDUwMDAwMDBaFw0z
NTEwMDIwMDAwMDBaMBwxGjAYBgNVBAMMEUIgQ0EgLSBNdWx0aS1yb290MIIBIjAN
BgkqhkiG9w0BAQEFAAOCAQ8AMIIBCgKCAQEAuiE4cgAVPrb6bGgEipA78FH9a8jx
B8imIMmulQ+uDkVIGhb7URXkPqGswLe2USwX4gbjza0jviBRsvYmbQ8lqNM/AnDR
R2nOy6v688mjclpG8b0iCp9JTYm4VGXCmVbGApAnKu19+SzYJ/PciKnX9kky1O72
oUVYmqv9pFEbivvEHIoqzra/fEIIGju4j+801WFizHgJghhBPIRDXLoi9ZcUaCZx
DjtUwWLuIwzgdPUN+Tf5gpM76F655uCPL7P9cSn4D/SUhVDB56JRcBoXZiBQGMkF
lNLDKBEHiLwtpAvb/AKKX0My+K2twUq1apfxnGV1fiFiYgg/qAA7a3RzzQIDAQAB
o2MwYTAPBgNVHRMBAf8EBTADAQH/MB0GA1UdDgQWBBR8hzImaQOrh3WMqWNnGrFe
xOZMWDAOBgNVHQ8BAf8EBAMCAQYwHwYDVR0jBBgwFoAUmDbVZonIgr+otzRjXZNQ
PifSjvEwDQYJKoZIhvcNAQELBQADggEBAIoqf+3lwnt9XLV9vBXqYUjnQ8tPWrGK
1/Z2teQJFEtQ9/paXjg82co3cOhj52bLMTCDih+K7bnTN3+V+jTvBCJTjlf+fQbL
Noa2b0Yj4ExqR35KZuoPrhVLI4nWq8IZnqDHpS3bjyjuHazOETg2lrw+GP1ZJ4dV
aWbiDpOyueR3FhP6B2Uqleqe1+jd4iiSr4B4C5UFbrnXGd0yrOC6fhIoIDpEhmRD
vNzkIvhYvFdhJ4i1HkEhElDx+Pq5/bcAIRRwJxcz1BHDmGHlsOj3u+Uh5upky9Az
s0nazttH6mBbOYX766C/Q2ukhmF4yFl1NMkLoVO+L7lfiTsAmeFoedQ=
-----END CERTIFICATE-----
