Certificate:
    Data:
        Version: 3 (0x2)
        Serial Number:
            01:19:65:16:ac:52:ba:2c:ba:75:ec:3f:80:74:f7:94
        Signature Algorithm: sha256WithRSAEncryption
        Issuer: CN=D Root CA - Multi-root
        Validity
            Not Before: Oct  2 00:00:00 2025 GMT
            Not After : Oct  2 00:00:00 2035 GMT
        Subject: CN=D Root CA - Multi-root
        Subject Public Key Info:
            Public Key Algorithm: rsaEncryption
                Public-Key: (2048 bit)
                Modulus:
                    00:ac:17:ca:db:55:22:65:ff:9f:78:79:23:af:3d:
                    21:49:c7:62:ba:27:b6:3c:f4:25:4f:44:45:f3:98:
                    23:38:0b:f1:ee:99:83:b0:37:db:0f:d8:15:63:b5:
                    e8:eb:42:69:75:60:f5:25:d7:7f:bf:89:d9:31:3a:
                    74:3b:4e:7d:91:44:11:7e:32:9d:8b:ce:18:da:53:
                    3e:47:cc:3b:73:1f:bf:6b:5e:a8:8b:be:04:5c:4b:
                    07:27:ba:b2:03:2f:92:54:2e:17:6b:23:68:6a:7f:
                    7f:c9:b7:f9:18:d9:2e:69:3d:77:e6:8d:54:e0:70:
                    09:3a:e6:cd:1f:c2:9a:f0:80:4d:62:78:e3:54:ad:
                    d7:47:8c:0a:01:59:5a:2c:e1:d9:44:2e:4f:f9:d2:
                    45:ca:59:8f:db:42:8f:e0:ba:95:1f:06:e7:b5:5e:
                    d9:47:3c:37:09:58:77:d0:ee:d3:b2:ee:ee:12:ab:
                    f8:ca:11:53:01:ff:13:b5:50:20:dd:92:a7:bb:32:
                    f4:f9:15:28:3d:62:b9:8f:5e:75:73:ad:bb:d2:b2:
                    80:6d:55:91:e0:85:d7:07:05:17:c3:cd:1d:72:41:
                    5c:5e:bc:12:a8:52:24:11:32:ce:ce:8c:e0:a7:39:
                    dc:2a:16:8e:00:f2:65:9d:8c:d5:79:76:e3:ca:78:
                    ac:e7
                Exponent: 65537 (0x10001)
        X509v3 extensions:
            X509v3 Basic Constraints: critical
                CA:TRUE
            X509v3 Subject Key Identifier: 
                BA:84:C0:1F:F3:F5:CC:2C:EB:B3:99:D1:AE:FA:40:97:81:29:67:92
            X509v3 Key Usage: critical
                Certificate Sign, CRL Sign
    Signature Algorithm: sha256WithRSAEncryption
    Signature Value:
        3d:45:5e:1f:3f:8e:a6:4f:d0:d9:6f:ff:de:fb:69:30:6f:01:
        09:49:9c:81:f3:d4:87:5d:bc:39:55:0b:1c:12:15:0a:73:c6:
        ee:a1:8d:7a:dc:7b:b1:80:c6:d0:e2:2e:bc:82:47:b9:7d:5e:
        70:6c:2a:1d:cc:3f:2d:b5:69:9a:fb:24:c9:bd:4c:41:89:83:
        82:19:27:c1:34:66:c8:8b:c6:dc:6d:2a:bb:09:a5:cb:ea:ad:
        d2:3c:43:a9:66:f1:7e:28:0f:1f:75:87:91:fb:52:16:2e:09:
        36:1e:1e:93:14:44:cd:b5:7a:5b:b6:d5:3b:05:35:92:65:89:
        6a:d5:4e:a4:d9:5d:3d:f5:bd:4d:06:a7:28:5a:a5:bb:b7:6d:
        45:00:f6:d9:10:7a:a4:04:58:27:f5:50:fd:48:98:2a:f1:29:
        97:f8:b0:b8:01:d6:9e:17:b7:8d:45:94:c9:65:a9:72:a0:c8:
        03:b0:89:2e:84:0f:79:fd:52:b9:fb:7b:10:40:03:75:74:36:
        c5:37:4c:8e:92:8b:44:e3:e2:8d:bf:5c:c1:55:6b:7c:c2:8b:
        37:3d:a9:11:2e:67:f5:fa:4c:70:12:2e:4f:fd:03:e4:4f:c0:
        8b:c5:87:19:eb:a9:8d:c4:89:df:15:ad:35:1e:da:39:88:74:
        f2:6c:47:a6
-----BEGIN CERTIFICATE-----
MIIDDjCCAfagAwIBAgIQARllFqxSuiy6dew/gHT3lDANBgkqhkiG9w0BAQsFADAh
MR8wHQYDVQQDDBZEIFJvb3QgQ0EgLSBNdWx0aS1yb290MB4XDTI1MTAwMjAwMDAw
MFoXDTM1MTAwMjAwMDAwMFowITEfMB0GA1UEAwwWRCBSb290IENBIC0gTXVsdGkt
cm9vdDCCASIwDQYJKoZIhvcNAQEBBQADggEPADCCAQoCggEBAKwXyttVImX/n3h5
I689IUnHYrontjz0JU9ERfOYIzgL8e6Zg7A32w/YFWO16OtCaXVg9SXXf7+J2TE6
dDtOfZFEEX4ynYvOGNpTPkfMO3Mfv2teqIu+BFxLBye6sgMvklQuF2sjaGp/f8m3
+RjZLmk9d+aNVOBwCTrmzR/CmvCATWJ441St10eMCgFZWizh2UQuT/nSRcpZj9tC
j+C6lR8G57Ve2Uc8NwlYd9Du07Lu7hKr+MoRUwH/E7VQIN2Sp7sy9PkVKD1iuY9e
dXOtu9KygG1VkeCF1wcFF8PNHXJBXF68EqhSJBEyzs6M4Kc53CoWjgDyZZ2M1Xl2
48p4rOcCAwEAAaNCMEAwDwYDVR0TAQH/BAUwAwEB/zAdBgNVHQ4EFgQUuoTAH/P1
zCzrs5nRrvpAl4EpZ5IwDgYDVR0PAQH/BAQDAgEGMA0GCSqGSIb3DQEBCwUAA4IB
AQA9RV4fP46mT9DZb//e+2kwbwEJSZyB89SHXbw5VQscEhUKc8buoY163HuxgMbQ
4i68gke5fV5wbCodzD8ttWma+yTJvUxBiYOCGSfBNGbIi8bcbSq7CaXL6q3SPEOp
ZvF+KA8fdYeR+1IWLgk2Hh6TFETNtXpbttU7BTWSZYlq1U6k2V099b1NBqcoWqW7
t21FAPbZEHqkBFgn9VD9SJgq8SmX+LC4AdaeF7eNRZTJZalyoMgDsIkuhA95/VK5
+3sQQAN1dDbFN0yOkotE4+KNv1zBVWt8wos3PakRLmf1+kxwEi5P/QPkT8CLxYcZ
66mNxInfFa01Hto5iHTybEem
-----END CERTIFICATE-----
