Certificate:
    Data:
        Version: 3 (0x2)
        Serial Number:
            08:2b:6f:84:f6:00:6c:47:39:3f:9d:b5:73:93:83:d1
        Signature Algorithm: sha256WithRSAEncryption
        Issuer: CN=B CA - Multi-root
        Validity
            Not Before: Oct 10 22:20:07 2025 GMT
            Not After : Oct  8 22:20:07 2035 GMT
        Subject: C=US, ST=California, L=Mountain View, O=Test CA, CN=127.0.0.1
        Subject Public Key Info:
            Public Key Algorithm: rsaEncryption
                Public-Key: (2048 bit)
                Modulus:
                    00:e3:b2:bd:29:5f:b1:d5:c6:82:7a:e7:a5:a5:6c:
                    71:03:a7:a9:36:ff:f9:ea:ae:f7:99:aa:ee:36:ee:
                    cf:6d:ca:b3:1a:46:13:6f:46:39:f8:0e:e1:5c:fb:
                    9b:66:7f:f9:12:f4:ae:b3:74:3f:1d:e4:2f:2b:26:
                    45:32:f9:1b:2c:61:82:83:d2:d6:18:b4:16:1d:70:
                    24:7e:94:c2:71:c3:2d:a5:d3:5d:80:1a:c4:5a:4f:
                    d7:64:3f:09:32:22:be:fe:f3:01:1a:c2:38:fb:b9:
                    f6:36:41:d0:2d:d3:35:3b:41:62:7a:83:6f:a2:80:
                    7b:74:01:50:50:dc:29:8f:ff:dd:6f:47:c9:fd:32:
                    e6:8c:5b:e3:b6:d4:8f:9a:0a:99:3b:3f:e1:df:ee:
                    bd:d2:f6:57:5c:c5:17:f4:a9:2f:54:83:5a:77:f6:
                    50:b0:42:23:4b:69:3c:3c:c3:06:e3:c7:93:a4:f7:
                    fe:02:4a:4a:d9:16:74:af:c5:cf:c5:c6:38:ff:08:
                    f3:9a:d4:03:70:c1:ce:eb:f6:a6:82:d4:85:f1:8b:
                    5b:86:fb:f8:78:84:0f:68:d8:52:09:34:a5:83:93:
                    b2:cd:c7:f0:9b:ea:95:2e:9b:ea:6d:1e:9a:23:d4:
                    33:fa:da:51:d6:d7:70:48:58:e2:29:1b:20:9b:f6:
                    a6:2f
                Exponent: 65537 (0x10001)
        X509v3 extensions:
            X509v3 Basic Constraints: critical
                CA:FALSE
            X509v3 Subject Key Identifier: 
                DC:DC:E8:A2:CE:EF:0B:51:4B:F5:32:31:2D:FA:35:20:A9:3D:B0:68
            X509v3 Authority Key Identifier: 
                7C:87:32:26:69:03:AB:87:75:8C:A9:63:67:1A:B1:5E:C4:E6:4C:58
            X509v3 Extended Key Usage: 
                TLS Web Server Authentication, TLS Web Client Authentication
            X509v3 Subject Alternative Name: 
                IP Address:127.0.0.1
    Signature Algorithm: sha256WithRSAEncryption
    Signature Value:
        50:9a:96:a3:27:a2:ce:5d:d4:3e:58:69:96:e3:f3:5e:18:6f:
        5d:d1:90:5a:d2:ce:75:2e:33:fe:39:1e:00:49:6b:f8:af:fa:
        48:12:56:92:cc:b2:2b:89:d2:56:a0:7b:12:2b:91:c8:ac:e2:
        ad:e3:d1:56:d5:d7:19:42:2a:5d:54:9a:d0:6a:6a:05:11:6d:
        89:38:a0:ac:3a:41:58:fb:24:0c:a8:e4:b1:b1:e7:42:9c:ee:
        e2:b2:ae:10:c3:f0:da:ab:f0:6d:18:89:0e:98:4a:4f:81:23:
        e4:e5:3c:9a:52:47:95:93:f8:7a:53:cc:ba:b6:4e:f7:2d:0a:
        d5:94:cf:9d:e3:27:71:bd:36:dc:d9:12:e5:78:22:0f:aa:18:
        db:2f:54:9b:9f:15:f6:14:fb:10:65:0d:d2:d4:26:a2:d6:c5:
        bb:e5:16:65:cc:8d:ec:85:ca:c1:9b:33:40:59:c8:07:8a:b9:
        35:17:ed:c0:cf:73:39:43:c3:73:ad:98:a1:6d:f2:80:db:01:
        1b:69:fb:13:0a:d2:3a:b7:ac:3b:c0:66:f0:a5:29:4b:37:ec:
        f2:c9:6d:8c:35:a4:49:ad:2d:85:71:3e:c3:a2:92:f0:56:02:
        d3:15:fe:a1:ce:bf:e7:a1:f4:4c:2c:8e:f0:ab:cf:ba:32:a1:
        81:a1:b0:52
-----BEGIN CERTIFICATE-----
MIIDhzCCAm+gAwIBAgIQCCtvhPYAbEc5P521c5OD0TANBgkqhkiG9w0BAQsFADAc
MRowGAYDVQQDDBFCIENBIC0gTXVsdGktcm9vdDAeFw0yNTEwMTAyMjIwMDdaFw0z
NTEwMDgyMjIwMDdaMGAxCzAJBgNVBAYTAlVTMRMwEQYDVQQIDApDYWxpZm9ybmlh
MRYwFAYDVQQHDA1Nb3VudGFpbiBWaWV3MRAwDgYDVQQKDAdUZXN0IENBMRIwEAYD
VQQDDAkxMjcuMC4wLjEwggEiMA0GCSqGSIb3DQEBAQUAA4IBDwAwggEKAoIBAQDj
sr0pX7HVxoJ656WlbHEDp6k2//nqrveZqu427s9tyrMaRhNvRjn4DuFc+5tmf/kS
9K6zdD8d5C8rJkUy+RssYYKD0tYYtBYdcCR+lMJxwy2l012AGsRaT9dkPwkyIr7+
8wEawjj7ufY2QdAt0zU7QWJ6g2+igHt0AVBQ3CmP/91vR8n9MuaMW+O21I+aCpk7
P+Hf7r3S9ldcxRf0qS9Ug1p39lCwQiNLaTw8wwbjx5Ok9/4CSkrZFnSvxc/Fxjj/
CPOa1ANwwc7r9qaC1IXxi1uG+/h4hA9o2FIJNKWDk7LNx/Cb6pUum+ptHpoj1DP6
2lHW13BIWOIpGyCb9qYvAgMBAAGjgYAwfjAMBgNVHRMBAf8EAjAAMB0GA1UdDgQW
BBTc3Oiizu8LUUv1MjEt+jUgqT2waDAfBgNVHSMEGDAWgBR8hzImaQOrh3WMqWNn
GrFexOZMWDAdBgNVHSUEFjAUBggrBgEFBQcDAQYIKwYBBQUHAwIwDwYDVR0RBAgw
BocEfwAAATANBgkqhkiG9w0BAQsFAAOCAQEAUJqWoyeizl3UPlhpluPzXhhvXdGQ
WtLOdS4z/jkeAElr+K/6SBJWksyyK4nSVqB7EiuRyKzirePRVtXXGUIqXVSa0Gpq
BRFtiTigrDpBWPskDKjksbHnQpzu4rKuEMPw2qvwbRiJDphKT4Ej5OU8mlJHlZP4
elPMurZO9y0K1ZTPneMncb023NkS5XgiD6oY2y9Um58V9hT7EGUN0tQmotbFu+UW
ZcyN7IXKwZszQFnIB4q5NRftwM9zOUPDc62YoW3ygNsBG2n7EwrSOresO8Bm8KUp
Szfs8sltjDWkSa0thXE+w6KS8FYC0xX+oc6/56H0TCyO8KvPujKhgaGwUg==
-----END CERTIFICATE-----
Certificate:
    Data:
        Version: 3 (0x2)
        Serial Number:
            0c:a4:70:45:40:5c:4e:e7:94:9a:4a:bf:7c:3b:00:67
        Signature Algorithm: sha256WithRSAEncryption
        Issuer: CN=C CA - Multi-root
        Validity
            Not Before: Oct  4 00:00:00 2025 GMT
            Not After : Oct  2 00:00:00 2035 GMT
        Subject: CN=B CA - Multi-root
        Subject Public Key Info:
            Public Key Algorithm: rsaEncryption
                Public-Key: (2048 bit)
                Modulus:
                    00:ba:21:38:72:00:15:3e:b6:fa:6c:68:04:8a:90:
                    3b:f0:51:fd:6b:c8:f1:07:c8:a6:20:c9:ae:95:0f:
                    ae:0e:45:48:1a:16:fb:51:15:e4:3e:a1:ac:c0:b7:
                    b6:51:2c:17:e2:06:e3:cd:ad:23:be:20:51:b2:f6:
                    26:6d:0f:25:a8:d3:3f:02:70:d1:47:69:ce:cb:ab:
                    fa:f3:c9:a3:72:5a:46:f1:bd:22:0a:9f:49:4d:89:
                    b8:54:65:c2:99:56:c6:02:90:27:2a:ed:7d:f9:2c:
                    d8:27:f3:dc:88:a9:d7:f6:49:32:d4:ee:f6:a1:45:
                    58:9a:ab:fd:a4:51:1b:8a:fb:c4:1c:8a:2a:ce:b6:
                    bf:7c:42:08:1a:3b:b8:8f:ef:34:d5:61:62:cc:78:
                    09:82:18:41:3c:84:43:5c:ba:22:f5:97:14:68:26:
                    71:0e:3b:54:c1:62:ee:23:0c:e0:74:f5:0d:f9:37:
                    f9:82:93:3b:e8:5e:b9:e6:e0:8f:2f:b3:fd:71:29:
                    f8:0f:f4:94:85:50:c1:e7:a2:51:70:1a:17:66:20:
                    50:18:c9:05:94:d2:c3:28:11:07:88:bc:2d:a4:0b:
                    db:fc:02:8a:5f:43:32:f8:ad:ad:c1:4a:b5:6a:97:
                    f1:9c:65:75:7e:21:62:62:08:3f:a8:00:3b:6b:74:
                    73:cd
                Exponent: 65537 (0x10001)
        X509v3 extensions:
            X509v3 Basic Constraints: critical
                CA:TRUE
            X509v3 Subject Key Identifier: 
                7C:87:32:26:69:03:AB:87:75:8C:A9:63:67:1A:B1:5E:C4:E6:4C:58
            X509v3 Key Usage: critical
                Certificate Sign, CRL Sign
            X509v3 Authority Key Identifier: 
                01:0A:4B:94:DB:60:09:37:13:66:29:86:15:D1:87:3D:FF:B5:E3:E3
    Signature Algorithm: sha256WithRSAEncryption
    Signature Value:
        62:e8:05:5f:e4:ea:51:9a:74:de:46:05:b3:1a:ff:60:47:e0:
        6d:e7:82:16:e2:c2:ab:ab:af:86:b7:b7:be:de:41:6a:32:26:
        21:1b:31:1b:9e:16:e2:90:f4:4a:f5:57:83:96:c2:b6:b1:e0:
        51:3d:67:9b:1f:a1:f0:65:52:19:ac:85:d0:39:9b:13:da:01:
        0b:52:17:b9:cd:7c:ee:58:47:62:5e:08:c4:e7:a8:63:f6:73:
        d0:9d:0a:69:37:24:0b:be:24:22:4a:32:18:5c:54:9d:fd:11:
        c6:44:72:ad:80:8e:a6:12:69:2b:28:f8:89:0c:92:f0:e9:c6:
        ef:55:59:99:be:14:5e:dc:e2:3e:1f:68:8b:bd:cb:78:4c:cf:
        e4:2a:8a:f1:41:46:fc:f3:31:3f:11:b8:10:5e:26:f2:06:31:
        9e:3b:14:32:79:14:78:6b:3b:93:f7:99:cc:ee:d9:a2:67:92:
        7f:a4:0d:a5:7e:2b:c7:2a:5d:65:87:6c:cf:40:a5:b6:5b:7b:
        10:25:52:66:85:5a:4e:10:da:85:f8:a4:d0:a1:11:fd:6d:e7:
        0f:fd:ea:6b:64:1a:9c:d6:4b:65:84:10:1e:95:41:17:d6:4c:
        40:12:73:3f:28:ed:14:f0:10:8f:8f:71:cc:be:7e:37:ac:d4:
        54:ab:2a:5e
-----BEGIN CERTIFICATE-----
MIIDJTCCAg2gAwIBAgIQDKRwRUBcTueUmkq/fDsAZzANBgkqhkiG9w0BAQsFADAc
MRowGAYDVQQDDBFDIENBIC0gTXVsdGktcm9vdDAeFw0yNTEwMDQwMDAwMDBaFw0z
NTEwMDIwMDAwMDBaMBwxGjAYBgNVBAMMEUIgQ0EgLSBNdWx0aS1yb290MIIBIjAN
BgkqhkiG9w0BAQEFAAOCAQ8AMIIBCgKCAQEAuiE4cgAVPrb6bGgEipA78FH9a8jx
B8imIMmulQ+uDkVIGhb7URXkPqGswLe2USwX4gbjza0jviBRsvYmbQ8lqNM/AnDR
R2nOy6v688mjclpG8b0iCp9JTYm4VGXCmVbGApAnKu19+SzYJ/PciKnX9kky1O72
oUVYmqv9pFEbivvEHIoqzra/fEIIGju4j+801WFizHgJghhBPIRDXLoi9ZcUaCZx
DjtUwWLuIwzgdPUN+Tf5gpM76F655uCPL7P9cSn4D/SUhVDB56JRcBoXZiBQGMkF
lNLDKBEHiLwtpAvb/AKKX0My+K2twUq1apfxnGV1fiFiYgg/qAA7a3RzzQIDAQAB
o2MwYTAPBgNVHRMBAf8EBTADAQH/MB0GA1UdDgQWBBR8hzImaQOrh3WMqWNnGrFe
xOZMWDAOBgNVHQ8BAf8EBAMCAQYwHwYDVR0jBBgwFoAUAQpLlNtgCTcTZimGFdGH
Pf+14+MwDQYJKoZIhvcNAQELBQADggEBAGLoBV/k6lGadN5GBbMa/2BH4G3nghbi
wqurr4a3t77eQWoyJiEbMRueFuKQ9Er1V4OWwrax4FE9Z5sfofBlUhmshdA5mxPa
AQtSF7nNfO5YR2JeCMTnqGP2c9CdCmk3JAu+JCJKMhhcVJ39EcZEcq2AjqYSaSso
+IkMkvDpxu9VWZm+FF7c4j4faIu9y3hMz+QqivFBRvzzMT8RuBBeJvIGMZ47FDJ5
FHhrO5P3mczu2aJnkn+kDaV+K8cqXWWHbM9ApbZbexAlUmaFWk4Q2oX4pNChEf1t
5w/96mtkGpzWS2WEEB6VQRfWTEAScz8o7RTwEI+Pccy+fjes1FSrKl4=
-----END CERTIFICATE-----
Certificate:
    Data:
        Version: 3 (0x2)
        Serial Number:
            01:19:65:16:ac:52:ba:2c:ba:75:ec:3f:80:74:f7:95
        Signature Algorithm: sha256WithRSAEncryption
        Issuer: CN=D Root CA - Multi-root
        Validity
            Not Before: Oct  3 00:00:00 2025 GMT
            Not After : Oct  2 00:00:00 2035 GMT
        Subject: CN=C CA - Multi-root
        Subject Public Key Info:
            Public Key Algorithm: rsaEncryption
                Public-Key: (2048 bit)
                Modulus:
                    00:8c:60:62:ce:dc:c2:c1:f4:9f:b8:a7:ff:97:26:
                    f8:4e:e2:cb:0c:6b:41:2b:08:8a:c8:33:bb:08:d6:
                    a9:dd:3d:86:21:4a:c9:f0:df:22:a0:ed:7e:28:d1:
                    85:75:cf:30:fe:f7:15:22:59:dd:8c:bb:25:b1:92:
                    85:58:d7:e2:73:3c:c9:3b:aa:08:04:e7:11:ce:5d:
                    26:15:3b:c2:c5:c0:e7:c7:3d:2e:ce:ab:8b:33:90:
                    ce:7f:c2:23:19:6f:f8:77:4f:6d:62:b7:aa:d3:36:
                    9b:6c:1c:74:39:e7:13:a1:ea:2f:25:79:fa:03:26:
                    4b:af:93:5a:89:e6:c4:82:eb:44:49:54:bd:37:05:
                    be:2b:1f:85:1c:ec:c1:8c:3a:d8:fe:fb:75:0a:78:
                    9c:92:39:29:c1:22:25:a1:01:d5:f3:45:57:35:0f:
                    49:59:f5:04:b7:1c:54:36:9d:e0:a3:93:1f:ce:96:
                    43:84:5d:7f:ba:06:3f:f0:e1:10:b5:4c:73:af:ac:
                    6b:1c:53:89:4d:1a:46:55:f3:ab:5e:72:9e:a0:83:
                    08:5c:6c:12:63:44:4d:f7:46:20:a5:7f:fb:f8:60:
                    7c:a0:ad:f2:f4:61:ae:12:d7:18:fe:1a:61:08:47:
                    44:9e:b3:87:28:c7:ef:19:88:d4:5e:48:97:6a:c7:
                    e8:7f
                Exponent: 65537 (0x10001)
        X509v3 extensions:
            X509v3 Basic Constraints: critical
                CA:TRUE
            X509v3 Subject Key Identifier: 
                01:0A:4B:94:DB:60:09:37:13:66:29:86:15:D1:87:3D:FF:B5:E3:E3
            X509v3 Key Usage: critical
                Certificate Sign, CRL Sign
            X509v3 Authority Key Identifier: 
                BA:84:C0:1F:F3:F5:CC:2C:EB:B3:99:D1:AE:FA:40:97:81:29:67:92
    Signature Algorithm: sha256WithRSAEncryption
    Signature Value:
        70:b2:fc:6c:2a:b5:6d:5d:7e:b0:80:9c:25:a1:b1:76:c4:04:
        9a:77:8c:fb:50:43:48:13:0c:02:c2:35:8c:24:f7:0b:c1:19:
        8c:4f:3d:27:1f:1c:77:4a:8a:5e:57:7d:59:29:7b:b4:08:6d:
        c2:19:0f:80:18:0d:62:9c:6d:14:ae:2a:73:0e:f1:56:05:d0:
        59:00:69:90:df:b7:d2:7f:38:0c:82:90:dd:a3:bd:4d:3d:8b:
        b9:68:a4:c2:03:68:8c:49:fa:cd:ea:bd:09:5a:ea:8a:8d:f4:
        63:76:dd:16:0b:54:01:3c:a7:9c:bc:dc:52:e4:41:c8:7a:0a:
        a1:09:b7:90:05:61:6e:bb:c0:2c:0c:11:fd:28:8a:8d:f2:9b:
        07:a4:be:d0:b7:ad:f4:ac:dd:17:ab:9b:d6:44:ef:f3:95:48:
        da:db:76:70:ab:4c:fe:bc:50:ca:4e:8a:20:74:d1:1e:47:b3:
        12:02:be:33:0b:78:c6:e7:05:57:a7:78:da:a5:fa:58:0f:aa:
        23:a7:f3:bc:dd:17:53:e8:52:30:25:48:68:ae:6b:0c:6b:6a:
        08:11:fe:66:f8:f2:54:d0:62:21:54:64:87:29:fa:4f:ea:5b:
        5d:44:a8:7b:20:d9:6f:d2:10:f1:51:b0:8e:6b:29:c9:38:1d:
        2a:e4:03:d4
-----BEGIN CERTIFICATE-----
MIIDKjCCAhKgAwIBAgIQARllFqxSuiy6dew/gHT3lTANBgkqhkiG9w0BAQsFADAh
MR8wHQYDVQQDDBZEIFJvb3QgQ0EgLSBNdWx0aS1yb290MB4XDTI1MTAwMzAwMDAw
MFoXDTM1MTAwMjAwMDAwMFowHDEaMBgGA1UEAwwRQyBDQSAtIE11bHRpLXJvb3Qw
ggEiMA0GCSqGSIb3DQEBAQUAA4IBDwAwggEKAoIBAQCMYGLO3MLB9J+4p/+XJvhO
4ssMa0ErCIrIM7sI1qndPYYhSsnw3yKg7X4o0YV1zzD+9xUiWd2MuyWxkoVY1+Jz
PMk7qggE5xHOXSYVO8LFwOfHPS7Oq4szkM5/wiMZb/h3T21it6rTNptsHHQ55xOh
6i8lefoDJkuvk1qJ5sSC60RJVL03Bb4rH4Uc7MGMOtj++3UKeJySOSnBIiWhAdXz
RVc1D0lZ9QS3HFQ2neCjkx/OlkOEXX+6Bj/w4RC1THOvrGscU4lNGkZV86tecp6g
gwhcbBJjRE33RiClf/v4YHygrfL0Ya4S1xj+GmEIR0Ses4cox+8ZiNReSJdqx+h/
AgMBAAGjYzBhMA8GA1UdEwEB/wQFMAMBAf8wHQYDVR0OBBYEFAEKS5TbYAk3E2Yp
hhXRhz3/tePjMA4GA1UdDwEB/wQEAwIBBjAfBgNVHSMEGDAWgBS6hMAf8/XMLOuz
mdGu+kCXgSlnkjANBgkqhkiG9w0BAQsFAAOCAQEAcLL8bCq1bV1+sICcJaGxdsQE
mneM+1BDSBMMAsI1jCT3C8EZjE89Jx8cd0qKXld9WSl7tAhtwhkPgBgNYpxtFK4q
cw7xVgXQWQBpkN+30n84DIKQ3aO9TT2LuWikwgNojEn6zeq9CVrqio30Y3bdFgtU
ATynnLzcUuRByHoKoQm3kAVhbrvALAwR/SiKjfKbB6S+0Let9KzdF6ub1kTv85VI
2tt2cKtM/rxQyk6KIHTRHkezEgK+Mwt4xucFV6d42qX6WA+qI6fzvN0XU+hSMCVI
aK5rDGtqCBH+ZvjyVNBiIVRkhyn6T+pbXUSoeyDZb9IQ8VGwjmspyTgdKuQD1A==
-----END CERTIFICATE-----
Certificate:
    Data:
        Version: 3 (0x2)
        Serial Number:
            01:19:65:16:ac:52:ba:2c:ba:75:ec:3f:80:74:f7:94
        Signature Algorithm: sha256WithRSAEncryption
        Issuer: CN=D Root CA - Multi-root
        Validity
            Not Before: Oct  2 00:00:00 2025 GMT
            Not After : Oct  2 00:00:00 2035 GMT
        Subject: CN=D Root CA - Multi-root
        Subject Public Key Info:
            Public Key Algorithm: rsaEncryption
                Public-Key: (2048 bit)
                Modulus:
                    00:ac:17:ca:db:55:22:65:ff:9f:78:79:23:af:3d:
                    21:49:c7:62:ba:27:b6:3c:f4:25:4f:44:45:f3:98:
                    23:38:0b:f1:ee:99:83:b0:37:db:0f:d8:15:63:b5:
                    e8:eb:42:69:75:60:f5:25:d7:7f:bf:89:d9:31:3a:
                    74:3b:4e:7d:91:44:11:7e:32:9d:8b:ce:18:da:53:
                    3e:47:cc:3b:73:1f:bf:6b:5e:a8:8b:be:04:5c:4b:
                    07:27:ba:b2:03:2f:92:54:2e:17:6b:23:68:6a:7f:
                    7f:c9:b7:f9:18:d9:2e:69:3d:77:e6:8d:54:e0:70:
                    09:3a:e6:cd:1f:c2:9a:f0:80:4d:62:78:e3:54:ad:
                    d7:47:8c:0a:01:59:5a:2c:e1:d9:44:2e:4f:f9:d2:
                    45:ca:59:8f:db:42:8f:e0:ba:95:1f:06:e7:b5:5e:
                    d9:47:3c:37:09:58:77:d0:ee:d3:b2:ee:ee:12:ab:
                    f8:ca:11:53:01:ff:13:b5:50:20:dd:92:a7:bb:32:
                    f4:f9:15:28:3d:62:b9:8f:5e:75:73:ad:bb:d2:b2:
                    80:6d:55:91:e0:85:d7:07:05:17:c3:cd:1d:72:41:
                    5c:5e:bc:12:a8:52:24:11:32:ce:ce:8c:e0:a7:39:
                    dc:2a:16:8e:00:f2:65:9d:8c:d5:79:76:e3:ca:78:
                    ac:e7
                Exponent: 65537 (0x10001)
        X509v3 extensions:
            X509v3 Basic Constraints: critical
                CA:TRUE
            X509v3 Subject Key Identifier: 
                BA:84:C0:1F:F3:F5:CC:2C:EB:B3:99:D1:AE:FA:40:97:81:29:67:92
            X509v3 Key Usage: critical
                Certificate Sign, CRL Sign
    Signature Algorithm: sha256WithRSAEncryption
    Signature Value:
        3d:45:5e:1f:3f:8e:a6:4f:d0:d9:6f:ff:de:fb:69:30:6f:01:
        09:49:9c:81:f3:d4:87:5d:bc:39:55:0b:1c:12:15:0a:73:c6:
        ee:a1:8d:7a:dc:7b:b1:80:c6:d0:e2:2e:bc:82:47:b9:7d:5e:
        70:6c:2a:1d:cc:3f:2d:b5:69:9a:fb:24:c9:bd:4c:41:89:83:
        82:19:27:c1:34:66:c8:8b:c6:dc:6d:2a:bb:09:a5:cb:ea:ad:
        d2:3c:43:a9:66:f1:7e:28:0f:1f:75:87:91:fb:52:16:2e:09:
        36:1e:1e:93:14:44:cd:b5:7a:5b:b6:d5:3b:05:35:92:65:89:
        6a:d5:4e:a4:d9:5d:3d:f5:bd:4d:06:a7:28:5a:a5:bb:b7:6d:
        45:00:f6:d9:10:7a:a4:04:58:27:f5:50:fd:48:98:2a:f1:29:
        97:f8:b0:b8:01:d6:9e:17:b7:8d:45:94:c9:65:a9:72:a0:c8:
        03:b0:89:2e:84:0f:79:fd:52:b9:fb:7b:10:40:03:75:74:36:
        c5:37:4c:8e:92:8b:44:e3:e2:8d:bf:5c:c1:55:6b:7c:c2:8b:
        37:3d:a9:11:2e:67:f5:fa:4c:70:12:2e:4f:fd:03:e4:4f:c0:
        8b:c5:87:19:eb:a9:8d:c4:89:df:15:ad:35:1e:da:39:88:74:
        f2:6c:47:a6
-----BEGIN CERTIFICATE-----
MIIDDjCCAfagAwIBAgIQARllFqxSuiy6dew/gHT3lDANBgkqhkiG9w0BAQsFADAh
MR8wHQYDVQQDDBZEIFJvb3QgQ0EgLSBNdWx0aS1yb290MB4XDTI1MTAwMjAwMDAw
MFoXDTM1MTAwMjAwMDAwMFowITEfMB0GA1UEAwwWRCBSb290IENBIC0gTXVsdGkt
cm9vdDCCASIwDQYJKoZIhvcNAQEBBQADggEPADCCAQoCggEBAKwXyttVImX/n3h5
I689IUnHYrontjz0JU9ERfOYIzgL8e6Zg7A32w/YFWO16OtCaXVg9SXXf7+J2TE6
dDtOfZFEEX4ynYvOGNpTPkfMO3Mfv2teqIu+BFxLBye6sgMvklQuF2sjaGp/f8m3
+RjZLmk9d+aNVOBwCTrmzR/CmvCATWJ441St10eMCgFZWizh2UQuT/nSRcpZj9tC
j+C6lR8G57Ve2Uc8NwlYd9Du07Lu7hKr+MoRUwH/E7VQIN2Sp7sy9PkVKD1iuY9e
dXOtu9KygG1VkeCF1wcFF8PNHXJBXF68EqhSJBEyzs6M4Kc53CoWjgDyZZ2M1Xl2
48p4rOcCAwEAAaNCMEAwDwYDVR0TAQH/BAUwAwEB/zAdBgNVHQ4EFgQUuoTAH/P1
zCzrs5nRrvpAl4EpZ5IwDgYDVR0PAQH/BAQDAgEGMA0GCSqGSIb3DQEBCwUAA4IB
AQA9RV4fP46mT9DZb//e+2kwbwEJSZyB89SHXbw5VQscEhUKc8buoY163HuxgMbQ
4i68gke5fV5wbCodzD8ttWma+yTJvUxBiYOCGSfBNGbIi8bcbSq7CaXL6q3SPEOp
ZvF+KA8fdYeR+1IWLgk2Hh6TFETNtXpbttU7BTWSZYlq1U6k2V099b1NBqcoWqW7
t21FAPbZEHqkBFgn9VD9SJgq8SmX+LC4AdaeF7eNRZTJZalyoMgDsIkuhA95/VK5
+3sQQAN1dDbFN0yOkotE4+KNv1zBVWt8wos3PakRLmf1+kxwEi5P/QPkT8CLxYcZ
66mNxInfFa01Hto5iHTybEem
-----END CERTIFICATE-----
