Certificate:
    Data:
        Version: 3 (0x2)
        Serial Number:
            df:e5:35:a4:1e:8f:46:73:eb:8e:c8:b4:3e:38:88:dc
        Signature Algorithm: sha256WithRSAEncryption
        Issuer: CN=E Root CA - Multi-root
        Validity
            Not Before: Oct  5 00:00:00 2025 GMT
            Not After : Oct  2 00:00:00 2035 GMT
        Subject: CN=C CA - Multi-root
        Subject Public Key Info:
            Public Key Algorithm: rsaEncryption
                Public-Key: (2048 bit)
                Modulus:
                    00:8c:60:62:ce:dc:c2:c1:f4:9f:b8:a7:ff:97:26:
                    f8:4e:e2:cb:0c:6b:41:2b:08:8a:c8:33:bb:08:d6:
                    a9:dd:3d:86:21:4a:c9:f0:df:22:a0:ed:7e:28:d1:
                    85:75:cf:30:fe:f7:15:22:59:dd:8c:bb:25:b1:92:
                    85:58:d7:e2:73:3c:c9:3b:aa:08:04:e7:11:ce:5d:
                    26:15:3b:c2:c5:c0:e7:c7:3d:2e:ce:ab:8b:33:90:
                    ce:7f:c2:23:19:6f:f8:77:4f:6d:62:b7:aa:d3:36:
                    9b:6c:1c:74:39:e7:13:a1:ea:2f:25:79:fa:03:26:
                    4b:af:93:5a:89:e6:c4:82:eb:44:49:54:bd:37:05:
                    be:2b:1f:85:1c:ec:c1:8c:3a:d8:fe:fb:75:0a:78:
                    9c:92:39:29:c1:22:25:a1:01:d5:f3:45:57:35:0f:
                    49:59:f5:04:b7:1c:54:36:9d:e0:a3:93:1f:ce:96:
                    43:84:5d:7f:ba:06:3f:f0:e1:10:b5:4c:73:af:ac:
                    6b:1c:53:89:4d:1a:46:55:f3:ab:5e:72:9e:a0:83:
                    08:5c:6c:12:63:44:4d:f7:46:20:a5:7f:fb:f8:60:
                    7c:a0:ad:f2:f4:61:ae:12:d7:18:fe:1a:61:08:47:
                    44:9e:b3:87:28:c7:ef:19:88:d4:5e:48:97:6a:c7:
                    e8:7f
                Exponent: 65537 (0x10001)
        X509v3 extensions:
            X509v3 Basic Constraints: critical
                CA:TRUE
            X509v3 Subject Key Identifier: 
                01:0A:4B:94:DB:60:09:37:13:66:29:86:15:D1:87:3D:FF:B5:E3:E3
            X509v3 Key Usage: critical
                Certificate Sign, CRL Sign
            X509v3 Authority Key Identifier: 
                11:1C:84:0C:04:7B:3D:BB:88:5D:04:FC:06:D7:52:A1:BD:6D:89:4E
    Signature Algorithm: sha256WithRSAEncryption
    Signature Value:
        b9:be:e6:50:bb:24:2a:a6:69:f2:44:3f:0f:e0:2a:e7:cf:3c:
        37:cf:b7:b9:b7:5d:b8:d8:cf:d9:52:6c:86:5c:0f:9a:52:1a:
        3b:4d:9a:11:b8:26:b5:c7:fc:d9:9f:dd:99:a4:f3:10:41:95:
        e0:e2:d6:f4:8f:22:5b:fa:b2:7b:40:cf:1f:f0:a9:3d:ba:5f:
        a5:27:a0:7c:79:a1:5c:c9:9e:24:f7:74:b7:06:8f:5b:fa:ea:
        af:a3:6c:db:65:72:3c:4e:1c:9e:a2:9e:e5:0d:9c:97:bf:b9:
        00:cf:92:59:0b:02:0c:c3:62:db:23:ce:c1:48:64:de:87:db:
        47:cf:bd:d9:f4:dd:cf:ed:a9:48:6e:24:8f:a9:fc:f9:6c:57:
        77:59:5f:5c:00:9c:ec:15:13:e2:5b:98:9c:15:7f:c2:87:be:
        5d:e9:4d:a4:21:1c:3e:05:cf:be:53:0c:fb:e6:c2:be:92:df:
        75:11:b3:45:db:d8:2d:f0:f1:cd:c8:2c:e4:69:36:0a:06:a4:
        f9:2b:58:2e:d9:29:59:f5:14:bf:01:26:c0:3f:92:60:ef:72:
        f1:4b:65:0c:6d:b7:fa:89:4e:14:dc:45:91:ca:ad:1f:02:55:
        8c:da:84:6f:54:8a:d6:5b:fd:7e:aa:da:e1:64:97:cf:b3:35:
        2d:77:e6:63
-----BEGIN CERTIFICATE-----
MIIDKzCCAhOgAwIBAgIRAN/lNaQej0Zz647ItD44iNwwDQYJKoZIhvcNAQELBQAw
ITEfMB0GA1UEAwwWRSBSb290IENBIC0gTXVsdGktcm9vdDAeFw0yNTEwMDUwMDAw
MDBaFw0zNTEwMDIwMDAwMDBaMBwxGjAYBgNVBAMMEUMgQ0EgLSBNdWx0aS1yb290
MIIBIjANBgkqhkiG9w0BAQEFAAOCAQ8AMIIBCgKCAQEAjGBiztzCwfSfuKf/lyb4
TuLLDGtBKwiKyDO7CNap3T2GIUrJ8N8ioO1+KNGFdc8w/vcVIlndjLslsZKFWNfi
czzJO6oIBOcRzl0mFTvCxcDnxz0uzquLM5DOf8IjGW/4d09tYreq0zabbBx0OecT
oeovJXn6AyZLr5NaiebEgutESVS9NwW+Kx+FHOzBjDrY/vt1CnickjkpwSIloQHV
80VXNQ9JWfUEtxxUNp3go5MfzpZDhF1/ugY/8OEQtUxzr6xrHFOJTRpGVfOrXnKe
oIMIXGwSY0RN90YgpX/7+GB8oK3y9GGuEtcY/hphCEdEnrOHKMfvGYjUXkiXasfo
fwIDAQABo2MwYTAPBgNVHRMBAf8EBTADAQH/MB0GA1UdDgQWBBQBCkuU22AJNxNm
KYYV0Yc9/7Xj4zAOBgNVHQ8BAf8EBAMCAQYwHwYDVR0jBBgwFoAUERyEDAR7PbuI
XQT8BtdSob1tiU4wDQYJKoZIhvcNAQELBQADggEBALm+5lC7JCqmafJEPw/gKufP
PDfPt7m3XbjYz9lSbIZcD5pSGjtNmhG4JrXH/Nmf3Zmk8xBBleDi1vSPIlv6sntA
zx/wqT26X6UnoHx5oVzJniT3dLcGj1v66q+jbNtlcjxOHJ6inuUNnJe/uQDPklkL
AgzDYtsjzsFIZN6H20fPvdn03c/tqUhuJI+p/PlsV3dZX1wAnOwVE+JbmJwVf8KH
vl3pTaQhHD4Fz75TDPvmwr6S33URs0Xb2C3w8c3ILORpNgoGpPkrWC7ZKVn1FL8B
JsA/kmDvcvFLZQxtt/qJThTcRZHKrR8CVYzahG9UitZb/X6q2uFkl8+zNS135mM=
-----END CERTIFICATE-----
