Certificate:
    Data:
        Version: 3 (0x2)
        Serial Number:
            df:e5:35:a4:1e:8f:46:73:eb:8e:c8:b4:3e:38:88:dd
        Signature Algorithm: sha256WithRSAEncryption
        Issuer: CN=E Root CA - Multi-root
        Validity
            Not Before: Oct  2 00:00:00 2025 GMT
            Not After : Oct  2 00:00:00 2035 GMT
        Subject: CN=F CA - Multi-root
        Subject Public Key Info:
            Public Key Algorithm: rsaEncryption
                Public-Key: (2048 bit)
                Modulus:
                    00:ba:98:e9:a5:1e:d0:47:6d:ed:e4:85:1b:a7:c6:
                    e6:2c:62:55:96:b5:28:ff:23:34:b0:cc:ed:26:42:
                    92:29:d5:64:72:75:44:6b:12:67:cf:32:6e:a4:3b:
                    da:df:a2:a4:29:48:58:ad:08:e6:60:cb:95:76:04:
                    9d:38:23:e3:a4:4b:bb:38:5b:42:a1:ef:e6:bb:77:
                    14:9c:3a:3e:d2:a1:4d:98:26:be:54:34:80:22:d2:
                    90:96:84:1a:10:db:c9:74:62:f5:5c:d1:a3:c7:63:
                    86:96:46:d6:4a:5b:16:b8:cb:1c:64:44:b6:ba:1c:
                    1a:44:6b:6b:70:53:92:31:d4:71:0f:e6:6d:47:89:
                    39:15:fe:cf:90:ff:a0:eb:0a:e3:9b:61:93:94:be:
                    89:b9:b9:3e:20:8c:01:54:42:03:3f:27:7d:13:42:
                    5d:73:33:23:cc:c2:09:2f:64:9b:ae:44:25:50:ab:
                    6c:0a:c6:99:9e:f8:5f:88:a2:d1:1c:04:3e:53:09:
                    21:e5:0b:cf:fc:01:d0:f8:72:06:e7:1f:16:3b:b8:
                    f1:ec:67:6b:03:bb:d2:4d:dc:9d:5c:9c:f5:28:71:
                    e7:45:63:51:1d:a6:47:2e:ed:e4:55:48:87:06:99:
                    8e:44:f8:88:af:80:1e:e3:36:b2:39:4e:24:22:95:
                    dc:57
                Exponent: 65537 (0x10001)
        X509v3 extensions:
            X509v3 Basic Constraints: critical
                CA:TRUE
            X509v3 Subject Key Identifier: 
                98:36:D5:66:89:C8:82:BF:A8:B7:34:63:5D:93:50:3E:27:D2:8E:F1
            X509v3 Key Usage: critical
                Certificate Sign, CRL Sign
            X509v3 Authority Key Identifier: 
                11:1C:84:0C:04:7B:3D:BB:88:5D:04:FC:06:D7:52:A1:BD:6D:89:4E
    Signature Algorithm: sha256WithRSAEncryption
    Signature Value:
        81:50:f6:b1:2d:82:c2:27:62:27:2d:e0:75:14:a7:53:12:a3:
        e0:88:91:4e:a4:6c:f5:5b:65:c8:93:20:3a:7e:a8:fe:20:a2:
        64:7a:37:b3:f0:f5:72:73:e6:3e:bb:fd:a1:a8:5e:3a:9c:24:
        e4:32:06:fb:c9:ee:d7:fe:d4:56:76:cc:3b:cf:75:d9:e1:56:
        a0:0c:08:8a:09:ca:e4:06:7f:25:95:a7:87:1f:21:81:e8:26:
        87:cd:37:21:a7:31:f9:4d:47:70:16:da:a9:cc:e2:75:0b:04:
        c2:d7:93:11:33:ec:fb:ef:36:b7:5d:06:ec:84:24:f3:3e:21:
        ab:ce:9b:0c:ef:d3:99:93:c3:d8:a1:14:8c:81:cb:17:fb:89:
        3f:a0:d6:2d:68:b6:27:ea:7c:9c:1e:7c:2c:d5:dc:4d:cc:0c:
        ff:06:59:a1:63:70:46:b2:dd:52:c2:84:83:10:c0:62:f5:83:
        ed:4e:38:1d:28:0e:33:65:fb:12:ed:ca:f9:bd:d2:9e:ca:df:
        2b:bf:ca:7f:6b:b0:f5:de:27:2c:ff:56:f1:41:3f:05:7d:b0:
        ee:1b:07:0b:27:29:aa:c1:83:da:83:a9:2b:5b:34:23:f5:13:
        a9:5e:24:41:36:38:6a:7c:55:3e:a5:b4:43:26:78:bd:78:09:
        51:5d:fc:aa
-----BEGIN CERTIFICATE-----
MIIDKzCCAhOgAwIBAgIRAN/lNaQej0Zz647ItD44iN0wDQYJKoZIhvcNAQELBQAw
ITEfMB0GA1UEAwwWRSBSb290IENBIC0gTXVsdGktcm9vdDAeFw0yNTEwMDIwMDAw
MDBaFw0zNTEwMDIwMDAwMDBaMBwxGjAYBgNVBAMMEUYgQ0EgLSBNdWx0aS1yb290
MIIBIjANBgkqhkiG9w0BAQEFAAOCAQ8AMIIBCgKCAQEAupjppR7QR23t5IUbp8bm
LGJVlrUo/yM0sMztJkKSKdVkcnVEaxJnzzJupDva36KkKUhYrQjmYMuVdgSdOCPj
pEu7OFtCoe/mu3cUnDo+0qFNmCa+VDSAItKQloQaENvJdGL1XNGjx2OGlkbWSlsW
uMscZES2uhwaRGtrcFOSMdRxD+ZtR4k5Ff7PkP+g6wrjm2GTlL6Jubk+IIwBVEID
Pyd9E0JdczMjzMIJL2SbrkQlUKtsCsaZnvhfiKLRHAQ+Uwkh5QvP/AHQ+HIG5x8W
O7jx7GdrA7vSTdydXJz1KHHnRWNRHaZHLu3kVUiHBpmORPiIr4Ae4zayOU4kIpXc
VwIDAQABo2MwYTAPBgNVHRMBAf8EBTADAQH/MB0GA1UdDgQWBBSYNtVmiciCv6i3
NGNdk1A+J9KO8TAOBgNVHQ8BAf8EBAMCAQYwHwYDVR0jBBgwFoAUERyEDAR7PbuI
XQT8BtdSob1tiU4wDQYJKoZIhvcNAQELBQADggEBAIFQ9rEtgsInYict4HUUp1MS
o+CIkU6kbPVbZciTIDp+qP4gomR6N7Pw9XJz5j67/aGoXjqcJOQyBvvJ7tf+1FZ2
zDvPddnhVqAMCIoJyuQGfyWVp4cfIYHoJofNNyGnMflNR3AW2qnM4nULBMLXkxEz
7PvvNrddBuyEJPM+IavOmwzv05mTw9ihFIyByxf7iT+g1i1otifqfJwefCzV3E3M
DP8GWaFjcEay3VLChIMQwGL1g+1OOB0oDjNl+xLtyvm90p7K3yu/yn9rsPXeJyz/
VvFBPwV9sO4bBwsnKarBg9qDqStbNCP1E6leJEE2OGp8VT6ltEMmeL14CVFd/Ko=
-----END CERTIFICATE-----
