-----BEGIN PRIVATE KEY-----
MIIEvgIBADANBgkqhkiG9w0BAQEFAASCBKgwggSkAgEAAoIBAQDjsr0pX7HVxoJ6
56WlbHEDp6k2//nqrveZqu427s9tyrMaRhNvRjn4DuFc+5tmf/kS9K6zdD8d5C8r
JkUy+RssYYKD0tYYtBYdcCR+lMJxwy2l012AGsRaT9dkPwkyIr7+8wEawjj7ufY2
QdAt0zU7QWJ6g2+igHt0AVBQ3CmP/91vR8n9MuaMW+O21I+aCpk7P+Hf7r3S9ldc
xRf0qS9Ug1p39lCwQiNLaTw8wwbjx5Ok9/4CSkrZFnSvxc/Fxjj/CPOa1ANwwc7r
9qaC1IXxi1uG+/h4hA9o2FIJNKWDk7LNx/Cb6pUum+ptHpoj1DP62lHW13BIWOIp
GyCb9qYvAgMBAAECggEAHUc/cZF/gXiMEJe2wgWmpoypgov5q8ahyd2j0eZ1P63f
x9IY76b9DzuCmP01Z0GvWlOiHyskboiH1CmQnlRPvS4wpRi4NOb7LP/dgXVJZ21s
cjUygaVveBlqHdbJLOww2QGQM8ujniK0WRevWCUfZCYtLom2EhQpS6pblHoq0fwb
eKhInrF/WoZYF7IM+cDvGpUwqePu0I2RlC7yN/G/IcuWyjyMg0t1JHtsy4CE5hnB
kHWk8/V82Fj2VQXBz4AmSe7qH1CQ1dPw3sdZx7wqnnQ64dWlF/Qi1LKYWvKUe4mZ
f3OYXTXbX5omwazYyB1ltWmtmUJZNjJh9HK0iG8J6QKBgQD1mzfU7oonLKyU+BH3
ub+XQFzaSFo0IkkuLFxNcqYBRdNkYqWxTzfZJSQfdmBtZfCIQGwuMPizFdeQPWYd
RFrVngC8lZVzW0KVoAcKY42KpcO6PIIZtZxp9ZAXUsDbDLSNX6NIp+RG/nDnsRya
F49oCDtiwMV4qE40TnS9Y6iZywKBgQDtVYNECswq4fzQnLtXwMNH3YhARqn+ext9
5FsbxheANwIWSjGVVBmOiI7FnwFI8HA5KqsuJ7Ow686P7yLDU9KPZSCEHUC+2t+I
cPXxJizBEmY56ShWGbhDJoCry6iTYmyl/Z5EWQ6UvlqiIspc+iCXPym7sAe+7Bdu
+cSVnR0orQKBgQD04RjuvhOS8ZD1Ss2nYFUteifaH++IMXMjjWlOcvQfKr6VRWIN
An4djFGS6RVFnjEPuKPj/kHJVQrDruQkZCXo/Qug+8ex55jg1FiQvCfAyHv5MSFK
fvAAGa3cA090WBuhJW0JIRSS0FhEOivZW4pJYIPNd4SsQ6sNrffpaPcOtwKBgQCs
pxTDHwe/+n6sVBiFkhl94k8IU1+/XVd2kfUlk0ntYBcImBjSBUhCRF14rl+E7ET3
kW7OONujzSeL1e94ITaAUpUBBzbeoOMUoviH4bmVCwmK/270k+lUEGJyl8mezm8z
ofjMx+yvkHrmkGCemueyn6SAgWJhJec2OEUmghGAUQKBgF9piQnsjPz6lJSqCokx
KQ5axE55MTKICFpLtE+5CGsDHII9N1PFF/6qDvNl8ip6tovdbgkyWvZJrP2k2OUc
ajkMY4h2JX/AY1QQdr1XLkInwzlDOhmYM4wL3n1Eot1HckA9CEEnnmBSdDC5KcJ+
Um1PepLKXu9C6pnVlIfwIcKN
-----END PRIVATE KEY-----
Certificate:
    Data:
        Version: 3 (0x2)
        Serial Number:
            08:2b:6f:84:f6:00:6c:47:39:3f:9d:b5:73:93:83:d1
        Signature Algorithm: sha256WithRSAEncryption
        Issuer: CN=B CA - Multi-root
        Validity
            Not Before: Oct 10 22:20:07 2025 GMT
            Not After : Oct  8 22:20:07 2035 GMT
        Subject: C=US, ST=California, L=Mountain View, O=Test CA, CN=127.0.0.1
        Subject Public Key Info:
            Public Key Algorithm: rsaEncryption
                Public-Key: (2048 bit)
                Modulus:
                    00:e3:b2:bd:29:5f:b1:d5:c6:82:7a:e7:a5:a5:6c:
                    71:03:a7:a9:36:ff:f9:ea:ae:f7:99:aa:ee:36:ee:
                    cf:6d:ca:b3:1a:46:13:6f:46:39:f8:0e:e1:5c:fb:
                    9b:66:7f:f9:12:f4:ae:b3:74:3f:1d:e4:2f:2b:26:
                    45:32:f9:1b:2c:61:82:83:d2:d6:18:b4:16:1d:70:
                    24:7e:94:c2:71:c3:2d:a5:d3:5d:80:1a:c4:5a:4f:
                    d7:64:3f:09:32:22:be:fe:f3:01:1a:c2:38:fb:b9:
                    f6:36:41:d0:2d:d3:35:3b:41:62:7a:83:6f:a2:80:
                    7b:74:01:50:50:dc:29:8f:ff:dd:6f:47:c9:fd:32:
                    e6:8c:5b:e3:b6:d4:8f:9a:0a:99:3b:3f:e1:df:ee:
                    bd:d2:f6:57:5c:c5:17:f4:a9:2f:54:83:5a:77:f6:
                    50:b0:42:23:4b:69:3c:3c:c3:06:e3:c7:93:a4:f7:
                    fe:02:4a:4a:d9:16:74:af:c5:cf:c5:c6:38:ff:08:
                    f3:9a:d4:03:70:c1:ce:eb:f6:a6:82:d4:85:f1:8b:
                    5b:86:fb:f8:78:84:0f:68:d8:52:09:34:a5:83:93:
                    b2:cd:c7:f0:9b:ea:95:2e:9b:ea:6d:1e:9a:23:d4:
                    33:fa:da:51:d6:d7:70:48:58:e2:29:1b:20:9b:f6:
                    a6:2f
                Exponent: 65537 (0x10001)
        X509v3 extensions:
            X509v3 Basic Constraints: critical
                CA:FALSE
            X509v3 Subject Key Identifier: 
                DC:DC:E8:A2:CE:EF:0B:51:4B:F5:32:31:2D:FA:35:20:A9:3D:B0:68
            X509v3 Authority Key Identifier: 
                7C:87:32:26:69:03:AB:87:75:8C:A9:63:67:1A:B1:5E:C4:E6:4C:58
            X509v3 Extended Key Usage: 
                TLS Web Server Authentication, TLS Web Client Authentication
            X509v3 Subject Alternative Name: 
                IP Address:127.0.0.1
    Signature Algorithm: sha256WithRSAEncryption
    Signature Value:
        50:9a:96:a3:27:a2:ce:5d:d4:3e:58:69:96:e3:f3:5e:18:6f:
        5d:d1:90:5a:d2:ce:75:2e:33:fe:39:1e:00:49:6b:f8:af:fa:
        48:12:56:92:cc:b2:2b:89:d2:56:a0:7b:12:2b:91:c8:ac:e2:
        ad:e3:d1:56:d5:d7:19:42:2a:5d:54:9a:d0:6a:6a:05:11:6d:
        89:38:a0:ac:3a:41:58:fb:24:0c:a8:e4:b1:b1:e7:42:9c:ee:
        e2:b2:ae:10:c3:f0:da:ab:f0:6d:18:89:0e:98:4a:4f:81:23:
        e4:e5:3c:9a:52:47:95:93:f8:7a:53:cc:ba:b6:4e:f7:2d:0a:
        d5:94:cf:9d:e3:27:71:bd:36:dc:d9:12:e5:78:22:0f:aa:18:
        db:2f:54:9b:9f:15:f6:14:fb:10:65:0d:d2:d4:26:a2:d6:c5:
        bb:e5:16:65:cc:8d:ec:85:ca:c1:9b:33:40:59:c8:07:8a:b9:
        35:17:ed:c0:cf:73:39:43:c3:73:ad:98:a1:6d:f2:80:db:01:
        1b:69:fb:13:0a:d2:3a:b7:ac:3b:c0:66:f0:a5:29:4b:37:ec:
        f2:c9:6d:8c:35:a4:49:ad:2d:85:71:3e:c3:a2:92:f0:56:02:
        d3:15:fe:a1:ce:bf:e7:a1:f4:4c:2c:8e:f0:ab:cf:ba:32:a1:
        81:a1:b0:52
-----BEGIN CERTIFICATE-----
MIIDhzCCAm+gAwIBAgIQCCtvhPYAbEc5P521c5OD0TANBgkqhkiG9w0BAQsFADAc
MRowGAYDVQQDDBFCIENBIC0gTXVsdGktcm9vdDAeFw0yNTEwMTAyMjIwMDdaFw0z
NTEwMDgyMjIwMDdaMGAxCzAJBgNVBAYTAlVTMRMwEQYDVQQIDApDYWxpZm9ybmlh
MRYwFAYDVQQHDA1Nb3VudGFpbiBWaWV3MRAwDgYDVQQKDAdUZXN0IENBMRIwEAYD
VQQDDAkxMjcuMC4wLjEwggEiMA0GCSqGSIb3DQEBAQUAA4IBDwAwggEKAoIBAQDj
sr0pX7HVxoJ656WlbHEDp6k2//nqrveZqu427s9tyrMaRhNvRjn4DuFc+5tmf/kS
9K6zdD8d5C8rJkUy+RssYYKD0tYYtBYdcCR+lMJxwy2l012AGsRaT9dkPwkyIr7+
8wEawjj7ufY2QdAt0zU7QWJ6g2+igHt0AVBQ3CmP/91vR8n9MuaMW+O21I+aCpk7
P+Hf7r3S9ldcxRf0qS9Ug1p39lCwQiNLaTw8wwbjx5Ok9/4CSkrZFnSvxc/Fxjj/
CPOa1ANwwc7r9qaC1IXxi1uG+/h4hA9o2FIJNKWDk7LNx/Cb6pUum+ptHpoj1DP6
2lHW13BIWOIpGyCb9qYvAgMBAAGjgYAwfjAMBgNVHRMBAf8EAjAAMB0GA1UdDgQW
BBTc3Oiizu8LUUv1MjEt+jUgqT2waDAfBgNVHSMEGDAWgBR8hzImaQOrh3WMqWNn
GrFexOZMWDAdBgNVHSUEFjAUBggrBgEFBQcDAQYIKwYBBQUHAwIwDwYDVR0RBAgw
BocEfwAAATANBgkqhkiG9w0BAQsFAAOCAQEAUJqWoyeizl3UPlhpluPzXhhvXdGQ
WtLOdS4z/jkeAElr+K/6SBJWksyyK4nSVqB7EiuRyKzirePRVtXXGUIqXVSa0Gpq
BRFtiTigrDpBWPskDKjksbHnQpzu4rKuEMPw2qvwbRiJDphKT4Ej5OU8mlJHlZP4
elPMurZO9y0K1ZTPneMncb023NkS5XgiD6oY2y9Um58V9hT7EGUN0tQmotbFu+UW
ZcyN7IXKwZszQFnIB4q5NRftwM9zOUPDc62YoW3ygNsBG2n7EwrSOresO8Bm8KUp
Szfs8sltjDWkSa0thXE+w6KS8FYC0xX+oc6/56H0TCyO8KvPujKhgaGwUg==
-----END CERTIFICATE-----
