Certificate:
    Data:
        Version: 3 (0x2)
        Serial Number:
            01:19:65:16:ac:52:ba:2c:ba:75:ec:3f:80:74:f7:95
        Signature Algorithm: sha256WithRSAEncryption
        Issuer: CN=D Root CA - Multi-root
        Validity
            Not Before: Oct  3 00:00:00 2025 GMT
            Not After : Oct  2 00:00:00 2035 GMT
        Subject: CN=C CA - Multi-root
        Subject Public Key Info:
            Public Key Algorithm: rsaEncryption
                Public-Key: (2048 bit)
                Modulus:
                    00:8c:60:62:ce:dc:c2:c1:f4:9f:b8:a7:ff:97:26:
                    f8:4e:e2:cb:0c:6b:41:2b:08:8a:c8:33:bb:08:d6:
                    a9:dd:3d:86:21:4a:c9:f0:df:22:a0:ed:7e:28:d1:
                    85:75:cf:30:fe:f7:15:22:59:dd:8c:bb:25:b1:92:
                    85:58:d7:e2:73:3c:c9:3b:aa:08:04:e7:11:ce:5d:
                    26:15:3b:c2:c5:c0:e7:c7:3d:2e:ce:ab:8b:33:90:
                    ce:7f:c2:23:19:6f:f8:77:4f:6d:62:b7:aa:d3:36:
                    9b:6c:1c:74:39:e7:13:a1:ea:2f:25:79:fa:03:26:
                    4b:af:93:5a:89:e6:c4:82:eb:44:49:54:bd:37:05:
                    be:2b:1f:85:1c:ec:c1:8c:3a:d8:fe:fb:75:0a:78:
                    9c:92:39:29:c1:22:25:a1:01:d5:f3:45:57:35:0f:
                    49:59:f5:04:b7:1c:54:36:9d:e0:a3:93:1f:ce:96:
                    43:84:5d:7f:ba:06:3f:f0:e1:10:b5:4c:73:af:ac:
                    6b:1c:53:89:4d:1a:46:55:f3:ab:5e:72:9e:a0:83:
                    08:5c:6c:12:63:44:4d:f7:46:20:a5:7f:fb:f8:60:
                    7c:a0:ad:f2:f4:61:ae:12:d7:18:fe:1a:61:08:47:
                    44:9e:b3:87:28:c7:ef:19:88:d4:5e:48:97:6a:c7:
                    e8:7f
                Exponent: 65537 (0x10001)
        X509v3 extensions:
            X509v3 Basic Constraints: critical
                CA:TRUE
            X509v3 Subject Key Identifier: 
                01:0A:4B:94:DB:60:09:37:13:66:29:86:15:D1:87:3D:FF:B5:E3:E3
            X509v3 Key Usage: critical
                Certificate Sign, CRL Sign
            X509v3 Authority Key Identifier: 
                BA:84:C0:1F:F3:F5:CC:2C:EB:B3:99:D1:AE:FA:40:97:81:29:67:92
    Signature Algorithm: sha256WithRSAEncryption
    Signature Value:
        70:b2:fc:6c:2a:b5:6d:5d:7e:b0:80:9c:25:a1:b1:76:c4:04:
        9a:77:8c:fb:50:43:48:13:0c:02:c2:35:8c:24:f7:0b:c1:19:
        8c:4f:3d:27:1f:1c:77:4a:8a:5e:57:7d:59:29:7b:b4:08:6d:
        c2:19:0f:80:18:0d:62:9c:6d:14:ae:2a:73:0e:f1:56:05:d0:
        59:00:69:90:df:b7:d2:7f:38:0c:82:90:dd:a3:bd:4d:3d:8b:
        b9:68:a4:c2:03:68:8c:49:fa:cd:ea:bd:09:5a:ea:8a:8d:f4:
        63:76:dd:16:0b:54:01:3c:a7:9c:bc:dc:52:e4:41:c8:7a:0a:
        a1:09:b7:90:05:61:6e:bb:c0:2c:0c:11:fd:28:8a:8d:f2:9b:
        07:a4:be:d0:b7:ad:f4:ac:dd:17:ab:9b:d6:44:ef:f3:95:48:
        da:db:76:70:ab:4c:fe:bc:50:ca:4e:8a:20:74:d1:1e:47:b3:
        12:02:be:33:0b:78:c6:e7:05:57:a7:78:da:a5:fa:58:0f:aa:
        23:a7:f3:bc:dd:17:53:e8:52:30:25:48:68:ae:6b:0c:6b:6a:
        08:11:fe:66:f8:f2:54:d0:62:21:54:64:87:29:fa:4f:ea:5b:
        5d:44:a8:7b:20:d9:6f:d2:10:f1:51:b0:8e:6b:29:c9:38:1d:
        2a:e4:03:d4
-----BEGIN CERTIFICATE-----
MIIDKjCCAhKgAwIBAgIQARllFqxSuiy6dew/gHT3lTANBgkqhkiG9w0BAQsFADAh
MR8wHQYDVQQDDBZEIFJvb3QgQ0EgLSBNdWx0aS1yb290MB4XDTI1MTAwMzAwMDAw
MFoXDTM1MTAwMjAwMDAwMFowHDEaMBgGA1UEAwwRQyBDQSAtIE11bHRpLXJvb3Qw
ggEiMA0GCSqGSIb3DQEBAQUAA4IBDwAwggEKAoIBAQCMYGLO3MLB9J+4p/+XJvhO
4ssMa0ErCIrIM7sI1qndPYYhSsnw3yKg7X4o0YV1zzD+9xUiWd2MuyWxkoVY1+Jz
PMk7qggE5xHOXSYVO8LFwOfHPS7Oq4szkM5/wiMZb/h3T21it6rTNptsHHQ55xOh
6i8lefoDJkuvk1qJ5sSC60RJVL03Bb4rH4Uc7MGMOtj++3UKeJySOSnBIiWhAdXz
RVc1D0lZ9QS3HFQ2neCjkx/OlkOEXX+6Bj/w4RC1THOvrGscU4lNGkZV86tecp6g
gwhcbBJjRE33RiClf/v4YHygrfL0Ya4S1xj+GmEIR0Ses4cox+8ZiNReSJdqx+h/
AgMBAAGjYzBhMA8GA1UdEwEB/wQFMAMBAf8wHQYDVR0OBBYEFAEKS5TbYAk3E2Yp
hhXRhz3/tePjMA4GA1UdDwEB/wQEAwIBBjAfBgNVHSMEGDAWgBS6hMAf8/XMLOuz
mdGu+kCXgSlnkjANBgkqhkiG9w0BAQsFAAOCAQEAcLL8bCq1bV1+sICcJaGxdsQE
mneM+1BDSBMMAsI1jCT3C8EZjE89Jx8cd0qKXld9WSl7tAhtwhkPgBgNYpxtFK4q
cw7xVgXQWQBpkN+30n84DIKQ3aO9TT2LuWikwgNojEn6zeq9CVrqio30Y3bdFgtU
ATynnLzcUuRByHoKoQm3kAVhbrvALAwR/SiKjfKbB6S+0Let9KzdF6ub1kTv85VI
2tt2cKtM/rxQyk6KIHTRHkezEgK+Mwt4xucFV6d42qX6WA+qI6fzvN0XU+hSMCVI
aK5rDGtqCBH+ZvjyVNBiIVRkhyn6T+pbXUSoeyDZb9IQ8VGwjmspyTgdKuQD1A==
-----END CERTIFICATE-----
