Certificate:
    Data:
        Version: 3 (0x2)
        Serial Number:
            0c:a4:70:45:40:5c:4e:e7:94:9a:4a:bf:7c:3b:00:67
        Signature Algorithm: sha256WithRSAEncryption
        Issuer: CN=C CA - Multi-root
        Validity
            Not Before: Oct  4 00:00:00 2025 GMT
            Not After : Oct  2 00:00:00 2035 GMT
        Subject: CN=B CA - Multi-root
        Subject Public Key Info:
            Public Key Algorithm: rsaEncryption
                Public-Key: (2048 bit)
                Modulus:
                    00:ba:21:38:72:00:15:3e:b6:fa:6c:68:04:8a:90:
                    3b:f0:51:fd:6b:c8:f1:07:c8:a6:20:c9:ae:95:0f:
                    ae:0e:45:48:1a:16:fb:51:15:e4:3e:a1:ac:c0:b7:
                    b6:51:2c:17:e2:06:e3:cd:ad:23:be:20:51:b2:f6:
                    26:6d:0f:25:a8:d3:3f:02:70:d1:47:69:ce:cb:ab:
                    fa:f3:c9:a3:72:5a:46:f1:bd:22:0a:9f:49:4d:89:
                    b8:54:65:c2:99:56:c6:02:90:27:2a:ed:7d:f9:2c:
                    d8:27:f3:dc:88:a9:d7:f6:49:32:d4:ee:f6:a1:45:
                    58:9a:ab:fd:a4:51:1b:8a:fb:c4:1c:8a:2a:ce:b6:
                    bf:7c:42:08:1a:3b:b8:8f:ef:34:d5:61:62:cc:78:
                    09:82:18:41:3c:84:43:5c:ba:22:f5:97:14:68:26:
                    71:0e:3b:54:c1:62:ee:23:0c:e0:74:f5:0d:f9:37:
                    f9:82:93:3b:e8:5e:b9:e6:e0:8f:2f:b3:fd:71:29:
                    f8:0f:f4:94:85:50:c1:e7:a2:51:70:1a:17:66:20:
                    50:18:c9:05:94:d2:c3:28:11:07:88:bc:2d:a4:0b:
                    db:fc:02:8a:5f:43:32:f8:ad:ad:c1:4a:b5:6a:97:
                    f1:9c:65:75:7e:21:62:62:08:3f:a8:00:3b:6b:74:
                    73:cd
                Exponent: 65537 (0x10001)
        X509v3 extensions:
            X509v3 Basic Constraints: critical
                CA:TRUE
            X509v3 Subject Key Identifier: 
                7C:87:32:26:69:03:AB:87:75:8C:A9:63:67:1A:B1:5E:C4:E6:4C:58
            X509v3 Key Usage: critical
                Certificate Sign, CRL Sign
            X509v3 Authority Key Identifier: 
                01:0A:4B:94:DB:60:09:37:13:66:29:86:15:D1:87:3D:FF:B5:E3:E3
    Signature Algorithm: sha256WithRSAEncryption
    Signature Value:
        62:e8:05:5f:e4:ea:51:9a:74:de:46:05:b3:1a:ff:60:47:e0:
        6d:e7:82:16:e2:c2:ab:ab:af:86:b7:b7:be:de:41:6a:32:26:
        21:1b:31:1b:9e:16:e2:90:f4:4a:f5:57:83:96:c2:b6:b1:e0:
        51:3d:67:9b:1f:a1:f0:65:52:19:ac:85:d0:39:9b:13:da:01:
        0b:52:17:b9:cd:7c:ee:58:47:62:5e:08:c4:e7:a8:63:f6:73:
        d0:9d:0a:69:37:24:0b:be:24:22:4a:32:18:5c:54:9d:fd:11:
        c6:44:72:ad:80:8e:a6:12:69:2b:28:f8:89:0c:92:f0:e9:c6:
        ef:55:59:99:be:14:5e:dc:e2:3e:1f:68:8b:bd:cb:78:4c:cf:
        e4:2a:8a:f1:41:46:fc:f3:31:3f:11:b8:10:5e:26:f2:06:31:
        9e:3b:14:32:79:14:78:6b:3b:93:f7:99:cc:ee:d9:a2:67:92:
        7f:a4:0d:a5:7e:2b:c7:2a:5d:65:87:6c:cf:40:a5:b6:5b:7b:
        10:25:52:66:85:5a:4e:10:da:85:f8:a4:d0:a1:11:fd:6d:e7:
        0f:fd:ea:6b:64:1a:9c:d6:4b:65:84:10:1e:95:41:17:d6:4c:
        40:12:73:3f:28:ed:14:f0:10:8f:8f:71:cc:be:7e:37:ac:d4:
        54:ab:2a:5e
-----BEGIN CERTIFICATE-----
MIIDJTCCAg2gAwIBAgIQDKRwRUBcTueUmkq/fDsAZzANBgkqhkiG9w0BAQsFADAc
MRowGAYDVQQDDBFDIENBIC0gTXVsdGktcm9vdDAeFw0yNTEwMDQwMDAwMDBaFw0z
NTEwMDIwMDAwMDBaMBwxGjAYBgNVBAMMEUIgQ0EgLSBNdWx0aS1yb290MIIBIjAN
BgkqhkiG9w0BAQEFAAOCAQ8AMIIBCgKCAQEAuiE4cgAVPrb6bGgEipA78FH9a8jx
B8imIMmulQ+uDkVIGhb7URXkPqGswLe2USwX4gbjza0jviBRsvYmbQ8lqNM/AnDR
R2nOy6v688mjclpG8b0iCp9JTYm4VGXCmVbGApAnKu19+SzYJ/PciKnX9kky1O72
oUVYmqv9pFEbivvEHIoqzra/fEIIGju4j+801WFizHgJghhBPIRDXLoi9ZcUaCZx
DjtUwWLuIwzgdPUN+Tf5gpM76F655uCPL7P9cSn4D/SUhVDB56JRcBoXZiBQGMkF
lNLDKBEHiLwtpAvb/AKKX0My+K2twUq1apfxnGV1fiFiYgg/qAA7a3RzzQIDAQAB
o2MwYTAPBgNVHRMBAf8EBTADAQH/MB0GA1UdDgQWBBR8hzImaQOrh3WMqWNnGrFe
xOZMWDAOBgNVHQ8BAf8EBAMCAQYwHwYDVR0jBBgwFoAUAQpLlNtgCTcTZimGFdGH
Pf+14+MwDQYJKoZIhvcNAQELBQADggEBAGLoBV/k6lGadN5GBbMa/2BH4G3nghbi
wqurr4a3t77eQWoyJiEbMRueFuKQ9Er1V4OWwrax4FE9Z5sfofBlUhmshdA5mxPa
AQtSF7nNfO5YR2JeCMTnqGP2c9CdCmk3JAu+JCJKMhhcVJ39EcZEcq2AjqYSaSso
+IkMkvDpxu9VWZm+FF7c4j4faIu9y3hMz+QqivFBRvzzMT8RuBBeJvIGMZ47FDJ5
FHhrO5P3mczu2aJnkn+kDaV+K8cqXWWHbM9ApbZbexAlUmaFWk4Q2oX4pNChEf1t
5w/96mtkGpzWS2WEEB6VQRfWTEAScz8o7RTwEI+Pccy+fjes1FSrKl4=
-----END CERTIFICATE-----
