Certificate:
    Data:
        Version: 3 (0x2)
        Serial Number:
            08:2b:6f:84:f6:00:6c:47:39:3f:9d:b5:73:93:83:d1
        Signature Algorithm: sha256WithRSAEncryption
        Issuer: CN=B CA - Multi-root
        Validity
            Not Before: Oct 10 22:20:07 2025 GMT
            Not After : Oct  8 22:20:07 2035 GMT
        Subject: C=US, ST=California, L=Mountain View, O=Test CA, CN=127.0.0.1
        Subject Public Key Info:
            Public Key Algorithm: rsaEncryption
                Public-Key: (2048 bit)
                Modulus:
                    00:e3:b2:bd:29:5f:b1:d5:c6:82:7a:e7:a5:a5:6c:
                    71:03:a7:a9:36:ff:f9:ea:ae:f7:99:aa:ee:36:ee:
                    cf:6d:ca:b3:1a:46:13:6f:46:39:f8:0e:e1:5c:fb:
                    9b:66:7f:f9:12:f4:ae:b3:74:3f:1d:e4:2f:2b:26:
                    45:32:f9:1b:2c:61:82:83:d2:d6:18:b4:16:1d:70:
                    24:7e:94:c2:71:c3:2d:a5:d3:5d:80:1a:c4:5a:4f:
                    d7:64:3f:09:32:22:be:fe:f3:01:1a:c2:38:fb:b9:
                    f6:36:41:d0:2d:d3:35:3b:41:62:7a:83:6f:a2:80:
                    7b:74:01:50:50:dc:29:8f:ff:dd:6f:47:c9:fd:32:
                    e6:8c:5b:e3:b6:d4:8f:9a:0a:99:3b:3f:e1:df:ee:
                    bd:d2:f6:57:5c:c5:17:f4:a9:2f:54:83:5a:77:f6:
                    50:b0:42:23:4b:69:3c:3c:c3:06:e3:c7:93:a4:f7:
                    fe:02:4a:4a:d9:16:74:af:c5:cf:c5:c6:38:ff:08:
                    f3:9a:d4:03:70:c1:ce:eb:f6:a6:82:d4:85:f1:8b:
                    5b:86:fb:f8:78:84:0f:68:d8:52:09:34:a5:83:93:
                    b2:cd:c7:f0:9b:ea:95:2e:9b:ea:6d:1e:9a:23:d4:
                    33:fa:da:51:d6:d7:70:48:58:e2:29:1b:20:9b:f6:
                    a6:2f
                Exponent: 65537 (0x10001)
        X509v3 extensions:
            X509v3 Basic Constraints: critical
                CA:FALSE
            X509v3 Subject Key Identifier: 
                DC:DC:E8:A2:CE:EF:0B:51:4B:F5:32:31:2D:FA:35:20:A9:3D:B0:68
            X509v3 Authority Key Identifier: 
                7C:87:32:26:69:03:AB:87:75:8C:A9:63:67:1A:B1:5E:C4:E6:4C:58
            X509v3 Extended Key Usage: 
                TLS Web Server Authentication, TLS Web Client Authentication
            X509v3 Subject Alternative Name: 
                IP Address:127.0.0.1
    Signature Algorithm: sha256WithRSAEncryption
    Signature Value:
        50:9a:96:a3:27:a2:ce:5d:d4:3e:58:69:96:e3:f3:5e:18:6f:
        5d:d1:90:5a:d2:ce:75:2e:33:fe:39:1e:00:49:6b:f8:af:fa:
        48:12:56:92:cc:b2:2b:89:d2:56:a0:7b:12:2b:91:c8:ac:e2:
        ad:e3:d1:56:d5:d7:19:42:2a:5d:54:9a:d0:6a:6a:05:11:6d:
        89:38:a0:ac:3a:41:58:fb:24:0c:a8:e4:b1:b1:e7:42:9c:ee:
        e2:b2:ae:10:c3:f0:da:ab:f0:6d:18:89:0e:98:4a:4f:81:23:
        e4:e5:3c:9a:52:47:95:93:f8:7a:53:cc:ba:b6:4e:f7:2d:0a:
        d5:94:cf:9d:e3:27:71:bd:36:dc:d9:12:e5:78:22:0f:aa:18:
        db:2f:54:9b:9f:15:f6:14:fb:10:65:0d:d2:d4:26:a2:d6:c5:
        bb:e5:16:65:cc:8d:ec:85:ca:c1:9b:33:40:59:c8:07:8a:b9:
        35:17:ed:c0:cf:73:39:43:c3:73:ad:98:a1:6d:f2:80:db:01:
        1b:69:fb:13:0a:d2:3a:b7:ac:3b:c0:66:f0:a5:29:4b:37:ec:
        f2:c9:6d:8c:35:a4:49:ad:2d:85:71:3e:c3:a2:92:f0:56:02:
        d3:15:fe:a1:ce:bf:e7:a1:f4:4c:2c:8e:f0:ab:cf:ba:32:a1:
        81:a1:b0:52
-----BEGIN CERTIFICATE-----
MIIDhzCCAm+gAwIBAgIQCCtvhPYAbEc5P521c5OD0TANBgkqhkiG9w0BAQsFADAc
MRowGAYDVQQDDBFCIENBIC0gTXVsdGktcm9vdDAeFw0yNTEwMTAyMjIwMDdaFw0z
NTEwMDgyMjIwMDdaMGAxCzAJBgNVBAYTAlVTMRMwEQYDVQQIDApDYWxpZm9ybmlh
MRYwFAYDVQQHDA1Nb3VudGFpbiBWaWV3MRAwDgYDVQQKDAdUZXN0IENBMRIwEAYD
VQQDDAkxMjcuMC4wLjEwggEiMA0GCSqGSIb3DQEBAQUAA4IBDwAwggEKAoIBAQDj
sr0pX7HVxoJ656WlbHEDp6k2//nqrveZqu427s9tyrMaRhNvRjn4DuFc+5tmf/kS
9K6zdD8d5C8rJkUy+RssYYKD0tYYtBYdcCR+lMJxwy2l012AGsRaT9dkPwkyIr7+
8wEawjj7ufY2QdAt0zU7QWJ6g2+igHt0AVBQ3CmP/91vR8n9MuaMW+O21I+aCpk7
P+Hf7r3S9ldcxRf0qS9Ug1p39lCwQiNLaTw8wwbjx5Ok9/4CSkrZFnSvxc/Fxjj/
CPOa1ANwwc7r9qaC1IXxi1uG+/h4hA9o2FIJNKWDk7LNx/Cb6pUum+ptHpoj1DP6
2lHW13BIWOIpGyCb9qYvAgMBAAGjgYAwfjAMBgNVHRMBAf8EAjAAMB0GA1UdDgQW
BBTc3Oiizu8LUUv1MjEt+jUgqT2waDAfBgNVHSMEGDAWgBR8hzImaQOrh3WMqWNn
GrFexOZMWDAdBgNVHSUEFjAUBggrBgEFBQcDAQYIKwYBBQUHAwIwDwYDVR0RBAgw
BocEfwAAATANBgkqhkiG9w0BAQsFAAOCAQEAUJqWoyeizl3UPlhpluPzXhhvXdGQ
WtLOdS4z/jkeAElr+K/6SBJWksyyK4nSVqB7EiuRyKzirePRVtXXGUIqXVSa0Gpq
BRFtiTigrDpBWPskDKjksbHnQpzu4rKuEMPw2qvwbRiJDphKT4Ej5OU8mlJHlZP4
elPMurZO9y0K1ZTPneMncb023NkS5XgiD6oY2y9Um58V9hT7EGUN0tQmotbFu+UW
ZcyN7IXKwZszQFnIB4q5NRftwM9zOUPDc62YoW3ygNsBG2n7EwrSOresO8Bm8KUp
Szfs8sltjDWkSa0thXE+w6KS8FYC0xX+oc6/56H0TCyO8KvPujKhgaGwUg==
-----END CERTIFICATE-----
Certificate:
    Data:
        Version: 3 (0x2)
        Serial Number:
            0c:a4:70:45:40:5c:4e:e7:94:9a:4a:bf:7c:3b:00:67
        Signature Algorithm: sha256WithRSAEncryption
        Issuer: CN=C CA - Multi-root
        Validity
            Not Before: Oct  4 00:00:00 2025 GMT
            Not After : Oct  2 00:00:00 2035 GMT
        Subject: CN=B CA - Multi-root
        Subject Public Key Info:
            Public Key Algorithm: rsaEncryption
                Public-Key: (2048 bit)
                Modulus:
                    00:ba:21:38:72:00:15:3e:b6:fa:6c:68:04:8a:90:
                    3b:f0:51:fd:6b:c8:f1:07:c8:a6:20:c9:ae:95:0f:
                    ae:0e:45:48:1a:16:fb:51:15:e4:3e:a1:ac:c0:b7:
                    b6:51:2c:17:e2:06:e3:cd:ad:23:be:20:51:b2:f6:
                    26:6d:0f:25:a8:d3:3f:02:70:d1:47:69:ce:cb:ab:
                    fa:f3:c9:a3:72:5a:46:f1:bd:22:0a:9f:49:4d:89:
                    b8:54:65:c2:99:56:c6:02:90:27:2a:ed:7d:f9:2c:
                    d8:27:f3:dc:88:a9:d7:f6:49:32:d4:ee:f6:a1:45:
                    58:9a:ab:fd:a4:51:1b:8a:fb:c4:1c:8a:2a:ce:b6:
                    bf:7c:42:08:1a:3b:b8:8f:ef:34:d5:61:62:cc:78:
                    09:82:18:41:3c:84:43:5c:ba:22:f5:97:14:68:26:
                    71:0e:3b:54:c1:62:ee:23:0c:e0:74:f5:0d:f9:37:
                    f9:82:93:3b:e8:5e:b9:e6:e0:8f:2f:b3:fd:71:29:
                    f8:0f:f4:94:85:50:c1:e7:a2:51:70:1a:17:66:20:
                    50:18:c9:05:94:d2:c3:28:11:07:88:bc:2d:a4:0b:
                    db:fc:02:8a:5f:43:32:f8:ad:ad:c1:4a:b5:6a:97:
                    f1:9c:65:75:7e:21:62:62:08:3f:a8:00:3b:6b:74:
                    73:cd
                Exponent: 65537 (0x10001)
        X509v3 extensions:
            X509v3 Basic Constraints: critical
                CA:TRUE
            X509v3 Subject Key Identifier: 
                7C:87:32:26:69:03:AB:87:75:8C:A9:63:67:1A:B1:5E:C4:E6:4C:58
            X509v3 Key Usage: critical
                Certificate Sign, CRL Sign
            X509v3 Authority Key Identifier: 
                01:0A:4B:94:DB:60:09:37:13:66:29:86:15:D1:87:3D:FF:B5:E3:E3
    Signature Algorithm: sha256WithRSAEncryption
    Signature Value:
        62:e8:05:5f:e4:ea:51:9a:74:de:46:05:b3:1a:ff:60:47:e0:
        6d:e7:82:16:e2:c2:ab:ab:af:86:b7:b7:be:de:41:6a:32:26:
        21:1b:31:1b:9e:16:e2:90:f4:4a:f5:57:83:96:c2:b6:b1:e0:
        51:3d:67:9b:1f:a1:f0:65:52:19:ac:85:d0:39:9b:13:da:01:
        0b:52:17:b9:cd:7c:ee:58:47:62:5e:08:c4:e7:a8:63:f6:73:
        d0:9d:0a:69:37:24:0b:be:24:22:4a:32:18:5c:54:9d:fd:11:
        c6:44:72:ad:80:8e:a6:12:69:2b:28:f8:89:0c:92:f0:e9:c6:
        ef:55:59:99:be:14:5e:dc:e2:3e:1f:68:8b:bd:cb:78:4c:cf:
        e4:2a:8a:f1:41:46:fc:f3:31:3f:11:b8:10:5e:26:f2:06:31:
        9e:3b:14:32:79:14:78:6b:3b:93:f7:99:cc:ee:d9:a2:67:92:
        7f:a4:0d:a5:7e:2b:c7:2a:5d:65:87:6c:cf:40:a5:b6:5b:7b:
        10:25:52:66:85:5a:4e:10:da:85:f8:a4:d0:a1:11:fd:6d:e7:
        0f:fd:ea:6b:64:1a:9c:d6:4b:65:84:10:1e:95:41:17:d6:4c:
        40:12:73:3f:28:ed:14:f0:10:8f:8f:71:cc:be:7e:37:ac:d4:
        54:ab:2a:5e
-----BEGIN CERTIFICATE-----
MIIDJTCCAg2gAwIBAgIQDKRwRUBcTueUmkq/fDsAZzANBgkqhkiG9w0BAQsFADAc
MRowGAYDVQQDDBFDIENBIC0gTXVsdGktcm9vdDAeFw0yNTEwMDQwMDAwMDBaFw0z
NTEwMDIwMDAwMDBaMBwxGjAYBgNVBAMMEUIgQ0EgLSBNdWx0aS1yb290MIIBIjAN
BgkqhkiG9w0BAQEFAAOCAQ8AMIIBCgKCAQEAuiE4cgAVPrb6bGgEipA78FH9a8jx
B8imIMmulQ+uDkVIGhb7URXkPqGswLe2USwX4gbjza0jviBRsvYmbQ8lqNM/AnDR
R2nOy6v688mjclpG8b0iCp9JTYm4VGXCmVbGApAnKu19+SzYJ/PciKnX9kky1O72
oUVYmqv9pFEbivvEHIoqzra/fEIIGju4j+801WFizHgJghhBPIRDXLoi9ZcUaCZx
DjtUwWLuIwzgdPUN+Tf5gpM76F655uCPL7P9cSn4D/SUhVDB56JRcBoXZiBQGMkF
lNLDKBEHiLwtpAvb/AKKX0My+K2twUq1apfxnGV1fiFiYgg/qAA7a3RzzQIDAQAB
o2MwYTAPBgNVHRMBAf8EBTADAQH/MB0GA1UdDgQWBBR8hzImaQOrh3WMqWNnGrFe
xOZMWDAOBgNVHQ8BAf8EBAMCAQYwHwYDVR0jBBgwFoAUAQpLlNtgCTcTZimGFdGH
Pf+14+MwDQYJKoZIhvcNAQELBQADggEBAGLoBV/k6lGadN5GBbMa/2BH4G3nghbi
wqurr4a3t77eQWoyJiEbMRueFuKQ9Er1V4OWwrax4FE9Z5sfofBlUhmshdA5mxPa
AQtSF7nNfO5YR2JeCMTnqGP2c9CdCmk3JAu+JCJKMhhcVJ39EcZEcq2AjqYSaSso
+IkMkvDpxu9VWZm+FF7c4j4faIu9y3hMz+QqivFBRvzzMT8RuBBeJvIGMZ47FDJ5
FHhrO5P3mczu2aJnkn+kDaV+K8cqXWWHbM9ApbZbexAlUmaFWk4Q2oX4pNChEf1t
5w/96mtkGpzWS2WEEB6VQRfWTEAScz8o7RTwEI+Pccy+fjes1FSrKl4=
-----END CERTIFICATE-----
Certificate:
    Data:
        Version: 3 (0x2)
        Serial Number:
            df:e5:35:a4:1e:8f:46:73:eb:8e:c8:b4:3e:38:88:dc
        Signature Algorithm: sha256WithRSAEncryption
        Issuer: CN=E Root CA - Multi-root
        Validity
            Not Before: Oct  5 00:00:00 2025 GMT
            Not After : Oct  2 00:00:00 2035 GMT
        Subject: CN=C CA - Multi-root
        Subject Public Key Info:
            Public Key Algorithm: rsaEncryption
                Public-Key: (2048 bit)
                Modulus:
                    00:8c:60:62:ce:dc:c2:c1:f4:9f:b8:a7:ff:97:26:
                    f8:4e:e2:cb:0c:6b:41:2b:08:8a:c8:33:bb:08:d6:
                    a9:dd:3d:86:21:4a:c9:f0:df:22:a0:ed:7e:28:d1:
                    85:75:cf:30:fe:f7:15:22:59:dd:8c:bb:25:b1:92:
                    85:58:d7:e2:73:3c:c9:3b:aa:08:04:e7:11:ce:5d:
                    26:15:3b:c2:c5:c0:e7:c7:3d:2e:ce:ab:8b:33:90:
                    ce:7f:c2:23:19:6f:f8:77:4f:6d:62:b7:aa:d3:36:
                    9b:6c:1c:74:39:e7:13:a1:ea:2f:25:79:fa:03:26:
                    4b:af:93:5a:89:e6:c4:82:eb:44:49:54:bd:37:05:
                    be:2b:1f:85:1c:ec:c1:8c:3a:d8:fe:fb:75:0a:78:
                    9c:92:39:29:c1:22:25:a1:01:d5:f3:45:57:35:0f:
                    49:59:f5:04:b7:1c:54:36:9d:e0:a3:93:1f:ce:96:
                    43:84:5d:7f:ba:06:3f:f0:e1:10:b5:4c:73:af:ac:
                    6b:1c:53:89:4d:1a:46:55:f3:ab:5e:72:9e:a0:83:
                    08:5c:6c:12:63:44:4d:f7:46:20:a5:7f:fb:f8:60:
                    7c:a0:ad:f2:f4:61:ae:12:d7:18:fe:1a:61:08:47:
                    44:9e:b3:87:28:c7:ef:19:88:d4:5e:48:97:6a:c7:
                    e8:7f
                Exponent: 65537 (0x10001)
        X509v3 extensions:
            X509v3 Basic Constraints: critical
                CA:TRUE
            X509v3 Subject Key Identifier: 
                01:0A:4B:94:DB:60:09:37:13:66:29:86:15:D1:87:3D:FF:B5:E3:E3
            X509v3 Key Usage: critical
                Certificate Sign, CRL Sign
            X509v3 Authority Key Identifier: 
                11:1C:84:0C:04:7B:3D:BB:88:5D:04:FC:06:D7:52:A1:BD:6D:89:4E
    Signature Algorithm: sha256WithRSAEncryption
    Signature Value:
        b9:be:e6:50:bb:24:2a:a6:69:f2:44:3f:0f:e0:2a:e7:cf:3c:
        37:cf:b7:b9:b7:5d:b8:d8:cf:d9:52:6c:86:5c:0f:9a:52:1a:
        3b:4d:9a:11:b8:26:b5:c7:fc:d9:9f:dd:99:a4:f3:10:41:95:
        e0:e2:d6:f4:8f:22:5b:fa:b2:7b:40:cf:1f:f0:a9:3d:ba:5f:
        a5:27:a0:7c:79:a1:5c:c9:9e:24:f7:74:b7:06:8f:5b:fa:ea:
        af:a3:6c:db:65:72:3c:4e:1c:9e:a2:9e:e5:0d:9c:97:bf:b9:
        00:cf:92:59:0b:02:0c:c3:62:db:23:ce:c1:48:64:de:87:db:
        47:cf:bd:d9:f4:dd:cf:ed:a9:48:6e:24:8f:a9:fc:f9:6c:57:
        77:59:5f:5c:00:9c:ec:15:13:e2:5b:98:9c:15:7f:c2:87:be:
        5d:e9:4d:a4:21:1c:3e:05:cf:be:53:0c:fb:e6:c2:be:92:df:
        75:11:b3:45:db:d8:2d:f0:f1:cd:c8:2c:e4:69:36:0a:06:a4:
        f9:2b:58:2e:d9:29:59:f5:14:bf:01:26:c0:3f:92:60:ef:72:
        f1:4b:65:0c:6d:b7:fa:89:4e:14:dc:45:91:ca:ad:1f:02:55:
        8c:da:84:6f:54:8a:d6:5b:fd:7e:aa:da:e1:64:97:cf:b3:35:
        2d:77:e6:63
-----BEGIN CERTIFICATE-----
MIIDKzCCAhOgAwIBAgIRAN/lNaQej0Zz647ItD44iNwwDQYJKoZIhvcNAQELBQAw
ITEfMB0GA1UEAwwWRSBSb290IENBIC0gTXVsdGktcm9vdDAeFw0yNTEwMDUwMDAw
MDBaFw0zNTEwMDIwMDAwMDBaMBwxGjAYBgNVBAMMEUMgQ0EgLSBNdWx0aS1yb290
MIIBIjANBgkqhkiG9w0BAQEFAAOCAQ8AMIIBCgKCAQEAjGBiztzCwfSfuKf/lyb4
TuLLDGtBKwiKyDO7CNap3T2GIUrJ8N8ioO1+KNGFdc8w/vcVIlndjLslsZKFWNfi
czzJO6oIBOcRzl0mFTvCxcDnxz0uzquLM5DOf8IjGW/4d09tYreq0zabbBx0OecT
oeovJXn6AyZLr5NaiebEgutESVS9NwW+Kx+FHOzBjDrY/vt1CnickjkpwSIloQHV
80VXNQ9JWfUEtxxUNp3go5MfzpZDhF1/ugY/8OEQtUxzr6xrHFOJTRpGVfOrXnKe
oIMIXGwSY0RN90YgpX/7+GB8oK3y9GGuEtcY/hphCEdEnrOHKMfvGYjUXkiXasfo
fwIDAQABo2MwYTAPBgNVHRMBAf8EBTADAQH/MB0GA1UdDgQWBBQBCkuU22AJNxNm
KYYV0Yc9/7Xj4zAOBgNVHQ8BAf8EBAMCAQYwHwYDVR0jBBgwFoAUERyEDAR7PbuI
XQT8BtdSob1tiU4wDQYJKoZIhvcNAQELBQADggEBALm+5lC7JCqmafJEPw/gKufP
PDfPt7m3XbjYz9lSbIZcD5pSGjtNmhG4JrXH/Nmf3Zmk8xBBleDi1vSPIlv6sntA
zx/wqT26X6UnoHx5oVzJniT3dLcGj1v66q+jbNtlcjxOHJ6inuUNnJe/uQDPklkL
AgzDYtsjzsFIZN6H20fPvdn03c/tqUhuJI+p/PlsV3dZX1wAnOwVE+JbmJwVf8KH
vl3pTaQhHD4Fz75TDPvmwr6S33URs0Xb2C3w8c3ILORpNgoGpPkrWC7ZKVn1FL8B
JsA/kmDvcvFLZQxtt/qJThTcRZHKrR8CVYzahG9UitZb/X6q2uFkl8+zNS135mM=
-----END CERTIFICATE-----
Certificate:
    Data:
        Version: 3 (0x2)
        Serial Number:
            df:e5:35:a4:1e:8f:46:73:eb:8e:c8:b4:3e:38:88:db
        Signature Algorithm: sha256WithRSAEncryption
        Issuer: CN=E Root CA - Multi-root
        Validity
            Not Before: Oct  2 00:00:00 2025 GMT
            Not After : Oct  2 00:00:00 2035 GMT
        Subject: CN=E Root CA - Multi-root
        Subject Public Key Info:
            Public Key Algorithm: rsaEncryption
                Public-Key: (2048 bit)
                Modulus:
                    00:ca:d7:c2:2a:0b:91:4c:41:3e:ba:64:51:03:82:
                    a8:c4:93:40:f9:d2:ca:c1:64:7d:5f:a4:1b:68:dc:
                    92:3a:8e:eb:e0:d1:8c:01:12:d3:53:d7:40:ee:cc:
                    91:1f:33:ed:86:09:63:0e:1e:9b:09:ab:4a:a8:0d:
                    3d:37:aa:62:c6:de:91:b2:31:5d:d4:0a:09:d2:5d:
                    05:dc:78:d2:d2:7b:59:83:a2:15:c4:a8:ae:54:7e:
                    33:6a:64:03:d6:bd:a3:e4:f6:70:df:7b:09:12:e5:
                    a7:89:95:49:c3:4f:35:5e:ff:36:10:9b:3b:c8:ab:
                    a2:01:ea:4e:8f:96:64:30:7e:bd:ee:5c:56:ed:65:
                    95:b5:4a:d5:56:86:75:87:7a:7e:99:07:64:27:93:
                    58:86:96:9b:00:9a:5f:18:5a:b0:6c:32:fd:1a:25:
                    fe:d8:79:e9:dc:dd:50:27:15:83:9f:3a:c4:ca:60:
                    7a:f0:5c:e3:7e:a3:2f:09:10:db:21:b1:71:b9:37:
                    ef:57:7d:6d:45:03:4f:48:0f:6e:c7:6d:97:a3:ea:
                    99:99:6d:5e:e3:44:4d:1b:cd:f6:a8:7f:56:ec:09:
                    6e:b8:ce:d6:54:15:94:db:d2:48:fc:3b:de:b4:ae:
                    da:39:88:b5:ba:fa:27:ca:d5:b9:cc:79:ca:5c:55:
                    25:5b
                Exponent: 65537 (0x10001)
        X509v3 extensions:
            X509v3 Basic Constraints: critical
                CA:TRUE
            X509v3 Subject Key Identifier: 
                11:1C:84:0C:04:7B:3D:BB:88:5D:04:FC:06:D7:52:A1:BD:6D:89:4E
            X509v3 Key Usage: critical
                Certificate Sign, CRL Sign
    Signature Algorithm: sha256WithRSAEncryption
    Signature Value:
        7d:ed:65:17:d8:cc:e8:94:37:39:8a:b8:3b:12:78:32:94:b2:
        7b:ca:f8:f3:bd:45:a5:20:e6:e6:18:7c:ff:0c:c7:71:de:c9:
        e7:67:7c:db:ef:7d:c2:cf:2e:fd:2b:c0:d4:40:c7:91:30:87:
        2a:15:ee:ca:6d:7f:33:a7:4a:35:1c:56:10:8d:31:fc:16:8a:
        fe:27:2e:1d:fa:36:dc:ea:16:37:16:39:bc:05:77:db:d9:46:
        ff:b4:fe:32:44:7b:06:e9:77:ee:e6:23:f4:ad:f1:dc:3b:6f:
        19:a9:c5:f2:ea:10:05:f3:5d:8e:9b:b3:ed:7c:f0:70:c7:1e:
        08:93:75:5b:fd:4c:0b:95:6e:94:bf:f9:ca:39:cb:82:d4:8f:
        1a:e9:c8:39:79:12:a9:8e:6d:69:d9:05:ac:f3:dc:94:3f:04:
        49:25:fc:85:67:30:54:34:07:54:e4:42:27:56:3e:fb:d6:ec:
        f0:fc:47:dd:96:00:2f:8e:c2:0e:c7:d1:df:42:2f:57:ae:45:
        43:68:50:79:78:7c:db:5c:8c:1f:5b:fe:4d:79:28:e5:48:ad:
        33:01:6f:bd:e2:8f:e5:a6:3d:df:d3:18:28:ab:3b:06:38:a3:
        82:a3:75:46:32:98:85:71:e5:e4:dc:a2:32:2f:8b:f1:53:be:
        45:f9:07:51
-----BEGIN CERTIFICATE-----
MIIDDzCCAfegAwIBAgIRAN/lNaQej0Zz647ItD44iNswDQYJKoZIhvcNAQELBQAw
ITEfMB0GA1UEAwwWRSBSb290IENBIC0gTXVsdGktcm9vdDAeFw0yNTEwMDIwMDAw
MDBaFw0zNTEwMDIwMDAwMDBaMCExHzAdBgNVBAMMFkUgUm9vdCBDQSAtIE11bHRp
LXJvb3QwggEiMA0GCSqGSIb3DQEBAQUAA4IBDwAwggEKAoIBAQDK18IqC5FMQT66
ZFEDgqjEk0D50srBZH1fpBto3JI6juvg0YwBEtNT10DuzJEfM+2GCWMOHpsJq0qo
DT03qmLG3pGyMV3UCgnSXQXceNLSe1mDohXEqK5UfjNqZAPWvaPk9nDfewkS5aeJ
lUnDTzVe/zYQmzvIq6IB6k6PlmQwfr3uXFbtZZW1StVWhnWHen6ZB2Qnk1iGlpsA
ml8YWrBsMv0aJf7Yeenc3VAnFYOfOsTKYHrwXON+oy8JENshsXG5N+9XfW1FA09I
D27HbZej6pmZbV7jRE0bzfaof1bsCW64ztZUFZTb0kj8O960rto5iLW6+ifK1bnM
ecpcVSVbAgMBAAGjQjBAMA8GA1UdEwEB/wQFMAMBAf8wHQYDVR0OBBYEFBEchAwE
ez27iF0E/AbXUqG9bYlOMA4GA1UdDwEB/wQEAwIBBjANBgkqhkiG9w0BAQsFAAOC
AQEAfe1lF9jM6JQ3OYq4OxJ4MpSye8r4871FpSDm5hh8/wzHcd7J52d82+99ws8u
/SvA1EDHkTCHKhXuym1/M6dKNRxWEI0x/BaK/icuHfo23OoWNxY5vAV329lG/7T+
MkR7Bul37uYj9K3x3DtvGanF8uoQBfNdjpuz7XzwcMceCJN1W/1MC5VulL/5yjnL
gtSPGunIOXkSqY5tadkFrPPclD8ESSX8hWcwVDQHVORCJ1Y++9bs8PxH3ZYAL47C
DsfR30IvV65FQ2hQeXh821yMH1v+TXko5UitMwFvveKP5aY939MYKKs7BjijgqN1
RjKYhXHl5NyiMi+L8VO+RfkHUQ==
-----END CERTIFICATE-----
