Certificate:
    Data:
        Version: 3 (0x2)
        Serial Number:
            df:e5:35:a4:1e:8f:46:73:eb:8e:c8:b4:3e:38:88:db
        Signature Algorithm: sha256WithRSAEncryption
        Issuer: CN=E Root CA - Multi-root
        Validity
            Not Before: Oct  2 00:00:00 2025 GMT
            Not After : Oct  2 00:00:00 2035 GMT
        Subject: CN=E Root CA - Multi-root
        Subject Public Key Info:
            Public Key Algorithm: rsaEncryption
                Public-Key: (2048 bit)
                Modulus:
                    00:ca:d7:c2:2a:0b:91:4c:41:3e:ba:64:51:03:82:
                    a8:c4:93:40:f9:d2:ca:c1:64:7d:5f:a4:1b:68:dc:
                    92:3a:8e:eb:e0:d1:8c:01:12:d3:53:d7:40:ee:cc:
                    91:1f:33:ed:86:09:63:0e:1e:9b:09:ab:4a:a8:0d:
                    3d:37:aa:62:c6:de:91:b2:31:5d:d4:0a:09:d2:5d:
                    05:dc:78:d2:d2:7b:59:83:a2:15:c4:a8:ae:54:7e:
                    33:6a:64:03:d6:bd:a3:e4:f6:70:df:7b:09:12:e5:
                    a7:89:95:49:c3:4f:35:5e:ff:36:10:9b:3b:c8:ab:
                    a2:01:ea:4e:8f:96:64:30:7e:bd:ee:5c:56:ed:65:
                    95:b5:4a:d5:56:86:75:87:7a:7e:99:07:64:27:93:
                    58:86:96:9b:00:9a:5f:18:5a:b0:6c:32:fd:1a:25:
                    fe:d8:79:e9:dc:dd:50:27:15:83:9f:3a:c4:ca:60:
                    7a:f0:5c:e3:7e:a3:2f:09:10:db:21:b1:71:b9:37:
                    ef:57:7d:6d:45:03:4f:48:0f:6e:c7:6d:97:a3:ea:
                    99:99:6d:5e:e3:44:4d:1b:cd:f6:a8:7f:56:ec:09:
                    6e:b8:ce:d6:54:15:94:db:d2:48:fc:3b:de:b4:ae:
                    da:39:88:b5:ba:fa:27:ca:d5:b9:cc:79:ca:5c:55:
                    25:5b
                Exponent: 65537 (0x10001)
        X509v3 extensions:
            X509v3 Basic Constraints: critical
                CA:TRUE
            X509v3 Subject Key Identifier: 
                11:1C:84:0C:04:7B:3D:BB:88:5D:04:FC:06:D7:52:A1:BD:6D:89:4E
            X509v3 Key Usage: critical
                Certificate Sign, CRL Sign
    Signature Algorithm: sha256WithRSAEncryption
    Signature Value:
        7d:ed:65:17:d8:cc:e8:94:37:39:8a:b8:3b:12:78:32:94:b2:
        7b:ca:f8:f3:bd:45:a5:20:e6:e6:18:7c:ff:0c:c7:71:de:c9:
        e7:67:7c:db:ef:7d:c2:cf:2e:fd:2b:c0:d4:40:c7:91:30:87:
        2a:15:ee:ca:6d:7f:33:a7:4a:35:1c:56:10:8d:31:fc:16:8a:
        fe:27:2e:1d:fa:36:dc:ea:16:37:16:39:bc:05:77:db:d9:46:
        ff:b4:fe:32:44:7b:06:e9:77:ee:e6:23:f4:ad:f1:dc:3b:6f:
        19:a9:c5:f2:ea:10:05:f3:5d:8e:9b:b3:ed:7c:f0:70:c7:1e:
        08:93:75:5b:fd:4c:0b:95:6e:94:bf:f9:ca:39:cb:82:d4:8f:
        1a:e9:c8:39:79:12:a9:8e:6d:69:d9:05:ac:f3:dc:94:3f:04:
        49:25:fc:85:67:30:54:34:07:54:e4:42:27:56:3e:fb:d6:ec:
        f0:fc:47:dd:96:00:2f:8e:c2:0e:c7:d1:df:42:2f:57:ae:45:
        43:68:50:79:78:7c:db:5c:8c:1f:5b:fe:4d:79:28:e5:48:ad:
        33:01:6f:bd:e2:8f:e5:a6:3d:df:d3:18:28:ab:3b:06:38:a3:
        82:a3:75:46:32:98:85:71:e5:e4:dc:a2:32:2f:8b:f1:53:be:
        45:f9:07:51
-----BEGIN CERTIFICATE-----
MIIDDzCCAfegAwIBAgIRAN/lNaQej0Zz647ItD44iNswDQYJKoZIhvcNAQELBQAw
ITEfMB0GA1UEAwwWRSBSb290IENBIC0gTXVsdGktcm9vdDAeFw0yNTEwMDIwMDAw
MDBaFw0zNTEwMDIwMDAwMDBaMCExHzAdBgNVBAMMFkUgUm9vdCBDQSAtIE11bHRp
LXJvb3QwggEiMA0GCSqGSIb3DQEBAQUAA4IBDwAwggEKAoIBAQDK18IqC5FMQT66
ZFEDgqjEk0D50srBZH1fpBto3JI6juvg0YwBEtNT10DuzJEfM+2GCWMOHpsJq0qo
DT03qmLG3pGyMV3UCgnSXQXceNLSe1mDohXEqK5UfjNqZAPWvaPk9nDfewkS5aeJ
lUnDTzVe/zYQmzvIq6IB6k6PlmQwfr3uXFbtZZW1StVWhnWHen6ZB2Qnk1iGlpsA
ml8YWrBsMv0aJf7Yeenc3VAnFYOfOsTKYHrwXON+oy8JENshsXG5N+9XfW1FA09I
D27HbZej6pmZbV7jRE0bzfaof1bsCW64ztZUFZTb0kj8O960rto5iLW6+ifK1bnM
ecpcVSVbAgMBAAGjQjBAMA8GA1UdEwEB/wQFMAMBAf8wHQYDVR0OBBYEFBEchAwE
ez27iF0E/AbXUqG9bYlOMA4GA1UdDwEB/wQEAwIBBjANBgkqhkiG9w0BAQsFAAOC
AQEAfe1lF9jM6JQ3OYq4OxJ4MpSye8r4871FpSDm5hh8/wzHcd7J52d82+99ws8u
/SvA1EDHkTCHKhXuym1/M6dKNRxWEI0x/BaK/icuHfo23OoWNxY5vAV329lG/7T+
MkR7Bul37uYj9K3x3DtvGanF8uoQBfNdjpuz7XzwcMceCJN1W/1MC5VulL/5yjnL
gtSPGunIOXkSqY5tadkFrPPclD8ESSX8hWcwVDQHVORCJ1Y++9bs8PxH3ZYAL47C
DsfR30IvV65FQ2hQeXh821yMH1v+TXko5UitMwFvveKP5aY939MYKKs7BjijgqN1
RjKYhXHl5NyiMi+L8VO+RfkHUQ==
-----END CERTIFICATE-----
