Certificate:
    Data:
        Version: 3 (0x2)
        Serial Number:
            28:f2:45:80:4b:f4:4e:7a:86:2b:0f:99:0f:c0:53:47
        Signature Algorithm: sha256WithRSAEncryption
        Issuer: CN = Intermediate for byte equality comparison
        Validity
            Not Before: Jan  1 06:00:00 2010 GMT
            Not After : Dec  1 06:00:00 2032 GMT
        Subject: CN = Leaf for byte equality comparison
        Subject Public Key Info:
            Public Key Algorithm: rsaEncryption
                RSA Public-Key: (2048 bit)
                Modulus:
                    00:cd:12:d3:17:b3:9c:fb:b1:60:fb:1d:c9:c9:f0:
                    dc:8f:ef:36:04:dd:a4:d8:c5:57:39:2c:e1:d6:16:
                    48:37:13:f7:82:16:ca:db:ef:d1:c7:6e:a0:f3:bb:
                    be:41:0e:24:b2:33:b1:b7:35:83:92:2b:09:31:4e:
                    24:9b:2c:fd:e1:be:09:95:e1:3f:16:0f:b6:30:c1:
                    0d:44:77:50:da:20:ff:aa:48:80:00:67:17:fe:aa:
                    3e:4d:b6:02:e4:f5:11:b5:cc:31:2f:77:0f:44:b0:
                    37:78:4e:ff:ec:62:64:0f:94:8a:a1:89:c3:76:9f:
                    03:bd:d0:e2:2a:36:ec:fa:59:51:f5:57:7d:e1:95:
                    a4:fb:a3:3c:87:9b:65:79:68:b7:91:38:fd:7a:b3:
                    89:a9:96:85:22:f7:38:9c:60:52:be:1f:f7:8b:c1:
                    68:d3:ea:96:1e:13:2a:04:4e:ba:33:ac:07:ea:d9:
                    53:67:c7:b8:15:e9:1e:ca:92:4d:91:4f:d0:d8:11:
                    34:9b:8b:f5:00:70:7b:a7:1a:43:a2:90:1a:54:5f:
                    34:e1:79:2e:72:65:4f:66:49:fa:b9:71:6f:4b:a1:
                    73:79:ee:80:42:18:6b:bb:a9:b9:ba:c4:16:a6:04:
                    74:cc:60:68:6f:0e:6e:4b:01:25:9c:c3:cb:58:73:
                    ed:f9
                Exponent: 65537 (0x10001)
        X509v3 extensions:
            X509v3 Subject Alternative Name: 
                DNS:example.test, IP Address:127.0.0.1
            X509v3 Certificate Policies: 
                Policy: 1.3.6.1.4.1.11129.2.4.1

    Signature Algorithm: sha256WithRSAEncryption
         99:6d:97:e3:4f:cd:01:4e:b6:f2:a1:a7:66:f8:78:1b:70:49:
         1e:9f:72:7c:02:fa:35:b4:88:14:e1:b8:f1:71:9b:d9:3a:d9:
         b1:ec:6a:c8:84:22:b6:9f:80:97:70:3c:08:0b:72:c8:4d:33:
         fe:18:80:94:4b:6a:9c:9e:c8:74:d1:85:74:bf:e2:f5:fb:f6:
         4c:50:31:9f:1a:0a:b9:16:dc:53:87:33:1e:36:c0:b1:1f:c0:
         ec:cd:23:f6:68:87:e8:51:bd:3a:25:35:f6:5f:62:a6:de:ad:
         fe:e6:5c:58:2e:d9:31:e4:16:58:61:5f:40:43:12:45:8d:5e:
         17:66:e2:c6:d0:2e:ff:8b:bd:2b:12:fe:fa:2d:20:7f:12:6e:
         cf:62:c0:f9:b4:83:34:a4:a4:9b:20:43:fc:f2:5f:57:e8:f0:
         ba:27:6c:46:76:24:99:a8:ad:f4:44:96:f9:b3:b4:8f:69:be:
         e9:72:4f:e4:b3:23:2a:72:32:34:8d:42:3a:85:94:9c:4d:58:
         65:29:51:82:c9:12:d1:0a:fc:05:1d:92:89:14:3f:75:70:0f:
         c6:74:1f:2c:0b:ea:a5:c7:54:30:20:3c:cd:6b:48:b4:c5:64:
         70:0d:a4:4b:69:b0:50:60:2b:38:15:0e:d9:f7:d4:8a:ee:9a:
         2d:82:84:15
-----BEGIN CERTIFICATE-----
MIIDJDCCAgygAwIBAgIQKPJFgEv0TnqGKw+ZD8BTRzANBgkqhkiG9w0BAQsFADA0
MTIwMAYDVQQDEylJbnRlcm1lZGlhdGUgZm9yIGJ5dGUgZXF1YWxpdHkgY29tcGFy
aXNvbjAeFw0xMDAxMDEwNjAwMDBaFw0zMjEyMDEwNjAwMDBaMCwxKjAoBgNVBAMT
IUxlYWYgZm9yIGJ5dGUgZXF1YWxpdHkgY29tcGFyaXNvbjCCASIwDQYJKoZIhvcN
AQEBBQADggEPADCCAQoCggEBAM0S0xeznPuxYPsdycnw3I/vNgTdpNjFVzks4dYW
SDcT94IWytvv0cduoPO7vkEOJLIzsbc1g5IrCTFOJJss/eG+CZXhPxYPtjDBDUR3
UNog/6pIgABnF/6qPk22AuT1EbXMMS93D0SwN3hO/+xiZA+UiqGJw3afA73Q4io2
7PpZUfVXfeGVpPujPIebZXlot5E4/XqziamWhSL3OJxgUr4f94vBaNPqlh4TKgRO
ujOsB+rZU2fHuBXpHsqSTZFP0NgRNJuL9QBwe6caQ6KQGlRfNOF5LnJlT2ZJ+rlx
b0uhc3nugEIYa7upubrEFqYEdMxgaG8ObksBJZzDy1hz7fkCAwEAAaM6MDgwHQYD
VR0RBBYwFIIMZXhhbXBsZS50ZXN0hwR/AAABMBcGA1UdIAQQMA4wDAYKKwYBBAHW
eQIEATANBgkqhkiG9w0BAQsFAAOCAQEAmW2X40/NAU628qGnZvh4G3BJHp9yfAL6
NbSIFOG48XGb2TrZsexqyIQitp+Al3A8CAtyyE0z/hiAlEtqnJ7IdNGFdL/i9fv2
TFAxnxoKuRbcU4czHjbAsR/A7M0j9miH6FG9OiU19l9ipt6t/uZcWC7ZMeQWWGFf
QEMSRY1eF2bixtAu/4u9KxL++i0gfxJuz2LA+bSDNKSkmyBD/PJfV+jwuidsRnYk
mait9ESW+bO0j2m+6XJP5LMjKnIyNI1COoWUnE1YZSlRgskS0Qr8BR2SiRQ/dXAP
xnQfLAvqpcdUMCA8zWtItMVkcA2kS2mwUGArOBUO2ffUiu6aLYKEFQ==
-----END CERTIFICATE-----

Certificate:
    Data:
        Version: 3 (0x2)
        Serial Number:
            20:38:99:aa:24:b2:c2:d9:0e:15:b8:08:bf:3b:51:b8
        Signature Algorithm: sha256WithRSAEncryption
        Issuer: CN = Testing CA
        Validity
            Not Before: Jan  1 06:00:00 2010 GMT
            Not After : Dec  1 06:00:00 2032 GMT
        Subject: CN = Intermediate for byte equality comparison
        Subject Public Key Info:
            Public Key Algorithm: rsaEncryption
                RSA Public-Key: (2048 bit)
                Modulus:
                    00:c6:61:af:cc:65:9f:88:85:5a:83:ad:e8:fb:79:
                    2d:c1:3d:0c:f3:88:b1:7b:ec:e9:14:9c:f0:b8:55:
                    6d:27:b1:91:01:d0:81:fb:2a:84:2d:13:a2:ac:95:
                    d8:30:8d:dd:66:78:38:43:ec:c5:80:65:13:95:9e:
                    b6:b3:0d:d6:9b:28:45:d9:7e:10:d0:bb:bf:65:3d:
                    68:6d:c8:82:89:35:02:2c:c9:6f:9e:03:0b:56:71:
                    57:25:7d:3d:65:26:73:40:80:bb:97:27:ce:e0:d3:
                    0f:42:09:d5:82:0e:1d:66:2f:35:8f:c7:89:c0:e9:
                    36:6d:84:f8:9a:df:1b:eb:8d:84:3f:74:e6:f3:25:
                    87:6a:c3:5d:5c:11:69:1f:cb:29:69:67:c0:6e:df:
                    69:45:0c:16:bb:23:14:c1:45:99:fe:90:72:5d:5e:
                    c9:0f:2d:b6:69:8a:fa:e7:2b:ba:0c:fb:f7:79:67:
                    c7:e8:b4:9f:21:72:f9:38:18:27:c2:7a:b7:f9:47:
                    1c:62:bd:8d:a4:a6:c6:57:96:6e:c1:38:5c:f4:1d:
                    73:94:49:83:58:88:f3:0d:64:97:16:19:dc:d3:80:
                    40:8c:d7:4f:25:c3:be:19:83:3a:92:62:0c:9c:f7:
                    10:da:67:e1:5a:c8:ce:f6:9b:c7:e4:e5:e7:f8:13:
                    c1:ed
                Exponent: 65537 (0x10001)
        X509v3 extensions:
            X509v3 Basic Constraints: critical
                CA:TRUE
            X509v3 Certificate Policies: 
                Policy: 1.3.6.1.4.1.11129.2.4.1

    Signature Algorithm: sha256WithRSAEncryption
         65:46:09:d5:20:b9:07:e7:b9:90:9e:ed:b0:15:a4:52:20:b2:
         6d:77:7d:37:d9:01:53:70:65:d3:3a:9f:5f:14:77:46:cd:bb:
         4d:6d:66:9f:2c:4e:84:72:1d:7d:7d:a8:c9:8c:cb:65:f5:41:
         a7:d8:f5:1d:b8:47:f1:87:a0:2b:6d:c6:c1:b3:a2:b4:dc:fc:
         21:1c:2d:22:39:85:23:e3:90:26:24:b2:9b:14:8b:ab:7c:5b:
         b7:a4:78:88:13:a2:a0:dd:c6:8e:3f:3e:3f:e4:14:2a:57:1d:
         02:5c:c0:62:a6:8a:99:b0:13:4b:28:73:db:10:93:de:af:4d:
         9a:e3:2e:3a:c0:5a:42:7a:21:8d:96:a0:4f:ab:c5:e5:93:8f:
         0b:9f:bf:58:b6:02:2c:84:d6:18:af:67:d0:c0:f8:d8:68:a6:
         d3:f0:fc:5e:68:39:92:c8:54:96:ad:00:14:17:f4:ed:0c:d2:
         a7:60:5d:c0:00:52:85:7e:3d:e3:16:34:ca:07:d3:0f:0e:5d:
         ff:71:d5:19:1d:95:3a:0a:c0:11:5c:a2:01:6f:7a:73:89:ca:
         a0:8b:a2:38:f5:29:34:05:88:36:e0:8b:fd:63:a5:db:42:9d:
         f1:ae:e3:73:74:cc:39:ec:aa:8d:37:2b:bc:76:45:b4:3e:83:
         ae:bf:d6:ce
-----BEGIN CERTIFICATE-----
MIIC/zCCAeegAwIBAgIQIDiZqiSywtkOFbgIvztRuDANBgkqhkiG9w0BAQsFADAV
MRMwEQYDVQQDEwpUZXN0aW5nIENBMB4XDTEwMDEwMTA2MDAwMFoXDTMyMTIwMTA2
MDAwMFowNDEyMDAGA1UEAxMpSW50ZXJtZWRpYXRlIGZvciBieXRlIGVxdWFsaXR5
IGNvbXBhcmlzb24wggEiMA0GCSqGSIb3DQEBAQUAA4IBDwAwggEKAoIBAQDGYa/M
ZZ+IhVqDrej7eS3BPQzziLF77OkUnPC4VW0nsZEB0IH7KoQtE6Ksldgwjd1meDhD
7MWAZROVnrazDdabKEXZfhDQu79lPWhtyIKJNQIsyW+eAwtWcVclfT1lJnNAgLuX
J87g0w9CCdWCDh1mLzWPx4nA6TZthPia3xvrjYQ/dObzJYdqw11cEWkfyylpZ8Bu
32lFDBa7IxTBRZn+kHJdXskPLbZpivrnK7oM+/d5Z8fotJ8hcvk4GCfCerf5Rxxi
vY2kpsZXlm7BOFz0HXOUSYNYiPMNZJcWGdzTgECM108lw74ZgzqSYgyc9xDaZ+Fa
yM72m8fk5ef4E8HtAgMBAAGjLDAqMA8GA1UdEwEB/wQFMAMBAf8wFwYDVR0gBBAw
DjAMBgorBgEEAdZ5AgQBMA0GCSqGSIb3DQEBCwUAA4IBAQBlRgnVILkH57mQnu2w
FaRSILJtd3032QFTcGXTOp9fFHdGzbtNbWafLE6Ech19fajJjMtl9UGn2PUduEfx
h6ArbcbBs6K03PwhHC0iOYUj45AmJLKbFIurfFu3pHiIE6Kg3caOPz4/5BQqVx0C
XMBipoqZsBNLKHPbEJPer02a4y46wFpCeiGNlqBPq8Xlk48Ln79YtgIshNYYr2fQ
wPjYaKbT8PxeaDmSyFSWrQAUF/TtDNKnYF3AAFKFfj3jFjTKB9MPDl3/cdUZHZU6
CsARXKIBb3pzicqgi6I49Sk0BYg24Iv9Y6XbQp3xruNzdMw57KqNNyu8dkW0PoOu
v9bO
-----END CERTIFICATE-----
