Certificate:
    Data:
        Version: 3 (0x2)
        Serial Number:
            0d:df:45:88:06:ab:77:aa:2d:95:0f:1f:46:dd:62:ac
        Signature Algorithm: sha256WithRSAEncryption
        Issuer: CN = Intermediate for byte equality comparison
        Validity
            Not Before: Jan  1 06:00:00 2010 GMT
            Not After : Dec  1 06:00:00 2032 GMT
        Subject: CN = Leaf for byte equality comparison
        Subject Public Key Info:
            Public Key Algorithm: rsaEncryption
                RSA Public-Key: (2048 bit)
                Modulus:
                    00:cd:12:d3:17:b3:9c:fb:b1:60:fb:1d:c9:c9:f0:
                    dc:8f:ef:36:04:dd:a4:d8:c5:57:39:2c:e1:d6:16:
                    48:37:13:f7:82:16:ca:db:ef:d1:c7:6e:a0:f3:bb:
                    be:41:0e:24:b2:33:b1:b7:35:83:92:2b:09:31:4e:
                    24:9b:2c:fd:e1:be:09:95:e1:3f:16:0f:b6:30:c1:
                    0d:44:77:50:da:20:ff:aa:48:80:00:67:17:fe:aa:
                    3e:4d:b6:02:e4:f5:11:b5:cc:31:2f:77:0f:44:b0:
                    37:78:4e:ff:ec:62:64:0f:94:8a:a1:89:c3:76:9f:
                    03:bd:d0:e2:2a:36:ec:fa:59:51:f5:57:7d:e1:95:
                    a4:fb:a3:3c:87:9b:65:79:68:b7:91:38:fd:7a:b3:
                    89:a9:96:85:22:f7:38:9c:60:52:be:1f:f7:8b:c1:
                    68:d3:ea:96:1e:13:2a:04:4e:ba:33:ac:07:ea:d9:
                    53:67:c7:b8:15:e9:1e:ca:92:4d:91:4f:d0:d8:11:
                    34:9b:8b:f5:00:70:7b:a7:1a:43:a2:90:1a:54:5f:
                    34:e1:79:2e:72:65:4f:66:49:fa:b9:71:6f:4b:a1:
                    73:79:ee:80:42:18:6b:bb:a9:b9:ba:c4:16:a6:04:
                    74:cc:60:68:6f:0e:6e:4b:01:25:9c:c3:cb:58:73:
                    ed:f9
                Exponent: 65537 (0x10001)
        X509v3 extensions:
            X509v3 Subject Alternative Name: 
                DNS:example.test, IP Address:127.0.0.1
            X509v3 Certificate Policies: 
                Policy: 1.3.6.1.4.1.11129.2.4.1

    Signature Algorithm: sha256WithRSAEncryption
         5e:0a:28:c8:75:88:60:20:9d:64:29:7c:25:ee:08:b4:c6:44:
         cd:df:15:b8:66:88:8e:20:7c:35:63:81:a6:5c:6f:4f:4a:d1:
         b9:21:3c:d5:45:a4:59:bf:39:6b:f0:06:5b:46:3b:dc:c6:8f:
         60:7e:f6:c1:ca:6a:c0:ef:3f:ac:d9:2b:32:c8:df:38:82:a1:
         a7:6f:a6:eb:b5:0c:04:fe:bc:4c:56:40:84:23:e4:56:54:8b:
         ed:63:5d:2e:e0:76:84:16:e8:aa:a8:2e:e6:45:a3:13:96:c4:
         e2:e6:26:1c:e1:2d:40:92:6e:9c:35:62:fd:77:96:6c:9f:df:
         05:30:95:6b:e4:6c:02:65:fe:44:b0:3f:bb:c0:99:f4:8f:79:
         aa:2f:64:4d:d3:c0:84:1c:4b:c6:a8:8d:ac:d3:2a:17:45:56:
         0d:31:40:3d:cb:2f:e8:74:68:18:92:10:57:08:ad:31:26:ea:
         e4:bf:7f:a1:be:95:f1:84:46:27:8c:77:7a:0e:3a:dc:05:9a:
         69:8c:72:6a:ee:ca:e2:d7:e0:73:fb:00:8a:10:62:5d:3e:45:
         e5:59:eb:be:91:b1:a7:5e:27:7e:49:39:31:e1:5a:ee:e1:ba:
         39:d4:8d:d7:b7:77:3a:31:f4:82:7d:a6:c5:dd:92:03:60:75:
         1c:7e:91:9d
-----BEGIN CERTIFICATE-----
MIIDJDCCAgygAwIBAgIQDd9FiAard6otlQ8fRt1irDANBgkqhkiG9w0BAQsFADA0
MTIwMAYDVQQDEylJbnRlcm1lZGlhdGUgZm9yIGJ5dGUgZXF1YWxpdHkgY29tcGFy
aXNvbjAeFw0xMDAxMDEwNjAwMDBaFw0zMjEyMDEwNjAwMDBaMCwxKjAoBgNVBAMT
IUxlYWYgZm9yIGJ5dGUgZXF1YWxpdHkgY29tcGFyaXNvbjCCASIwDQYJKoZIhvcN
AQEBBQADggEPADCCAQoCggEBAM0S0xeznPuxYPsdycnw3I/vNgTdpNjFVzks4dYW
SDcT94IWytvv0cduoPO7vkEOJLIzsbc1g5IrCTFOJJss/eG+CZXhPxYPtjDBDUR3
UNog/6pIgABnF/6qPk22AuT1EbXMMS93D0SwN3hO/+xiZA+UiqGJw3afA73Q4io2
7PpZUfVXfeGVpPujPIebZXlot5E4/XqziamWhSL3OJxgUr4f94vBaNPqlh4TKgRO
ujOsB+rZU2fHuBXpHsqSTZFP0NgRNJuL9QBwe6caQ6KQGlRfNOF5LnJlT2ZJ+rlx
b0uhc3nugEIYa7upubrEFqYEdMxgaG8ObksBJZzDy1hz7fkCAwEAAaM6MDgwHQYD
VR0RBBYwFIIMZXhhbXBsZS50ZXN0hwR/AAABMBcGA1UdIAQQMA4wDAYKKwYBBAHW
eQIEATANBgkqhkiG9w0BAQsFAAOCAQEAXgooyHWIYCCdZCl8Je4ItMZEzd8VuGaI
jiB8NWOBplxvT0rRuSE81UWkWb85a/AGW0Y73MaPYH72wcpqwO8/rNkrMsjfOIKh
p2+m67UMBP68TFZAhCPkVlSL7WNdLuB2hBboqqgu5kWjE5bE4uYmHOEtQJJunDVi
/XeWbJ/fBTCVa+RsAmX+RLA/u8CZ9I95qi9kTdPAhBxLxqiNrNMqF0VWDTFAPcsv
6HRoGJIQVwitMSbq5L9/ob6V8YRGJ4x3eg463AWaaYxyau7K4tfgc/sAihBiXT5F
5VnrvpGxp14nfkk5MeFa7uG6OdSN17d3OjH0gn2mxd2SA2B1HH6RnQ==
-----END CERTIFICATE-----

Certificate:
    Data:
        Version: 3 (0x2)
        Serial Number:
            72:9a:5b:30:b2:f1:2a:96:49:3d:14:29:21:81:7c:76
        Signature Algorithm: sha256WithRSAEncryption
        Issuer: CN = Testing CA
        Validity
            Not Before: Jan  1 06:00:00 2010 GMT
            Not After : Dec  1 06:00:00 2032 GMT
        Subject: CN = Intermediate for byte equality comparison
        Subject Public Key Info:
            Public Key Algorithm: rsaEncryption
                RSA Public-Key: (2048 bit)
                Modulus:
                    00:c6:61:af:cc:65:9f:88:85:5a:83:ad:e8:fb:79:
                    2d:c1:3d:0c:f3:88:b1:7b:ec:e9:14:9c:f0:b8:55:
                    6d:27:b1:91:01:d0:81:fb:2a:84:2d:13:a2:ac:95:
                    d8:30:8d:dd:66:78:38:43:ec:c5:80:65:13:95:9e:
                    b6:b3:0d:d6:9b:28:45:d9:7e:10:d0:bb:bf:65:3d:
                    68:6d:c8:82:89:35:02:2c:c9:6f:9e:03:0b:56:71:
                    57:25:7d:3d:65:26:73:40:80:bb:97:27:ce:e0:d3:
                    0f:42:09:d5:82:0e:1d:66:2f:35:8f:c7:89:c0:e9:
                    36:6d:84:f8:9a:df:1b:eb:8d:84:3f:74:e6:f3:25:
                    87:6a:c3:5d:5c:11:69:1f:cb:29:69:67:c0:6e:df:
                    69:45:0c:16:bb:23:14:c1:45:99:fe:90:72:5d:5e:
                    c9:0f:2d:b6:69:8a:fa:e7:2b:ba:0c:fb:f7:79:67:
                    c7:e8:b4:9f:21:72:f9:38:18:27:c2:7a:b7:f9:47:
                    1c:62:bd:8d:a4:a6:c6:57:96:6e:c1:38:5c:f4:1d:
                    73:94:49:83:58:88:f3:0d:64:97:16:19:dc:d3:80:
                    40:8c:d7:4f:25:c3:be:19:83:3a:92:62:0c:9c:f7:
                    10:da:67:e1:5a:c8:ce:f6:9b:c7:e4:e5:e7:f8:13:
                    c1:ed
                Exponent: 65537 (0x10001)
        X509v3 extensions:
            X509v3 Basic Constraints: critical
                CA:TRUE
            X509v3 Certificate Policies: 
                Policy: 1.3.6.1.4.1.11129.2.4.1

    Signature Algorithm: sha256WithRSAEncryption
         83:05:f4:0a:38:98:70:fb:ca:39:a5:e6:e1:52:06:d9:8e:83:
         54:34:10:86:d6:47:d5:0d:42:a8:5c:ec:f7:e4:ad:d3:30:7f:
         96:38:c7:15:b7:0c:e6:05:9f:a1:b7:e6:2a:2b:c9:b2:b7:27:
         67:85:5f:b1:2c:e8:71:88:00:92:9d:2b:6f:d2:0f:8a:f1:d7:
         95:ac:f5:01:16:11:31:36:63:f6:4a:ee:50:96:3c:af:69:f0:
         63:34:dc:6e:73:b2:e2:3c:64:d6:62:98:04:98:52:4a:30:67:
         33:21:5a:c0:27:ff:3d:7b:69:a2:d2:c2:be:26:43:37:21:f6:
         50:5f:e3:cf:a2:8e:4e:1d:dc:5b:e4:42:44:14:96:8f:c6:cd:
         a6:59:9d:56:f9:49:09:eb:3c:46:12:5a:73:b2:f9:9c:7f:2d:
         d4:05:0d:db:ec:0f:08:1f:83:af:44:01:e3:8b:4a:45:ff:f7:
         ee:f1:b1:9f:f6:14:f6:0f:82:e3:fa:c9:e9:62:28:27:18:8e:
         62:d7:ba:50:91:96:fc:2d:fa:b0:32:16:a2:eb:0f:bf:ea:a9:
         66:d7:f1:9f:7e:3d:5a:ab:89:6e:40:be:d1:0f:a8:ed:60:60:
         c0:82:4e:cb:34:f7:63:6c:b4:1e:fb:78:c9:13:f0:77:5d:25:
         d9:ac:f8:97
-----BEGIN CERTIFICATE-----
MIIC/zCCAeegAwIBAgIQcppbMLLxKpZJPRQpIYF8djANBgkqhkiG9w0BAQsFADAV
MRMwEQYDVQQDEwpUZXN0aW5nIENBMB4XDTEwMDEwMTA2MDAwMFoXDTMyMTIwMTA2
MDAwMFowNDEyMDAGA1UEAxMpSW50ZXJtZWRpYXRlIGZvciBieXRlIGVxdWFsaXR5
IGNvbXBhcmlzb24wggEiMA0GCSqGSIb3DQEBAQUAA4IBDwAwggEKAoIBAQDGYa/M
ZZ+IhVqDrej7eS3BPQzziLF77OkUnPC4VW0nsZEB0IH7KoQtE6Ksldgwjd1meDhD
7MWAZROVnrazDdabKEXZfhDQu79lPWhtyIKJNQIsyW+eAwtWcVclfT1lJnNAgLuX
J87g0w9CCdWCDh1mLzWPx4nA6TZthPia3xvrjYQ/dObzJYdqw11cEWkfyylpZ8Bu
32lFDBa7IxTBRZn+kHJdXskPLbZpivrnK7oM+/d5Z8fotJ8hcvk4GCfCerf5Rxxi
vY2kpsZXlm7BOFz0HXOUSYNYiPMNZJcWGdzTgECM108lw74ZgzqSYgyc9xDaZ+Fa
yM72m8fk5ef4E8HtAgMBAAGjLDAqMA8GA1UdEwEB/wQFMAMBAf8wFwYDVR0gBBAw
DjAMBgorBgEEAdZ5AgQBMA0GCSqGSIb3DQEBCwUAA4IBAQCDBfQKOJhw+8o5pebh
UgbZjoNUNBCG1kfVDUKoXOz35K3TMH+WOMcVtwzmBZ+ht+YqK8mytydnhV+xLOhx
iACSnStv0g+K8deVrPUBFhExNmP2Su5QljyvafBjNNxuc7LiPGTWYpgEmFJKMGcz
IVrAJ/89e2mi0sK+JkM3IfZQX+PPoo5OHdxb5EJEFJaPxs2mWZ1W+UkJ6zxGElpz
svmcfy3UBQ3b7A8IH4OvRAHji0pF//fu8bGf9hT2D4Lj+snpYignGI5i17pQkZb8
LfqwMhai6w+/6qlm1/Gffj1aq4luQL7RD6jtYGDAgk7LNPdjbLQe+3jJE/B3XSXZ
rPiX
-----END CERTIFICATE-----
