-----BEGIN PRIVATE KEY-----
MIIEvQIBADANBgkqhkiG9w0BAQEFAASCBKcwggSjAgEAAoIBAQCwOdQrS3Jk6jJb
Na2O4BadbxtUobCnikBNFFHn+Lof7YXQmy0DMiHL0iOhzt9ZcuRTLFzoYUvJk3Tm
S8h7Vdj4sIvF1k8E0MCWwY2rsFbgZilV276UQr+hzMncbzU5cfgMcOlHfpycBg8U
i4ygVUgttEWzilGA6NH9Vi7e4cb9DJyAI4AZXJI+B7d2n9HYxAuF1V417dpADz5g
CznwFQI+i9uzITlAwWaIsZJ6GvvpSfnOFFFppbRLCLr8MTRLYv8efWYh9HcG0LFe
vxuhtzYIIi40tzXTEYYnFhrx+HpuAR/pza/ewtvX2sVkXhr4n1B2m4+XfWHoVE4Y
D725dY55AgMBAAECggEAVcLu5FsFQuNOumC3JC8eEmP98wP1SrPXcyuOaMv9GIip
dMnv7/w3wk90E8zvmUJ2p5uRY23mSiU+4MzEtnEi9HRGsXMIZZmKAFQVtBZPUUmm
mCgm6VRKml1lZ6efSWOTicpxXN/bK3svX5pCR8z5IXT37tZDr+6eMyH8EW/jPUZU
wA/LVpmfRkcLg8VF6J70yj60peU3234b5Z9QLkR80g9U9Sj1QQhuDRAO97zireru
QwFixeazgXzWPTk3iol6GiDbus9T0WGeUAWYZ8XyJ1voNHRNg9dfvpLAc0UBQ5Ho
7Au6fYWQ8cEmYFIC5X46k/fZhZNgludUlQLfMsI1AQKBgQDin873bebHXpoFGXR3
Sn8obsieSWwHCDU2gp+K8JwPtip1PrVfA1KW/wBo938zqpBZDAOOFGGl4x08wLmm
WnlrPOsrcehDbiGTPheBPvOS11/v6IxoOVLLUnDaQIX9j8eOGG/WM0pan8wNG9Vz
WHQduZcBQlKoyXjjJ84avorh8QKBgQDHEaAJab8sK//lCYrCpTfbS2tYCfc9b7Nx
m/6GCJnxqVYfal9ocGd7U7RO7okDQAMyvwSpI9ejTDF8tO4BNHCgvi6rKK3Fj/CJ
bgw8rCP1BOKLvDK/7A7/v1KqvYHtODnCH0iTVK/R/Oq2Jws0m88uSkANm1w2t+SG
JVk/ymBtCQKBgC0L/RTbyKrKmCz5UVhA+6Oq2b/08j83l3Q9ZL82cp8A49GoZF79
hxYym/9Bawx3E/hPVgmQ7ZQO4AnqeTyi8U2qr0hUfQmiQ5REHGH5hGsk2pISlI5H
DrkRqxMHDltHkDAjlV9rlJUM/H+Cj9w8seASuvxqFYotehUVHXfddjfRAoGAYUXj
hbX+jH8Tk7+N5n8FREseMO7tuT+T17f6L1SUpNmyE7fO1yHV7xV/zfIRUV0+MtXU
WTICdPEOXXmrszsErgdAlrJR92/WgdEcealECL5SVSWpRs76pU2//16K1nfbAVh4
BkYjg+CqcEez2gkou93cXsnDzZkeOc6WRe2GIMECgYEApyMBng9jXOD1Qw2CpWeC
kO/GL98UXAvQAnQB1YepWDmbW2OxpXZ5TI5wQkJxE7z7EJkIm6Vq0fcHtDNwGWBq
2zLyUW+QdR53eGEkhHNzq0hFWVMCaDbO6UNa1OFZqN/WSBFB3z4F0XAZ1ZX+PaFm
NqcJRJ7sL5XqgAdRqcTTFcA=
-----END PRIVATE KEY-----
Certificate:
    Data:
        Version: 3 (0x2)
        Serial Number:
            bb:38:42:57:48:dd:2b:24:78:13:e0:59:b9:a3:d7:78
        Signature Algorithm: sha256WithRSAEncryption
        Issuer: C=US, ST=California, L=Mountain View, O=Test CA, CN=Test Root CA
        Validity
            Not Before: Jan 11 02:36:21 2022 GMT
            Not After : Jan 11 02:36:21 2024 GMT
        Subject: CN=Leaf Certificate
        Subject Public Key Info:
            Public Key Algorithm: rsaEncryption
                RSA Public-Key: (2048 bit)
                Modulus:
                    00:b0:39:d4:2b:4b:72:64:ea:32:5b:35:ad:8e:e0:
                    16:9d:6f:1b:54:a1:b0:a7:8a:40:4d:14:51:e7:f8:
                    ba:1f:ed:85:d0:9b:2d:03:32:21:cb:d2:23:a1:ce:
                    df:59:72:e4:53:2c:5c:e8:61:4b:c9:93:74:e6:4b:
                    c8:7b:55:d8:f8:b0:8b:c5:d6:4f:04:d0:c0:96:c1:
                    8d:ab:b0:56:e0:66:29:55:db:be:94:42:bf:a1:cc:
                    c9:dc:6f:35:39:71:f8:0c:70:e9:47:7e:9c:9c:06:
                    0f:14:8b:8c:a0:55:48:2d:b4:45:b3:8a:51:80:e8:
                    d1:fd:56:2e:de:e1:c6:fd:0c:9c:80:23:80:19:5c:
                    92:3e:07:b7:76:9f:d1:d8:c4:0b:85:d5:5e:35:ed:
                    da:40:0f:3e:60:0b:39:f0:15:02:3e:8b:db:b3:21:
                    39:40:c1:66:88:b1:92:7a:1a:fb:e9:49:f9:ce:14:
                    51:69:a5:b4:4b:08:ba:fc:31:34:4b:62:ff:1e:7d:
                    66:21:f4:77:06:d0:b1:5e:bf:1b:a1:b7:36:08:22:
                    2e:34:b7:35:d3:11:86:27:16:1a:f1:f8:7a:6e:01:
                    1f:e9:cd:af:de:c2:db:d7:da:c5:64:5e:1a:f8:9f:
                    50:76:9b:8f:97:7d:61:e8:54:4e:18:0f:bd:b9:75:
                    8e:79
                Exponent: 65537 (0x10001)
        X509v3 extensions:
            X509v3 Basic Constraints: critical
                CA:FALSE
            X509v3 Subject Key Identifier: 
                E4:C5:B8:15:7B:F4:26:F0:4D:EB:27:D8:97:34:01:10:F5:96:D2:BE
            X509v3 Authority Key Identifier: 
                keyid:9B:26:0B:8A:98:A9:BB:1D:B9:1F:1C:E3:1A:40:33:ED:8E:17:88:AB

            X509v3 Extended Key Usage: 
                TLS Web Server Authentication, TLS Web Client Authentication
            X509v3 Subject Alternative Name: 
                DNS:test.ExAmPlE.CoM, DNS:example.notarealtld, DNS:*.test2.ExAmPlE.CoM, DNS:*.example2.notarealtld
    Signature Algorithm: sha256WithRSAEncryption
         c1:2d:db:8c:4d:f6:94:83:a3:e8:a8:93:df:20:52:95:3b:0b:
         92:7a:f7:fd:c3:5c:ff:5e:27:3b:80:a8:cb:04:b3:40:46:3a:
         94:24:1c:40:83:2e:ba:22:02:e8:d0:8f:46:51:e1:75:14:2a:
         5b:82:70:f0:09:03:87:34:57:6f:14:60:df:f7:78:6c:d9:a2:
         e2:42:d7:4d:b2:03:c7:ce:ad:b2:b2:d9:da:80:13:b1:66:35:
         11:67:11:cc:ef:da:64:50:7b:ea:8c:88:a9:9d:c4:7d:09:63:
         25:0f:d7:1c:b6:85:70:58:70:6c:38:62:b9:63:1f:a9:10:98:
         bc:83:a1:63:98:79:c0:51:8e:bb:fe:97:1e:3e:51:af:27:9f:
         73:40:9c:2e:a9:3d:2f:58:10:ca:3c:0b:ce:64:b1:0e:69:5e:
         f8:21:3e:88:cb:00:fa:89:ef:ed:64:3b:82:4e:bd:56:56:cc:
         a2:fa:98:b1:0e:ac:c7:61:84:32:a2:c8:98:a3:a4:c4:07:60:
         b9:54:d4:04:3c:08:a4:27:53:6e:12:c4:67:cd:2f:ef:3a:59:
         30:d6:e1:60:43:f8:7b:d4:3c:f1:85:f2:2e:c1:ac:a5:86:69:
         16:70:60:92:fb:d7:5d:de:84:fe:e6:51:84:86:23:4c:d0:0f:
         13:12:5b:e9
-----BEGIN CERTIFICATE-----
MIID2TCCAsGgAwIBAgIRALs4QldI3SskeBPgWbmj13gwDQYJKoZIhvcNAQELBQAw
YzELMAkGA1UEBhMCVVMxEzARBgNVBAgMCkNhbGlmb3JuaWExFjAUBgNVBAcMDU1v
dW50YWluIFZpZXcxEDAOBgNVBAoMB1Rlc3QgQ0ExFTATBgNVBAMMDFRlc3QgUm9v
dCBDQTAeFw0yMjAxMTEwMjM2MjFaFw0yNDAxMTEwMjM2MjFaMBsxGTAXBgNVBAMM
EExlYWYgQ2VydGlmaWNhdGUwggEiMA0GCSqGSIb3DQEBAQUAA4IBDwAwggEKAoIB
AQCwOdQrS3Jk6jJbNa2O4BadbxtUobCnikBNFFHn+Lof7YXQmy0DMiHL0iOhzt9Z
cuRTLFzoYUvJk3TmS8h7Vdj4sIvF1k8E0MCWwY2rsFbgZilV276UQr+hzMncbzU5
cfgMcOlHfpycBg8Ui4ygVUgttEWzilGA6NH9Vi7e4cb9DJyAI4AZXJI+B7d2n9HY
xAuF1V417dpADz5gCznwFQI+i9uzITlAwWaIsZJ6GvvpSfnOFFFppbRLCLr8MTRL
Yv8efWYh9HcG0LFevxuhtzYIIi40tzXTEYYnFhrx+HpuAR/pza/ewtvX2sVkXhr4
n1B2m4+XfWHoVE4YD725dY55AgMBAAGjgc8wgcwwDAYDVR0TAQH/BAIwADAdBgNV
HQ4EFgQU5MW4FXv0JvBN6yfYlzQBEPWW0r4wHwYDVR0jBBgwFoAUmyYLipipux25
HxzjGkAz7Y4XiKswHQYDVR0lBBYwFAYIKwYBBQUHAwEGCCsGAQUFBwMCMF0GA1Ud
EQRWMFSCEHRlc3QuRXhBbVBsRS5Db02CE2V4YW1wbGUubm90YXJlYWx0bGSCEyou
dGVzdDIuRXhBbVBsRS5Db02CFiouZXhhbXBsZTIubm90YXJlYWx0bGQwDQYJKoZI
hvcNAQELBQADggEBAMEt24xN9pSDo+iok98gUpU7C5J69/3DXP9eJzuAqMsEs0BG
OpQkHECDLroiAujQj0ZR4XUUKluCcPAJA4c0V28UYN/3eGzZouJC102yA8fOrbKy
2dqAE7FmNRFnEczv2mRQe+qMiKmdxH0JYyUP1xy2hXBYcGw4YrljH6kQmLyDoWOY
ecBRjrv+lx4+Ua8nn3NAnC6pPS9YEMo8C85ksQ5pXvghPojLAPqJ7+1kO4JOvVZW
zKL6mLEOrMdhhDKiyJijpMQHYLlU1AQ8CKQnU24SxGfNL+86WTDW4WBD+HvUPPGF
8i7BrKWGaRZwYJL7113ehP7mUYSGI0zQDxMSW+k=
-----END CERTIFICATE-----
