Certificate:
    Data:
        Version: 3 (0x2)
        Serial Number:
            5d:87:b7:b3:20:ca:71:41:44:3a:a4:68:71:bd:c6:ac
        Signature Algorithm: sha256WithRSAEncryption
        Issuer: CN = Intermediate for PrintableString / Utf8String comparison
        Validity
            Not Before: Jan  1 06:00:00 2010 GMT
            Not After : Dec  1 06:00:00 2032 GMT
        Subject: CN = Leaf for PrintableString / Utf8String comparison
        Subject Public Key Info:
            Public Key Algorithm: rsaEncryption
                RSA Public-Key: (2048 bit)
                Modulus:
                    00:cd:12:d3:17:b3:9c:fb:b1:60:fb:1d:c9:c9:f0:
                    dc:8f:ef:36:04:dd:a4:d8:c5:57:39:2c:e1:d6:16:
                    48:37:13:f7:82:16:ca:db:ef:d1:c7:6e:a0:f3:bb:
                    be:41:0e:24:b2:33:b1:b7:35:83:92:2b:09:31:4e:
                    24:9b:2c:fd:e1:be:09:95:e1:3f:16:0f:b6:30:c1:
                    0d:44:77:50:da:20:ff:aa:48:80:00:67:17:fe:aa:
                    3e:4d:b6:02:e4:f5:11:b5:cc:31:2f:77:0f:44:b0:
                    37:78:4e:ff:ec:62:64:0f:94:8a:a1:89:c3:76:9f:
                    03:bd:d0:e2:2a:36:ec:fa:59:51:f5:57:7d:e1:95:
                    a4:fb:a3:3c:87:9b:65:79:68:b7:91:38:fd:7a:b3:
                    89:a9:96:85:22:f7:38:9c:60:52:be:1f:f7:8b:c1:
                    68:d3:ea:96:1e:13:2a:04:4e:ba:33:ac:07:ea:d9:
                    53:67:c7:b8:15:e9:1e:ca:92:4d:91:4f:d0:d8:11:
                    34:9b:8b:f5:00:70:7b:a7:1a:43:a2:90:1a:54:5f:
                    34:e1:79:2e:72:65:4f:66:49:fa:b9:71:6f:4b:a1:
                    73:79:ee:80:42:18:6b:bb:a9:b9:ba:c4:16:a6:04:
                    74:cc:60:68:6f:0e:6e:4b:01:25:9c:c3:cb:58:73:
                    ed:f9
                Exponent: 65537 (0x10001)
        X509v3 extensions:
            X509v3 Subject Alternative Name: 
                DNS:example.test, IP Address:127.0.0.1
            X509v3 Certificate Policies: 
                Policy: 1.3.6.1.4.1.11129.2.4.1

    Signature Algorithm: sha256WithRSAEncryption
         7c:35:51:8f:20:b1:2d:30:8a:0c:6b:ed:16:22:a1:ac:eb:4d:
         6f:ff:fa:1e:1a:45:a5:84:92:fe:80:8d:fa:1f:b0:ca:5e:6e:
         0a:d9:d7:a8:e4:2b:5c:31:40:34:31:dd:0c:bd:2d:74:f2:b5:
         4f:ea:f7:5f:99:52:cc:47:b7:28:a2:f1:2f:55:66:42:05:6b:
         48:f7:83:52:37:67:04:3b:32:e3:dc:18:5a:33:fe:12:0e:1d:
         b4:81:62:3e:61:06:d1:57:90:9f:17:cf:50:5e:6d:97:5d:ec:
         ad:9f:85:c0:19:72:94:64:0c:2a:28:a2:26:4a:81:2e:c4:48:
         38:37:d2:1e:39:cf:b9:c0:f7:89:2f:42:22:5b:6d:66:a7:5b:
         4a:bc:59:91:80:a8:bd:88:6e:4b:58:ec:ca:28:fa:2e:e3:54:
         dc:df:f3:c4:d0:cd:48:8c:ed:62:4a:f3:30:52:8b:c3:55:de:
         fd:f5:50:13:4e:10:ed:31:5a:c1:7d:3a:d9:c4:a8:f2:b5:19:
         1f:8c:32:48:42:0e:2c:da:a1:16:23:84:49:a9:c3:87:fe:75:
         a1:f3:61:49:70:60:66:29:10:cb:4c:48:c2:4d:1e:c0:8a:c4:
         12:dd:ee:74:1c:b7:ff:9d:0d:04:36:d0:e4:0f:98:78:7e:e7:
         e7:22:8b:32
-----BEGIN CERTIFICATE-----
MIIDQjCCAiqgAwIBAgIQXYe3syDKcUFEOqRocb3GrDANBgkqhkiG9w0BAQsFADBD
MUEwPwYDVQQDEzhJbnRlcm1lZGlhdGUgZm9yIFByaW50YWJsZVN0cmluZyAvIFV0
ZjhTdHJpbmcgY29tcGFyaXNvbjAeFw0xMDAxMDEwNjAwMDBaFw0zMjEyMDEwNjAw
MDBaMDsxOTA3BgNVBAMTMExlYWYgZm9yIFByaW50YWJsZVN0cmluZyAvIFV0ZjhT
dHJpbmcgY29tcGFyaXNvbjCCASIwDQYJKoZIhvcNAQEBBQADggEPADCCAQoCggEB
AM0S0xeznPuxYPsdycnw3I/vNgTdpNjFVzks4dYWSDcT94IWytvv0cduoPO7vkEO
JLIzsbc1g5IrCTFOJJss/eG+CZXhPxYPtjDBDUR3UNog/6pIgABnF/6qPk22AuT1
EbXMMS93D0SwN3hO/+xiZA+UiqGJw3afA73Q4io27PpZUfVXfeGVpPujPIebZXlo
t5E4/XqziamWhSL3OJxgUr4f94vBaNPqlh4TKgROujOsB+rZU2fHuBXpHsqSTZFP
0NgRNJuL9QBwe6caQ6KQGlRfNOF5LnJlT2ZJ+rlxb0uhc3nugEIYa7upubrEFqYE
dMxgaG8ObksBJZzDy1hz7fkCAwEAAaM6MDgwHQYDVR0RBBYwFIIMZXhhbXBsZS50
ZXN0hwR/AAABMBcGA1UdIAQQMA4wDAYKKwYBBAHWeQIEATANBgkqhkiG9w0BAQsF
AAOCAQEAfDVRjyCxLTCKDGvtFiKhrOtNb//6HhpFpYSS/oCN+h+wyl5uCtnXqOQr
XDFANDHdDL0tdPK1T+r3X5lSzEe3KKLxL1VmQgVrSPeDUjdnBDsy49wYWjP+Eg4d
tIFiPmEG0VeQnxfPUF5tl13srZ+FwBlylGQMKiiiJkqBLsRIODfSHjnPucD3iS9C
IlttZqdbSrxZkYCovYhuS1jsyij6LuNU3N/zxNDNSIztYkrzMFKLw1Xe/fVQE04Q
7TFawX062cSo8rUZH4wySEIOLNqhFiOESanDh/51ofNhSXBgZikQy0xIwk0ewIrE
Et3udBy3/50NBDbQ5A+YeH7n5yKLMg==
-----END CERTIFICATE-----

Certificate:
    Data:
        Version: 3 (0x2)
        Serial Number:
            47:dd:b9:fa:88:2a:f7:c2:8a:00:52:f2:07:7b:73:a4
        Signature Algorithm: sha256WithRSAEncryption
        Issuer: CN = Testing CA
        Validity
            Not Before: Jan  1 06:00:00 2010 GMT
            Not After : Dec  1 06:00:00 2032 GMT
        Subject: CN = Intermediate for PrintableString / Utf8String comparison
        Subject Public Key Info:
            Public Key Algorithm: rsaEncryption
                RSA Public-Key: (2048 bit)
                Modulus:
                    00:c6:61:af:cc:65:9f:88:85:5a:83:ad:e8:fb:79:
                    2d:c1:3d:0c:f3:88:b1:7b:ec:e9:14:9c:f0:b8:55:
                    6d:27:b1:91:01:d0:81:fb:2a:84:2d:13:a2:ac:95:
                    d8:30:8d:dd:66:78:38:43:ec:c5:80:65:13:95:9e:
                    b6:b3:0d:d6:9b:28:45:d9:7e:10:d0:bb:bf:65:3d:
                    68:6d:c8:82:89:35:02:2c:c9:6f:9e:03:0b:56:71:
                    57:25:7d:3d:65:26:73:40:80:bb:97:27:ce:e0:d3:
                    0f:42:09:d5:82:0e:1d:66:2f:35:8f:c7:89:c0:e9:
                    36:6d:84:f8:9a:df:1b:eb:8d:84:3f:74:e6:f3:25:
                    87:6a:c3:5d:5c:11:69:1f:cb:29:69:67:c0:6e:df:
                    69:45:0c:16:bb:23:14:c1:45:99:fe:90:72:5d:5e:
                    c9:0f:2d:b6:69:8a:fa:e7:2b:ba:0c:fb:f7:79:67:
                    c7:e8:b4:9f:21:72:f9:38:18:27:c2:7a:b7:f9:47:
                    1c:62:bd:8d:a4:a6:c6:57:96:6e:c1:38:5c:f4:1d:
                    73:94:49:83:58:88:f3:0d:64:97:16:19:dc:d3:80:
                    40:8c:d7:4f:25:c3:be:19:83:3a:92:62:0c:9c:f7:
                    10:da:67:e1:5a:c8:ce:f6:9b:c7:e4:e5:e7:f8:13:
                    c1:ed
                Exponent: 65537 (0x10001)
        X509v3 extensions:
            X509v3 Basic Constraints: critical
                CA:TRUE
            X509v3 Certificate Policies: 
                Policy: 1.3.6.1.4.1.11129.2.4.1

    Signature Algorithm: sha256WithRSAEncryption
         7d:86:2f:d6:61:32:cf:65:91:bb:45:d6:db:53:bc:2c:56:26:
         3f:7e:4b:fe:a9:b1:36:ae:68:18:7f:c9:8e:1e:c6:f6:c6:b8:
         eb:17:6e:fc:86:74:39:a5:fb:f4:a8:66:ed:25:66:ed:ec:42:
         8b:5a:80:8e:bf:cf:c4:ba:a8:f1:af:45:52:05:fc:2d:e7:4d:
         0e:4c:5f:18:ff:78:09:69:a4:24:a0:66:48:1d:c7:d3:fa:29:
         97:00:58:ae:9c:d8:02:4d:57:37:e1:32:e0:27:0a:04:8f:69:
         aa:5d:96:30:4d:70:0e:e4:f0:e1:58:38:cc:ab:34:ab:c3:02:
         80:75:69:d3:2c:78:5d:9c:79:6e:4c:6a:32:b1:33:59:99:54:
         9e:7f:1f:d2:02:b6:8f:79:37:ea:d3:9e:51:d7:5e:cc:e6:56:
         e5:d3:93:20:10:80:a9:41:79:00:d2:59:49:4b:95:b9:fa:ef:
         85:9f:9d:49:81:07:49:31:e5:db:2b:5e:0d:1b:50:64:86:8e:
         50:4b:0a:d0:cd:82:b0:82:bb:ee:0c:ff:18:e1:a7:24:b5:cf:
         9e:0b:c4:2f:28:81:af:53:fb:66:ad:57:0f:7f:0f:07:40:5b:
         75:46:fd:08:8e:0d:8d:e9:c4:6a:ca:ec:19:d2:98:fd:a7:10:
         b1:24:81:43
-----BEGIN CERTIFICATE-----
MIIDDjCCAfagAwIBAgIQR925+ogq98KKAFLyB3tzpDANBgkqhkiG9w0BAQsFADAV
MRMwEQYDVQQDEwpUZXN0aW5nIENBMB4XDTEwMDEwMTA2MDAwMFoXDTMyMTIwMTA2
MDAwMFowQzFBMD8GA1UEAww4SW50ZXJtZWRpYXRlIGZvciBQcmludGFibGVTdHJp
bmcgLyBVdGY4U3RyaW5nIGNvbXBhcmlzb24wggEiMA0GCSqGSIb3DQEBAQUAA4IB
DwAwggEKAoIBAQDGYa/MZZ+IhVqDrej7eS3BPQzziLF77OkUnPC4VW0nsZEB0IH7
KoQtE6Ksldgwjd1meDhD7MWAZROVnrazDdabKEXZfhDQu79lPWhtyIKJNQIsyW+e
AwtWcVclfT1lJnNAgLuXJ87g0w9CCdWCDh1mLzWPx4nA6TZthPia3xvrjYQ/dObz
JYdqw11cEWkfyylpZ8Bu32lFDBa7IxTBRZn+kHJdXskPLbZpivrnK7oM+/d5Z8fo
tJ8hcvk4GCfCerf5RxxivY2kpsZXlm7BOFz0HXOUSYNYiPMNZJcWGdzTgECM108l
w74ZgzqSYgyc9xDaZ+FayM72m8fk5ef4E8HtAgMBAAGjLDAqMA8GA1UdEwEB/wQF
MAMBAf8wFwYDVR0gBBAwDjAMBgorBgEEAdZ5AgQBMA0GCSqGSIb3DQEBCwUAA4IB
AQB9hi/WYTLPZZG7RdbbU7wsViY/fkv+qbE2rmgYf8mOHsb2xrjrF278hnQ5pfv0
qGbtJWbt7EKLWoCOv8/Euqjxr0VSBfwt500OTF8Y/3gJaaQkoGZIHcfT+imXAFiu
nNgCTVc34TLgJwoEj2mqXZYwTXAO5PDhWDjMqzSrwwKAdWnTLHhdnHluTGoysTNZ
mVSefx/SAraPeTfq055R117M5lbl05MgEICpQXkA0llJS5W5+u+Fn51JgQdJMeXb
K14NG1Bkho5QSwrQzYKwgrvuDP8Y4acktc+eC8QvKIGvU/tmrVcPfw8HQFt1Rv0I
jg2N6cRqyuwZ0pj9pxCxJIFD
-----END CERTIFICATE-----
