-----BEGIN PRIVATE KEY-----
MIIEvQIBADANBgkqhkiG9w0BAQEFAASCBKcwggSjAgEAAoIBAQCmWNw2JdGmpJMI
zy07hge1zkTHW3/XEaZRmOyCTGwxRaMEVm/Bd9ZsONs82C3SJapHT/Sk844JmDfT
D3H2rClHewiOaKv8fhACZbaGTLAnBGoVI7M6GbgV8zsLHa3Yn0mxcvKvCN/IAqrL
8yotwP0osJfaSqkidMI6C2RlKsn0ZfdGfzypYZZfDCpmw/LH/mmHL3AMG2Y3ksU/
hUDY5CZFGD/OUyegl34Rh9xK7Cbr/5UOs+ouZkUKqszFgVkuChsOG1lxytOQ72/K
t4yoyoJVuPtK5bopeM7rzY5PnK+FpO8LZF4+fqDg5bCG8xkI+j/6Hkqb/LUWF4gN
OA7Dpl/VAgMBAAECggEAeqgjGDoisMHBOUmqjK1zmfcSd/1b8nWtMZWVLy6yyFIU
teoWVY3Lqdjyr5anksD7IcIvHkIIhcKbxyEoYz7m4TIzSO6dgnxhyaK+R6Dccqiq
oBPG4Bx+xJCpBLVJruUlLZcYoz/j4lM1JVWT0FDxWsN79RYASMvXO32S9ZXrfC1S
YZjVeUrjyrc7Y2Z6z/n89P9mfWUwqOuuH6fHpNHvBugteFB3pS2oclooOh3hXWIu
ZSHWOyX0wj0Rk1iuOBADqxhec/zR4nQ9IZi3nRbfNyoUYzf2qgqPcS9yROS9PZQw
rESmMXpVJ1aF9sFo0LA5KW2sT7qbVWeLwfF8nZvPgQKBgQDdoAdvu5BPTk4E2jg9
y/VfESKiVd1BStsw5DWBZtgDGDpLHtkoezcao0hJxGKAsnWJ1EqhqViNXEJcECi6
Xdr5EF525y9KdKCld7q9ZeQbvvg0QLHXYY0bQhPhbymosFg+qdJCHfn8Wwim8Ibc
JnjpzDdzSKEWELanUrSTEla1TQKBgQDAJe6I4CtEXaBXi06KQHnKHI+9uu1w0TBp
YuM2/3v7CVBcN/lkmK/tnM+RZqgEi/Nhy08uIfIQjWetq7FQjbLEsesy3zlqIlth
Kw4jCcdrPW3XTp/Ru7rUQUjBTWpDh/f1T41OzY4qE5X6v2MQkJP5a614Qi2kqFZ3
neZtpfNwqQKBgASoFR/q3/ham9cMQrxBqdEqigDBLxntGbfoQ5uJbqZ5/tePOV7Z
X+oGXkF2h99OYJvZwwushDjMJHTMvh5UVIKBLorvBpZY5vszDdBm8KkIlSx744C0
AwP8mnBVJpntwpzmco2DFbqQqxje2uaLRGUdLlkUwJW3Gi9f1H12mC3NAoGBAJOr
00HwfnAhQHxnfKn12WPCRZo8EgV1T65+qD75ZJBO3SqyfgGY8wQ7Uq7dZV1xLVBI
TwcWYZHlCvxHCpPtAqn2TtsfAWIXG4F29HtrJY6+fC9PprYqf/BmaALfez6BPciT
JfedNJgTy10VP45YftDet0fIHIoCMcnmWVSFiK1ZAoGABYToKrxvwdgzqRt22k0D
OcMTSQqpcO/WZfcpFK9leOLuKBNniow1PSYkymdVgCkSjrY3Oksxh/0V20H62oqU
bJMTvYZFpTcCQgcwSiyQD2o2PgKNxrxIfII4/9H8hjV99uXaafEWFky8ea6GEJaN
4PkKpNDj9dus6J2Hzat2c3E=
-----END PRIVATE KEY-----
Certificate:
    Data:
        Version: 3 (0x2)
        Serial Number:
            3e:2c:9d:be:b0:42:c8:cf:fc:99:42:d5:4d:41:6a:c4
        Signature Algorithm: sha256WithRSAEncryption
        Issuer: C=US, ST=California, L=Mountain View, O=Test CA, CN=Test Root CA
        Validity
            Not Before: Mar 17 02:32:34 2020 GMT
            Not After : Mar 17 02:32:34 2022 GMT
        Subject: CN=Leaf Certificate
        Subject Public Key Info:
            Public Key Algorithm: rsaEncryption
                RSA Public-Key: (2048 bit)
                Modulus:
                    00:a6:58:dc:36:25:d1:a6:a4:93:08:cf:2d:3b:86:
                    07:b5:ce:44:c7:5b:7f:d7:11:a6:51:98:ec:82:4c:
                    6c:31:45:a3:04:56:6f:c1:77:d6:6c:38:db:3c:d8:
                    2d:d2:25:aa:47:4f:f4:a4:f3:8e:09:98:37:d3:0f:
                    71:f6:ac:29:47:7b:08:8e:68:ab:fc:7e:10:02:65:
                    b6:86:4c:b0:27:04:6a:15:23:b3:3a:19:b8:15:f3:
                    3b:0b:1d:ad:d8:9f:49:b1:72:f2:af:08:df:c8:02:
                    aa:cb:f3:2a:2d:c0:fd:28:b0:97:da:4a:a9:22:74:
                    c2:3a:0b:64:65:2a:c9:f4:65:f7:46:7f:3c:a9:61:
                    96:5f:0c:2a:66:c3:f2:c7:fe:69:87:2f:70:0c:1b:
                    66:37:92:c5:3f:85:40:d8:e4:26:45:18:3f:ce:53:
                    27:a0:97:7e:11:87:dc:4a:ec:26:eb:ff:95:0e:b3:
                    ea:2e:66:45:0a:aa:cc:c5:81:59:2e:0a:1b:0e:1b:
                    59:71:ca:d3:90:ef:6f:ca:b7:8c:a8:ca:82:55:b8:
                    fb:4a:e5:ba:29:78:ce:eb:cd:8e:4f:9c:af:85:a4:
                    ef:0b:64:5e:3e:7e:a0:e0:e5:b0:86:f3:19:08:fa:
                    3f:fa:1e:4a:9b:fc:b5:16:17:88:0d:38:0e:c3:a6:
                    5f:d5
                Exponent: 65537 (0x10001)
        X509v3 extensions:
            X509v3 Basic Constraints: critical
                CA:FALSE
            X509v3 Subject Key Identifier: 
                81:CD:A7:DD:52:43:7F:DF:7A:4B:BA:F5:B0:B6:10:A0:44:0C:EC:6C
            X509v3 Authority Key Identifier: 
                keyid:9B:26:0B:8A:98:A9:BB:1D:B9:1F:1C:E3:1A:40:33:ED:8E:17:88:AB

            X509v3 Extended Key Usage: 
                TLS Web Server Authentication, TLS Web Client Authentication
            X509v3 Subject Alternative Name: 
                DNS:test.ExAmPlE.CoM, DNS:example.notarealtld, DNS:*.test2.ExAmPlE.CoM, DNS:*.example2.notarealtld
    Signature Algorithm: sha256WithRSAEncryption
         25:98:e6:42:e1:a2:e1:f6:73:bc:b8:df:62:55:71:46:e1:5d:
         51:d0:87:3f:97:39:55:04:45:6a:d9:ba:54:f6:ab:1d:e4:1f:
         3f:70:bb:58:38:7c:5c:8b:3a:d2:9e:f0:21:a1:e3:a6:1b:8d:
         24:37:d3:d3:9e:e1:0f:70:2a:36:06:96:1b:95:13:25:64:46:
         fb:e1:bf:b3:3d:0b:9f:55:8f:01:e1:7c:ba:2b:72:b3:55:48:
         fb:50:0b:83:cd:21:2c:a0:9b:f1:de:66:68:e7:42:62:4a:ea:
         d3:d0:d5:ff:b1:46:01:50:e1:94:69:ac:db:c4:7b:9d:6c:96:
         18:02:d3:35:14:2b:7e:8d:7d:7d:61:27:12:f0:0a:23:5a:6a:
         86:d7:9a:10:a6:8b:ca:92:24:d9:9b:d0:da:7b:e4:0e:b7:fa:
         84:db:0b:4b:a8:f4:45:5b:f4:84:0b:87:f6:33:3e:4b:1b:ef:
         1b:a7:39:69:b3:f2:c8:54:50:21:7a:5a:d4:82:a3:23:4b:b8:
         74:81:35:60:54:c2:37:f1:ea:79:17:9d:a7:6b:4b:21:73:16:
         5c:08:43:e7:25:94:f9:9a:cd:c5:7f:fa:5f:f0:93:53:59:2b:
         ed:83:ef:69:42:51:9a:89:ea:bf:4c:16:f5:f7:b1:b5:d8:1c:
         70:35:9a:3d
-----BEGIN CERTIFICATE-----
MIID2DCCAsCgAwIBAgIQPiydvrBCyM/8mULVTUFqxDANBgkqhkiG9w0BAQsFADBj
MQswCQYDVQQGEwJVUzETMBEGA1UECAwKQ2FsaWZvcm5pYTEWMBQGA1UEBwwNTW91
bnRhaW4gVmlldzEQMA4GA1UECgwHVGVzdCBDQTEVMBMGA1UEAwwMVGVzdCBSb290
IENBMB4XDTIwMDMxNzAyMzIzNFoXDTIyMDMxNzAyMzIzNFowGzEZMBcGA1UEAwwQ
TGVhZiBDZXJ0aWZpY2F0ZTCCASIwDQYJKoZIhvcNAQEBBQADggEPADCCAQoCggEB
AKZY3DYl0aakkwjPLTuGB7XORMdbf9cRplGY7IJMbDFFowRWb8F31mw42zzYLdIl
qkdP9KTzjgmYN9MPcfasKUd7CI5oq/x+EAJltoZMsCcEahUjszoZuBXzOwsdrdif
SbFy8q8I38gCqsvzKi3A/Siwl9pKqSJ0wjoLZGUqyfRl90Z/PKlhll8MKmbD8sf+
aYcvcAwbZjeSxT+FQNjkJkUYP85TJ6CXfhGH3ErsJuv/lQ6z6i5mRQqqzMWBWS4K
Gw4bWXHK05Dvb8q3jKjKglW4+0rluil4zuvNjk+cr4Wk7wtkXj5+oODlsIbzGQj6
P/oeSpv8tRYXiA04DsOmX9UCAwEAAaOBzzCBzDAMBgNVHRMBAf8EAjAAMB0GA1Ud
DgQWBBSBzafdUkN/33pLuvWwthCgRAzsbDAfBgNVHSMEGDAWgBSbJguKmKm7Hbkf
HOMaQDPtjheIqzAdBgNVHSUEFjAUBggrBgEFBQcDAQYIKwYBBQUHAwIwXQYDVR0R
BFYwVIIQdGVzdC5FeEFtUGxFLkNvTYITZXhhbXBsZS5ub3RhcmVhbHRsZIITKi50
ZXN0Mi5FeEFtUGxFLkNvTYIWKi5leGFtcGxlMi5ub3RhcmVhbHRsZDANBgkqhkiG
9w0BAQsFAAOCAQEAJZjmQuGi4fZzvLjfYlVxRuFdUdCHP5c5VQRFatm6VParHeQf
P3C7WDh8XIs60p7wIaHjphuNJDfT057hD3AqNgaWG5UTJWRG++G/sz0Ln1WPAeF8
uitys1VI+1ALg80hLKCb8d5maOdCYkrq09DV/7FGAVDhlGms28R7nWyWGALTNRQr
fo19fWEnEvAKI1pqhteaEKaLypIk2ZvQ2nvkDrf6hNsLS6j0RVv0hAuH9jM+Sxvv
G6c5abPyyFRQIXpa1IKjI0u4dIE1YFTCN/HqeRedp2tLIXMWXAhD5yWU+ZrNxX/6
X/CTU1kr7YPvaUJRmonqv0wW9fextdgccDWaPQ==
-----END CERTIFICATE-----
