-----BEGIN PRIVATE KEY-----
MIIEvQIBADANBgkqhkiG9w0BAQEFAASCBKcwggSjAgEAAoIBAQCwOdQrS3Jk6jJb
Na2O4BadbxtUobCnikBNFFHn+Lof7YXQmy0DMiHL0iOhzt9ZcuRTLFzoYUvJk3Tm
S8h7Vdj4sIvF1k8E0MCWwY2rsFbgZilV276UQr+hzMncbzU5cfgMcOlHfpycBg8U
i4ygVUgttEWzilGA6NH9Vi7e4cb9DJyAI4AZXJI+B7d2n9HYxAuF1V417dpADz5g
CznwFQI+i9uzITlAwWaIsZJ6GvvpSfnOFFFppbRLCLr8MTRLYv8efWYh9HcG0LFe
vxuhtzYIIi40tzXTEYYnFhrx+HpuAR/pza/ewtvX2sVkXhr4n1B2m4+XfWHoVE4Y
D725dY55AgMBAAECggEAVcLu5FsFQuNOumC3JC8eEmP98wP1SrPXcyuOaMv9GIip
dMnv7/w3wk90E8zvmUJ2p5uRY23mSiU+4MzEtnEi9HRGsXMIZZmKAFQVtBZPUUmm
mCgm6VRKml1lZ6efSWOTicpxXN/bK3svX5pCR8z5IXT37tZDr+6eMyH8EW/jPUZU
wA/LVpmfRkcLg8VF6J70yj60peU3234b5Z9QLkR80g9U9Sj1QQhuDRAO97zireru
QwFixeazgXzWPTk3iol6GiDbus9T0WGeUAWYZ8XyJ1voNHRNg9dfvpLAc0UBQ5Ho
7Au6fYWQ8cEmYFIC5X46k/fZhZNgludUlQLfMsI1AQKBgQDin873bebHXpoFGXR3
Sn8obsieSWwHCDU2gp+K8JwPtip1PrVfA1KW/wBo938zqpBZDAOOFGGl4x08wLmm
WnlrPOsrcehDbiGTPheBPvOS11/v6IxoOVLLUnDaQIX9j8eOGG/WM0pan8wNG9Vz
WHQduZcBQlKoyXjjJ84avorh8QKBgQDHEaAJab8sK//lCYrCpTfbS2tYCfc9b7Nx
m/6GCJnxqVYfal9ocGd7U7RO7okDQAMyvwSpI9ejTDF8tO4BNHCgvi6rKK3Fj/CJ
bgw8rCP1BOKLvDK/7A7/v1KqvYHtODnCH0iTVK/R/Oq2Jws0m88uSkANm1w2t+SG
JVk/ymBtCQKBgC0L/RTbyKrKmCz5UVhA+6Oq2b/08j83l3Q9ZL82cp8A49GoZF79
hxYym/9Bawx3E/hPVgmQ7ZQO4AnqeTyi8U2qr0hUfQmiQ5REHGH5hGsk2pISlI5H
DrkRqxMHDltHkDAjlV9rlJUM/H+Cj9w8seASuvxqFYotehUVHXfddjfRAoGAYUXj
hbX+jH8Tk7+N5n8FREseMO7tuT+T17f6L1SUpNmyE7fO1yHV7xV/zfIRUV0+MtXU
WTICdPEOXXmrszsErgdAlrJR92/WgdEcealECL5SVSWpRs76pU2//16K1nfbAVh4
BkYjg+CqcEez2gkou93cXsnDzZkeOc6WRe2GIMECgYEApyMBng9jXOD1Qw2CpWeC
kO/GL98UXAvQAnQB1YepWDmbW2OxpXZ5TI5wQkJxE7z7EJkIm6Vq0fcHtDNwGWBq
2zLyUW+QdR53eGEkhHNzq0hFWVMCaDbO6UNa1OFZqN/WSBFB3z4F0XAZ1ZX+PaFm
NqcJRJ7sL5XqgAdRqcTTFcA=
-----END PRIVATE KEY-----
Certificate:
    Data:
        Version: 3 (0x2)
        Serial Number:
            b0:6b:93:92:e3:5c:8d:7e:ed:9d:c8:96:59:c5:c2:68
        Signature Algorithm: sha256WithRSAEncryption
        Issuer: C=US, ST=California, L=Mountain View, O=Test CA, CN=Test Root CA
        Validity
            Not Before: Oct  3 17:20:08 2022 GMT
            Not After : Oct  2 17:20:08 2024 GMT
        Subject: CN=Leaf certificate
        Subject Public Key Info:
            Public Key Algorithm: rsaEncryption
                Public-Key: (2048 bit)
                Modulus:
                    00:b0:39:d4:2b:4b:72:64:ea:32:5b:35:ad:8e:e0:
                    16:9d:6f:1b:54:a1:b0:a7:8a:40:4d:14:51:e7:f8:
                    ba:1f:ed:85:d0:9b:2d:03:32:21:cb:d2:23:a1:ce:
                    df:59:72:e4:53:2c:5c:e8:61:4b:c9:93:74:e6:4b:
                    c8:7b:55:d8:f8:b0:8b:c5:d6:4f:04:d0:c0:96:c1:
                    8d:ab:b0:56:e0:66:29:55:db:be:94:42:bf:a1:cc:
                    c9:dc:6f:35:39:71:f8:0c:70:e9:47:7e:9c:9c:06:
                    0f:14:8b:8c:a0:55:48:2d:b4:45:b3:8a:51:80:e8:
                    d1:fd:56:2e:de:e1:c6:fd:0c:9c:80:23:80:19:5c:
                    92:3e:07:b7:76:9f:d1:d8:c4:0b:85:d5:5e:35:ed:
                    da:40:0f:3e:60:0b:39:f0:15:02:3e:8b:db:b3:21:
                    39:40:c1:66:88:b1:92:7a:1a:fb:e9:49:f9:ce:14:
                    51:69:a5:b4:4b:08:ba:fc:31:34:4b:62:ff:1e:7d:
                    66:21:f4:77:06:d0:b1:5e:bf:1b:a1:b7:36:08:22:
                    2e:34:b7:35:d3:11:86:27:16:1a:f1:f8:7a:6e:01:
                    1f:e9:cd:af:de:c2:db:d7:da:c5:64:5e:1a:f8:9f:
                    50:76:9b:8f:97:7d:61:e8:54:4e:18:0f:bd:b9:75:
                    8e:79
                Exponent: 65537 (0x10001)
        X509v3 extensions:
            X509v3 Basic Constraints: critical
                CA:FALSE
            X509v3 Subject Key Identifier: 
                E4:C5:B8:15:7B:F4:26:F0:4D:EB:27:D8:97:34:01:10:F5:96:D2:BE
            X509v3 Authority Key Identifier: 
                9B:26:0B:8A:98:A9:BB:1D:B9:1F:1C:E3:1A:40:33:ED:8E:17:88:AB
            X509v3 Extended Key Usage: 
                TLS Web Server Authentication, TLS Web Client Authentication
            X509v3 Subject Alternative Name: 
                DNS:test.ExAmPlE.CoM, DNS:test.ExAmPlE.OrG
    Signature Algorithm: sha256WithRSAEncryption
    Signature Value:
        02:d0:0c:8e:29:8e:ee:46:9d:39:43:7d:d0:6b:b7:ea:a3:8e:
        30:46:58:3d:39:5c:e9:68:a2:dd:49:a7:15:e2:12:30:0c:48:
        62:2c:8c:a1:eb:32:cc:07:13:65:97:9e:f8:99:8c:f0:96:79:
        d8:55:f7:8b:22:b4:43:09:32:cc:2f:aa:3c:d6:b1:7a:0c:8b:
        ec:fd:37:24:c6:7a:02:a5:6f:5e:32:56:e4:06:a8:4d:fe:0d:
        dd:4a:cc:b5:2f:ea:b3:86:16:e5:7c:04:96:cc:8b:1e:fb:b0:
        27:3c:c8:63:75:8e:bb:28:06:2c:74:80:65:52:56:a9:46:ae:
        7f:48:4d:e3:40:43:2e:d5:7e:bc:47:44:43:b0:c9:73:f7:03:
        9c:94:56:3c:90:52:f5:fa:c2:26:75:db:57:14:85:7e:1c:a6:
        4e:bd:c5:9c:33:2d:58:06:bc:1c:10:e1:31:ba:3e:c6:73:99:
        01:cc:7e:37:6f:50:fc:be:67:3f:e6:55:2b:bb:4f:fa:f9:74:
        b3:7c:54:3c:ac:1b:99:08:b3:0a:53:c0:c0:2c:9b:64:01:8e:
        b5:14:0e:2b:b0:36:8b:0a:fc:f6:98:fb:c3:b0:4d:98:51:e5:
        8f:e2:18:32:2c:3d:1a:00:b0:08:23:37:19:6b:9b:5e:fa:35:
        4c:0a:01:03
-----BEGIN CERTIFICATE-----
MIIDqTCCApGgAwIBAgIRALBrk5LjXI1+7Z3IllnFwmgwDQYJKoZIhvcNAQELBQAw
YzELMAkGA1UEBhMCVVMxEzARBgNVBAgMCkNhbGlmb3JuaWExFjAUBgNVBAcMDU1v
dW50YWluIFZpZXcxEDAOBgNVBAoMB1Rlc3QgQ0ExFTATBgNVBAMMDFRlc3QgUm9v
dCBDQTAeFw0yMjEwMDMxNzIwMDhaFw0yNDEwMDIxNzIwMDhaMBsxGTAXBgNVBAMM
EExlYWYgY2VydGlmaWNhdGUwggEiMA0GCSqGSIb3DQEBAQUAA4IBDwAwggEKAoIB
AQCwOdQrS3Jk6jJbNa2O4BadbxtUobCnikBNFFHn+Lof7YXQmy0DMiHL0iOhzt9Z
cuRTLFzoYUvJk3TmS8h7Vdj4sIvF1k8E0MCWwY2rsFbgZilV276UQr+hzMncbzU5
cfgMcOlHfpycBg8Ui4ygVUgttEWzilGA6NH9Vi7e4cb9DJyAI4AZXJI+B7d2n9HY
xAuF1V417dpADz5gCznwFQI+i9uzITlAwWaIsZJ6GvvpSfnOFFFppbRLCLr8MTRL
Yv8efWYh9HcG0LFevxuhtzYIIi40tzXTEYYnFhrx+HpuAR/pza/ewtvX2sVkXhr4
n1B2m4+XfWHoVE4YD725dY55AgMBAAGjgZ8wgZwwDAYDVR0TAQH/BAIwADAdBgNV
HQ4EFgQU5MW4FXv0JvBN6yfYlzQBEPWW0r4wHwYDVR0jBBgwFoAUmyYLipipux25
HxzjGkAz7Y4XiKswHQYDVR0lBBYwFAYIKwYBBQUHAwEGCCsGAQUFBwMCMC0GA1Ud
EQQmMCSCEHRlc3QuRXhBbVBsRS5Db02CEHRlc3QuRXhBbVBsRS5PckcwDQYJKoZI
hvcNAQELBQADggEBAALQDI4pju5GnTlDfdBrt+qjjjBGWD05XOloot1JpxXiEjAM
SGIsjKHrMswHE2WXnviZjPCWedhV94sitEMJMswvqjzWsXoMi+z9NyTGegKlb14y
VuQGqE3+Dd1KzLUv6rOGFuV8BJbMix77sCc8yGN1jrsoBix0gGVSVqlGrn9ITeNA
Qy7VfrxHREOwyXP3A5yUVjyQUvX6wiZ121cUhX4cpk69xZwzLVgGvBwQ4TG6PsZz
mQHMfjdvUPy+Zz/mVSu7T/r5dLN8VDysG5kIswpTwMAsm2QBjrUUDiuwNosK/PaY
+8OwTZhR5Y/iGDIsPRoAsAgjNxlrm176NUwKAQM=
-----END CERTIFICATE-----
