Certificate:
    Data:
        Version: 3 (0x2)
        Serial Number:
            14:ea:30:c4:68:27:1a:72:5f:81:4b:9b:ef:44:e1:22
        Signature Algorithm: sha256WithRSAEncryption
        Issuer: CN = Intermediate for PrintableString / Utf8String comparison
        Validity
            Not Before: Jan  1 06:00:00 2010 GMT
            Not After : Dec  1 06:00:00 2032 GMT
        Subject: CN = Leaf for PrintableString / Utf8String comparison
        Subject Public Key Info:
            Public Key Algorithm: rsaEncryption
                RSA Public-Key: (2048 bit)
                Modulus:
                    00:cd:12:d3:17:b3:9c:fb:b1:60:fb:1d:c9:c9:f0:
                    dc:8f:ef:36:04:dd:a4:d8:c5:57:39:2c:e1:d6:16:
                    48:37:13:f7:82:16:ca:db:ef:d1:c7:6e:a0:f3:bb:
                    be:41:0e:24:b2:33:b1:b7:35:83:92:2b:09:31:4e:
                    24:9b:2c:fd:e1:be:09:95:e1:3f:16:0f:b6:30:c1:
                    0d:44:77:50:da:20:ff:aa:48:80:00:67:17:fe:aa:
                    3e:4d:b6:02:e4:f5:11:b5:cc:31:2f:77:0f:44:b0:
                    37:78:4e:ff:ec:62:64:0f:94:8a:a1:89:c3:76:9f:
                    03:bd:d0:e2:2a:36:ec:fa:59:51:f5:57:7d:e1:95:
                    a4:fb:a3:3c:87:9b:65:79:68:b7:91:38:fd:7a:b3:
                    89:a9:96:85:22:f7:38:9c:60:52:be:1f:f7:8b:c1:
                    68:d3:ea:96:1e:13:2a:04:4e:ba:33:ac:07:ea:d9:
                    53:67:c7:b8:15:e9:1e:ca:92:4d:91:4f:d0:d8:11:
                    34:9b:8b:f5:00:70:7b:a7:1a:43:a2:90:1a:54:5f:
                    34:e1:79:2e:72:65:4f:66:49:fa:b9:71:6f:4b:a1:
                    73:79:ee:80:42:18:6b:bb:a9:b9:ba:c4:16:a6:04:
                    74:cc:60:68:6f:0e:6e:4b:01:25:9c:c3:cb:58:73:
                    ed:f9
                Exponent: 65537 (0x10001)
        X509v3 extensions:
            X509v3 Subject Alternative Name: 
                DNS:example.test, IP Address:127.0.0.1
            X509v3 Certificate Policies: 
                Policy: 1.3.6.1.4.1.11129.2.4.1

    Signature Algorithm: sha256WithRSAEncryption
         41:4e:99:ea:e1:45:69:9b:59:d3:b2:5e:e3:53:51:15:76:ca:
         ea:51:32:a8:78:ef:37:9f:8b:52:a8:1a:24:39:cf:61:ca:d3:
         f8:5e:9c:60:77:00:94:73:90:83:ea:aa:f2:de:b8:87:2b:3f:
         81:ad:b9:63:ab:7f:96:a1:36:d0:a6:30:f2:67:fe:b0:a6:79:
         25:82:58:d0:0a:b4:86:0e:53:ea:8a:9f:a5:65:fd:5c:06:21:
         30:6e:91:92:93:34:af:e1:c8:34:d2:1a:57:47:14:11:eb:ff:
         1a:87:98:be:cd:e2:83:73:9d:54:ed:37:c6:78:e4:85:2b:5a:
         80:3a:ba:da:a8:81:05:c1:ac:13:3a:a4:a6:aa:05:c8:af:a5:
         ce:66:24:30:49:bb:dd:8d:d0:1e:85:53:8f:63:57:f1:2d:8b:
         54:a8:8a:05:02:d5:17:27:9d:1e:66:5c:03:40:a9:7c:ce:85:
         e8:28:78:63:3b:d5:ee:33:67:84:b3:d7:d3:4d:4d:99:30:7d:
         6d:48:fb:5a:63:8f:6f:ea:e0:78:08:05:75:e2:6f:c9:86:fb:
         05:a1:eb:a7:b0:4b:c7:7c:19:2a:27:d1:b3:30:6b:ac:3f:6e:
         64:9c:ca:3f:dd:2e:f8:c5:f4:2c:d5:54:4a:d5:de:79:d5:86:
         cd:29:a9:0d
-----BEGIN CERTIFICATE-----
MIIDQjCCAiqgAwIBAgIQFOowxGgnGnJfgUub70ThIjANBgkqhkiG9w0BAQsFADBD
MUEwPwYDVQQDEzhJbnRlcm1lZGlhdGUgZm9yIFByaW50YWJsZVN0cmluZyAvIFV0
ZjhTdHJpbmcgY29tcGFyaXNvbjAeFw0xMDAxMDEwNjAwMDBaFw0zMjEyMDEwNjAw
MDBaMDsxOTA3BgNVBAMTMExlYWYgZm9yIFByaW50YWJsZVN0cmluZyAvIFV0ZjhT
dHJpbmcgY29tcGFyaXNvbjCCASIwDQYJKoZIhvcNAQEBBQADggEPADCCAQoCggEB
AM0S0xeznPuxYPsdycnw3I/vNgTdpNjFVzks4dYWSDcT94IWytvv0cduoPO7vkEO
JLIzsbc1g5IrCTFOJJss/eG+CZXhPxYPtjDBDUR3UNog/6pIgABnF/6qPk22AuT1
EbXMMS93D0SwN3hO/+xiZA+UiqGJw3afA73Q4io27PpZUfVXfeGVpPujPIebZXlo
t5E4/XqziamWhSL3OJxgUr4f94vBaNPqlh4TKgROujOsB+rZU2fHuBXpHsqSTZFP
0NgRNJuL9QBwe6caQ6KQGlRfNOF5LnJlT2ZJ+rlxb0uhc3nugEIYa7upubrEFqYE
dMxgaG8ObksBJZzDy1hz7fkCAwEAAaM6MDgwHQYDVR0RBBYwFIIMZXhhbXBsZS50
ZXN0hwR/AAABMBcGA1UdIAQQMA4wDAYKKwYBBAHWeQIEATANBgkqhkiG9w0BAQsF
AAOCAQEAQU6Z6uFFaZtZ07Je41NRFXbK6lEyqHjvN5+LUqgaJDnPYcrT+F6cYHcA
lHOQg+qq8t64hys/ga25Y6t/lqE20KYw8mf+sKZ5JYJY0Aq0hg5T6oqfpWX9XAYh
MG6RkpM0r+HINNIaV0cUEev/GoeYvs3ig3OdVO03xnjkhStagDq62qiBBcGsEzqk
pqoFyK+lzmYkMEm73Y3QHoVTj2NX8S2LVKiKBQLVFyedHmZcA0CpfM6F6Ch4YzvV
7jNnhLPX001NmTB9bUj7WmOPb+rgeAgFdeJvyYb7BaHrp7BLx3wZKifRszBrrD9u
ZJzKP90u+MX0LNVUStXeedWGzSmpDQ==
-----END CERTIFICATE-----

Certificate:
    Data:
        Version: 3 (0x2)
        Serial Number:
            66:4c:a2:29:81:ef:e6:b2:63:cc:5a:c9:28:53:d4:f9
        Signature Algorithm: sha256WithRSAEncryption
        Issuer: CN = Testing CA
        Validity
            Not Before: Jan  1 06:00:00 2010 GMT
            Not After : Dec  1 06:00:00 2032 GMT
        Subject: CN = Intermediate for PrintableString / Utf8String comparison
        Subject Public Key Info:
            Public Key Algorithm: rsaEncryption
                RSA Public-Key: (2048 bit)
                Modulus:
                    00:c6:61:af:cc:65:9f:88:85:5a:83:ad:e8:fb:79:
                    2d:c1:3d:0c:f3:88:b1:7b:ec:e9:14:9c:f0:b8:55:
                    6d:27:b1:91:01:d0:81:fb:2a:84:2d:13:a2:ac:95:
                    d8:30:8d:dd:66:78:38:43:ec:c5:80:65:13:95:9e:
                    b6:b3:0d:d6:9b:28:45:d9:7e:10:d0:bb:bf:65:3d:
                    68:6d:c8:82:89:35:02:2c:c9:6f:9e:03:0b:56:71:
                    57:25:7d:3d:65:26:73:40:80:bb:97:27:ce:e0:d3:
                    0f:42:09:d5:82:0e:1d:66:2f:35:8f:c7:89:c0:e9:
                    36:6d:84:f8:9a:df:1b:eb:8d:84:3f:74:e6:f3:25:
                    87:6a:c3:5d:5c:11:69:1f:cb:29:69:67:c0:6e:df:
                    69:45:0c:16:bb:23:14:c1:45:99:fe:90:72:5d:5e:
                    c9:0f:2d:b6:69:8a:fa:e7:2b:ba:0c:fb:f7:79:67:
                    c7:e8:b4:9f:21:72:f9:38:18:27:c2:7a:b7:f9:47:
                    1c:62:bd:8d:a4:a6:c6:57:96:6e:c1:38:5c:f4:1d:
                    73:94:49:83:58:88:f3:0d:64:97:16:19:dc:d3:80:
                    40:8c:d7:4f:25:c3:be:19:83:3a:92:62:0c:9c:f7:
                    10:da:67:e1:5a:c8:ce:f6:9b:c7:e4:e5:e7:f8:13:
                    c1:ed
                Exponent: 65537 (0x10001)
        X509v3 extensions:
            X509v3 Basic Constraints: critical
                CA:TRUE
            X509v3 Certificate Policies: 
                Policy: 1.3.6.1.4.1.11129.2.4.1

    Signature Algorithm: sha256WithRSAEncryption
         53:2a:74:9d:c5:68:71:0f:25:8c:11:4e:e6:b1:cd:74:54:9f:
         c5:36:f0:e8:42:a6:8d:29:51:21:8f:cd:8b:52:bf:57:ba:44:
         73:d9:36:32:33:3b:6a:35:c7:14:81:00:c1:79:27:4e:31:eb:
         88:cc:fa:50:43:80:ca:09:4e:60:ea:e5:2c:e3:60:d5:c6:ad:
         09:9c:0f:e1:30:7c:ce:41:3d:1d:40:69:4e:37:0d:80:d7:f3:
         2c:8f:c6:fb:3d:2e:40:c2:6e:f4:e3:62:f2:cc:82:69:c5:20:
         5a:fa:ef:25:ea:e9:7e:5f:d9:37:2b:b5:16:14:b9:66:10:37:
         df:40:1d:76:ed:9a:ea:ad:4d:b0:ac:d3:5c:6d:44:72:40:62:
         f1:aa:e6:04:89:f2:b9:fc:c1:94:5a:16:dd:26:a6:1f:dd:5e:
         a7:3c:db:b0:4d:6d:8d:35:34:c5:16:35:60:65:b9:74:22:32:
         fb:ba:e7:78:32:62:82:78:66:15:3d:6b:d4:99:e2:a6:52:b7:
         c6:8a:2f:94:b9:27:ee:6e:46:b9:45:ec:09:81:9e:f8:c4:fb:
         21:77:3a:a2:4b:38:33:3d:4f:cc:f7:2b:50:b3:fd:58:0e:80:
         e3:8d:9d:4a:f8:0d:c0:0d:b4:98:00:26:41:94:12:12:60:75:
         e3:8a:1e:0a
-----BEGIN CERTIFICATE-----
MIIDDjCCAfagAwIBAgIQZkyiKYHv5rJjzFrJKFPU+TANBgkqhkiG9w0BAQsFADAV
MRMwEQYDVQQDEwpUZXN0aW5nIENBMB4XDTEwMDEwMTA2MDAwMFoXDTMyMTIwMTA2
MDAwMFowQzFBMD8GA1UEAww4SW50ZXJtZWRpYXRlIGZvciBQcmludGFibGVTdHJp
bmcgLyBVdGY4U3RyaW5nIGNvbXBhcmlzb24wggEiMA0GCSqGSIb3DQEBAQUAA4IB
DwAwggEKAoIBAQDGYa/MZZ+IhVqDrej7eS3BPQzziLF77OkUnPC4VW0nsZEB0IH7
KoQtE6Ksldgwjd1meDhD7MWAZROVnrazDdabKEXZfhDQu79lPWhtyIKJNQIsyW+e
AwtWcVclfT1lJnNAgLuXJ87g0w9CCdWCDh1mLzWPx4nA6TZthPia3xvrjYQ/dObz
JYdqw11cEWkfyylpZ8Bu32lFDBa7IxTBRZn+kHJdXskPLbZpivrnK7oM+/d5Z8fo
tJ8hcvk4GCfCerf5RxxivY2kpsZXlm7BOFz0HXOUSYNYiPMNZJcWGdzTgECM108l
w74ZgzqSYgyc9xDaZ+FayM72m8fk5ef4E8HtAgMBAAGjLDAqMA8GA1UdEwEB/wQF
MAMBAf8wFwYDVR0gBBAwDjAMBgorBgEEAdZ5AgQBMA0GCSqGSIb3DQEBCwUAA4IB
AQBTKnSdxWhxDyWMEU7msc10VJ/FNvDoQqaNKVEhj82LUr9XukRz2TYyMztqNccU
gQDBeSdOMeuIzPpQQ4DKCU5g6uUs42DVxq0JnA/hMHzOQT0dQGlONw2A1/Msj8b7
PS5Awm7042LyzIJpxSBa+u8l6ul+X9k3K7UWFLlmEDffQB127ZrqrU2wrNNcbURy
QGLxquYEifK5/MGUWhbdJqYf3V6nPNuwTW2NNTTFFjVgZbl0IjL7uud4MmKCeGYV
PWvUmeKmUrfGii+UuSfubka5RewJgZ74xPshdzqiSzgzPU/M9ytQs/1YDoDjjZ1K
+A3ADbSYACZBlBISYHXjih4K
-----END CERTIFICATE-----
