-----BEGIN PRIVATE KEY-----
MIIEvAIBADANBgkqhkiG9w0BAQEFAASCBKYwggSiAgEAAoIBAQDgU/TzmMEUMwLI
pG3+qir3lD2mbwDfO95Mn6PqB9Ss5VsN0azg7fnFmB01LeWzSZcUhUQP3EzSZwiI
AaXYp+uT0Wqh91HnhH5SKn28bw7Y27amPt7c9aRolkQRhQLtRxLfuGBxlXtih2h6
RFYJ1bTI8fbJRpKLaOiD1dWGcSPDgB6/bAHH0qS8QG3g48AuMHi9rd0lZtP1BwdW
187icsUlfQzhp28AqNqrS1RDCWSktlI4L7fMAd0cAycDR7/f5jew7RjcUQvUdSLf
UHs86zc5HJtvCHunBayMQ/fx2lEGs4JFPsiBc56wpc92lq+BLKwBKkpYSx2+/x+F
wife8XgLAgMBAAECggEAO0gUmHdKtvLQDoPdiYogtrKXJC97dILWuTsKzyLoohQu
XtWFMR/SfNQ5C7+oTxvocATTurlGF+ggigidckbV64dQ/aJlI6CQ3VfbSHu02bwe
ZYqBzLShkP382QBkiJ3asAKCgiG1rJEKHB2I+ypdjyjaRdB/k5XStFxDBDdL8zKe
kL1hytf1ALxYBQJ3TXcoIqlpzz6v+JnZTAuu4vrySfffyFTrytIwf/KGlBACBqXe
oV+DK586PiyC0m1Hhy1rLTi2/IT4t4j3KO+c/OnpWkMEg1G/Ojy1zPMsMHr1VO9t
UWxhEIYOLQVUOT+2ltO4bRJcgEPHSxlIY23qalJgqQKBgQD9oZwHPhLZg439Zr9O
Zgl5fFkPe4SxqLY+ggE5O81+3RgL8GyAuy9oDtUGcw8L9tpKcBflqH4jEvUvT1/m
8BGKIQteqcKbY0C+KfPvq77R4k2KqmxpKF5f4BS/9O7cgzJZwhSFKDLtcKtDIPUK
3eoERuPB4/cmhQyb+/TKofZpfwKBgQDibEm1+nYj3tIXDxK3hZHjPz0s9vYV84py
zg3HjuEmdacnhNPQQQpNG83RMjEnnBvHWH2vxRWyD+57r/FWeA60aUJo5WIP0rj8
z6GqFT9IWaBrJtBU1YoxuyTH64yih6ljvm2skIEGlQYS+GBL9K/Tx4mh4lAKVzD5
GXVqtyM/dQKBgFD0Ik8VewK+QLXe87TcUK3cCLkuXZ4vEWxGJonUErUpcKFu7dLw
7CK0iT3zv5u8ANS9joMZEpmzVVryZNPbUF3cSjq+yIS8W0/XKCsZkGCBcOqPlubB
oc3MQhM65HqxzYJkthQCTq8GxUM547zCNA2FavDaCGrdELdA5lM++t2VAoGAMLem
AH68bqlhwM5gc5ZMtn2D1ynn9v8oudz2AAsRDKph5dHhlTx5T+/8j9dh1ijznSfA
G1KngWGGKZzIq5c3ar//Jvy75bWsUdEG8saRkCqgpo16Y9ZyXpLqrg1TfCD+ZFSz
2l5ZNKZZ4TkJ1y31qvaS+X7tQ9xQ0DgXGHgBIIUCgYABBBddUXpOyG54HvFHIgxS
esBBkpM0uy3vOkyfMown2GCjKZaXS5kEmRwU9WQQKLPf2ieALgYEf87YGWmPNZNF
tG5DoNhTMsrYORB11tuuBR1e6lrG/aoOkP/4udWC8d4Yp9wnkEu0l6X/kMfq2lb1
67bBVmHqKJ0t8rytHzkP0Q==
-----END PRIVATE KEY-----
Certificate:
    Data:
        Version: 3 (0x2)
        Serial Number:
            12:f6:d9:f1:80:1b:50:9f:64:09:c8:ea:2f:16:33:a4
        Signature Algorithm: sha256WithRSAEncryption
        Issuer: C=US, ST=California, L=Mountain View, O=Test CA, CN=Test Root CA
        Validity
            Not Before: Dec  1 15:42:07 2021 GMT
            Not After : Dec  1 15:42:07 2023 GMT
        Subject: CN=Leaf certificate
        Subject Public Key Info:
            Public Key Algorithm: rsaEncryption
                RSA Public-Key: (2048 bit)
                Modulus:
                    00:e0:53:f4:f3:98:c1:14:33:02:c8:a4:6d:fe:aa:
                    2a:f7:94:3d:a6:6f:00:df:3b:de:4c:9f:a3:ea:07:
                    d4:ac:e5:5b:0d:d1:ac:e0:ed:f9:c5:98:1d:35:2d:
                    e5:b3:49:97:14:85:44:0f:dc:4c:d2:67:08:88:01:
                    a5:d8:a7:eb:93:d1:6a:a1:f7:51:e7:84:7e:52:2a:
                    7d:bc:6f:0e:d8:db:b6:a6:3e:de:dc:f5:a4:68:96:
                    44:11:85:02:ed:47:12:df:b8:60:71:95:7b:62:87:
                    68:7a:44:56:09:d5:b4:c8:f1:f6:c9:46:92:8b:68:
                    e8:83:d5:d5:86:71:23:c3:80:1e:bf:6c:01:c7:d2:
                    a4:bc:40:6d:e0:e3:c0:2e:30:78:bd:ad:dd:25:66:
                    d3:f5:07:07:56:d7:ce:e2:72:c5:25:7d:0c:e1:a7:
                    6f:00:a8:da:ab:4b:54:43:09:64:a4:b6:52:38:2f:
                    b7:cc:01:dd:1c:03:27:03:47:bf:df:e6:37:b0:ed:
                    18:dc:51:0b:d4:75:22:df:50:7b:3c:eb:37:39:1c:
                    9b:6f:08:7b:a7:05:ac:8c:43:f7:f1:da:51:06:b3:
                    82:45:3e:c8:81:73:9e:b0:a5:cf:76:96:af:81:2c:
                    ac:01:2a:4a:58:4b:1d:be:ff:1f:85:c2:27:de:f1:
                    78:0b
                Exponent: 65537 (0x10001)
        X509v3 extensions:
            X509v3 Basic Constraints: critical
                CA:FALSE
            X509v3 Subject Key Identifier: 
                E2:E0:A4:73:95:9B:E9:6E:FD:CE:29:C4:6F:07:81:0B:96:BD:47:BA
            X509v3 Authority Key Identifier: 
                keyid:9B:26:0B:8A:98:A9:BB:1D:B9:1F:1C:E3:1A:40:33:ED:8E:17:88:AB

            X509v3 Extended Key Usage: 
                TLS Web Server Authentication, TLS Web Client Authentication
            X509v3 Subject Alternative Name: 
                DNS:test.ExAmPlE.CoM, DNS:test.ExAmPlE.OrG
    Signature Algorithm: sha256WithRSAEncryption
         0d:a9:30:6f:07:4e:6c:48:7a:27:e3:37:e4:aa:83:88:cc:f0:
         35:ad:6b:6d:fc:56:a7:a5:dd:50:cc:cf:17:a8:70:77:7b:f8:
         78:e7:a4:2f:45:6e:29:7d:e9:ff:b0:ee:5a:b9:6b:c2:fd:13:
         32:f0:59:f1:10:9c:61:ba:94:96:23:12:19:2f:95:eb:4e:2b:
         14:92:60:cd:16:1b:b3:ab:a4:8b:e8:03:c2:d4:40:6b:db:e7:
         7d:33:59:43:a2:89:9b:aa:e5:d4:98:5e:c3:4d:72:9d:8b:9f:
         18:81:d5:67:28:c8:05:3f:e3:c5:d6:24:12:7e:32:d0:be:20:
         bd:20:37:1e:47:4b:61:fc:28:be:ef:66:45:a6:bd:23:0f:2d:
         b3:f9:ec:54:79:39:35:98:e1:01:56:32:ee:8e:7b:f1:4b:77:
         b2:1a:e7:22:77:21:11:79:c1:4f:84:f5:58:8e:9b:b9:8d:39:
         87:78:7c:7b:ac:37:da:eb:4e:bd:06:6b:6f:ea:20:02:38:d5:
         d9:7b:ff:95:c2:01:35:c6:cd:22:dc:0c:35:3b:71:31:06:a3:
         78:a2:e4:03:31:1a:7a:e5:aa:b5:ae:33:1e:a4:1a:5b:f2:29:
         ef:0f:ed:7e:82:f0:fc:2d:2e:82:e4:6d:1e:93:02:9e:12:5f:
         ac:6c:46:c2
-----BEGIN CERTIFICATE-----
MIIDqDCCApCgAwIBAgIQEvbZ8YAbUJ9kCcjqLxYzpDANBgkqhkiG9w0BAQsFADBj
MQswCQYDVQQGEwJVUzETMBEGA1UECAwKQ2FsaWZvcm5pYTEWMBQGA1UEBwwNTW91
bnRhaW4gVmlldzEQMA4GA1UECgwHVGVzdCBDQTEVMBMGA1UEAwwMVGVzdCBSb290
IENBMB4XDTIxMTIwMTE1NDIwN1oXDTIzMTIwMTE1NDIwN1owGzEZMBcGA1UEAwwQ
TGVhZiBjZXJ0aWZpY2F0ZTCCASIwDQYJKoZIhvcNAQEBBQADggEPADCCAQoCggEB
AOBT9POYwRQzAsikbf6qKveUPaZvAN873kyfo+oH1KzlWw3RrODt+cWYHTUt5bNJ
lxSFRA/cTNJnCIgBpdin65PRaqH3UeeEflIqfbxvDtjbtqY+3tz1pGiWRBGFAu1H
Et+4YHGVe2KHaHpEVgnVtMjx9slGkoto6IPV1YZxI8OAHr9sAcfSpLxAbeDjwC4w
eL2t3SVm0/UHB1bXzuJyxSV9DOGnbwCo2qtLVEMJZKS2Ujgvt8wB3RwDJwNHv9/m
N7DtGNxRC9R1It9QezzrNzkcm28Ie6cFrIxD9/HaUQazgkU+yIFznrClz3aWr4Es
rAEqSlhLHb7/H4XCJ97xeAsCAwEAAaOBnzCBnDAMBgNVHRMBAf8EAjAAMB0GA1Ud
DgQWBBTi4KRzlZvpbv3OKcRvB4ELlr1HujAfBgNVHSMEGDAWgBSbJguKmKm7Hbkf
HOMaQDPtjheIqzAdBgNVHSUEFjAUBggrBgEFBQcDAQYIKwYBBQUHAwIwLQYDVR0R
BCYwJIIQdGVzdC5FeEFtUGxFLkNvTYIQdGVzdC5FeEFtUGxFLk9yRzANBgkqhkiG
9w0BAQsFAAOCAQEADakwbwdObEh6J+M35KqDiMzwNa1rbfxWp6XdUMzPF6hwd3v4
eOekL0VuKX3p/7DuWrlrwv0TMvBZ8RCcYbqUliMSGS+V604rFJJgzRYbs6uki+gD
wtRAa9vnfTNZQ6KJm6rl1Jhew01ynYufGIHVZyjIBT/jxdYkEn4y0L4gvSA3HkdL
Yfwovu9mRaa9Iw8ts/nsVHk5NZjhAVYy7o578Ut3shrnInchEXnBT4T1WI6buY05
h3h8e6w32utOvQZrb+ogAjjV2Xv/lcIBNcbNItwMNTtxMQajeKLkAzEaeuWqta4z
HqQaW/Ip7w/tfoLw/C0uguRtHpMCnhJfrGxGwg==
-----END CERTIFICATE-----
