Certificate:
    Data:
        Version: 3 (0x2)
        Serial Number:
            dc:2e:0e:78:8f:e0:63:b8:7e:ae:78:55:50:65:99:6b
        Signature Algorithm: sha256WithRSAEncryption
        Issuer: CN = intermediate for case folding comparison
        Validity
            Not Before: Jan  1 06:00:00 2010 GMT
            Not After : Dec  1 06:00:00 2032 GMT
        Subject: CN = Leaf for case folding comparison
        Subject Public Key Info:
            Public Key Algorithm: rsaEncryption
                RSA Public-Key: (2048 bit)
                Modulus:
                    00:cd:12:d3:17:b3:9c:fb:b1:60:fb:1d:c9:c9:f0:
                    dc:8f:ef:36:04:dd:a4:d8:c5:57:39:2c:e1:d6:16:
                    48:37:13:f7:82:16:ca:db:ef:d1:c7:6e:a0:f3:bb:
                    be:41:0e:24:b2:33:b1:b7:35:83:92:2b:09:31:4e:
                    24:9b:2c:fd:e1:be:09:95:e1:3f:16:0f:b6:30:c1:
                    0d:44:77:50:da:20:ff:aa:48:80:00:67:17:fe:aa:
                    3e:4d:b6:02:e4:f5:11:b5:cc:31:2f:77:0f:44:b0:
                    37:78:4e:ff:ec:62:64:0f:94:8a:a1:89:c3:76:9f:
                    03:bd:d0:e2:2a:36:ec:fa:59:51:f5:57:7d:e1:95:
                    a4:fb:a3:3c:87:9b:65:79:68:b7:91:38:fd:7a:b3:
                    89:a9:96:85:22:f7:38:9c:60:52:be:1f:f7:8b:c1:
                    68:d3:ea:96:1e:13:2a:04:4e:ba:33:ac:07:ea:d9:
                    53:67:c7:b8:15:e9:1e:ca:92:4d:91:4f:d0:d8:11:
                    34:9b:8b:f5:00:70:7b:a7:1a:43:a2:90:1a:54:5f:
                    34:e1:79:2e:72:65:4f:66:49:fa:b9:71:6f:4b:a1:
                    73:79:ee:80:42:18:6b:bb:a9:b9:ba:c4:16:a6:04:
                    74:cc:60:68:6f:0e:6e:4b:01:25:9c:c3:cb:58:73:
                    ed:f9
                Exponent: 65537 (0x10001)
        X509v3 extensions:
            X509v3 Subject Alternative Name: 
                DNS:example.test, IP Address:127.0.0.1
            X509v3 Certificate Policies: 
                Policy: 1.3.6.1.4.1.11129.2.4.1

    Signature Algorithm: sha256WithRSAEncryption
         b1:8f:87:7d:46:ee:fa:94:ff:48:e1:25:50:a8:19:f5:bc:4d:
         99:b3:d6:e3:b6:63:17:70:f3:b0:37:18:bb:ff:c4:2c:85:32:
         26:b8:12:45:6e:d8:4d:a9:1b:64:ca:dc:98:8a:0a:a3:5f:a6:
         46:18:98:a1:c1:b1:35:14:56:ff:c5:bf:0d:6d:1f:2d:15:d1:
         d9:c4:93:fe:ee:86:e6:f3:6e:96:68:e3:25:11:b7:7d:c4:a0:
         f3:61:4e:df:fe:e7:21:02:a4:1e:9b:4c:45:42:50:d8:52:f7:
         56:8c:f8:3b:c7:be:33:29:23:fd:1d:1c:ea:52:87:fb:da:70:
         9e:bc:ba:99:ca:a1:ff:59:a8:96:8b:32:f9:4c:1c:df:45:9b:
         d2:82:d0:45:e6:08:ef:c2:ed:5b:6f:a6:c7:fe:d5:0f:12:da:
         d3:70:60:1b:8e:08:a9:d6:09:60:bf:fe:d3:5b:f4:99:ae:d7:
         a2:fe:6a:da:a1:e5:1d:c5:ff:63:12:cb:55:6d:cb:c8:9c:d4:
         dc:9a:4a:49:37:df:f8:41:9c:8c:26:17:a6:02:5e:3d:10:bb:
         0e:16:11:b0:5b:3d:81:25:1f:86:62:1d:7f:14:45:0f:23:b5:
         ce:a1:ea:ea:83:7a:42:2b:4e:75:e8:92:54:fc:ea:3b:ce:72:
         43:35:78:0e
-----BEGIN CERTIFICATE-----
MIIDIzCCAgugAwIBAgIRANwuDniP4GO4fq54VVBlmWswDQYJKoZIhvcNAQELBQAw
MzExMC8GA1UEAxMoaW50ZXJtZWRpYXRlIGZvciBjYXNlIGZvbGRpbmcgY29tcGFy
aXNvbjAeFw0xMDAxMDEwNjAwMDBaFw0zMjEyMDEwNjAwMDBaMCsxKTAnBgNVBAMT
IExlYWYgZm9yIGNhc2UgZm9sZGluZyBjb21wYXJpc29uMIIBIjANBgkqhkiG9w0B
AQEFAAOCAQ8AMIIBCgKCAQEAzRLTF7Oc+7Fg+x3JyfDcj+82BN2k2MVXOSzh1hZI
NxP3ghbK2+/Rx26g87u+QQ4ksjOxtzWDkisJMU4kmyz94b4JleE/Fg+2MMENRHdQ
2iD/qkiAAGcX/qo+TbYC5PURtcwxL3cPRLA3eE7/7GJkD5SKoYnDdp8DvdDiKjbs
+llR9Vd94ZWk+6M8h5tleWi3kTj9erOJqZaFIvc4nGBSvh/3i8Fo0+qWHhMqBE66
M6wH6tlTZ8e4FekeypJNkU/Q2BE0m4v1AHB7pxpDopAaVF804XkucmVPZkn6uXFv
S6Fzee6AQhhru6m5usQWpgR0zGBobw5uSwElnMPLWHPt+QIDAQABozowODAdBgNV
HREEFjAUggxleGFtcGxlLnRlc3SHBH8AAAEwFwYDVR0gBBAwDjAMBgorBgEEAdZ5
AgQBMA0GCSqGSIb3DQEBCwUAA4IBAQCxj4d9Ru76lP9I4SVQqBn1vE2Zs9bjtmMX
cPOwNxi7/8QshTImuBJFbthNqRtkytyYigqjX6ZGGJihwbE1FFb/xb8NbR8tFdHZ
xJP+7obm826WaOMlEbd9xKDzYU7f/uchAqQem0xFQlDYUvdWjPg7x74zKSP9HRzq
Uof72nCevLqZyqH/WaiWizL5TBzfRZvSgtBF5gjvwu1bb6bH/tUPEtrTcGAbjgip
1glgv/7TW/SZrtei/mraoeUdxf9jEstVbcvInNTcmkpJN9/4QZyMJhemAl49ELsO
FhGwWz2BJR+GYh1/FEUPI7XOoerqg3pCK0516JJU/Oo7znJDNXgO
-----END CERTIFICATE-----

Certificate:
    Data:
        Version: 3 (0x2)
        Serial Number:
            f1:97:b5:26:2d:7a:3c:74:c4:62:c9:99:2c:53:bb:e8
        Signature Algorithm: sha256WithRSAEncryption
        Issuer: CN = Testing CA
        Validity
            Not Before: Jan  1 06:00:00 2010 GMT
            Not After : Dec  1 06:00:00 2032 GMT
        Subject: CN = Intermediate for case folding comparison
        Subject Public Key Info:
            Public Key Algorithm: rsaEncryption
                RSA Public-Key: (2048 bit)
                Modulus:
                    00:c6:61:af:cc:65:9f:88:85:5a:83:ad:e8:fb:79:
                    2d:c1:3d:0c:f3:88:b1:7b:ec:e9:14:9c:f0:b8:55:
                    6d:27:b1:91:01:d0:81:fb:2a:84:2d:13:a2:ac:95:
                    d8:30:8d:dd:66:78:38:43:ec:c5:80:65:13:95:9e:
                    b6:b3:0d:d6:9b:28:45:d9:7e:10:d0:bb:bf:65:3d:
                    68:6d:c8:82:89:35:02:2c:c9:6f:9e:03:0b:56:71:
                    57:25:7d:3d:65:26:73:40:80:bb:97:27:ce:e0:d3:
                    0f:42:09:d5:82:0e:1d:66:2f:35:8f:c7:89:c0:e9:
                    36:6d:84:f8:9a:df:1b:eb:8d:84:3f:74:e6:f3:25:
                    87:6a:c3:5d:5c:11:69:1f:cb:29:69:67:c0:6e:df:
                    69:45:0c:16:bb:23:14:c1:45:99:fe:90:72:5d:5e:
                    c9:0f:2d:b6:69:8a:fa:e7:2b:ba:0c:fb:f7:79:67:
                    c7:e8:b4:9f:21:72:f9:38:18:27:c2:7a:b7:f9:47:
                    1c:62:bd:8d:a4:a6:c6:57:96:6e:c1:38:5c:f4:1d:
                    73:94:49:83:58:88:f3:0d:64:97:16:19:dc:d3:80:
                    40:8c:d7:4f:25:c3:be:19:83:3a:92:62:0c:9c:f7:
                    10:da:67:e1:5a:c8:ce:f6:9b:c7:e4:e5:e7:f8:13:
                    c1:ed
                Exponent: 65537 (0x10001)
        X509v3 extensions:
            X509v3 Basic Constraints: critical
                CA:TRUE
            X509v3 Certificate Policies: 
                Policy: 1.3.6.1.4.1.11129.2.4.1

    Signature Algorithm: sha256WithRSAEncryption
         af:e8:07:b9:bd:c8:3d:77:f1:be:c3:6a:03:58:8d:a7:91:6a:
         61:79:d6:0a:dc:a0:90:7a:b5:97:77:ab:27:34:22:07:f9:1e:
         19:dc:71:e4:6a:e3:ef:d6:e4:f3:8f:40:ef:ba:3e:81:92:7b:
         78:03:8d:3b:59:96:f0:a7:84:46:e3:52:b8:7e:bd:8e:e8:30:
         5a:c5:ea:22:b4:e6:25:88:f3:27:90:71:16:a9:24:d2:6f:64:
         79:29:63:d4:aa:95:71:7b:f4:29:b0:1c:50:75:75:e1:52:fe:
         3b:a0:54:9d:f8:cc:84:c8:46:46:e1:c4:9b:ef:c8:1e:0a:01:
         79:99:ed:85:a4:1c:81:66:5d:db:a8:65:fa:93:9d:8d:1b:cf:
         cf:4b:ce:d8:6e:47:84:9b:33:4f:7e:69:7c:1e:fb:38:de:cd:
         40:1c:22:de:07:dd:06:1f:cb:3a:3c:5d:9d:f1:55:9b:a2:9c:
         c4:3e:9f:a1:a4:06:17:dd:2c:5c:5a:93:3d:34:77:55:25:ac:
         e6:5f:72:4f:ed:40:34:13:8c:77:a3:a1:7d:86:70:7d:ef:a0:
         12:d3:21:0f:94:f0:1b:3e:38:8f:f4:45:4a:d7:ee:38:71:08:
         27:1b:96:7c:da:62:c4:42:d9:a3:b4:58:79:9e:c3:0a:53:e1:
         d6:46:30:4d
-----BEGIN CERTIFICATE-----
MIIC/zCCAeegAwIBAgIRAPGXtSYtejx0xGLJmSxTu+gwDQYJKoZIhvcNAQELBQAw
FTETMBEGA1UEAxMKVGVzdGluZyBDQTAeFw0xMDAxMDEwNjAwMDBaFw0zMjEyMDEw
NjAwMDBaMDMxMTAvBgNVBAMTKEludGVybWVkaWF0ZSBmb3IgY2FzZSBmb2xkaW5n
IGNvbXBhcmlzb24wggEiMA0GCSqGSIb3DQEBAQUAA4IBDwAwggEKAoIBAQDGYa/M
ZZ+IhVqDrej7eS3BPQzziLF77OkUnPC4VW0nsZEB0IH7KoQtE6Ksldgwjd1meDhD
7MWAZROVnrazDdabKEXZfhDQu79lPWhtyIKJNQIsyW+eAwtWcVclfT1lJnNAgLuX
J87g0w9CCdWCDh1mLzWPx4nA6TZthPia3xvrjYQ/dObzJYdqw11cEWkfyylpZ8Bu
32lFDBa7IxTBRZn+kHJdXskPLbZpivrnK7oM+/d5Z8fotJ8hcvk4GCfCerf5Rxxi
vY2kpsZXlm7BOFz0HXOUSYNYiPMNZJcWGdzTgECM108lw74ZgzqSYgyc9xDaZ+Fa
yM72m8fk5ef4E8HtAgMBAAGjLDAqMA8GA1UdEwEB/wQFMAMBAf8wFwYDVR0gBBAw
DjAMBgorBgEEAdZ5AgQBMA0GCSqGSIb3DQEBCwUAA4IBAQCv6Ae5vcg9d/G+w2oD
WI2nkWphedYK3KCQerWXd6snNCIH+R4Z3HHkauPv1uTzj0Dvuj6Bknt4A407WZbw
p4RG41K4fr2O6DBaxeoitOYliPMnkHEWqSTSb2R5KWPUqpVxe/QpsBxQdXXhUv47
oFSd+MyEyEZG4cSb78geCgF5me2FpByBZl3bqGX6k52NG8/PS87YbkeEmzNPfml8
Hvs43s1AHCLeB90GH8s6PF2d8VWbopzEPp+hpAYX3SxcWpM9NHdVJazmX3JP7UA0
E4x3o6F9hnB976AS0yEPlPAbPjiP9EVK1+44cQgnG5Z82mLEQtmjtFh5nsMKU+HW
RjBN
-----END CERTIFICATE-----
