-----BEGIN PRIVATE KEY-----
MIIEvQIBADANBgkqhkiG9w0BAQEFAASCBKcwggSjAgEAAoIBAQCmWNw2JdGmpJMI
zy07hge1zkTHW3/XEaZRmOyCTGwxRaMEVm/Bd9ZsONs82C3SJapHT/Sk844JmDfT
D3H2rClHewiOaKv8fhACZbaGTLAnBGoVI7M6GbgV8zsLHa3Yn0mxcvKvCN/IAqrL
8yotwP0osJfaSqkidMI6C2RlKsn0ZfdGfzypYZZfDCpmw/LH/mmHL3AMG2Y3ksU/
hUDY5CZFGD/OUyegl34Rh9xK7Cbr/5UOs+ouZkUKqszFgVkuChsOG1lxytOQ72/K
t4yoyoJVuPtK5bopeM7rzY5PnK+FpO8LZF4+fqDg5bCG8xkI+j/6Hkqb/LUWF4gN
OA7Dpl/VAgMBAAECggEAeqgjGDoisMHBOUmqjK1zmfcSd/1b8nWtMZWVLy6yyFIU
teoWVY3Lqdjyr5anksD7IcIvHkIIhcKbxyEoYz7m4TIzSO6dgnxhyaK+R6Dccqiq
oBPG4Bx+xJCpBLVJruUlLZcYoz/j4lM1JVWT0FDxWsN79RYASMvXO32S9ZXrfC1S
YZjVeUrjyrc7Y2Z6z/n89P9mfWUwqOuuH6fHpNHvBugteFB3pS2oclooOh3hXWIu
ZSHWOyX0wj0Rk1iuOBADqxhec/zR4nQ9IZi3nRbfNyoUYzf2qgqPcS9yROS9PZQw
rESmMXpVJ1aF9sFo0LA5KW2sT7qbVWeLwfF8nZvPgQKBgQDdoAdvu5BPTk4E2jg9
y/VfESKiVd1BStsw5DWBZtgDGDpLHtkoezcao0hJxGKAsnWJ1EqhqViNXEJcECi6
Xdr5EF525y9KdKCld7q9ZeQbvvg0QLHXYY0bQhPhbymosFg+qdJCHfn8Wwim8Ibc
JnjpzDdzSKEWELanUrSTEla1TQKBgQDAJe6I4CtEXaBXi06KQHnKHI+9uu1w0TBp
YuM2/3v7CVBcN/lkmK/tnM+RZqgEi/Nhy08uIfIQjWetq7FQjbLEsesy3zlqIlth
Kw4jCcdrPW3XTp/Ru7rUQUjBTWpDh/f1T41OzY4qE5X6v2MQkJP5a614Qi2kqFZ3
neZtpfNwqQKBgASoFR/q3/ham9cMQrxBqdEqigDBLxntGbfoQ5uJbqZ5/tePOV7Z
X+oGXkF2h99OYJvZwwushDjMJHTMvh5UVIKBLorvBpZY5vszDdBm8KkIlSx744C0
AwP8mnBVJpntwpzmco2DFbqQqxje2uaLRGUdLlkUwJW3Gi9f1H12mC3NAoGBAJOr
00HwfnAhQHxnfKn12WPCRZo8EgV1T65+qD75ZJBO3SqyfgGY8wQ7Uq7dZV1xLVBI
TwcWYZHlCvxHCpPtAqn2TtsfAWIXG4F29HtrJY6+fC9PprYqf/BmaALfez6BPciT
JfedNJgTy10VP45YftDet0fIHIoCMcnmWVSFiK1ZAoGABYToKrxvwdgzqRt22k0D
OcMTSQqpcO/WZfcpFK9leOLuKBNniow1PSYkymdVgCkSjrY3Oksxh/0V20H62oqU
bJMTvYZFpTcCQgcwSiyQD2o2PgKNxrxIfII4/9H8hjV99uXaafEWFky8ea6GEJaN
4PkKpNDj9dus6J2Hzat2c3E=
-----END PRIVATE KEY-----
Certificate:
    Data:
        Version: 3 (0x2)
        Serial Number:
            3e:2c:9d:be:b0:42:c8:cf:fc:99:42:d5:4d:41:6a:c3
        Signature Algorithm: sha256WithRSAEncryption
        Issuer: C=US, ST=California, L=Mountain View, O=Test CA, CN=Test Root CA
        Validity
            Not Before: Mar 17 02:31:57 2020 GMT
            Not After : Mar 17 02:31:57 2022 GMT
        Subject: CN=Leaf certificate
        Subject Public Key Info:
            Public Key Algorithm: rsaEncryption
                RSA Public-Key: (2048 bit)
                Modulus:
                    00:a6:58:dc:36:25:d1:a6:a4:93:08:cf:2d:3b:86:
                    07:b5:ce:44:c7:5b:7f:d7:11:a6:51:98:ec:82:4c:
                    6c:31:45:a3:04:56:6f:c1:77:d6:6c:38:db:3c:d8:
                    2d:d2:25:aa:47:4f:f4:a4:f3:8e:09:98:37:d3:0f:
                    71:f6:ac:29:47:7b:08:8e:68:ab:fc:7e:10:02:65:
                    b6:86:4c:b0:27:04:6a:15:23:b3:3a:19:b8:15:f3:
                    3b:0b:1d:ad:d8:9f:49:b1:72:f2:af:08:df:c8:02:
                    aa:cb:f3:2a:2d:c0:fd:28:b0:97:da:4a:a9:22:74:
                    c2:3a:0b:64:65:2a:c9:f4:65:f7:46:7f:3c:a9:61:
                    96:5f:0c:2a:66:c3:f2:c7:fe:69:87:2f:70:0c:1b:
                    66:37:92:c5:3f:85:40:d8:e4:26:45:18:3f:ce:53:
                    27:a0:97:7e:11:87:dc:4a:ec:26:eb:ff:95:0e:b3:
                    ea:2e:66:45:0a:aa:cc:c5:81:59:2e:0a:1b:0e:1b:
                    59:71:ca:d3:90:ef:6f:ca:b7:8c:a8:ca:82:55:b8:
                    fb:4a:e5:ba:29:78:ce:eb:cd:8e:4f:9c:af:85:a4:
                    ef:0b:64:5e:3e:7e:a0:e0:e5:b0:86:f3:19:08:fa:
                    3f:fa:1e:4a:9b:fc:b5:16:17:88:0d:38:0e:c3:a6:
                    5f:d5
                Exponent: 65537 (0x10001)
        X509v3 extensions:
            X509v3 Basic Constraints: critical
                CA:FALSE
            X509v3 Subject Key Identifier: 
                81:CD:A7:DD:52:43:7F:DF:7A:4B:BA:F5:B0:B6:10:A0:44:0C:EC:6C
            X509v3 Authority Key Identifier: 
                keyid:9B:26:0B:8A:98:A9:BB:1D:B9:1F:1C:E3:1A:40:33:ED:8E:17:88:AB

            X509v3 Extended Key Usage: 
                TLS Web Server Authentication, TLS Web Client Authentication
            X509v3 Subject Alternative Name: 
                DNS:test.ExAmPlE.CoM, DNS:test.ExAmPlE.OrG
    Signature Algorithm: sha256WithRSAEncryption
         5b:ab:26:a5:3c:f7:6c:4a:6b:a1:ea:8d:e3:6a:79:a7:e7:49:
         3d:25:3c:2c:a0:e9:bc:d6:7f:d9:23:fd:a1:43:93:50:18:f3:
         2f:f7:4c:8b:97:e0:2f:cb:ed:7e:15:ce:c1:28:db:e1:a5:1d:
         8d:77:6d:b8:3a:37:2f:ca:9c:83:70:a9:40:ed:8b:81:db:69:
         2a:47:c4:c0:ed:83:aa:5d:fd:99:cf:56:73:a8:db:43:75:db:
         ac:46:4a:a3:a7:36:03:43:47:2a:25:5e:22:7a:0d:46:a2:ea:
         77:cb:90:5d:4f:4c:a5:59:42:0d:78:cd:a8:24:f6:2a:ff:f9:
         2a:d6:a3:14:f5:4b:b2:d6:d0:98:4b:4a:47:5a:3a:97:c7:ba:
         02:b3:e1:bc:aa:09:ad:47:d2:38:59:5e:da:0d:af:41:95:f3:
         66:65:48:68:50:bc:b5:d5:9a:26:81:94:d7:5f:df:95:97:79:
         e4:ea:e3:4f:82:84:1b:6b:62:8c:3a:1a:0e:ab:84:30:ff:f9:
         22:40:76:d2:31:e5:d7:6d:5d:0d:ba:35:34:ee:51:b9:0e:f5:
         e0:9d:f1:c5:c8:2a:a0:8d:06:c5:a3:11:b8:69:a1:6f:c0:18:
         eb:d7:28:4a:45:16:8f:d6:e2:cf:06:59:9f:97:60:86:11:a2:
         1b:0d:91:d2
-----BEGIN CERTIFICATE-----
MIIDqDCCApCgAwIBAgIQPiydvrBCyM/8mULVTUFqwzANBgkqhkiG9w0BAQsFADBj
MQswCQYDVQQGEwJVUzETMBEGA1UECAwKQ2FsaWZvcm5pYTEWMBQGA1UEBwwNTW91
bnRhaW4gVmlldzEQMA4GA1UECgwHVGVzdCBDQTEVMBMGA1UEAwwMVGVzdCBSb290
IENBMB4XDTIwMDMxNzAyMzE1N1oXDTIyMDMxNzAyMzE1N1owGzEZMBcGA1UEAwwQ
TGVhZiBjZXJ0aWZpY2F0ZTCCASIwDQYJKoZIhvcNAQEBBQADggEPADCCAQoCggEB
AKZY3DYl0aakkwjPLTuGB7XORMdbf9cRplGY7IJMbDFFowRWb8F31mw42zzYLdIl
qkdP9KTzjgmYN9MPcfasKUd7CI5oq/x+EAJltoZMsCcEahUjszoZuBXzOwsdrdif
SbFy8q8I38gCqsvzKi3A/Siwl9pKqSJ0wjoLZGUqyfRl90Z/PKlhll8MKmbD8sf+
aYcvcAwbZjeSxT+FQNjkJkUYP85TJ6CXfhGH3ErsJuv/lQ6z6i5mRQqqzMWBWS4K
Gw4bWXHK05Dvb8q3jKjKglW4+0rluil4zuvNjk+cr4Wk7wtkXj5+oODlsIbzGQj6
P/oeSpv8tRYXiA04DsOmX9UCAwEAAaOBnzCBnDAMBgNVHRMBAf8EAjAAMB0GA1Ud
DgQWBBSBzafdUkN/33pLuvWwthCgRAzsbDAfBgNVHSMEGDAWgBSbJguKmKm7Hbkf
HOMaQDPtjheIqzAdBgNVHSUEFjAUBggrBgEFBQcDAQYIKwYBBQUHAwIwLQYDVR0R
BCYwJIIQdGVzdC5FeEFtUGxFLkNvTYIQdGVzdC5FeEFtUGxFLk9yRzANBgkqhkiG
9w0BAQsFAAOCAQEAW6smpTz3bEproeqN42p5p+dJPSU8LKDpvNZ/2SP9oUOTUBjz
L/dMi5fgL8vtfhXOwSjb4aUdjXdtuDo3L8qcg3CpQO2LgdtpKkfEwO2Dql39mc9W
c6jbQ3XbrEZKo6c2A0NHKiVeInoNRqLqd8uQXU9MpVlCDXjNqCT2Kv/5KtajFPVL
stbQmEtKR1o6l8e6ArPhvKoJrUfSOFle2g2vQZXzZmVIaFC8tdWaJoGU11/flZd5
5OrjT4KEG2tijDoaDquEMP/5IkB20jHl121dDbo1NO5RuQ714J3xxcgqoI0GxaMR
uGmhb8AY69coSkUWj9bizwZZn5dghhGiGw2R0g==
-----END CERTIFICATE-----
