-----BEGIN PRIVATE KEY-----
MIIEvQIBADANBgkqhkiG9w0BAQEFAASCBKcwggSjAgEAAoIBAQCwOdQrS3Jk6jJb
Na2O4BadbxtUobCnikBNFFHn+Lof7YXQmy0DMiHL0iOhzt9ZcuRTLFzoYUvJk3Tm
S8h7Vdj4sIvF1k8E0MCWwY2rsFbgZilV276UQr+hzMncbzU5cfgMcOlHfpycBg8U
i4ygVUgttEWzilGA6NH9Vi7e4cb9DJyAI4AZXJI+B7d2n9HYxAuF1V417dpADz5g
CznwFQI+i9uzITlAwWaIsZJ6GvvpSfnOFFFppbRLCLr8MTRLYv8efWYh9HcG0LFe
vxuhtzYIIi40tzXTEYYnFhrx+HpuAR/pza/ewtvX2sVkXhr4n1B2m4+XfWHoVE4Y
D725dY55AgMBAAECggEAVcLu5FsFQuNOumC3JC8eEmP98wP1SrPXcyuOaMv9GIip
dMnv7/w3wk90E8zvmUJ2p5uRY23mSiU+4MzEtnEi9HRGsXMIZZmKAFQVtBZPUUmm
mCgm6VRKml1lZ6efSWOTicpxXN/bK3svX5pCR8z5IXT37tZDr+6eMyH8EW/jPUZU
wA/LVpmfRkcLg8VF6J70yj60peU3234b5Z9QLkR80g9U9Sj1QQhuDRAO97zireru
QwFixeazgXzWPTk3iol6GiDbus9T0WGeUAWYZ8XyJ1voNHRNg9dfvpLAc0UBQ5Ho
7Au6fYWQ8cEmYFIC5X46k/fZhZNgludUlQLfMsI1AQKBgQDin873bebHXpoFGXR3
Sn8obsieSWwHCDU2gp+K8JwPtip1PrVfA1KW/wBo938zqpBZDAOOFGGl4x08wLmm
WnlrPOsrcehDbiGTPheBPvOS11/v6IxoOVLLUnDaQIX9j8eOGG/WM0pan8wNG9Vz
WHQduZcBQlKoyXjjJ84avorh8QKBgQDHEaAJab8sK//lCYrCpTfbS2tYCfc9b7Nx
m/6GCJnxqVYfal9ocGd7U7RO7okDQAMyvwSpI9ejTDF8tO4BNHCgvi6rKK3Fj/CJ
bgw8rCP1BOKLvDK/7A7/v1KqvYHtODnCH0iTVK/R/Oq2Jws0m88uSkANm1w2t+SG
JVk/ymBtCQKBgC0L/RTbyKrKmCz5UVhA+6Oq2b/08j83l3Q9ZL82cp8A49GoZF79
hxYym/9Bawx3E/hPVgmQ7ZQO4AnqeTyi8U2qr0hUfQmiQ5REHGH5hGsk2pISlI5H
DrkRqxMHDltHkDAjlV9rlJUM/H+Cj9w8seASuvxqFYotehUVHXfddjfRAoGAYUXj
hbX+jH8Tk7+N5n8FREseMO7tuT+T17f6L1SUpNmyE7fO1yHV7xV/zfIRUV0+MtXU
WTICdPEOXXmrszsErgdAlrJR92/WgdEcealECL5SVSWpRs76pU2//16K1nfbAVh4
BkYjg+CqcEez2gkou93cXsnDzZkeOc6WRe2GIMECgYEApyMBng9jXOD1Qw2CpWeC
kO/GL98UXAvQAnQB1YepWDmbW2OxpXZ5TI5wQkJxE7z7EJkIm6Vq0fcHtDNwGWBq
2zLyUW+QdR53eGEkhHNzq0hFWVMCaDbO6UNa1OFZqN/WSBFB3z4F0XAZ1ZX+PaFm
NqcJRJ7sL5XqgAdRqcTTFcA=
-----END PRIVATE KEY-----
Certificate:
    Data:
        Version: 3 (0x2)
        Serial Number:
            bb:38:42:57:48:dd:2b:24:78:13:e0:59:b9:a3:d7:77
        Signature Algorithm: sha256WithRSAEncryption
        Issuer: C=US, ST=California, L=Mountain View, O=Test CA, CN=Test Root CA
        Validity
            Not Before: Jan 11 02:36:21 2022 GMT
            Not After : Jan 11 02:36:21 2024 GMT
        Subject: CN=Leaf certificate
        Subject Public Key Info:
            Public Key Algorithm: rsaEncryption
                RSA Public-Key: (2048 bit)
                Modulus:
                    00:b0:39:d4:2b:4b:72:64:ea:32:5b:35:ad:8e:e0:
                    16:9d:6f:1b:54:a1:b0:a7:8a:40:4d:14:51:e7:f8:
                    ba:1f:ed:85:d0:9b:2d:03:32:21:cb:d2:23:a1:ce:
                    df:59:72:e4:53:2c:5c:e8:61:4b:c9:93:74:e6:4b:
                    c8:7b:55:d8:f8:b0:8b:c5:d6:4f:04:d0:c0:96:c1:
                    8d:ab:b0:56:e0:66:29:55:db:be:94:42:bf:a1:cc:
                    c9:dc:6f:35:39:71:f8:0c:70:e9:47:7e:9c:9c:06:
                    0f:14:8b:8c:a0:55:48:2d:b4:45:b3:8a:51:80:e8:
                    d1:fd:56:2e:de:e1:c6:fd:0c:9c:80:23:80:19:5c:
                    92:3e:07:b7:76:9f:d1:d8:c4:0b:85:d5:5e:35:ed:
                    da:40:0f:3e:60:0b:39:f0:15:02:3e:8b:db:b3:21:
                    39:40:c1:66:88:b1:92:7a:1a:fb:e9:49:f9:ce:14:
                    51:69:a5:b4:4b:08:ba:fc:31:34:4b:62:ff:1e:7d:
                    66:21:f4:77:06:d0:b1:5e:bf:1b:a1:b7:36:08:22:
                    2e:34:b7:35:d3:11:86:27:16:1a:f1:f8:7a:6e:01:
                    1f:e9:cd:af:de:c2:db:d7:da:c5:64:5e:1a:f8:9f:
                    50:76:9b:8f:97:7d:61:e8:54:4e:18:0f:bd:b9:75:
                    8e:79
                Exponent: 65537 (0x10001)
        X509v3 extensions:
            X509v3 Basic Constraints: critical
                CA:FALSE
            X509v3 Subject Key Identifier: 
                E4:C5:B8:15:7B:F4:26:F0:4D:EB:27:D8:97:34:01:10:F5:96:D2:BE
            X509v3 Authority Key Identifier: 
                keyid:9B:26:0B:8A:98:A9:BB:1D:B9:1F:1C:E3:1A:40:33:ED:8E:17:88:AB

            X509v3 Extended Key Usage: 
                TLS Web Server Authentication, TLS Web Client Authentication
            X509v3 Subject Alternative Name: 
                DNS:test.ExAmPlE.CoM, DNS:test.ExAmPlE.OrG
    Signature Algorithm: sha256WithRSAEncryption
         b6:d8:92:56:dd:62:58:be:cf:7f:a6:e5:b0:5e:a5:0f:15:cf:
         44:55:be:b8:3e:43:ef:1b:0d:e4:11:1a:f6:38:5c:0d:14:a4:
         23:0e:d6:e4:a2:f4:ef:44:7f:0b:b2:4f:f9:5f:b4:d8:a9:58:
         20:e8:de:7a:8d:1b:74:5c:73:9b:0e:e5:fa:1c:d2:5f:99:b3:
         e9:52:23:d3:cf:ae:49:53:d2:53:19:2f:8c:02:e8:98:4e:41:
         f2:c4:c7:fb:c5:57:76:72:8e:db:fc:41:fe:2f:84:73:3a:da:
         d3:83:c3:35:8a:00:a3:dd:b7:58:60:82:25:0d:fb:01:ee:e2:
         7d:fd:e5:6a:74:31:77:24:77:9e:97:7d:ba:44:bf:6c:b4:06:
         f7:c7:9e:d0:e1:cc:1f:5d:5a:e9:38:57:f3:a9:e3:07:b2:54:
         9b:cd:68:eb:5c:b0:af:1a:09:25:72:da:9a:1d:03:0e:8e:c7:
         3f:fa:c7:fe:45:55:cc:cd:5b:0c:7b:5c:7a:48:07:44:bb:e1:
         d8:bd:6c:7a:d0:3c:af:53:0d:9d:6d:af:26:ef:3b:17:61:af:
         2c:ff:c2:2a:95:1e:4b:5f:a1:85:7e:cc:2e:24:42:90:ad:d5:
         a0:34:1a:cd:4f:06:09:e3:94:9c:6b:98:04:1a:54:79:c8:cf:
         72:62:34:af
-----BEGIN CERTIFICATE-----
MIIDqTCCApGgAwIBAgIRALs4QldI3SskeBPgWbmj13cwDQYJKoZIhvcNAQELBQAw
YzELMAkGA1UEBhMCVVMxEzARBgNVBAgMCkNhbGlmb3JuaWExFjAUBgNVBAcMDU1v
dW50YWluIFZpZXcxEDAOBgNVBAoMB1Rlc3QgQ0ExFTATBgNVBAMMDFRlc3QgUm9v
dCBDQTAeFw0yMjAxMTEwMjM2MjFaFw0yNDAxMTEwMjM2MjFaMBsxGTAXBgNVBAMM
EExlYWYgY2VydGlmaWNhdGUwggEiMA0GCSqGSIb3DQEBAQUAA4IBDwAwggEKAoIB
AQCwOdQrS3Jk6jJbNa2O4BadbxtUobCnikBNFFHn+Lof7YXQmy0DMiHL0iOhzt9Z
cuRTLFzoYUvJk3TmS8h7Vdj4sIvF1k8E0MCWwY2rsFbgZilV276UQr+hzMncbzU5
cfgMcOlHfpycBg8Ui4ygVUgttEWzilGA6NH9Vi7e4cb9DJyAI4AZXJI+B7d2n9HY
xAuF1V417dpADz5gCznwFQI+i9uzITlAwWaIsZJ6GvvpSfnOFFFppbRLCLr8MTRL
Yv8efWYh9HcG0LFevxuhtzYIIi40tzXTEYYnFhrx+HpuAR/pza/ewtvX2sVkXhr4
n1B2m4+XfWHoVE4YD725dY55AgMBAAGjgZ8wgZwwDAYDVR0TAQH/BAIwADAdBgNV
HQ4EFgQU5MW4FXv0JvBN6yfYlzQBEPWW0r4wHwYDVR0jBBgwFoAUmyYLipipux25
HxzjGkAz7Y4XiKswHQYDVR0lBBYwFAYIKwYBBQUHAwEGCCsGAQUFBwMCMC0GA1Ud
EQQmMCSCEHRlc3QuRXhBbVBsRS5Db02CEHRlc3QuRXhBbVBsRS5PckcwDQYJKoZI
hvcNAQELBQADggEBALbYklbdYli+z3+m5bBepQ8Vz0RVvrg+Q+8bDeQRGvY4XA0U
pCMO1uSi9O9EfwuyT/lftNipWCDo3nqNG3Rcc5sO5foc0l+Zs+lSI9PPrklT0lMZ
L4wC6JhOQfLEx/vFV3Zyjtv8Qf4vhHM62tODwzWKAKPdt1hggiUN+wHu4n395Wp0
MXckd56XfbpEv2y0BvfHntDhzB9dWuk4V/Op4weyVJvNaOtcsK8aCSVy2podAw6O
xz/6x/5FVczNWwx7XHpIB0S74di9bHrQPK9TDZ1trybvOxdhryz/wiqVHktfoYV+
zC4kQpCt1aA0Gs1PBgnjlJxrmAQaVHnIz3JiNK8=
-----END CERTIFICATE-----
