-----BEGIN PRIVATE KEY-----
MIIEvAIBADANBgkqhkiG9w0BAQEFAASCBKYwggSiAgEAAoIBAQDgU/TzmMEUMwLI
pG3+qir3lD2mbwDfO95Mn6PqB9Ss5VsN0azg7fnFmB01LeWzSZcUhUQP3EzSZwiI
AaXYp+uT0Wqh91HnhH5SKn28bw7Y27amPt7c9aRolkQRhQLtRxLfuGBxlXtih2h6
RFYJ1bTI8fbJRpKLaOiD1dWGcSPDgB6/bAHH0qS8QG3g48AuMHi9rd0lZtP1BwdW
187icsUlfQzhp28AqNqrS1RDCWSktlI4L7fMAd0cAycDR7/f5jew7RjcUQvUdSLf
UHs86zc5HJtvCHunBayMQ/fx2lEGs4JFPsiBc56wpc92lq+BLKwBKkpYSx2+/x+F
wife8XgLAgMBAAECggEAO0gUmHdKtvLQDoPdiYogtrKXJC97dILWuTsKzyLoohQu
XtWFMR/SfNQ5C7+oTxvocATTurlGF+ggigidckbV64dQ/aJlI6CQ3VfbSHu02bwe
ZYqBzLShkP382QBkiJ3asAKCgiG1rJEKHB2I+ypdjyjaRdB/k5XStFxDBDdL8zKe
kL1hytf1ALxYBQJ3TXcoIqlpzz6v+JnZTAuu4vrySfffyFTrytIwf/KGlBACBqXe
oV+DK586PiyC0m1Hhy1rLTi2/IT4t4j3KO+c/OnpWkMEg1G/Ojy1zPMsMHr1VO9t
UWxhEIYOLQVUOT+2ltO4bRJcgEPHSxlIY23qalJgqQKBgQD9oZwHPhLZg439Zr9O
Zgl5fFkPe4SxqLY+ggE5O81+3RgL8GyAuy9oDtUGcw8L9tpKcBflqH4jEvUvT1/m
8BGKIQteqcKbY0C+KfPvq77R4k2KqmxpKF5f4BS/9O7cgzJZwhSFKDLtcKtDIPUK
3eoERuPB4/cmhQyb+/TKofZpfwKBgQDibEm1+nYj3tIXDxK3hZHjPz0s9vYV84py
zg3HjuEmdacnhNPQQQpNG83RMjEnnBvHWH2vxRWyD+57r/FWeA60aUJo5WIP0rj8
z6GqFT9IWaBrJtBU1YoxuyTH64yih6ljvm2skIEGlQYS+GBL9K/Tx4mh4lAKVzD5
GXVqtyM/dQKBgFD0Ik8VewK+QLXe87TcUK3cCLkuXZ4vEWxGJonUErUpcKFu7dLw
7CK0iT3zv5u8ANS9joMZEpmzVVryZNPbUF3cSjq+yIS8W0/XKCsZkGCBcOqPlubB
oc3MQhM65HqxzYJkthQCTq8GxUM547zCNA2FavDaCGrdELdA5lM++t2VAoGAMLem
AH68bqlhwM5gc5ZMtn2D1ynn9v8oudz2AAsRDKph5dHhlTx5T+/8j9dh1ijznSfA
G1KngWGGKZzIq5c3ar//Jvy75bWsUdEG8saRkCqgpo16Y9ZyXpLqrg1TfCD+ZFSz
2l5ZNKZZ4TkJ1y31qvaS+X7tQ9xQ0DgXGHgBIIUCgYABBBddUXpOyG54HvFHIgxS
esBBkpM0uy3vOkyfMown2GCjKZaXS5kEmRwU9WQQKLPf2ieALgYEf87YGWmPNZNF
tG5DoNhTMsrYORB11tuuBR1e6lrG/aoOkP/4udWC8d4Yp9wnkEu0l6X/kMfq2lb1
67bBVmHqKJ0t8rytHzkP0Q==
-----END PRIVATE KEY-----
Certificate:
    Data:
        Version: 3 (0x2)
        Serial Number:
            12:f6:d9:f1:80:1b:50:9f:64:09:c8:ea:2f:16:33:a5
        Signature Algorithm: sha256WithRSAEncryption
        Issuer: C=US, ST=California, L=Mountain View, O=Test CA, CN=Test Root CA
        Validity
            Not Before: Dec  1 15:42:07 2021 GMT
            Not After : Dec  1 15:42:07 2023 GMT
        Subject: CN=Leaf Certificate
        Subject Public Key Info:
            Public Key Algorithm: rsaEncryption
                RSA Public-Key: (2048 bit)
                Modulus:
                    00:e0:53:f4:f3:98:c1:14:33:02:c8:a4:6d:fe:aa:
                    2a:f7:94:3d:a6:6f:00:df:3b:de:4c:9f:a3:ea:07:
                    d4:ac:e5:5b:0d:d1:ac:e0:ed:f9:c5:98:1d:35:2d:
                    e5:b3:49:97:14:85:44:0f:dc:4c:d2:67:08:88:01:
                    a5:d8:a7:eb:93:d1:6a:a1:f7:51:e7:84:7e:52:2a:
                    7d:bc:6f:0e:d8:db:b6:a6:3e:de:dc:f5:a4:68:96:
                    44:11:85:02:ed:47:12:df:b8:60:71:95:7b:62:87:
                    68:7a:44:56:09:d5:b4:c8:f1:f6:c9:46:92:8b:68:
                    e8:83:d5:d5:86:71:23:c3:80:1e:bf:6c:01:c7:d2:
                    a4:bc:40:6d:e0:e3:c0:2e:30:78:bd:ad:dd:25:66:
                    d3:f5:07:07:56:d7:ce:e2:72:c5:25:7d:0c:e1:a7:
                    6f:00:a8:da:ab:4b:54:43:09:64:a4:b6:52:38:2f:
                    b7:cc:01:dd:1c:03:27:03:47:bf:df:e6:37:b0:ed:
                    18:dc:51:0b:d4:75:22:df:50:7b:3c:eb:37:39:1c:
                    9b:6f:08:7b:a7:05:ac:8c:43:f7:f1:da:51:06:b3:
                    82:45:3e:c8:81:73:9e:b0:a5:cf:76:96:af:81:2c:
                    ac:01:2a:4a:58:4b:1d:be:ff:1f:85:c2:27:de:f1:
                    78:0b
                Exponent: 65537 (0x10001)
        X509v3 extensions:
            X509v3 Basic Constraints: critical
                CA:FALSE
            X509v3 Subject Key Identifier: 
                E2:E0:A4:73:95:9B:E9:6E:FD:CE:29:C4:6F:07:81:0B:96:BD:47:BA
            X509v3 Authority Key Identifier: 
                keyid:9B:26:0B:8A:98:A9:BB:1D:B9:1F:1C:E3:1A:40:33:ED:8E:17:88:AB

            X509v3 Extended Key Usage: 
                TLS Web Server Authentication, TLS Web Client Authentication
            X509v3 Subject Alternative Name: 
                DNS:test.ExAmPlE.CoM, DNS:example.notarealtld, DNS:*.test2.ExAmPlE.CoM, DNS:*.example2.notarealtld
    Signature Algorithm: sha256WithRSAEncryption
         59:dd:8d:b5:5e:17:6b:2d:0a:80:17:55:11:75:8e:54:ae:65:
         40:1f:7d:a0:78:cf:d2:7d:d7:e4:1c:63:f2:1a:c3:24:20:2a:
         67:dd:e4:d3:02:e5:c7:d8:ae:a0:cb:5a:4c:96:3a:a7:2a:1d:
         33:c0:8d:1b:f9:ce:50:ec:db:16:ff:08:39:03:0f:35:d6:52:
         8e:62:a5:4d:28:80:60:c4:62:ad:4d:be:cb:66:34:b0:98:c1:
         7b:b8:6d:dd:10:1f:11:06:fc:3e:4d:2e:97:4d:4a:0b:28:86:
         ae:93:9a:bf:ca:85:6c:b2:e7:2e:c9:23:a9:9a:c3:c9:32:95:
         03:dd:61:8c:d2:04:d8:ea:61:01:b0:7f:d0:14:c9:e4:c7:cf:
         a3:c7:0c:02:b3:ae:6f:52:ce:52:66:d0:3e:94:bd:c2:c0:ea:
         38:29:42:ee:dd:5b:4b:54:97:93:51:81:2e:b0:28:39:92:4b:
         95:91:c5:92:9e:d7:bf:4e:8a:b5:5f:4c:7d:bd:28:64:71:94:
         f6:67:9b:80:3e:e5:e2:33:13:ad:ef:10:89:23:84:d4:a9:45:
         95:a5:ce:10:61:f6:be:1d:19:dd:3c:80:14:3d:bc:3f:f5:39:
         86:96:48:36:32:37:cf:91:65:d9:5a:d5:4d:6a:9a:69:4b:dc:
         2b:a7:c1:41
-----BEGIN CERTIFICATE-----
MIID2DCCAsCgAwIBAgIQEvbZ8YAbUJ9kCcjqLxYzpTANBgkqhkiG9w0BAQsFADBj
MQswCQYDVQQGEwJVUzETMBEGA1UECAwKQ2FsaWZvcm5pYTEWMBQGA1UEBwwNTW91
bnRhaW4gVmlldzEQMA4GA1UECgwHVGVzdCBDQTEVMBMGA1UEAwwMVGVzdCBSb290
IENBMB4XDTIxMTIwMTE1NDIwN1oXDTIzMTIwMTE1NDIwN1owGzEZMBcGA1UEAwwQ
TGVhZiBDZXJ0aWZpY2F0ZTCCASIwDQYJKoZIhvcNAQEBBQADggEPADCCAQoCggEB
AOBT9POYwRQzAsikbf6qKveUPaZvAN873kyfo+oH1KzlWw3RrODt+cWYHTUt5bNJ
lxSFRA/cTNJnCIgBpdin65PRaqH3UeeEflIqfbxvDtjbtqY+3tz1pGiWRBGFAu1H
Et+4YHGVe2KHaHpEVgnVtMjx9slGkoto6IPV1YZxI8OAHr9sAcfSpLxAbeDjwC4w
eL2t3SVm0/UHB1bXzuJyxSV9DOGnbwCo2qtLVEMJZKS2Ujgvt8wB3RwDJwNHv9/m
N7DtGNxRC9R1It9QezzrNzkcm28Ie6cFrIxD9/HaUQazgkU+yIFznrClz3aWr4Es
rAEqSlhLHb7/H4XCJ97xeAsCAwEAAaOBzzCBzDAMBgNVHRMBAf8EAjAAMB0GA1Ud
DgQWBBTi4KRzlZvpbv3OKcRvB4ELlr1HujAfBgNVHSMEGDAWgBSbJguKmKm7Hbkf
HOMaQDPtjheIqzAdBgNVHSUEFjAUBggrBgEFBQcDAQYIKwYBBQUHAwIwXQYDVR0R
BFYwVIIQdGVzdC5FeEFtUGxFLkNvTYITZXhhbXBsZS5ub3RhcmVhbHRsZIITKi50
ZXN0Mi5FeEFtUGxFLkNvTYIWKi5leGFtcGxlMi5ub3RhcmVhbHRsZDANBgkqhkiG
9w0BAQsFAAOCAQEAWd2NtV4Xay0KgBdVEXWOVK5lQB99oHjP0n3X5Bxj8hrDJCAq
Z93k0wLlx9iuoMtaTJY6pyodM8CNG/nOUOzbFv8IOQMPNdZSjmKlTSiAYMRirU2+
y2Y0sJjBe7ht3RAfEQb8Pk0ul01KCyiGrpOav8qFbLLnLskjqZrDyTKVA91hjNIE
2OphAbB/0BTJ5MfPo8cMArOub1LOUmbQPpS9wsDqOClC7t1bS1SXk1GBLrAoOZJL
lZHFkp7Xv06KtV9Mfb0oZHGU9mebgD7l4jMTre8QiSOE1KlFlaXOEGH2vh0Z3TyA
FD28P/U5hpZINjI3z5Fl2VrVTWqaaUvcK6fBQQ==
-----END CERTIFICATE-----
