-----BEGIN PRIVATE KEY-----
MIIEvQIBADANBgkqhkiG9w0BAQEFAASCBKcwggSjAgEAAoIBAQCwOdQrS3Jk6jJb
Na2O4BadbxtUobCnikBNFFHn+Lof7YXQmy0DMiHL0iOhzt9ZcuRTLFzoYUvJk3Tm
S8h7Vdj4sIvF1k8E0MCWwY2rsFbgZilV276UQr+hzMncbzU5cfgMcOlHfpycBg8U
i4ygVUgttEWzilGA6NH9Vi7e4cb9DJyAI4AZXJI+B7d2n9HYxAuF1V417dpADz5g
CznwFQI+i9uzITlAwWaIsZJ6GvvpSfnOFFFppbRLCLr8MTRLYv8efWYh9HcG0LFe
vxuhtzYIIi40tzXTEYYnFhrx+HpuAR/pza/ewtvX2sVkXhr4n1B2m4+XfWHoVE4Y
D725dY55AgMBAAECggEAVcLu5FsFQuNOumC3JC8eEmP98wP1SrPXcyuOaMv9GIip
dMnv7/w3wk90E8zvmUJ2p5uRY23mSiU+4MzEtnEi9HRGsXMIZZmKAFQVtBZPUUmm
mCgm6VRKml1lZ6efSWOTicpxXN/bK3svX5pCR8z5IXT37tZDr+6eMyH8EW/jPUZU
wA/LVpmfRkcLg8VF6J70yj60peU3234b5Z9QLkR80g9U9Sj1QQhuDRAO97zireru
QwFixeazgXzWPTk3iol6GiDbus9T0WGeUAWYZ8XyJ1voNHRNg9dfvpLAc0UBQ5Ho
7Au6fYWQ8cEmYFIC5X46k/fZhZNgludUlQLfMsI1AQKBgQDin873bebHXpoFGXR3
Sn8obsieSWwHCDU2gp+K8JwPtip1PrVfA1KW/wBo938zqpBZDAOOFGGl4x08wLmm
WnlrPOsrcehDbiGTPheBPvOS11/v6IxoOVLLUnDaQIX9j8eOGG/WM0pan8wNG9Vz
WHQduZcBQlKoyXjjJ84avorh8QKBgQDHEaAJab8sK//lCYrCpTfbS2tYCfc9b7Nx
m/6GCJnxqVYfal9ocGd7U7RO7okDQAMyvwSpI9ejTDF8tO4BNHCgvi6rKK3Fj/CJ
bgw8rCP1BOKLvDK/7A7/v1KqvYHtODnCH0iTVK/R/Oq2Jws0m88uSkANm1w2t+SG
JVk/ymBtCQKBgC0L/RTbyKrKmCz5UVhA+6Oq2b/08j83l3Q9ZL82cp8A49GoZF79
hxYym/9Bawx3E/hPVgmQ7ZQO4AnqeTyi8U2qr0hUfQmiQ5REHGH5hGsk2pISlI5H
DrkRqxMHDltHkDAjlV9rlJUM/H+Cj9w8seASuvxqFYotehUVHXfddjfRAoGAYUXj
hbX+jH8Tk7+N5n8FREseMO7tuT+T17f6L1SUpNmyE7fO1yHV7xV/zfIRUV0+MtXU
WTICdPEOXXmrszsErgdAlrJR92/WgdEcealECL5SVSWpRs76pU2//16K1nfbAVh4
BkYjg+CqcEez2gkou93cXsnDzZkeOc6WRe2GIMECgYEApyMBng9jXOD1Qw2CpWeC
kO/GL98UXAvQAnQB1YepWDmbW2OxpXZ5TI5wQkJxE7z7EJkIm6Vq0fcHtDNwGWBq
2zLyUW+QdR53eGEkhHNzq0hFWVMCaDbO6UNa1OFZqN/WSBFB3z4F0XAZ1ZX+PaFm
NqcJRJ7sL5XqgAdRqcTTFcA=
-----END PRIVATE KEY-----
Certificate:
    Data:
        Version: 3 (0x2)
        Serial Number:
            b0:6b:93:92:e3:5c:8d:7e:ed:9d:c8:96:59:c5:c2:69
        Signature Algorithm: sha256WithRSAEncryption
        Issuer: C=US, ST=California, L=Mountain View, O=Test CA, CN=Test Root CA
        Validity
            Not Before: Oct  3 17:20:08 2022 GMT
            Not After : Oct  2 17:20:08 2024 GMT
        Subject: CN=Leaf Certificate
        Subject Public Key Info:
            Public Key Algorithm: rsaEncryption
                Public-Key: (2048 bit)
                Modulus:
                    00:b0:39:d4:2b:4b:72:64:ea:32:5b:35:ad:8e:e0:
                    16:9d:6f:1b:54:a1:b0:a7:8a:40:4d:14:51:e7:f8:
                    ba:1f:ed:85:d0:9b:2d:03:32:21:cb:d2:23:a1:ce:
                    df:59:72:e4:53:2c:5c:e8:61:4b:c9:93:74:e6:4b:
                    c8:7b:55:d8:f8:b0:8b:c5:d6:4f:04:d0:c0:96:c1:
                    8d:ab:b0:56:e0:66:29:55:db:be:94:42:bf:a1:cc:
                    c9:dc:6f:35:39:71:f8:0c:70:e9:47:7e:9c:9c:06:
                    0f:14:8b:8c:a0:55:48:2d:b4:45:b3:8a:51:80:e8:
                    d1:fd:56:2e:de:e1:c6:fd:0c:9c:80:23:80:19:5c:
                    92:3e:07:b7:76:9f:d1:d8:c4:0b:85:d5:5e:35:ed:
                    da:40:0f:3e:60:0b:39:f0:15:02:3e:8b:db:b3:21:
                    39:40:c1:66:88:b1:92:7a:1a:fb:e9:49:f9:ce:14:
                    51:69:a5:b4:4b:08:ba:fc:31:34:4b:62:ff:1e:7d:
                    66:21:f4:77:06:d0:b1:5e:bf:1b:a1:b7:36:08:22:
                    2e:34:b7:35:d3:11:86:27:16:1a:f1:f8:7a:6e:01:
                    1f:e9:cd:af:de:c2:db:d7:da:c5:64:5e:1a:f8:9f:
                    50:76:9b:8f:97:7d:61:e8:54:4e:18:0f:bd:b9:75:
                    8e:79
                Exponent: 65537 (0x10001)
        X509v3 extensions:
            X509v3 Basic Constraints: critical
                CA:FALSE
            X509v3 Subject Key Identifier: 
                E4:C5:B8:15:7B:F4:26:F0:4D:EB:27:D8:97:34:01:10:F5:96:D2:BE
            X509v3 Authority Key Identifier: 
                9B:26:0B:8A:98:A9:BB:1D:B9:1F:1C:E3:1A:40:33:ED:8E:17:88:AB
            X509v3 Extended Key Usage: 
                TLS Web Server Authentication, TLS Web Client Authentication
            X509v3 Subject Alternative Name: 
                DNS:test.ExAmPlE.CoM, DNS:example.notarealtld, DNS:*.test2.ExAmPlE.CoM, DNS:*.example2.notarealtld
    Signature Algorithm: sha256WithRSAEncryption
    Signature Value:
        81:4c:eb:d7:f4:86:9d:af:82:b0:eb:e2:64:47:7a:3b:4f:f7:
        1a:0d:8d:d0:02:bf:20:52:cd:5e:d7:ec:3a:1d:f7:24:ef:fa:
        a1:24:f1:ba:d0:4b:e5:e1:9c:2b:ed:72:51:81:e8:17:8c:ca:
        ea:d2:da:b9:87:dd:56:9a:ec:8b:bb:05:aa:a7:eb:6e:4c:10:
        42:d8:1d:88:be:91:58:9e:3d:da:6f:32:2e:83:ec:33:fe:d3:
        11:c2:0a:ad:c5:c2:33:42:fb:05:04:f2:b3:c5:1e:32:95:d1:
        4c:7c:67:82:c8:41:f7:84:37:86:a3:92:db:98:9d:87:c7:ed:
        57:57:a6:27:35:59:d9:3b:ea:45:9e:1e:6f:76:b8:ea:65:bb:
        52:ae:80:f7:c1:fe:19:68:bb:cc:74:b6:60:8d:c7:12:a1:f4:
        30:c4:cd:85:7b:35:48:8d:38:6a:3f:09:aa:fd:31:c1:da:7a:
        68:ab:63:6e:7e:75:ac:91:30:24:ae:c9:a6:2e:1b:34:88:e4:
        f2:b5:37:73:41:1c:a9:95:d3:f9:03:b7:95:31:c1:a8:d6:72:
        fc:64:40:53:c8:91:90:08:27:fd:e2:ac:d1:c4:2e:91:9b:a0:
        61:02:fd:97:44:15:51:aa:f7:e5:66:1d:bf:69:af:f2:b6:6f:
        01:bd:af:c2
-----BEGIN CERTIFICATE-----
MIID2TCCAsGgAwIBAgIRALBrk5LjXI1+7Z3IllnFwmkwDQYJKoZIhvcNAQELBQAw
YzELMAkGA1UEBhMCVVMxEzARBgNVBAgMCkNhbGlmb3JuaWExFjAUBgNVBAcMDU1v
dW50YWluIFZpZXcxEDAOBgNVBAoMB1Rlc3QgQ0ExFTATBgNVBAMMDFRlc3QgUm9v
dCBDQTAeFw0yMjEwMDMxNzIwMDhaFw0yNDEwMDIxNzIwMDhaMBsxGTAXBgNVBAMM
EExlYWYgQ2VydGlmaWNhdGUwggEiMA0GCSqGSIb3DQEBAQUAA4IBDwAwggEKAoIB
AQCwOdQrS3Jk6jJbNa2O4BadbxtUobCnikBNFFHn+Lof7YXQmy0DMiHL0iOhzt9Z
cuRTLFzoYUvJk3TmS8h7Vdj4sIvF1k8E0MCWwY2rsFbgZilV276UQr+hzMncbzU5
cfgMcOlHfpycBg8Ui4ygVUgttEWzilGA6NH9Vi7e4cb9DJyAI4AZXJI+B7d2n9HY
xAuF1V417dpADz5gCznwFQI+i9uzITlAwWaIsZJ6GvvpSfnOFFFppbRLCLr8MTRL
Yv8efWYh9HcG0LFevxuhtzYIIi40tzXTEYYnFhrx+HpuAR/pza/ewtvX2sVkXhr4
n1B2m4+XfWHoVE4YD725dY55AgMBAAGjgc8wgcwwDAYDVR0TAQH/BAIwADAdBgNV
HQ4EFgQU5MW4FXv0JvBN6yfYlzQBEPWW0r4wHwYDVR0jBBgwFoAUmyYLipipux25
HxzjGkAz7Y4XiKswHQYDVR0lBBYwFAYIKwYBBQUHAwEGCCsGAQUFBwMCMF0GA1Ud
EQRWMFSCEHRlc3QuRXhBbVBsRS5Db02CE2V4YW1wbGUubm90YXJlYWx0bGSCEyou
dGVzdDIuRXhBbVBsRS5Db02CFiouZXhhbXBsZTIubm90YXJlYWx0bGQwDQYJKoZI
hvcNAQELBQADggEBAIFM69f0hp2vgrDr4mRHejtP9xoNjdACvyBSzV7X7Dod9yTv
+qEk8brQS+XhnCvtclGB6BeMyurS2rmH3Vaa7Iu7Baqn625MEELYHYi+kViePdpv
Mi6D7DP+0xHCCq3FwjNC+wUE8rPFHjKV0Ux8Z4LIQfeEN4ajktuYnYfH7VdXpic1
Wdk76kWeHm92uOplu1KugPfB/hlou8x0tmCNxxKh9DDEzYV7NUiNOGo/Car9McHa
emirY25+dayRMCSuyaYuGzSI5PK1N3NBHKmV0/kDt5UxwajWcvxkQFPIkZAIJ/3i
rNHELpGboGEC/ZdEFVGq9+VmHb9pr/K2bwG9r8I=
-----END CERTIFICATE-----
