Certificate:
    Data:
        Version: 3 (0x2)
        Serial Number:
            ae:42:1e:0d:b1:00:6a:69:30:b1:86:8d:07:dc:40:79
        Signature Algorithm: sha256WithRSAEncryption
        Issuer: CN = intermediate for case folding comparison
        Validity
            Not Before: Jan  1 06:00:00 2010 GMT
            Not After : Dec  1 06:00:00 2032 GMT
        Subject: CN = Leaf for case folding comparison
        Subject Public Key Info:
            Public Key Algorithm: rsaEncryption
                RSA Public-Key: (2048 bit)
                Modulus:
                    00:cd:12:d3:17:b3:9c:fb:b1:60:fb:1d:c9:c9:f0:
                    dc:8f:ef:36:04:dd:a4:d8:c5:57:39:2c:e1:d6:16:
                    48:37:13:f7:82:16:ca:db:ef:d1:c7:6e:a0:f3:bb:
                    be:41:0e:24:b2:33:b1:b7:35:83:92:2b:09:31:4e:
                    24:9b:2c:fd:e1:be:09:95:e1:3f:16:0f:b6:30:c1:
                    0d:44:77:50:da:20:ff:aa:48:80:00:67:17:fe:aa:
                    3e:4d:b6:02:e4:f5:11:b5:cc:31:2f:77:0f:44:b0:
                    37:78:4e:ff:ec:62:64:0f:94:8a:a1:89:c3:76:9f:
                    03:bd:d0:e2:2a:36:ec:fa:59:51:f5:57:7d:e1:95:
                    a4:fb:a3:3c:87:9b:65:79:68:b7:91:38:fd:7a:b3:
                    89:a9:96:85:22:f7:38:9c:60:52:be:1f:f7:8b:c1:
                    68:d3:ea:96:1e:13:2a:04:4e:ba:33:ac:07:ea:d9:
                    53:67:c7:b8:15:e9:1e:ca:92:4d:91:4f:d0:d8:11:
                    34:9b:8b:f5:00:70:7b:a7:1a:43:a2:90:1a:54:5f:
                    34:e1:79:2e:72:65:4f:66:49:fa:b9:71:6f:4b:a1:
                    73:79:ee:80:42:18:6b:bb:a9:b9:ba:c4:16:a6:04:
                    74:cc:60:68:6f:0e:6e:4b:01:25:9c:c3:cb:58:73:
                    ed:f9
                Exponent: 65537 (0x10001)
        X509v3 extensions:
            X509v3 Subject Alternative Name: 
                DNS:example.test, IP Address:127.0.0.1
            X509v3 Certificate Policies: 
                Policy: 1.3.6.1.4.1.11129.2.4.1

    Signature Algorithm: sha256WithRSAEncryption
         55:e5:e4:83:89:65:9f:e3:1c:dd:7a:cc:df:36:8f:b8:13:09:
         f2:12:2c:1a:cc:c6:7f:4b:a0:a8:c9:5d:d2:16:d6:97:db:c6:
         99:4e:44:68:bc:7e:d0:6c:8d:56:6c:86:a3:cd:af:42:da:d3:
         0b:e5:f9:22:9d:aa:c8:e1:71:39:a3:36:68:19:d1:b5:f1:7e:
         bc:23:9b:fc:ea:ee:a7:8c:0d:3d:e8:ff:4b:9f:46:b9:d9:7a:
         9a:77:40:d7:fa:63:76:52:61:64:f2:a2:8c:2a:61:83:d9:aa:
         37:6c:db:a4:a2:2d:41:03:cc:5a:3c:09:6c:2e:10:5d:82:4d:
         25:61:ad:12:21:4b:83:f2:6b:e1:4b:dd:3f:c1:e2:4f:32:f1:
         72:cd:cc:49:cb:33:c5:bf:b4:78:07:13:83:b6:9f:eb:c8:11:
         b7:90:17:54:90:1b:df:0d:a5:76:8c:f8:68:ec:b9:c1:6f:7a:
         70:86:8a:10:e0:41:2c:c1:e1:c6:f8:9e:12:40:f4:87:2b:4e:
         5a:88:b1:06:f8:52:6a:54:0b:78:b1:97:b4:bf:0e:bf:45:92:
         1f:2f:b1:2e:87:11:e3:b7:02:fe:fa:cb:8e:a2:10:f1:10:5d:
         05:56:03:ba:9b:8c:39:b3:d7:29:cf:58:c7:f0:ed:87:15:29:
         d3:8f:9e:92
-----BEGIN CERTIFICATE-----
MIIDIzCCAgugAwIBAgIRAK5CHg2xAGppMLGGjQfcQHkwDQYJKoZIhvcNAQELBQAw
MzExMC8GA1UEAxMoaW50ZXJtZWRpYXRlIGZvciBjYXNlIGZvbGRpbmcgY29tcGFy
aXNvbjAeFw0xMDAxMDEwNjAwMDBaFw0zMjEyMDEwNjAwMDBaMCsxKTAnBgNVBAMT
IExlYWYgZm9yIGNhc2UgZm9sZGluZyBjb21wYXJpc29uMIIBIjANBgkqhkiG9w0B
AQEFAAOCAQ8AMIIBCgKCAQEAzRLTF7Oc+7Fg+x3JyfDcj+82BN2k2MVXOSzh1hZI
NxP3ghbK2+/Rx26g87u+QQ4ksjOxtzWDkisJMU4kmyz94b4JleE/Fg+2MMENRHdQ
2iD/qkiAAGcX/qo+TbYC5PURtcwxL3cPRLA3eE7/7GJkD5SKoYnDdp8DvdDiKjbs
+llR9Vd94ZWk+6M8h5tleWi3kTj9erOJqZaFIvc4nGBSvh/3i8Fo0+qWHhMqBE66
M6wH6tlTZ8e4FekeypJNkU/Q2BE0m4v1AHB7pxpDopAaVF804XkucmVPZkn6uXFv
S6Fzee6AQhhru6m5usQWpgR0zGBobw5uSwElnMPLWHPt+QIDAQABozowODAdBgNV
HREEFjAUggxleGFtcGxlLnRlc3SHBH8AAAEwFwYDVR0gBBAwDjAMBgorBgEEAdZ5
AgQBMA0GCSqGSIb3DQEBCwUAA4IBAQBV5eSDiWWf4xzdeszfNo+4EwnyEiwazMZ/
S6CoyV3SFtaX28aZTkRovH7QbI1WbIajza9C2tML5fkinarI4XE5ozZoGdG18X68
I5v86u6njA096P9Ln0a52Xqad0DX+mN2UmFk8qKMKmGD2ao3bNukoi1BA8xaPAls
LhBdgk0lYa0SIUuD8mvhS90/weJPMvFyzcxJyzPFv7R4BxODtp/ryBG3kBdUkBvf
DaV2jPho7LnBb3pwhooQ4EEsweHG+J4SQPSHK05aiLEG+FJqVAt4sZe0vw6/RZIf
L7EuhxHjtwL++suOohDxEF0FVgO6m4w5s9cpz1jH8O2HFSnTj56S
-----END CERTIFICATE-----

Certificate:
    Data:
        Version: 3 (0x2)
        Serial Number:
            09:cc:53:82:46:23:f7:28:e0:96:73:86:c4:50:79:9e
        Signature Algorithm: sha256WithRSAEncryption
        Issuer: CN = Testing CA
        Validity
            Not Before: Jan  1 06:00:00 2010 GMT
            Not After : Dec  1 06:00:00 2032 GMT
        Subject: CN = Intermediate for case folding comparison
        Subject Public Key Info:
            Public Key Algorithm: rsaEncryption
                RSA Public-Key: (2048 bit)
                Modulus:
                    00:c6:61:af:cc:65:9f:88:85:5a:83:ad:e8:fb:79:
                    2d:c1:3d:0c:f3:88:b1:7b:ec:e9:14:9c:f0:b8:55:
                    6d:27:b1:91:01:d0:81:fb:2a:84:2d:13:a2:ac:95:
                    d8:30:8d:dd:66:78:38:43:ec:c5:80:65:13:95:9e:
                    b6:b3:0d:d6:9b:28:45:d9:7e:10:d0:bb:bf:65:3d:
                    68:6d:c8:82:89:35:02:2c:c9:6f:9e:03:0b:56:71:
                    57:25:7d:3d:65:26:73:40:80:bb:97:27:ce:e0:d3:
                    0f:42:09:d5:82:0e:1d:66:2f:35:8f:c7:89:c0:e9:
                    36:6d:84:f8:9a:df:1b:eb:8d:84:3f:74:e6:f3:25:
                    87:6a:c3:5d:5c:11:69:1f:cb:29:69:67:c0:6e:df:
                    69:45:0c:16:bb:23:14:c1:45:99:fe:90:72:5d:5e:
                    c9:0f:2d:b6:69:8a:fa:e7:2b:ba:0c:fb:f7:79:67:
                    c7:e8:b4:9f:21:72:f9:38:18:27:c2:7a:b7:f9:47:
                    1c:62:bd:8d:a4:a6:c6:57:96:6e:c1:38:5c:f4:1d:
                    73:94:49:83:58:88:f3:0d:64:97:16:19:dc:d3:80:
                    40:8c:d7:4f:25:c3:be:19:83:3a:92:62:0c:9c:f7:
                    10:da:67:e1:5a:c8:ce:f6:9b:c7:e4:e5:e7:f8:13:
                    c1:ed
                Exponent: 65537 (0x10001)
        X509v3 extensions:
            X509v3 Basic Constraints: critical
                CA:TRUE
            X509v3 Certificate Policies: 
                Policy: 1.3.6.1.4.1.11129.2.4.1

    Signature Algorithm: sha256WithRSAEncryption
         b8:e0:27:8e:6f:76:22:82:5d:d6:aa:9c:f1:8d:f2:67:be:d5:
         57:e9:79:a2:1f:a0:e7:20:e8:f8:c6:d9:8e:60:4d:57:22:9a:
         bb:bc:10:d2:7e:6a:73:52:7c:b8:04:50:91:db:2d:31:db:da:
         ba:0b:28:93:3d:2a:3d:78:1f:23:f6:df:46:a6:25:be:22:b2:
         7d:fb:5c:97:fc:80:f1:86:69:0a:f8:29:90:5e:5f:61:bc:dc:
         03:5c:6e:6e:46:f9:61:5c:51:33:dd:04:fa:bf:20:da:fc:b9:
         0c:15:12:8d:c1:ae:57:d4:15:bc:b4:01:be:86:5e:03:e2:6e:
         a9:39:7a:a9:37:44:f1:19:dd:5b:21:2c:ba:6b:d1:12:52:31:
         a1:58:c8:0f:d5:8c:db:10:44:7d:73:be:97:5f:0e:6a:88:1c:
         da:cc:71:d6:f0:68:34:e4:94:9a:cd:4c:a0:51:86:6d:ef:e4:
         b4:29:39:2a:48:0c:5b:ad:c8:86:90:be:73:8d:3b:be:5e:a6:
         17:7a:98:6b:0a:7b:89:00:e3:7f:f7:db:0a:29:13:23:7a:bc:
         01:4d:f6:b0:59:60:1b:b7:91:d1:ec:e9:44:42:85:3d:8f:db:
         64:d0:72:45:98:11:8f:2d:5b:81:ff:00:99:67:00:e3:3d:10:
         f4:fa:d0:7e
-----BEGIN CERTIFICATE-----
MIIC/jCCAeagAwIBAgIQCcxTgkYj9yjglnOGxFB5njANBgkqhkiG9w0BAQsFADAV
MRMwEQYDVQQDEwpUZXN0aW5nIENBMB4XDTEwMDEwMTA2MDAwMFoXDTMyMTIwMTA2
MDAwMFowMzExMC8GA1UEAxMoSW50ZXJtZWRpYXRlIGZvciBjYXNlIGZvbGRpbmcg
Y29tcGFyaXNvbjCCASIwDQYJKoZIhvcNAQEBBQADggEPADCCAQoCggEBAMZhr8xl
n4iFWoOt6Pt5LcE9DPOIsXvs6RSc8LhVbSexkQHQgfsqhC0ToqyV2DCN3WZ4OEPs
xYBlE5WetrMN1psoRdl+ENC7v2U9aG3Igok1AizJb54DC1ZxVyV9PWUmc0CAu5cn
zuDTD0IJ1YIOHWYvNY/HicDpNm2E+JrfG+uNhD905vMlh2rDXVwRaR/LKWlnwG7f
aUUMFrsjFMFFmf6Qcl1eyQ8ttmmK+ucrugz793lnx+i0nyFy+TgYJ8J6t/lHHGK9
jaSmxleWbsE4XPQdc5RJg1iI8w1klxYZ3NOAQIzXTyXDvhmDOpJiDJz3ENpn4VrI
zvabx+Tl5/gTwe0CAwEAAaMsMCowDwYDVR0TAQH/BAUwAwEB/zAXBgNVHSAEEDAO
MAwGCisGAQQB1nkCBAEwDQYJKoZIhvcNAQELBQADggEBALjgJ45vdiKCXdaqnPGN
8me+1VfpeaIfoOcg6PjG2Y5gTVcimru8ENJ+anNSfLgEUJHbLTHb2roLKJM9Kj14
HyP230amJb4isn37XJf8gPGGaQr4KZBeX2G83ANcbm5G+WFcUTPdBPq/INr8uQwV
Eo3BrlfUFby0Ab6GXgPibqk5eqk3RPEZ3VshLLpr0RJSMaFYyA/VjNsQRH1zvpdf
DmqIHNrMcdbwaDTklJrNTKBRhm3v5LQpOSpIDFutyIaQvnONO75ephd6mGsKe4kA
43/32wopEyN6vAFN9rBZYBu3kdHs6URChT2P22TQckWYEY8tW4H/AJlnAOM9EPT6
0H4=
-----END CERTIFICATE-----
