-----BEGIN PRIVATE KEY-----
MIIEvgIBADANBgkqhkiG9w0BAQEFAASCBKgwggSkAgEAAoIBAQCgluiYfh9lhgwx
d5rJhUpPoY+WJ67pPa1tdCTkeD3jowQ/MhNatUxMy/7O76pvBegUtrq29MPLcmvA
LeJYDcIJmh48pY/KrEUADZcDmrogQXQViCuaH/7ceKRxZu0FO7qBreyxgcu9nHkD
SP1X7ZefhEhOOKDsRXiQWpXTyDC/PeL/BMXkdoPGROEAx2RSyXETTCtby7HGsZ+w
nwXvdHUObpGmLErqiARhG39w7ZF40yV1hqy0DGw6CIV1q+JqLFMhZus+xSWkmFB4
V06haO2D0Xgl7t2prN9c7OQHJ+fQP/D+cL2kzbdJO7MGq5biEoXMCsnpm0hCAu+v
Hl/kE5xJAgMBAAECggEAHjVtITx+evpdolORwE1s1nB5ooEqB9G0pVWXGAxfdgol
Ix8wIVzf8sVgFDzk5ngpuXXLR13hVAzc5JytCqvh360IeZeaZkGERFeKHCE32Jf/
dop0S0ywBHjEVFnMhfK/qaPWVejo8uzznbDWCXuWDWmUsXQ5H2ENJjiIHTv4IY09
0DXiySiaeI1iiyToiv6Dt9dVpPuleJbY0LlRfZ1WrkcEB9r1kQqzJOdqM5iuDYWa
dCO9u8fbWPGRacL3ystrZqB0Od3s9G6h09D5Iv8QXpYHWp4E/Oea3kYKyFUDgPpH
1wH6fE9fER6RKOKyG1HBZL12HlNZnPv1v033Rs6WRQKBgQC3LnaYo1TkHX0j4t1X
iQisRWtE8espt1ZsxIErqiz+fJlHhQCJq2Lqz/uLHmqaM6M2ffVuXoFM8vZzlyXw
v23EPc8HGEhvw6iTm3uCdTQ2nXZbb4Gbw5lYOF6PDJfAhnn3XwaUUVCL67PAZvwq
j4hWKzmrfrrv8KRgvso9NB6fHQKBgQDgbVxLGofqhoE/tuoCfZMCC0vI3PZ5503B
XvTXg/J9lKsycwx74qKWBDchqG+MF1GQOwufDvx44QAcW/gNsdd6SJ/yLlf69m6V
HSGh3S3pUfFwT4wzY/rKbh0g8DSXm6J7BrMwID+RAwMjKzst1tqjCBH6HnNEHIfP
HRrJAwgOHQKBgQCcFUkUckeJP987TrlPNwJe15+5VXENUJyhfSabMBu6lCx/FkMJ
CzHz5lftiHNJBSrS6azQ6FHAYV3BzE6VvmcnSYs3/mbqZIslitxIotlkl/Mbof2L
3bSxyQY5WX+MmokeUKfohQje0G2PSbEgCsEeuyIekJN0k1Vc4fStBdX5uQKBgAuG
0mSxGiX7fovtMxupo3FJbz0DzEz6ik3SOLUQ+9VjW1+d9RgvzbXyxXofEouZbwD/
Z1tmA6WZuM28E4NwjOak8EIaCz7ChW93LZEIsSD4qnPgQg0pp2naOfjFHY5j2faD
o5RnM5yZEQIvaDy0ekpBUdsM0VLAPGFw1z1XwIQpAoGBALaN5OhHVZfy+RqTy+k/
Sa+eO/vghkdapdZwfnFYhJzD+sZKRBUiNwzZrAcNfijN/sTIcnMWbMcD6TSdh1qZ
RLd2m/U0T9avw0/aog+IXldkm7VjKf7+V+RIzoGOxmtCI1zVP9uldDYJDKAMabiu
kdec1ozHgh6Pg2G2d5nkPgI9
-----END PRIVATE KEY-----
Certificate:
    Data:
        Version: 3 (0x2)
        Serial Number: 1 (0x1)
        Signature Algorithm: sha256WithRSAEncryption
        Issuer: CN=2048 RSA Test Root CA
        Validity
            Not Before: Feb 17 17:08:50 2023 GMT
            Not After : Feb 14 17:08:50 2033 GMT
        Subject: C=US, ST=California, L=Mountain View, O=Test CA, CN=127.0.0.1
        Subject Public Key Info:
            Public Key Algorithm: rsaEncryption
                Public-Key: (2048 bit)
                Modulus:
                    00:a0:96:e8:98:7e:1f:65:86:0c:31:77:9a:c9:85:
                    4a:4f:a1:8f:96:27:ae:e9:3d:ad:6d:74:24:e4:78:
                    3d:e3:a3:04:3f:32:13:5a:b5:4c:4c:cb:fe:ce:ef:
                    aa:6f:05:e8:14:b6:ba:b6:f4:c3:cb:72:6b:c0:2d:
                    e2:58:0d:c2:09:9a:1e:3c:a5:8f:ca:ac:45:00:0d:
                    97:03:9a:ba:20:41:74:15:88:2b:9a:1f:fe:dc:78:
                    a4:71:66:ed:05:3b:ba:81:ad:ec:b1:81:cb:bd:9c:
                    79:03:48:fd:57:ed:97:9f:84:48:4e:38:a0:ec:45:
                    78:90:5a:95:d3:c8:30:bf:3d:e2:ff:04:c5:e4:76:
                    83:c6:44:e1:00:c7:64:52:c9:71:13:4c:2b:5b:cb:
                    b1:c6:b1:9f:b0:9f:05:ef:74:75:0e:6e:91:a6:2c:
                    4a:ea:88:04:61:1b:7f:70:ed:91:78:d3:25:75:86:
                    ac:b4:0c:6c:3a:08:85:75:ab:e2:6a:2c:53:21:66:
                    eb:3e:c5:25:a4:98:50:78:57:4e:a1:68:ed:83:d1:
                    78:25:ee:dd:a9:ac:df:5c:ec:e4:07:27:e7:d0:3f:
                    f0:fe:70:bd:a4:cd:b7:49:3b:b3:06:ab:96:e2:12:
                    85:cc:0a:c9:e9:9b:48:42:02:ef:af:1e:5f:e4:13:
                    9c:49
                Exponent: 65537 (0x10001)
        X509v3 extensions:
            X509v3 Subject Alternative Name: 
                IP Address:127.0.0.1
            X509v3 Basic Constraints: critical
                CA:FALSE
            X509v3 Subject Key Identifier: 
                01:1C:A6:B0:CB:64:17:AB:8E:90:63:E0:B6:16:19:C6:06:C1:C2:C7
            X509v3 Extended Key Usage: 
                Code Signing
            X509v3 Authority Key Identifier: 
                D5:28:55:87:C7:A3:BF:D7:C4:CE:BE:3D:01:D2:BE:8B:7C:E4:E2:E2
    Signature Algorithm: sha256WithRSAEncryption
    Signature Value:
        bc:03:2d:ad:04:e4:0e:64:20:1e:bd:fb:04:6a:63:d5:8c:51:
        a0:d6:2d:4d:7d:97:f5:0f:42:56:09:58:d6:f4:df:46:01:01:
        f3:62:78:a7:57:76:28:5a:85:fd:b1:34:37:06:7f:1f:7e:d1:
        d9:1a:54:78:a2:4a:ec:90:69:bf:08:3e:c7:df:63:1c:89:d3:
        ca:30:61:e3:f6:0a:92:66:68:8f:6b:6a:0b:01:4c:ca:90:e5:
        13:b4:89:92:2e:56:bd:84:6f:9c:ff:19:5b:75:27:7f:9e:cc:
        62:1c:06:e6:94:30:fe:d3:59:1b:2c:10:79:7c:0e:1a:29:be:
        c9:14:02:56:f9:eb:cd:a6:33:10:75:fa:d7:61:23:d0:16:cf:
        c9:e9:58:7b:51:8c:1f:84:3f:32:ca:89:91:90:da:5f:7d:35:
        0c:f5:1c:c3:b6:03:ad:f9:5f:49:79:54:55:86:98:fa:69:b5:
        fb:47:5b:b1:99:c8:f0:5f:b8:af:a6:b4:63:1b:53:e6:47:78:
        e3:40:df:63:21:f2:51:88:c4:24:b5:51:33:bc:b1:f5:7e:42:
        89:b3:ff:3a:d7:e4:02:e2:23:c4:82:98:74:d2:2c:ee:8e:71:
        58:80:b7:0f:24:dc:11:83:02:13:91:7d:0f:8f:b4:81:20:c5:
        ee:55:8c:7b
-----BEGIN CERTIFICATE-----
MIIDcTCCAlmgAwIBAgIBATANBgkqhkiG9w0BAQsFADAgMR4wHAYDVQQDDBUyMDQ4
IFJTQSBUZXN0IFJvb3QgQ0EwHhcNMjMwMjE3MTcwODUwWhcNMzMwMjE0MTcwODUw
WjBgMQswCQYDVQQGEwJVUzETMBEGA1UECAwKQ2FsaWZvcm5pYTEWMBQGA1UEBwwN
TW91bnRhaW4gVmlldzEQMA4GA1UECgwHVGVzdCBDQTESMBAGA1UEAwwJMTI3LjAu
MC4xMIIBIjANBgkqhkiG9w0BAQEFAAOCAQ8AMIIBCgKCAQEAoJbomH4fZYYMMXea
yYVKT6GPlieu6T2tbXQk5Hg946MEPzITWrVMTMv+zu+qbwXoFLa6tvTDy3JrwC3i
WA3CCZoePKWPyqxFAA2XA5q6IEF0FYgrmh/+3HikcWbtBTu6ga3ssYHLvZx5A0j9
V+2Xn4RITjig7EV4kFqV08gwvz3i/wTF5HaDxkThAMdkUslxE0wrW8uxxrGfsJ8F
73R1Dm6RpixK6ogEYRt/cO2ReNMldYastAxsOgiFdaviaixTIWbrPsUlpJhQeFdO
oWjtg9F4Je7dqazfXOzkByfn0D/w/nC9pM23STuzBquW4hKFzArJ6ZtIQgLvrx5f
5BOcSQIDAQABo3YwdDAPBgNVHREECDAGhwR/AAABMAwGA1UdEwEB/wQCMAAwHQYD
VR0OBBYEFAEcprDLZBerjpBj4LYWGcYGwcLHMBMGA1UdJQQMMAoGCCsGAQUFBwMD
MB8GA1UdIwQYMBaAFNUoVYfHo7/XxM6+PQHSvot85OLiMA0GCSqGSIb3DQEBCwUA
A4IBAQC8Ay2tBOQOZCAevfsEamPVjFGg1i1NfZf1D0JWCVjW9N9GAQHzYninV3Yo
WoX9sTQ3Bn8fftHZGlR4okrskGm/CD7H32McidPKMGHj9gqSZmiPa2oLAUzKkOUT
tImSLla9hG+c/xlbdSd/nsxiHAbmlDD+01kbLBB5fA4aKb7JFAJW+evNpjMQdfrX
YSPQFs/J6Vh7UYwfhD8yyomRkNpffTUM9RzDtgOt+V9JeVRVhpj6abX7R1uxmcjw
X7ivprRjG1PmR3jjQN9jIfJRiMQktVEzvLH1fkKJs/861+QC4iPEgph00izujnFY
gLcPJNwRgwITkX0Pj7SBIMXuVYx7
-----END CERTIFICATE-----
