-----BEGIN PRIVATE KEY-----
MIIEvAIBADANBgkqhkiG9w0BAQEFAASCBKYwggSiAgEAAoIBAQDgU/TzmMEUMwLI
pG3+qir3lD2mbwDfO95Mn6PqB9Ss5VsN0azg7fnFmB01LeWzSZcUhUQP3EzSZwiI
AaXYp+uT0Wqh91HnhH5SKn28bw7Y27amPt7c9aRolkQRhQLtRxLfuGBxlXtih2h6
RFYJ1bTI8fbJRpKLaOiD1dWGcSPDgB6/bAHH0qS8QG3g48AuMHi9rd0lZtP1BwdW
187icsUlfQzhp28AqNqrS1RDCWSktlI4L7fMAd0cAycDR7/f5jew7RjcUQvUdSLf
UHs86zc5HJtvCHunBayMQ/fx2lEGs4JFPsiBc56wpc92lq+BLKwBKkpYSx2+/x+F
wife8XgLAgMBAAECggEAO0gUmHdKtvLQDoPdiYogtrKXJC97dILWuTsKzyLoohQu
XtWFMR/SfNQ5C7+oTxvocATTurlGF+ggigidckbV64dQ/aJlI6CQ3VfbSHu02bwe
ZYqBzLShkP382QBkiJ3asAKCgiG1rJEKHB2I+ypdjyjaRdB/k5XStFxDBDdL8zKe
kL1hytf1ALxYBQJ3TXcoIqlpzz6v+JnZTAuu4vrySfffyFTrytIwf/KGlBACBqXe
oV+DK586PiyC0m1Hhy1rLTi2/IT4t4j3KO+c/OnpWkMEg1G/Ojy1zPMsMHr1VO9t
UWxhEIYOLQVUOT+2ltO4bRJcgEPHSxlIY23qalJgqQKBgQD9oZwHPhLZg439Zr9O
Zgl5fFkPe4SxqLY+ggE5O81+3RgL8GyAuy9oDtUGcw8L9tpKcBflqH4jEvUvT1/m
8BGKIQteqcKbY0C+KfPvq77R4k2KqmxpKF5f4BS/9O7cgzJZwhSFKDLtcKtDIPUK
3eoERuPB4/cmhQyb+/TKofZpfwKBgQDibEm1+nYj3tIXDxK3hZHjPz0s9vYV84py
zg3HjuEmdacnhNPQQQpNG83RMjEnnBvHWH2vxRWyD+57r/FWeA60aUJo5WIP0rj8
z6GqFT9IWaBrJtBU1YoxuyTH64yih6ljvm2skIEGlQYS+GBL9K/Tx4mh4lAKVzD5
GXVqtyM/dQKBgFD0Ik8VewK+QLXe87TcUK3cCLkuXZ4vEWxGJonUErUpcKFu7dLw
7CK0iT3zv5u8ANS9joMZEpmzVVryZNPbUF3cSjq+yIS8W0/XKCsZkGCBcOqPlubB
oc3MQhM65HqxzYJkthQCTq8GxUM547zCNA2FavDaCGrdELdA5lM++t2VAoGAMLem
AH68bqlhwM5gc5ZMtn2D1ynn9v8oudz2AAsRDKph5dHhlTx5T+/8j9dh1ijznSfA
G1KngWGGKZzIq5c3ar//Jvy75bWsUdEG8saRkCqgpo16Y9ZyXpLqrg1TfCD+ZFSz
2l5ZNKZZ4TkJ1y31qvaS+X7tQ9xQ0DgXGHgBIIUCgYABBBddUXpOyG54HvFHIgxS
esBBkpM0uy3vOkyfMown2GCjKZaXS5kEmRwU9WQQKLPf2ieALgYEf87YGWmPNZNF
tG5DoNhTMsrYORB11tuuBR1e6lrG/aoOkP/4udWC8d4Yp9wnkEu0l6X/kMfq2lb1
67bBVmHqKJ0t8rytHzkP0Q==
-----END PRIVATE KEY-----
Certificate:
    Data:
        Version: 3 (0x2)
        Serial Number:
            9c:ac:13:39:97:f9:d0:e4:e8:7f:a3:f1:71:92:32:fa
        Signature Algorithm: sha256WithRSAEncryption
        Issuer: C=US, ST=California, L=Mountain View, O=Test CA, CN=Test Intermediate CA
        Validity
            Not Before: Oct  3 17:20:08 2022 GMT
            Not After : Oct  2 17:20:08 2024 GMT
        Subject: C=US, ST=California, L=Mountain View, O=Test CA, CN=127.0.0.1
        Subject Public Key Info:
            Public Key Algorithm: rsaEncryption
                Public-Key: (2048 bit)
                Modulus:
                    00:e0:53:f4:f3:98:c1:14:33:02:c8:a4:6d:fe:aa:
                    2a:f7:94:3d:a6:6f:00:df:3b:de:4c:9f:a3:ea:07:
                    d4:ac:e5:5b:0d:d1:ac:e0:ed:f9:c5:98:1d:35:2d:
                    e5:b3:49:97:14:85:44:0f:dc:4c:d2:67:08:88:01:
                    a5:d8:a7:eb:93:d1:6a:a1:f7:51:e7:84:7e:52:2a:
                    7d:bc:6f:0e:d8:db:b6:a6:3e:de:dc:f5:a4:68:96:
                    44:11:85:02:ed:47:12:df:b8:60:71:95:7b:62:87:
                    68:7a:44:56:09:d5:b4:c8:f1:f6:c9:46:92:8b:68:
                    e8:83:d5:d5:86:71:23:c3:80:1e:bf:6c:01:c7:d2:
                    a4:bc:40:6d:e0:e3:c0:2e:30:78:bd:ad:dd:25:66:
                    d3:f5:07:07:56:d7:ce:e2:72:c5:25:7d:0c:e1:a7:
                    6f:00:a8:da:ab:4b:54:43:09:64:a4:b6:52:38:2f:
                    b7:cc:01:dd:1c:03:27:03:47:bf:df:e6:37:b0:ed:
                    18:dc:51:0b:d4:75:22:df:50:7b:3c:eb:37:39:1c:
                    9b:6f:08:7b:a7:05:ac:8c:43:f7:f1:da:51:06:b3:
                    82:45:3e:c8:81:73:9e:b0:a5:cf:76:96:af:81:2c:
                    ac:01:2a:4a:58:4b:1d:be:ff:1f:85:c2:27:de:f1:
                    78:0b
                Exponent: 65537 (0x10001)
        X509v3 extensions:
            X509v3 Basic Constraints: critical
                CA:FALSE
            X509v3 Subject Key Identifier: 
                E2:E0:A4:73:95:9B:E9:6E:FD:CE:29:C4:6F:07:81:0B:96:BD:47:BA
            X509v3 Authority Key Identifier: 
                17:5C:45:F3:D0:AC:1C:10:4C:8B:43:44:20:C4:DD:93:C5:C5:19:3B
            X509v3 Extended Key Usage: 
                TLS Web Server Authentication, TLS Web Client Authentication
            X509v3 Subject Alternative Name: 
                IP Address:127.0.0.1
    Signature Algorithm: sha256WithRSAEncryption
    Signature Value:
        93:a1:82:4b:78:ce:18:3a:0a:ae:c8:3b:04:4a:1e:2a:e0:e8:
        c3:dd:15:cb:ed:4f:23:09:b8:d4:49:4f:3b:2c:98:bf:bd:7a:
        4e:de:6b:48:93:0c:17:50:d5:df:b0:8a:95:3a:f4:d2:3c:c4:
        71:cd:fc:d3:72:b1:99:dd:5c:82:74:df:42:d9:51:85:26:92:
        2b:c8:0d:1b:aa:e5:98:9f:9d:25:cd:82:f1:a5:42:20:9c:7f:
        e9:b3:b8:1e:75:70:2a:07:ee:33:db:6d:b6:6a:cb:e0:80:e9:
        fe:12:15:0f:4e:e6:78:99:a3:22:68:1a:bc:ce:77:45:f0:9f:
        ce:23:25:bd:32:b6:8d:f4:1a:3a:8e:e9:a7:bd:da:e7:d5:ba:
        84:38:4f:db:bb:29:7f:ec:4f:56:1a:c4:43:1a:0e:a5:c9:db:
        b1:69:9d:00:82:b6:b2:4b:67:e7:58:45:37:dc:30:81:93:5a:
        56:de:5e:0f:9c:d6:1a:73:9c:9e:f4:f1:8e:20:11:fc:f3:3f:
        77:7f:9a:f1:93:42:31:2b:5a:e2:70:f2:7a:f0:07:7e:28:c3:
        21:6a:c5:b3:fe:08:76:4b:a3:58:70:f6:44:22:a5:e1:b9:17:
        ce:a4:90:35:5c:c7:9a:e0:12:b7:5f:24:d5:60:0c:bd:9d:b6:
        1b:78:17:16
-----BEGIN CERTIFICATE-----
MIID1zCCAr+gAwIBAgIRAJysEzmX+dDk6H+j8XGSMvowDQYJKoZIhvcNAQELBQAw
azELMAkGA1UEBhMCVVMxEzARBgNVBAgMCkNhbGlmb3JuaWExFjAUBgNVBAcMDU1v
dW50YWluIFZpZXcxEDAOBgNVBAoMB1Rlc3QgQ0ExHTAbBgNVBAMMFFRlc3QgSW50
ZXJtZWRpYXRlIENBMB4XDTIyMTAwMzE3MjAwOFoXDTI0MTAwMjE3MjAwOFowYDEL
MAkGA1UEBhMCVVMxEzARBgNVBAgMCkNhbGlmb3JuaWExFjAUBgNVBAcMDU1vdW50
YWluIFZpZXcxEDAOBgNVBAoMB1Rlc3QgQ0ExEjAQBgNVBAMMCTEyNy4wLjAuMTCC
ASIwDQYJKoZIhvcNAQEBBQADggEPADCCAQoCggEBAOBT9POYwRQzAsikbf6qKveU
PaZvAN873kyfo+oH1KzlWw3RrODt+cWYHTUt5bNJlxSFRA/cTNJnCIgBpdin65PR
aqH3UeeEflIqfbxvDtjbtqY+3tz1pGiWRBGFAu1HEt+4YHGVe2KHaHpEVgnVtMjx
9slGkoto6IPV1YZxI8OAHr9sAcfSpLxAbeDjwC4weL2t3SVm0/UHB1bXzuJyxSV9
DOGnbwCo2qtLVEMJZKS2Ujgvt8wB3RwDJwNHv9/mN7DtGNxRC9R1It9QezzrNzkc
m28Ie6cFrIxD9/HaUQazgkU+yIFznrClz3aWr4EsrAEqSlhLHb7/H4XCJ97xeAsC
AwEAAaOBgDB+MAwGA1UdEwEB/wQCMAAwHQYDVR0OBBYEFOLgpHOVm+lu/c4pxG8H
gQuWvUe6MB8GA1UdIwQYMBaAFBdcRfPQrBwQTItDRCDE3ZPFxRk7MB0GA1UdJQQW
MBQGCCsGAQUFBwMBBggrBgEFBQcDAjAPBgNVHREECDAGhwR/AAABMA0GCSqGSIb3
DQEBCwUAA4IBAQCToYJLeM4YOgquyDsESh4q4OjD3RXL7U8jCbjUSU87LJi/vXpO
3mtIkwwXUNXfsIqVOvTSPMRxzfzTcrGZ3VyCdN9C2VGFJpIryA0bquWYn50lzYLx
pUIgnH/ps7gedXAqB+4z2222asvggOn+EhUPTuZ4maMiaBq8zndF8J/OIyW9MraN
9Bo6jumnvdrn1bqEOE/buyl/7E9WGsRDGg6lyduxaZ0AgrayS2fnWEU33DCBk1pW
3l4PnNYac5ye9PGOIBH88z93f5rxk0IxK1ricPJ68Ad+KMMhasWz/gh2S6NYcPZE
IqXhuRfOpJA1XMea4BK3XyTVYAy9nbYbeBcW
-----END CERTIFICATE-----
Certificate:
    Data:
        Version: 3 (0x2)
        Serial Number:
            b0:6b:93:92:e3:5c:8d:7e:ed:9d:c8:96:59:c5:c2:64
        Signature Algorithm: sha256WithRSAEncryption
        Issuer: C=US, ST=California, L=Mountain View, O=Test CA, CN=Test Root CA
        Validity
            Not Before: Oct  3 17:20:08 2022 GMT
            Not After : Sep 30 17:20:08 2032 GMT
        Subject: C=US, ST=California, L=Mountain View, O=Test CA, CN=Test Intermediate CA
        Subject Public Key Info:
            Public Key Algorithm: rsaEncryption
                Public-Key: (2048 bit)
                Modulus:
                    00:9d:e9:bd:e4:3d:4a:2f:fb:c2:f9:e6:22:2a:42:
                    15:46:1c:8c:8f:47:4c:e9:c5:57:95:1f:66:70:93:
                    22:f0:94:c3:bb:b5:5b:ef:a4:6f:c8:c7:89:95:75:
                    ba:0c:36:bf:4e:6b:a9:35:47:08:43:9e:29:6a:e2:
                    c3:fb:03:b7:1f:b6:e1:51:6b:ed:7b:19:c7:f9:ce:
                    3b:dc:65:e9:66:c7:83:94:c4:d1:4e:ee:ed:64:4b:
                    81:f1:1a:ea:5a:64:18:1b:6a:4e:93:d0:13:6c:90:
                    60:ca:d2:4e:b7:24:16:f8:b2:08:58:9d:8d:a7:33:
                    45:15:34:81:ad:2d:2d:9c:60:ef:f9:2b:98:fe:79:
                    d3:8d:2c:48:db:12:91:f4:2e:fa:bf:f5:26:c1:82:
                    05:80:dd:4c:a8:70:bf:a7:bc:10:34:77:39:db:47:
                    04:0f:ed:44:b2:65:46:22:20:88:59:28:0f:c7:0c:
                    a2:b4:91:a5:a2:aa:ca:05:9f:8a:9b:6e:a3:cb:d4:
                    a4:e8:24:75:9d:20:81:22:5b:5f:77:3e:c9:f1:1e:
                    ae:eb:8a:33:8c:27:5b:1e:be:6d:21:1b:42:72:95:
                    e3:9e:13:03:75:a7:58:d4:be:68:12:fe:63:8e:4b:
                    11:7a:34:e7:a3:6b:dd:73:ae:3e:19:9a:ec:91:8b:
                    73:af
                Exponent: 65537 (0x10001)
        X509v3 extensions:
            X509v3 Basic Constraints: critical
                CA:TRUE
            X509v3 Subject Key Identifier: 
                17:5C:45:F3:D0:AC:1C:10:4C:8B:43:44:20:C4:DD:93:C5:C5:19:3B
            X509v3 Key Usage: critical
                Certificate Sign, CRL Sign
            X509v3 Authority Key Identifier: 
                9B:26:0B:8A:98:A9:BB:1D:B9:1F:1C:E3:1A:40:33:ED:8E:17:88:AB
    Signature Algorithm: sha256WithRSAEncryption
    Signature Value:
        25:54:8b:68:3b:3c:92:ed:1b:c7:a1:62:b3:7c:ff:7e:8c:57:
        7c:67:5c:ea:74:9f:e8:f1:b5:c8:e4:88:0e:c9:a3:f3:28:c4:
        05:af:8f:ad:51:32:66:ae:5d:7a:b1:77:7e:99:06:c8:30:26:
        5a:9f:1e:34:ea:aa:3e:0a:73:a2:40:e3:8f:1a:01:96:a2:6d:
        2f:6c:d9:36:65:98:c8:86:41:0e:ee:0d:aa:da:62:54:62:23:
        c6:23:b0:f1:ca:35:7b:e5:4b:d1:ab:80:80:d6:00:2b:19:85:
        9d:e0:3c:3f:13:1e:90:d2:df:c3:31:90:0f:a8:40:08:33:4e:
        f7:a4:d0:ed:3e:a4:41:cf:e8:37:49:d1:58:e8:07:3d:4b:a1:
        c9:fe:12:07:9a:de:e0:c8:f3:68:d6:31:5d:03:77:2f:fa:b0:
        e6:2c:f3:80:59:d0:9b:1b:59:22:cd:7e:58:c6:cf:82:92:c3:
        76:95:78:b2:75:c8:fa:59:9f:0e:c0:e3:6d:70:f9:82:ba:db:
        89:89:81:b7:b9:e1:41:63:51:56:8a:5a:d2:52:c2:19:2f:d9:
        c0:9d:19:82:59:79:f9:56:1c:25:81:4d:0a:cd:77:1b:de:85:
        6e:51:04:08:0b:0c:33:65:52:f6:90:a8:82:25:77:a0:fa:5e:
        9c:2a:91:66
-----BEGIN CERTIFICATE-----
MIIDvDCCAqSgAwIBAgIRALBrk5LjXI1+7Z3IllnFwmQwDQYJKoZIhvcNAQELBQAw
YzELMAkGA1UEBhMCVVMxEzARBgNVBAgMCkNhbGlmb3JuaWExFjAUBgNVBAcMDU1v
dW50YWluIFZpZXcxEDAOBgNVBAoMB1Rlc3QgQ0ExFTATBgNVBAMMDFRlc3QgUm9v
dCBDQTAeFw0yMjEwMDMxNzIwMDhaFw0zMjA5MzAxNzIwMDhaMGsxCzAJBgNVBAYT
AlVTMRMwEQYDVQQIDApDYWxpZm9ybmlhMRYwFAYDVQQHDA1Nb3VudGFpbiBWaWV3
MRAwDgYDVQQKDAdUZXN0IENBMR0wGwYDVQQDDBRUZXN0IEludGVybWVkaWF0ZSBD
QTCCASIwDQYJKoZIhvcNAQEBBQADggEPADCCAQoCggEBAJ3pveQ9Si/7wvnmIipC
FUYcjI9HTOnFV5UfZnCTIvCUw7u1W++kb8jHiZV1ugw2v05rqTVHCEOeKWriw/sD
tx+24VFr7XsZx/nOO9xl6WbHg5TE0U7u7WRLgfEa6lpkGBtqTpPQE2yQYMrSTrck
FviyCFidjaczRRU0ga0tLZxg7/krmP55040sSNsSkfQu+r/1JsGCBYDdTKhwv6e8
EDR3OdtHBA/tRLJlRiIgiFkoD8cMorSRpaKqygWfiptuo8vUpOgkdZ0ggSJbX3c+
yfEeruuKM4wnWx6+bSEbQnKV454TA3WnWNS+aBL+Y45LEXo056Nr3XOuPhma7JGL
c68CAwEAAaNjMGEwDwYDVR0TAQH/BAUwAwEB/zAdBgNVHQ4EFgQUF1xF89CsHBBM
i0NEIMTdk8XFGTswDgYDVR0PAQH/BAQDAgEGMB8GA1UdIwQYMBaAFJsmC4qYqbsd
uR8c4xpAM+2OF4irMA0GCSqGSIb3DQEBCwUAA4IBAQAlVItoOzyS7RvHoWKzfP9+
jFd8Z1zqdJ/o8bXI5IgOyaPzKMQFr4+tUTJmrl16sXd+mQbIMCZanx406qo+CnOi
QOOPGgGWom0vbNk2ZZjIhkEO7g2q2mJUYiPGI7DxyjV75UvRq4CA1gArGYWd4Dw/
Ex6Q0t/DMZAPqEAIM073pNDtPqRBz+g3SdFY6Ac9S6HJ/hIHmt7gyPNo1jFdA3cv
+rDmLPOAWdCbG1kizX5Yxs+CksN2lXiydcj6WZ8OwONtcPmCutuJiYG3ueFBY1FW
ilrSUsIZL9nAnRmCWXn5VhwlgU0KzXcb3oVuUQQICwwzZVL2kKiCJXeg+l6cKpFm
-----END CERTIFICATE-----
