-----BEGIN PRIVATE KEY-----
MIIEvQIBADANBgkqhkiG9w0BAQEFAASCBKcwggSjAgEAAoIBAQCmWNw2JdGmpJMI
zy07hge1zkTHW3/XEaZRmOyCTGwxRaMEVm/Bd9ZsONs82C3SJapHT/Sk844JmDfT
D3H2rClHewiOaKv8fhACZbaGTLAnBGoVI7M6GbgV8zsLHa3Yn0mxcvKvCN/IAqrL
8yotwP0osJfaSqkidMI6C2RlKsn0ZfdGfzypYZZfDCpmw/LH/mmHL3AMG2Y3ksU/
hUDY5CZFGD/OUyegl34Rh9xK7Cbr/5UOs+ouZkUKqszFgVkuChsOG1lxytOQ72/K
t4yoyoJVuPtK5bopeM7rzY5PnK+FpO8LZF4+fqDg5bCG8xkI+j/6Hkqb/LUWF4gN
OA7Dpl/VAgMBAAECggEAeqgjGDoisMHBOUmqjK1zmfcSd/1b8nWtMZWVLy6yyFIU
teoWVY3Lqdjyr5anksD7IcIvHkIIhcKbxyEoYz7m4TIzSO6dgnxhyaK+R6Dccqiq
oBPG4Bx+xJCpBLVJruUlLZcYoz/j4lM1JVWT0FDxWsN79RYASMvXO32S9ZXrfC1S
YZjVeUrjyrc7Y2Z6z/n89P9mfWUwqOuuH6fHpNHvBugteFB3pS2oclooOh3hXWIu
ZSHWOyX0wj0Rk1iuOBADqxhec/zR4nQ9IZi3nRbfNyoUYzf2qgqPcS9yROS9PZQw
rESmMXpVJ1aF9sFo0LA5KW2sT7qbVWeLwfF8nZvPgQKBgQDdoAdvu5BPTk4E2jg9
y/VfESKiVd1BStsw5DWBZtgDGDpLHtkoezcao0hJxGKAsnWJ1EqhqViNXEJcECi6
Xdr5EF525y9KdKCld7q9ZeQbvvg0QLHXYY0bQhPhbymosFg+qdJCHfn8Wwim8Ibc
JnjpzDdzSKEWELanUrSTEla1TQKBgQDAJe6I4CtEXaBXi06KQHnKHI+9uu1w0TBp
YuM2/3v7CVBcN/lkmK/tnM+RZqgEi/Nhy08uIfIQjWetq7FQjbLEsesy3zlqIlth
Kw4jCcdrPW3XTp/Ru7rUQUjBTWpDh/f1T41OzY4qE5X6v2MQkJP5a614Qi2kqFZ3
neZtpfNwqQKBgASoFR/q3/ham9cMQrxBqdEqigDBLxntGbfoQ5uJbqZ5/tePOV7Z
X+oGXkF2h99OYJvZwwushDjMJHTMvh5UVIKBLorvBpZY5vszDdBm8KkIlSx744C0
AwP8mnBVJpntwpzmco2DFbqQqxje2uaLRGUdLlkUwJW3Gi9f1H12mC3NAoGBAJOr
00HwfnAhQHxnfKn12WPCRZo8EgV1T65+qD75ZJBO3SqyfgGY8wQ7Uq7dZV1xLVBI
TwcWYZHlCvxHCpPtAqn2TtsfAWIXG4F29HtrJY6+fC9PprYqf/BmaALfez6BPciT
JfedNJgTy10VP45YftDet0fIHIoCMcnmWVSFiK1ZAoGABYToKrxvwdgzqRt22k0D
OcMTSQqpcO/WZfcpFK9leOLuKBNniow1PSYkymdVgCkSjrY3Oksxh/0V20H62oqU
bJMTvYZFpTcCQgcwSiyQD2o2PgKNxrxIfII4/9H8hjV99uXaafEWFky8ea6GEJaN
4PkKpNDj9dus6J2Hzat2c3E=
-----END PRIVATE KEY-----
Certificate:
    Data:
        Version: 3 (0x2)
        Serial Number:
            3e:2c:9d:be:b0:42:c8:cf:fc:99:42:d5:4d:41:6a:a4
        Signature Algorithm: sha256WithRSAEncryption
        Issuer: C=US, ST=California, L=Mountain View, O=Test CA, CN=Test Root CA
        Validity
            Not Before: Mar 13 20:46:17 2020 GMT
            Not After : Mar 13 20:46:17 2022 GMT
        Subject: C=US, ST=California, L=Mountain View, O=Test CA, CN=127.0.0.1
        Subject Public Key Info:
            Public Key Algorithm: rsaEncryption
                RSA Public-Key: (2048 bit)
                Modulus:
                    00:a6:58:dc:36:25:d1:a6:a4:93:08:cf:2d:3b:86:
                    07:b5:ce:44:c7:5b:7f:d7:11:a6:51:98:ec:82:4c:
                    6c:31:45:a3:04:56:6f:c1:77:d6:6c:38:db:3c:d8:
                    2d:d2:25:aa:47:4f:f4:a4:f3:8e:09:98:37:d3:0f:
                    71:f6:ac:29:47:7b:08:8e:68:ab:fc:7e:10:02:65:
                    b6:86:4c:b0:27:04:6a:15:23:b3:3a:19:b8:15:f3:
                    3b:0b:1d:ad:d8:9f:49:b1:72:f2:af:08:df:c8:02:
                    aa:cb:f3:2a:2d:c0:fd:28:b0:97:da:4a:a9:22:74:
                    c2:3a:0b:64:65:2a:c9:f4:65:f7:46:7f:3c:a9:61:
                    96:5f:0c:2a:66:c3:f2:c7:fe:69:87:2f:70:0c:1b:
                    66:37:92:c5:3f:85:40:d8:e4:26:45:18:3f:ce:53:
                    27:a0:97:7e:11:87:dc:4a:ec:26:eb:ff:95:0e:b3:
                    ea:2e:66:45:0a:aa:cc:c5:81:59:2e:0a:1b:0e:1b:
                    59:71:ca:d3:90:ef:6f:ca:b7:8c:a8:ca:82:55:b8:
                    fb:4a:e5:ba:29:78:ce:eb:cd:8e:4f:9c:af:85:a4:
                    ef:0b:64:5e:3e:7e:a0:e0:e5:b0:86:f3:19:08:fa:
                    3f:fa:1e:4a:9b:fc:b5:16:17:88:0d:38:0e:c3:a6:
                    5f:d5
                Exponent: 65537 (0x10001)
        X509v3 extensions:
            X509v3 Basic Constraints: critical
                CA:FALSE
            X509v3 Subject Key Identifier: 
                81:CD:A7:DD:52:43:7F:DF:7A:4B:BA:F5:B0:B6:10:A0:44:0C:EC:6C
            X509v3 Authority Key Identifier: 
                keyid:9B:26:0B:8A:98:A9:BB:1D:B9:1F:1C:E3:1A:40:33:ED:8E:17:88:AB

            X509v3 Extended Key Usage: 
                TLS Web Server Authentication, TLS Web Client Authentication
            X509v3 Subject Alternative Name: 
                IP Address:127.0.0.1
    Signature Algorithm: sha256WithRSAEncryption
         4d:09:77:89:44:9c:ce:11:6a:a6:e3:4d:9f:1d:ea:0b:55:bb:
         39:19:90:ec:1e:f7:4e:5d:39:ac:b8:b8:3d:1a:7a:64:53:5a:
         0f:c6:c3:fc:16:2c:a1:f9:2a:51:55:65:07:87:98:ea:3d:c9:
         4f:9e:0c:d2:18:1f:08:26:78:f0:e0:dc:10:dd:66:f5:4a:83:
         66:5c:f9:7f:57:e3:d3:30:9b:91:f9:1b:ad:58:4e:88:e9:f6:
         b9:11:f7:cf:9a:f6:6a:63:87:84:3c:7d:93:f9:06:51:83:d1:
         be:d6:90:1b:b0:67:8c:c5:93:61:20:f7:91:c0:50:4a:e9:87:
         a0:6b:8f:f7:99:f2:2e:81:cd:41:8a:24:f7:f7:a2:cf:20:79:
         44:7a:8b:7c:06:df:09:93:9b:29:0a:66:7d:72:cd:ad:3c:d7:
         31:66:c6:84:6c:01:20:ca:f4:b2:5a:f6:2f:e8:8f:9c:9c:92:
         58:1a:3f:4a:59:d4:e8:0f:c1:84:b4:a9:be:89:a3:7f:0b:2a:
         b4:b2:00:8a:7a:49:44:92:5b:cb:1b:2d:f7:e6:2a:9a:a9:a5:
         0f:18:d8:71:1a:1d:2a:94:26:6c:40:db:2e:11:51:d9:c7:13:
         a4:4a:31:65:1b:6a:5d:d2:8d:3a:de:58:3c:08:f9:be:be:95:
         34:70:a3:07
-----BEGIN CERTIFICATE-----
MIIDzjCCAragAwIBAgIQPiydvrBCyM/8mULVTUFqpDANBgkqhkiG9w0BAQsFADBj
MQswCQYDVQQGEwJVUzETMBEGA1UECAwKQ2FsaWZvcm5pYTEWMBQGA1UEBwwNTW91
bnRhaW4gVmlldzEQMA4GA1UECgwHVGVzdCBDQTEVMBMGA1UEAwwMVGVzdCBSb290
IENBMB4XDTIwMDMxMzIwNDYxN1oXDTIyMDMxMzIwNDYxN1owYDELMAkGA1UEBhMC
VVMxEzARBgNVBAgMCkNhbGlmb3JuaWExFjAUBgNVBAcMDU1vdW50YWluIFZpZXcx
EDAOBgNVBAoMB1Rlc3QgQ0ExEjAQBgNVBAMMCTEyNy4wLjAuMTCCASIwDQYJKoZI
hvcNAQEBBQADggEPADCCAQoCggEBAKZY3DYl0aakkwjPLTuGB7XORMdbf9cRplGY
7IJMbDFFowRWb8F31mw42zzYLdIlqkdP9KTzjgmYN9MPcfasKUd7CI5oq/x+EAJl
toZMsCcEahUjszoZuBXzOwsdrdifSbFy8q8I38gCqsvzKi3A/Siwl9pKqSJ0wjoL
ZGUqyfRl90Z/PKlhll8MKmbD8sf+aYcvcAwbZjeSxT+FQNjkJkUYP85TJ6CXfhGH
3ErsJuv/lQ6z6i5mRQqqzMWBWS4KGw4bWXHK05Dvb8q3jKjKglW4+0rluil4zuvN
jk+cr4Wk7wtkXj5+oODlsIbzGQj6P/oeSpv8tRYXiA04DsOmX9UCAwEAAaOBgDB+
MAwGA1UdEwEB/wQCMAAwHQYDVR0OBBYEFIHNp91SQ3/feku69bC2EKBEDOxsMB8G
A1UdIwQYMBaAFJsmC4qYqbsduR8c4xpAM+2OF4irMB0GA1UdJQQWMBQGCCsGAQUF
BwMBBggrBgEFBQcDAjAPBgNVHREECDAGhwR/AAABMA0GCSqGSIb3DQEBCwUAA4IB
AQBNCXeJRJzOEWqm402fHeoLVbs5GZDsHvdOXTmsuLg9GnpkU1oPxsP8Fiyh+SpR
VWUHh5jqPclPngzSGB8IJnjw4NwQ3Wb1SoNmXPl/V+PTMJuR+RutWE6I6fa5EffP
mvZqY4eEPH2T+QZRg9G+1pAbsGeMxZNhIPeRwFBK6Yega4/3mfIugc1BiiT396LP
IHlEeot8Bt8Jk5spCmZ9cs2tPNcxZsaEbAEgyvSyWvYv6I+cnJJYGj9KWdToD8GE
tKm+iaN/Cyq0sgCKeklEklvLGy335iqaqaUPGNhxGh0qlCZsQNsuEVHZxxOkSjFl
G2pd0o063lg8CPm+vpU0cKMH
-----END CERTIFICATE-----
