-----BEGIN PRIVATE KEY-----
MIIEvAIBADANBgkqhkiG9w0BAQEFAASCBKYwggSiAgEAAoIBAQDgU/TzmMEUMwLI
pG3+qir3lD2mbwDfO95Mn6PqB9Ss5VsN0azg7fnFmB01LeWzSZcUhUQP3EzSZwiI
AaXYp+uT0Wqh91HnhH5SKn28bw7Y27amPt7c9aRolkQRhQLtRxLfuGBxlXtih2h6
RFYJ1bTI8fbJRpKLaOiD1dWGcSPDgB6/bAHH0qS8QG3g48AuMHi9rd0lZtP1BwdW
187icsUlfQzhp28AqNqrS1RDCWSktlI4L7fMAd0cAycDR7/f5jew7RjcUQvUdSLf
UHs86zc5HJtvCHunBayMQ/fx2lEGs4JFPsiBc56wpc92lq+BLKwBKkpYSx2+/x+F
wife8XgLAgMBAAECggEAO0gUmHdKtvLQDoPdiYogtrKXJC97dILWuTsKzyLoohQu
XtWFMR/SfNQ5C7+oTxvocATTurlGF+ggigidckbV64dQ/aJlI6CQ3VfbSHu02bwe
ZYqBzLShkP382QBkiJ3asAKCgiG1rJEKHB2I+ypdjyjaRdB/k5XStFxDBDdL8zKe
kL1hytf1ALxYBQJ3TXcoIqlpzz6v+JnZTAuu4vrySfffyFTrytIwf/KGlBACBqXe
oV+DK586PiyC0m1Hhy1rLTi2/IT4t4j3KO+c/OnpWkMEg1G/Ojy1zPMsMHr1VO9t
UWxhEIYOLQVUOT+2ltO4bRJcgEPHSxlIY23qalJgqQKBgQD9oZwHPhLZg439Zr9O
Zgl5fFkPe4SxqLY+ggE5O81+3RgL8GyAuy9oDtUGcw8L9tpKcBflqH4jEvUvT1/m
8BGKIQteqcKbY0C+KfPvq77R4k2KqmxpKF5f4BS/9O7cgzJZwhSFKDLtcKtDIPUK
3eoERuPB4/cmhQyb+/TKofZpfwKBgQDibEm1+nYj3tIXDxK3hZHjPz0s9vYV84py
zg3HjuEmdacnhNPQQQpNG83RMjEnnBvHWH2vxRWyD+57r/FWeA60aUJo5WIP0rj8
z6GqFT9IWaBrJtBU1YoxuyTH64yih6ljvm2skIEGlQYS+GBL9K/Tx4mh4lAKVzD5
GXVqtyM/dQKBgFD0Ik8VewK+QLXe87TcUK3cCLkuXZ4vEWxGJonUErUpcKFu7dLw
7CK0iT3zv5u8ANS9joMZEpmzVVryZNPbUF3cSjq+yIS8W0/XKCsZkGCBcOqPlubB
oc3MQhM65HqxzYJkthQCTq8GxUM547zCNA2FavDaCGrdELdA5lM++t2VAoGAMLem
AH68bqlhwM5gc5ZMtn2D1ynn9v8oudz2AAsRDKph5dHhlTx5T+/8j9dh1ijznSfA
G1KngWGGKZzIq5c3ar//Jvy75bWsUdEG8saRkCqgpo16Y9ZyXpLqrg1TfCD+ZFSz
2l5ZNKZZ4TkJ1y31qvaS+X7tQ9xQ0DgXGHgBIIUCgYABBBddUXpOyG54HvFHIgxS
esBBkpM0uy3vOkyfMown2GCjKZaXS5kEmRwU9WQQKLPf2ieALgYEf87YGWmPNZNF
tG5DoNhTMsrYORB11tuuBR1e6lrG/aoOkP/4udWC8d4Yp9wnkEu0l6X/kMfq2lb1
67bBVmHqKJ0t8rytHzkP0Q==
-----END PRIVATE KEY-----
Certificate:
    Data:
        Version: 3 (0x2)
        Serial Number:
            5a:84:70:47:19:f5:1a:b1:2b:02:fc:31:3f:08:cd:31
        Signature Algorithm: sha256WithRSAEncryption
        Issuer: C=US, ST=California, L=Mountain View, O=Test CA, CN=Test Root CA
        Validity
            Not Before: Oct 10 20:46:12 2024 GMT
            Not After : Oct 10 20:46:12 2026 GMT
        Subject: C=US, ST=California, L=Mountain View, O=Test CA, CN=127.0.0.1
        Subject Public Key Info:
            Public Key Algorithm: rsaEncryption
                Public-Key: (2048 bit)
                Modulus:
                    00:e0:53:f4:f3:98:c1:14:33:02:c8:a4:6d:fe:aa:
                    2a:f7:94:3d:a6:6f:00:df:3b:de:4c:9f:a3:ea:07:
                    d4:ac:e5:5b:0d:d1:ac:e0:ed:f9:c5:98:1d:35:2d:
                    e5:b3:49:97:14:85:44:0f:dc:4c:d2:67:08:88:01:
                    a5:d8:a7:eb:93:d1:6a:a1:f7:51:e7:84:7e:52:2a:
                    7d:bc:6f:0e:d8:db:b6:a6:3e:de:dc:f5:a4:68:96:
                    44:11:85:02:ed:47:12:df:b8:60:71:95:7b:62:87:
                    68:7a:44:56:09:d5:b4:c8:f1:f6:c9:46:92:8b:68:
                    e8:83:d5:d5:86:71:23:c3:80:1e:bf:6c:01:c7:d2:
                    a4:bc:40:6d:e0:e3:c0:2e:30:78:bd:ad:dd:25:66:
                    d3:f5:07:07:56:d7:ce:e2:72:c5:25:7d:0c:e1:a7:
                    6f:00:a8:da:ab:4b:54:43:09:64:a4:b6:52:38:2f:
                    b7:cc:01:dd:1c:03:27:03:47:bf:df:e6:37:b0:ed:
                    18:dc:51:0b:d4:75:22:df:50:7b:3c:eb:37:39:1c:
                    9b:6f:08:7b:a7:05:ac:8c:43:f7:f1:da:51:06:b3:
                    82:45:3e:c8:81:73:9e:b0:a5:cf:76:96:af:81:2c:
                    ac:01:2a:4a:58:4b:1d:be:ff:1f:85:c2:27:de:f1:
                    78:0b
                Exponent: 65537 (0x10001)
        X509v3 extensions:
            X509v3 Basic Constraints: critical
                CA:FALSE
            X509v3 Subject Key Identifier: 
                E2:E0:A4:73:95:9B:E9:6E:FD:CE:29:C4:6F:07:81:0B:96:BD:47:BA
            X509v3 Authority Key Identifier: 
                9B:26:0B:8A:98:A9:BB:1D:B9:1F:1C:E3:1A:40:33:ED:8E:17:88:AB
            X509v3 Extended Key Usage: 
                TLS Web Server Authentication, TLS Web Client Authentication
            X509v3 Subject Alternative Name: 
                IP Address:127.0.0.1
    Signature Algorithm: sha256WithRSAEncryption
    Signature Value:
        66:d2:e9:1a:50:a3:7b:12:f9:27:a1:60:e4:19:2a:fa:dd:f3:
        59:e8:e0:d2:fc:77:36:73:cb:93:d7:12:a8:24:75:f1:e4:16:
        cb:74:4a:6d:cd:5a:d6:0d:05:aa:d2:4b:bc:16:e6:85:22:77:
        5f:ec:8a:12:a9:84:ab:46:8e:80:89:9e:68:90:00:95:fa:42:
        9b:98:4c:b7:32:b8:76:6b:be:10:ca:ad:61:4d:2e:bd:2d:9b:
        54:87:1a:31:d0:0d:dc:b7:8c:48:bd:fc:7d:ba:96:76:e2:c5:
        63:51:3d:31:ee:0c:ab:b3:a9:31:d3:27:1b:f0:9e:77:af:63:
        22:68:4c:86:1f:0b:2a:af:35:1f:0c:a4:17:50:80:35:b8:05:
        28:cb:49:b8:01:50:77:ba:5c:74:d1:55:7d:82:45:43:8a:58:
        bc:d0:0e:65:e6:9c:b8:f1:15:15:89:c9:5b:a8:28:98:30:88:
        a7:f4:31:20:40:de:67:46:93:89:91:21:ea:24:20:fb:62:34:
        80:65:37:68:16:f3:aa:c4:d4:4a:a8:0b:c2:73:c5:6f:da:37:
        3b:c5:e3:c4:c7:53:ac:c2:6b:25:c4:27:43:ec:c2:ba:90:91:
        6b:ae:1e:58:0f:bd:84:0b:32:61:c6:9f:b5:e4:1b:b5:94:7b:
        e2:66:b5:e9
-----BEGIN CERTIFICATE-----
MIIDzjCCAragAwIBAgIQWoRwRxn1GrErAvwxPwjNMTANBgkqhkiG9w0BAQsFADBj
MQswCQYDVQQGEwJVUzETMBEGA1UECAwKQ2FsaWZvcm5pYTEWMBQGA1UEBwwNTW91
bnRhaW4gVmlldzEQMA4GA1UECgwHVGVzdCBDQTEVMBMGA1UEAwwMVGVzdCBSb290
IENBMB4XDTI0MTAxMDIwNDYxMloXDTI2MTAxMDIwNDYxMlowYDELMAkGA1UEBhMC
VVMxEzARBgNVBAgMCkNhbGlmb3JuaWExFjAUBgNVBAcMDU1vdW50YWluIFZpZXcx
EDAOBgNVBAoMB1Rlc3QgQ0ExEjAQBgNVBAMMCTEyNy4wLjAuMTCCASIwDQYJKoZI
hvcNAQEBBQADggEPADCCAQoCggEBAOBT9POYwRQzAsikbf6qKveUPaZvAN873kyf
o+oH1KzlWw3RrODt+cWYHTUt5bNJlxSFRA/cTNJnCIgBpdin65PRaqH3UeeEflIq
fbxvDtjbtqY+3tz1pGiWRBGFAu1HEt+4YHGVe2KHaHpEVgnVtMjx9slGkoto6IPV
1YZxI8OAHr9sAcfSpLxAbeDjwC4weL2t3SVm0/UHB1bXzuJyxSV9DOGnbwCo2qtL
VEMJZKS2Ujgvt8wB3RwDJwNHv9/mN7DtGNxRC9R1It9QezzrNzkcm28Ie6cFrIxD
9/HaUQazgkU+yIFznrClz3aWr4EsrAEqSlhLHb7/H4XCJ97xeAsCAwEAAaOBgDB+
MAwGA1UdEwEB/wQCMAAwHQYDVR0OBBYEFOLgpHOVm+lu/c4pxG8HgQuWvUe6MB8G
A1UdIwQYMBaAFJsmC4qYqbsduR8c4xpAM+2OF4irMB0GA1UdJQQWMBQGCCsGAQUF
BwMBBggrBgEFBQcDAjAPBgNVHREECDAGhwR/AAABMA0GCSqGSIb3DQEBCwUAA4IB
AQBm0ukaUKN7EvknoWDkGSr63fNZ6ODS/Hc2c8uT1xKoJHXx5BbLdEptzVrWDQWq
0ku8FuaFIndf7IoSqYSrRo6AiZ5okACV+kKbmEy3Mrh2a74Qyq1hTS69LZtUhxox
0A3ct4xIvfx9upZ24sVjUT0x7gyrs6kx0ycb8J53r2MiaEyGHwsqrzUfDKQXUIA1
uAUoy0m4AVB3ulx00VV9gkVDili80A5l5py48RUViclbqCiYMIin9DEgQN5nRpOJ
kSHqJCD7YjSAZTdoFvOqxNRKqAvCc8Vv2jc7xePEx1OswmslxCdD7MK6kJFrrh5Y
D72ECzJhxp+15Bu1lHviZrXp
-----END CERTIFICATE-----
