-----BEGIN PRIVATE KEY-----
MIIEvAIBADANBgkqhkiG9w0BAQEFAASCBKYwggSiAgEAAoIBAQDgU/TzmMEUMwLI
pG3+qir3lD2mbwDfO95Mn6PqB9Ss5VsN0azg7fnFmB01LeWzSZcUhUQP3EzSZwiI
AaXYp+uT0Wqh91HnhH5SKn28bw7Y27amPt7c9aRolkQRhQLtRxLfuGBxlXtih2h6
RFYJ1bTI8fbJRpKLaOiD1dWGcSPDgB6/bAHH0qS8QG3g48AuMHi9rd0lZtP1BwdW
187icsUlfQzhp28AqNqrS1RDCWSktlI4L7fMAd0cAycDR7/f5jew7RjcUQvUdSLf
UHs86zc5HJtvCHunBayMQ/fx2lEGs4JFPsiBc56wpc92lq+BLKwBKkpYSx2+/x+F
wife8XgLAgMBAAECggEAO0gUmHdKtvLQDoPdiYogtrKXJC97dILWuTsKzyLoohQu
XtWFMR/SfNQ5C7+oTxvocATTurlGF+ggigidckbV64dQ/aJlI6CQ3VfbSHu02bwe
ZYqBzLShkP382QBkiJ3asAKCgiG1rJEKHB2I+ypdjyjaRdB/k5XStFxDBDdL8zKe
kL1hytf1ALxYBQJ3TXcoIqlpzz6v+JnZTAuu4vrySfffyFTrytIwf/KGlBACBqXe
oV+DK586PiyC0m1Hhy1rLTi2/IT4t4j3KO+c/OnpWkMEg1G/Ojy1zPMsMHr1VO9t
UWxhEIYOLQVUOT+2ltO4bRJcgEPHSxlIY23qalJgqQKBgQD9oZwHPhLZg439Zr9O
Zgl5fFkPe4SxqLY+ggE5O81+3RgL8GyAuy9oDtUGcw8L9tpKcBflqH4jEvUvT1/m
8BGKIQteqcKbY0C+KfPvq77R4k2KqmxpKF5f4BS/9O7cgzJZwhSFKDLtcKtDIPUK
3eoERuPB4/cmhQyb+/TKofZpfwKBgQDibEm1+nYj3tIXDxK3hZHjPz0s9vYV84py
zg3HjuEmdacnhNPQQQpNG83RMjEnnBvHWH2vxRWyD+57r/FWeA60aUJo5WIP0rj8
z6GqFT9IWaBrJtBU1YoxuyTH64yih6ljvm2skIEGlQYS+GBL9K/Tx4mh4lAKVzD5
GXVqtyM/dQKBgFD0Ik8VewK+QLXe87TcUK3cCLkuXZ4vEWxGJonUErUpcKFu7dLw
7CK0iT3zv5u8ANS9joMZEpmzVVryZNPbUF3cSjq+yIS8W0/XKCsZkGCBcOqPlubB
oc3MQhM65HqxzYJkthQCTq8GxUM547zCNA2FavDaCGrdELdA5lM++t2VAoGAMLem
AH68bqlhwM5gc5ZMtn2D1ynn9v8oudz2AAsRDKph5dHhlTx5T+/8j9dh1ijznSfA
G1KngWGGKZzIq5c3ar//Jvy75bWsUdEG8saRkCqgpo16Y9ZyXpLqrg1TfCD+ZFSz
2l5ZNKZZ4TkJ1y31qvaS+X7tQ9xQ0DgXGHgBIIUCgYABBBddUXpOyG54HvFHIgxS
esBBkpM0uy3vOkyfMown2GCjKZaXS5kEmRwU9WQQKLPf2ieALgYEf87YGWmPNZNF
tG5DoNhTMsrYORB11tuuBR1e6lrG/aoOkP/4udWC8d4Yp9wnkEu0l6X/kMfq2lb1
67bBVmHqKJ0t8rytHzkP0Q==
-----END PRIVATE KEY-----
Certificate:
    Data:
        Version: 3 (0x2)
        Serial Number:
            49:42:d4:02:cb:36:4e:33:7c:ab:f7:80:2e:72:8c:24
        Signature Algorithm: sha256WithRSAEncryption
        Issuer: C=US, ST=California, L=Mountain View, O=Test CA, CN=Test Intermediate CA
        Validity
            Not Before: Oct 10 20:46:12 2024 GMT
            Not After : Oct 10 20:46:12 2026 GMT
        Subject: C=US, ST=California, L=Mountain View, O=Test CA, CN=127.0.0.1
        Subject Public Key Info:
            Public Key Algorithm: rsaEncryption
                Public-Key: (2048 bit)
                Modulus:
                    00:e0:53:f4:f3:98:c1:14:33:02:c8:a4:6d:fe:aa:
                    2a:f7:94:3d:a6:6f:00:df:3b:de:4c:9f:a3:ea:07:
                    d4:ac:e5:5b:0d:d1:ac:e0:ed:f9:c5:98:1d:35:2d:
                    e5:b3:49:97:14:85:44:0f:dc:4c:d2:67:08:88:01:
                    a5:d8:a7:eb:93:d1:6a:a1:f7:51:e7:84:7e:52:2a:
                    7d:bc:6f:0e:d8:db:b6:a6:3e:de:dc:f5:a4:68:96:
                    44:11:85:02:ed:47:12:df:b8:60:71:95:7b:62:87:
                    68:7a:44:56:09:d5:b4:c8:f1:f6:c9:46:92:8b:68:
                    e8:83:d5:d5:86:71:23:c3:80:1e:bf:6c:01:c7:d2:
                    a4:bc:40:6d:e0:e3:c0:2e:30:78:bd:ad:dd:25:66:
                    d3:f5:07:07:56:d7:ce:e2:72:c5:25:7d:0c:e1:a7:
                    6f:00:a8:da:ab:4b:54:43:09:64:a4:b6:52:38:2f:
                    b7:cc:01:dd:1c:03:27:03:47:bf:df:e6:37:b0:ed:
                    18:dc:51:0b:d4:75:22:df:50:7b:3c:eb:37:39:1c:
                    9b:6f:08:7b:a7:05:ac:8c:43:f7:f1:da:51:06:b3:
                    82:45:3e:c8:81:73:9e:b0:a5:cf:76:96:af:81:2c:
                    ac:01:2a:4a:58:4b:1d:be:ff:1f:85:c2:27:de:f1:
                    78:0b
                Exponent: 65537 (0x10001)
        X509v3 extensions:
            X509v3 Basic Constraints: critical
                CA:FALSE
            X509v3 Subject Key Identifier: 
                E2:E0:A4:73:95:9B:E9:6E:FD:CE:29:C4:6F:07:81:0B:96:BD:47:BA
            X509v3 Authority Key Identifier: 
                17:5C:45:F3:D0:AC:1C:10:4C:8B:43:44:20:C4:DD:93:C5:C5:19:3B
            X509v3 Extended Key Usage: 
                TLS Web Server Authentication, TLS Web Client Authentication
            X509v3 Subject Alternative Name: 
                IP Address:127.0.0.1
    Signature Algorithm: sha256WithRSAEncryption
    Signature Value:
        6f:9c:76:79:58:c9:51:1b:2c:a3:b3:e7:17:50:23:80:f3:84:
        11:6c:cb:60:f2:4e:63:e6:4a:c4:7f:51:7e:1a:78:5d:d1:73:
        4b:db:e8:c0:03:69:ad:f8:66:1c:f1:16:fe:f2:d6:67:eb:5d:
        dc:3b:fb:8a:98:f5:1d:f7:86:fa:c3:36:d0:60:c7:5f:86:f3:
        ab:ea:55:ef:bd:32:5e:b9:a7:99:31:f0:a7:93:93:a7:89:f2:
        c9:ed:3d:9f:91:ff:3c:d6:69:f2:09:34:63:1c:ca:46:a5:22:
        a5:c2:81:f8:93:12:6e:57:d6:52:51:67:67:6d:0e:12:8b:39:
        ad:e4:b5:a1:d0:c2:b6:cf:ec:d5:6b:8f:1b:41:84:7b:c0:7a:
        26:7d:02:d3:d8:81:bb:ae:d2:bf:7a:13:7e:f2:d2:c1:32:f2:
        d5:a8:d5:f8:ab:81:f3:13:95:c3:47:12:8f:80:dc:1d:69:03:
        bd:ee:5b:4a:5c:10:cf:cb:0a:2a:89:fe:fe:21:8a:be:c2:af:
        f7:dc:3d:84:a4:dd:77:ea:da:69:04:20:5f:f5:a7:bc:ab:c3:
        8f:58:85:53:ef:ed:89:e5:5a:08:f2:77:e7:8d:58:17:f5:b8:
        5f:c0:28:0f:56:92:53:d3:90:4c:6d:94:24:5f:9c:26:71:34:
        c9:85:57:7a
-----BEGIN CERTIFICATE-----
MIID1jCCAr6gAwIBAgIQSULUAss2TjN8q/eALnKMJDANBgkqhkiG9w0BAQsFADBr
MQswCQYDVQQGEwJVUzETMBEGA1UECAwKQ2FsaWZvcm5pYTEWMBQGA1UEBwwNTW91
bnRhaW4gVmlldzEQMA4GA1UECgwHVGVzdCBDQTEdMBsGA1UEAwwUVGVzdCBJbnRl
cm1lZGlhdGUgQ0EwHhcNMjQxMDEwMjA0NjEyWhcNMjYxMDEwMjA0NjEyWjBgMQsw
CQYDVQQGEwJVUzETMBEGA1UECAwKQ2FsaWZvcm5pYTEWMBQGA1UEBwwNTW91bnRh
aW4gVmlldzEQMA4GA1UECgwHVGVzdCBDQTESMBAGA1UEAwwJMTI3LjAuMC4xMIIB
IjANBgkqhkiG9w0BAQEFAAOCAQ8AMIIBCgKCAQEA4FP085jBFDMCyKRt/qoq95Q9
pm8A3zveTJ+j6gfUrOVbDdGs4O35xZgdNS3ls0mXFIVED9xM0mcIiAGl2Kfrk9Fq
ofdR54R+Uip9vG8O2Nu2pj7e3PWkaJZEEYUC7UcS37hgcZV7YodoekRWCdW0yPH2
yUaSi2jog9XVhnEjw4Aev2wBx9KkvEBt4OPALjB4va3dJWbT9QcHVtfO4nLFJX0M
4advAKjaq0tUQwlkpLZSOC+3zAHdHAMnA0e/3+Y3sO0Y3FEL1HUi31B7POs3ORyb
bwh7pwWsjEP38dpRBrOCRT7IgXOesKXPdpavgSysASpKWEsdvv8fhcIn3vF4CwID
AQABo4GAMH4wDAYDVR0TAQH/BAIwADAdBgNVHQ4EFgQU4uCkc5Wb6W79zinEbweB
C5a9R7owHwYDVR0jBBgwFoAUF1xF89CsHBBMi0NEIMTdk8XFGTswHQYDVR0lBBYw
FAYIKwYBBQUHAwEGCCsGAQUFBwMCMA8GA1UdEQQIMAaHBH8AAAEwDQYJKoZIhvcN
AQELBQADggEBAG+cdnlYyVEbLKOz5xdQI4DzhBFsy2DyTmPmSsR/UX4aeF3Rc0vb
6MADaa34ZhzxFv7y1mfrXdw7+4qY9R33hvrDNtBgx1+G86vqVe+9Ml65p5kx8KeT
k6eJ8sntPZ+R/zzWafIJNGMcykalIqXCgfiTEm5X1lJRZ2dtDhKLOa3ktaHQwrbP
7NVrjxtBhHvAeiZ9AtPYgbuu0r96E37y0sEy8tWo1firgfMTlcNHEo+A3B1pA73u
W0pcEM/LCiqJ/v4hir7Cr/fcPYSk3Xfq2mkEIF/1p7yrw49YhVPv7YnlWgjyd+eN
WBf1uF/AKA9WklPTkExtlCRfnCZxNMmFV3o=
-----END CERTIFICATE-----
Certificate:
    Data:
        Version: 3 (0x2)
        Serial Number:
            5a:84:70:47:19:f5:1a:b1:2b:02:fc:31:3f:08:cd:2f
        Signature Algorithm: sha256WithRSAEncryption
        Issuer: C=US, ST=California, L=Mountain View, O=Test CA, CN=Test Root CA
        Validity
            Not Before: Oct 10 20:46:12 2024 GMT
            Not After : Oct  8 20:46:12 2034 GMT
        Subject: C=US, ST=California, L=Mountain View, O=Test CA, CN=Test Intermediate CA
        Subject Public Key Info:
            Public Key Algorithm: rsaEncryption
                Public-Key: (2048 bit)
                Modulus:
                    00:9d:e9:bd:e4:3d:4a:2f:fb:c2:f9:e6:22:2a:42:
                    15:46:1c:8c:8f:47:4c:e9:c5:57:95:1f:66:70:93:
                    22:f0:94:c3:bb:b5:5b:ef:a4:6f:c8:c7:89:95:75:
                    ba:0c:36:bf:4e:6b:a9:35:47:08:43:9e:29:6a:e2:
                    c3:fb:03:b7:1f:b6:e1:51:6b:ed:7b:19:c7:f9:ce:
                    3b:dc:65:e9:66:c7:83:94:c4:d1:4e:ee:ed:64:4b:
                    81:f1:1a:ea:5a:64:18:1b:6a:4e:93:d0:13:6c:90:
                    60:ca:d2:4e:b7:24:16:f8:b2:08:58:9d:8d:a7:33:
                    45:15:34:81:ad:2d:2d:9c:60:ef:f9:2b:98:fe:79:
                    d3:8d:2c:48:db:12:91:f4:2e:fa:bf:f5:26:c1:82:
                    05:80:dd:4c:a8:70:bf:a7:bc:10:34:77:39:db:47:
                    04:0f:ed:44:b2:65:46:22:20:88:59:28:0f:c7:0c:
                    a2:b4:91:a5:a2:aa:ca:05:9f:8a:9b:6e:a3:cb:d4:
                    a4:e8:24:75:9d:20:81:22:5b:5f:77:3e:c9:f1:1e:
                    ae:eb:8a:33:8c:27:5b:1e:be:6d:21:1b:42:72:95:
                    e3:9e:13:03:75:a7:58:d4:be:68:12:fe:63:8e:4b:
                    11:7a:34:e7:a3:6b:dd:73:ae:3e:19:9a:ec:91:8b:
                    73:af
                Exponent: 65537 (0x10001)
        X509v3 extensions:
            X509v3 Basic Constraints: critical
                CA:TRUE
            X509v3 Subject Key Identifier: 
                17:5C:45:F3:D0:AC:1C:10:4C:8B:43:44:20:C4:DD:93:C5:C5:19:3B
            X509v3 Key Usage: critical
                Certificate Sign, CRL Sign
            X509v3 Authority Key Identifier: 
                9B:26:0B:8A:98:A9:BB:1D:B9:1F:1C:E3:1A:40:33:ED:8E:17:88:AB
    Signature Algorithm: sha256WithRSAEncryption
    Signature Value:
        c0:30:42:a3:4e:f6:36:f9:75:08:6f:dc:bd:7f:aa:da:42:5d:
        39:4b:14:78:fe:7e:cf:8c:87:d4:92:1e:70:46:e1:01:04:5e:
        c5:d3:a1:91:f5:bc:e0:4f:e4:d1:c1:68:31:6e:53:35:35:11:
        25:a5:ab:58:2b:cf:f6:d7:f0:0b:29:d7:2e:6c:94:b8:14:41:
        8c:3c:4a:58:ee:db:54:ab:6b:57:6d:9f:08:71:c1:51:81:e4:
        f2:bc:aa:86:07:3b:3c:77:fa:7f:b4:f5:99:55:5f:e4:07:17:
        97:f7:98:f7:4d:99:f2:c3:e8:ab:76:f4:6c:66:0b:7b:c1:17:
        1b:6f:7d:30:8f:22:0a:fc:dd:cc:00:30:4f:c1:9f:12:94:08:
        d2:d8:d5:e6:b8:37:ac:f1:d7:e1:8c:c6:41:75:89:a3:17:05:
        54:ab:41:71:62:f8:47:75:04:11:b9:35:30:98:47:81:b6:6f:
        7e:91:7c:00:d5:9b:ae:24:aa:0a:9f:a0:c4:db:c1:bd:a0:0c:
        53:17:8e:bc:55:3c:f7:7d:e4:cb:51:5e:00:86:a8:dd:71:9d:
        4a:14:02:ce:af:2d:43:77:37:37:32:f6:50:a5:a1:b6:1a:d2:
        1b:0b:ff:b5:5d:6b:cb:2e:5e:c6:f4:e8:9b:25:39:e8:83:b3:
        c7:9f:43:a6
-----BEGIN CERTIFICATE-----
MIIDuzCCAqOgAwIBAgIQWoRwRxn1GrErAvwxPwjNLzANBgkqhkiG9w0BAQsFADBj
MQswCQYDVQQGEwJVUzETMBEGA1UECAwKQ2FsaWZvcm5pYTEWMBQGA1UEBwwNTW91
bnRhaW4gVmlldzEQMA4GA1UECgwHVGVzdCBDQTEVMBMGA1UEAwwMVGVzdCBSb290
IENBMB4XDTI0MTAxMDIwNDYxMloXDTM0MTAwODIwNDYxMlowazELMAkGA1UEBhMC
VVMxEzARBgNVBAgMCkNhbGlmb3JuaWExFjAUBgNVBAcMDU1vdW50YWluIFZpZXcx
EDAOBgNVBAoMB1Rlc3QgQ0ExHTAbBgNVBAMMFFRlc3QgSW50ZXJtZWRpYXRlIENB
MIIBIjANBgkqhkiG9w0BAQEFAAOCAQ8AMIIBCgKCAQEAnem95D1KL/vC+eYiKkIV
RhyMj0dM6cVXlR9mcJMi8JTDu7Vb76RvyMeJlXW6DDa/TmupNUcIQ54pauLD+wO3
H7bhUWvtexnH+c473GXpZseDlMTRTu7tZEuB8RrqWmQYG2pOk9ATbJBgytJOtyQW
+LIIWJ2NpzNFFTSBrS0tnGDv+SuY/nnTjSxI2xKR9C76v/UmwYIFgN1MqHC/p7wQ
NHc520cED+1EsmVGIiCIWSgPxwyitJGloqrKBZ+Km26jy9Sk6CR1nSCBIltfdz7J
8R6u64ozjCdbHr5tIRtCcpXjnhMDdadY1L5oEv5jjksRejTno2vdc64+GZrskYtz
rwIDAQABo2MwYTAPBgNVHRMBAf8EBTADAQH/MB0GA1UdDgQWBBQXXEXz0KwcEEyL
Q0QgxN2TxcUZOzAOBgNVHQ8BAf8EBAMCAQYwHwYDVR0jBBgwFoAUmyYLipipux25
HxzjGkAz7Y4XiKswDQYJKoZIhvcNAQELBQADggEBAMAwQqNO9jb5dQhv3L1/qtpC
XTlLFHj+fs+Mh9SSHnBG4QEEXsXToZH1vOBP5NHBaDFuUzU1ESWlq1grz/bX8Asp
1y5slLgUQYw8Slju21Sra1dtnwhxwVGB5PK8qoYHOzx3+n+09ZlVX+QHF5f3mPdN
mfLD6Kt29GxmC3vBFxtvfTCPIgr83cwAME/BnxKUCNLY1ea4N6zx1+GMxkF1iaMX
BVSrQXFi+Ed1BBG5NTCYR4G2b36RfADVm64kqgqfoMTbwb2gDFMXjrxVPPd95MtR
XgCGqN1xnUoUAs6vLUN3Nzcy9lClobYa0hsL/7Vda8suXsb06JslOeiDs8efQ6Y=
-----END CERTIFICATE-----
