-----BEGIN PRIVATE KEY-----
MIIEvAIBADANBgkqhkiG9w0BAQEFAASCBKYwggSiAgEAAoIBAQDgU/TzmMEUMwLI
pG3+qir3lD2mbwDfO95Mn6PqB9Ss5VsN0azg7fnFmB01LeWzSZcUhUQP3EzSZwiI
AaXYp+uT0Wqh91HnhH5SKn28bw7Y27amPt7c9aRolkQRhQLtRxLfuGBxlXtih2h6
RFYJ1bTI8fbJRpKLaOiD1dWGcSPDgB6/bAHH0qS8QG3g48AuMHi9rd0lZtP1BwdW
187icsUlfQzhp28AqNqrS1RDCWSktlI4L7fMAd0cAycDR7/f5jew7RjcUQvUdSLf
UHs86zc5HJtvCHunBayMQ/fx2lEGs4JFPsiBc56wpc92lq+BLKwBKkpYSx2+/x+F
wife8XgLAgMBAAECggEAO0gUmHdKtvLQDoPdiYogtrKXJC97dILWuTsKzyLoohQu
XtWFMR/SfNQ5C7+oTxvocATTurlGF+ggigidckbV64dQ/aJlI6CQ3VfbSHu02bwe
ZYqBzLShkP382QBkiJ3asAKCgiG1rJEKHB2I+ypdjyjaRdB/k5XStFxDBDdL8zKe
kL1hytf1ALxYBQJ3TXcoIqlpzz6v+JnZTAuu4vrySfffyFTrytIwf/KGlBACBqXe
oV+DK586PiyC0m1Hhy1rLTi2/IT4t4j3KO+c/OnpWkMEg1G/Ojy1zPMsMHr1VO9t
UWxhEIYOLQVUOT+2ltO4bRJcgEPHSxlIY23qalJgqQKBgQD9oZwHPhLZg439Zr9O
Zgl5fFkPe4SxqLY+ggE5O81+3RgL8GyAuy9oDtUGcw8L9tpKcBflqH4jEvUvT1/m
8BGKIQteqcKbY0C+KfPvq77R4k2KqmxpKF5f4BS/9O7cgzJZwhSFKDLtcKtDIPUK
3eoERuPB4/cmhQyb+/TKofZpfwKBgQDibEm1+nYj3tIXDxK3hZHjPz0s9vYV84py
zg3HjuEmdacnhNPQQQpNG83RMjEnnBvHWH2vxRWyD+57r/FWeA60aUJo5WIP0rj8
z6GqFT9IWaBrJtBU1YoxuyTH64yih6ljvm2skIEGlQYS+GBL9K/Tx4mh4lAKVzD5
GXVqtyM/dQKBgFD0Ik8VewK+QLXe87TcUK3cCLkuXZ4vEWxGJonUErUpcKFu7dLw
7CK0iT3zv5u8ANS9joMZEpmzVVryZNPbUF3cSjq+yIS8W0/XKCsZkGCBcOqPlubB
oc3MQhM65HqxzYJkthQCTq8GxUM547zCNA2FavDaCGrdELdA5lM++t2VAoGAMLem
AH68bqlhwM5gc5ZMtn2D1ynn9v8oudz2AAsRDKph5dHhlTx5T+/8j9dh1ijznSfA
G1KngWGGKZzIq5c3ar//Jvy75bWsUdEG8saRkCqgpo16Y9ZyXpLqrg1TfCD+ZFSz
2l5ZNKZZ4TkJ1y31qvaS+X7tQ9xQ0DgXGHgBIIUCgYABBBddUXpOyG54HvFHIgxS
esBBkpM0uy3vOkyfMown2GCjKZaXS5kEmRwU9WQQKLPf2ieALgYEf87YGWmPNZNF
tG5DoNhTMsrYORB11tuuBR1e6lrG/aoOkP/4udWC8d4Yp9wnkEu0l6X/kMfq2lb1
67bBVmHqKJ0t8rytHzkP0Q==
-----END PRIVATE KEY-----
Certificate:
    Data:
        Version: 3 (0x2)
        Serial Number:
            d8:5d:df:18:39:4d:28:d3:d2:2d:ca:93:6d:2c:1b:df
        Signature Algorithm: sha256WithRSAEncryption
        Issuer: C=US, ST=California, L=Mountain View, O=Test CA, CN=Test Intermediate CA
        Validity
            Not Before: Oct 30 18:43:14 2023 GMT
            Not After : Oct 29 18:43:14 2025 GMT
        Subject: C=US, ST=California, L=Mountain View, O=Test CA, CN=127.0.0.1
        Subject Public Key Info:
            Public Key Algorithm: rsaEncryption
                Public-Key: (2048 bit)
                Modulus:
                    00:e0:53:f4:f3:98:c1:14:33:02:c8:a4:6d:fe:aa:
                    2a:f7:94:3d:a6:6f:00:df:3b:de:4c:9f:a3:ea:07:
                    d4:ac:e5:5b:0d:d1:ac:e0:ed:f9:c5:98:1d:35:2d:
                    e5:b3:49:97:14:85:44:0f:dc:4c:d2:67:08:88:01:
                    a5:d8:a7:eb:93:d1:6a:a1:f7:51:e7:84:7e:52:2a:
                    7d:bc:6f:0e:d8:db:b6:a6:3e:de:dc:f5:a4:68:96:
                    44:11:85:02:ed:47:12:df:b8:60:71:95:7b:62:87:
                    68:7a:44:56:09:d5:b4:c8:f1:f6:c9:46:92:8b:68:
                    e8:83:d5:d5:86:71:23:c3:80:1e:bf:6c:01:c7:d2:
                    a4:bc:40:6d:e0:e3:c0:2e:30:78:bd:ad:dd:25:66:
                    d3:f5:07:07:56:d7:ce:e2:72:c5:25:7d:0c:e1:a7:
                    6f:00:a8:da:ab:4b:54:43:09:64:a4:b6:52:38:2f:
                    b7:cc:01:dd:1c:03:27:03:47:bf:df:e6:37:b0:ed:
                    18:dc:51:0b:d4:75:22:df:50:7b:3c:eb:37:39:1c:
                    9b:6f:08:7b:a7:05:ac:8c:43:f7:f1:da:51:06:b3:
                    82:45:3e:c8:81:73:9e:b0:a5:cf:76:96:af:81:2c:
                    ac:01:2a:4a:58:4b:1d:be:ff:1f:85:c2:27:de:f1:
                    78:0b
                Exponent: 65537 (0x10001)
        X509v3 extensions:
            X509v3 Basic Constraints: critical
                CA:FALSE
            X509v3 Subject Key Identifier: 
                E2:E0:A4:73:95:9B:E9:6E:FD:CE:29:C4:6F:07:81:0B:96:BD:47:BA
            X509v3 Authority Key Identifier: 
                17:5C:45:F3:D0:AC:1C:10:4C:8B:43:44:20:C4:DD:93:C5:C5:19:3B
            X509v3 Extended Key Usage: 
                TLS Web Server Authentication, TLS Web Client Authentication
            X509v3 Subject Alternative Name: 
                IP Address:127.0.0.1
    Signature Algorithm: sha256WithRSAEncryption
    Signature Value:
        4c:84:f4:98:8d:cd:e9:a6:0e:13:2b:97:61:69:db:21:d5:02:
        83:0f:b8:13:44:fe:38:eb:f3:04:e8:95:72:19:76:69:bd:5e:
        57:6c:ef:8c:df:96:da:5e:76:f4:70:fc:c1:40:1c:7e:3e:ca:
        89:f9:bf:20:33:5a:32:7e:fe:92:e9:4d:4b:81:88:9f:a6:95:
        99:50:a3:d0:bb:60:e8:44:2a:06:1a:2b:02:8e:24:8a:3a:44:
        6f:cf:c0:5f:a1:f9:99:c7:b3:b8:f0:ad:97:4b:41:99:d7:96:
        c7:be:7e:44:d9:f8:4f:2f:40:26:d0:cb:13:84:e1:94:1f:63:
        e6:06:dd:56:ba:e6:19:b1:70:7e:64:b3:02:dd:e9:2d:14:e3:
        94:e6:41:ff:63:52:ec:af:ad:82:52:c6:dc:af:a1:ac:6b:ac:
        16:d4:4d:e5:98:fb:59:99:ee:ef:f8:ab:9e:a7:36:a0:75:55:
        96:e3:b5:bd:71:36:f9:ad:4a:2c:2d:7f:96:c6:bc:e3:63:6d:
        9c:93:de:62:d3:79:89:e2:17:bc:8c:db:37:4d:b7:5d:5b:91:
        4c:8b:08:be:5c:39:d8:b3:54:0d:79:a7:05:41:d8:97:06:00:
        84:f0:8a:db:ad:59:16:31:6e:57:d1:6d:bd:c3:c2:85:92:50:
        6d:8b:25:27
-----BEGIN CERTIFICATE-----
MIID1zCCAr+gAwIBAgIRANhd3xg5TSjT0i3Kk20sG98wDQYJKoZIhvcNAQELBQAw
azELMAkGA1UEBhMCVVMxEzARBgNVBAgMCkNhbGlmb3JuaWExFjAUBgNVBAcMDU1v
dW50YWluIFZpZXcxEDAOBgNVBAoMB1Rlc3QgQ0ExHTAbBgNVBAMMFFRlc3QgSW50
ZXJtZWRpYXRlIENBMB4XDTIzMTAzMDE4NDMxNFoXDTI1MTAyOTE4NDMxNFowYDEL
MAkGA1UEBhMCVVMxEzARBgNVBAgMCkNhbGlmb3JuaWExFjAUBgNVBAcMDU1vdW50
YWluIFZpZXcxEDAOBgNVBAoMB1Rlc3QgQ0ExEjAQBgNVBAMMCTEyNy4wLjAuMTCC
ASIwDQYJKoZIhvcNAQEBBQADggEPADCCAQoCggEBAOBT9POYwRQzAsikbf6qKveU
PaZvAN873kyfo+oH1KzlWw3RrODt+cWYHTUt5bNJlxSFRA/cTNJnCIgBpdin65PR
aqH3UeeEflIqfbxvDtjbtqY+3tz1pGiWRBGFAu1HEt+4YHGVe2KHaHpEVgnVtMjx
9slGkoto6IPV1YZxI8OAHr9sAcfSpLxAbeDjwC4weL2t3SVm0/UHB1bXzuJyxSV9
DOGnbwCo2qtLVEMJZKS2Ujgvt8wB3RwDJwNHv9/mN7DtGNxRC9R1It9QezzrNzkc
m28Ie6cFrIxD9/HaUQazgkU+yIFznrClz3aWr4EsrAEqSlhLHb7/H4XCJ97xeAsC
AwEAAaOBgDB+MAwGA1UdEwEB/wQCMAAwHQYDVR0OBBYEFOLgpHOVm+lu/c4pxG8H
gQuWvUe6MB8GA1UdIwQYMBaAFBdcRfPQrBwQTItDRCDE3ZPFxRk7MB0GA1UdJQQW
MBQGCCsGAQUFBwMBBggrBgEFBQcDAjAPBgNVHREECDAGhwR/AAABMA0GCSqGSIb3
DQEBCwUAA4IBAQBMhPSYjc3ppg4TK5dhadsh1QKDD7gTRP446/ME6JVyGXZpvV5X
bO+M35baXnb0cPzBQBx+PsqJ+b8gM1oyfv6S6U1LgYifppWZUKPQu2DoRCoGGisC
jiSKOkRvz8BfofmZx7O48K2XS0GZ15bHvn5E2fhPL0Am0MsThOGUH2PmBt1WuuYZ
sXB+ZLMC3ektFOOU5kH/Y1Lsr62CUsbcr6Gsa6wW1E3lmPtZme7v+KuepzagdVWW
47W9cTb5rUosLX+WxrzjY22ck95i03mJ4he8jNs3TbddW5FMiwi+XDnYs1QNeacF
QdiXBgCE8IrbrVkWMW5X0W29w8KFklBtiyUn
-----END CERTIFICATE-----
Certificate:
    Data:
        Version: 3 (0x2)
        Serial Number:
            cf:95:70:1c:b6:6c:07:bb:a4:de:63:24:47:3b:4e:c0
        Signature Algorithm: sha256WithRSAEncryption
        Issuer: C=US, ST=California, L=Mountain View, O=Test CA, CN=Test Root CA
        Validity
            Not Before: Oct 30 18:43:13 2023 GMT
            Not After : Oct 27 18:43:13 2033 GMT
        Subject: C=US, ST=California, L=Mountain View, O=Test CA, CN=Test Intermediate CA
        Subject Public Key Info:
            Public Key Algorithm: rsaEncryption
                Public-Key: (2048 bit)
                Modulus:
                    00:9d:e9:bd:e4:3d:4a:2f:fb:c2:f9:e6:22:2a:42:
                    15:46:1c:8c:8f:47:4c:e9:c5:57:95:1f:66:70:93:
                    22:f0:94:c3:bb:b5:5b:ef:a4:6f:c8:c7:89:95:75:
                    ba:0c:36:bf:4e:6b:a9:35:47:08:43:9e:29:6a:e2:
                    c3:fb:03:b7:1f:b6:e1:51:6b:ed:7b:19:c7:f9:ce:
                    3b:dc:65:e9:66:c7:83:94:c4:d1:4e:ee:ed:64:4b:
                    81:f1:1a:ea:5a:64:18:1b:6a:4e:93:d0:13:6c:90:
                    60:ca:d2:4e:b7:24:16:f8:b2:08:58:9d:8d:a7:33:
                    45:15:34:81:ad:2d:2d:9c:60:ef:f9:2b:98:fe:79:
                    d3:8d:2c:48:db:12:91:f4:2e:fa:bf:f5:26:c1:82:
                    05:80:dd:4c:a8:70:bf:a7:bc:10:34:77:39:db:47:
                    04:0f:ed:44:b2:65:46:22:20:88:59:28:0f:c7:0c:
                    a2:b4:91:a5:a2:aa:ca:05:9f:8a:9b:6e:a3:cb:d4:
                    a4:e8:24:75:9d:20:81:22:5b:5f:77:3e:c9:f1:1e:
                    ae:eb:8a:33:8c:27:5b:1e:be:6d:21:1b:42:72:95:
                    e3:9e:13:03:75:a7:58:d4:be:68:12:fe:63:8e:4b:
                    11:7a:34:e7:a3:6b:dd:73:ae:3e:19:9a:ec:91:8b:
                    73:af
                Exponent: 65537 (0x10001)
        X509v3 extensions:
            X509v3 Basic Constraints: critical
                CA:TRUE
            X509v3 Subject Key Identifier: 
                17:5C:45:F3:D0:AC:1C:10:4C:8B:43:44:20:C4:DD:93:C5:C5:19:3B
            X509v3 Key Usage: critical
                Certificate Sign, CRL Sign
            X509v3 Authority Key Identifier: 
                9B:26:0B:8A:98:A9:BB:1D:B9:1F:1C:E3:1A:40:33:ED:8E:17:88:AB
    Signature Algorithm: sha256WithRSAEncryption
    Signature Value:
        99:e0:bb:9c:c2:f6:50:e7:95:cc:53:be:ad:a5:eb:38:11:87:
        67:c2:c6:37:76:9e:aa:03:cd:c3:d4:f3:6b:b8:a5:46:e3:cf:
        25:51:13:f0:98:e0:d5:38:b4:5a:4a:b6:53:e6:dd:95:3b:7e:
        f9:bd:d4:79:35:f0:6b:0d:e2:52:4e:28:f0:fe:09:0a:5e:b1:
        30:56:4c:a5:f5:d8:0c:3b:ce:b2:06:bd:a9:dd:07:e6:94:54:
        f7:d0:73:fc:5c:0c:c1:a5:3a:fa:28:e6:75:24:3d:99:ab:1a:
        6b:73:43:67:9d:22:71:d7:fa:c2:78:63:c9:b2:11:93:12:16:
        42:51:83:79:27:10:4e:69:0c:ef:80:23:0d:b2:6b:0b:24:aa:
        8b:b1:0d:a7:de:6f:81:74:9f:23:98:2c:69:78:7f:dd:5c:4e:
        5d:fe:17:2e:24:e0:ac:ba:b9:a2:b0:53:4c:45:f3:74:88:88:
        a9:ea:c4:d5:14:c6:84:91:1e:d0:9e:82:bc:8f:f2:c1:17:1c:
        fb:54:42:68:30:c9:b0:3c:b7:06:db:6b:42:2c:e8:b6:b7:86:
        f8:5f:88:9e:02:08:98:5d:a1:2c:c3:7b:1a:09:95:33:64:4b:
        c4:1e:1c:e8:2a:7a:3e:46:2b:ba:b6:90:15:2d:ad:1b:85:e7:
        f4:a9:04:3e
-----BEGIN CERTIFICATE-----
MIIDvDCCAqSgAwIBAgIRAM+VcBy2bAe7pN5jJEc7TsAwDQYJKoZIhvcNAQELBQAw
YzELMAkGA1UEBhMCVVMxEzARBgNVBAgMCkNhbGlmb3JuaWExFjAUBgNVBAcMDU1v
dW50YWluIFZpZXcxEDAOBgNVBAoMB1Rlc3QgQ0ExFTATBgNVBAMMDFRlc3QgUm9v
dCBDQTAeFw0yMzEwMzAxODQzMTNaFw0zMzEwMjcxODQzMTNaMGsxCzAJBgNVBAYT
AlVTMRMwEQYDVQQIDApDYWxpZm9ybmlhMRYwFAYDVQQHDA1Nb3VudGFpbiBWaWV3
MRAwDgYDVQQKDAdUZXN0IENBMR0wGwYDVQQDDBRUZXN0IEludGVybWVkaWF0ZSBD
QTCCASIwDQYJKoZIhvcNAQEBBQADggEPADCCAQoCggEBAJ3pveQ9Si/7wvnmIipC
FUYcjI9HTOnFV5UfZnCTIvCUw7u1W++kb8jHiZV1ugw2v05rqTVHCEOeKWriw/sD
tx+24VFr7XsZx/nOO9xl6WbHg5TE0U7u7WRLgfEa6lpkGBtqTpPQE2yQYMrSTrck
FviyCFidjaczRRU0ga0tLZxg7/krmP55040sSNsSkfQu+r/1JsGCBYDdTKhwv6e8
EDR3OdtHBA/tRLJlRiIgiFkoD8cMorSRpaKqygWfiptuo8vUpOgkdZ0ggSJbX3c+
yfEeruuKM4wnWx6+bSEbQnKV454TA3WnWNS+aBL+Y45LEXo056Nr3XOuPhma7JGL
c68CAwEAAaNjMGEwDwYDVR0TAQH/BAUwAwEB/zAdBgNVHQ4EFgQUF1xF89CsHBBM
i0NEIMTdk8XFGTswDgYDVR0PAQH/BAQDAgEGMB8GA1UdIwQYMBaAFJsmC4qYqbsd
uR8c4xpAM+2OF4irMA0GCSqGSIb3DQEBCwUAA4IBAQCZ4LucwvZQ55XMU76tpes4
EYdnwsY3dp6qA83D1PNruKVG488lURPwmODVOLRaSrZT5t2VO375vdR5NfBrDeJS
Tijw/gkKXrEwVkyl9dgMO86yBr2p3QfmlFT30HP8XAzBpTr6KOZ1JD2Zqxprc0Nn
nSJx1/rCeGPJshGTEhZCUYN5JxBOaQzvgCMNsmsLJKqLsQ2n3m+BdJ8jmCxpeH/d
XE5d/hcuJOCsurmisFNMRfN0iIip6sTVFMaEkR7QnoK8j/LBFxz7VEJoMMmwPLcG
22tCLOi2t4b4X4ieAgiYXaEsw3saCZUzZEvEHhzoKno+Riu6tpAVLa0bhef0qQQ+
-----END CERTIFICATE-----
