-----BEGIN PRIVATE KEY-----
MIIEvAIBADANBgkqhkiG9w0BAQEFAASCBKYwggSiAgEAAoIBAQDgU/TzmMEUMwLI
pG3+qir3lD2mbwDfO95Mn6PqB9Ss5VsN0azg7fnFmB01LeWzSZcUhUQP3EzSZwiI
AaXYp+uT0Wqh91HnhH5SKn28bw7Y27amPt7c9aRolkQRhQLtRxLfuGBxlXtih2h6
RFYJ1bTI8fbJRpKLaOiD1dWGcSPDgB6/bAHH0qS8QG3g48AuMHi9rd0lZtP1BwdW
187icsUlfQzhp28AqNqrS1RDCWSktlI4L7fMAd0cAycDR7/f5jew7RjcUQvUdSLf
UHs86zc5HJtvCHunBayMQ/fx2lEGs4JFPsiBc56wpc92lq+BLKwBKkpYSx2+/x+F
wife8XgLAgMBAAECggEAO0gUmHdKtvLQDoPdiYogtrKXJC97dILWuTsKzyLoohQu
XtWFMR/SfNQ5C7+oTxvocATTurlGF+ggigidckbV64dQ/aJlI6CQ3VfbSHu02bwe
ZYqBzLShkP382QBkiJ3asAKCgiG1rJEKHB2I+ypdjyjaRdB/k5XStFxDBDdL8zKe
kL1hytf1ALxYBQJ3TXcoIqlpzz6v+JnZTAuu4vrySfffyFTrytIwf/KGlBACBqXe
oV+DK586PiyC0m1Hhy1rLTi2/IT4t4j3KO+c/OnpWkMEg1G/Ojy1zPMsMHr1VO9t
UWxhEIYOLQVUOT+2ltO4bRJcgEPHSxlIY23qalJgqQKBgQD9oZwHPhLZg439Zr9O
Zgl5fFkPe4SxqLY+ggE5O81+3RgL8GyAuy9oDtUGcw8L9tpKcBflqH4jEvUvT1/m
8BGKIQteqcKbY0C+KfPvq77R4k2KqmxpKF5f4BS/9O7cgzJZwhSFKDLtcKtDIPUK
3eoERuPB4/cmhQyb+/TKofZpfwKBgQDibEm1+nYj3tIXDxK3hZHjPz0s9vYV84py
zg3HjuEmdacnhNPQQQpNG83RMjEnnBvHWH2vxRWyD+57r/FWeA60aUJo5WIP0rj8
z6GqFT9IWaBrJtBU1YoxuyTH64yih6ljvm2skIEGlQYS+GBL9K/Tx4mh4lAKVzD5
GXVqtyM/dQKBgFD0Ik8VewK+QLXe87TcUK3cCLkuXZ4vEWxGJonUErUpcKFu7dLw
7CK0iT3zv5u8ANS9joMZEpmzVVryZNPbUF3cSjq+yIS8W0/XKCsZkGCBcOqPlubB
oc3MQhM65HqxzYJkthQCTq8GxUM547zCNA2FavDaCGrdELdA5lM++t2VAoGAMLem
AH68bqlhwM5gc5ZMtn2D1ynn9v8oudz2AAsRDKph5dHhlTx5T+/8j9dh1ijznSfA
G1KngWGGKZzIq5c3ar//Jvy75bWsUdEG8saRkCqgpo16Y9ZyXpLqrg1TfCD+ZFSz
2l5ZNKZZ4TkJ1y31qvaS+X7tQ9xQ0DgXGHgBIIUCgYABBBddUXpOyG54HvFHIgxS
esBBkpM0uy3vOkyfMown2GCjKZaXS5kEmRwU9WQQKLPf2ieALgYEf87YGWmPNZNF
tG5DoNhTMsrYORB11tuuBR1e6lrG/aoOkP/4udWC8d4Yp9wnkEu0l6X/kMfq2lb1
67bBVmHqKJ0t8rytHzkP0Q==
-----END PRIVATE KEY-----
Certificate:
    Data:
        Version: 3 (0x2)
        Serial Number:
            cf:95:70:1c:b6:6c:07:bb:a4:de:63:24:47:3b:4e:c2
        Signature Algorithm: sha256WithRSAEncryption
        Issuer: C=US, ST=California, L=Mountain View, O=Test CA, CN=Test Root CA
        Validity
            Not Before: Oct 30 18:43:14 2023 GMT
            Not After : Oct 29 18:43:14 2025 GMT
        Subject: C=US, ST=California, L=Mountain View, O=Test CA, CN=127.0.0.1
        Subject Public Key Info:
            Public Key Algorithm: rsaEncryption
                Public-Key: (2048 bit)
                Modulus:
                    00:e0:53:f4:f3:98:c1:14:33:02:c8:a4:6d:fe:aa:
                    2a:f7:94:3d:a6:6f:00:df:3b:de:4c:9f:a3:ea:07:
                    d4:ac:e5:5b:0d:d1:ac:e0:ed:f9:c5:98:1d:35:2d:
                    e5:b3:49:97:14:85:44:0f:dc:4c:d2:67:08:88:01:
                    a5:d8:a7:eb:93:d1:6a:a1:f7:51:e7:84:7e:52:2a:
                    7d:bc:6f:0e:d8:db:b6:a6:3e:de:dc:f5:a4:68:96:
                    44:11:85:02:ed:47:12:df:b8:60:71:95:7b:62:87:
                    68:7a:44:56:09:d5:b4:c8:f1:f6:c9:46:92:8b:68:
                    e8:83:d5:d5:86:71:23:c3:80:1e:bf:6c:01:c7:d2:
                    a4:bc:40:6d:e0:e3:c0:2e:30:78:bd:ad:dd:25:66:
                    d3:f5:07:07:56:d7:ce:e2:72:c5:25:7d:0c:e1:a7:
                    6f:00:a8:da:ab:4b:54:43:09:64:a4:b6:52:38:2f:
                    b7:cc:01:dd:1c:03:27:03:47:bf:df:e6:37:b0:ed:
                    18:dc:51:0b:d4:75:22:df:50:7b:3c:eb:37:39:1c:
                    9b:6f:08:7b:a7:05:ac:8c:43:f7:f1:da:51:06:b3:
                    82:45:3e:c8:81:73:9e:b0:a5:cf:76:96:af:81:2c:
                    ac:01:2a:4a:58:4b:1d:be:ff:1f:85:c2:27:de:f1:
                    78:0b
                Exponent: 65537 (0x10001)
        X509v3 extensions:
            X509v3 Basic Constraints: critical
                CA:FALSE
            X509v3 Subject Key Identifier: 
                E2:E0:A4:73:95:9B:E9:6E:FD:CE:29:C4:6F:07:81:0B:96:BD:47:BA
            X509v3 Authority Key Identifier: 
                9B:26:0B:8A:98:A9:BB:1D:B9:1F:1C:E3:1A:40:33:ED:8E:17:88:AB
            X509v3 Extended Key Usage: 
                TLS Web Server Authentication, TLS Web Client Authentication
            X509v3 Subject Alternative Name: 
                IP Address:127.0.0.1
    Signature Algorithm: sha256WithRSAEncryption
    Signature Value:
        50:f0:15:cb:eb:da:da:b6:88:f4:45:1f:49:1c:6a:76:cc:5a:
        04:df:6e:fc:4b:84:4d:c2:7d:73:9f:4f:ee:86:ab:09:39:bd:
        5a:4a:69:18:74:30:f4:48:78:b7:c4:65:6e:81:6f:08:bc:a7:
        4d:8e:80:6d:a5:a6:5a:66:b3:cc:08:4c:a2:0a:17:25:28:ec:
        5a:bc:85:f1:7d:9e:0e:c6:61:2b:d0:30:cc:fa:71:36:94:2b:
        78:5d:37:4b:2e:1a:09:b1:24:20:d8:64:1b:da:63:99:85:10:
        cf:77:cb:4b:7f:78:d7:a4:9e:72:e7:7a:3a:20:95:54:85:d5:
        6e:fc:b2:8d:8b:3b:fc:47:db:43:e9:25:f8:0f:84:34:37:6f:
        44:85:d2:a6:c6:94:78:af:38:26:c0:44:c0:53:33:af:6e:89:
        68:80:87:1f:f1:c6:59:c9:28:ce:90:19:4b:e5:87:d4:27:0d:
        b0:d0:be:3e:d9:2b:d4:f4:a0:6c:1a:d3:b5:fb:b3:9d:66:f6:
        ff:f1:26:33:23:85:a4:84:1b:33:e2:bd:20:34:60:f3:1b:eb:
        0e:0e:43:47:56:01:67:fb:2e:cd:d6:a0:2e:bb:34:55:b7:1e:
        0b:06:27:04:1a:09:6c:08:ac:c8:d1:e8:a9:03:67:56:03:b1:
        db:ca:44:0d
-----BEGIN CERTIFICATE-----
MIIDzzCCAregAwIBAgIRAM+VcBy2bAe7pN5jJEc7TsIwDQYJKoZIhvcNAQELBQAw
YzELMAkGA1UEBhMCVVMxEzARBgNVBAgMCkNhbGlmb3JuaWExFjAUBgNVBAcMDU1v
dW50YWluIFZpZXcxEDAOBgNVBAoMB1Rlc3QgQ0ExFTATBgNVBAMMDFRlc3QgUm9v
dCBDQTAeFw0yMzEwMzAxODQzMTRaFw0yNTEwMjkxODQzMTRaMGAxCzAJBgNVBAYT
AlVTMRMwEQYDVQQIDApDYWxpZm9ybmlhMRYwFAYDVQQHDA1Nb3VudGFpbiBWaWV3
MRAwDgYDVQQKDAdUZXN0IENBMRIwEAYDVQQDDAkxMjcuMC4wLjEwggEiMA0GCSqG
SIb3DQEBAQUAA4IBDwAwggEKAoIBAQDgU/TzmMEUMwLIpG3+qir3lD2mbwDfO95M
n6PqB9Ss5VsN0azg7fnFmB01LeWzSZcUhUQP3EzSZwiIAaXYp+uT0Wqh91HnhH5S
Kn28bw7Y27amPt7c9aRolkQRhQLtRxLfuGBxlXtih2h6RFYJ1bTI8fbJRpKLaOiD
1dWGcSPDgB6/bAHH0qS8QG3g48AuMHi9rd0lZtP1BwdW187icsUlfQzhp28AqNqr
S1RDCWSktlI4L7fMAd0cAycDR7/f5jew7RjcUQvUdSLfUHs86zc5HJtvCHunBayM
Q/fx2lEGs4JFPsiBc56wpc92lq+BLKwBKkpYSx2+/x+Fwife8XgLAgMBAAGjgYAw
fjAMBgNVHRMBAf8EAjAAMB0GA1UdDgQWBBTi4KRzlZvpbv3OKcRvB4ELlr1HujAf
BgNVHSMEGDAWgBSbJguKmKm7HbkfHOMaQDPtjheIqzAdBgNVHSUEFjAUBggrBgEF
BQcDAQYIKwYBBQUHAwIwDwYDVR0RBAgwBocEfwAAATANBgkqhkiG9w0BAQsFAAOC
AQEAUPAVy+va2raI9EUfSRxqdsxaBN9u/EuETcJ9c59P7oarCTm9WkppGHQw9Eh4
t8RlboFvCLynTY6AbaWmWmazzAhMogoXJSjsWryF8X2eDsZhK9AwzPpxNpQreF03
Sy4aCbEkINhkG9pjmYUQz3fLS39416Secud6OiCVVIXVbvyyjYs7/EfbQ+kl+A+E
NDdvRIXSpsaUeK84JsBEwFMzr26JaICHH/HGWckozpAZS+WH1CcNsNC+Ptkr1PSg
bBrTtfuznWb2//EmMyOFpIQbM+K9IDRg8xvrDg5DR1YBZ/suzdagLrs0VbceCwYn
BBoJbAisyNHoqQNnVgOx28pEDQ==
-----END CERTIFICATE-----
