Certificate:
    Data:
        Version: 3 (0x2)
        Serial Number:
            4d:d9:69:be:19:02:c8:06:e7:89:80:39:e0:34:2d:6d:d0:73:80:0d
        Signature Algorithm: sha256WithRSAEncryption
        Issuer: C=US, ST=California, L=Mountain View, O=Test CA, CN=127.0.0.1
        Validity
            Not Before: Oct 10 20:46:13 2024 GMT
            Not After : Oct  8 20:46:13 2034 GMT
        Subject: C=US, ST=California, L=Mountain View, O=Test CA, CN=127.0.0.1
        Subject Public Key Info:
            Public Key Algorithm: rsaEncryption
                Public-Key: (2048 bit)
                Modulus:
                    00:95:5c:f1:40:8c:c3:b5:c8:2c:65:d7:fc:49:19:
                    be:8e:2b:05:15:3c:06:65:5c:66:83:6d:de:68:35:
                    bc:d5:4e:9c:ee:ee:c0:59:7e:00:fe:55:fc:fa:8d:
                    d9:3d:ca:00:e0:fb:2d:59:31:25:24:26:75:bb:db:
                    c7:1c:7f:37:56:b8:e8:8f:ea:8b:b5:49:26:4d:d8:
                    fa:32:b9:38:f2:f0:54:e4:4c:84:2b:b7:ea:a7:0b:
                    56:87:25:1e:e7:b5:3f:68:51:76:c7:94:19:d4:c1:
                    3d:ce:82:3f:4a:16:07:26:ce:9f:ff:b0:2c:24:a2:
                    06:e2:37:74:c3:81:67:e1:53:90:6b:dc:42:f0:4b:
                    84:d1:8f:64:5d:fb:98:36:e9:ca:ba:d1:f2:be:64:
                    d5:ec:e6:52:f8:bc:a3:65:56:fe:68:d6:25:33:d6:
                    fb:6d:11:86:8f:08:d4:2f:f6:2a:43:2a:50:a5:82:
                    25:5f:1a:6e:6c:52:41:c4:63:b6:1c:63:c9:3f:a5:
                    af:aa:05:80:94:27:66:97:cb:97:90:ba:25:a8:af:
                    1a:12:a0:16:b0:77:7e:2b:39:85:e6:46:f0:c8:4a:
                    4c:33:ce:71:51:49:ed:bb:56:82:d9:20:58:d2:24:
                    eb:89:d5:49:16:32:e7:33:64:39:06:bb:2d:d6:07:
                    22:91
                Exponent: 65537 (0x10001)
        X509v3 extensions:
            X509v3 Certificate Policies: 
                Policy: 1.2.3.4.5
                Policy: 1.3.5.8.12
                  CPS: http://cps.example.com/foo
                  User Notice:
                    Organization: Organization Name
                    Numbers: 1, 2, 3, 4
                    Explicit Text: Explicit Text Here
                  User Notice:
                    Explicit Text: Explicit Text Two
                  User Notice:
                    Organization: Organization Name Two
                    Number: 42
            X509v3 Subject Key Identifier: 
                20:90:BA:55:1A:F9:09:5F:EC:11:15:88:B9:08:42:70:0F:04:B1:A1
    Signature Algorithm: sha256WithRSAEncryption
    Signature Value:
        66:d6:6b:a6:66:4c:e7:d7:12:2b:90:86:40:e6:32:8b:06:95:
        01:ff:98:f4:f7:54:d2:fc:e4:93:d0:a6:86:dc:21:57:a6:31:
        f4:ea:5a:8c:85:1a:4b:c9:e9:8b:bc:a8:f1:8d:67:ca:ec:d4:
        cb:76:76:e5:f1:90:75:cc:a8:de:70:20:16:06:9a:f1:09:4d:
        75:7d:44:24:73:17:23:68:bf:93:0a:da:22:94:91:3e:c5:11:
        6d:6c:02:23:cb:2e:d7:e4:7c:56:78:a4:4a:0b:80:eb:e6:1b:
        c8:c1:d2:d1:c4:12:ce:cd:3f:57:aa:3d:0f:63:57:d3:b5:c1:
        3e:0e:ab:6f:25:dd:af:f4:d0:f8:95:13:08:ec:ea:d4:ae:b1:
        06:c7:6e:13:11:a2:da:44:52:7d:db:1f:e1:3b:aa:d7:73:81:
        52:64:ec:7d:3c:f4:ad:7b:06:91:52:ba:cd:16:e1:bb:a0:ec:
        27:91:67:7f:7b:b7:c3:3b:3a:90:e4:72:6f:56:50:5c:7a:ae:
        fc:f5:d4:0b:45:4d:55:69:14:cb:27:2c:dc:59:0b:0d:ad:1b:
        af:15:42:e1:d4:6e:86:6a:51:57:9f:1c:62:8d:36:38:7e:f1:
        85:1c:b5:da:2c:72:ee:6e:cf:78:93:d6:4f:0b:18:4e:63:42:
        4c:68:21:04
-----BEGIN CERTIFICATE-----
MIIETTCCAzWgAwIBAgIUTdlpvhkCyAbniYA54DQtbdBzgA0wDQYJKoZIhvcNAQEL
BQAwYDELMAkGA1UEBhMCVVMxEzARBgNVBAgMCkNhbGlmb3JuaWExFjAUBgNVBAcM
DU1vdW50YWluIFZpZXcxEDAOBgNVBAoMB1Rlc3QgQ0ExEjAQBgNVBAMMCTEyNy4w
LjAuMTAeFw0yNDEwMTAyMDQ2MTNaFw0zNDEwMDgyMDQ2MTNaMGAxCzAJBgNVBAYT
AlVTMRMwEQYDVQQIDApDYWxpZm9ybmlhMRYwFAYDVQQHDA1Nb3VudGFpbiBWaWV3
MRAwDgYDVQQKDAdUZXN0IENBMRIwEAYDVQQDDAkxMjcuMC4wLjEwggEiMA0GCSqG
SIb3DQEBAQUAA4IBDwAwggEKAoIBAQCVXPFAjMO1yCxl1/xJGb6OKwUVPAZlXGaD
bd5oNbzVTpzu7sBZfgD+Vfz6jdk9ygDg+y1ZMSUkJnW728ccfzdWuOiP6ou1SSZN
2PoyuTjy8FTkTIQrt+qnC1aHJR7ntT9oUXbHlBnUwT3Ogj9KFgcmzp//sCwkogbi
N3TDgWfhU5Br3ELwS4TRj2Rd+5g26cq60fK+ZNXs5lL4vKNlVv5o1iUz1vttEYaP
CNQv9ipDKlClgiVfGm5sUkHEY7YcY8k/pa+qBYCUJ2aXy5eQuiWorxoSoBawd34r
OYXmRvDISkwzznFRSe27VoLZIFjSJOuJ1UkWMuczZDkGuy3WByKRAgMBAAGjgf4w
gfswgdkGA1UdIASB0TCBzjAGBgQqAwQFMIHDBgQrBQgMMIG6MCYGCCsGAQUFBwIB
FhpodHRwOi8vY3BzLmV4YW1wbGUuY29tL2ZvbzBDBggrBgEFBQcCAjA3MCEaEU9y
Z2FuaXphdGlvbiBOYW1lMAwCAQECAQICAQMCAQQaEkV4cGxpY2l0IFRleHQgSGVy
ZTAfBggrBgEFBQcCAjATGhFFeHBsaWNpdCBUZXh0IFR3bzAqBggrBgEFBQcCAjAe
MBwaFU9yZ2FuaXphdGlvbiBOYW1lIFR3bzADAgEqMB0GA1UdDgQWBBQgkLpVGvkJ
X+wRFYi5CEJwDwSxoTANBgkqhkiG9w0BAQsFAAOCAQEAZtZrpmZM59cSK5CGQOYy
iwaVAf+Y9PdU0vzkk9CmhtwhV6Yx9OpajIUaS8npi7yo8Y1nyuzUy3Z25fGQdcyo
3nAgFgaa8QlNdX1EJHMXI2i/kwraIpSRPsURbWwCI8su1+R8VnikSguA6+YbyMHS
0cQSzs0/V6o9D2NX07XBPg6rbyXdr/TQ+JUTCOzq1K6xBsduExGi2kRSfdsf4Tuq
13OBUmTsfTz0rXsGkVK6zRbhu6DsJ5Fnf3u3wzs6kORyb1ZQXHqu/PXUC0VNVWkU
yycs3FkLDa0brxVC4dRuhmpRV58cYo02OH7xhRy12ixy7m7PeJPWTwsYTmNCTGgh
BA==
-----END CERTIFICATE-----
