Certificate:
    Data:
        Version: 3 (0x2)
        Serial Number:
            3f:da:e4:08:b7:6c:7c:c7:71:61:c1:d6:0f:c0:95:bc:69:fb:bb:12
        Signature Algorithm: sha256WithRSAEncryption
        Issuer: C = US, ST = California, L = Mountain View, O = Test CA, CN = 127.0.0.1
        Validity
            Not Before: Oct  3 17:20:09 2022 GMT
            Not After : Sep 30 17:20:09 2032 GMT
        Subject: C = US, ST = California, L = Mountain View, O = Test CA, CN = 127.0.0.1
        Subject Public Key Info:
            Public Key Algorithm: rsaEncryption
                Public-Key: (2048 bit)
                Modulus:
                    00:a4:cd:2c:e1:f6:f0:26:79:e1:27:a7:a6:45:21:
                    e1:8f:2a:40:82:18:cf:e0:2b:63:fa:7a:d9:eb:34:
                    7a:1a:0c:eb:63:b9:73:5d:64:e0:3e:95:c7:6a:08:
                    ee:c5:85:d1:07:f2:9f:36:0e:79:13:bb:fd:26:80:
                    b7:1e:fc:63:2b:d8:a0:04:be:38:ac:e9:74:76:32:
                    13:4d:0d:5b:b1:ba:4a:46:f1:3e:ae:1d:42:36:93:
                    7f:1b:72:da:be:3b:c8:c6:d9:ac:57:2a:bb:69:60:
                    d7:45:3d:4d:5b:ee:ef:ce:c8:4a:1c:21:24:69:15:
                    c5:28:02:ec:48:1d:39:25:3b:09:d7:cb:9f:4c:c2:
                    7a:c0:db:0b:c8:a3:86:ae:54:8c:1d:8b:a3:34:f8:
                    4d:49:8b:9c:2b:98:00:9a:08:7b:b8:4c:6a:60:75:
                    cd:38:ac:f0:d2:b8:67:1b:88:cf:4c:2f:be:1c:e7:
                    30:55:2e:db:ab:ec:01:f8:12:af:87:ee:16:f9:47:
                    02:68:c6:2a:cb:a3:89:1d:39:bf:dc:9b:92:5f:60:
                    6f:5b:8a:60:f7:2f:4c:0c:23:9b:f5:3c:f9:0f:3c:
                    3c:46:88:35:12:5d:1f:34:52:e6:8b:f1:fc:6d:57:
                    ac:86:1f:f4:d2:21:eb:68:c3:0f:b4:62:9e:0f:4b:
                    ad:f7
                Exponent: 65537 (0x10001)
        X509v3 extensions:
            X509v3 Certificate Policies: 
                Policy: 1.2.3.4.5
                Policy: 1.3.5.8.12
                  CPS: http://cps.example.com/foo
                  User Notice:
                    Organization: Organization Name
                    Numbers: 1, 2, 3, 4
                    Explicit Text: Explicit Text Here
                  User Notice:
                    Explicit Text: Explicit Text Two
                  User Notice:
                    Organization: Organization Name Two
                    Number: 42
            X509v3 Subject Key Identifier: 
                84:A7:AA:E2:63:F0:DF:98:C6:90:F3:67:27:49:0D:A8:F5:E2:EE:DF
    Signature Algorithm: sha256WithRSAEncryption
    Signature Value:
        91:ba:b8:c9:e1:a5:45:bf:dc:3e:30:39:e2:68:25:34:8b:d8:
        90:5a:30:11:7d:68:ce:8c:97:23:fb:fc:91:a5:37:a9:c1:24:
        f2:7d:92:da:69:7b:f6:3c:2f:60:ed:b8:9b:cf:93:66:54:62:
        03:ee:3d:8c:6a:b4:4a:70:9a:ef:b1:9c:a2:a9:bb:79:9a:84:
        72:da:b3:44:64:8e:97:76:c6:1e:85:fa:10:3f:76:fd:14:17:
        11:7b:83:cf:82:68:5b:86:81:d8:a6:5d:26:b2:e2:cb:68:fe:
        96:27:bc:a6:99:71:30:35:df:de:67:ea:14:81:44:42:de:d8:
        55:17:ae:2e:c5:1a:a5:44:3c:f9:cd:02:55:93:c8:b4:88:80:
        05:f9:15:93:8e:f3:2a:0d:3d:32:f0:a1:60:d6:f3:02:df:cd:
        fc:cb:d7:29:34:16:cc:c8:ac:48:2b:a4:03:c0:bb:df:a8:df:
        b8:54:0f:8e:e9:7f:fa:91:fb:33:14:0f:d6:08:ae:b2:81:fe:
        f3:63:1f:8b:0b:81:b9:44:70:c0:cd:34:58:a2:4b:d8:0f:8b:
        6f:15:5a:d2:10:34:c8:1d:18:f8:ba:d9:ea:b9:ce:8d:d4:a9:
        e4:52:b5:cf:8a:3d:5a:eb:68:f3:db:c2:83:c2:98:d9:bc:d0:
        80:cf:1e:b8
-----BEGIN CERTIFICATE-----
MIIETTCCAzWgAwIBAgIUP9rkCLdsfMdxYcHWD8CVvGn7uxIwDQYJKoZIhvcNAQEL
BQAwYDELMAkGA1UEBhMCVVMxEzARBgNVBAgMCkNhbGlmb3JuaWExFjAUBgNVBAcM
DU1vdW50YWluIFZpZXcxEDAOBgNVBAoMB1Rlc3QgQ0ExEjAQBgNVBAMMCTEyNy4w
LjAuMTAeFw0yMjEwMDMxNzIwMDlaFw0zMjA5MzAxNzIwMDlaMGAxCzAJBgNVBAYT
AlVTMRMwEQYDVQQIDApDYWxpZm9ybmlhMRYwFAYDVQQHDA1Nb3VudGFpbiBWaWV3
MRAwDgYDVQQKDAdUZXN0IENBMRIwEAYDVQQDDAkxMjcuMC4wLjEwggEiMA0GCSqG
SIb3DQEBAQUAA4IBDwAwggEKAoIBAQCkzSzh9vAmeeEnp6ZFIeGPKkCCGM/gK2P6
etnrNHoaDOtjuXNdZOA+lcdqCO7FhdEH8p82DnkTu/0mgLce/GMr2KAEvjis6XR2
MhNNDVuxukpG8T6uHUI2k38bctq+O8jG2axXKrtpYNdFPU1b7u/OyEocISRpFcUo
AuxIHTklOwnXy59MwnrA2wvIo4auVIwdi6M0+E1Ji5wrmACaCHu4TGpgdc04rPDS
uGcbiM9ML74c5zBVLtur7AH4Eq+H7hb5RwJoxirLo4kdOb/cm5JfYG9bimD3L0wM
I5v1PPkPPDxGiDUSXR80UuaL8fxtV6yGH/TSIetoww+0Yp4PS633AgMBAAGjgf4w
gfswgdkGA1UdIASB0TCBzjAGBgQqAwQFMIHDBgQrBQgMMIG6MCYGCCsGAQUFBwIB
FhpodHRwOi8vY3BzLmV4YW1wbGUuY29tL2ZvbzBDBggrBgEFBQcCAjA3MCEaEU9y
Z2FuaXphdGlvbiBOYW1lMAwCAQECAQICAQMCAQQaEkV4cGxpY2l0IFRleHQgSGVy
ZTAfBggrBgEFBQcCAjATGhFFeHBsaWNpdCBUZXh0IFR3bzAqBggrBgEFBQcCAjAe
MBwaFU9yZ2FuaXphdGlvbiBOYW1lIFR3bzADAgEqMB0GA1UdDgQWBBSEp6riY/Df
mMaQ82cnSQ2o9eLu3zANBgkqhkiG9w0BAQsFAAOCAQEAkbq4yeGlRb/cPjA54mgl
NIvYkFowEX1ozoyXI/v8kaU3qcEk8n2S2ml79jwvYO24m8+TZlRiA+49jGq0SnCa
77Gcoqm7eZqEctqzRGSOl3bGHoX6ED92/RQXEXuDz4JoW4aB2KZdJrLiy2j+lie8
pplxMDXf3mfqFIFEQt7YVReuLsUapUQ8+c0CVZPItIiABfkVk47zKg09MvChYNbz
At/N/MvXKTQWzMisSCukA8C736jfuFQPjul/+pH7MxQP1giusoH+82MfiwuBuURw
wM00WKJL2A+LbxVa0hA0yB0Y+LrZ6rnOjdSp5FK1z4o9Wuto89vCg8KY2bzQgM8e
uA==
-----END CERTIFICATE-----
