Certificate:
    Data:
        Version: 3 (0x2)
        Serial Number:
            18:f0:cb:01:e5:80:f1:6b:d2:db:56:15:6f:f7:2d:26:f2:c9:11:60
        Signature Algorithm: sha256WithRSAEncryption
        Issuer: C = US, ST = California, L = Mountain View, O = Test CA, CN = 127.0.0.1
        Validity
            Not Before: Oct 30 18:43:15 2023 GMT
            Not After : Oct 27 18:43:15 2033 GMT
        Subject: C = US, ST = California, L = Mountain View, O = Test CA, CN = 127.0.0.1
        Subject Public Key Info:
            Public Key Algorithm: rsaEncryption
                Public-Key: (2048 bit)
                Modulus:
                    00:bd:28:aa:06:28:a6:e2:e6:87:bb:0e:3a:d4:75:
                    7c:00:e7:f8:ca:2c:2b:ca:5e:b2:af:2e:7d:74:21:
                    54:0a:aa:f6:77:dc:c1:64:3c:f5:37:45:5d:f8:10:
                    6a:17:57:6d:9b:e4:7c:bc:34:41:08:f6:d5:88:9d:
                    54:eb:59:05:58:04:d2:cf:13:4e:86:b7:0c:42:7b:
                    7e:00:7e:44:50:a3:16:95:0f:4d:17:3b:e6:2e:36:
                    18:b9:21:70:e0:06:d5:68:82:97:6e:dd:dc:a6:43:
                    9f:8f:29:80:41:ee:35:12:3c:29:40:88:3c:50:4a:
                    9f:f5:cc:fc:aa:49:97:00:37:6b:a7:42:4f:d5:b8:
                    e0:43:d7:76:46:c3:79:a4:d8:66:66:d2:6a:ad:ce:
                    ec:fc:2e:fb:eb:53:02:05:ab:bc:15:77:1a:e9:d9:
                    f1:a7:85:bd:08:f9:b5:7f:4a:93:55:fb:30:f3:85:
                    76:6a:a9:a1:e5:75:60:ad:38:26:08:eb:c8:1c:da:
                    61:86:6f:17:23:2f:46:6b:65:81:61:91:87:ca:18:
                    6d:62:42:37:4e:78:a9:f5:6e:65:fd:82:b6:7f:1d:
                    4d:dd:e0:19:72:ea:26:83:1c:97:d1:57:41:1f:23:
                    0d:91:c6:2b:45:41:aa:9f:ab:0d:e1:d4:94:1d:c7:
                    d3:4b
                Exponent: 65537 (0x10001)
        X509v3 extensions:
            X509v3 Certificate Policies: 
                Policy: 1.2.3.4.5
                Policy: 1.3.5.8.12
                  CPS: http://cps.example.com/foo
                  User Notice:
                    Organization: Organization Name
                    Numbers: 1, 2, 3, 4
                    Explicit Text: Explicit Text Here
                  User Notice:
                    Explicit Text: Explicit Text Two
                  User Notice:
                    Organization: Organization Name Two
                    Number: 42
            X509v3 Subject Key Identifier: 
                03:9F:A3:8D:32:0A:72:3E:CF:A7:BD:0B:5C:58:69:9C:E8:96:07:09
    Signature Algorithm: sha256WithRSAEncryption
    Signature Value:
        1d:91:c4:3c:16:3c:af:69:50:d6:2d:7f:57:73:45:b8:4a:50:
        67:9d:84:9f:a9:71:4d:54:8f:9a:15:59:b7:fd:d4:37:ea:1a:
        70:12:29:6d:cb:2d:ef:3a:22:81:14:2d:7f:65:23:e2:40:1d:
        4a:9e:93:33:f2:e8:d4:17:54:25:2c:bf:ff:50:25:2c:68:2c:
        a1:53:c6:8f:c8:12:2a:b2:85:1c:bc:e3:4d:14:88:a9:42:ac:
        1b:f9:cf:13:c4:14:51:14:ba:ec:47:71:14:18:c0:7c:ee:09:
        21:ac:f6:58:cd:a0:9c:58:b2:95:72:5c:6e:06:29:3e:ec:f2:
        49:d9:75:45:26:16:0a:32:a9:11:d0:12:2c:94:e4:bd:b3:d5:
        cb:5e:b5:1d:18:01:91:11:a1:a3:1e:34:5f:ee:ae:18:d5:5b:
        31:ea:d5:6d:fe:c9:04:4c:d6:bd:22:3a:ca:92:d4:13:37:7b:
        a4:4f:17:44:4d:fe:bc:a4:5b:fd:fb:32:96:46:da:f4:41:0a:
        ad:1f:73:30:2f:e1:60:f7:f1:b1:c1:5e:cc:6a:d1:ad:ce:f5:
        e4:ed:8e:ec:9d:54:95:5d:06:87:8d:df:ce:79:5a:92:48:8a:
        1d:64:f4:87:29:f0:3c:0a:67:34:a0:e8:3c:8c:3a:66:48:f8:
        af:f3:45:e2
-----BEGIN CERTIFICATE-----
MIIETTCCAzWgAwIBAgIUGPDLAeWA8WvS21YVb/ctJvLJEWAwDQYJKoZIhvcNAQEL
BQAwYDELMAkGA1UEBhMCVVMxEzARBgNVBAgMCkNhbGlmb3JuaWExFjAUBgNVBAcM
DU1vdW50YWluIFZpZXcxEDAOBgNVBAoMB1Rlc3QgQ0ExEjAQBgNVBAMMCTEyNy4w
LjAuMTAeFw0yMzEwMzAxODQzMTVaFw0zMzEwMjcxODQzMTVaMGAxCzAJBgNVBAYT
AlVTMRMwEQYDVQQIDApDYWxpZm9ybmlhMRYwFAYDVQQHDA1Nb3VudGFpbiBWaWV3
MRAwDgYDVQQKDAdUZXN0IENBMRIwEAYDVQQDDAkxMjcuMC4wLjEwggEiMA0GCSqG
SIb3DQEBAQUAA4IBDwAwggEKAoIBAQC9KKoGKKbi5oe7DjrUdXwA5/jKLCvKXrKv
Ln10IVQKqvZ33MFkPPU3RV34EGoXV22b5Hy8NEEI9tWInVTrWQVYBNLPE06GtwxC
e34AfkRQoxaVD00XO+YuNhi5IXDgBtVogpdu3dymQ5+PKYBB7jUSPClAiDxQSp/1
zPyqSZcAN2unQk/VuOBD13ZGw3mk2GZm0mqtzuz8LvvrUwIFq7wVdxrp2fGnhb0I
+bV/SpNV+zDzhXZqqaHldWCtOCYI68gc2mGGbxcjL0ZrZYFhkYfKGG1iQjdOeKn1
bmX9grZ/HU3d4Bly6iaDHJfRV0EfIw2RxitFQaqfqw3h1JQdx9NLAgMBAAGjgf4w
gfswgdkGA1UdIASB0TCBzjAGBgQqAwQFMIHDBgQrBQgMMIG6MCYGCCsGAQUFBwIB
FhpodHRwOi8vY3BzLmV4YW1wbGUuY29tL2ZvbzBDBggrBgEFBQcCAjA3MCEaEU9y
Z2FuaXphdGlvbiBOYW1lMAwCAQECAQICAQMCAQQaEkV4cGxpY2l0IFRleHQgSGVy
ZTAfBggrBgEFBQcCAjATGhFFeHBsaWNpdCBUZXh0IFR3bzAqBggrBgEFBQcCAjAe
MBwaFU9yZ2FuaXphdGlvbiBOYW1lIFR3bzADAgEqMB0GA1UdDgQWBBQDn6ONMgpy
Ps+nvQtcWGmc6JYHCTANBgkqhkiG9w0BAQsFAAOCAQEAHZHEPBY8r2lQ1i1/V3NF
uEpQZ52En6lxTVSPmhVZt/3UN+oacBIpbcst7zoigRQtf2Uj4kAdSp6TM/Lo1BdU
JSy//1AlLGgsoVPGj8gSKrKFHLzjTRSIqUKsG/nPE8QUURS67EdxFBjAfO4JIaz2
WM2gnFiylXJcbgYpPuzySdl1RSYWCjKpEdASLJTkvbPVy161HRgBkRGhox40X+6u
GNVbMerVbf7JBEzWvSI6ypLUEzd7pE8XRE3+vKRb/fsylkba9EEKrR9zMC/hYPfx
scFezGrRrc715O2O7J1UlV0Gh43fznlakkiKHWT0hynwPApnNKDoPIw6Zkj4r/NF
4g==
-----END CERTIFICATE-----
