Certificate:
    Data:
        Version: 3 (0x2)
        Serial Number:
            31:d4:c4:86:16:12:f3:2c:9b:2a:a8:f3:da:a6:58:97:2c:3e:2b:34
        Signature Algorithm: sha256WithRSAEncryption
        Issuer: C = US, ST = California, L = Mountain View, O = Test CA, CN = 127.0.0.1
        Validity
            Not Before: Apr 21 15:48:20 2022 GMT
            Not After : Apr 18 15:48:20 2032 GMT
        Subject: C = US, ST = California, L = Mountain View, O = Test CA, CN = 127.0.0.1
        Subject Public Key Info:
            Public Key Algorithm: rsaEncryption
                RSA Public-Key: (2048 bit)
                Modulus:
                    00:e1:fe:51:9c:3d:3f:9e:5b:92:0d:cd:ed:e7:16:
                    9a:f0:b5:00:4b:87:90:35:c4:db:88:ee:d2:ec:1f:
                    d4:3a:a5:a6:34:b2:7d:03:74:85:d0:d2:61:02:ce:
                    58:af:c3:10:4c:2d:8f:32:dc:e5:f2:83:80:8c:ba:
                    e2:33:70:5f:83:28:71:a4:45:38:f7:fd:e1:16:9a:
                    11:c6:4f:c1:f4:5f:dd:27:3e:8b:86:d2:d0:c1:35:
                    a8:af:ff:52:66:9f:09:ce:3b:48:d2:3a:4b:d0:67:
                    0a:49:82:0f:db:61:c3:e0:c8:9d:75:79:8b:f4:08:
                    af:8b:fb:69:61:03:f9:b1:e8:24:33:06:62:c3:7f:
                    b0:44:fe:dc:62:89:0e:ec:6b:a2:26:d7:06:68:32:
                    1b:8f:e1:09:23:80:97:37:cf:e3:cb:41:d9:fd:54:
                    49:6c:b2:8e:97:00:3f:4d:58:af:bc:65:2d:3e:de:
                    c7:49:45:e6:75:7c:1e:3d:b9:4c:ec:f3:89:7a:31:
                    5c:28:f8:4a:9b:1b:0b:52:50:c4:43:57:13:90:d2:
                    e2:c1:7e:e0:c8:81:b0:6a:5a:ea:be:d7:88:7e:7a:
                    df:eb:9b:0e:9e:cc:53:7e:4f:d9:09:70:3f:7c:fd:
                    a9:b5:7c:20:81:f5:a4:ff:c7:8b:b4:d6:bf:32:b9:
                    8d:91
                Exponent: 65537 (0x10001)
        X509v3 extensions:
            X509v3 Certificate Policies: 
                Policy: 1.2.3.4.5
                Policy: 1.3.5.8.12
                  CPS: http://cps.example.com/foo
                  User Notice:
                    Organization: Organization Name
                    Numbers: 1, 2, 3, 4
                    Explicit Text: Explicit Text Here
                  User Notice:
                    Explicit Text: Explicit Text Two
                  User Notice:
                    Organization: Organization Name Two
                    Number: 42

    Signature Algorithm: sha256WithRSAEncryption
         33:0e:69:e6:c7:23:63:e5:08:e2:27:ef:6c:28:19:64:b8:5a:
         11:16:92:95:69:ae:f6:a8:fd:7f:f1:2f:8f:c1:3e:97:31:19:
         ae:1f:52:22:02:81:4f:3b:93:26:d6:51:55:29:b7:6f:46:0e:
         db:35:31:2c:1e:b9:ea:f0:7a:b5:37:bb:06:71:b1:72:3b:8f:
         a8:03:6c:67:d0:dd:d2:df:22:b3:2c:50:98:49:41:4b:07:26:
         6f:2f:65:ef:d1:1f:20:75:48:d1:f3:d5:d5:ac:f9:4f:5d:8a:
         d6:fc:bd:c9:52:94:0f:27:93:28:15:b4:ec:b5:39:5a:46:d5:
         e9:c8:65:0c:aa:11:9a:61:32:27:da:92:18:ae:ea:fd:c5:c9:
         43:7a:88:0d:2b:79:67:30:04:0b:ba:85:99:70:5b:56:29:b8:
         24:28:85:5b:21:ae:3c:63:60:15:b1:99:b5:b3:8c:e5:aa:be:
         b8:b6:03:18:aa:52:ea:14:da:40:e2:e4:c1:f4:c0:4f:93:c4:
         e1:2e:57:c0:96:72:e5:c8:28:1d:1b:37:72:9b:f8:17:14:12:
         30:47:ef:3f:68:62:9f:25:e3:a3:67:7d:93:80:9f:ee:4f:89:
         45:1d:83:be:70:28:23:46:53:cb:70:30:06:0e:21:25:6c:48:
         bb:2b:3c:94
-----BEGIN CERTIFICATE-----
MIIELjCCAxagAwIBAgIUMdTEhhYS8yybKqjz2qZYlyw+KzQwDQYJKoZIhvcNAQEL
BQAwYDELMAkGA1UEBhMCVVMxEzARBgNVBAgMCkNhbGlmb3JuaWExFjAUBgNVBAcM
DU1vdW50YWluIFZpZXcxEDAOBgNVBAoMB1Rlc3QgQ0ExEjAQBgNVBAMMCTEyNy4w
LjAuMTAeFw0yMjA0MjExNTQ4MjBaFw0zMjA0MTgxNTQ4MjBaMGAxCzAJBgNVBAYT
AlVTMRMwEQYDVQQIDApDYWxpZm9ybmlhMRYwFAYDVQQHDA1Nb3VudGFpbiBWaWV3
MRAwDgYDVQQKDAdUZXN0IENBMRIwEAYDVQQDDAkxMjcuMC4wLjEwggEiMA0GCSqG
SIb3DQEBAQUAA4IBDwAwggEKAoIBAQDh/lGcPT+eW5INze3nFprwtQBLh5A1xNuI
7tLsH9Q6paY0sn0DdIXQ0mECzlivwxBMLY8y3OXyg4CMuuIzcF+DKHGkRTj3/eEW
mhHGT8H0X90nPouG0tDBNaiv/1JmnwnOO0jSOkvQZwpJgg/bYcPgyJ11eYv0CK+L
+2lhA/mx6CQzBmLDf7BE/txiiQ7sa6Im1wZoMhuP4QkjgJc3z+PLQdn9VElsso6X
AD9NWK+8ZS0+3sdJReZ1fB49uUzs84l6MVwo+EqbGwtSUMRDVxOQ0uLBfuDIgbBq
Wuq+14h+et/rmw6ezFN+T9kJcD98/am1fCCB9aT/x4u01r8yuY2RAgMBAAGjgd8w
gdwwgdkGA1UdIASB0TCBzjAGBgQqAwQFMIHDBgQrBQgMMIG6MCYGCCsGAQUFBwIB
FhpodHRwOi8vY3BzLmV4YW1wbGUuY29tL2ZvbzBDBggrBgEFBQcCAjA3MCEaEU9y
Z2FuaXphdGlvbiBOYW1lMAwCAQECAQICAQMCAQQaEkV4cGxpY2l0IFRleHQgSGVy
ZTAfBggrBgEFBQcCAjATGhFFeHBsaWNpdCBUZXh0IFR3bzAqBggrBgEFBQcCAjAe
MBwaFU9yZ2FuaXphdGlvbiBOYW1lIFR3bzADAgEqMA0GCSqGSIb3DQEBCwUAA4IB
AQAzDmnmxyNj5QjiJ+9sKBlkuFoRFpKVaa72qP1/8S+PwT6XMRmuH1IiAoFPO5Mm
1lFVKbdvRg7bNTEsHrnq8Hq1N7sGcbFyO4+oA2xn0N3S3yKzLFCYSUFLByZvL2Xv
0R8gdUjR89XVrPlPXYrW/L3JUpQPJ5MoFbTstTlaRtXpyGUMqhGaYTIn2pIYrur9
xclDeogNK3lnMAQLuoWZcFtWKbgkKIVbIa48Y2AVsZm1s4zlqr64tgMYqlLqFNpA
4uTB9MBPk8ThLlfAlnLlyCgdGzdym/gXFBIwR+8/aGKfJeOjZ32TgJ/uT4lFHYO+
cCgjRlPLcDAGDiElbEi7KzyU
-----END CERTIFICATE-----
