Certificate:
    Data:
        Version: 3 (0x2)
        Serial Number:
            28:75:be:16:50:f6:75:ad:00:dd:2d:71:1b:a3:c7:82:d5:f7:f1:42
        Signature Algorithm: sha256WithRSAEncryption
        Issuer: C=US, ST=California, L=Mountain View, O=Test CA, CN=127.0.0.1
        Validity
            Not Before: Oct 10 17:12:19 2025 GMT
            Not After : Oct  8 17:12:19 2035 GMT
        Subject: C=US, ST=California, L=Mountain View, O=Test CA, CN=127.0.0.1
        Subject Public Key Info:
            Public Key Algorithm: rsaEncryption
                Public-Key: (2048 bit)
                Modulus:
                    00:a1:ad:a4:38:62:1e:b4:21:84:dd:1b:83:e5:c6:
                    33:d9:39:ba:f7:eb:b6:9c:f4:ab:61:83:b9:c5:56:
                    3b:e3:69:ad:b7:b8:23:f2:f2:dd:f3:94:71:7f:6d:
                    5f:30:1e:96:b5:08:66:b3:8e:55:19:ff:27:41:9b:
                    e6:15:68:7b:37:f1:01:5d:ea:8a:23:a2:a1:ff:98:
                    23:d4:52:de:c7:b1:d7:8f:d3:57:0d:75:b0:16:33:
                    11:4a:7a:aa:d8:d4:1e:24:9b:f7:60:ac:eb:2c:9f:
                    87:96:0b:7c:6b:6b:90:33:6b:59:ee:65:00:79:1b:
                    02:f4:09:b9:e3:02:5e:72:39:77:ac:f8:e0:98:19:
                    32:09:8f:40:44:3b:78:64:a8:a6:04:6b:11:20:77:
                    c3:9d:ec:72:5b:74:1f:39:59:40:ad:1a:0a:1e:72:
                    b3:da:6c:42:0a:41:70:0a:1b:04:5d:0e:47:bc:b6:
                    64:9a:b7:2f:83:fd:3e:c3:91:45:81:e1:02:2f:22:
                    ea:64:f6:78:df:a7:84:d3:24:4b:7f:c5:fa:e9:8a:
                    88:87:a2:c7:cd:cf:cf:90:b3:73:df:5b:18:7c:86:
                    ef:21:81:88:be:b9:1c:37:7c:2b:0d:72:70:af:2c:
                    16:b4:10:fc:61:a7:07:58:22:79:96:e6:fd:61:d1:
                    53:89
                Exponent: 65537 (0x10001)
        X509v3 extensions:
            X509v3 Certificate Policies: 
                Policy: 1.2.3.4.5
                Policy: 1.3.5.8.12
                  CPS: http://cps.example.com/foo
                  User Notice:
                    Organization: Organization Name
                    Numbers: 1, 2, 3, 4
                    Explicit Text: Explicit Text Here
                  User Notice:
                    Explicit Text: Explicit Text Two
                  User Notice:
                    Organization: Organization Name Two
                    Number: 42
            X509v3 Subject Key Identifier: 
                87:81:BD:75:7D:37:77:31:99:72:83:04:56:7B:C3:FA:B7:7B:CE:DA
    Signature Algorithm: sha256WithRSAEncryption
    Signature Value:
        4f:f4:8b:86:dc:53:07:b4:3a:7e:5b:40:95:27:48:fb:07:0d:
        e9:b1:d5:fc:8c:a9:94:02:05:11:cd:71:66:a9:3b:f7:83:0e:
        05:b9:01:96:8f:3b:57:11:bf:f3:20:05:40:75:1f:80:fc:9e:
        7b:8d:1e:97:15:0b:f5:42:6f:a9:4e:f0:5b:ea:c5:b7:5f:c3:
        d3:60:0b:92:0e:c0:3a:ef:72:53:66:a6:12:96:cc:4d:a2:91:
        07:61:b5:46:a8:05:83:55:6c:9d:67:9a:35:a0:14:34:05:b7:
        e7:fb:01:f1:ab:e4:33:a0:cd:d5:ed:bf:ef:f8:de:77:7a:61:
        fb:82:4f:d4:51:d3:8a:e3:a7:e8:7d:0f:01:0a:4b:6b:0d:09:
        52:d4:61:57:22:a7:f3:17:b9:c6:53:7b:e6:17:79:4a:83:63:
        56:38:8a:0f:17:bb:32:c4:74:92:75:90:2b:49:0e:b2:9a:8d:
        c2:a6:e4:00:0e:65:8e:7d:f9:29:00:f2:d1:18:97:f3:f0:b8:
        c8:30:03:2e:72:ea:27:b2:38:b4:ec:15:6f:2a:af:84:6d:30:
        06:d6:2b:ed:5c:07:78:21:4f:a9:f8:00:67:5c:24:88:7e:76:
        ae:34:7e:c7:61:15:d3:a4:e7:b8:ec:03:73:18:9e:7a:31:a3:
        05:6e:43:97
-----BEGIN CERTIFICATE-----
MIIETTCCAzWgAwIBAgIUKHW+FlD2da0A3S1xG6PHgtX38UIwDQYJKoZIhvcNAQEL
BQAwYDELMAkGA1UEBhMCVVMxEzARBgNVBAgMCkNhbGlmb3JuaWExFjAUBgNVBAcM
DU1vdW50YWluIFZpZXcxEDAOBgNVBAoMB1Rlc3QgQ0ExEjAQBgNVBAMMCTEyNy4w
LjAuMTAeFw0yNTEwMTAxNzEyMTlaFw0zNTEwMDgxNzEyMTlaMGAxCzAJBgNVBAYT
AlVTMRMwEQYDVQQIDApDYWxpZm9ybmlhMRYwFAYDVQQHDA1Nb3VudGFpbiBWaWV3
MRAwDgYDVQQKDAdUZXN0IENBMRIwEAYDVQQDDAkxMjcuMC4wLjEwggEiMA0GCSqG
SIb3DQEBAQUAA4IBDwAwggEKAoIBAQChraQ4Yh60IYTdG4PlxjPZObr367ac9Kth
g7nFVjvjaa23uCPy8t3zlHF/bV8wHpa1CGazjlUZ/ydBm+YVaHs38QFd6oojoqH/
mCPUUt7HsdeP01cNdbAWMxFKeqrY1B4km/dgrOssn4eWC3xra5Aza1nuZQB5GwL0
CbnjAl5yOXes+OCYGTIJj0BEO3hkqKYEaxEgd8Od7HJbdB85WUCtGgoecrPabEIK
QXAKGwRdDke8tmSaty+D/T7DkUWB4QIvIupk9njfp4TTJEt/xfrpioiHosfNz8+Q
s3PfWxh8hu8hgYi+uRw3fCsNcnCvLBa0EPxhpwdYInmW5v1h0VOJAgMBAAGjgf4w
gfswgdkGA1UdIASB0TCBzjAGBgQqAwQFMIHDBgQrBQgMMIG6MCYGCCsGAQUFBwIB
FhpodHRwOi8vY3BzLmV4YW1wbGUuY29tL2ZvbzBDBggrBgEFBQcCAjA3MCEaEU9y
Z2FuaXphdGlvbiBOYW1lMAwCAQECAQICAQMCAQQaEkV4cGxpY2l0IFRleHQgSGVy
ZTAfBggrBgEFBQcCAjATGhFFeHBsaWNpdCBUZXh0IFR3bzAqBggrBgEFBQcCAjAe
MBwaFU9yZ2FuaXphdGlvbiBOYW1lIFR3bzADAgEqMB0GA1UdDgQWBBSHgb11fTd3
MZlygwRWe8P6t3vO2jANBgkqhkiG9w0BAQsFAAOCAQEAT/SLhtxTB7Q6fltAlSdI
+wcN6bHV/IyplAIFEc1xZqk794MOBbkBlo87VxG/8yAFQHUfgPyee40elxUL9UJv
qU7wW+rFt1/D02ALkg7AOu9yU2amEpbMTaKRB2G1RqgFg1VsnWeaNaAUNAW35/sB
8avkM6DN1e2/7/jed3ph+4JP1FHTiuOn6H0PAQpLaw0JUtRhVyKn8xe5xlN75hd5
SoNjVjiKDxe7MsR0knWQK0kOspqNwqbkAA5ljn35KQDy0RiX8/C4yDADLnLqJ7I4
tOwVbyqvhG0wBtYr7VwHeCFPqfgAZ1wkiH52rjR+x2EV06TnuOwDcxieejGjBW5D
lw==
-----END CERTIFICATE-----
