Certificate:
    Data:
        Version: 3 (0x2)
        Serial Number:
            12:f6:d9:f1:80:1b:50:9f:64:09:c8:ea:2f:16:33:bd
        Signature Algorithm: sha256WithRSAEncryption
        Issuer: C=US, ST=California, L=Mountain View, O=Test CA, CN=Test Root CA
        Validity
            Not Before: Jun  1 00:00:00 2016 GMT
            Not After : Jul  3 00:00:00 2017 GMT
        Subject: C=US, ST=California, L=Mountain View, O=Test CA, CN=127.0.0.1
        Subject Public Key Info:
            Public Key Algorithm: rsaEncryption
                RSA Public-Key: (2048 bit)
                Modulus:
                    00:c8:cc:66:10:46:e3:c1:e2:8d:ed:98:4f:b3:c5:
                    61:50:97:e8:ab:53:35:25:8e:11:d9:83:a0:3a:ef:
                    25:83:15:61:bb:04:6a:2f:b6:7c:15:55:d1:a9:f3:
                    22:d6:b5:6e:05:6e:54:bd:e1:f3:3d:9b:be:7e:15:
                    0a:e5:97:ce:45:63:74:68:49:c5:76:25:b4:35:0f:
                    b0:78:1e:22:0a:69:82:02:ad:5d:3d:47:38:03:31:
                    9a:f5:98:bf:fd:a6:63:e0:38:34:3c:5a:b7:c2:66:
                    cf:3e:9d:79:be:59:c1:e9:1c:c9:f5:7b:2d:72:d8:
                    78:54:25:22:e1:ca:dc:25:39:41:b4:2d:ea:ad:91:
                    d8:8f:68:bd:ea:3e:05:34:4e:e8:ee:a1:c4:71:45:
                    8c:7e:2f:09:f3:5c:dc:a5:d5:53:36:a0:03:83:f4:
                    b0:e2:6f:f1:e8:97:60:ad:c3:fa:a2:ee:b8:85:c3:
                    50:8b:6e:6c:e8:dc:77:27:31:4b:f2:7a:cd:cf:90:
                    e0:23:37:33:84:28:f1:26:46:c3:d4:27:99:ad:9c:
                    ec:de:c0:3b:7e:51:65:80:93:8a:b5:e7:18:b1:5e:
                    2f:9a:73:45:8f:b9:71:02:15:dd:b5:6e:8b:fc:89:
                    92:57:f6:a7:c9:1b:ec:f4:1d:d2:fc:59:b9:62:e6:
                    06:23
                Exponent: 65537 (0x10001)
        X509v3 extensions:
            X509v3 Basic Constraints: critical
                CA:FALSE
            X509v3 Subject Key Identifier: 
                74:52:E6:00:CB:F6:2B:D2:6C:7D:64:D8:13:74:26:1C:93:EA:50:92
            X509v3 Authority Key Identifier: 
                keyid:9B:26:0B:8A:98:A9:BB:1D:B9:1F:1C:E3:1A:40:33:ED:8E:17:88:AB

            X509v3 Extended Key Usage: 
                TLS Web Server Authentication, TLS Web Client Authentication
            X509v3 Subject Alternative Name: 
                IP Address:127.0.0.1
    Signature Algorithm: sha256WithRSAEncryption
         74:a8:c0:69:fb:be:a6:26:9b:fa:1a:92:e8:0c:e6:4b:cc:5a:
         1c:78:92:e2:ee:43:a2:0d:9c:de:eb:08:33:84:d0:3e:5f:13:
         d5:c7:1c:0e:f6:3b:f2:b8:f8:7d:bf:7d:62:aa:3b:30:cf:b9:
         62:fb:e2:b6:60:72:80:d8:85:81:25:4b:b5:e5:1d:3e:cf:47:
         8c:2d:43:74:15:4d:60:b4:c6:77:c3:f0:01:78:89:2f:93:38:
         22:f8:c0:46:56:8b:d0:80:6a:cd:4f:91:bd:fe:85:5e:0e:a5:
         8c:65:56:c9:83:52:b4:f2:45:e3:f1:5c:ec:e2:6f:82:39:92:
         73:66:70:3b:d9:0b:96:79:2c:70:f9:56:33:0a:55:17:e8:c5:
         ff:38:4f:0c:0d:42:78:fe:74:df:d6:7f:0c:41:92:36:44:33:
         c4:ef:4b:d4:bd:e2:4f:12:25:57:e4:21:b9:f3:39:bd:8d:2c:
         d6:00:3f:ff:45:d2:ea:8f:3c:fb:e2:e2:7d:50:ec:86:b9:f4:
         8b:18:f3:36:b8:96:06:b9:95:43:a9:f1:cd:ca:a7:f0:4d:ad:
         ff:7c:77:11:c6:38:1a:5f:cf:9b:aa:16:cc:d9:36:38:80:59:
         2e:bb:86:a9:cf:ac:39:7a:fc:04:bc:16:ed:c7:e7:ac:6e:58:
         68:24:42:d0
-----BEGIN CERTIFICATE-----
MIIDzjCCAragAwIBAgIQEvbZ8YAbUJ9kCcjqLxYzvTANBgkqhkiG9w0BAQsFADBj
MQswCQYDVQQGEwJVUzETMBEGA1UECAwKQ2FsaWZvcm5pYTEWMBQGA1UEBwwNTW91
bnRhaW4gVmlldzEQMA4GA1UECgwHVGVzdCBDQTEVMBMGA1UEAwwMVGVzdCBSb290
IENBMB4XDTE2MDYwMTAwMDAwMFoXDTE3MDcwMzAwMDAwMFowYDELMAkGA1UEBhMC
VVMxEzARBgNVBAgMCkNhbGlmb3JuaWExFjAUBgNVBAcMDU1vdW50YWluIFZpZXcx
EDAOBgNVBAoMB1Rlc3QgQ0ExEjAQBgNVBAMMCTEyNy4wLjAuMTCCASIwDQYJKoZI
hvcNAQEBBQADggEPADCCAQoCggEBAMjMZhBG48Hije2YT7PFYVCX6KtTNSWOEdmD
oDrvJYMVYbsEai+2fBVV0anzIta1bgVuVL3h8z2bvn4VCuWXzkVjdGhJxXYltDUP
sHgeIgppggKtXT1HOAMxmvWYv/2mY+A4NDxat8Jmzz6deb5ZwekcyfV7LXLYeFQl
IuHK3CU5QbQt6q2R2I9oveo+BTRO6O6hxHFFjH4vCfNc3KXVUzagA4P0sOJv8eiX
YK3D+qLuuIXDUItubOjcdycxS/J6zc+Q4CM3M4Qo8SZGw9Qnma2c7N7AO35RZYCT
irXnGLFeL5pzRY+5cQIV3bVui/yJklf2p8kb7PQd0vxZuWLmBiMCAwEAAaOBgDB+
MAwGA1UdEwEB/wQCMAAwHQYDVR0OBBYEFHRS5gDL9ivSbH1k2BN0JhyT6lCSMB8G
A1UdIwQYMBaAFJsmC4qYqbsduR8c4xpAM+2OF4irMB0GA1UdJQQWMBQGCCsGAQUF
BwMBBggrBgEFBQcDAjAPBgNVHREECDAGhwR/AAABMA0GCSqGSIb3DQEBCwUAA4IB
AQB0qMBp+76mJpv6GpLoDOZLzFoceJLi7kOiDZze6wgzhNA+XxPVxxwO9jvyuPh9
v31iqjswz7li++K2YHKA2IWBJUu15R0+z0eMLUN0FU1gtMZ3w/ABeIkvkzgi+MBG
VovQgGrNT5G9/oVeDqWMZVbJg1K08kXj8Vzs4m+COZJzZnA72QuWeSxw+VYzClUX
6MX/OE8MDUJ4/nTf1n8MQZI2RDPE70vUveJPEiVX5CG58zm9jSzWAD//RdLqjzz7
4uJ9UOyGufSLGPM2uJYGuZVDqfHNyqfwTa3/fHcRxjgaX8+bqhbM2TY4gFkuu4ap
z6w5evwEvBbtx+esblhoJELQ
-----END CERTIFICATE-----
