Certificate:
    Data:
        Version: 3 (0x2)
        Serial Number:
            b0:6b:93:92:e3:5c:8d:7e:ed:9d:c8:96:59:c5:c2:81
        Signature Algorithm: sha256WithRSAEncryption
        Issuer: C=US, ST=California, L=Mountain View, O=Test CA, CN=Test Root CA
        Validity
            Not Before: Jun  1 00:00:00 2016 GMT
            Not After : Jul  3 00:00:00 2017 GMT
        Subject: C=US, ST=California, L=Mountain View, O=Test CA, CN=127.0.0.1
        Subject Public Key Info:
            Public Key Algorithm: rsaEncryption
                Public-Key: (2048 bit)
                Modulus:
                    00:ac:bd:50:56:9a:11:59:5d:a3:61:c3:5b:0f:7b:
                    b7:73:68:87:c8:7a:2a:f6:97:e1:09:1f:35:bb:b4:
                    30:ad:75:ab:6d:ae:ad:5e:81:b8:36:19:68:3b:63:
                    1e:b8:08:67:b8:bf:fe:49:8c:5e:a6:20:f7:86:d1:
                    d4:42:db:4a:93:61:28:76:ed:86:2b:51:79:a8:bc:
                    0e:68:8c:d2:2b:9b:5b:ef:a0:20:85:4c:94:36:6f:
                    58:41:a5:5c:f3:2e:8d:8f:72:0b:f9:73:14:26:bf:
                    b7:cd:62:fd:3b:7d:cf:2a:7a:64:47:69:85:c1:97:
                    08:b6:84:47:92:fc:32:8f:2c:c6:ad:5b:66:d5:d9:
                    1d:a2:5b:46:08:15:4d:fb:22:e4:97:a2:f9:1a:f1:
                    98:c2:56:05:f3:90:22:9d:3a:9e:bd:b0:62:b0:92:
                    48:a5:fe:51:50:00:d2:c0:79:c9:b0:d7:8a:99:16:
                    7c:e1:cb:03:75:7f:6f:ff:33:1d:55:37:fb:0b:13:
                    0f:f1:9e:0b:42:06:9d:4e:45:49:5a:17:98:3b:e1:
                    a0:46:5a:55:8c:d6:f3:fa:4f:f0:e3:d1:52:2f:46:
                    e2:5e:b1:cc:c7:0e:05:dc:7d:73:66:f7:92:9c:62:
                    02:87:fe:ca:bf:43:4a:be:a0:0f:41:4d:2d:47:ea:
                    9a:09
                Exponent: 65537 (0x10001)
        X509v3 extensions:
            X509v3 Basic Constraints: critical
                CA:FALSE
            X509v3 Subject Key Identifier: 
                77:54:D3:17:CC:0A:33:63:BC:8C:17:18:29:3D:27:8F:27:44:AC:23
            X509v3 Authority Key Identifier: 
                9B:26:0B:8A:98:A9:BB:1D:B9:1F:1C:E3:1A:40:33:ED:8E:17:88:AB
            X509v3 Extended Key Usage: 
                TLS Web Server Authentication, TLS Web Client Authentication
            X509v3 Subject Alternative Name: 
                IP Address:127.0.0.1
    Signature Algorithm: sha256WithRSAEncryption
    Signature Value:
        51:f6:3a:89:7e:50:32:e0:d6:d3:9a:0a:6a:5d:65:22:97:e6:
        fd:c6:cd:39:08:e8:ea:6d:68:f5:04:31:ba:70:26:15:9b:25:
        4c:24:55:33:6e:69:95:2a:22:07:2c:8a:b7:b5:43:f9:73:c5:
        8f:70:79:de:a9:f6:36:bb:f8:ba:c3:7c:d1:bf:d9:29:da:be:
        16:46:d6:5d:45:f1:b1:54:db:58:08:72:25:3e:be:15:1f:8b:
        c7:91:a4:f2:9b:49:11:8b:1f:d0:99:fd:47:60:1b:ec:0e:2a:
        6b:e0:2b:2f:8d:a8:cd:2e:b1:af:72:fa:7d:15:8c:95:79:be:
        c2:3e:83:60:84:f2:0e:3f:41:b5:3f:81:a5:04:ec:93:36:40:
        48:54:fd:8e:d8:ba:7d:6c:bc:e0:25:25:b8:74:d6:3f:e6:03:
        70:17:dc:ba:b6:48:fb:f0:e3:25:91:94:66:99:d9:4d:ad:c4:
        0e:bc:0b:03:63:f5:44:0b:cb:47:a4:ad:c3:c7:5e:30:d5:f4:
        fc:f8:32:39:88:d5:79:65:49:3f:45:2f:1c:9c:b7:4d:08:12:
        f3:c8:d8:87:fa:44:78:a1:41:ab:54:98:ad:43:48:8e:b3:0a:
        01:23:21:e3:84:0a:f8:5a:a8:ab:13:fb:f0:c9:54:74:ad:72:
        61:52:e9:d9
-----BEGIN CERTIFICATE-----
MIIDzzCCAregAwIBAgIRALBrk5LjXI1+7Z3IllnFwoEwDQYJKoZIhvcNAQELBQAw
YzELMAkGA1UEBhMCVVMxEzARBgNVBAgMCkNhbGlmb3JuaWExFjAUBgNVBAcMDU1v
dW50YWluIFZpZXcxEDAOBgNVBAoMB1Rlc3QgQ0ExFTATBgNVBAMMDFRlc3QgUm9v
dCBDQTAeFw0xNjA2MDEwMDAwMDBaFw0xNzA3MDMwMDAwMDBaMGAxCzAJBgNVBAYT
AlVTMRMwEQYDVQQIDApDYWxpZm9ybmlhMRYwFAYDVQQHDA1Nb3VudGFpbiBWaWV3
MRAwDgYDVQQKDAdUZXN0IENBMRIwEAYDVQQDDAkxMjcuMC4wLjEwggEiMA0GCSqG
SIb3DQEBAQUAA4IBDwAwggEKAoIBAQCsvVBWmhFZXaNhw1sPe7dzaIfIeir2l+EJ
HzW7tDCtdattrq1egbg2GWg7Yx64CGe4v/5JjF6mIPeG0dRC20qTYSh27YYrUXmo
vA5ojNIrm1vvoCCFTJQ2b1hBpVzzLo2Pcgv5cxQmv7fNYv07fc8qemRHaYXBlwi2
hEeS/DKPLMatW2bV2R2iW0YIFU37IuSXovka8ZjCVgXzkCKdOp69sGKwkkil/lFQ
ANLAecmw14qZFnzhywN1f2//Mx1VN/sLEw/xngtCBp1ORUlaF5g74aBGWlWM1vP6
T/Dj0VIvRuJesczHDgXcfXNm95KcYgKH/sq/Q0q+oA9BTS1H6poJAgMBAAGjgYAw
fjAMBgNVHRMBAf8EAjAAMB0GA1UdDgQWBBR3VNMXzAozY7yMFxgpPSePJ0SsIzAf
BgNVHSMEGDAWgBSbJguKmKm7HbkfHOMaQDPtjheIqzAdBgNVHSUEFjAUBggrBgEF
BQcDAQYIKwYBBQUHAwIwDwYDVR0RBAgwBocEfwAAATANBgkqhkiG9w0BAQsFAAOC
AQEAUfY6iX5QMuDW05oKal1lIpfm/cbNOQjo6m1o9QQxunAmFZslTCRVM25plSoi
ByyKt7VD+XPFj3B53qn2Nrv4usN80b/ZKdq+FkbWXUXxsVTbWAhyJT6+FR+Lx5Gk
8ptJEYsf0Jn9R2Ab7A4qa+ArL42ozS6xr3L6fRWMlXm+wj6DYITyDj9BtT+BpQTs
kzZASFT9jti6fWy84CUluHTWP+YDcBfcurZI+/DjJZGUZpnZTa3EDrwLA2P1RAvL
R6Stw8deMNX0/PgyOYjVeWVJP0UvHJy3TQgS88jYh/pEeKFBq1SYrUNIjrMKASMh
44QK+FqoqxP78MlUdK1yYVLp2Q==
-----END CERTIFICATE-----
