Certificate:
    Data:
        Version: 3 (0x2)
        Serial Number:
            3e:2c:9d:be:b0:42:c8:cf:fc:99:42:d5:4d:41:6a:bb
        Signature Algorithm: sha256WithRSAEncryption
        Issuer: C=US, ST=California, L=Mountain View, O=Test CA, CN=Test Root CA
        Validity
            Not Before: Jun  1 00:00:00 2016 GMT
            Not After : Jul  3 00:00:00 2017 GMT
        Subject: C=US, ST=California, L=Mountain View, O=Test CA, CN=127.0.0.1
        Subject Public Key Info:
            Public Key Algorithm: rsaEncryption
                RSA Public-Key: (2048 bit)
                Modulus:
                    00:ea:28:87:52:f7:ef:f0:75:d4:d1:50:fb:fa:d4:
                    c4:c1:92:75:50:b9:c2:95:8c:14:07:10:aa:a0:d8:
                    fa:f7:7a:b3:f2:b3:5f:c8:f6:8e:db:73:1a:dc:3f:
                    b9:4e:99:fe:ac:48:6e:45:72:0b:ad:11:f6:56:62:
                    6a:a4:2b:87:b2:57:bf:62:ec:5e:94:cd:d1:18:b3:
                    88:62:ec:95:b5:b9:34:af:c8:d6:82:bb:f2:aa:e8:
                    ad:da:dd:9c:f0:5a:23:9c:1a:0b:80:c1:3e:43:78:
                    00:f4:a1:c2:7c:0d:8f:d8:47:a7:db:02:69:b3:99:
                    29:ad:f1:75:72:9d:27:7a:c6:24:ff:4a:f5:07:0f:
                    64:21:1c:45:7f:7c:53:4f:76:52:79:b1:7b:96:14:
                    0e:24:00:92:5c:17:89:d4:f3:bc:ad:1b:c2:0f:5a:
                    48:b9:a1:fc:f9:98:c1:8b:86:c4:4d:cc:7c:c4:ca:
                    de:c9:cf:0d:48:f1:3b:a0:d2:27:3a:87:2e:d2:e0:
                    3b:d1:a3:4d:a3:65:fd:90:d1:69:41:e1:bd:73:2b:
                    09:e1:6c:c3:e0:66:ae:fb:87:c0:37:ef:6a:5f:2b:
                    8b:6e:9a:39:12:78:63:1a:bc:68:08:b4:9a:b9:06:
                    a0:3c:0f:0f:94:15:84:7a:56:d2:fb:3e:5d:32:33:
                    f4:cb
                Exponent: 65537 (0x10001)
        X509v3 extensions:
            X509v3 Basic Constraints: critical
                CA:FALSE
            X509v3 Subject Key Identifier: 
                5D:9D:AA:CB:E9:50:66:BA:68:B5:C4:63:09:40:F7:2A:EB:EF:A0:88
            X509v3 Authority Key Identifier: 
                keyid:9B:26:0B:8A:98:A9:BB:1D:B9:1F:1C:E3:1A:40:33:ED:8E:17:88:AB

            X509v3 Extended Key Usage: 
                TLS Web Server Authentication, TLS Web Client Authentication
            X509v3 Subject Alternative Name: 
                IP Address:127.0.0.1
    Signature Algorithm: sha256WithRSAEncryption
         b0:38:e3:e3:17:c8:0d:35:cc:a7:fa:1a:ce:2f:08:70:b7:ff:
         b4:e1:69:1e:76:67:56:24:93:dc:86:bb:32:a7:67:4b:65:67:
         e4:0d:6e:32:16:1b:c9:73:53:39:9b:3e:1d:89:16:c5:f8:f0:
         1a:7c:9f:d3:6c:1a:2b:50:6f:4a:00:3e:69:74:72:94:47:8f:
         86:2d:85:ae:55:ae:f9:bd:97:d0:d9:08:95:67:e9:31:0e:0e:
         2f:ea:38:1a:1b:d1:c2:b1:e8:3d:ee:6b:9f:8f:40:a4:02:4b:
         9d:56:20:c3:7f:bd:00:da:61:98:68:33:75:65:a8:9d:21:bf:
         20:be:7d:f3:7e:82:51:88:a2:2d:4e:10:e9:59:44:63:88:0a:
         34:f3:4c:0d:d1:cb:79:0a:0b:52:4d:d2:b3:86:4c:99:e8:93:
         e4:49:8b:92:a4:11:b0:f9:4a:1f:dd:2d:cf:e7:65:c3:84:9f:
         8a:9a:8d:bc:ec:37:d5:b2:5c:28:50:6b:67:38:8d:e5:21:78:
         75:18:5c:0d:5d:1a:87:1e:47:5b:74:0d:96:72:fa:85:9e:6c:
         8e:e9:a5:11:cc:6f:e0:52:b6:36:b2:8e:47:1d:4b:f8:55:88:
         ab:9a:b9:47:40:ab:d1:19:78:d2:81:b5:57:25:a3:4e:6f:9f:
         41:f4:a3:56
-----BEGIN CERTIFICATE-----
MIIDzjCCAragAwIBAgIQPiydvrBCyM/8mULVTUFquzANBgkqhkiG9w0BAQsFADBj
MQswCQYDVQQGEwJVUzETMBEGA1UECAwKQ2FsaWZvcm5pYTEWMBQGA1UEBwwNTW91
bnRhaW4gVmlldzEQMA4GA1UECgwHVGVzdCBDQTEVMBMGA1UEAwwMVGVzdCBSb290
IENBMB4XDTE2MDYwMTAwMDAwMFoXDTE3MDcwMzAwMDAwMFowYDELMAkGA1UEBhMC
VVMxEzARBgNVBAgMCkNhbGlmb3JuaWExFjAUBgNVBAcMDU1vdW50YWluIFZpZXcx
EDAOBgNVBAoMB1Rlc3QgQ0ExEjAQBgNVBAMMCTEyNy4wLjAuMTCCASIwDQYJKoZI
hvcNAQEBBQADggEPADCCAQoCggEBAOooh1L37/B11NFQ+/rUxMGSdVC5wpWMFAcQ
qqDY+vd6s/KzX8j2jttzGtw/uU6Z/qxIbkVyC60R9lZiaqQrh7JXv2LsXpTN0Riz
iGLslbW5NK/I1oK78qrordrdnPBaI5waC4DBPkN4APShwnwNj9hHp9sCabOZKa3x
dXKdJ3rGJP9K9QcPZCEcRX98U092Unmxe5YUDiQAklwXidTzvK0bwg9aSLmh/PmY
wYuGxE3MfMTK3snPDUjxO6DSJzqHLtLgO9GjTaNl/ZDRaUHhvXMrCeFsw+BmrvuH
wDfval8ri26aORJ4Yxq8aAi0mrkGoDwPD5QVhHpW0vs+XTIz9MsCAwEAAaOBgDB+
MAwGA1UdEwEB/wQCMAAwHQYDVR0OBBYEFF2dqsvpUGa6aLXEYwlA9yrr76CIMB8G
A1UdIwQYMBaAFJsmC4qYqbsduR8c4xpAM+2OF4irMB0GA1UdJQQWMBQGCCsGAQUF
BwMBBggrBgEFBQcDAjAPBgNVHREECDAGhwR/AAABMA0GCSqGSIb3DQEBCwUAA4IB
AQCwOOPjF8gNNcyn+hrOLwhwt/+04WkedmdWJJPchrsyp2dLZWfkDW4yFhvJc1M5
mz4diRbF+PAafJ/TbBorUG9KAD5pdHKUR4+GLYWuVa75vZfQ2QiVZ+kxDg4v6jga
G9HCseg97mufj0CkAkudViDDf70A2mGYaDN1ZaidIb8gvn3zfoJRiKItThDpWURj
iAo080wN0ct5CgtSTdKzhkyZ6JPkSYuSpBGw+Uof3S3P52XDhJ+Kmo287DfVslwo
UGtnOI3lIXh1GFwNXRqHHkdbdA2WcvqFnmyO6aURzG/gUrY2so5HHUv4VYirmrlH
QKvRGXjSgbVXJaNOb59B9KNW
-----END CERTIFICATE-----
