Certificate:
    Data:
        Version: 3 (0x2)
        Serial Number:
            cf:95:70:1c:b6:6c:07:bb:a4:de:63:24:47:3b:4e:d0
        Signature Algorithm: sha256WithRSAEncryption
        Issuer: C=US, ST=California, L=Mountain View, O=Test CA, CN=Test Root CA
        Validity
            Not Before: Jan  1 00:00:00 2008 GMT
            Not After : Jan  1 00:00:00 2015 GMT
        Subject: C=US, ST=California, L=Mountain View, O=Test CA, CN=127.0.0.1
        Subject Public Key Info:
            Public Key Algorithm: rsaEncryption
                Public-Key: (2048 bit)
                Modulus:
                    00:bc:b8:5d:8e:51:da:f6:42:20:92:92:e1:dc:0b:
                    79:24:30:01:da:94:27:e5:c1:c1:05:6d:81:c4:b7:
                    38:e4:f1:e5:ab:f1:9d:9c:2d:4d:f6:3c:14:ac:5a:
                    bf:13:02:03:31:8c:af:68:cc:69:96:a3:e0:85:f3:
                    a2:90:17:4b:16:48:02:91:9f:93:f0:95:79:eb:ec:
                    5d:75:3b:e9:45:45:68:c9:75:31:ee:8e:1e:40:c5:
                    ed:54:19:01:28:b6:27:46:68:22:4c:31:39:1b:77:
                    dc:b0:d3:d2:49:62:fa:7c:bd:11:9e:5e:4f:72:e8:
                    07:2b:f8:6a:e7:2c:64:d3:e3:42:d7:8e:dc:d0:d0:
                    35:ed:21:af:1c:ea:8b:82:9a:b3:7a:6b:8e:28:c5:
                    de:1e:db:94:c0:8d:f5:38:83:77:55:2a:df:42:aa:
                    ed:35:5b:2f:90:5a:62:c4:c8:24:35:5f:93:82:ef:
                    a1:52:34:00:af:62:01:e9:bc:9d:aa:09:98:0c:23:
                    81:99:21:98:cc:3a:48:97:9f:66:24:99:d1:98:68:
                    b9:b8:85:d7:dc:39:cf:a9:14:47:09:bb:6b:53:97:
                    c0:02:71:36:21:12:a1:92:1c:aa:d5:ea:21:08:89:
                    99:d8:ac:d4:82:cb:0e:66:97:93:d0:38:bc:4f:61:
                    a1:01
                Exponent: 65537 (0x10001)
        X509v3 extensions:
            X509v3 Basic Constraints: critical
                CA:FALSE
            X509v3 Subject Key Identifier: 
                53:83:35:95:55:E2:48:B5:44:09:01:97:3C:F0:67:5F:46:B5:BF:78
            X509v3 Authority Key Identifier: 
                9B:26:0B:8A:98:A9:BB:1D:B9:1F:1C:E3:1A:40:33:ED:8E:17:88:AB
            X509v3 Extended Key Usage: 
                TLS Web Server Authentication, TLS Web Client Authentication
            X509v3 Subject Alternative Name: 
                IP Address:127.0.0.1
    Signature Algorithm: sha256WithRSAEncryption
    Signature Value:
        2f:05:c4:59:cf:91:13:47:16:c1:a1:70:37:0d:24:15:a9:38:
        57:cb:bf:fb:a7:67:96:c6:8d:a2:2b:52:5f:32:64:96:a8:5e:
        3e:ac:95:53:73:a1:7e:21:fc:73:fe:92:da:0d:5c:26:41:21:
        25:c7:97:2f:da:f2:65:a2:a1:72:e1:da:8a:5a:8b:6e:d3:9d:
        f3:8d:5b:37:a9:c2:31:af:e6:fd:ec:a1:b7:d5:f3:63:d7:6b:
        a5:c7:1d:c1:75:c0:a5:d8:68:bd:66:e0:bb:fb:b8:d8:e4:8e:
        77:39:72:da:ee:ed:d6:30:c3:11:6c:48:f7:59:9c:44:f4:aa:
        6b:fe:06:fc:81:ef:33:c5:66:6b:29:71:a1:d3:1f:3b:0b:3b:
        47:1c:9f:6b:b5:cb:73:7b:71:86:f9:62:ac:0f:29:74:7c:fa:
        18:61:2c:b6:88:2a:b5:eb:85:1d:6d:1f:77:ce:10:78:af:d8:
        04:a8:8b:0c:3e:2b:8c:5c:99:48:23:90:65:b6:86:60:83:d4:
        e5:ae:0a:e7:e9:3d:24:14:53:10:8c:3e:76:25:27:98:4f:56:
        7c:ff:32:a3:72:a1:8b:c2:df:99:91:54:c9:a9:c3:cd:d4:2a:
        fb:33:21:68:6a:0a:a8:2a:1f:c8:44:4f:c5:60:46:dc:2a:2f:
        3c:fd:39:00
-----BEGIN CERTIFICATE-----
MIIDzzCCAregAwIBAgIRAM+VcBy2bAe7pN5jJEc7TtAwDQYJKoZIhvcNAQELBQAw
YzELMAkGA1UEBhMCVVMxEzARBgNVBAgMCkNhbGlmb3JuaWExFjAUBgNVBAcMDU1v
dW50YWluIFZpZXcxEDAOBgNVBAoMB1Rlc3QgQ0ExFTATBgNVBAMMDFRlc3QgUm9v
dCBDQTAeFw0wODAxMDEwMDAwMDBaFw0xNTAxMDEwMDAwMDBaMGAxCzAJBgNVBAYT
AlVTMRMwEQYDVQQIDApDYWxpZm9ybmlhMRYwFAYDVQQHDA1Nb3VudGFpbiBWaWV3
MRAwDgYDVQQKDAdUZXN0IENBMRIwEAYDVQQDDAkxMjcuMC4wLjEwggEiMA0GCSqG
SIb3DQEBAQUAA4IBDwAwggEKAoIBAQC8uF2OUdr2QiCSkuHcC3kkMAHalCflwcEF
bYHEtzjk8eWr8Z2cLU32PBSsWr8TAgMxjK9ozGmWo+CF86KQF0sWSAKRn5PwlXnr
7F11O+lFRWjJdTHujh5Axe1UGQEotidGaCJMMTkbd9yw09JJYvp8vRGeXk9y6Acr
+GrnLGTT40LXjtzQ0DXtIa8c6ouCmrN6a44oxd4e25TAjfU4g3dVKt9Cqu01Wy+Q
WmLEyCQ1X5OC76FSNACvYgHpvJ2qCZgMI4GZIZjMOkiXn2YkmdGYaLm4hdfcOc+p
FEcJu2tTl8ACcTYhEqGSHKrV6iEIiZnYrNSCyw5ml5PQOLxPYaEBAgMBAAGjgYAw
fjAMBgNVHRMBAf8EAjAAMB0GA1UdDgQWBBRTgzWVVeJItUQJAZc88GdfRrW/eDAf
BgNVHSMEGDAWgBSbJguKmKm7HbkfHOMaQDPtjheIqzAdBgNVHSUEFjAUBggrBgEF
BQcDAQYIKwYBBQUHAwIwDwYDVR0RBAgwBocEfwAAATANBgkqhkiG9w0BAQsFAAOC
AQEALwXEWc+RE0cWwaFwNw0kFak4V8u/+6dnlsaNoitSXzJklqhePqyVU3OhfiH8
c/6S2g1cJkEhJceXL9ryZaKhcuHailqLbtOd841bN6nCMa/m/eyht9XzY9drpccd
wXXApdhovWbgu/u42OSOdzly2u7t1jDDEWxI91mcRPSqa/4G/IHvM8VmaylxodMf
Ows7Rxyfa7XLc3txhvlirA8pdHz6GGEstogqteuFHW0fd84QeK/YBKiLDD4rjFyZ
SCOQZbaGYIPU5a4K5+k9JBRTEIw+diUnmE9WfP8yo3Khi8LfmZFUyanDzdQq+zMh
aGoKqCofyERPxWBG3CovPP05AA==
-----END CERTIFICATE-----
