Certificate:
    Data:
        Version: 3 (0x2)
        Serial Number:
            3e:2c:9d:be:b0:42:c8:cf:fc:99:42:d5:4d:41:6a:b4
        Signature Algorithm: sha256WithRSAEncryption
        Issuer: C=US, ST=California, L=Mountain View, O=Test CA, CN=Test Root CA
        Validity
            Not Before: Jan  1 00:00:00 2008 GMT
            Not After : Jan  1 00:00:00 2015 GMT
        Subject: C=US, ST=California, L=Mountain View, O=Test CA, CN=127.0.0.1
        Subject Public Key Info:
            Public Key Algorithm: rsaEncryption
                RSA Public-Key: (2048 bit)
                Modulus:
                    00:c2:f2:38:19:75:99:d8:05:a9:04:32:c1:24:b8:
                    f1:fa:83:46:aa:71:7a:70:46:51:00:3b:9d:f7:94:
                    08:81:8a:44:6b:30:b1:b8:7b:f8:43:0d:3b:b5:35:
                    5c:fa:5d:55:01:ab:af:73:60:32:02:8a:90:59:5b:
                    1c:a0:ee:c5:0f:7b:4a:67:66:a0:3a:b6:5f:53:e0:
                    14:17:45:af:2f:c8:ae:63:af:d4:64:ed:c3:f7:a0:
                    ef:df:5e:87:11:3b:1a:ee:0d:54:a9:dd:2a:35:26:
                    c0:3d:21:3d:dc:81:56:80:10:dc:11:1e:b9:3b:58:
                    f4:e9:0f:fc:d8:0a:b5:dc:20:d2:9f:c4:a6:95:b4:
                    22:02:75:7b:40:6f:ed:9d:a4:63:87:38:9c:62:b6:
                    ef:dd:af:1e:11:6a:61:18:a1:87:f5:dc:b1:02:a2:
                    9a:fb:0d:d9:5a:f9:83:d3:a1:6d:d6:17:cc:36:12:
                    74:e2:00:14:bd:3d:4e:e7:cc:b1:73:cb:92:90:5b:
                    0d:66:c9:ea:65:64:9d:68:40:1f:4d:19:8b:5e:e1:
                    d4:17:3f:27:81:55:75:b8:47:46:4b:87:6c:b4:5c:
                    0a:ea:06:ae:6c:30:e8:41:46:49:bb:fe:09:ab:a6:
                    35:e1:0a:40:e6:e5:ee:27:ee:92:4b:1f:a9:1c:4a:
                    0d:2d
                Exponent: 65537 (0x10001)
        X509v3 extensions:
            X509v3 Basic Constraints: critical
                CA:FALSE
            X509v3 Subject Key Identifier: 
                D3:E2:DE:A9:CC:A9:BA:B8:09:17:9C:CB:DF:72:6A:D6:21:E8:31:22
            X509v3 Authority Key Identifier: 
                keyid:9B:26:0B:8A:98:A9:BB:1D:B9:1F:1C:E3:1A:40:33:ED:8E:17:88:AB

            X509v3 Extended Key Usage: 
                TLS Web Server Authentication, TLS Web Client Authentication
            X509v3 Subject Alternative Name: 
                IP Address:127.0.0.1
    Signature Algorithm: sha256WithRSAEncryption
         4f:f3:66:42:14:a0:d3:74:04:f4:b2:09:ce:03:25:2d:e7:f9:
         21:40:0c:93:0c:ed:c3:f4:26:d7:0e:42:ee:d9:0e:ea:e4:fd:
         d5:d4:c0:64:e1:ae:3e:8d:0d:ae:43:5e:29:35:cf:38:66:b2:
         1f:e7:33:92:4f:60:b5:7c:b6:39:26:66:da:27:ef:02:c3:d4:
         a2:bd:75:51:c3:f3:2b:d7:5e:53:ff:71:66:31:ce:20:d5:49:
         78:fa:6d:47:75:f2:61:01:60:d7:2a:61:15:37:84:00:80:f3:
         65:ca:8b:2e:de:ad:54:04:94:8f:7d:c8:64:9f:b3:94:34:93:
         c8:8c:23:f8:a1:10:1e:ba:e0:00:f1:8a:e3:49:98:cd:f4:2f:
         5e:e0:e0:e7:31:25:ca:bf:ae:68:e9:53:91:76:97:d0:d1:de:
         53:5f:73:df:c9:d0:94:20:e9:6e:d8:ef:cb:53:85:1d:93:59:
         91:57:6e:62:c4:cc:6a:90:27:c9:59:8b:c7:b3:fa:8d:90:84:
         a0:a6:ef:e7:2e:94:95:83:3e:9d:f8:c1:a6:83:57:d1:ee:d9:
         29:aa:30:9f:f3:a2:71:82:96:1b:d7:c4:f4:e9:74:1b:27:48:
         f6:87:96:77:f5:d8:95:21:e9:17:15:23:a3:21:76:f7:d9:f6:
         28:2e:91:24
-----BEGIN CERTIFICATE-----
MIIDzjCCAragAwIBAgIQPiydvrBCyM/8mULVTUFqtDANBgkqhkiG9w0BAQsFADBj
MQswCQYDVQQGEwJVUzETMBEGA1UECAwKQ2FsaWZvcm5pYTEWMBQGA1UEBwwNTW91
bnRhaW4gVmlldzEQMA4GA1UECgwHVGVzdCBDQTEVMBMGA1UEAwwMVGVzdCBSb290
IENBMB4XDTA4MDEwMTAwMDAwMFoXDTE1MDEwMTAwMDAwMFowYDELMAkGA1UEBhMC
VVMxEzARBgNVBAgMCkNhbGlmb3JuaWExFjAUBgNVBAcMDU1vdW50YWluIFZpZXcx
EDAOBgNVBAoMB1Rlc3QgQ0ExEjAQBgNVBAMMCTEyNy4wLjAuMTCCASIwDQYJKoZI
hvcNAQEBBQADggEPADCCAQoCggEBAMLyOBl1mdgFqQQywSS48fqDRqpxenBGUQA7
nfeUCIGKRGswsbh7+EMNO7U1XPpdVQGrr3NgMgKKkFlbHKDuxQ97SmdmoDq2X1Pg
FBdFry/IrmOv1GTtw/eg799ehxE7Gu4NVKndKjUmwD0hPdyBVoAQ3BEeuTtY9OkP
/NgKtdwg0p/EppW0IgJ1e0Bv7Z2kY4c4nGK2792vHhFqYRihh/XcsQKimvsN2Vr5
g9OhbdYXzDYSdOIAFL09TufMsXPLkpBbDWbJ6mVknWhAH00Zi17h1Bc/J4FVdbhH
RkuHbLRcCuoGrmww6EFGSbv+CaumNeEKQObl7ifukksfqRxKDS0CAwEAAaOBgDB+
MAwGA1UdEwEB/wQCMAAwHQYDVR0OBBYEFNPi3qnMqbq4CRecy99yatYh6DEiMB8G
A1UdIwQYMBaAFJsmC4qYqbsduR8c4xpAM+2OF4irMB0GA1UdJQQWMBQGCCsGAQUF
BwMBBggrBgEFBQcDAjAPBgNVHREECDAGhwR/AAABMA0GCSqGSIb3DQEBCwUAA4IB
AQBP82ZCFKDTdAT0sgnOAyUt5/khQAyTDO3D9CbXDkLu2Q7q5P3V1MBk4a4+jQ2u
Q14pNc84ZrIf5zOST2C1fLY5JmbaJ+8Cw9SivXVRw/Mr115T/3FmMc4g1Ul4+m1H
dfJhAWDXKmEVN4QAgPNlyosu3q1UBJSPfchkn7OUNJPIjCP4oRAeuuAA8YrjSZjN
9C9e4ODnMSXKv65o6VORdpfQ0d5TX3PfydCUIOlu2O/LU4Udk1mRV25ixMxqkCfJ
WYvHs/qNkISgpu/nLpSVgz6d+MGmg1fR7tkpqjCf86JxgpYb18T06XQbJ0j2h5Z3
9diVIekXFSOjIXb32fYoLpEk
-----END CERTIFICATE-----
