Certificate:
    Data:
        Version: 3 (0x2)
        Serial Number:
            b0:6b:93:92:e3:5c:8d:7e:ed:9d:c8:96:59:c5:c2:7d
        Signature Algorithm: sha256WithRSAEncryption
        Issuer: C=US, ST=California, L=Mountain View, O=Test CA, CN=Test Root CA
        Validity
            Not Before: May  1 00:00:00 2016 GMT
            Not After : Jul  3 00:00:00 2017 GMT
        Subject: C=US, ST=California, L=Mountain View, O=Test CA, CN=127.0.0.1
        Subject Public Key Info:
            Public Key Algorithm: rsaEncryption
                Public-Key: (2048 bit)
                Modulus:
                    00:8d:70:9b:0b:12:3d:e5:81:70:33:5f:fd:28:2d:
                    06:31:54:c4:f3:b4:27:c0:34:e6:d1:04:c3:e3:62:
                    fc:1e:b1:54:81:07:f7:dd:a6:5d:31:74:6d:2d:a9:
                    f1:1b:e2:23:49:65:fe:1f:76:ab:5c:19:c2:ec:ae:
                    f0:98:5d:f6:38:06:79:70:e5:d2:d5:e3:b3:a4:35:
                    d5:cf:1b:fe:40:14:34:ec:4e:f3:3a:9f:95:de:d9:
                    a2:fe:b5:ae:55:66:96:6f:a2:e8:5b:8e:77:d6:e4:
                    6f:58:46:dd:f7:4e:c9:94:fc:2c:68:e9:93:b3:e3:
                    29:dc:b3:93:43:51:57:55:4d:83:97:46:76:6c:e5:
                    6c:a8:04:cf:ab:7f:a4:dc:95:6b:53:7a:c4:03:bb:
                    31:5a:1a:cc:21:94:c9:24:c4:de:7c:f5:97:9b:97:
                    37:50:33:6c:26:30:f6:90:cb:46:e4:b2:c6:9b:d2:
                    9c:19:2e:ce:25:78:df:ad:84:6c:d4:04:cf:7f:20:
                    47:ad:d8:c1:b2:2b:4a:29:71:f0:f6:fa:fb:31:ca:
                    ca:f4:4c:a8:81:dd:8c:d4:e6:a0:ac:2a:22:9a:01:
                    32:34:27:e3:8c:61:b1:1c:a9:d3:39:48:4c:13:42:
                    44:2e:63:a2:f3:cf:54:e5:6b:af:ba:6e:06:49:a1:
                    94:0f
                Exponent: 65537 (0x10001)
        X509v3 extensions:
            X509v3 Basic Constraints: critical
                CA:FALSE
            X509v3 Subject Key Identifier: 
                35:B7:03:06:47:D2:88:52:F9:CD:7F:E1:27:C4:4D:B9:22:04:19:75
            X509v3 Authority Key Identifier: 
                9B:26:0B:8A:98:A9:BB:1D:B9:1F:1C:E3:1A:40:33:ED:8E:17:88:AB
            X509v3 Extended Key Usage: 
                TLS Web Server Authentication, TLS Web Client Authentication
            X509v3 Subject Alternative Name: 
                IP Address:127.0.0.1
    Signature Algorithm: sha256WithRSAEncryption
    Signature Value:
        3e:e6:74:d5:4a:48:14:04:4e:4a:c4:a2:40:28:27:87:55:72:
        e5:e8:76:a7:2a:fa:7e:fe:e0:fc:20:60:97:7a:b5:80:4f:97:
        6e:bf:a8:21:05:61:6c:7b:ec:6c:b7:09:75:d4:45:ad:00:ae:
        c8:ab:a9:8a:cd:53:c1:af:5b:61:1f:0d:7f:98:24:1f:28:cf:
        8f:78:ad:f0:41:02:9e:05:98:d8:2d:dc:c3:43:06:98:10:45:
        69:b9:fd:7e:f4:7a:19:62:26:b6:b3:be:8f:ef:33:1e:93:cc:
        e7:3d:85:2c:05:5b:d6:69:e5:44:25:c4:cb:ed:40:14:e1:52:
        c1:c9:b5:a9:3c:50:76:76:ca:82:b3:97:53:bc:87:3b:3c:1a:
        07:78:d0:e5:1d:57:1e:4d:a5:77:a9:97:f7:9b:ce:e1:ae:b7:
        38:3e:13:4c:3b:58:34:cf:7e:86:c1:37:a8:59:4f:09:64:7f:
        d7:bc:d7:a9:a4:0f:1c:16:19:11:ec:ca:7b:f1:bc:4d:a6:aa:
        1f:f4:1b:a1:40:3d:bc:d4:35:f1:5b:ce:cd:66:aa:92:57:b4:
        b1:61:da:3c:2e:9e:5c:68:fc:47:a6:4e:39:63:85:ba:d7:8e:
        1f:89:ca:7c:6b:a2:92:36:1b:c9:0b:86:aa:2d:1f:b4:79:cf:
        af:0d:b4:48
-----BEGIN CERTIFICATE-----
MIIDzzCCAregAwIBAgIRALBrk5LjXI1+7Z3IllnFwn0wDQYJKoZIhvcNAQELBQAw
YzELMAkGA1UEBhMCVVMxEzARBgNVBAgMCkNhbGlmb3JuaWExFjAUBgNVBAcMDU1v
dW50YWluIFZpZXcxEDAOBgNVBAoMB1Rlc3QgQ0ExFTATBgNVBAMMDFRlc3QgUm9v
dCBDQTAeFw0xNjA1MDEwMDAwMDBaFw0xNzA3MDMwMDAwMDBaMGAxCzAJBgNVBAYT
AlVTMRMwEQYDVQQIDApDYWxpZm9ybmlhMRYwFAYDVQQHDA1Nb3VudGFpbiBWaWV3
MRAwDgYDVQQKDAdUZXN0IENBMRIwEAYDVQQDDAkxMjcuMC4wLjEwggEiMA0GCSqG
SIb3DQEBAQUAA4IBDwAwggEKAoIBAQCNcJsLEj3lgXAzX/0oLQYxVMTztCfANObR
BMPjYvwesVSBB/fdpl0xdG0tqfEb4iNJZf4fdqtcGcLsrvCYXfY4Bnlw5dLV47Ok
NdXPG/5AFDTsTvM6n5Xe2aL+ta5VZpZvouhbjnfW5G9YRt33TsmU/Cxo6ZOz4ync
s5NDUVdVTYOXRnZs5WyoBM+rf6TclWtTesQDuzFaGswhlMkkxN589ZeblzdQM2wm
MPaQy0bkssab0pwZLs4leN+thGzUBM9/IEet2MGyK0opcfD2+vsxysr0TKiB3YzU
5qCsKiKaATI0J+OMYbEcqdM5SEwTQkQuY6Lzz1Tla6+6bgZJoZQPAgMBAAGjgYAw
fjAMBgNVHRMBAf8EAjAAMB0GA1UdDgQWBBQ1twMGR9KIUvnNf+EnxE25IgQZdTAf
BgNVHSMEGDAWgBSbJguKmKm7HbkfHOMaQDPtjheIqzAdBgNVHSUEFjAUBggrBgEF
BQcDAQYIKwYBBQUHAwIwDwYDVR0RBAgwBocEfwAAATANBgkqhkiG9w0BAQsFAAOC
AQEAPuZ01UpIFAROSsSiQCgnh1Vy5eh2pyr6fv7g/CBgl3q1gE+Xbr+oIQVhbHvs
bLcJddRFrQCuyKupis1Twa9bYR8Nf5gkHyjPj3it8EECngWY2C3cw0MGmBBFabn9
fvR6GWImtrO+j+8zHpPM5z2FLAVb1mnlRCXEy+1AFOFSwcm1qTxQdnbKgrOXU7yH
OzwaB3jQ5R1XHk2ld6mX95vO4a63OD4TTDtYNM9+hsE3qFlPCWR/17zXqaQPHBYZ
EezKe/G8TaaqH/QboUA9vNQ18VvOzWaqkle0sWHaPC6eXGj8R6ZOOWOFuteOH4nK
fGuikjYbyQuGqi0ftHnPrw20SA==
-----END CERTIFICATE-----
