Certificate:
    Data:
        Version: 3 (0x2)
        Serial Number:
            3e:2c:9d:be:b0:42:c8:cf:fc:99:42:d5:4d:41:6a:b6
        Signature Algorithm: sha256WithRSAEncryption
        Issuer: C=US, ST=California, L=Mountain View, O=Test CA, CN=Test Root CA
        Validity
            Not Before: May  1 00:00:00 2012 GMT
            Not After : Jul  3 00:00:00 2019 GMT
        Subject: C=US, ST=California, L=Mountain View, O=Test CA, CN=127.0.0.1
        Subject Public Key Info:
            Public Key Algorithm: rsaEncryption
                RSA Public-Key: (2048 bit)
                Modulus:
                    00:ce:2b:2e:c2:3a:b0:fc:49:d7:4a:2c:e5:e1:50:
                    f1:71:bf:85:60:74:59:7d:f3:b8:3e:f1:a7:87:97:
                    73:d3:a1:5a:bc:fc:f4:6d:33:2f:97:5c:2b:e6:9a:
                    6a:5e:ff:33:c4:a7:ee:7c:74:55:05:77:63:a0:79:
                    d9:62:8c:fc:87:dc:5b:3d:44:6b:e7:42:03:4e:ca:
                    b6:0c:b6:8a:68:88:8f:57:09:17:0f:39:c1:35:5c:
                    e7:7c:db:0b:c8:c9:e4:0a:67:05:cd:99:ae:7a:ab:
                    ff:1f:55:ac:43:43:70:aa:d9:2a:6d:fe:53:03:d3:
                    c2:eb:f1:30:7a:25:d6:98:59:9c:7b:4a:a1:30:d8:
                    fe:79:42:dc:4d:c5:16:b6:3f:be:ea:5b:92:c2:f4:
                    ab:f6:d9:ee:f1:eb:19:ca:7b:01:7f:80:2f:b2:cc:
                    a4:73:9a:4a:8f:2f:35:07:3f:12:15:d3:14:77:8d:
                    0e:b7:7d:ba:9b:b5:60:df:0a:a9:75:10:bf:af:66:
                    3c:9b:4b:dc:d9:32:ac:94:2d:dc:e4:fb:cc:21:0d:
                    fb:cb:48:e7:f0:60:36:39:2d:12:cc:f4:f6:dd:28:
                    ef:36:a5:5d:8b:18:4b:d4:d2:d0:cd:95:1f:3b:b6:
                    6d:d7:a0:6a:72:75:dc:7b:21:df:e7:71:ce:df:b3:
                    d8:ad
                Exponent: 65537 (0x10001)
        X509v3 extensions:
            X509v3 Basic Constraints: critical
                CA:FALSE
            X509v3 Subject Key Identifier: 
                34:90:01:F4:6C:53:72:1C:B4:D6:9B:53:1C:55:3A:E2:9F:BC:24:1B
            X509v3 Authority Key Identifier: 
                keyid:9B:26:0B:8A:98:A9:BB:1D:B9:1F:1C:E3:1A:40:33:ED:8E:17:88:AB

            X509v3 Extended Key Usage: 
                TLS Web Server Authentication, TLS Web Client Authentication
            X509v3 Subject Alternative Name: 
                IP Address:127.0.0.1
    Signature Algorithm: sha256WithRSAEncryption
         1e:93:77:b2:0d:68:43:76:30:8f:ca:33:5e:b8:d2:9d:89:69:
         2d:4e:8b:be:a9:14:b5:96:5c:95:e9:91:43:4f:11:19:f1:f0:
         48:c3:31:e8:91:b6:11:97:87:c7:fd:b6:8b:95:77:bd:6d:ed:
         f0:03:dd:25:e8:33:27:c2:60:cd:0f:83:13:f8:58:7e:e7:d8:
         c4:b5:d7:72:e0:7d:3a:ce:66:52:eb:56:f3:3a:2e:9f:f8:8d:
         aa:b0:69:16:70:52:16:76:7c:35:ea:a6:2d:56:7e:29:39:1b:
         f7:01:f5:41:a3:81:c1:d7:ce:c8:5a:04:30:93:30:d0:c7:04:
         7b:5a:63:86:ee:64:86:eb:9e:13:3a:f7:13:ad:46:48:c1:b3:
         c5:5d:29:04:ed:cf:dd:68:fa:77:55:12:38:44:0c:55:cf:99:
         b5:c1:31:48:4f:db:e6:ce:99:fb:4b:28:a4:76:24:2b:57:4b:
         79:91:28:77:18:d6:51:05:a9:54:35:8f:c3:dd:83:e6:91:37:
         35:3a:3d:d1:af:f4:61:c7:2a:9a:27:39:c9:05:2f:dc:d9:8e:
         cf:08:9e:eb:f2:db:6d:ae:ea:4d:f0:25:5b:7e:a7:e4:13:3d:
         79:1c:b6:a3:83:24:b0:d9:e7:ff:cc:58:3c:f7:2c:00:87:0d:
         ff:a5:bd:7d
-----BEGIN CERTIFICATE-----
MIIDzjCCAragAwIBAgIQPiydvrBCyM/8mULVTUFqtjANBgkqhkiG9w0BAQsFADBj
MQswCQYDVQQGEwJVUzETMBEGA1UECAwKQ2FsaWZvcm5pYTEWMBQGA1UEBwwNTW91
bnRhaW4gVmlldzEQMA4GA1UECgwHVGVzdCBDQTEVMBMGA1UEAwwMVGVzdCBSb290
IENBMB4XDTEyMDUwMTAwMDAwMFoXDTE5MDcwMzAwMDAwMFowYDELMAkGA1UEBhMC
VVMxEzARBgNVBAgMCkNhbGlmb3JuaWExFjAUBgNVBAcMDU1vdW50YWluIFZpZXcx
EDAOBgNVBAoMB1Rlc3QgQ0ExEjAQBgNVBAMMCTEyNy4wLjAuMTCCASIwDQYJKoZI
hvcNAQEBBQADggEPADCCAQoCggEBAM4rLsI6sPxJ10os5eFQ8XG/hWB0WX3zuD7x
p4eXc9OhWrz89G0zL5dcK+aaal7/M8Sn7nx0VQV3Y6B52WKM/IfcWz1Ea+dCA07K
tgy2imiIj1cJFw85wTVc53zbC8jJ5ApnBc2Zrnqr/x9VrENDcKrZKm3+UwPTwuvx
MHol1phZnHtKoTDY/nlC3E3FFrY/vupbksL0q/bZ7vHrGcp7AX+AL7LMpHOaSo8v
NQc/EhXTFHeNDrd9upu1YN8KqXUQv69mPJtL3NkyrJQt3OT7zCEN+8tI5/BgNjkt
Esz09t0o7zalXYsYS9TS0M2VHzu2bdeganJ13Hsh3+dxzt+z2K0CAwEAAaOBgDB+
MAwGA1UdEwEB/wQCMAAwHQYDVR0OBBYEFDSQAfRsU3IctNabUxxVOuKfvCQbMB8G
A1UdIwQYMBaAFJsmC4qYqbsduR8c4xpAM+2OF4irMB0GA1UdJQQWMBQGCCsGAQUF
BwMBBggrBgEFBQcDAjAPBgNVHREECDAGhwR/AAABMA0GCSqGSIb3DQEBCwUAA4IB
AQAek3eyDWhDdjCPyjNeuNKdiWktTou+qRS1llyV6ZFDTxEZ8fBIwzHokbYRl4fH
/baLlXe9be3wA90l6DMnwmDND4MT+Fh+59jEtddy4H06zmZS61bzOi6f+I2qsGkW
cFIWdnw16qYtVn4pORv3AfVBo4HB187IWgQwkzDQxwR7WmOG7mSG654TOvcTrUZI
wbPFXSkE7c/daPp3VRI4RAxVz5m1wTFIT9vmzpn7SyikdiQrV0t5kSh3GNZRBalU
NY/D3YPmkTc1Oj3Rr/RhxyqaJznJBS/c2Y7PCJ7r8tttrupN8CVbfqfkEz15HLaj
gySw2ef/zFg89ywAhw3/pb19
-----END CERTIFICATE-----
