Certificate:
    Data:
        Version: 3 (0x2)
        Serial Number:
            12:f6:d9:f1:80:1b:50:9f:64:09:c8:ea:2f:16:33:b5
        Signature Algorithm: sha256WithRSAEncryption
        Issuer: C=US, ST=California, L=Mountain View, O=Test CA, CN=Test Root CA
        Validity
            Not Before: May  1 00:00:00 2012 GMT
            Not After : Jul  3 00:00:00 2019 GMT
        Subject: C=US, ST=California, L=Mountain View, O=Test CA, CN=127.0.0.1
        Subject Public Key Info:
            Public Key Algorithm: rsaEncryption
                RSA Public-Key: (2048 bit)
                Modulus:
                    00:f2:36:76:b7:2a:76:bb:ad:54:f5:06:a3:9c:68:
                    58:53:3b:fe:6e:87:2b:d8:49:71:ee:a9:cd:de:55:
                    d6:a9:70:79:a7:a1:12:71:1b:1f:33:4b:bc:04:c7:
                    59:41:05:ef:df:a3:41:a5:dc:d3:af:68:d9:ac:69:
                    a0:0d:1a:60:ae:59:30:95:d7:d3:f7:bc:cd:31:a8:
                    c8:4b:bc:93:18:9d:ea:b6:26:8b:c8:a6:dd:bc:a7:
                    7e:57:68:c8:b9:7d:29:53:54:0d:a9:91:eb:0d:df:
                    76:d2:eb:9b:b9:7e:b2:9c:3f:85:61:c3:ca:27:77:
                    51:9b:31:43:c0:d7:ae:4a:99:d1:59:e4:1c:05:fe:
                    6a:8d:d0:17:bd:27:7f:03:7d:5a:9b:38:e2:b2:ff:
                    d1:57:ba:89:cd:55:c9:86:5c:5e:ac:75:6b:eb:37:
                    da:08:5e:82:51:5d:8f:bb:e8:9b:6b:41:b4:3e:67:
                    c9:58:31:62:29:73:fe:df:8d:7d:38:d2:7f:43:d4:
                    5b:10:ba:bc:c5:d5:e2:0c:7c:2b:89:eb:05:40:ac:
                    7a:d7:51:e9:2d:30:d7:cc:24:50:10:cf:c6:5c:48:
                    e8:20:0e:4d:66:54:fa:a5:ad:87:c6:8a:c7:21:c7:
                    54:f7:36:90:05:eb:3e:1f:e0:1f:60:20:bb:86:da:
                    94:65
                Exponent: 65537 (0x10001)
        X509v3 extensions:
            X509v3 Basic Constraints: critical
                CA:FALSE
            X509v3 Subject Key Identifier: 
                5C:E1:78:8E:3D:FD:A8:07:E1:CD:23:0C:2E:AF:87:03:71:80:5C:36
            X509v3 Authority Key Identifier: 
                keyid:9B:26:0B:8A:98:A9:BB:1D:B9:1F:1C:E3:1A:40:33:ED:8E:17:88:AB

            X509v3 Extended Key Usage: 
                TLS Web Server Authentication, TLS Web Client Authentication
            X509v3 Subject Alternative Name: 
                IP Address:127.0.0.1
    Signature Algorithm: sha256WithRSAEncryption
         02:26:e6:64:17:60:b8:0f:69:2e:ee:47:8f:31:87:78:25:42:
         26:52:0d:13:13:ea:c4:db:20:79:53:88:cd:f5:19:0e:ba:a5:
         2a:1e:57:16:6f:b4:b8:4e:08:1e:a5:21:1d:e3:14:01:ed:43:
         1c:2f:77:54:45:6b:59:94:02:07:e8:50:06:cd:ea:ed:3f:bd:
         c0:c7:95:7d:43:e2:ee:79:43:23:b3:1a:57:50:22:7a:24:52:
         b5:9b:9e:7c:a3:ce:53:85:6c:1d:df:60:52:76:0c:4b:be:fb:
         1f:bd:89:eb:1c:fc:c9:e5:4c:19:6e:05:e9:2c:92:58:c7:42:
         a5:c5:34:1a:f8:d5:85:26:ec:dc:07:e2:06:82:62:39:b2:7e:
         30:50:87:e6:e4:66:56:c5:25:22:c0:aa:c7:98:a6:c0:1d:de:
         ce:3e:e9:84:ce:2f:f8:04:05:4a:99:f5:78:3f:fc:b7:aa:59:
         5e:fe:5b:8a:1c:d7:88:a4:34:51:9e:a6:11:47:d1:1a:3b:b5:
         95:28:d3:2c:4a:99:1c:54:2b:6c:31:05:4f:0a:48:83:50:77:
         4d:c1:6b:5a:80:c8:02:c1:11:00:af:3f:44:e4:1b:e0:f4:59:
         7d:5e:6c:72:c2:b6:64:d3:20:4c:5f:a5:e1:5e:3f:31:43:0b:
         e3:7b:7d:06
-----BEGIN CERTIFICATE-----
MIIDzjCCAragAwIBAgIQEvbZ8YAbUJ9kCcjqLxYztTANBgkqhkiG9w0BAQsFADBj
MQswCQYDVQQGEwJVUzETMBEGA1UECAwKQ2FsaWZvcm5pYTEWMBQGA1UEBwwNTW91
bnRhaW4gVmlldzEQMA4GA1UECgwHVGVzdCBDQTEVMBMGA1UEAwwMVGVzdCBSb290
IENBMB4XDTEyMDUwMTAwMDAwMFoXDTE5MDcwMzAwMDAwMFowYDELMAkGA1UEBhMC
VVMxEzARBgNVBAgMCkNhbGlmb3JuaWExFjAUBgNVBAcMDU1vdW50YWluIFZpZXcx
EDAOBgNVBAoMB1Rlc3QgQ0ExEjAQBgNVBAMMCTEyNy4wLjAuMTCCASIwDQYJKoZI
hvcNAQEBBQADggEPADCCAQoCggEBAPI2drcqdrutVPUGo5xoWFM7/m6HK9hJce6p
zd5V1qlweaehEnEbHzNLvATHWUEF79+jQaXc069o2axpoA0aYK5ZMJXX0/e8zTGo
yEu8kxid6rYmi8im3bynfldoyLl9KVNUDamR6w3fdtLrm7l+spw/hWHDyid3UZsx
Q8DXrkqZ0VnkHAX+ao3QF70nfwN9Wps44rL/0Ve6ic1VyYZcXqx1a+s32gheglFd
j7vom2tBtD5nyVgxYilz/t+NfTjSf0PUWxC6vMXV4gx8K4nrBUCsetdR6S0w18wk
UBDPxlxI6CAOTWZU+qWth8aKxyHHVPc2kAXrPh/gH2Agu4balGUCAwEAAaOBgDB+
MAwGA1UdEwEB/wQCMAAwHQYDVR0OBBYEFFzheI49/agH4c0jDC6vhwNxgFw2MB8G
A1UdIwQYMBaAFJsmC4qYqbsduR8c4xpAM+2OF4irMB0GA1UdJQQWMBQGCCsGAQUF
BwMBBggrBgEFBQcDAjAPBgNVHREECDAGhwR/AAABMA0GCSqGSIb3DQEBCwUAA4IB
AQACJuZkF2C4D2ku7kePMYd4JUImUg0TE+rE2yB5U4jN9RkOuqUqHlcWb7S4Tgge
pSEd4xQB7UMcL3dURWtZlAIH6FAGzertP73Ax5V9Q+LueUMjsxpXUCJ6JFK1m558
o85ThWwd32BSdgxLvvsfvYnrHPzJ5UwZbgXpLJJYx0KlxTQa+NWFJuzcB+IGgmI5
sn4wUIfm5GZWxSUiwKrHmKbAHd7OPumEzi/4BAVKmfV4P/y3qlle/luKHNeIpDRR
nqYRR9EaO7WVKNMsSpkcVCtsMQVPCkiDUHdNwWtagMgCwREArz9E5Bvg9Fl9Xmxy
wrZk0yBMX6XhXj8xQwvje30G
-----END CERTIFICATE-----
