Certificate:
    Data:
        Version: 3 (0x2)
        Serial Number:
            12:f6:d9:f1:80:1b:50:9f:64:09:c8:ea:2f:16:33:b4
        Signature Algorithm: sha256WithRSAEncryption
        Issuer: C=US, ST=California, L=Mountain View, O=Test CA, CN=Test Root CA
        Validity
            Not Before: Jan  1 00:00:00 2008 GMT
            Not After : May  1 00:00:00 2018 GMT
        Subject: C=US, ST=California, L=Mountain View, O=Test CA, CN=127.0.0.1
        Subject Public Key Info:
            Public Key Algorithm: rsaEncryption
                RSA Public-Key: (2048 bit)
                Modulus:
                    00:cf:4e:e8:53:22:15:6b:29:1c:d5:31:90:0c:6c:
                    dc:cb:db:80:55:c3:aa:f3:1c:ba:56:c9:c2:7e:53:
                    2d:fa:c8:48:c3:f1:36:7c:a7:55:b8:c3:73:4b:9a:
                    4f:f2:ea:dd:a2:9b:69:24:ed:07:73:44:9d:ac:ba:
                    67:02:f8:8c:3e:47:eb:46:1f:88:0a:1d:73:3a:f3:
                    22:27:f6:f7:f4:aa:41:47:ab:e4:2c:4c:63:ca:03:
                    6c:ec:a9:f5:37:39:f2:ca:30:18:09:80:28:c1:a2:
                    de:90:ff:35:41:0c:5b:78:20:43:40:4c:55:21:2f:
                    a2:8f:c8:3f:f1:12:59:a1:9b:a6:f3:af:8f:08:59:
                    4b:0b:e8:a7:02:fc:60:56:ec:41:15:14:aa:90:9a:
                    ce:b3:88:63:7f:d3:82:01:a2:c2:88:d7:7f:ae:a7:
                    f3:f7:9f:4a:c7:70:e7:43:14:bb:b6:75:5c:c9:67:
                    ed:0d:7e:39:0f:34:cf:29:64:ef:f1:68:cd:d3:cb:
                    b3:f0:13:af:1d:3d:87:cf:95:17:2e:dd:16:d5:de:
                    72:84:37:14:15:64:50:11:1f:fe:c1:f3:81:90:0d:
                    db:b4:a5:09:25:35:34:4c:dc:f0:98:23:ce:41:1f:
                    4f:05:f3:cc:5a:ee:06:23:4e:0b:b9:63:cb:d7:6b:
                    e1:bf
                Exponent: 65537 (0x10001)
        X509v3 extensions:
            X509v3 Basic Constraints: critical
                CA:FALSE
            X509v3 Subject Key Identifier: 
                AE:2F:34:B7:FC:B3:9C:38:86:A6:91:4F:42:0E:0D:16:23:94:D4:00
            X509v3 Authority Key Identifier: 
                keyid:9B:26:0B:8A:98:A9:BB:1D:B9:1F:1C:E3:1A:40:33:ED:8E:17:88:AB

            X509v3 Extended Key Usage: 
                TLS Web Server Authentication, TLS Web Client Authentication
            X509v3 Subject Alternative Name: 
                IP Address:127.0.0.1
    Signature Algorithm: sha256WithRSAEncryption
         8b:a8:79:8a:0c:90:5c:22:ab:66:cd:32:58:a2:5c:3c:d4:8c:
         11:7e:d1:ec:23:7b:00:8b:bf:34:b9:d4:a5:d2:fe:41:a9:6d:
         23:15:ce:ed:17:f4:ea:d1:d2:94:ed:0f:99:67:c1:ec:a8:ce:
         59:1d:d6:89:b7:b9:25:9a:6e:c4:de:4a:58:ea:15:b9:fc:c9:
         13:d5:a5:d9:c7:aa:c6:41:33:16:99:03:f5:cd:dd:3c:09:da:
         bf:b0:06:9a:e2:1e:9b:80:b1:c0:47:37:10:ab:b2:0b:11:c8:
         fa:c8:1a:30:09:14:e2:50:00:af:1b:17:7f:cc:df:fb:67:0b:
         43:1b:ae:e6:73:a9:53:db:d3:f2:51:16:6a:b8:7c:36:9c:8a:
         7b:60:e6:9a:fa:7f:d1:74:80:18:33:d6:9c:d4:f6:ab:f4:90:
         92:5d:35:f5:c0:fb:77:7a:c8:31:12:ea:d0:6c:1e:fa:96:2f:
         c1:19:6d:42:e0:e5:24:9b:e4:8a:e1:00:f1:74:5c:b9:d8:85:
         f3:d1:05:ee:50:83:88:9f:47:b8:b6:95:5a:5a:e9:74:1c:fb:
         e1:ec:3b:1e:aa:04:a5:08:e8:ce:d9:c4:c7:b8:1e:09:13:45:
         42:74:ae:d4:95:9a:34:11:88:13:5b:1b:a5:1d:41:45:85:ee:
         66:be:09:7a
-----BEGIN CERTIFICATE-----
MIIDzjCCAragAwIBAgIQEvbZ8YAbUJ9kCcjqLxYztDANBgkqhkiG9w0BAQsFADBj
MQswCQYDVQQGEwJVUzETMBEGA1UECAwKQ2FsaWZvcm5pYTEWMBQGA1UEBwwNTW91
bnRhaW4gVmlldzEQMA4GA1UECgwHVGVzdCBDQTEVMBMGA1UEAwwMVGVzdCBSb290
IENBMB4XDTA4MDEwMTAwMDAwMFoXDTE4MDUwMTAwMDAwMFowYDELMAkGA1UEBhMC
VVMxEzARBgNVBAgMCkNhbGlmb3JuaWExFjAUBgNVBAcMDU1vdW50YWluIFZpZXcx
EDAOBgNVBAoMB1Rlc3QgQ0ExEjAQBgNVBAMMCTEyNy4wLjAuMTCCASIwDQYJKoZI
hvcNAQEBBQADggEPADCCAQoCggEBAM9O6FMiFWspHNUxkAxs3MvbgFXDqvMculbJ
wn5TLfrISMPxNnynVbjDc0uaT/Lq3aKbaSTtB3NEnay6ZwL4jD5H60YfiAodczrz
Iif29/SqQUer5CxMY8oDbOyp9Tc58sowGAmAKMGi3pD/NUEMW3ggQ0BMVSEvoo/I
P/ESWaGbpvOvjwhZSwvopwL8YFbsQRUUqpCazrOIY3/TggGiwojXf66n8/efSsdw
50MUu7Z1XMln7Q1+OQ80zylk7/FozdPLs/ATrx09h8+VFy7dFtXecoQ3FBVkUBEf
/sHzgZAN27SlCSU1NEzc8JgjzkEfTwXzzFruBiNOC7ljy9dr4b8CAwEAAaOBgDB+
MAwGA1UdEwEB/wQCMAAwHQYDVR0OBBYEFK4vNLf8s5w4hqaRT0IODRYjlNQAMB8G
A1UdIwQYMBaAFJsmC4qYqbsduR8c4xpAM+2OF4irMB0GA1UdJQQWMBQGCCsGAQUF
BwMBBggrBgEFBQcDAjAPBgNVHREECDAGhwR/AAABMA0GCSqGSIb3DQEBCwUAA4IB
AQCLqHmKDJBcIqtmzTJYolw81IwRftHsI3sAi780udSl0v5BqW0jFc7tF/Tq0dKU
7Q+ZZ8HsqM5ZHdaJt7klmm7E3kpY6hW5/MkT1aXZx6rGQTMWmQP1zd08Cdq/sAaa
4h6bgLHARzcQq7ILEcj6yBowCRTiUACvGxd/zN/7ZwtDG67mc6lT29PyURZquHw2
nIp7YOaa+n/RdIAYM9ac1Par9JCSXTX1wPt3esgxEurQbB76li/BGW1C4OUkm+SK
4QDxdFy52IXz0QXuUIOIn0e4tpVaWul0HPvh7DseqgSlCOjO2cTHuB4JE0VCdK7U
lZo0EYgTWxulHUFFhe5mvgl6
-----END CERTIFICATE-----
