Certificate:
    Data:
        Version: 3 (0x2)
        Serial Number:
            cf:95:70:1c:b6:6c:07:bb:a4:de:63:24:47:3b:4e:d2
        Signature Algorithm: sha256WithRSAEncryption
        Issuer: C=US, ST=California, L=Mountain View, O=Test CA, CN=Test Root CA
        Validity
            Not Before: May  1 00:00:00 2012 GMT
            Not After : Jul  3 00:00:00 2019 GMT
        Subject: C=US, ST=California, L=Mountain View, O=Test CA, CN=127.0.0.1
        Subject Public Key Info:
            Public Key Algorithm: rsaEncryption
                Public-Key: (2048 bit)
                Modulus:
                    00:c6:31:0c:3d:cd:48:d9:3e:cd:21:3d:48:e8:b4:
                    f6:c2:33:03:5d:50:c8:72:a7:e9:76:36:11:bb:90:
                    85:c4:b8:06:5c:cb:f4:17:86:63:b8:d2:76:93:86:
                    fc:11:77:09:3a:33:72:e2:72:19:c7:55:76:f6:ab:
                    fb:15:84:f7:2a:25:47:82:df:ef:fc:2e:21:78:a7:
                    e5:e5:24:c4:87:07:3a:4f:9a:d6:3e:57:d7:c9:e5:
                    d5:fd:0f:b2:63:a3:8c:4a:5a:c2:0c:91:84:c1:20:
                    f5:7b:f0:67:ef:22:43:d0:8e:cd:7e:f3:70:0c:f6:
                    58:d3:e1:ee:23:2c:20:8b:37:c2:17:86:77:f9:1f:
                    60:fe:fc:6b:4d:b3:fe:8e:43:2b:12:77:2d:d2:22:
                    0d:16:3a:39:93:86:15:a2:d0:3d:41:85:46:cf:5b:
                    fe:f8:d2:92:3d:6b:73:5e:72:52:07:1e:db:ad:62:
                    62:c3:2b:c5:d6:90:56:6a:16:db:32:2e:d8:fd:6a:
                    cd:6f:23:92:53:68:e2:54:5b:31:f3:b5:04:6f:76:
                    f8:aa:5e:c5:01:e3:b8:42:62:a3:b8:28:cd:a7:84:
                    5a:74:f6:12:e5:06:82:81:2f:c7:79:f3:a3:15:84:
                    9f:df:0a:c4:71:2f:f0:72:10:00:c5:b7:ee:0e:06:
                    a1:d7
                Exponent: 65537 (0x10001)
        X509v3 extensions:
            X509v3 Basic Constraints: critical
                CA:FALSE
            X509v3 Subject Key Identifier: 
                4A:35:A4:44:3F:E7:5A:24:9C:0C:74:55:8C:EB:ED:6E:12:E9:22:35
            X509v3 Authority Key Identifier: 
                9B:26:0B:8A:98:A9:BB:1D:B9:1F:1C:E3:1A:40:33:ED:8E:17:88:AB
            X509v3 Extended Key Usage: 
                TLS Web Server Authentication, TLS Web Client Authentication
            X509v3 Subject Alternative Name: 
                IP Address:127.0.0.1
    Signature Algorithm: sha256WithRSAEncryption
    Signature Value:
        ae:a4:0a:2d:80:37:c5:fb:64:0d:b4:7c:52:39:2e:4c:bf:86:
        32:ad:bc:d6:9f:28:e5:48:eb:7b:a4:94:b3:58:58:38:bd:12:
        0b:16:02:4b:e8:69:4d:29:f7:14:08:ef:be:62:bb:74:a2:cf:
        df:15:78:c8:4b:39:af:cb:b1:77:d4:38:4c:d5:85:7d:1f:de:
        46:47:82:3b:21:03:f2:5b:95:69:34:b7:17:c1:99:3f:71:2b:
        86:e1:ff:00:85:4c:6d:5c:9e:66:81:30:a5:91:41:00:ba:fd:
        71:f1:05:27:17:a4:f1:40:0a:33:fa:04:c4:c7:9b:8a:13:4e:
        eb:d2:2e:da:60:b2:9b:4e:84:9c:85:3d:55:6b:df:9d:30:ab:
        66:14:58:fa:f0:ed:fb:ac:5c:b8:ed:8a:6e:b9:64:8d:3e:14:
        57:7d:5f:93:8f:4d:8f:7b:8d:96:8e:16:52:b4:33:0b:ab:00:
        e3:01:c6:39:4b:3a:89:1a:84:4d:52:79:b0:ff:e8:0e:64:17:
        c4:a1:a3:1e:9a:d6:2b:51:78:ab:48:90:57:1b:9d:13:b4:15:
        c9:96:01:56:48:70:dd:09:0b:30:9a:ab:1d:4b:9a:71:f0:e9:
        c2:c1:a8:64:bb:0d:45:1f:79:a4:d7:96:93:4f:61:47:c3:8f:
        ef:d4:22:8a
-----BEGIN CERTIFICATE-----
MIIDzzCCAregAwIBAgIRAM+VcBy2bAe7pN5jJEc7TtIwDQYJKoZIhvcNAQELBQAw
YzELMAkGA1UEBhMCVVMxEzARBgNVBAgMCkNhbGlmb3JuaWExFjAUBgNVBAcMDU1v
dW50YWluIFZpZXcxEDAOBgNVBAoMB1Rlc3QgQ0ExFTATBgNVBAMMDFRlc3QgUm9v
dCBDQTAeFw0xMjA1MDEwMDAwMDBaFw0xOTA3MDMwMDAwMDBaMGAxCzAJBgNVBAYT
AlVTMRMwEQYDVQQIDApDYWxpZm9ybmlhMRYwFAYDVQQHDA1Nb3VudGFpbiBWaWV3
MRAwDgYDVQQKDAdUZXN0IENBMRIwEAYDVQQDDAkxMjcuMC4wLjEwggEiMA0GCSqG
SIb3DQEBAQUAA4IBDwAwggEKAoIBAQDGMQw9zUjZPs0hPUjotPbCMwNdUMhyp+l2
NhG7kIXEuAZcy/QXhmO40naThvwRdwk6M3LichnHVXb2q/sVhPcqJUeC3+/8LiF4
p+XlJMSHBzpPmtY+V9fJ5dX9D7Jjo4xKWsIMkYTBIPV78GfvIkPQjs1+83AM9ljT
4e4jLCCLN8IXhnf5H2D+/GtNs/6OQysSdy3SIg0WOjmThhWi0D1BhUbPW/740pI9
a3NeclIHHtutYmLDK8XWkFZqFtsyLtj9as1vI5JTaOJUWzHztQRvdviqXsUB47hC
YqO4KM2nhFp09hLlBoKBL8d586MVhJ/fCsRxL/ByEADFt+4OBqHXAgMBAAGjgYAw
fjAMBgNVHRMBAf8EAjAAMB0GA1UdDgQWBBRKNaREP+daJJwMdFWM6+1uEukiNTAf
BgNVHSMEGDAWgBSbJguKmKm7HbkfHOMaQDPtjheIqzAdBgNVHSUEFjAUBggrBgEF
BQcDAQYIKwYBBQUHAwIwDwYDVR0RBAgwBocEfwAAATANBgkqhkiG9w0BAQsFAAOC
AQEArqQKLYA3xftkDbR8UjkuTL+GMq281p8o5Ujre6SUs1hYOL0SCxYCS+hpTSn3
FAjvvmK7dKLP3xV4yEs5r8uxd9Q4TNWFfR/eRkeCOyED8luVaTS3F8GZP3ErhuH/
AIVMbVyeZoEwpZFBALr9cfEFJxek8UAKM/oExMebihNO69Iu2mCym06EnIU9VWvf
nTCrZhRY+vDt+6xcuO2KbrlkjT4UV31fk49Nj3uNlo4WUrQzC6sA4wHGOUs6iRqE
TVJ5sP/oDmQXxKGjHprWK1F4q0iQVxudE7QVyZYBVkhw3QkLMJqrHUuacfDpwsGo
ZLsNRR95pNeWk09hR8OP79Qiig==
-----END CERTIFICATE-----
