Certificate:
    Data:
        Version: 3 (0x2)
        Serial Number:
            b0:6b:93:92:e3:5c:8d:7e:ed:9d:c8:96:59:c5:c2:78
        Signature Algorithm: sha256WithRSAEncryption
        Issuer: C=US, ST=California, L=Mountain View, O=Test CA, CN=Test Root CA
        Validity
            Not Before: Jan  1 00:00:00 2008 GMT
            Not After : May  1 00:00:00 2018 GMT
        Subject: C=US, ST=California, L=Mountain View, O=Test CA, CN=127.0.0.1
        Subject Public Key Info:
            Public Key Algorithm: rsaEncryption
                Public-Key: (2048 bit)
                Modulus:
                    00:ba:d0:97:d7:72:13:ea:8f:1a:c0:2b:11:e7:a9:
                    d1:dd:7c:88:d2:a6:68:c0:51:1d:ff:b3:0b:88:de:
                    f3:95:12:5a:74:7e:21:25:aa:04:cf:e2:9f:8f:9c:
                    0a:38:e5:df:77:7a:47:73:46:2b:c7:bf:b9:5a:6b:
                    5a:0d:75:d4:32:59:6d:45:ba:02:10:34:ec:6b:6a:
                    86:26:67:78:19:e7:a5:87:a4:88:4c:a9:a4:ec:94:
                    19:d0:ee:b6:49:37:df:eb:63:e8:4d:f2:09:41:56:
                    be:7c:57:17:66:06:76:e9:35:1b:c2:9e:0e:b7:72:
                    35:e7:82:6f:85:20:4a:75:6f:ff:84:09:fa:73:47:
                    e7:40:8c:3f:05:f6:73:8c:f7:56:fb:1e:53:a7:ba:
                    6c:3f:12:e0:34:21:8e:e0:b4:19:36:6e:73:86:22:
                    5e:b2:89:17:50:c3:a6:03:d1:e0:8e:d3:bf:4e:e9:
                    11:08:21:61:f0:f1:42:ef:56:f1:ad:e4:d7:b3:4d:
                    6a:8a:b2:0c:ea:99:ab:a2:e5:64:f5:d0:ef:7b:1d:
                    98:f8:8d:20:29:46:91:0b:bc:a8:1b:b7:50:a3:2e:
                    0f:c9:0a:a1:61:cb:7f:77:9d:a0:96:ee:b1:b1:ca:
                    2d:cc:f3:f6:16:21:16:2a:ee:e8:10:7a:e9:e2:7d:
                    4d:21
                Exponent: 65537 (0x10001)
        X509v3 extensions:
            X509v3 Basic Constraints: critical
                CA:FALSE
            X509v3 Subject Key Identifier: 
                41:16:79:6C:BA:A5:55:A1:5B:53:B3:80:E8:62:C8:1B:CF:E9:A5:6C
            X509v3 Authority Key Identifier: 
                9B:26:0B:8A:98:A9:BB:1D:B9:1F:1C:E3:1A:40:33:ED:8E:17:88:AB
            X509v3 Extended Key Usage: 
                TLS Web Server Authentication, TLS Web Client Authentication
            X509v3 Subject Alternative Name: 
                IP Address:127.0.0.1
    Signature Algorithm: sha256WithRSAEncryption
    Signature Value:
        7e:9b:7f:2c:42:3f:7e:34:6b:dc:31:35:cd:e6:b4:b0:ac:99:
        80:fb:90:37:73:b8:fb:50:8d:e5:d5:6f:e4:80:22:3e:89:d3:
        fd:78:9e:8c:9e:6e:6d:32:3c:b7:97:ef:32:dd:86:a1:ed:44:
        91:fc:60:55:bd:46:c4:67:f4:00:ce:a7:e5:65:fb:58:b0:75:
        8e:81:51:b3:46:a5:b0:5f:fe:aa:69:17:5b:ce:da:7b:90:7b:
        07:4d:f6:eb:0b:3f:b6:bd:81:d5:e5:55:43:1e:de:82:30:5d:
        ff:1c:49:df:4b:7f:e5:5c:5a:e7:d1:6a:6f:8f:ab:53:fc:18:
        38:8f:8e:07:ae:24:24:7f:10:73:2b:63:3e:9e:f7:dd:90:de:
        84:df:70:e2:bb:73:f5:77:04:aa:ab:b5:bb:e6:fa:5c:4a:2b:
        67:4a:61:2c:bb:58:9d:d3:42:6b:0d:90:b1:14:6a:ee:13:c2:
        9f:21:45:ba:c7:7c:7b:a0:20:0b:13:b5:81:36:ff:8f:32:2e:
        f0:2b:4e:e7:6d:cd:28:9a:49:40:69:52:c5:5f:89:eb:04:10:
        07:3a:17:1e:f6:95:35:13:67:94:fe:65:17:4f:6e:bc:23:96:
        d8:11:21:ce:70:af:97:ef:f5:c8:fa:e3:e3:01:72:1a:f7:4e:
        73:8d:10:a6
-----BEGIN CERTIFICATE-----
MIIDzzCCAregAwIBAgIRALBrk5LjXI1+7Z3IllnFwngwDQYJKoZIhvcNAQELBQAw
YzELMAkGA1UEBhMCVVMxEzARBgNVBAgMCkNhbGlmb3JuaWExFjAUBgNVBAcMDU1v
dW50YWluIFZpZXcxEDAOBgNVBAoMB1Rlc3QgQ0ExFTATBgNVBAMMDFRlc3QgUm9v
dCBDQTAeFw0wODAxMDEwMDAwMDBaFw0xODA1MDEwMDAwMDBaMGAxCzAJBgNVBAYT
AlVTMRMwEQYDVQQIDApDYWxpZm9ybmlhMRYwFAYDVQQHDA1Nb3VudGFpbiBWaWV3
MRAwDgYDVQQKDAdUZXN0IENBMRIwEAYDVQQDDAkxMjcuMC4wLjEwggEiMA0GCSqG
SIb3DQEBAQUAA4IBDwAwggEKAoIBAQC60JfXchPqjxrAKxHnqdHdfIjSpmjAUR3/
swuI3vOVElp0fiElqgTP4p+PnAo45d93ekdzRivHv7laa1oNddQyWW1FugIQNOxr
aoYmZ3gZ56WHpIhMqaTslBnQ7rZJN9/rY+hN8glBVr58VxdmBnbpNRvCng63cjXn
gm+FIEp1b/+ECfpzR+dAjD8F9nOM91b7HlOnumw/EuA0IY7gtBk2bnOGIl6yiRdQ
w6YD0eCO079O6REIIWHw8ULvVvGt5NezTWqKsgzqmaui5WT10O97HZj4jSApRpEL
vKgbt1CjLg/JCqFhy393naCW7rGxyi3M8/YWIRYq7ugQeunifU0hAgMBAAGjgYAw
fjAMBgNVHRMBAf8EAjAAMB0GA1UdDgQWBBRBFnlsuqVVoVtTs4DoYsgbz+mlbDAf
BgNVHSMEGDAWgBSbJguKmKm7HbkfHOMaQDPtjheIqzAdBgNVHSUEFjAUBggrBgEF
BQcDAQYIKwYBBQUHAwIwDwYDVR0RBAgwBocEfwAAATANBgkqhkiG9w0BAQsFAAOC
AQEAfpt/LEI/fjRr3DE1zea0sKyZgPuQN3O4+1CN5dVv5IAiPonT/XiejJ5ubTI8
t5fvMt2Goe1EkfxgVb1GxGf0AM6n5WX7WLB1joFRs0alsF/+qmkXW87ae5B7B032
6ws/tr2B1eVVQx7egjBd/xxJ30t/5Vxa59Fqb4+rU/wYOI+OB64kJH8QcytjPp73
3ZDehN9w4rtz9XcEqqu1u+b6XEorZ0phLLtYndNCaw2QsRRq7hPCnyFFusd8e6Ag
CxO1gTb/jzIu8CtO523NKJpJQGlSxV+J6wQQBzoXHvaVNRNnlP5lF09uvCOW2BEh
znCvl+/1yPrj4wFyGvdOc40Qpg==
-----END CERTIFICATE-----
