Certificate:
    Data:
        Version: 3 (0x2)
        Serial Number:
            b0:6b:93:92:e3:5c:8d:7e:ed:9d:c8:96:59:c5:c2:77
        Signature Algorithm: sha256WithRSAEncryption
        Issuer: C=US, ST=California, L=Mountain View, O=Test CA, CN=Test Root CA
        Validity
            Not Before: Jan  1 00:00:00 2008 GMT
            Not After : Jan  1 00:00:00 2015 GMT
        Subject: C=US, ST=California, L=Mountain View, O=Test CA, CN=127.0.0.1
        Subject Public Key Info:
            Public Key Algorithm: rsaEncryption
                Public-Key: (2048 bit)
                Modulus:
                    00:ba:59:8b:7c:51:b9:fa:d1:33:7f:52:6a:0e:e4:
                    f8:aa:d2:bc:ca:87:8e:ad:c5:23:5e:4f:64:c0:44:
                    5a:68:c9:e3:b9:10:a0:ce:95:c5:96:14:3f:92:7b:
                    19:d1:f4:a0:b5:1e:20:ad:10:6b:35:9d:87:06:a2:
                    d5:52:26:d8:12:9d:e4:9b:11:25:7c:7d:b8:16:b4:
                    97:35:c8:31:e2:bc:6b:79:5b:d8:58:12:5a:ba:0a:
                    ab:98:d7:6e:96:56:cd:54:53:ea:49:12:be:7e:ef:
                    b5:a6:9e:f2:5a:7a:27:2e:71:40:38:94:dd:7a:e3:
                    a4:0e:ba:54:6d:6a:fd:00:c2:dd:15:81:74:83:56:
                    5e:27:7e:3f:2e:47:0e:3b:ec:85:4b:f9:7a:f8:7b:
                    1a:96:4c:d8:c9:ee:bb:20:8a:25:83:38:26:f1:d0:
                    0c:f0:22:46:4b:9b:87:91:22:eb:a2:e3:84:57:e0:
                    a3:cc:90:de:3a:43:41:40:a0:8e:bd:c8:2d:24:ea:
                    2a:92:11:bf:b7:7c:77:e9:9a:d3:22:da:83:d1:6b:
                    a6:29:f4:3b:cd:d9:6b:25:d7:2f:d4:67:60:65:da:
                    d5:ba:9e:36:1d:33:b2:e6:e2:b8:84:ea:99:1d:5d:
                    69:43:99:af:35:63:4c:99:bc:d4:39:80:b4:88:f3:
                    59:07
                Exponent: 65537 (0x10001)
        X509v3 extensions:
            X509v3 Basic Constraints: critical
                CA:FALSE
            X509v3 Subject Key Identifier: 
                7C:9E:00:01:F2:2E:C7:FF:98:BA:C8:E9:DA:7D:77:F8:9D:91:B1:E9
            X509v3 Authority Key Identifier: 
                9B:26:0B:8A:98:A9:BB:1D:B9:1F:1C:E3:1A:40:33:ED:8E:17:88:AB
            X509v3 Extended Key Usage: 
                TLS Web Server Authentication, TLS Web Client Authentication
            X509v3 Subject Alternative Name: 
                IP Address:127.0.0.1
    Signature Algorithm: sha256WithRSAEncryption
    Signature Value:
        c6:7c:e6:21:ca:91:23:8e:0c:28:5c:52:c8:99:9e:4a:0c:f0:
        f9:53:ad:ce:30:0c:d3:46:f3:0a:03:11:3c:e8:80:38:4c:40:
        ca:a3:de:21:9c:0f:c9:5d:35:ce:ca:b4:88:15:56:f3:3f:6b:
        7c:ac:2f:0b:54:69:2f:43:50:56:b9:6c:72:5e:d5:03:77:fe:
        18:25:bd:9b:5c:6f:70:20:52:aa:66:49:00:12:4c:89:54:eb:
        da:c4:7e:55:1d:d7:46:db:d3:98:29:eb:56:f0:0b:e8:f8:03:
        4a:3f:21:25:e6:b9:e4:52:78:20:57:7c:33:2f:e2:24:e7:ae:
        1a:e9:45:ae:3f:17:d7:0b:38:2f:0e:c3:bf:b6:39:37:e8:f9:
        ca:fe:d2:12:d4:d2:88:f8:d9:9e:3b:9b:fa:2e:18:3b:8b:ac:
        ef:2e:2a:35:d5:5e:b8:f9:4f:ec:6f:0c:af:d6:f3:8e:ef:78:
        b7:d1:29:0f:7f:f8:08:85:a6:56:83:84:a3:df:c4:41:95:84:
        3a:0d:10:31:36:d3:01:f9:ee:42:87:61:85:06:7f:e2:b6:2c:
        d1:7b:ba:24:b9:34:a4:b1:ec:2a:6f:06:b3:b0:db:2b:c1:aa:
        82:a7:ae:9b:09:bb:36:22:76:76:55:0f:e5:2b:25:d8:34:1c:
        b3:0a:f0:ec
-----BEGIN CERTIFICATE-----
MIIDzzCCAregAwIBAgIRALBrk5LjXI1+7Z3IllnFwncwDQYJKoZIhvcNAQELBQAw
YzELMAkGA1UEBhMCVVMxEzARBgNVBAgMCkNhbGlmb3JuaWExFjAUBgNVBAcMDU1v
dW50YWluIFZpZXcxEDAOBgNVBAoMB1Rlc3QgQ0ExFTATBgNVBAMMDFRlc3QgUm9v
dCBDQTAeFw0wODAxMDEwMDAwMDBaFw0xNTAxMDEwMDAwMDBaMGAxCzAJBgNVBAYT
AlVTMRMwEQYDVQQIDApDYWxpZm9ybmlhMRYwFAYDVQQHDA1Nb3VudGFpbiBWaWV3
MRAwDgYDVQQKDAdUZXN0IENBMRIwEAYDVQQDDAkxMjcuMC4wLjEwggEiMA0GCSqG
SIb3DQEBAQUAA4IBDwAwggEKAoIBAQC6WYt8Ubn60TN/UmoO5Piq0rzKh46txSNe
T2TARFpoyeO5EKDOlcWWFD+SexnR9KC1HiCtEGs1nYcGotVSJtgSneSbESV8fbgW
tJc1yDHivGt5W9hYElq6CquY126WVs1UU+pJEr5+77WmnvJaeicucUA4lN1646QO
ulRtav0Awt0VgXSDVl4nfj8uRw477IVL+Xr4exqWTNjJ7rsgiiWDOCbx0AzwIkZL
m4eRIuui44RX4KPMkN46Q0FAoI69yC0k6iqSEb+3fHfpmtMi2oPRa6Yp9DvN2Wsl
1y/UZ2Bl2tW6njYdM7Lm4riE6pkdXWlDma81Y0yZvNQ5gLSI81kHAgMBAAGjgYAw
fjAMBgNVHRMBAf8EAjAAMB0GA1UdDgQWBBR8ngAB8i7H/5i6yOnafXf4nZGx6TAf
BgNVHSMEGDAWgBSbJguKmKm7HbkfHOMaQDPtjheIqzAdBgNVHSUEFjAUBggrBgEF
BQcDAQYIKwYBBQUHAwIwDwYDVR0RBAgwBocEfwAAATANBgkqhkiG9w0BAQsFAAOC
AQEAxnzmIcqRI44MKFxSyJmeSgzw+VOtzjAM00bzCgMRPOiAOExAyqPeIZwPyV01
zsq0iBVW8z9rfKwvC1RpL0NQVrlscl7VA3f+GCW9m1xvcCBSqmZJABJMiVTr2sR+
VR3XRtvTmCnrVvAL6PgDSj8hJea55FJ4IFd8My/iJOeuGulFrj8X1ws4Lw7Dv7Y5
N+j5yv7SEtTSiPjZnjub+i4YO4us7y4qNdVeuPlP7G8Mr9bzju94t9EpD3/4CIWm
VoOEo9/EQZWEOg0QMTbTAfnuQodhhQZ/4rYs0Xu6JLk0pLHsKm8Gs7DbK8Gqgqeu
mwm7NiJ2dlUP5Ssl2DQcswrw7A==
-----END CERTIFICATE-----
