Certificate:
    Data:
        Version: 3 (0x2)
        Serial Number:
            3e:2c:9d:be:b0:42:c8:cf:fc:99:42:d5:4d:41:6a:b5
        Signature Algorithm: sha256WithRSAEncryption
        Issuer: C=US, ST=California, L=Mountain View, O=Test CA, CN=Test Root CA
        Validity
            Not Before: Jan  1 00:00:00 2008 GMT
            Not After : May  1 00:00:00 2018 GMT
        Subject: C=US, ST=California, L=Mountain View, O=Test CA, CN=127.0.0.1
        Subject Public Key Info:
            Public Key Algorithm: rsaEncryption
                RSA Public-Key: (2048 bit)
                Modulus:
                    00:f6:17:41:ab:0e:a4:ff:81:84:4e:7d:ff:d7:2a:
                    5e:ac:67:30:a5:29:04:c6:0b:00:76:6d:ab:27:63:
                    7d:31:39:a5:22:06:2e:df:c0:78:75:9c:29:e3:84:
                    53:8b:3d:40:9b:82:cd:24:75:44:68:60:24:ed:be:
                    9d:22:75:b4:01:54:97:c5:00:3d:95:9e:36:89:75:
                    ba:cf:70:8d:a0:cc:77:b7:4b:b5:04:55:b4:3f:75:
                    2f:21:5a:d1:1d:35:77:08:c3:d0:14:89:5e:e5:41:
                    ce:7e:3d:9c:f6:4f:83:2c:39:d2:d9:3f:33:4c:36:
                    eb:4f:d8:37:ba:be:fb:08:12:f4:32:4d:2a:cc:43:
                    1d:b4:8e:2a:d1:d0:6c:59:2a:de:ad:3e:34:e0:a6:
                    e3:94:72:e5:93:4e:08:c1:19:20:68:25:9d:da:75:
                    03:99:b4:94:9f:ea:76:2d:93:b7:6d:45:36:3a:05:
                    71:b2:68:1d:ab:58:c8:78:ef:b3:16:bc:d3:8d:68:
                    0e:18:5e:0b:8f:49:e4:b9:a0:18:c2:9b:e7:85:95:
                    a8:65:2c:9c:48:29:99:31:36:07:7d:63:3d:3f:b5:
                    2f:4e:9f:95:07:e5:c7:dd:86:56:8e:11:aa:cc:1b:
                    f6:aa:e1:d6:19:a2:53:69:06:c0:b2:45:a1:ad:6e:
                    7e:35
                Exponent: 65537 (0x10001)
        X509v3 extensions:
            X509v3 Basic Constraints: critical
                CA:FALSE
            X509v3 Subject Key Identifier: 
                BC:BA:0C:C8:CE:15:C4:E4:E7:AC:E7:E8:E4:B9:39:22:FF:D3:64:F6
            X509v3 Authority Key Identifier: 
                keyid:9B:26:0B:8A:98:A9:BB:1D:B9:1F:1C:E3:1A:40:33:ED:8E:17:88:AB

            X509v3 Extended Key Usage: 
                TLS Web Server Authentication, TLS Web Client Authentication
            X509v3 Subject Alternative Name: 
                IP Address:127.0.0.1
    Signature Algorithm: sha256WithRSAEncryption
         91:a2:96:56:82:4d:e1:c6:c8:60:ed:c3:c9:30:c9:0b:64:ce:
         ce:4a:5d:28:54:ed:52:a6:b2:c0:6a:8f:a3:ed:03:e2:26:9c:
         57:84:e2:27:27:54:7d:e3:64:b9:20:6a:75:4a:93:2b:00:ea:
         89:ad:12:eb:06:5a:ab:67:e2:c2:08:0f:a2:0c:1d:82:ab:37:
         2d:d4:d9:d3:df:69:1b:34:7d:1a:61:fe:26:eb:b8:d9:53:b0:
         a7:d6:f6:32:83:ed:03:c5:9c:22:5c:1b:2b:8f:e1:af:15:ba:
         57:0f:bc:a0:f4:78:0a:10:39:93:b1:0c:79:47:8f:08:18:78:
         45:9b:b6:76:9b:c5:27:2c:de:80:4e:c6:5b:d0:c5:2c:f5:35:
         3c:a1:1b:5c:f7:d4:38:5b:ea:dd:3e:05:84:9f:71:c6:56:33:
         34:ad:df:2b:dd:e1:b7:a4:a5:9d:59:c9:06:33:2d:95:86:2e:
         e4:8c:08:36:19:32:05:50:8d:40:27:e9:d0:b2:fe:e1:e5:45:
         70:e9:1a:b3:c7:81:ae:e0:0c:72:30:b6:2b:72:0e:73:32:96:
         75:63:e1:18:6c:0d:23:4b:ff:d6:d3:92:91:70:0d:0c:52:26:
         7d:3d:35:5f:26:3c:1d:7e:36:4e:b9:57:2e:0c:91:2f:8c:6c:
         11:dc:80:95
-----BEGIN CERTIFICATE-----
MIIDzjCCAragAwIBAgIQPiydvrBCyM/8mULVTUFqtTANBgkqhkiG9w0BAQsFADBj
MQswCQYDVQQGEwJVUzETMBEGA1UECAwKQ2FsaWZvcm5pYTEWMBQGA1UEBwwNTW91
bnRhaW4gVmlldzEQMA4GA1UECgwHVGVzdCBDQTEVMBMGA1UEAwwMVGVzdCBSb290
IENBMB4XDTA4MDEwMTAwMDAwMFoXDTE4MDUwMTAwMDAwMFowYDELMAkGA1UEBhMC
VVMxEzARBgNVBAgMCkNhbGlmb3JuaWExFjAUBgNVBAcMDU1vdW50YWluIFZpZXcx
EDAOBgNVBAoMB1Rlc3QgQ0ExEjAQBgNVBAMMCTEyNy4wLjAuMTCCASIwDQYJKoZI
hvcNAQEBBQADggEPADCCAQoCggEBAPYXQasOpP+BhE59/9cqXqxnMKUpBMYLAHZt
qydjfTE5pSIGLt/AeHWcKeOEU4s9QJuCzSR1RGhgJO2+nSJ1tAFUl8UAPZWeNol1
us9wjaDMd7dLtQRVtD91LyFa0R01dwjD0BSJXuVBzn49nPZPgyw50tk/M0w260/Y
N7q++wgS9DJNKsxDHbSOKtHQbFkq3q0+NOCm45Ry5ZNOCMEZIGglndp1A5m0lJ/q
di2Tt21FNjoFcbJoHatYyHjvsxa8041oDhheC49J5LmgGMKb54WVqGUsnEgpmTE2
B31jPT+1L06flQflx92GVo4Rqswb9qrh1hmiU2kGwLJFoa1ufjUCAwEAAaOBgDB+
MAwGA1UdEwEB/wQCMAAwHQYDVR0OBBYEFLy6DMjOFcTk56zn6OS5OSL/02T2MB8G
A1UdIwQYMBaAFJsmC4qYqbsduR8c4xpAM+2OF4irMB0GA1UdJQQWMBQGCCsGAQUF
BwMBBggrBgEFBQcDAjAPBgNVHREECDAGhwR/AAABMA0GCSqGSIb3DQEBCwUAA4IB
AQCRopZWgk3hxshg7cPJMMkLZM7OSl0oVO1SprLAao+j7QPiJpxXhOInJ1R942S5
IGp1SpMrAOqJrRLrBlqrZ+LCCA+iDB2Cqzct1NnT32kbNH0aYf4m67jZU7Cn1vYy
g+0DxZwiXBsrj+GvFbpXD7yg9HgKEDmTsQx5R48IGHhFm7Z2m8UnLN6ATsZb0MUs
9TU8oRtc99Q4W+rdPgWEn3HGVjM0rd8r3eG3pKWdWckGMy2Vhi7kjAg2GTIFUI1A
J+nQsv7h5UVw6Rqzx4Gu4AxyMLYrcg5zMpZ1Y+EYbA0jS//W05KRcA0MUiZ9PTVf
JjwdfjZOuVcuDJEvjGwR3ICV
-----END CERTIFICATE-----
