Certificate:
    Data:
        Version: 3 (0x2)
        Serial Number:
            b0:6b:93:92:e3:5c:8d:7e:ed:9d:c8:96:59:c5:c2:79
        Signature Algorithm: sha256WithRSAEncryption
        Issuer: C=US, ST=California, L=Mountain View, O=Test CA, CN=Test Root CA
        Validity
            Not Before: May  1 00:00:00 2012 GMT
            Not After : Jul  3 00:00:00 2019 GMT
        Subject: C=US, ST=California, L=Mountain View, O=Test CA, CN=127.0.0.1
        Subject Public Key Info:
            Public Key Algorithm: rsaEncryption
                Public-Key: (2048 bit)
                Modulus:
                    00:e8:01:53:38:ac:8f:22:51:a3:e6:99:dc:5c:61:
                    81:49:da:e3:d6:19:94:5e:20:32:1e:d9:0d:8a:ad:
                    d7:f6:76:fc:91:1a:1a:a0:82:77:6b:9c:22:7d:80:
                    9a:bc:09:06:c6:16:4c:96:47:35:de:4a:63:0a:b2:
                    f4:b2:9d:c8:8e:9c:ba:de:0b:05:cb:16:53:c6:eb:
                    b1:97:d2:fd:ce:a9:9b:87:c6:f3:65:83:6f:02:d0:
                    a2:f6:70:93:0e:e4:b4:5a:ea:83:93:5d:db:16:da:
                    54:e2:78:40:43:e6:c2:74:33:2a:f2:0f:18:a5:1f:
                    78:95:36:b4:ab:b0:58:dc:e8:e8:2a:74:ae:45:d3:
                    55:48:d2:64:39:d0:7d:f9:8f:96:d9:d1:77:a8:bb:
                    54:1d:d0:01:12:f3:68:48:83:65:6a:22:86:4a:3c:
                    f2:28:a6:d4:a6:6c:27:1b:44:4e:67:60:36:64:10:
                    54:e2:ad:f4:fb:b7:9a:a5:93:13:2d:9e:44:22:7b:
                    84:f6:61:6a:6e:22:ff:cd:06:84:c8:e4:e2:14:fe:
                    d3:33:1a:f6:94:a3:6d:9d:af:e7:7e:da:02:31:1c:
                    c6:54:60:72:46:b7:5b:56:e5:31:f5:d8:57:33:d7:
                    2e:2e:00:ae:2a:c9:be:f0:51:c4:8b:eb:59:43:12:
                    90:fb
                Exponent: 65537 (0x10001)
        X509v3 extensions:
            X509v3 Basic Constraints: critical
                CA:FALSE
            X509v3 Subject Key Identifier: 
                55:1A:0A:BD:6F:54:C0:58:F3:8A:C4:A3:2E:4D:39:9B:BB:E4:48:AD
            X509v3 Authority Key Identifier: 
                9B:26:0B:8A:98:A9:BB:1D:B9:1F:1C:E3:1A:40:33:ED:8E:17:88:AB
            X509v3 Extended Key Usage: 
                TLS Web Server Authentication, TLS Web Client Authentication
            X509v3 Subject Alternative Name: 
                IP Address:127.0.0.1
    Signature Algorithm: sha256WithRSAEncryption
    Signature Value:
        8e:83:f2:8f:31:70:5a:ce:64:82:b3:9e:89:e8:0f:5a:d1:bc:
        55:c1:0d:40:7b:1b:21:94:ba:5a:e3:fc:16:28:b8:92:2b:aa:
        85:2b:66:8a:43:2e:05:f1:38:b2:20:f5:8e:e5:7a:ef:62:29:
        70:c5:03:c9:48:3f:1c:59:83:7d:8b:64:e6:db:0e:4c:c2:18:
        a0:85:a7:3c:18:db:ac:92:46:96:c0:f2:83:3e:e7:53:ce:5a:
        13:90:4b:22:86:42:6b:a1:c4:1d:e6:b8:50:aa:51:c1:74:07:
        16:d8:fe:e2:3a:9a:79:52:4a:a7:40:bb:14:d4:56:ff:01:d5:
        0e:5c:c5:ec:1b:fa:4e:32:4a:1a:12:6d:d6:3f:0b:1c:e7:86:
        73:e2:24:97:90:ad:50:4e:c8:af:f6:b5:75:ce:91:91:e5:bd:
        92:c3:d4:d9:be:c0:82:8c:de:3c:98:eb:12:5b:a6:7b:d5:94:
        7d:69:2c:c2:fa:52:62:65:a7:67:76:4f:c7:73:6f:5d:47:b9:
        8d:39:1d:2f:80:bf:ee:5c:48:83:42:a9:09:5b:7d:a1:0a:4f:
        c2:b6:4c:0d:ba:4a:01:25:95:f8:98:4b:93:be:dc:63:bf:aa:
        f9:8f:77:11:ea:56:ea:12:d4:6d:57:7e:b1:e8:3b:6a:3f:69:
        ee:ec:ea:66
-----BEGIN CERTIFICATE-----
MIIDzzCCAregAwIBAgIRALBrk5LjXI1+7Z3IllnFwnkwDQYJKoZIhvcNAQELBQAw
YzELMAkGA1UEBhMCVVMxEzARBgNVBAgMCkNhbGlmb3JuaWExFjAUBgNVBAcMDU1v
dW50YWluIFZpZXcxEDAOBgNVBAoMB1Rlc3QgQ0ExFTATBgNVBAMMDFRlc3QgUm9v
dCBDQTAeFw0xMjA1MDEwMDAwMDBaFw0xOTA3MDMwMDAwMDBaMGAxCzAJBgNVBAYT
AlVTMRMwEQYDVQQIDApDYWxpZm9ybmlhMRYwFAYDVQQHDA1Nb3VudGFpbiBWaWV3
MRAwDgYDVQQKDAdUZXN0IENBMRIwEAYDVQQDDAkxMjcuMC4wLjEwggEiMA0GCSqG
SIb3DQEBAQUAA4IBDwAwggEKAoIBAQDoAVM4rI8iUaPmmdxcYYFJ2uPWGZReIDIe
2Q2Krdf2dvyRGhqggndrnCJ9gJq8CQbGFkyWRzXeSmMKsvSynciOnLreCwXLFlPG
67GX0v3OqZuHxvNlg28C0KL2cJMO5LRa6oOTXdsW2lTieEBD5sJ0MyryDxilH3iV
NrSrsFjc6OgqdK5F01VI0mQ50H35j5bZ0Xeou1Qd0AES82hIg2VqIoZKPPIoptSm
bCcbRE5nYDZkEFTirfT7t5qlkxMtnkQie4T2YWpuIv/NBoTI5OIU/tMzGvaUo22d
r+d+2gIxHMZUYHJGt1tW5TH12Fcz1y4uAK4qyb7wUcSL61lDEpD7AgMBAAGjgYAw
fjAMBgNVHRMBAf8EAjAAMB0GA1UdDgQWBBRVGgq9b1TAWPOKxKMuTTmbu+RIrTAf
BgNVHSMEGDAWgBSbJguKmKm7HbkfHOMaQDPtjheIqzAdBgNVHSUEFjAUBggrBgEF
BQcDAQYIKwYBBQUHAwIwDwYDVR0RBAgwBocEfwAAATANBgkqhkiG9w0BAQsFAAOC
AQEAjoPyjzFwWs5kgrOeiegPWtG8VcENQHsbIZS6WuP8Fii4kiuqhStmikMuBfE4
siD1juV672IpcMUDyUg/HFmDfYtk5tsOTMIYoIWnPBjbrJJGlsDygz7nU85aE5BL
IoZCa6HEHea4UKpRwXQHFtj+4jqaeVJKp0C7FNRW/wHVDlzF7Bv6TjJKGhJt1j8L
HOeGc+Ikl5CtUE7Ir/a1dc6RkeW9ksPU2b7AgozePJjrElume9WUfWkswvpSYmWn
Z3ZPx3NvXUe5jTkdL4C/7lxIg0KpCVt9oQpPwrZMDbpKASWV+JhLk77cY7+q+Y93
EepW6hLUbVd+seg7aj9p7uzqZg==
-----END CERTIFICATE-----
