Certificate:
    Data:
        Version: 3 (0x2)
        Serial Number:
            12:f6:d9:f1:80:1b:50:9f:64:09:c8:ea:2f:16:33:b9
        Signature Algorithm: sha256WithRSAEncryption
        Issuer: C=US, ST=California, L=Mountain View, O=Test CA, CN=Test Root CA
        Validity
            Not Before: May  1 00:00:00 2016 GMT
            Not After : Jul  3 00:00:00 2017 GMT
        Subject: C=US, ST=California, L=Mountain View, O=Test CA, CN=127.0.0.1
        Subject Public Key Info:
            Public Key Algorithm: rsaEncryption
                RSA Public-Key: (2048 bit)
                Modulus:
                    00:c8:b6:81:2c:56:00:30:f6:6d:ca:48:30:8b:fe:
                    10:cc:96:d2:3b:8e:c0:cc:1e:f4:20:32:3e:f9:05:
                    42:37:bd:44:21:1e:b3:fa:e5:81:5f:f0:52:b5:79:
                    fb:5f:a9:9e:61:77:f4:2e:1b:d1:6e:f1:a6:ef:60:
                    a3:08:44:7e:a5:ff:5d:ad:8f:58:b0:49:ea:32:e4:
                    34:c5:4b:12:77:1a:d6:c7:4d:e1:06:4c:59:72:3e:
                    c9:6d:ca:92:f6:23:ec:13:d4:90:b6:ac:8f:c3:37:
                    94:19:03:24:d5:d0:4d:23:b9:cc:2c:d0:4c:16:21:
                    6b:5e:29:0f:12:65:6b:9d:54:56:5c:9c:30:7f:10:
                    c5:28:3b:87:00:91:cc:ab:f0:fc:f3:83:8a:b2:cb:
                    a0:9c:f1:32:4a:9b:f2:df:f9:13:bd:95:e7:62:ec:
                    ad:2f:7b:0b:3c:b5:07:a6:4e:45:1a:db:1f:14:38:
                    03:8f:87:86:6b:49:15:41:7a:52:93:fc:9b:a6:52:
                    fb:0f:8e:37:2a:ba:9a:a3:42:bc:85:40:dd:c3:46:
                    8d:10:72:f4:4f:cc:f4:43:52:78:a1:90:ab:fc:a7:
                    be:7d:9e:4f:89:1f:12:66:28:b6:ed:5f:c6:3c:43:
                    7c:a7:e9:c9:cc:1d:19:e6:53:92:1e:b2:73:64:3b:
                    2b:05
                Exponent: 65537 (0x10001)
        X509v3 extensions:
            X509v3 Basic Constraints: critical
                CA:FALSE
            X509v3 Subject Key Identifier: 
                F2:0D:52:DD:5E:BF:57:26:6C:32:61:E0:34:2C:0F:AA:F1:F3:72:E1
            X509v3 Authority Key Identifier: 
                keyid:9B:26:0B:8A:98:A9:BB:1D:B9:1F:1C:E3:1A:40:33:ED:8E:17:88:AB

            X509v3 Extended Key Usage: 
                TLS Web Server Authentication, TLS Web Client Authentication
            X509v3 Subject Alternative Name: 
                IP Address:127.0.0.1
    Signature Algorithm: sha256WithRSAEncryption
         b6:6f:51:cc:52:ce:19:dc:30:ad:9f:05:15:76:34:18:51:46:
         04:5f:fd:ca:94:ef:32:a0:6c:f1:0d:0d:d9:99:a1:f6:a6:c2:
         93:ce:b5:8e:bc:11:4f:12:86:4a:8d:6a:13:56:27:1b:c9:21:
         04:f3:2e:b0:2d:ea:93:20:3a:45:79:b4:aa:6f:b6:43:bd:d7:
         a8:ec:8f:8b:6c:96:37:04:5e:3b:db:af:f7:31:0e:82:61:b8:
         5d:54:a3:8c:89:cb:65:31:60:e2:9c:d7:ca:eb:b8:d0:2c:b1:
         09:61:a9:f6:e4:1b:ab:06:1e:7b:bd:36:9a:fc:02:d1:4f:a9:
         d5:2a:50:ab:76:5e:bd:c9:5b:9e:29:98:9c:87:dd:ca:37:f0:
         58:3b:a6:79:eb:00:52:9d:84:5f:2d:7a:02:51:c9:a6:96:51:
         3e:e8:1b:42:1d:46:66:d2:c2:50:bf:bf:a9:64:13:62:20:a7:
         c0:d0:65:4c:09:7c:e6:cd:1d:e7:0b:0c:3d:e7:e6:d4:ca:58:
         ba:14:00:fc:3f:c5:b2:2a:e7:6f:75:6f:24:48:48:0e:de:8e:
         ab:6e:46:ca:58:60:88:db:c4:28:f8:05:f7:68:66:e2:5a:11:
         2a:b2:32:17:2d:e5:fe:5e:8e:c4:64:52:7f:6d:75:b8:21:5d:
         38:0d:37:94
-----BEGIN CERTIFICATE-----
MIIDzjCCAragAwIBAgIQEvbZ8YAbUJ9kCcjqLxYzuTANBgkqhkiG9w0BAQsFADBj
MQswCQYDVQQGEwJVUzETMBEGA1UECAwKQ2FsaWZvcm5pYTEWMBQGA1UEBwwNTW91
bnRhaW4gVmlldzEQMA4GA1UECgwHVGVzdCBDQTEVMBMGA1UEAwwMVGVzdCBSb290
IENBMB4XDTE2MDUwMTAwMDAwMFoXDTE3MDcwMzAwMDAwMFowYDELMAkGA1UEBhMC
VVMxEzARBgNVBAgMCkNhbGlmb3JuaWExFjAUBgNVBAcMDU1vdW50YWluIFZpZXcx
EDAOBgNVBAoMB1Rlc3QgQ0ExEjAQBgNVBAMMCTEyNy4wLjAuMTCCASIwDQYJKoZI
hvcNAQEBBQADggEPADCCAQoCggEBAMi2gSxWADD2bcpIMIv+EMyW0juOwMwe9CAy
PvkFQje9RCEes/rlgV/wUrV5+1+pnmF39C4b0W7xpu9gowhEfqX/Xa2PWLBJ6jLk
NMVLEnca1sdN4QZMWXI+yW3KkvYj7BPUkLasj8M3lBkDJNXQTSO5zCzQTBYha14p
DxJla51UVlycMH8QxSg7hwCRzKvw/PODirLLoJzxMkqb8t/5E72V52LsrS97Czy1
B6ZORRrbHxQ4A4+HhmtJFUF6UpP8m6ZS+w+ONyq6mqNCvIVA3cNGjRBy9E/M9ENS
eKGQq/ynvn2eT4kfEmYotu1fxjxDfKfpycwdGeZTkh6yc2Q7KwUCAwEAAaOBgDB+
MAwGA1UdEwEB/wQCMAAwHQYDVR0OBBYEFPINUt1ev1cmbDJh4DQsD6rx83LhMB8G
A1UdIwQYMBaAFJsmC4qYqbsduR8c4xpAM+2OF4irMB0GA1UdJQQWMBQGCCsGAQUF
BwMBBggrBgEFBQcDAjAPBgNVHREECDAGhwR/AAABMA0GCSqGSIb3DQEBCwUAA4IB
AQC2b1HMUs4Z3DCtnwUVdjQYUUYEX/3KlO8yoGzxDQ3ZmaH2psKTzrWOvBFPEoZK
jWoTVicbySEE8y6wLeqTIDpFebSqb7ZDvdeo7I+LbJY3BF4726/3MQ6CYbhdVKOM
ictlMWDinNfK67jQLLEJYan25BurBh57vTaa/ALRT6nVKlCrdl69yVueKZich93K
N/BYO6Z56wBSnYRfLXoCUcmmllE+6BtCHUZm0sJQv7+pZBNiIKfA0GVMCXzmzR3n
Cww95+bUyli6FAD8P8WyKudvdW8kSEgO3o6rbkbKWGCI28Qo+AX3aGbiWhEqsjIX
LeX+Xo7EZFJ/bXW4IV04DTeU
-----END CERTIFICATE-----
