Certificate:
    Data:
        Version: 3 (0x2)
        Serial Number:
            12:f6:d9:f1:80:1b:50:9f:64:09:c8:ea:2f:16:33:b3
        Signature Algorithm: sha256WithRSAEncryption
        Issuer: C=US, ST=California, L=Mountain View, O=Test CA, CN=Test Root CA
        Validity
            Not Before: Jan  1 00:00:00 2008 GMT
            Not After : Jan  1 00:00:00 2015 GMT
        Subject: C=US, ST=California, L=Mountain View, O=Test CA, CN=127.0.0.1
        Subject Public Key Info:
            Public Key Algorithm: rsaEncryption
                RSA Public-Key: (2048 bit)
                Modulus:
                    00:cc:ab:f1:8f:43:09:9d:ec:b0:94:f4:db:40:f9:
                    6f:9e:6c:57:c4:08:26:d7:8f:18:03:a2:f4:0e:f8:
                    99:97:73:cd:91:c9:41:c2:9b:29:41:06:9d:e4:13:
                    11:6b:86:4d:64:e5:d9:4f:2a:bf:a2:60:b1:14:52:
                    63:e4:e9:d0:79:73:13:6a:f8:db:c8:ff:ea:b4:e2:
                    85:91:04:f4:8b:e4:74:0e:7f:84:77:93:23:84:de:
                    50:c4:c0:cd:d6:1e:be:0f:c5:e9:91:36:7c:8c:b0:
                    02:9e:49:fa:54:a8:17:f2:20:ab:98:67:8b:aa:64:
                    29:f9:09:0c:1d:c2:b1:d0:ba:b5:dc:da:34:35:30:
                    c5:fa:52:f2:52:8e:b2:b3:4d:7d:39:7e:48:22:21:
                    37:2a:d3:74:d7:ba:45:97:9e:73:31:70:4c:2d:de:
                    c8:51:09:79:4a:73:6f:cd:9c:a9:3f:07:8a:47:be:
                    f0:22:bf:1e:88:2e:53:d7:8b:59:19:62:14:1a:d3:
                    10:3d:f0:33:ba:a5:6d:bb:93:31:22:da:d3:d5:0b:
                    71:bb:da:94:1a:ce:b7:06:05:1e:d8:03:dc:52:e6:
                    29:8f:eb:b2:89:f0:b9:68:25:9f:87:21:ad:06:de:
                    2a:7d:84:96:2f:0b:a2:e0:8a:04:de:8b:1b:6e:66:
                    25:bf
                Exponent: 65537 (0x10001)
        X509v3 extensions:
            X509v3 Basic Constraints: critical
                CA:FALSE
            X509v3 Subject Key Identifier: 
                AB:51:E7:47:56:55:A5:33:A6:75:A4:B4:26:71:1C:7F:61:39:DC:4F
            X509v3 Authority Key Identifier: 
                keyid:9B:26:0B:8A:98:A9:BB:1D:B9:1F:1C:E3:1A:40:33:ED:8E:17:88:AB

            X509v3 Extended Key Usage: 
                TLS Web Server Authentication, TLS Web Client Authentication
            X509v3 Subject Alternative Name: 
                IP Address:127.0.0.1
    Signature Algorithm: sha256WithRSAEncryption
         73:d0:ad:c3:79:bd:b4:81:1d:82:95:cc:9c:a6:ac:02:c3:77:
         95:b6:fd:4d:b4:14:b2:36:c8:ca:b4:dd:77:87:bd:7f:8b:1a:
         fa:66:91:ef:ca:c3:73:d3:75:3f:93:56:7d:32:c5:63:d7:0f:
         8f:22:11:99:a5:9f:d1:23:c4:af:d8:82:21:5a:21:a5:a2:3f:
         de:fd:06:87:8a:76:0a:0c:c3:8a:a1:73:fd:87:3e:4d:a7:6d:
         3d:82:a5:99:96:76:5e:33:da:1f:37:7d:29:8e:e2:f8:90:63:
         c0:e2:7f:92:9b:6c:52:86:2f:34:39:a3:c6:f5:30:07:76:0e:
         49:f7:02:ab:fa:ab:d7:20:58:52:e5:27:9e:0a:fd:c0:1c:af:
         54:ec:e6:4e:eb:2a:b5:1e:4c:33:70:0a:80:1f:9e:a3:b8:bf:
         1d:4a:0b:e0:b4:ce:1d:50:00:1d:b5:e4:be:81:31:68:9f:40:
         5f:38:06:4f:39:bb:cf:62:4a:61:fb:fe:ea:c5:96:cb:f2:02:
         c2:04:87:69:4d:67:03:12:04:96:94:d3:5f:f1:19:fc:ab:4c:
         15:3d:32:f5:a8:3c:5b:9c:c8:60:38:db:f5:af:10:aa:ab:fb:
         47:13:0d:0c:ed:14:eb:09:a3:45:70:72:0e:c0:2c:f5:d6:55:
         54:f6:78:f2
-----BEGIN CERTIFICATE-----
MIIDzjCCAragAwIBAgIQEvbZ8YAbUJ9kCcjqLxYzszANBgkqhkiG9w0BAQsFADBj
MQswCQYDVQQGEwJVUzETMBEGA1UECAwKQ2FsaWZvcm5pYTEWMBQGA1UEBwwNTW91
bnRhaW4gVmlldzEQMA4GA1UECgwHVGVzdCBDQTEVMBMGA1UEAwwMVGVzdCBSb290
IENBMB4XDTA4MDEwMTAwMDAwMFoXDTE1MDEwMTAwMDAwMFowYDELMAkGA1UEBhMC
VVMxEzARBgNVBAgMCkNhbGlmb3JuaWExFjAUBgNVBAcMDU1vdW50YWluIFZpZXcx
EDAOBgNVBAoMB1Rlc3QgQ0ExEjAQBgNVBAMMCTEyNy4wLjAuMTCCASIwDQYJKoZI
hvcNAQEBBQADggEPADCCAQoCggEBAMyr8Y9DCZ3ssJT020D5b55sV8QIJtePGAOi
9A74mZdzzZHJQcKbKUEGneQTEWuGTWTl2U8qv6JgsRRSY+Tp0HlzE2r428j/6rTi
hZEE9IvkdA5/hHeTI4TeUMTAzdYevg/F6ZE2fIywAp5J+lSoF/Igq5hni6pkKfkJ
DB3CsdC6tdzaNDUwxfpS8lKOsrNNfTl+SCIhNyrTdNe6RZeeczFwTC3eyFEJeUpz
b82cqT8Hike+8CK/HoguU9eLWRliFBrTED3wM7qlbbuTMSLa09ULcbvalBrOtwYF
HtgD3FLmKY/rsonwuWgln4chrQbeKn2Eli8LouCKBN6LG25mJb8CAwEAAaOBgDB+
MAwGA1UdEwEB/wQCMAAwHQYDVR0OBBYEFKtR50dWVaUzpnWktCZxHH9hOdxPMB8G
A1UdIwQYMBaAFJsmC4qYqbsduR8c4xpAM+2OF4irMB0GA1UdJQQWMBQGCCsGAQUF
BwMBBggrBgEFBQcDAjAPBgNVHREECDAGhwR/AAABMA0GCSqGSIb3DQEBCwUAA4IB
AQBz0K3Deb20gR2ClcycpqwCw3eVtv1NtBSyNsjKtN13h71/ixr6ZpHvysNz03U/
k1Z9MsVj1w+PIhGZpZ/RI8Sv2IIhWiGloj/e/QaHinYKDMOKoXP9hz5Np209gqWZ
lnZeM9ofN30pjuL4kGPA4n+Sm2xShi80OaPG9TAHdg5J9wKr+qvXIFhS5SeeCv3A
HK9U7OZO6yq1HkwzcAqAH56juL8dSgvgtM4dUAAdteS+gTFon0BfOAZPObvPYkph
+/7qxZbL8gLCBIdpTWcDEgSWlNNf8Rn8q0wVPTL1qDxbnMhgONv1rxCqq/tHEw0M
7RTrCaNFcHIOwCz11lVU9njy
-----END CERTIFICATE-----
