Certificate:
    Data:
        Version: 3 (0x2)
        Serial Number:
            cf:95:70:1c:b6:6c:07:bb:a4:de:63:24:47:3b:4e:d1
        Signature Algorithm: sha256WithRSAEncryption
        Issuer: C=US, ST=California, L=Mountain View, O=Test CA, CN=Test Root CA
        Validity
            Not Before: Jan  1 00:00:00 2008 GMT
            Not After : May  1 00:00:00 2018 GMT
        Subject: C=US, ST=California, L=Mountain View, O=Test CA, CN=127.0.0.1
        Subject Public Key Info:
            Public Key Algorithm: rsaEncryption
                Public-Key: (2048 bit)
                Modulus:
                    00:95:bd:77:87:d8:e6:b0:a2:b8:0b:20:d9:f0:59:
                    49:45:fc:82:b6:1d:24:3b:e1:4e:a3:db:4d:a0:08:
                    0a:72:3d:a0:e7:8d:48:a0:f8:f3:0b:39:b1:1e:aa:
                    43:d4:e7:05:eb:80:86:59:f0:be:a3:dc:00:df:0d:
                    09:3e:d6:1a:c3:29:20:76:c8:53:04:fb:25:52:1e:
                    e8:ac:d4:d7:47:91:9c:12:94:87:56:6a:b7:c1:55:
                    e6:a4:72:2b:40:20:0d:c8:fb:66:82:9a:f7:dc:24:
                    fd:fa:59:71:2f:71:44:44:61:95:c2:48:b0:b4:84:
                    18:d3:af:7f:ff:c9:07:42:9e:3d:a2:e3:90:84:01:
                    cb:60:ec:16:f6:ca:c5:4c:a3:03:39:74:bd:aa:d4:
                    30:a6:6e:51:87:db:ec:5f:03:fa:76:56:f0:8a:bb:
                    a2:ee:29:d2:7d:a0:fa:aa:1e:53:19:fd:07:35:13:
                    38:a2:86:2a:84:e1:88:5e:e8:6c:61:59:a6:0a:e8:
                    e3:97:21:ed:70:57:b6:c1:14:d8:e4:c7:12:91:67:
                    9c:4b:e5:ec:5e:09:89:1d:bb:a5:b7:32:5a:50:0d:
                    7a:57:01:02:f2:bc:2f:d5:58:8c:1a:79:26:38:2b:
                    69:04:58:7f:a9:ce:2b:e3:1f:b0:92:9c:a5:7a:71:
                    c1:77
                Exponent: 65537 (0x10001)
        X509v3 extensions:
            X509v3 Basic Constraints: critical
                CA:FALSE
            X509v3 Subject Key Identifier: 
                02:46:4E:FC:5A:08:09:A7:4B:DF:84:4C:1F:E5:7B:4E:D8:4C:5E:3F
            X509v3 Authority Key Identifier: 
                9B:26:0B:8A:98:A9:BB:1D:B9:1F:1C:E3:1A:40:33:ED:8E:17:88:AB
            X509v3 Extended Key Usage: 
                TLS Web Server Authentication, TLS Web Client Authentication
            X509v3 Subject Alternative Name: 
                IP Address:127.0.0.1
    Signature Algorithm: sha256WithRSAEncryption
    Signature Value:
        20:ce:ab:c7:a4:6a:06:3d:ae:ec:87:aa:ed:83:23:04:a9:1d:
        61:3a:ee:6b:fa:e4:ee:17:8c:bf:1e:ef:88:57:21:c9:4c:9d:
        5d:66:78:4f:18:3f:6b:7a:66:93:86:8d:d5:fd:cc:27:12:1d:
        c5:5c:cf:cf:76:e0:3b:7e:7a:a2:cd:73:2a:5b:0b:e3:bf:04:
        ca:3a:0d:72:7d:e4:26:e0:48:28:a4:b6:06:86:2a:63:f6:af:
        49:98:b4:8c:49:fc:3f:6f:29:55:eb:b3:a6:5d:34:91:fd:9e:
        58:51:f3:81:69:d9:1c:01:ba:c1:af:a3:a0:1e:b1:77:6a:c5:
        d5:00:d3:2a:c2:d4:be:c0:a7:df:78:ee:ec:ca:e4:a8:fd:57:
        74:65:0d:84:16:d5:85:40:00:19:13:44:a8:da:72:f2:8c:c8:
        92:2f:55:a9:94:78:27:88:f1:90:d8:d0:80:b9:87:3d:5f:0f:
        7a:53:22:ed:15:29:3f:9d:2f:98:e3:c7:da:c8:eb:68:7a:6f:
        0c:67:f6:4f:d0:06:67:86:20:fb:25:75:a9:83:e6:41:60:b7:
        39:e3:ab:bd:8f:9e:a7:9d:95:af:f6:92:a0:95:37:31:a7:95:
        a1:04:3b:dc:fd:77:37:f3:06:e6:a7:f4:09:49:f5:24:cf:02:
        91:5e:77:e3
-----BEGIN CERTIFICATE-----
MIIDzzCCAregAwIBAgIRAM+VcBy2bAe7pN5jJEc7TtEwDQYJKoZIhvcNAQELBQAw
YzELMAkGA1UEBhMCVVMxEzARBgNVBAgMCkNhbGlmb3JuaWExFjAUBgNVBAcMDU1v
dW50YWluIFZpZXcxEDAOBgNVBAoMB1Rlc3QgQ0ExFTATBgNVBAMMDFRlc3QgUm9v
dCBDQTAeFw0wODAxMDEwMDAwMDBaFw0xODA1MDEwMDAwMDBaMGAxCzAJBgNVBAYT
AlVTMRMwEQYDVQQIDApDYWxpZm9ybmlhMRYwFAYDVQQHDA1Nb3VudGFpbiBWaWV3
MRAwDgYDVQQKDAdUZXN0IENBMRIwEAYDVQQDDAkxMjcuMC4wLjEwggEiMA0GCSqG
SIb3DQEBAQUAA4IBDwAwggEKAoIBAQCVvXeH2OaworgLINnwWUlF/IK2HSQ74U6j
202gCApyPaDnjUig+PMLObEeqkPU5wXrgIZZ8L6j3ADfDQk+1hrDKSB2yFME+yVS
Huis1NdHkZwSlIdWarfBVeakcitAIA3I+2aCmvfcJP36WXEvcUREYZXCSLC0hBjT
r3//yQdCnj2i45CEActg7Bb2ysVMowM5dL2q1DCmblGH2+xfA/p2VvCKu6LuKdJ9
oPqqHlMZ/Qc1EziihiqE4Yhe6GxhWaYK6OOXIe1wV7bBFNjkxxKRZ5xL5exeCYkd
u6W3MlpQDXpXAQLyvC/VWIwaeSY4K2kEWH+pzivjH7CSnKV6ccF3AgMBAAGjgYAw
fjAMBgNVHRMBAf8EAjAAMB0GA1UdDgQWBBQCRk78WggJp0vfhEwf5XtO2ExePzAf
BgNVHSMEGDAWgBSbJguKmKm7HbkfHOMaQDPtjheIqzAdBgNVHSUEFjAUBggrBgEF
BQcDAQYIKwYBBQUHAwIwDwYDVR0RBAgwBocEfwAAATANBgkqhkiG9w0BAQsFAAOC
AQEAIM6rx6RqBj2u7Ieq7YMjBKkdYTrua/rk7heMvx7viFchyUydXWZ4Txg/a3pm
k4aN1f3MJxIdxVzPz3bgO356os1zKlsL478EyjoNcn3kJuBIKKS2BoYqY/avSZi0
jEn8P28pVeuzpl00kf2eWFHzgWnZHAG6wa+joB6xd2rF1QDTKsLUvsCn33ju7Mrk
qP1XdGUNhBbVhUAAGRNEqNpy8ozIki9VqZR4J4jxkNjQgLmHPV8PelMi7RUpP50v
mOPH2sjraHpvDGf2T9AGZ4Yg+yV1qYPmQWC3OeOrvY+ep52Vr/aSoJU3MaeVoQQ7
3P13N/MG5qf0CUn1JM8CkV534w==
-----END CERTIFICATE-----
