Certificate:
    Data:
        Version: 3 (0x2)
        Serial Number:
            3e:2c:9d:be:b0:42:c8:cf:fc:99:42:d5:4d:41:6a:ba
        Signature Algorithm: sha256WithRSAEncryption
        Issuer: C=US, ST=California, L=Mountain View, O=Test CA, CN=Test Root CA
        Validity
            Not Before: May  1 00:00:00 2016 GMT
            Not After : Jul  3 00:00:00 2017 GMT
        Subject: C=US, ST=California, L=Mountain View, O=Test CA, CN=127.0.0.1
        Subject Public Key Info:
            Public Key Algorithm: rsaEncryption
                RSA Public-Key: (2048 bit)
                Modulus:
                    00:b3:61:e1:cd:72:d2:67:ac:82:e3:0a:2f:0e:71:
                    84:8b:48:a0:3c:eb:3f:1f:5d:de:95:63:c0:8b:53:
                    6a:b3:29:53:30:a8:d9:48:97:88:5f:6c:de:d3:1c:
                    69:e5:99:54:e0:32:85:7e:be:37:07:9d:ee:e2:fb:
                    01:3c:44:f4:2c:b1:e2:d7:73:61:e3:1f:69:25:00:
                    0b:90:75:74:7d:b5:8c:be:02:ee:ee:f5:e9:4f:f5:
                    d3:1f:cf:17:aa:a9:d0:ef:85:f2:45:c4:6e:f5:d4:
                    71:3f:f2:fc:40:e6:a8:b0:43:a3:d6:7f:d6:4a:a9:
                    c0:66:e1:1c:1c:ad:11:bf:bc:c8:c0:d7:a5:ee:e1:
                    02:4c:0f:cc:da:3c:91:12:a5:13:c6:22:80:7e:73:
                    9b:21:2e:71:81:cd:07:20:f8:60:31:9d:3f:5a:be:
                    02:17:6b:7b:5d:b4:c1:af:3d:f3:5c:d8:e0:8d:a6:
                    db:6e:16:5e:87:06:ce:c3:c2:1e:1e:2d:3c:21:d6:
                    65:f3:f4:94:6a:bc:b1:6b:3a:ea:72:13:40:03:b2:
                    5c:dd:31:4a:78:41:c0:29:ee:3a:b6:32:64:42:07:
                    06:ad:79:09:93:36:5c:d6:ec:2b:87:d2:09:f9:15:
                    05:e1:45:48:2a:92:9f:8f:1f:b0:c2:d9:9d:28:11:
                    ec:05
                Exponent: 65537 (0x10001)
        X509v3 extensions:
            X509v3 Basic Constraints: critical
                CA:FALSE
            X509v3 Subject Key Identifier: 
                4E:EF:47:10:DD:E7:5D:A3:A5:CB:F7:26:3E:7F:2C:BD:63:3E:00:ED
            X509v3 Authority Key Identifier: 
                keyid:9B:26:0B:8A:98:A9:BB:1D:B9:1F:1C:E3:1A:40:33:ED:8E:17:88:AB

            X509v3 Extended Key Usage: 
                TLS Web Server Authentication, TLS Web Client Authentication
            X509v3 Subject Alternative Name: 
                IP Address:127.0.0.1
    Signature Algorithm: sha256WithRSAEncryption
         bb:89:18:9e:99:ff:ac:70:9f:2f:f0:d4:67:34:a3:09:0e:00:
         0b:88:0a:1b:b8:24:0f:17:0e:5f:11:f9:9c:5d:d3:b1:20:c4:
         73:1b:cd:58:89:d6:4f:cd:1b:66:5f:c6:03:14:38:c3:ca:98:
         d9:0b:83:7f:e4:99:63:80:31:08:95:66:9e:63:a0:7a:27:47:
         fa:dd:b1:05:bc:e7:fc:8b:1a:2f:42:1d:62:46:e7:c9:c7:eb:
         5f:cb:5f:85:2d:10:6e:f1:45:a3:54:66:5a:bc:5b:26:10:f9:
         c9:4e:55:0d:16:d1:7c:60:bd:70:76:f9:75:c8:5d:6e:26:df:
         3f:46:06:eb:5e:f6:c7:60:e8:60:4f:57:36:50:6a:f6:57:e7:
         7e:3d:6d:1b:90:59:dd:d4:11:f4:d0:fe:ed:18:7a:95:80:8b:
         9f:0a:3b:4d:9d:64:73:1d:6b:b0:1c:f4:df:af:68:39:1d:14:
         11:54:fd:79:6f:6c:56:fa:d6:72:93:0d:e9:7a:b6:7a:f8:11:
         1a:24:ad:6b:c4:fe:4f:42:c0:de:11:57:5e:be:6f:44:fd:d9:
         e1:ba:f9:72:e0:27:ae:ca:15:74:40:71:1d:6e:68:f9:3a:b0:
         f8:da:71:30:9c:ea:28:9c:48:08:81:55:59:27:20:98:c1:3e:
         4a:a1:1b:ba
-----BEGIN CERTIFICATE-----
MIIDzjCCAragAwIBAgIQPiydvrBCyM/8mULVTUFqujANBgkqhkiG9w0BAQsFADBj
MQswCQYDVQQGEwJVUzETMBEGA1UECAwKQ2FsaWZvcm5pYTEWMBQGA1UEBwwNTW91
bnRhaW4gVmlldzEQMA4GA1UECgwHVGVzdCBDQTEVMBMGA1UEAwwMVGVzdCBSb290
IENBMB4XDTE2MDUwMTAwMDAwMFoXDTE3MDcwMzAwMDAwMFowYDELMAkGA1UEBhMC
VVMxEzARBgNVBAgMCkNhbGlmb3JuaWExFjAUBgNVBAcMDU1vdW50YWluIFZpZXcx
EDAOBgNVBAoMB1Rlc3QgQ0ExEjAQBgNVBAMMCTEyNy4wLjAuMTCCASIwDQYJKoZI
hvcNAQEBBQADggEPADCCAQoCggEBALNh4c1y0mesguMKLw5xhItIoDzrPx9d3pVj
wItTarMpUzCo2UiXiF9s3tMcaeWZVOAyhX6+Nwed7uL7ATxE9Cyx4tdzYeMfaSUA
C5B1dH21jL4C7u716U/10x/PF6qp0O+F8kXEbvXUcT/y/EDmqLBDo9Z/1kqpwGbh
HBytEb+8yMDXpe7hAkwPzNo8kRKlE8YigH5zmyEucYHNByD4YDGdP1q+Ahdre120
wa8981zY4I2m224WXocGzsPCHh4tPCHWZfP0lGq8sWs66nITQAOyXN0xSnhBwCnu
OrYyZEIHBq15CZM2XNbsK4fSCfkVBeFFSCqSn48fsMLZnSgR7AUCAwEAAaOBgDB+
MAwGA1UdEwEB/wQCMAAwHQYDVR0OBBYEFE7vRxDd512jpcv3Jj5/LL1jPgDtMB8G
A1UdIwQYMBaAFJsmC4qYqbsduR8c4xpAM+2OF4irMB0GA1UdJQQWMBQGCCsGAQUF
BwMBBggrBgEFBQcDAjAPBgNVHREECDAGhwR/AAABMA0GCSqGSIb3DQEBCwUAA4IB
AQC7iRiemf+scJ8v8NRnNKMJDgALiAobuCQPFw5fEfmcXdOxIMRzG81YidZPzRtm
X8YDFDjDypjZC4N/5JljgDEIlWaeY6B6J0f63bEFvOf8ixovQh1iRufJx+tfy1+F
LRBu8UWjVGZavFsmEPnJTlUNFtF8YL1wdvl1yF1uJt8/RgbrXvbHYOhgT1c2UGr2
V+d+PW0bkFnd1BH00P7tGHqVgIufCjtNnWRzHWuwHPTfr2g5HRQRVP15b2xW+tZy
kw3perZ6+BEaJK1rxP5PQsDeEVdevm9E/dnhuvly4CeuyhV0QHEdbmj5OrD42nEw
nOoonEgIgVVZJyCYwT5KoRu6
-----END CERTIFICATE-----
