Certificate:
    Data:
        Version: 3 (0x2)
        Serial Number:
            15:e2:59:a5:5d:7f:42:13:c4:8c:e6:02:8d:d6:c7:7e:60:2c:ee:9f
        Signature Algorithm: sha256WithRSAEncryption
        Issuer: CN = xn--wgv71a119e.com
        Validity
            Not Before: Dec  1 15:42:08 2021 GMT
            Not After : Nov 29 15:42:08 2031 GMT
        Subject: CN = xn--wgv71a119e.com
        Subject Public Key Info:
            Public Key Algorithm: rsaEncryption
                RSA Public-Key: (2048 bit)
                Modulus:
                    00:9a:ed:28:cc:19:6f:15:9e:ee:f3:c4:ed:65:62:
                    c1:7f:12:e2:28:37:f3:2c:ac:f0:5c:42:2a:78:bf:
                    06:27:d6:0b:eb:bf:ca:c8:3e:88:9b:81:b8:fd:0f:
                    9a:b8:1d:9c:ce:91:4e:ec:f0:97:61:a0:73:0c:ed:
                    9f:52:f7:cf:79:67:b6:00:e6:8e:35:77:45:74:a8:
                    8b:3e:ec:72:59:58:60:f1:51:be:ac:e2:3b:2a:1d:
                    7b:dd:9c:24:dd:14:03:8e:f7:3b:48:85:73:ca:17:
                    e7:ae:1a:bc:2a:45:71:2c:3d:09:a4:19:47:6f:d4:
                    f9:2a:ee:c3:16:4d:25:d0:7c:36:57:be:69:d0:ac:
                    67:f8:f2:59:4f:42:ea:cd:9d:86:e6:e2:76:8d:04:
                    cc:25:1f:5e:7c:0f:db:e6:7b:b9:c3:98:d3:e4:54:
                    04:c3:a4:84:0c:2f:30:3e:2e:06:8b:ff:fa:2c:a6:
                    3e:75:e3:d2:cf:49:cd:5b:1f:8c:fa:b8:5b:cd:c4:
                    e8:79:ca:ad:07:95:01:6d:d7:b1:02:37:31:29:3c:
                    b0:9d:ad:85:ed:c0:81:9b:de:37:38:01:3e:0a:eb:
                    7b:ca:01:09:cd:95:49:35:6a:dc:56:bd:55:f1:98:
                    76:9e:48:d0:1f:f1:34:50:f2:9c:f3:0d:ee:94:cc:
                    72:b1
                Exponent: 65537 (0x10001)
        X509v3 extensions:
            X509v3 Basic Constraints: critical
                CA:TRUE
            X509v3 Subject Alternative Name: 
                DNS:xn--wgv71a119e.com, DNS:*.xn--wgv71a119e.com, DNS:blahblahblahblah.com
    Signature Algorithm: sha256WithRSAEncryption
         8f:c8:9f:b8:a0:4c:9d:76:e8:6e:08:42:87:0e:51:42:1e:8d:
         47:a8:ec:c5:91:35:ed:b9:10:57:a9:a4:23:e1:d3:55:3f:79:
         6b:06:e5:0f:0b:66:ef:a1:99:0d:33:63:6f:5f:25:c7:31:7f:
         76:39:11:cb:3d:3a:81:2b:c0:4e:1d:c6:dc:b4:93:e5:76:74:
         8d:78:da:49:5a:58:53:eb:a9:0c:f4:6e:46:7e:88:ea:17:1b:
         08:15:3e:85:6d:9a:98:92:a6:9a:71:2d:86:6b:4a:47:21:7a:
         e9:ff:ed:4a:d7:c8:24:85:0b:ff:ba:15:43:4a:63:71:6a:6a:
         2c:29:76:01:91:00:d1:79:f0:ea:db:8b:fa:06:15:08:5d:8d:
         21:4a:d5:6d:54:c1:60:4b:66:14:9a:fa:8f:dd:81:e7:99:56:
         17:b3:7e:2f:7a:10:6f:c6:fa:e4:07:a9:fd:0c:79:d8:5a:c2:
         a0:8d:bd:40:71:00:4b:40:d8:b7:43:7c:b5:f0:7b:f3:9f:17:
         35:d8:37:63:65:6b:89:4e:ec:b4:43:0c:95:4d:d4:fc:b4:05:
         f0:ac:17:d4:fd:12:aa:0e:47:29:ef:25:9d:70:49:75:cd:af:
         65:df:e3:59:80:00:8e:db:5d:f5:ce:8f:2e:4f:a9:7c:66:7b:
         7e:94:25:98
-----BEGIN CERTIFICATE-----
MIIDJjCCAg6gAwIBAgIUFeJZpV1/QhPEjOYCjdbHfmAs7p8wDQYJKoZIhvcNAQEL
BQAwHTEbMBkGA1UEAwwSeG4tLXdndjcxYTExOWUuY29tMB4XDTIxMTIwMTE1NDIw
OFoXDTMxMTEyOTE1NDIwOFowHTEbMBkGA1UEAwwSeG4tLXdndjcxYTExOWUuY29t
MIIBIjANBgkqhkiG9w0BAQEFAAOCAQ8AMIIBCgKCAQEAmu0ozBlvFZ7u88TtZWLB
fxLiKDfzLKzwXEIqeL8GJ9YL67/KyD6Im4G4/Q+auB2czpFO7PCXYaBzDO2fUvfP
eWe2AOaONXdFdKiLPuxyWVhg8VG+rOI7Kh173Zwk3RQDjvc7SIVzyhfnrhq8KkVx
LD0JpBlHb9T5Ku7DFk0l0Hw2V75p0Kxn+PJZT0LqzZ2G5uJ2jQTMJR9efA/b5nu5
w5jT5FQEw6SEDC8wPi4Gi//6LKY+dePSz0nNWx+M+rhbzcToecqtB5UBbdexAjcx
KTywna2F7cCBm943OAE+Cut7ygEJzZVJNWrcVr1V8Zh2nkjQH/E0UPKc8w3ulMxy
sQIDAQABo14wXDAPBgNVHRMBAf8EBTADAQH/MEkGA1UdEQRCMECCEnhuLS13Z3Y3
MWExMTllLmNvbYIUKi54bi0td2d2NzFhMTE5ZS5jb22CFGJsYWhibGFoYmxhaGJs
YWguY29tMA0GCSqGSIb3DQEBCwUAA4IBAQCPyJ+4oEydduhuCEKHDlFCHo1HqOzF
kTXtuRBXqaQj4dNVP3lrBuUPC2bvoZkNM2NvXyXHMX92ORHLPTqBK8BOHcbctJPl
dnSNeNpJWlhT66kM9G5GfojqFxsIFT6FbZqYkqaacS2Ga0pHIXrp/+1K18gkhQv/
uhVDSmNxamosKXYBkQDRefDq24v6BhUIXY0hStVtVMFgS2YUmvqP3YHnmVYXs34v
ehBvxvrkB6n9DHnYWsKgjb1AcQBLQNi3Q3y18Hvznxc12DdjZWuJTuy0QwyVTdT8
tAXwrBfU/RKqDkcp7yWdcEl1za9l3+NZgACO2131zo8uT6l8Znt+lCWY
-----END CERTIFICATE-----
