Certificate:
    Data:
        Version: 3 (0x2)
        Serial Number:
            59:e4:72:49:2d:89:07:54:23:bf:47:b9:36:b0:d3:05:90:06:ed:40
        Signature Algorithm: sha256WithRSAEncryption
        Issuer: CN=xn--wgv71a119e.com
        Validity
            Not Before: Oct 10 17:12:19 2025 GMT
            Not After : Oct  8 17:12:19 2035 GMT
        Subject: CN=xn--wgv71a119e.com
        Subject Public Key Info:
            Public Key Algorithm: rsaEncryption
                Public-Key: (2048 bit)
                Modulus:
                    00:f7:52:ed:1e:d3:b2:8d:04:32:96:0b:1c:6c:ed:
                    b4:e6:5f:03:a5:a8:b5:c9:a6:1e:28:31:74:97:a7:
                    38:fa:9a:96:b0:bf:6c:0a:2a:e4:5f:b1:b9:a8:42:
                    50:dc:02:b9:57:09:88:91:46:0a:84:67:61:36:40:
                    0e:b2:fb:b1:e4:7f:a3:d4:00:d7:31:3d:30:4e:79:
                    9d:c5:03:c9:1f:63:be:88:46:5e:09:98:aa:5a:bf:
                    c6:59:d9:cc:c0:1c:78:ca:15:94:2b:6d:1f:52:28:
                    e1:42:9c:88:0f:20:7b:d6:dd:0f:03:c6:b5:49:40:
                    bc:ef:ba:33:06:d3:47:ed:c8:fb:a8:26:d8:25:26:
                    82:70:97:24:d3:0b:33:27:87:15:62:74:48:29:40:
                    1f:4d:4f:f1:f0:9d:37:c4:1d:a1:da:d4:20:66:98:
                    e9:df:99:3e:02:f6:da:b9:23:40:d8:3e:8f:71:6d:
                    2f:8b:57:27:ce:3e:7e:ea:9f:52:58:53:d3:9f:5d:
                    2e:16:8c:8f:79:85:ba:91:8d:f9:8c:89:a1:92:12:
                    d4:47:29:0c:6e:cb:0f:52:4a:1e:a8:d4:77:23:bc:
                    02:57:a0:74:d5:12:c7:35:5e:e1:69:f2:06:2c:32:
                    c6:bd:ba:73:76:b9:91:09:4b:d9:6a:e1:77:d8:1e:
                    2c:5b
                Exponent: 65537 (0x10001)
        X509v3 extensions:
            X509v3 Basic Constraints: critical
                CA:TRUE
            X509v3 Subject Alternative Name: 
                DNS:xn--wgv71a119e.com, DNS:*.xn--wgv71a119e.com, DNS:blahblahblahblah.com
            X509v3 Subject Key Identifier: 
                D4:DD:0C:25:F7:DD:93:77:CE:3B:B8:22:B7:8F:A0:87:5E:39:F8:71
    Signature Algorithm: sha256WithRSAEncryption
    Signature Value:
        02:69:cf:2a:a7:c7:df:c6:f2:e7:e2:06:99:21:78:c9:fe:4f:
        fb:30:4c:8e:28:14:ce:53:ce:79:d1:f1:80:7e:dc:d6:34:3f:
        cc:63:89:58:1f:c0:cb:89:48:8e:26:ac:cf:cb:29:54:52:d9:
        1b:85:54:a4:fb:5e:d7:71:f2:7a:2d:33:da:52:e2:41:3f:83:
        46:16:f8:98:62:79:f8:c8:9f:a9:53:fa:4b:d2:95:a8:8e:e2:
        11:9b:0a:3f:72:87:10:10:38:e4:e8:18:b4:b6:3e:e5:06:b7:
        3a:cb:44:1a:6f:28:b6:dd:a8:c3:a3:73:3b:29:f7:dd:4e:34:
        8d:00:a8:d9:55:29:2f:65:39:fa:7f:3d:60:58:ed:da:ed:43:
        1d:7f:4c:ea:29:bb:9b:9e:10:56:78:44:6f:9e:d3:f3:e1:aa:
        6f:28:a2:12:34:76:ee:70:ad:7a:6d:85:c1:80:88:c4:02:67:
        1d:8c:77:89:76:1b:c7:89:c8:d5:b8:a3:0a:2f:c7:6f:ad:55:
        50:a5:ea:c6:a2:8e:39:02:1e:63:8b:0b:01:73:a5:5e:f5:4e:
        e1:a5:bc:8f:dd:59:60:b3:b5:a4:43:38:80:88:e8:19:d6:43:
        a7:fa:6b:b8:6d:19:6d:60:9f:d1:1e:5e:41:0a:79:a6:c8:b1:
        48:cc:b7:5d
-----BEGIN CERTIFICATE-----
MIIDRTCCAi2gAwIBAgIUWeRySS2JB1Qjv0e5NrDTBZAG7UAwDQYJKoZIhvcNAQEL
BQAwHTEbMBkGA1UEAwwSeG4tLXdndjcxYTExOWUuY29tMB4XDTI1MTAxMDE3MTIx
OVoXDTM1MTAwODE3MTIxOVowHTEbMBkGA1UEAwwSeG4tLXdndjcxYTExOWUuY29t
MIIBIjANBgkqhkiG9w0BAQEFAAOCAQ8AMIIBCgKCAQEA91LtHtOyjQQylgscbO20
5l8Dpai1yaYeKDF0l6c4+pqWsL9sCirkX7G5qEJQ3AK5VwmIkUYKhGdhNkAOsvux
5H+j1ADXMT0wTnmdxQPJH2O+iEZeCZiqWr/GWdnMwBx4yhWUK20fUijhQpyIDyB7
1t0PA8a1SUC877ozBtNH7cj7qCbYJSaCcJck0wszJ4cVYnRIKUAfTU/x8J03xB2h
2tQgZpjp35k+AvbauSNA2D6PcW0vi1cnzj5+6p9SWFPTn10uFoyPeYW6kY35jImh
khLURykMbssPUkoeqNR3I7wCV6B01RLHNV7hafIGLDLGvbpzdrmRCUvZauF32B4s
WwIDAQABo30wezAPBgNVHRMBAf8EBTADAQH/MEkGA1UdEQRCMECCEnhuLS13Z3Y3
MWExMTllLmNvbYIUKi54bi0td2d2NzFhMTE5ZS5jb22CFGJsYWhibGFoYmxhaGJs
YWguY29tMB0GA1UdDgQWBBTU3Qwl992Td847uCK3j6CHXjn4cTANBgkqhkiG9w0B
AQsFAAOCAQEAAmnPKqfH38by5+IGmSF4yf5P+zBMjigUzlPOedHxgH7c1jQ/zGOJ
WB/Ay4lIjiasz8spVFLZG4VUpPte13Hyei0z2lLiQT+DRhb4mGJ5+MifqVP6S9KV
qI7iEZsKP3KHEBA45OgYtLY+5Qa3OstEGm8ott2ow6NzOyn33U40jQCo2VUpL2U5
+n89YFjt2u1DHX9M6im7m54QVnhEb57T8+GqbyiiEjR27nCtem2FwYCIxAJnHYx3
iXYbx4nI1bijCi/Hb61VUKXqxqKOOQIeY4sLAXOlXvVO4aW8j91ZYLO1pEM4gIjo
GdZDp/pruG0ZbWCf0R5eQQp5psixSMy3XQ==
-----END CERTIFICATE-----
