Certificate:
    Data:
        Version: 3 (0x2)
        Serial Number:
            10:fb:90:7b:ed:6c:dd:ee:a4:f5:bf:dc:6d:8a:11:83:ed:95:37:1d
        Signature Algorithm: sha256WithRSAEncryption
        Issuer: CN=xn--wgv71a119e.com
        Validity
            Not Before: Oct 10 20:46:13 2024 GMT
            Not After : Oct  8 20:46:13 2034 GMT
        Subject: CN=xn--wgv71a119e.com
        Subject Public Key Info:
            Public Key Algorithm: rsaEncryption
                Public-Key: (2048 bit)
                Modulus:
                    00:9b:a9:dd:d7:40:76:c6:e0:94:6c:58:1f:46:96:
                    ce:00:dc:3c:08:46:94:f7:0c:07:f6:0b:67:01:c8:
                    ac:e0:1b:b1:36:43:a6:9d:02:b8:f2:7d:a9:7d:c7:
                    f2:3a:77:e9:61:cc:ab:1a:ac:95:28:27:9f:8f:e5:
                    b2:71:54:42:04:cd:2b:d8:e5:34:d3:2c:98:81:c1:
                    f1:b6:b3:c2:a4:e6:ca:46:49:a2:ca:bc:5a:13:d7:
                    9c:6f:ca:6c:45:39:e2:ca:b2:4a:44:4c:c5:46:5f:
                    a4:4a:8c:d6:ba:8b:17:73:3f:5d:62:61:b7:72:71:
                    e6:3c:5c:b4:4d:65:c8:d5:e2:e4:14:a5:81:c6:59:
                    83:0d:d4:8e:33:a8:3d:15:46:55:a8:68:5c:7a:07:
                    28:5e:b3:33:9c:fe:d0:df:45:92:5d:6f:f0:73:4e:
                    04:94:09:8d:df:3b:20:4f:5a:b7:f4:bd:35:15:fb:
                    ee:0f:60:a9:65:ab:e6:68:38:e0:5f:b5:2d:96:37:
                    13:31:55:78:17:84:93:c4:e7:c8:be:2b:54:21:79:
                    7a:c8:1a:99:60:2a:ee:49:fb:ff:cc:44:e7:9d:46:
                    8a:a3:c6:12:ff:a0:45:f5:e6:61:3f:47:83:7b:64:
                    5e:bc:43:9c:24:df:89:cd:81:1d:25:07:c5:bc:e0:
                    6a:a7
                Exponent: 65537 (0x10001)
        X509v3 extensions:
            X509v3 Basic Constraints: critical
                CA:TRUE
            X509v3 Subject Alternative Name: 
                DNS:xn--wgv71a119e.com, DNS:*.xn--wgv71a119e.com, DNS:blahblahblahblah.com
            X509v3 Subject Key Identifier: 
                F7:1D:D4:98:6F:AE:88:C0:CE:10:4A:0C:8B:91:4F:FD:1B:37:E1:31
    Signature Algorithm: sha256WithRSAEncryption
    Signature Value:
        12:a8:65:75:23:8d:63:d1:0a:30:b0:2b:24:95:66:d6:b7:44:
        d2:4e:b2:24:65:02:24:08:f2:17:f3:c7:2b:69:9d:07:1b:aa:
        55:0e:a3:18:cc:fd:d4:d1:1f:33:98:c4:25:84:6b:6a:84:2a:
        10:c5:46:39:6a:0a:6f:1d:fe:57:c6:e9:13:a9:68:12:49:b2:
        37:a8:91:b5:53:e5:8d:06:d2:cf:3c:ee:1a:d7:a2:de:01:92:
        2d:4e:85:9e:4b:99:fc:b1:ae:99:9b:33:2d:fd:85:0b:a8:74:
        2f:0b:7e:a3:1a:05:7b:7a:64:be:ad:09:64:a2:0d:b8:d5:41:
        b9:b4:8e:1c:99:a4:d4:47:d4:63:c8:f7:0b:8a:3b:15:5f:06:
        68:ce:24:b7:f1:a6:5e:e8:24:3b:ed:81:84:3e:48:7c:be:ea:
        3c:63:23:57:ee:fd:cf:ee:fc:36:e2:f6:87:4d:7d:21:d4:8f:
        db:1a:0f:ac:af:b3:6b:2e:38:76:6f:93:08:e1:a8:ea:a0:07:
        fc:de:74:f9:6f:28:ec:75:b3:9d:d1:00:65:b9:a0:c3:70:8c:
        41:74:df:a7:fc:f9:b8:7d:8d:01:5b:35:76:20:0c:4d:00:8d:
        74:d0:65:67:1c:44:6f:ef:81:7b:ac:1f:4d:57:ab:db:9b:a3:
        75:c9:16:ef
-----BEGIN CERTIFICATE-----
MIIDRTCCAi2gAwIBAgIUEPuQe+1s3e6k9b/cbYoRg+2VNx0wDQYJKoZIhvcNAQEL
BQAwHTEbMBkGA1UEAwwSeG4tLXdndjcxYTExOWUuY29tMB4XDTI0MTAxMDIwNDYx
M1oXDTM0MTAwODIwNDYxM1owHTEbMBkGA1UEAwwSeG4tLXdndjcxYTExOWUuY29t
MIIBIjANBgkqhkiG9w0BAQEFAAOCAQ8AMIIBCgKCAQEAm6nd10B2xuCUbFgfRpbO
ANw8CEaU9wwH9gtnAcis4BuxNkOmnQK48n2pfcfyOnfpYcyrGqyVKCefj+WycVRC
BM0r2OU00yyYgcHxtrPCpObKRkmiyrxaE9ecb8psRTniyrJKREzFRl+kSozWuosX
cz9dYmG3cnHmPFy0TWXI1eLkFKWBxlmDDdSOM6g9FUZVqGhcegcoXrMznP7Q30WS
XW/wc04ElAmN3zsgT1q39L01FfvuD2CpZavmaDjgX7UtljcTMVV4F4STxOfIvitU
IXl6yBqZYCruSfv/zETnnUaKo8YS/6BF9eZhP0eDe2RevEOcJN+JzYEdJQfFvOBq
pwIDAQABo30wezAPBgNVHRMBAf8EBTADAQH/MEkGA1UdEQRCMECCEnhuLS13Z3Y3
MWExMTllLmNvbYIUKi54bi0td2d2NzFhMTE5ZS5jb22CFGJsYWhibGFoYmxhaGJs
YWguY29tMB0GA1UdDgQWBBT3HdSYb66IwM4QSgyLkU/9GzfhMTANBgkqhkiG9w0B
AQsFAAOCAQEAEqhldSONY9EKMLArJJVm1rdE0k6yJGUCJAjyF/PHK2mdBxuqVQ6j
GMz91NEfM5jEJYRraoQqEMVGOWoKbx3+V8bpE6loEkmyN6iRtVPljQbSzzzuGtei
3gGSLU6FnkuZ/LGumZszLf2FC6h0Lwt+oxoFe3pkvq0JZKINuNVBubSOHJmk1EfU
Y8j3C4o7FV8GaM4kt/GmXugkO+2BhD5IfL7qPGMjV+79z+78NuL2h019IdSP2xoP
rK+zay44dm+TCOGo6qAH/N50+W8o7HWzndEAZbmgw3CMQXTfp/z5uH2NAVs1diAM
TQCNdNBlZxxEb++Be6wfTVer25ujdckW7w==
-----END CERTIFICATE-----
