Certificate:
    Data:
        Version: 3 (0x2)
        Serial Number:
            44:ff:47:5b:37:71:65:69:6a:02:40:fd:0c:fb:7b:a0:70:f4:8d:5d
        Signature Algorithm: sha256WithRSAEncryption
        Issuer: CN = xn--wgv71a119e.com
        Validity
            Not Before: Oct  3 17:20:10 2022 GMT
            Not After : Sep 30 17:20:10 2032 GMT
        Subject: CN = xn--wgv71a119e.com
        Subject Public Key Info:
            Public Key Algorithm: rsaEncryption
                Public-Key: (2048 bit)
                Modulus:
                    00:b1:2e:20:9b:56:83:a2:e8:0e:6a:06:53:ea:8b:
                    a3:2e:a1:ca:a7:ad:f5:6f:66:3d:13:77:52:66:9d:
                    ec:63:1d:66:7e:58:90:56:7e:7d:32:a0:ec:43:14:
                    29:90:9b:00:53:37:a9:bf:bc:bf:86:f0:89:5b:4f:
                    64:98:4b:71:d8:b3:2d:75:10:28:67:b1:e4:80:f0:
                    4e:3c:28:79:56:83:ab:a9:65:e7:fa:b8:d6:f6:b9:
                    21:61:a2:a1:eb:a4:80:43:4e:ab:93:d1:95:00:03:
                    91:c1:36:b0:66:47:f9:60:0a:70:37:08:cb:a4:cc:
                    6e:85:1c:4e:c1:98:88:a8:18:5d:75:4e:7b:63:1d:
                    4b:e9:1c:5f:f4:e0:72:be:c6:b0:cd:02:e8:25:4a:
                    98:be:bf:9a:0d:93:74:4a:0b:bd:45:71:87:92:4a:
                    39:d3:a3:96:d8:7f:2e:d4:e9:5a:3b:54:de:0f:87:
                    dc:d1:c6:cb:f7:73:d7:0f:3d:d1:ce:7c:5a:fc:64:
                    91:15:ff:37:1b:25:05:83:0c:d3:d2:07:0a:7c:43:
                    54:47:99:d2:fd:79:1e:35:a4:16:a4:b8:f1:f6:8b:
                    37:b4:26:9d:07:63:33:d0:c9:18:50:d1:3a:ad:2c:
                    62:90:d1:b8:36:58:51:77:6b:8a:ff:f1:bd:4e:fc:
                    74:83
                Exponent: 65537 (0x10001)
        X509v3 extensions:
            X509v3 Basic Constraints: critical
                CA:TRUE
            X509v3 Subject Alternative Name: 
                DNS:xn--wgv71a119e.com, DNS:*.xn--wgv71a119e.com, DNS:blahblahblahblah.com
            X509v3 Subject Key Identifier: 
                C6:0C:83:61:1D:BC:65:F4:0D:48:28:F5:00:9F:B3:84:0D:A4:B6:86
    Signature Algorithm: sha256WithRSAEncryption
    Signature Value:
        93:15:4f:06:9c:44:ae:f9:ce:f4:02:aa:81:94:7e:4e:38:4c:
        5d:cb:98:c2:e6:92:9f:bd:74:2a:43:af:d7:b6:68:cb:ff:49:
        d5:ec:6f:4c:3b:1a:92:1f:8d:42:d0:98:2e:20:33:be:bb:06:
        9a:62:fa:6f:d5:de:a4:f6:d7:ad:64:c0:ef:c2:e6:7b:f9:59:
        c3:97:be:95:ee:c8:ab:84:f0:a4:f5:99:aa:63:4b:bd:a6:0b:
        13:87:c8:17:5e:99:51:93:ec:88:38:4b:c3:91:92:af:5d:5d:
        05:5b:70:0c:de:fd:1a:89:ed:53:14:b3:05:04:bf:2c:5a:12:
        c6:20:7e:c0:31:42:b2:98:84:3f:71:89:85:ba:8c:8f:8e:40:
        c7:00:e6:b4:63:90:1e:0a:a1:e8:72:96:8a:ca:6b:a0:92:ec:
        a6:b9:4f:ca:24:27:74:84:f6:f4:ac:e6:f1:12:6e:36:3c:1a:
        a0:79:aa:ab:48:b3:db:a4:56:86:d8:30:14:e9:bc:2c:99:37:
        a4:60:ea:2f:6d:5b:66:13:a3:20:f4:84:07:de:24:20:61:5c:
        51:b8:bf:28:89:a8:0d:c7:10:34:52:8e:53:49:af:92:b0:e0:
        bf:31:9a:40:7d:dd:af:03:72:12:84:82:27:75:cf:0d:d7:bf:
        84:b9:b2:7c
-----BEGIN CERTIFICATE-----
MIIDRTCCAi2gAwIBAgIURP9HWzdxZWlqAkD9DPt7oHD0jV0wDQYJKoZIhvcNAQEL
BQAwHTEbMBkGA1UEAwwSeG4tLXdndjcxYTExOWUuY29tMB4XDTIyMTAwMzE3MjAx
MFoXDTMyMDkzMDE3MjAxMFowHTEbMBkGA1UEAwwSeG4tLXdndjcxYTExOWUuY29t
MIIBIjANBgkqhkiG9w0BAQEFAAOCAQ8AMIIBCgKCAQEAsS4gm1aDougOagZT6ouj
LqHKp631b2Y9E3dSZp3sYx1mfliQVn59MqDsQxQpkJsAUzepv7y/hvCJW09kmEtx
2LMtdRAoZ7HkgPBOPCh5VoOrqWXn+rjW9rkhYaKh66SAQ06rk9GVAAORwTawZkf5
YApwNwjLpMxuhRxOwZiIqBhddU57Yx1L6Rxf9OByvsawzQLoJUqYvr+aDZN0Sgu9
RXGHkko506OW2H8u1OlaO1TeD4fc0cbL93PXDz3Rznxa/GSRFf83GyUFgwzT0gcK
fENUR5nS/XkeNaQWpLjx9os3tCadB2Mz0MkYUNE6rSxikNG4NlhRd2uK//G9Tvx0
gwIDAQABo30wezAPBgNVHRMBAf8EBTADAQH/MEkGA1UdEQRCMECCEnhuLS13Z3Y3
MWExMTllLmNvbYIUKi54bi0td2d2NzFhMTE5ZS5jb22CFGJsYWhibGFoYmxhaGJs
YWguY29tMB0GA1UdDgQWBBTGDINhHbxl9A1IKPUAn7OEDaS2hjANBgkqhkiG9w0B
AQsFAAOCAQEAkxVPBpxErvnO9AKqgZR+TjhMXcuYwuaSn710KkOv17Zoy/9J1exv
TDsakh+NQtCYLiAzvrsGmmL6b9XepPbXrWTA78Lme/lZw5e+le7Iq4TwpPWZqmNL
vaYLE4fIF16ZUZPsiDhLw5GSr11dBVtwDN79GontUxSzBQS/LFoSxiB+wDFCspiE
P3GJhbqMj45AxwDmtGOQHgqh6HKWisproJLsprlPyiQndIT29Kzm8RJuNjwaoHmq
q0iz26RWhtgwFOm8LJk3pGDqL21bZhOjIPSEB94kIGFcUbi/KImoDccQNFKOU0mv
krDgvzGaQH3drwNyEoSCJ3XPDde/hLmyfA==
-----END CERTIFICATE-----
