Certificate:
    Data:
        Version: 3 (0x2)
        Serial Number:
            7e:1f:b6:93:58:16:04:78:0d:d3:cd:e5:7c:82:8d:f7:73:03:73:5e
        Signature Algorithm: sha256WithRSAEncryption
        Issuer: CN = xn--wgv71a119e.com
        Validity
            Not Before: Oct 30 18:43:15 2023 GMT
            Not After : Oct 27 18:43:15 2033 GMT
        Subject: CN = xn--wgv71a119e.com
        Subject Public Key Info:
            Public Key Algorithm: rsaEncryption
                Public-Key: (2048 bit)
                Modulus:
                    00:a2:0d:e9:6e:26:b4:a9:66:6f:6a:75:20:2c:ad:
                    c8:88:56:33:83:a6:46:00:4c:41:e5:d6:3c:5e:15:
                    fe:63:11:c9:c5:7f:cb:a1:ca:fa:63:b3:e0:db:b4:
                    48:99:4b:b1:24:53:12:35:48:f2:61:e9:6b:d6:79:
                    4f:d8:8b:c6:75:3c:6e:d9:a4:b2:77:7a:60:c6:16:
                    85:63:8a:6d:50:32:a7:e3:79:60:48:19:59:7a:8e:
                    9f:af:0d:57:06:58:3c:18:f1:e1:74:fa:43:2a:17:
                    4a:f2:19:e9:ca:02:79:72:46:ea:ad:0e:9a:a2:7f:
                    38:64:e7:66:44:9b:39:44:5c:0d:9f:8f:28:8e:79:
                    e4:ee:99:5e:df:36:43:0e:7b:5c:fc:0b:ce:73:57:
                    03:27:67:0f:fa:dc:2a:1e:1c:81:ea:e0:71:32:f5:
                    76:4e:ed:ec:c2:f5:12:3b:fb:e0:30:c3:14:20:c7:
                    7d:c2:c7:66:a2:41:d6:95:69:d6:74:b7:81:c8:82:
                    c1:15:cc:d2:f4:17:56:e6:7d:73:7c:9f:4e:e5:c8:
                    32:fb:46:32:91:54:a1:de:cb:00:21:de:4f:3d:bd:
                    c8:5c:d0:4e:f3:02:3f:a4:08:9b:17:6d:83:8e:38:
                    99:fb:a3:25:a3:f7:c1:6a:fa:60:7e:8c:36:09:96:
                    d2:c7
                Exponent: 65537 (0x10001)
        X509v3 extensions:
            X509v3 Basic Constraints: critical
                CA:TRUE
            X509v3 Subject Alternative Name: 
                DNS:xn--wgv71a119e.com, DNS:*.xn--wgv71a119e.com, DNS:blahblahblahblah.com
            X509v3 Subject Key Identifier: 
                E6:4D:F2:55:CA:05:51:F8:F9:7C:93:DB:71:22:37:73:5E:5F:11:6E
    Signature Algorithm: sha256WithRSAEncryption
    Signature Value:
        61:ba:bf:0a:3f:5a:d7:62:5f:77:96:4f:34:f3:0e:d5:95:f0:
        98:f5:b2:c2:f5:b6:b1:28:02:01:47:9e:f0:10:1d:d9:ee:00:
        ed:c1:0e:ae:c8:76:69:f9:e1:86:ed:2d:90:a2:ff:cb:63:3b:
        22:65:5f:82:c6:a6:4f:17:94:f9:75:8e:76:a3:16:52:ba:36:
        34:dc:2a:49:ff:11:18:fc:32:30:84:43:fa:43:dd:40:c0:aa:
        c1:d5:83:c9:5d:8b:ec:ed:84:75:66:94:b7:5a:a1:e4:b0:17:
        ca:ae:b0:b0:12:a2:e7:4a:2a:5b:ee:2b:fd:d8:03:dd:3a:97:
        c3:78:c7:a4:35:59:de:36:0c:7c:13:0b:35:c5:b0:3b:5a:89:
        0b:ee:fe:9d:28:c2:4e:4c:45:76:19:5a:5d:df:51:90:e2:00:
        a8:19:19:ce:a4:e0:96:1f:02:15:96:71:12:45:6b:a9:f6:e1:
        c3:e2:23:1f:ea:50:68:cd:c4:0e:7a:ce:f4:41:69:32:83:68:
        c0:6e:ad:2c:f3:6e:74:57:b7:a1:6c:5e:50:73:30:ef:5c:1a:
        dd:94:e0:ff:58:b5:1b:87:e7:50:31:67:a0:32:39:2f:41:43:
        30:36:41:55:98:69:19:f9:01:20:97:15:36:65:81:c7:b4:ac:
        78:61:1c:42
-----BEGIN CERTIFICATE-----
MIIDRTCCAi2gAwIBAgIUfh+2k1gWBHgN083lfIKN93MDc14wDQYJKoZIhvcNAQEL
BQAwHTEbMBkGA1UEAwwSeG4tLXdndjcxYTExOWUuY29tMB4XDTIzMTAzMDE4NDMx
NVoXDTMzMTAyNzE4NDMxNVowHTEbMBkGA1UEAwwSeG4tLXdndjcxYTExOWUuY29t
MIIBIjANBgkqhkiG9w0BAQEFAAOCAQ8AMIIBCgKCAQEAog3pbia0qWZvanUgLK3I
iFYzg6ZGAExB5dY8XhX+YxHJxX/Locr6Y7Pg27RImUuxJFMSNUjyYelr1nlP2IvG
dTxu2aSyd3pgxhaFY4ptUDKn43lgSBlZeo6frw1XBlg8GPHhdPpDKhdK8hnpygJ5
ckbqrQ6aon84ZOdmRJs5RFwNn48ojnnk7ple3zZDDntc/AvOc1cDJ2cP+twqHhyB
6uBxMvV2Tu3swvUSO/vgMMMUIMd9wsdmokHWlWnWdLeByILBFczS9BdW5n1zfJ9O
5cgy+0YykVSh3ssAId5PPb3IXNBO8wI/pAibF22DjjiZ+6Mlo/fBavpgfow2CZbS
xwIDAQABo30wezAPBgNVHRMBAf8EBTADAQH/MEkGA1UdEQRCMECCEnhuLS13Z3Y3
MWExMTllLmNvbYIUKi54bi0td2d2NzFhMTE5ZS5jb22CFGJsYWhibGFoYmxhaGJs
YWguY29tMB0GA1UdDgQWBBTmTfJVygVR+Pl8k9txIjdzXl8RbjANBgkqhkiG9w0B
AQsFAAOCAQEAYbq/Cj9a12Jfd5ZPNPMO1ZXwmPWywvW2sSgCAUee8BAd2e4A7cEO
rsh2afnhhu0tkKL/y2M7ImVfgsamTxeU+XWOdqMWUro2NNwqSf8RGPwyMIRD+kPd
QMCqwdWDyV2L7O2EdWaUt1qh5LAXyq6wsBKi50oqW+4r/dgD3TqXw3jHpDVZ3jYM
fBMLNcWwO1qJC+7+nSjCTkxFdhlaXd9RkOIAqBkZzqTglh8CFZZxEkVrqfbhw+Ij
H+pQaM3EDnrO9EFpMoNowG6tLPNudFe3oWxeUHMw71wa3ZTg/1i1G4fnUDFnoDI5
L0FDMDZBVZhpGfkBIJcVNmWBx7SseGEcQg==
-----END CERTIFICATE-----
