Certificate:
    Data:
        Version: 3 (0x2)
        Serial Number:
            04:cd:5c:46:2c:7b:65:5b:b6:d2:f4:4b:44:90:ea:c1:c9:a1:3b:43
        Signature Algorithm: sha256WithRSAEncryption
        Issuer: CN = xn--wgv71a119e.com
        Validity
            Not Before: Mar 13 20:46:17 2020 GMT
            Not After : Mar 11 20:46:17 2030 GMT
        Subject: CN = xn--wgv71a119e.com
        Subject Public Key Info:
            Public Key Algorithm: rsaEncryption
                RSA Public-Key: (2048 bit)
                Modulus:
                    00:bc:b7:6b:11:ab:e6:14:5a:73:0e:f1:c6:f1:8a:
                    33:4e:5d:96:1a:d9:be:fa:47:a7:0a:8d:2a:30:c5:
                    fe:65:ab:24:a5:15:c1:b7:55:b2:3b:8a:bc:8c:d2:
                    18:d8:82:e9:95:2d:84:36:a5:d5:53:9a:03:cb:fb:
                    35:4c:22:f3:0f:fb:b6:23:ba:54:d0:ef:64:f8:85:
                    8f:c3:8d:a8:a6:ec:5f:1a:ca:d7:d5:1f:3d:55:66:
                    44:9a:35:54:1a:be:7a:40:03:7c:e4:98:cd:2a:e1:
                    4d:49:0f:af:c0:6e:6a:e1:36:72:1a:a2:db:c7:db:
                    94:bd:0e:b4:2e:ba:c6:f4:7b:39:bc:c3:2a:55:ca:
                    b3:80:dd:f9:e7:99:7c:69:05:28:eb:84:d6:48:cf:
                    ad:81:91:70:7e:54:ae:f4:79:31:03:3a:7d:7c:b7:
                    7f:9b:31:83:65:2d:cf:dc:55:18:c0:09:96:a8:1e:
                    1b:a5:2a:14:da:47:e7:a7:7a:77:9e:80:f0:b5:b1:
                    02:08:a7:49:66:68:86:ef:1f:cb:14:a4:cb:33:df:
                    36:35:fd:f6:0b:91:c4:11:4a:c3:d4:d0:c1:93:c6:
                    74:d3:ae:dc:27:eb:cf:e3:f7:4c:d7:69:8b:28:99:
                    7b:26:fb:84:14:cc:25:29:c1:aa:20:95:68:5b:7e:
                    a1:01
                Exponent: 65537 (0x10001)
        X509v3 extensions:
            X509v3 Basic Constraints: critical
                CA:TRUE
            X509v3 Subject Alternative Name: 
                DNS:xn--wgv71a119e.com, DNS:*.xn--wgv71a119e.com, DNS:blahblahblahblah.com
    Signature Algorithm: sha256WithRSAEncryption
         83:3a:94:b3:f4:0d:82:b3:62:9f:a6:0e:34:5d:f6:d2:d7:4b:
         4e:23:4a:a6:10:9b:70:54:a3:b2:68:79:1b:4e:a7:05:75:bd:
         2d:14:b3:21:5a:3f:e6:9c:1b:f5:0b:5f:c0:36:cf:81:74:e3:
         4a:81:f6:54:e3:c2:6a:da:c8:7e:d8:59:7f:cb:6b:dd:40:88:
         47:bb:4a:22:7c:33:33:38:21:b1:60:33:67:84:b7:d2:2c:ad:
         26:ea:a2:22:2a:96:07:37:23:c1:94:9f:36:98:a9:9d:fd:72:
         ba:f0:f1:ad:ae:3b:bc:cd:e7:25:c8:c1:11:df:23:f6:89:9a:
         0b:0d:c1:2f:e0:f4:35:8f:51:0d:b9:b9:06:37:d1:3b:7c:eb:
         5b:48:3b:0e:0f:90:01:56:d8:94:7e:38:1b:08:b5:f2:a9:2a:
         e5:83:0d:84:3f:78:62:45:eb:25:24:69:c8:c4:20:7b:2f:bb:
         3d:0d:fb:27:84:7f:9f:cd:61:62:8b:dc:a0:93:8e:66:a9:61:
         28:4e:3a:5b:4d:8b:1e:34:4f:31:10:3d:fc:dd:68:ce:99:2f:
         a9:36:57:f5:31:e9:d4:96:cd:d3:3d:ed:9a:ce:5a:df:95:64:
         0a:62:69:3e:59:6b:98:ca:ed:34:e0:6d:9e:0b:5e:70:50:a8:
         30:69:1b:ca
-----BEGIN CERTIFICATE-----
MIIDJjCCAg6gAwIBAgIUBM1cRix7ZVu20vRLRJDqwcmhO0MwDQYJKoZIhvcNAQEL
BQAwHTEbMBkGA1UEAwwSeG4tLXdndjcxYTExOWUuY29tMB4XDTIwMDMxMzIwNDYx
N1oXDTMwMDMxMTIwNDYxN1owHTEbMBkGA1UEAwwSeG4tLXdndjcxYTExOWUuY29t
MIIBIjANBgkqhkiG9w0BAQEFAAOCAQ8AMIIBCgKCAQEAvLdrEavmFFpzDvHG8Yoz
Tl2WGtm++kenCo0qMMX+ZaskpRXBt1WyO4q8jNIY2ILplS2ENqXVU5oDy/s1TCLz
D/u2I7pU0O9k+IWPw42opuxfGsrX1R89VWZEmjVUGr56QAN85JjNKuFNSQ+vwG5q
4TZyGqLbx9uUvQ60LrrG9Hs5vMMqVcqzgN3555l8aQUo64TWSM+tgZFwflSu9Hkx
Azp9fLd/mzGDZS3P3FUYwAmWqB4bpSoU2kfnp3p3noDwtbECCKdJZmiG7x/LFKTL
M982Nf32C5HEEUrD1NDBk8Z0067cJ+vP4/dM12mLKJl7JvuEFMwlKcGqIJVoW36h
AQIDAQABo14wXDAPBgNVHRMBAf8EBTADAQH/MEkGA1UdEQRCMECCEnhuLS13Z3Y3
MWExMTllLmNvbYIUKi54bi0td2d2NzFhMTE5ZS5jb22CFGJsYWhibGFoYmxhaGJs
YWguY29tMA0GCSqGSIb3DQEBCwUAA4IBAQCDOpSz9A2Cs2Kfpg40XfbS10tOI0qm
EJtwVKOyaHkbTqcFdb0tFLMhWj/mnBv1C1/ANs+BdONKgfZU48Jq2sh+2Fl/y2vd
QIhHu0oifDMzOCGxYDNnhLfSLK0m6qIiKpYHNyPBlJ82mKmd/XK68PGtrju8zecl
yMER3yP2iZoLDcEv4PQ1j1ENubkGN9E7fOtbSDsOD5ABVtiUfjgbCLXyqSrlgw2E
P3hiReslJGnIxCB7L7s9DfsnhH+fzWFii9ygk45mqWEoTjpbTYseNE8xED383WjO
mS+pNlf1MenUls3TPe2azlrflWQKYmk+WWuYyu004G2eC15wUKgwaRvK
-----END CERTIFICATE-----
