Certificate:
    Data:
        Version: 3 (0x2)
        Serial Number:
            02:10:43:05:54:18:1c:69:17:b8:d7:dd:1c:87:89:d3:d3:f9:8d:c7
        Signature Algorithm: sha256WithRSAEncryption
        Issuer: C = US, CN = Short-lived Certificate
        Validity
            Not Before: Jun  5 19:49:12 2020 GMT
            Not After : Jun 19 19:49:12 2020 GMT
        Subject: C = US, CN = Short-lived Certificate
        Subject Public Key Info:
            Public Key Algorithm: rsaEncryption
                RSA Public-Key: (2048 bit)
                Modulus:
                    00:b2:56:6f:7e:d4:b4:b6:4e:e3:15:8e:8a:e9:46:
                    06:15:63:4c:6d:3a:32:67:c7:14:a4:17:fc:b7:04:
                    98:fb:b5:11:ae:93:1c:20:73:15:cd:b3:bc:ee:61:
                    82:8e:cb:b8:78:ca:6d:e6:57:73:f3:45:6e:1e:c3:
                    27:5d:af:5e:52:6d:12:47:44:72:3d:7d:8a:c1:47:
                    50:19:4a:21:a4:08:b4:cc:2e:9c:a2:2a:ce:1b:87:
                    82:ae:3a:23:b0:dd:d2:3e:64:fe:ce:a6:35:34:93:
                    07:f8:88:6e:c8:be:b2:0b:5f:9c:96:0e:79:1c:a3:
                    2b:c9:23:5a:8a:1f:1e:17:e2:a9:d4:3c:49:22:29:
                    43:fa:63:55:3c:72:62:4a:d1:72:5a:ae:75:a8:14:
                    67:eb:58:88:ce:11:0c:bf:09:67:f2:bb:c8:80:3e:
                    4a:f0:35:ad:d2:dc:43:a3:2f:da:c6:3b:1c:6e:76:
                    70:31:73:cc:33:5b:4f:36:dc:f3:8f:9f:a6:07:6d:
                    61:e0:66:6f:2c:76:bd:85:a3:8b:d0:8a:ce:c4:bc:
                    97:e0:ed:e1:29:df:a1:62:b9:ad:d8:0f:1a:f8:ae:
                    44:fe:a6:28:95:c4:cc:df:b5:f7:6d:46:ae:ef:9b:
                    af:73:50:1d:9f:f0:c7:a0:ef:37:4b:13:73:96:24:
                    95:0f
                Exponent: 65537 (0x10001)
        X509v3 extensions:
            X509v3 Subject Key Identifier: 
                9A:4F:94:3E:9D:8E:6D:5A:9B:9B:8B:88:97:B6:D4:FF:10:AE:47:76
            X509v3 Authority Key Identifier: 
                keyid:9A:4F:94:3E:9D:8E:6D:5A:9B:9B:8B:88:97:B6:D4:FF:10:AE:47:76

            X509v3 Basic Constraints: critical
                CA:TRUE
            X509v3 Subject Alternative Name: 
                DNS:example.org
    Signature Algorithm: sha256WithRSAEncryption
         7b:10:40:c9:9b:ad:b1:3d:03:c3:b6:f3:d7:3f:75:56:2b:80:
         ff:c4:e5:88:3a:b4:0b:c2:4a:cd:ae:0a:b3:d4:1f:d3:ec:ec:
         81:85:0b:96:47:2d:78:d1:9c:45:c3:cd:7c:ba:a0:f8:b0:56:
         83:2f:e9:8a:06:05:fa:06:65:85:fd:60:99:6e:29:5c:b8:22:
         6f:1b:24:63:ce:95:f6:bc:a1:76:69:15:b7:33:b4:e1:c4:e4:
         e1:8d:2b:71:5f:af:8d:0e:17:be:ea:b1:b7:75:66:29:8d:4d:
         92:bc:fe:7e:12:b3:46:ab:fb:7f:01:46:77:c1:6a:1b:9b:65:
         79:cb:aa:64:24:1a:ee:99:85:8e:b8:51:33:c7:8d:88:40:ae:
         0b:e2:cf:b1:57:f1:c9:a7:08:d7:8d:3d:da:9c:f4:79:28:a3:
         39:0e:e6:2f:16:71:89:4c:8b:cc:62:6c:13:b2:f0:38:1d:7b:
         04:4b:21:01:c9:52:09:6e:0f:7a:13:a7:62:07:08:7a:0e:90:
         a8:fd:13:2b:2c:39:37:3b:0f:fa:36:f7:64:76:d3:b5:9b:7a:
         ab:49:b3:52:0f:cf:d2:c6:02:c9:05:30:3f:60:c7:c5:f3:4b:
         fa:c3:e6:fd:de:3f:2b:d6:a5:1a:ff:6c:8e:75:d0:c9:ff:f2:
         65:d8:07:d1
-----BEGIN CERTIFICATE-----
MIIDVzCCAj+gAwIBAgIUAhBDBVQYHGkXuNfdHIeJ09P5jccwDQYJKoZIhvcNAQEL
BQAwLzELMAkGA1UEBhMCVVMxIDAeBgNVBAMMF1Nob3J0LWxpdmVkIENlcnRpZmlj
YXRlMB4XDTIwMDYwNTE5NDkxMloXDTIwMDYxOTE5NDkxMlowLzELMAkGA1UEBhMC
VVMxIDAeBgNVBAMMF1Nob3J0LWxpdmVkIENlcnRpZmljYXRlMIIBIjANBgkqhkiG
9w0BAQEFAAOCAQ8AMIIBCgKCAQEAslZvftS0tk7jFY6K6UYGFWNMbToyZ8cUpBf8
twSY+7URrpMcIHMVzbO87mGCjsu4eMpt5ldz80VuHsMnXa9eUm0SR0RyPX2KwUdQ
GUohpAi0zC6coirOG4eCrjojsN3SPmT+zqY1NJMH+IhuyL6yC1+clg55HKMrySNa
ih8eF+Kp1DxJIilD+mNVPHJiStFyWq51qBRn61iIzhEMvwln8rvIgD5K8DWt0txD
oy/axjscbnZwMXPMM1tPNtzzj5+mB21h4GZvLHa9haOL0IrOxLyX4O3hKd+hYrmt
2A8a+K5E/qYolcTM37X3bUau75uvc1Adn/DHoO83SxNzliSVDwIDAQABo2swaTAd
BgNVHQ4EFgQUmk+UPp2ObVqbm4uIl7bU/xCuR3YwHwYDVR0jBBgwFoAUmk+UPp2O
bVqbm4uIl7bU/xCuR3YwDwYDVR0TAQH/BAUwAwEB/zAWBgNVHREEDzANggtleGFt
cGxlLm9yZzANBgkqhkiG9w0BAQsFAAOCAQEAexBAyZutsT0Dw7bz1z91ViuA/8Tl
iDq0C8JKza4Ks9Qf0+zsgYULlkcteNGcRcPNfLqg+LBWgy/pigYF+gZlhf1gmW4p
XLgibxskY86V9ryhdmkVtzO04cTk4Y0rcV+vjQ4Xvuqxt3VmKY1Nkrz+fhKzRqv7
fwFGd8FqG5tlecuqZCQa7pmFjrhRM8eNiECuC+LPsVfxyacI14092pz0eSijOQ7m
LxZxiUyLzGJsE7LwOB17BEshAclSCW4PehOnYgcIeg6QqP0TKyw5NzsP+jb3ZHbT
tZt6q0mzUg/P0sYCyQUwP2DHxfNL+sPm/d4/K9alGv9sjnXQyf/yZdgH0Q==
-----END CERTIFICATE-----
