Certificate:
    Data:
        Version: 3 (0x2)
        Serial Number:
            14:95:0e:b4:a9:33:04:9b:ed:a5:47:b9:c8:0f:12:14:57:d1:66:ff
        Signature Algorithm: ecdsa-with-SHA256
        Issuer: CN = Short-lived Certificate
        Validity
            Not Before: Jun  5 19:49:12 2020 GMT
            Not After : Jun 19 19:49:12 2020 GMT
        Subject: CN = Short-lived Certificate
        Subject Public Key Info:
            Public Key Algorithm: id-ecPublicKey
                Public-Key: (256 bit)
                pub:
                    04:42:8a:75:3b:89:02:17:c3:97:d9:35:3c:ac:9a:
                    46:a4:46:fa:17:cc:5d:0a:4c:6a:a3:88:7c:ff:44:
                    c5:96:af:6d:3b:17:76:d1:59:54:23:cc:16:05:96:
                    29:9e:2c:f4:a7:9b:c4:42:3b:21:4e:ac:bd:8f:57:
                    92:2b:fe:8f:85
                ASN1 OID: prime256v1
                NIST CURVE: P-256
        X509v3 extensions:
            X509v3 Basic Constraints: 
                CA:FALSE
            X509v3 Subject Alternative Name: 
                DNS:example.org
    Signature Algorithm: ecdsa-with-SHA256
         30:45:02:20:73:ca:c3:64:38:04:ad:5e:f7:87:a6:1f:ac:62:
         03:7b:3a:11:5b:51:2a:11:b2:25:e3:24:1e:62:ec:72:39:be:
         02:21:00:f7:df:1b:83:07:a2:fd:d1:1f:c9:92:57:1f:ee:2c:
         f2:27:b5:99:91:8f:8b:9d:02:a3:f7:5d:17:9e:d6:19:a6
-----BEGIN CERTIFICATE-----
MIIBazCCARGgAwIBAgIUFJUOtKkzBJvtpUe5yA8SFFfRZv8wCgYIKoZIzj0EAwIw
IjEgMB4GA1UEAwwXU2hvcnQtbGl2ZWQgQ2VydGlmaWNhdGUwHhcNMjAwNjA1MTk0
OTEyWhcNMjAwNjE5MTk0OTEyWjAiMSAwHgYDVQQDDBdTaG9ydC1saXZlZCBDZXJ0
aWZpY2F0ZTBZMBMGByqGSM49AgEGCCqGSM49AwEHA0IABEKKdTuJAhfDl9k1PKya
RqRG+hfMXQpMaqOIfP9ExZavbTsXdtFZVCPMFgWWKZ4s9KebxEI7IU6svY9Xkiv+
j4WjJTAjMAkGA1UdEwQCMAAwFgYDVR0RBA8wDYILZXhhbXBsZS5vcmcwCgYIKoZI
zj0EAwIDSAAwRQIgc8rDZDgErV73h6YfrGIDezoRW1EqEbIl4yQeYuxyOb4CIQD3
3xuDB6L90R/Jklcf7izyJ7WZkY+LnQKj910XntYZpg==
-----END CERTIFICATE-----
