-----BEGIN PRIVATE KEY-----
MIIEvAIBADANBgkqhkiG9w0BAQEFAASCBKYwggSiAgEAAoIBAQDsdrSxnyz5qQNr
JRBll0qjD5zDYW41+A+X2rDMDONOaLlO9OODtjvoCRBg5KUJ2y9a/Vsui77szkLD
7h4lJPTlxGyFNxgtfyzSuXEb5ZBP0kYD+RXfafIeTmQECIFwsmnc3ytonl+Hzr+g
6G2w12qNWOL3DqrxgOc/9UeZKuTf4ERM7x1cfBmA3keW0M8PqJ9rVSG7zzLreago
Q81pmlWVttFrZWt2PAq6DH7BEdN+cbIEa6bSFOmBW24r+TJxxDc9X95xXNdC/LYn
fb9tN+1gPDd1bcjeEdPIg0EMqb0BtfcaUjZojownuIt04fcaet4OaVoo/HNhy9XM
GqqoHQeHAgMBAAECggEAIBGZP92Og+1gAU/tgVmbTbH4WKcGA1u5AacvAv1cdm3N
c9/SWzKDvVw9VGat20BWk8h4bT+WjRcMBvZsMC1q6R5SeV6XcNQmiA2OQXJIuAqU
ZEWLqdj8dQ+8kK92nooTwVii0nVoD0sCwhfDiJAuayz62vaqSEZrFkl1hFhE4feN
jpNOjzU54nbtmAnT1umyO13pJxTcRjetTJioIsl/uvTGuIhBsY6gqYchtPtZ0c35
0/YNOMtAWKERDgpyFwBNmUA9YunmS603ThA5SB7rbaMbANyxXoGRcRjNavI67ues
fgvRY/GghnY2sKroyc9CIsnghrGAITW6miQw3uWRQQKBgQD4mTh7g0DP3bfHUIqm
af7UmPV7gPrJItlvgrYRYy4zjnxvNk/kcfgrJATMAnqGX5KrbXFX6AdfanRRnJcP
gCojd1C3v3cotUVky9r91v/1Hn1fe2hDzy/qrbwh2WBATPKCJjL0PuXNhGsfqoKG
SMhvqy95sfFnqvy4f4pUPh6pIwKBgQDzgP7WUAVWUcmjjxq6QM8WfDD5RMuPfAL4
skkpm3WB/H+xUeqax+KSKNDDrWTfhWpTucZt0v84aG6NQz4vzkc5DrRnWltkqFgR
NLU1esrgn1bnh/iNQt+bmw8OgH0puJsI82wBa7QjGYu3ocW043Avp1DS2ocMGMzu
S+hFvBG4TQKBgFDI8drpVzl1cpBZswTLMx2BK1zcGCMeqQwcrO/PjCcC6Zr2SlYR
VzUluk1VjN1312DP6uJHK4YtQOl4enp2CruFvXxIwv8+kPNlb5/Hq1vLcbCCmOpY
PNkFZjqVujqLBs+WfD505ha4LluW/F2I72GifoYMdkdbAE8wWxJvMWWDAoGADRQg
m+IwZzJ9YguNo/NXLB3/g2PuiwZeIn1w8IspBJJLSXrc3vNdd/w5OklV4auIynZv
8fYjPyRcy7mQ3YB20tm3VtXDkuR31nS+RuERhH8Ka+UhtHSjDfiGFoFQN61ypkhs
xKbERh5ZIsPNmqmcnPKfpLOYDU5Hs4TgNN6lFQECgYA/0Y25oCHqLH9MfPGs2gMJ
BTeMxzAIsA2lwhr2/WOANHA9cWnHtI3d1eNequZpNgxtKbw2mxbM+IfnO50czV7g
5PJPvU79T6d64u1AOtoKbCxgm9wTL8UmEPvEInnT8SfnECPxW9Pwey2rC39527jl
i5FkIsSiwU8YIZk73YCqDg==
-----END PRIVATE KEY-----
Certificate:
    Data:
        Version: 3 (0x2)
        Serial Number: 4096 (0x1000)
        Signature Algorithm: sha256WithRSAEncryption
        Issuer: CN=B CA
        Validity
            Not Before: Oct 18 22:24:10 2019 GMT
            Not After : Oct 15 22:24:10 2029 GMT
        Subject: C=US, ST=California, L=Mountain View, O=Test CA, CN=127.0.0.1
        Subject Public Key Info:
            Public Key Algorithm: rsaEncryption
                RSA Public-Key: (2048 bit)
                Modulus:
                    00:ec:76:b4:b1:9f:2c:f9:a9:03:6b:25:10:65:97:
                    4a:a3:0f:9c:c3:61:6e:35:f8:0f:97:da:b0:cc:0c:
                    e3:4e:68:b9:4e:f4:e3:83:b6:3b:e8:09:10:60:e4:
                    a5:09:db:2f:5a:fd:5b:2e:8b:be:ec:ce:42:c3:ee:
                    1e:25:24:f4:e5:c4:6c:85:37:18:2d:7f:2c:d2:b9:
                    71:1b:e5:90:4f:d2:46:03:f9:15:df:69:f2:1e:4e:
                    64:04:08:81:70:b2:69:dc:df:2b:68:9e:5f:87:ce:
                    bf:a0:e8:6d:b0:d7:6a:8d:58:e2:f7:0e:aa:f1:80:
                    e7:3f:f5:47:99:2a:e4:df:e0:44:4c:ef:1d:5c:7c:
                    19:80:de:47:96:d0:cf:0f:a8:9f:6b:55:21:bb:cf:
                    32:eb:79:a8:28:43:cd:69:9a:55:95:b6:d1:6b:65:
                    6b:76:3c:0a:ba:0c:7e:c1:11:d3:7e:71:b2:04:6b:
                    a6:d2:14:e9:81:5b:6e:2b:f9:32:71:c4:37:3d:5f:
                    de:71:5c:d7:42:fc:b6:27:7d:bf:6d:37:ed:60:3c:
                    37:75:6d:c8:de:11:d3:c8:83:41:0c:a9:bd:01:b5:
                    f7:1a:52:36:68:8e:8c:27:b8:8b:74:e1:f7:1a:7a:
                    de:0e:69:5a:28:fc:73:61:cb:d5:cc:1a:aa:a8:1d:
                    07:87
                Exponent: 65537 (0x10001)
        X509v3 extensions:
            X509v3 Basic Constraints: critical
                CA:FALSE
            X509v3 Subject Key Identifier: 
                E7:8D:C4:21:0B:CE:12:A1:F7:05:E6:52:AF:3B:A6:10:BA:71:68:3D
            X509v3 Authority Key Identifier: 
                keyid:77:3C:D2:AA:A1:C9:7D:FE:B6:90:3F:CB:1B:F6:38:37:0C:28:1A:F7

            X509v3 Extended Key Usage: 
                TLS Web Server Authentication, TLS Web Client Authentication
            X509v3 Subject Alternative Name: 
                IP Address:127.0.0.1
    Signature Algorithm: sha256WithRSAEncryption
         17:ff:16:47:18:ed:d0:b5:54:fb:b6:02:c7:e4:c1:9a:4d:99:
         54:cb:ca:df:75:25:d4:e5:b5:20:74:3d:ac:f9:e2:a1:87:a5:
         d1:a2:da:48:c0:71:12:9f:84:9e:10:70:9c:bd:4c:74:85:90:
         b8:15:9c:b2:fb:f2:4c:03:7c:7a:a6:6e:c4:91:19:93:79:a4:
         47:96:fa:30:15:a3:02:20:d0:07:23:70:16:db:73:aa:6e:61:
         b9:b1:0f:a9:e5:f8:d4:4f:34:19:a1:2e:fa:d6:f0:97:76:8c:
         ff:08:54:8e:dc:a3:49:c9:a3:d8:e0:c3:71:e9:8f:98:3d:dd:
         25:73:c4:da:c3:fa:43:19:48:39:5c:43:8c:30:7a:cf:de:5a:
         c9:ee:8e:2e:88:b0:e7:84:74:5f:d4:91:a6:65:8d:bc:fd:10:
         51:3c:53:32:fe:dd:03:84:9b:b0:64:58:9d:99:b4:bc:5f:ce:
         30:af:67:58:f5:6c:02:67:20:f9:aa:dc:d6:96:fc:00:e8:6d:
         72:48:12:a9:f9:dc:4b:00:26:fb:ab:1f:00:ac:e2:11:f9:36:
         2c:bd:a9:1c:86:b5:77:c6:97:6d:29:ec:3f:d3:94:95:46:54:
         a4:2d:66:7e:9d:d7:1b:ea:21:f7:39:a3:b4:fb:e9:b6:38:4d:
         eb:49:1d:83
-----BEGIN CERTIFICATE-----
MIIDbDCCAlSgAwIBAgICEAAwDQYJKoZIhvcNAQELBQAwDzENMAsGA1UEAwwEQiBD
QTAeFw0xOTEwMTgyMjI0MTBaFw0yOTEwMTUyMjI0MTBaMGAxCzAJBgNVBAYTAlVT
MRMwEQYDVQQIDApDYWxpZm9ybmlhMRYwFAYDVQQHDA1Nb3VudGFpbiBWaWV3MRAw
DgYDVQQKDAdUZXN0IENBMRIwEAYDVQQDDAkxMjcuMC4wLjEwggEiMA0GCSqGSIb3
DQEBAQUAA4IBDwAwggEKAoIBAQDsdrSxnyz5qQNrJRBll0qjD5zDYW41+A+X2rDM
DONOaLlO9OODtjvoCRBg5KUJ2y9a/Vsui77szkLD7h4lJPTlxGyFNxgtfyzSuXEb
5ZBP0kYD+RXfafIeTmQECIFwsmnc3ytonl+Hzr+g6G2w12qNWOL3DqrxgOc/9UeZ
KuTf4ERM7x1cfBmA3keW0M8PqJ9rVSG7zzLreagoQ81pmlWVttFrZWt2PAq6DH7B
EdN+cbIEa6bSFOmBW24r+TJxxDc9X95xXNdC/LYnfb9tN+1gPDd1bcjeEdPIg0EM
qb0BtfcaUjZojownuIt04fcaet4OaVoo/HNhy9XMGqqoHQeHAgMBAAGjgYAwfjAM
BgNVHRMBAf8EAjAAMB0GA1UdDgQWBBTnjcQhC84SofcF5lKvO6YQunFoPTAfBgNV
HSMEGDAWgBR3PNKqocl9/raQP8sb9jg3DCga9zAdBgNVHSUEFjAUBggrBgEFBQcD
AQYIKwYBBQUHAwIwDwYDVR0RBAgwBocEfwAAATANBgkqhkiG9w0BAQsFAAOCAQEA
F/8WRxjt0LVU+7YCx+TBmk2ZVMvK33Ul1OW1IHQ9rPnioYel0aLaSMBxEp+EnhBw
nL1MdIWQuBWcsvvyTAN8eqZuxJEZk3mkR5b6MBWjAiDQByNwFttzqm5hubEPqeX4
1E80GaEu+tbwl3aM/whUjtyjScmj2ODDcemPmD3dJXPE2sP6QxlIOVxDjDB6z95a
ye6OLoiw54R0X9SRpmWNvP0QUTxTMv7dA4SbsGRYnZm0vF/OMK9nWPVsAmcg+arc
1pb8AOhtckgSqfncSwAm+6sfAKziEfk2LL2pHIa1d8aXbSnsP9OUlUZUpC1mfp3X
G+oh9zmjtPvptjhN60kdgw==
-----END CERTIFICATE-----
Certificate:
    Data:
        Version: 3 (0x2)
        Serial Number: 4097 (0x1001)
        Signature Algorithm: sha256WithRSAEncryption
        Issuer: CN=C CA
        Validity
            Not Before: Oct 18 22:24:10 2019 GMT
            Not After : Oct 15 22:24:10 2029 GMT
        Subject: CN=B CA
        Subject Public Key Info:
            Public Key Algorithm: rsaEncryption
                RSA Public-Key: (2048 bit)
                Modulus:
                    00:96:bf:0b:a1:79:f7:12:d1:8c:ec:e3:63:4a:c7:
                    30:53:10:0d:60:41:84:27:99:f0:9f:a4:9e:ec:19:
                    24:28:80:0b:8e:55:0c:13:ab:16:72:2b:43:aa:ac:
                    fa:0f:b2:47:ae:a3:a2:8d:66:85:2b:2f:b1:c6:f2:
                    bd:b6:5e:3b:d1:2b:0d:c2:bc:96:4f:d9:5f:2c:74:
                    7b:7f:2a:2c:52:84:f6:71:a7:87:df:d3:4e:be:e7:
                    53:70:cd:f0:47:5b:e4:5b:5b:64:49:37:5b:93:99:
                    09:78:22:f2:04:9e:af:aa:91:f6:22:a5:59:5d:9e:
                    c7:cd:c5:11:1a:9e:99:3b:19:ad:51:59:f5:0e:ec:
                    30:f2:7e:64:33:91:cd:f0:26:12:fe:cb:f2:6e:67:
                    a2:ec:94:6e:b2:97:3e:51:c0:ca:0a:e4:8a:f3:c6:
                    fa:cd:55:95:11:57:5e:bd:9b:b9:70:d4:04:af:f2:
                    c8:5e:1e:fb:b3:d7:03:0a:0e:be:cf:fa:c7:97:63:
                    7a:e0:b4:22:07:a7:18:b6:a7:1a:d5:23:26:c1:c4:
                    39:83:3c:45:53:9d:fd:a4:17:62:8d:bd:f2:4b:40:
                    d3:85:1d:06:3a:24:4f:8f:65:77:cd:c9:e8:64:a4:
                    55:16:20:8f:17:5c:f1:6b:75:db:8e:ac:eb:2c:97:
                    28:09
                Exponent: 65537 (0x10001)
        X509v3 extensions:
            X509v3 Basic Constraints: critical
                CA:TRUE
            X509v3 Subject Key Identifier: 
                77:3C:D2:AA:A1:C9:7D:FE:B6:90:3F:CB:1B:F6:38:37:0C:28:1A:F7
            X509v3 Key Usage: critical
                Certificate Sign, CRL Sign
    Signature Algorithm: sha256WithRSAEncryption
         8c:35:9a:a4:61:08:6e:60:d9:9e:af:ab:22:89:ca:ca:39:03:
         9c:5d:4e:5f:dc:e5:dc:33:ce:19:af:19:fd:db:c9:a7:ca:d8:
         65:73:42:73:35:70:57:99:f0:e0:b5:c8:79:31:72:f4:85:d8:
         3d:20:04:cb:28:dc:22:bf:ce:43:7f:72:39:7e:b4:aa:c2:a4:
         e4:25:dd:af:0e:8c:a9:fc:23:a8:4e:3d:52:fe:d4:27:dd:08:
         de:4c:b6:6c:9c:9c:11:87:11:6e:cb:f0:43:38:4b:62:71:e7:
         09:d0:01:3f:5c:51:03:41:06:03:76:27:17:15:19:26:a4:6d:
         17:63:3e:00:d3:d4:02:17:33:17:87:57:9d:33:b5:7e:76:98:
         3c:a5:68:da:e6:08:76:c5:3b:ea:6a:58:4c:16:da:92:d4:b3:
         a6:d0:2e:4d:07:7d:ed:57:fa:e1:2a:09:bc:1e:4c:94:3e:f2:
         11:41:4c:03:a8:08:a4:4c:7a:f1:42:f2:8f:ae:d5:15:5a:c5:
         22:d3:b0:d8:d5:1d:10:6a:ee:ed:a1:4d:b4:2c:33:e2:0b:c3:
         92:91:c7:c9:f4:f4:2c:53:8a:f6:1a:80:ff:dc:b3:91:2d:51:
         0d:cf:e8:d3:89:3f:b1:90:76:44:8f:b1:f9:c1:60:4d:03:28:
         74:72:ba:26
-----BEGIN CERTIFICATE-----
MIIC3DCCAcSgAwIBAgICEAEwDQYJKoZIhvcNAQELBQAwDzENMAsGA1UEAwwEQyBD
QTAeFw0xOTEwMTgyMjI0MTBaFw0yOTEwMTUyMjI0MTBaMA8xDTALBgNVBAMMBEIg
Q0EwggEiMA0GCSqGSIb3DQEBAQUAA4IBDwAwggEKAoIBAQCWvwuhefcS0Yzs42NK
xzBTEA1gQYQnmfCfpJ7sGSQogAuOVQwTqxZyK0OqrPoPskeuo6KNZoUrL7HG8r22
XjvRKw3CvJZP2V8sdHt/KixShPZxp4ff006+51NwzfBHW+RbW2RJN1uTmQl4IvIE
nq+qkfYipVldnsfNxREanpk7Ga1RWfUO7DDyfmQzkc3wJhL+y/JuZ6LslG6ylz5R
wMoK5IrzxvrNVZURV169m7lw1ASv8sheHvuz1wMKDr7P+seXY3rgtCIHpxi2pxrV
IybBxDmDPEVTnf2kF2KNvfJLQNOFHQY6JE+PZXfNyehkpFUWII8XXPFrdduOrOss
lygJAgMBAAGjQjBAMA8GA1UdEwEB/wQFMAMBAf8wHQYDVR0OBBYEFHc80qqhyX3+
tpA/yxv2ODcMKBr3MA4GA1UdDwEB/wQEAwIBBjANBgkqhkiG9w0BAQsFAAOCAQEA
jDWapGEIbmDZnq+rIonKyjkDnF1OX9zl3DPOGa8Z/dvJp8rYZXNCczVwV5nw4LXI
eTFy9IXYPSAEyyjcIr/OQ39yOX60qsKk5CXdrw6MqfwjqE49Uv7UJ90I3ky2bJyc
EYcRbsvwQzhLYnHnCdABP1xRA0EGA3YnFxUZJqRtF2M+ANPUAhczF4dXnTO1fnaY
PKVo2uYIdsU76mpYTBbaktSzptAuTQd97Vf64SoJvB5MlD7yEUFMA6gIpEx68ULy
j67VFVrFItOw2NUdEGru7aFNtCwz4gvDkpHHyfT0LFOK9hqA/9yzkS1RDc/o04k/
sZB2RI+x+cFgTQModHK6Jg==
-----END CERTIFICATE-----
Certificate:
    Data:
        Version: 3 (0x2)
        Serial Number: 4099 (0x1003)
        Signature Algorithm: sha256WithRSAEncryption
        Issuer: CN=D Root CA
        Validity
            Not Before: Oct 18 22:24:10 2019 GMT
            Not After : Oct 15 22:24:10 2029 GMT
        Subject: CN=C CA
        Subject Public Key Info:
            Public Key Algorithm: rsaEncryption
                RSA Public-Key: (2048 bit)
                Modulus:
                    00:97:21:4e:ff:ff:22:dd:de:6d:cc:05:75:3b:37:
                    80:28:9f:61:8b:a2:ac:9b:3b:b1:e6:3a:a4:35:ce:
                    7b:95:ce:d2:2f:95:f1:c2:51:c2:9d:21:71:dd:06:
                    3a:eb:67:68:59:2d:f6:19:b1:7d:98:06:c2:c4:19:
                    34:2a:00:0a:f1:0a:0b:76:39:ba:0f:e9:69:bc:14:
                    c9:fa:38:b4:f6:38:55:45:3d:21:c7:b8:20:e3:47:
                    ac:5b:9e:ec:7f:a9:8b:72:00:79:5c:25:13:01:86:
                    a9:6a:d9:12:b1:d2:3a:a1:cc:e5:e0:63:b2:0d:ea:
                    aa:a7:42:f9:de:cf:de:e0:15:9b:6e:cd:86:81:d8:
                    5f:3f:a1:7b:bc:97:31:40:0e:17:a3:aa:c4:48:5a:
                    5c:c8:e5:89:92:68:85:08:6c:cb:31:35:9c:fb:1e:
                    d3:66:35:ee:d9:d7:ea:b8:5c:3e:d0:60:94:4c:3d:
                    2b:21:6b:72:b8:3a:16:e4:f1:ea:97:74:0c:cf:27:
                    a5:03:c1:b7:c3:d9:4d:5a:3d:c5:8e:3f:ca:99:b4:
                    b6:59:c6:9f:22:38:0d:4d:c7:f7:11:f8:d0:71:99:
                    5d:4b:e2:30:62:00:fb:01:c9:ca:3e:ed:6a:d8:6d:
                    2d:0f:1a:77:33:02:b4:41:b3:ba:f6:1c:38:be:54:
                    c9:73
                Exponent: 65537 (0x10001)
        X509v3 extensions:
            X509v3 Basic Constraints: critical
                CA:TRUE
            X509v3 Subject Key Identifier: 
                63:B1:47:26:FC:DB:79:3F:76:96:69:4D:EA:7E:D0:B7:6A:D2:3F:A8
            X509v3 Key Usage: critical
                Certificate Sign, CRL Sign
    Signature Algorithm: sha256WithRSAEncryption
         b2:52:23:e9:38:02:24:58:bf:cb:b4:62:f3:97:74:9a:24:4a:
         aa:c6:bd:59:5b:d7:33:a4:7e:8f:10:3a:09:44:a3:a1:90:f2:
         32:c2:e9:a7:e5:16:ca:c9:6c:a1:4e:94:8a:e6:f0:dd:f2:59:
         2c:7c:62:84:c8:28:e2:5f:f1:6f:c7:04:21:49:3f:24:8f:fb:
         4c:38:1c:3a:5d:18:e9:f2:5d:28:5c:a8:ce:01:12:aa:17:f2:
         c0:bb:87:43:70:d7:8a:59:e7:80:38:ef:df:72:b3:1c:70:88:
         a8:65:66:40:b3:25:1d:57:f4:a8:c1:34:e6:30:1e:2d:b5:b7:
         fb:1f:99:4b:e1:fa:03:af:79:4e:5f:3c:39:02:14:e6:8b:06:
         1b:5b:34:c7:c1:c0:30:48:2e:1c:16:ab:6b:4f:25:37:1e:a7:
         f1:fd:09:29:23:ae:89:21:31:fd:64:7c:67:37:ca:bc:26:47:
         fd:aa:d5:45:84:e1:27:47:fb:cb:05:10:cc:5b:55:f2:fb:c1:
         08:55:89:43:0c:36:5e:4f:16:3b:35:3c:1c:61:59:90:ae:8a:
         a3:53:4d:23:da:22:80:36:5c:e9:ff:49:9e:94:eb:4f:6c:15:
         d0:4c:6c:8b:21:eb:18:24:44:d8:72:4e:de:5f:47:d2:6c:55:
         dd:4f:c6:81
-----BEGIN CERTIFICATE-----
MIIC4TCCAcmgAwIBAgICEAMwDQYJKoZIhvcNAQELBQAwFDESMBAGA1UEAwwJRCBS
b290IENBMB4XDTE5MTAxODIyMjQxMFoXDTI5MTAxNTIyMjQxMFowDzENMAsGA1UE
AwwEQyBDQTCCASIwDQYJKoZIhvcNAQEBBQADggEPADCCAQoCggEBAJchTv//It3e
bcwFdTs3gCifYYuirJs7seY6pDXOe5XO0i+V8cJRwp0hcd0GOutnaFkt9hmxfZgG
wsQZNCoACvEKC3Y5ug/pabwUyfo4tPY4VUU9Ice4IONHrFue7H+pi3IAeVwlEwGG
qWrZErHSOqHM5eBjsg3qqqdC+d7P3uAVm27NhoHYXz+he7yXMUAOF6OqxEhaXMjl
iZJohQhsyzE1nPse02Y17tnX6rhcPtBglEw9KyFrcrg6FuTx6pd0DM8npQPBt8PZ
TVo9xY4/ypm0tlnGnyI4DU3H9xH40HGZXUviMGIA+wHJyj7tathtLQ8adzMCtEGz
uvYcOL5UyXMCAwEAAaNCMEAwDwYDVR0TAQH/BAUwAwEB/zAdBgNVHQ4EFgQUY7FH
JvzbeT92lmlN6n7Qt2rSP6gwDgYDVR0PAQH/BAQDAgEGMA0GCSqGSIb3DQEBCwUA
A4IBAQCyUiPpOAIkWL/LtGLzl3SaJEqqxr1ZW9czpH6PEDoJRKOhkPIywumn5RbK
yWyhTpSK5vDd8lksfGKEyCjiX/FvxwQhST8kj/tMOBw6XRjp8l0oXKjOARKqF/LA
u4dDcNeKWeeAOO/fcrMccIioZWZAsyUdV/SowTTmMB4ttbf7H5lL4foDr3lOXzw5
AhTmiwYbWzTHwcAwSC4cFqtrTyU3Hqfx/QkpI66JITH9ZHxnN8q8Jkf9qtVFhOEn
R/vLBRDMW1Xy+8EIVYlDDDZeTxY7NTwcYVmQroqjU00j2iKANlzp/0melOtPbBXQ
TGyLIesYJETYck7eX0fSbFXdT8aB
-----END CERTIFICATE-----
Certificate:
    Data:
        Version: 3 (0x2)
        Serial Number:
            37:4c:99:18:7e:b3:0c:6e:53:25:45:1c:0c:89:17:9a:88:0c:86:44
        Signature Algorithm: sha256WithRSAEncryption
        Issuer: CN = D Root CA
        Validity
            Not Before: Oct 18 22:24:10 2019 GMT
            Not After : Oct 15 22:24:10 2029 GMT
        Subject: CN = D Root CA
        Subject Public Key Info:
            Public Key Algorithm: rsaEncryption
                RSA Public-Key: (2048 bit)
                Modulus:
                    00:dc:15:a5:eb:d7:9f:c0:de:cc:53:f2:2e:f2:d6:
                    e4:22:66:16:f9:39:25:0c:f9:c4:51:19:1c:7f:ca:
                    16:64:fb:c1:8f:18:b4:77:cc:c1:6f:99:ce:54:59:
                    2a:e8:5f:14:fc:2f:58:51:ed:01:bb:31:93:13:9a:
                    f5:49:07:f7:e8:ae:fa:34:78:1b:d2:1e:3a:c8:4a:
                    a4:30:c5:5c:22:09:ad:3d:b8:cc:0c:56:24:ba:fd:
                    ab:b8:2d:dd:92:e3:f4:88:a3:64:f0:e6:b6:f9:f2:
                    ac:86:3c:77:e0:19:26:4b:0e:dc:f1:97:05:9e:13:
                    de:0c:1d:72:47:ec:ed:1c:09:18:f8:f3:7d:55:ba:
                    59:06:9f:3a:5f:08:ee:cd:35:b2:3c:29:e1:fb:4a:
                    a3:4d:1c:fa:59:62:da:ac:13:bc:ad:d2:da:9c:e8:
                    ee:10:e8:36:e2:97:04:e3:04:ca:af:d6:97:7e:e9:
                    44:86:8d:46:9f:7d:58:2f:be:0a:1d:34:7c:e3:f0:
                    0b:9a:50:78:ff:d2:ee:6d:4c:2a:b0:e6:a5:80:45:
                    4c:9c:dd:a6:df:93:6d:ae:e7:98:c2:4b:c4:c5:d6:
                    55:9a:d4:df:ba:00:a5:0f:1d:23:b4:63:75:cc:c7:
                    ff:08:8e:1c:77:bb:6b:cb:cc:b4:e0:81:ff:56:fa:
                    45:b3
                Exponent: 65537 (0x10001)
        X509v3 extensions:
            X509v3 Basic Constraints: critical
                CA:TRUE
            X509v3 Subject Key Identifier: 
                EE:13:A0:76:5C:58:BE:8C:5A:67:31:CA:23:35:67:55:0D:51:0E:12
            X509v3 Key Usage: critical
                Certificate Sign, CRL Sign
    Signature Algorithm: sha256WithRSAEncryption
         3d:ad:ea:a5:49:bb:c6:f0:0a:5c:2a:2a:8c:be:7f:24:9d:55:
         83:85:78:cb:c5:02:5a:eb:cd:f5:36:aa:df:32:8b:3f:19:f6:
         c0:9e:66:20:12:81:e9:e1:39:48:31:e8:92:c8:b1:af:fa:1f:
         b7:07:8b:54:2e:d2:55:79:c8:c8:44:75:b0:fe:d7:d2:8d:93:
         58:82:eb:ff:49:69:93:63:de:df:19:ba:e0:a3:79:41:48:2c:
         18:f4:33:a5:de:d9:00:da:e7:05:7e:88:74:8c:df:01:ec:17:
         f8:37:81:eb:00:4e:03:9b:0a:09:15:4d:b1:f5:72:fe:8a:1f:
         c0:f9:c6:26:3b:13:52:c3:59:c7:bf:cc:1e:79:a6:93:62:65:
         56:25:e2:58:8b:df:db:2a:4f:a7:6a:33:f7:f9:d1:99:42:be:
         ee:dc:e4:a1:34:23:9b:40:77:d5:e4:45:b3:b1:93:9a:d0:48:
         0a:34:31:c8:f1:60:1c:fe:10:76:74:7e:f5:96:47:19:ef:3a:
         84:b2:0e:f3:74:23:91:9b:3f:51:7c:e4:3a:b5:40:50:ba:c6:
         58:f9:ea:c8:b6:5c:1d:76:ac:ac:23:d0:f1:13:86:fb:4d:19:
         1d:99:32:21:f7:56:8a:7f:c3:90:ca:51:3a:73:a1:27:64:6b:
         1d:9b:53:1d
-----BEGIN CERTIFICATE-----
MIIC+DCCAeCgAwIBAgIUN0yZGH6zDG5TJUUcDIkXmogMhkQwDQYJKoZIhvcNAQEL
BQAwFDESMBAGA1UEAwwJRCBSb290IENBMB4XDTE5MTAxODIyMjQxMFoXDTI5MTAx
NTIyMjQxMFowFDESMBAGA1UEAwwJRCBSb290IENBMIIBIjANBgkqhkiG9w0BAQEF
AAOCAQ8AMIIBCgKCAQEA3BWl69efwN7MU/Iu8tbkImYW+TklDPnEURkcf8oWZPvB
jxi0d8zBb5nOVFkq6F8U/C9YUe0BuzGTE5r1SQf36K76NHgb0h46yEqkMMVcIgmt
PbjMDFYkuv2ruC3dkuP0iKNk8Oa2+fKshjx34BkmSw7c8ZcFnhPeDB1yR+ztHAkY
+PN9VbpZBp86XwjuzTWyPCnh+0qjTRz6WWLarBO8rdLanOjuEOg24pcE4wTKr9aX
fulEho1Gn31YL74KHTR84/ALmlB4/9LubUwqsOalgEVMnN2m35NtrueYwkvExdZV
mtTfugClDx0jtGN1zMf/CI4cd7try8y04IH/VvpFswIDAQABo0IwQDAPBgNVHRMB
Af8EBTADAQH/MB0GA1UdDgQWBBTuE6B2XFi+jFpnMcojNWdVDVEOEjAOBgNVHQ8B
Af8EBAMCAQYwDQYJKoZIhvcNAQELBQADggEBAD2t6qVJu8bwClwqKoy+fySdVYOF
eMvFAlrrzfU2qt8yiz8Z9sCeZiASgenhOUgx6JLIsa/6H7cHi1Qu0lV5yMhEdbD+
19KNk1iC6/9JaZNj3t8ZuuCjeUFILBj0M6Xe2QDa5wV+iHSM3wHsF/g3gesATgOb
CgkVTbH1cv6KH8D5xiY7E1LDWce/zB55ppNiZVYl4liL39sqT6dqM/f50ZlCvu7c
5KE0I5tAd9XkRbOxk5rQSAo0McjxYBz+EHZ0fvWWRxnvOoSyDvN0I5GbP1F85Dq1
QFC6xlj56si2XB12rKwj0PEThvtNGR2ZMiH3Vop/w5DKUTpzoSdkax2bUx0=
-----END CERTIFICATE-----
