Certificate:
    Data:
        Version: 3 (0x2)
        Serial Number:
            7d:19:e5:55:d1:85:7c:54:62:f6:56:00:7a:cf:78:a9:38:29:81:ff
        Signature Algorithm: sha256WithRSAEncryption
        Issuer: CN = C CA
        Validity
            Not Before: Oct 18 22:24:10 2019 GMT
            Not After : Oct 15 22:24:10 2029 GMT
        Subject: CN = C CA
        Subject Public Key Info:
            Public Key Algorithm: rsaEncryption
                RSA Public-Key: (2048 bit)
                Modulus:
                    00:97:21:4e:ff:ff:22:dd:de:6d:cc:05:75:3b:37:
                    80:28:9f:61:8b:a2:ac:9b:3b:b1:e6:3a:a4:35:ce:
                    7b:95:ce:d2:2f:95:f1:c2:51:c2:9d:21:71:dd:06:
                    3a:eb:67:68:59:2d:f6:19:b1:7d:98:06:c2:c4:19:
                    34:2a:00:0a:f1:0a:0b:76:39:ba:0f:e9:69:bc:14:
                    c9:fa:38:b4:f6:38:55:45:3d:21:c7:b8:20:e3:47:
                    ac:5b:9e:ec:7f:a9:8b:72:00:79:5c:25:13:01:86:
                    a9:6a:d9:12:b1:d2:3a:a1:cc:e5:e0:63:b2:0d:ea:
                    aa:a7:42:f9:de:cf:de:e0:15:9b:6e:cd:86:81:d8:
                    5f:3f:a1:7b:bc:97:31:40:0e:17:a3:aa:c4:48:5a:
                    5c:c8:e5:89:92:68:85:08:6c:cb:31:35:9c:fb:1e:
                    d3:66:35:ee:d9:d7:ea:b8:5c:3e:d0:60:94:4c:3d:
                    2b:21:6b:72:b8:3a:16:e4:f1:ea:97:74:0c:cf:27:
                    a5:03:c1:b7:c3:d9:4d:5a:3d:c5:8e:3f:ca:99:b4:
                    b6:59:c6:9f:22:38:0d:4d:c7:f7:11:f8:d0:71:99:
                    5d:4b:e2:30:62:00:fb:01:c9:ca:3e:ed:6a:d8:6d:
                    2d:0f:1a:77:33:02:b4:41:b3:ba:f6:1c:38:be:54:
                    c9:73
                Exponent: 65537 (0x10001)
        X509v3 extensions:
            X509v3 Basic Constraints: critical
                CA:TRUE
            X509v3 Subject Key Identifier: 
                63:B1:47:26:FC:DB:79:3F:76:96:69:4D:EA:7E:D0:B7:6A:D2:3F:A8
            X509v3 Key Usage: critical
                Certificate Sign, CRL Sign
    Signature Algorithm: sha256WithRSAEncryption
         8e:4d:6c:49:c9:9c:f9:cb:a0:81:9b:65:31:c7:bc:8c:c0:75:
         4d:60:16:ef:bb:b6:b4:2a:5d:68:34:d7:e0:53:1f:3e:84:b6:
         aa:7d:fd:a1:c9:29:88:83:2e:ab:f3:87:43:a8:d8:5c:a8:1b:
         e0:58:50:84:03:05:15:03:01:07:30:d0:4a:f9:95:f1:86:be:
         45:5b:31:f0:88:12:22:d7:7a:fb:0b:9f:95:41:ba:df:40:e3:
         b2:71:e7:4e:09:91:1c:5f:51:b3:ce:a5:00:0b:82:d1:04:f2:
         1c:5a:14:4b:1b:3f:2d:41:11:7c:33:37:89:56:b4:b7:fa:d8:
         b9:20:8d:bd:a6:68:60:2a:3c:aa:61:38:74:d4:0a:16:41:70:
         d8:75:c4:6d:04:a8:b6:a5:0f:e7:02:52:0b:7d:44:d6:1b:2f:
         ca:06:aa:61:3d:8d:82:3f:34:c5:bb:08:69:6f:6c:b7:53:e5:
         52:3d:dd:7b:1c:1f:d3:7d:38:43:ca:c7:75:9a:a8:a1:93:27:
         13:b0:57:1a:ff:22:90:1f:b2:69:da:7a:a4:2f:16:51:fa:81:
         6c:ed:c0:19:42:58:b5:21:67:c1:54:93:db:55:86:c7:97:09:
         76:18:32:55:2a:b4:b1:ac:12:bc:3f:00:3d:b5:1c:ef:55:c4:
         f0:6c:a1:17
-----BEGIN CERTIFICATE-----
MIIC7jCCAdagAwIBAgIUfRnlVdGFfFRi9lYAes94qTgpgf8wDQYJKoZIhvcNAQEL
BQAwDzENMAsGA1UEAwwEQyBDQTAeFw0xOTEwMTgyMjI0MTBaFw0yOTEwMTUyMjI0
MTBaMA8xDTALBgNVBAMMBEMgQ0EwggEiMA0GCSqGSIb3DQEBAQUAA4IBDwAwggEK
AoIBAQCXIU7//yLd3m3MBXU7N4Aon2GLoqybO7HmOqQ1znuVztIvlfHCUcKdIXHd
BjrrZ2hZLfYZsX2YBsLEGTQqAArxCgt2OboP6Wm8FMn6OLT2OFVFPSHHuCDjR6xb
nux/qYtyAHlcJRMBhqlq2RKx0jqhzOXgY7IN6qqnQvnez97gFZtuzYaB2F8/oXu8
lzFADhejqsRIWlzI5YmSaIUIbMsxNZz7HtNmNe7Z1+q4XD7QYJRMPSsha3K4Ohbk
8eqXdAzPJ6UDwbfD2U1aPcWOP8qZtLZZxp8iOA1Nx/cR+NBxmV1L4jBiAPsByco+
7WrYbS0PGnczArRBs7r2HDi+VMlzAgMBAAGjQjBAMA8GA1UdEwEB/wQFMAMBAf8w
HQYDVR0OBBYEFGOxRyb823k/dpZpTep+0Ldq0j+oMA4GA1UdDwEB/wQEAwIBBjAN
BgkqhkiG9w0BAQsFAAOCAQEAjk1sScmc+cuggZtlMce8jMB1TWAW77u2tCpdaDTX
4FMfPoS2qn39ockpiIMuq/OHQ6jYXKgb4FhQhAMFFQMBBzDQSvmV8Ya+RVsx8IgS
Itd6+wuflUG630DjsnHnTgmRHF9Rs86lAAuC0QTyHFoUSxs/LUERfDM3iVa0t/rY
uSCNvaZoYCo8qmE4dNQKFkFw2HXEbQSotqUP5wJSC31E1hsvygaqYT2Ngj80xbsI
aW9st1PlUj3dexwf0304Q8rHdZqooZMnE7BXGv8ikB+yadp6pC8WUfqBbO3AGUJY
tSFnwVST21WGx5cJdhgyVSq0sawSvD8APbUc71XE8GyhFw==
-----END CERTIFICATE-----
