Certificate:
    Data:
        Version: 3 (0x2)
        Serial Number:
            6c:1d:7a:e2:b9:1c:2d:09:02:53:44:45:4e:95:06:dc:d5:64:0b:1d
        Signature Algorithm: sha256WithRSAEncryption
        Issuer: CN = webmail
        Validity
            Not Before: Mar 13 20:46:17 2020 GMT
            Not After : Mar 13 20:46:17 2022 GMT
        Subject: CN = webmail
        Subject Public Key Info:
            Public Key Algorithm: rsaEncryption
                RSA Public-Key: (2048 bit)
                Modulus:
                    00:af:63:3b:72:45:a9:9e:9a:ea:4d:00:50:51:b0:
                    94:52:a1:41:21:fa:cd:20:bd:2d:e8:05:16:5f:41:
                    7c:58:4a:cb:af:f1:d3:23:af:d2:4f:2e:52:f3:f7:
                    df:4b:57:27:ab:43:01:5f:01:2f:c0:5d:a3:a2:15:
                    ff:78:f5:c2:df:50:41:f6:c4:7b:0f:b4:7f:a3:fe:
                    d1:7b:58:4f:92:28:8b:11:12:9d:d5:24:7d:ed:08:
                    60:aa:1a:09:9d:e5:57:d2:ae:fe:01:02:a9:91:7b:
                    e5:42:a6:58:d6:f8:56:3d:9f:59:38:de:ed:d2:05:
                    8f:26:2a:2d:b1:c9:bf:16:2b:55:20:cc:d9:66:50:
                    45:f6:c0:ad:7a:19:19:aa:06:17:ad:41:79:1b:f1:
                    9c:fc:ee:04:63:e4:0b:c7:b9:ad:89:4b:a2:b5:f7:
                    75:1d:73:06:c8:cd:82:0d:1b:d0:be:fb:0d:e9:34:
                    3f:4c:09:cc:31:eb:cd:a5:fa:a7:d9:01:0b:d4:c8:
                    58:f0:1f:e4:cd:ed:77:f8:d3:08:14:3f:30:d7:6f:
                    ba:e8:ee:fd:27:09:8a:96:03:0e:3f:5d:59:d3:c8:
                    97:19:e7:0e:0b:9d:34:9d:0c:06:7d:38:66:3e:52:
                    59:58:4b:53:8f:ed:eb:36:5b:81:16:62:74:8e:71:
                    b8:3b
                Exponent: 65537 (0x10001)
        X509v3 extensions:
            X509v3 Subject Alternative Name: 
                DNS:webmail
    Signature Algorithm: sha256WithRSAEncryption
         5a:7a:bd:21:d7:17:c0:4c:2c:20:cf:88:a3:c9:10:46:33:0b:
         97:b4:41:c2:a2:3a:f8:1d:f5:f7:b6:9d:f3:60:21:60:61:d9:
         ef:17:a4:89:f1:31:d0:f7:47:75:89:22:da:78:ae:78:c4:6f:
         f2:f0:1c:ab:b7:1e:12:45:e6:3d:e6:75:27:40:33:03:12:71:
         96:23:a3:e6:2a:8f:5e:82:42:43:aa:41:cf:63:f7:d6:53:32:
         38:09:5b:38:b3:97:ea:ae:1e:e5:e4:03:1c:32:67:9f:d5:87:
         07:ec:8d:17:c0:c6:7e:c1:45:9a:4e:06:04:b8:34:66:06:cf:
         68:4e:00:a8:a9:d7:7d:15:d5:1f:53:6f:23:d5:b1:b4:d7:8a:
         2e:ea:39:88:b3:a8:44:a0:3b:29:52:78:55:b0:74:9c:cf:17:
         32:2d:20:ed:ae:51:5f:7d:3b:02:56:14:36:e0:21:db:5a:c7:
         dc:1f:ec:94:45:84:e2:9b:4c:b5:45:5a:06:f1:d7:8b:63:fe:
         f0:cf:3d:ae:0e:cf:f2:e0:73:75:ab:07:31:47:a5:02:9c:b0:
         4c:46:bd:13:b7:59:27:82:a0:9d:7c:a3:0a:6b:6b:82:ef:5f:
         bd:5f:42:fd:b4:f5:67:67:b9:48:b8:7d:76:25:49:20:c1:0e:
         f5:6b:56:d8
-----BEGIN CERTIFICATE-----
MIICyDCCAbCgAwIBAgIUbB164rkcLQkCU0RFTpUG3NVkCx0wDQYJKoZIhvcNAQEL
BQAwEjEQMA4GA1UEAwwHd2VibWFpbDAeFw0yMDAzMTMyMDQ2MTdaFw0yMjAzMTMy
MDQ2MTdaMBIxEDAOBgNVBAMMB3dlYm1haWwwggEiMA0GCSqGSIb3DQEBAQUAA4IB
DwAwggEKAoIBAQCvYztyRamemupNAFBRsJRSoUEh+s0gvS3oBRZfQXxYSsuv8dMj
r9JPLlLz999LVyerQwFfAS/AXaOiFf949cLfUEH2xHsPtH+j/tF7WE+SKIsREp3V
JH3tCGCqGgmd5VfSrv4BAqmRe+VCpljW+FY9n1k43u3SBY8mKi2xyb8WK1UgzNlm
UEX2wK16GRmqBhetQXkb8Zz87gRj5AvHua2JS6K193UdcwbIzYING9C++w3pND9M
Ccwx682l+qfZAQvUyFjwH+TN7Xf40wgUPzDXb7ro7v0nCYqWAw4/XVnTyJcZ5w4L
nTSdDAZ9OGY+UllYS1OP7es2W4EWYnSOcbg7AgMBAAGjFjAUMBIGA1UdEQQLMAmC
B3dlYm1haWwwDQYJKoZIhvcNAQELBQADggEBAFp6vSHXF8BMLCDPiKPJEEYzC5e0
QcKiOvgd9fe2nfNgIWBh2e8XpInxMdD3R3WJItp4rnjEb/LwHKu3HhJF5j3mdSdA
MwMScZYjo+Yqj16CQkOqQc9j99ZTMjgJWzizl+quHuXkAxwyZ5/VhwfsjRfAxn7B
RZpOBgS4NGYGz2hOAKip130V1R9TbyPVsbTXii7qOYizqESgOylSeFWwdJzPFzIt
IO2uUV99OwJWFDbgIdtax9wf7JRFhOKbTLVFWgbx14tj/vDPPa4Oz/Lgc3WrBzFH
pQKcsExGvRO3WSeCoJ18owpra4LvX71fQv209WdnuUi4fXYlSSDBDvVrVtg=
-----END CERTIFICATE-----
