Certificate:
    Data:
        Version: 3 (0x2)
        Serial Number:
            1c:ec:5b:38:01:82:79:ee:12:73:b7:b0:c4:1b:21:a0:48:7e:ed:a7
        Signature Algorithm: sha256WithRSAEncryption
        Issuer: CN = webmail
        Validity
            Not Before: Oct  3 17:20:10 2022 GMT
            Not After : Nov  4 17:20:10 2023 GMT
        Subject: CN = webmail
        Subject Public Key Info:
            Public Key Algorithm: rsaEncryption
                Public-Key: (2048 bit)
                Modulus:
                    00:a5:d9:44:84:86:87:72:47:d4:b1:c0:61:9f:98:
                    a6:d0:9c:e4:62:0c:bf:3f:bc:6d:22:22:e5:fc:23:
                    ac:cf:77:28:fc:94:d5:e4:cc:e8:f2:f6:1a:0b:e7:
                    fe:14:8e:a0:5c:e3:c1:f7:e7:5d:f6:b0:7c:0f:c8:
                    14:e1:19:0a:9f:cc:f7:5e:4c:ed:61:dc:7b:08:b0:
                    a8:67:8c:21:2b:fb:11:61:12:59:50:78:9f:30:70:
                    56:86:57:88:3d:f3:a1:69:ce:46:58:ca:74:44:21:
                    a9:7f:a9:fd:e6:78:41:55:ad:fb:0e:a9:c1:19:bf:
                    a7:9f:01:cc:37:88:2a:8f:e7:37:6a:f1:36:6a:1e:
                    5f:05:fd:df:27:d9:ea:92:fa:2c:c4:19:ef:17:8f:
                    29:0a:12:1f:0d:63:6b:87:e1:7c:54:54:d6:81:1d:
                    e5:ab:da:90:d3:b1:57:7e:a8:b5:b7:cd:a4:2a:2e:
                    d1:60:57:c7:3a:da:62:32:a1:4a:6b:32:75:28:af:
                    f6:3f:1b:02:e2:39:ba:5c:44:70:4a:5b:03:a7:55:
                    d4:61:04:70:99:e9:24:6a:b3:17:66:dc:cb:fe:c1:
                    ba:f2:6f:e6:37:9b:42:76:ce:8c:76:15:75:ef:81:
                    4d:72:f0:24:b9:7c:ef:93:78:eb:98:d9:7d:5c:49:
                    df:29
                Exponent: 65537 (0x10001)
        X509v3 extensions:
            X509v3 Subject Alternative Name: 
                DNS:webmail
            X509v3 Subject Key Identifier: 
                5D:4B:76:AE:F6:B2:4A:59:3B:74:60:C2:A4:D4:0A:0E:E9:EE:76:61
    Signature Algorithm: sha256WithRSAEncryption
    Signature Value:
        21:25:64:a2:e4:eb:ed:b0:10:7e:3e:aa:92:09:7d:93:f8:44:
        92:6a:af:b7:1f:19:52:00:a0:bd:b7:44:88:67:93:e5:76:97:
        9a:5e:2e:55:65:d7:7d:16:0a:55:46:9d:e5:9e:ec:1c:25:33:
        6e:57:5d:5c:92:f2:bd:c9:8a:28:40:5a:77:ec:cd:11:22:20:
        46:35:24:f9:51:70:32:4f:f6:22:34:d7:27:7a:fe:99:aa:36:
        ed:1c:b4:e7:7d:34:69:94:c2:1d:1a:7c:75:4e:4c:32:4a:ca:
        37:32:84:33:90:b9:69:bd:1c:ce:d0:34:bc:81:ed:2e:4a:ca:
        c7:23:7b:38:d5:34:00:8d:b7:d2:81:45:6e:43:eb:6a:bf:09:
        a1:e4:d3:41:02:98:61:cf:13:12:1e:4a:11:d7:54:5a:ed:a4:
        7d:1a:c2:b7:0a:2c:24:bf:f7:34:0d:bd:88:36:7a:dc:46:c7:
        18:aa:2d:28:ca:92:d9:4d:0f:16:85:81:4f:6b:96:70:96:bb:
        60:5a:e8:e1:ea:d1:6f:ac:10:9c:aa:7b:a8:16:46:55:f7:78:
        e1:68:1c:44:ec:72:7d:c9:b3:f2:4b:52:34:a4:3d:53:69:07:
        e2:27:38:6e:cb:2e:e3:d8:5f:b9:60:04:01:20:d0:fc:c7:60:
        03:64:20:6b
-----BEGIN CERTIFICATE-----
MIIC5zCCAc+gAwIBAgIUHOxbOAGCee4Sc7ewxBshoEh+7acwDQYJKoZIhvcNAQEL
BQAwEjEQMA4GA1UEAwwHd2VibWFpbDAeFw0yMjEwMDMxNzIwMTBaFw0yMzExMDQx
NzIwMTBaMBIxEDAOBgNVBAMMB3dlYm1haWwwggEiMA0GCSqGSIb3DQEBAQUAA4IB
DwAwggEKAoIBAQCl2USEhodyR9SxwGGfmKbQnORiDL8/vG0iIuX8I6zPdyj8lNXk
zOjy9hoL5/4UjqBc48H35132sHwPyBThGQqfzPdeTO1h3HsIsKhnjCEr+xFhEllQ
eJ8wcFaGV4g986FpzkZYynREIal/qf3meEFVrfsOqcEZv6efAcw3iCqP5zdq8TZq
Hl8F/d8n2eqS+izEGe8XjykKEh8NY2uH4XxUVNaBHeWr2pDTsVd+qLW3zaQqLtFg
V8c62mIyoUprMnUor/Y/GwLiObpcRHBKWwOnVdRhBHCZ6SRqsxdm3Mv+wbryb+Y3
m0J2zox2FXXvgU1y8CS5fO+TeOuY2X1cSd8pAgMBAAGjNTAzMBIGA1UdEQQLMAmC
B3dlYm1haWwwHQYDVR0OBBYEFF1Ldq72skpZO3RgwqTUCg7p7nZhMA0GCSqGSIb3
DQEBCwUAA4IBAQAhJWSi5OvtsBB+PqqSCX2T+ESSaq+3HxlSAKC9t0SIZ5Pldpea
Xi5VZdd9FgpVRp3lnuwcJTNuV11ckvK9yYooQFp37M0RIiBGNST5UXAyT/YiNNcn
ev6ZqjbtHLTnfTRplMIdGnx1TkwySso3MoQzkLlpvRzO0DS8ge0uSsrHI3s41TQA
jbfSgUVuQ+tqvwmh5NNBAphhzxMSHkoR11Ra7aR9GsK3Ciwkv/c0Db2INnrcRscY
qi0oypLZTQ8WhYFPa5ZwlrtgWujh6tFvrBCcqnuoFkZV93jhaBxE7HJ9ybPyS1I0
pD1TaQfiJzhuyy7j2F+5YAQBIND8x2ADZCBr
-----END CERTIFICATE-----
