Certificate:
    Data:
        Version: 3 (0x2)
        Serial Number:
            34:cd:8e:3d:73:67:62:16:db:4f:d0:6e:14:bf:6e:43:b8:d6:67:e2
        Signature Algorithm: sha256WithRSAEncryption
        Issuer: CN = webmail
        Validity
            Not Before: Dec  1 17:03:42 2021 GMT
            Not After : Jan  2 17:03:42 2023 GMT
        Subject: CN = webmail
        Subject Public Key Info:
            Public Key Algorithm: rsaEncryption
                RSA Public-Key: (2048 bit)
                Modulus:
                    00:9d:57:b5:53:f8:59:0b:78:e7:e2:32:17:cb:95:
                    f1:a6:96:9e:34:fa:8d:cf:3a:73:1d:c4:04:2a:a4:
                    c0:03:d3:ad:f2:8d:81:a0:57:53:88:65:32:a8:fb:
                    fb:de:62:cd:59:e0:cf:d0:2b:0a:0b:2b:0f:fd:a9:
                    bf:55:cb:7e:9c:c2:d3:1b:a0:f4:4e:20:96:ae:54:
                    d3:cc:95:56:40:02:f6:47:ae:eb:23:4a:17:46:da:
                    a1:3c:14:76:4a:69:39:23:93:c9:c4:b8:93:7e:4c:
                    ab:fe:94:62:63:ef:f1:c6:81:5a:b7:76:40:6b:d8:
                    a3:5e:8d:f7:3d:e3:01:6f:cb:5a:5e:70:b0:63:2b:
                    06:6b:3b:55:8f:ec:8c:03:fc:6d:9a:85:2e:30:ef:
                    b7:1b:4c:cc:76:78:99:51:83:2b:6b:4b:52:81:90:
                    59:33:90:0d:83:82:3a:d4:bb:37:94:17:7b:e7:8f:
                    8d:22:79:69:22:80:22:21:a4:25:1d:62:f7:74:8d:
                    b1:fb:83:f5:a7:a4:f1:eb:54:d4:04:cd:9d:f1:9d:
                    50:8d:ba:76:16:63:64:86:0d:23:cb:69:ab:5d:ae:
                    9c:da:aa:9d:a3:05:6f:32:82:5f:89:da:f1:67:28:
                    eb:c4:d1:e5:ca:c3:bb:45:2f:b8:4b:21:3c:00:45:
                    2b:83
                Exponent: 65537 (0x10001)
        X509v3 extensions:
            X509v3 Subject Alternative Name: 
                DNS:webmail
    Signature Algorithm: sha256WithRSAEncryption
         2e:35:65:29:0d:64:5f:47:3a:9a:f0:24:ea:be:fa:2b:d8:d9:
         d3:70:c4:66:7f:20:a2:65:46:07:8c:30:3a:1c:9e:85:32:18:
         53:db:4a:9f:02:f7:17:f7:00:fb:93:ad:26:f8:2c:2a:52:ef:
         19:f3:1b:57:60:70:0c:e3:7d:0f:37:40:b4:f0:4d:fc:61:91:
         d2:6e:59:35:f0:34:bd:26:59:63:39:24:66:aa:b8:a4:46:e2:
         84:8f:0c:7c:36:f8:dc:27:6d:fa:a4:d0:24:59:c5:6d:54:27:
         9b:c9:40:88:a4:60:03:98:58:ed:e0:ce:88:9d:08:37:27:c2:
         c4:d0:6b:4f:3c:46:f6:2d:9d:ee:e5:06:c9:3f:9c:59:ca:aa:
         7a:d3:ba:ca:3f:f3:fc:11:37:7d:52:70:35:a6:96:1c:d7:0b:
         b6:4e:0c:95:2a:f0:08:c2:b4:22:62:99:d0:4d:2d:11:01:0a:
         0b:18:0e:5c:f0:70:dc:42:6b:7a:68:17:37:3c:ca:75:ee:8d:
         e5:e8:36:40:05:cd:60:98:21:1d:9f:6b:33:9d:ab:35:53:cd:
         e8:d2:54:8b:43:49:34:91:cc:6b:45:d3:42:28:76:ed:6d:9c:
         25:44:0e:de:08:b4:83:65:81:5b:4b:fc:e3:ea:c8:b7:c0:27:
         3f:03:81:25
-----BEGIN CERTIFICATE-----
MIICyDCCAbCgAwIBAgIUNM2OPXNnYhbbT9BuFL9uQ7jWZ+IwDQYJKoZIhvcNAQEL
BQAwEjEQMA4GA1UEAwwHd2VibWFpbDAeFw0yMTEyMDExNzAzNDJaFw0yMzAxMDIx
NzAzNDJaMBIxEDAOBgNVBAMMB3dlYm1haWwwggEiMA0GCSqGSIb3DQEBAQUAA4IB
DwAwggEKAoIBAQCdV7VT+FkLeOfiMhfLlfGmlp40+o3POnMdxAQqpMAD063yjYGg
V1OIZTKo+/veYs1Z4M/QKwoLKw/9qb9Vy36cwtMboPROIJauVNPMlVZAAvZHrusj
ShdG2qE8FHZKaTkjk8nEuJN+TKv+lGJj7/HGgVq3dkBr2KNejfc94wFvy1pecLBj
KwZrO1WP7IwD/G2ahS4w77cbTMx2eJlRgytrS1KBkFkzkA2DgjrUuzeUF3vnj40i
eWkigCIhpCUdYvd0jbH7g/WnpPHrVNQEzZ3xnVCNunYWY2SGDSPLaatdrpzaqp2j
BW8ygl+J2vFnKOvE0eXKw7tFL7hLITwARSuDAgMBAAGjFjAUMBIGA1UdEQQLMAmC
B3dlYm1haWwwDQYJKoZIhvcNAQELBQADggEBAC41ZSkNZF9HOprwJOq++ivY2dNw
xGZ/IKJlRgeMMDocnoUyGFPbSp8C9xf3APuTrSb4LCpS7xnzG1dgcAzjfQ83QLTw
TfxhkdJuWTXwNL0mWWM5JGaquKRG4oSPDHw2+Nwnbfqk0CRZxW1UJ5vJQIikYAOY
WO3gzoidCDcnwsTQa088RvYtne7lBsk/nFnKqnrTuso/8/wRN31ScDWmlhzXC7ZO
DJUq8AjCtCJimdBNLREBCgsYDlzwcNxCa3poFzc8ynXujeXoNkAFzWCYIR2fazOd
qzVTzejSVItDSTSRzGtF00Iodu1tnCVEDt4ItINlgVtL/OPqyLfAJz8DgSU=
-----END CERTIFICATE-----
