-----BEGIN PRIVATE KEY-----
MIIEvgIBADANBgkqhkiG9w0BAQEFAASCBKgwggSkAgEAAoIBAQDGgR+Sc7ZYhdmN
rLcg/ce/QLLq+uULUgGPmsHreoDB84mkPtUbYcy1z4CxGtu7JeAYv5JpJlDN5z//
DTy0HxQSq2c33gcDbBJ0gjasw9TTZJ+R7Vv2qXqknJjoZWyU4ctVc674HVCweOV0
/7E3LMsZPaSM53ZOhlw/37PtRSNPVJszxoleEx3dfVmlBzQohicf+p5TTyq2Qq03
EmL1cja2AhJARP7HnpWJQ1FetG7HZ4BYQ77MByi9Wf8cTI2QQvTP/VQAT0hyK+Fn
PIQXaJW/ygd734adVuMy43CHt/g69+NuZRR8u3a3F/FCjG8qNGQQNRSMhfZXv/Nc
VZ2tAxDzAgMBAAECggEAFRDg897ZzB0wUEuzB4pHJ3HLSwqjQgdK6R2IVOAkR/D7
e3W7kfNYETdbNfBev0auuJGkDQqm6qMO9JdICOl/bNfJ1XD3l5JhhwHGoaEKtgBo
usjQyKWFwXBo/ci9tDMeLAxh1izuQjwiRb9Y5D0ZtK0JCHcL5Bt4MMMhyh1bOPDW
xHm4VS7xa6sY9CRAjaDDHMv121xTkt4/fobClhky4TqklxnsGY0TzzRi1QSEYlVZ
pgu/lv9Wp5nsAxwdXuRvY2U360yDHE5sW14r/VEZ6YB3ZTtMNFBVuydr+EAjUxf9
BFconwqwPcnp3rONY79JuUUGo49k3KAs+2tOqV/0+QKBgQDo3R95iOHhVJ/AkprA
ohmhVLsgfySVMGYYrik6ROxQ90NyqI8StD6Abwggk207znC+a3v2Kj8xA/8rRfiF
7jXK+oPW6/2H+ASs9k1l3FqHQ7Wzt/bwZEQBUso+7zYpIchuMcPI7kmNJmG0zl6t
033onQWflytl/1u6eilpMyQZjQKBgQDaOhJT24zK7CeYlaxvVVjgbn0xzu7PajBE
tNmomkyDtaJAROkT9UvvZpBc8uhUeS0WPNLEE73SSt9jNBLcpBVAOCviuWM4emQi
cx+B7PtQF1vP7hCnnFNCCW2geUDI5/YkzJRzVqtb++Ql+nBf3CdkWcwKrAfqC7gM
byx1rMD0fwKBgQCNvFm2Ddz+3BVIj3NmIMRc8Efd5cWMkSLzjr5FW0JDnd0N4w8C
oXcRkYNu4I0yQ9tX6/BNyzUfToF4A2TbkDxpycWJgaaVph6icGB3yYHIpyvnsee6
Ni02aP/1AoEC1C8880lp+bAHG/+In7v9LaeLeFe95bNip+VbQZQHFju42QKBgQCq
OIHzR14bKvn320gVz8zzwzuEjpVY1MuxzB+7lB/63MMivp3QI5aHtskEt7Thr2Or
5OXCbGO0lRKKnyPXV2X8IdSZlWH/u/g/puz8u42Me6vyFRCIrTeEWzZX5jzSeZ1W
Nv3UudYQefsMZL0jCObxL9oouOezeFCn4lAbuhUIoQKBgAHbFk6ubgUTr+XAMqUy
Jkwyr7dhZ+gpZODQGxx8KBw4ky6eERf3DelbVOmrojg36XzU1UpufChQ0iZ8j4k3
tVfGZH7DV96J6ulZIVevCwMh2nHngpVyG6g3v9xozRbW0QWtwwoPsQK8k7ogr++8
H4w57rdYCq9osKtxR3XaqTgM
-----END PRIVATE KEY-----
Certificate:
    Data:
        Version: 3 (0x2)
        Serial Number:
            0b:cc:00:80:c9:a0:0b:a1:c7:09:7c:9f:71:0d:90:92:cf:ee:c7:f4
        Signature Algorithm: sha256WithRSAEncryption
        Issuer: C = US, ST = California, L = Mountain View, O = Test CA, CN = Test Root CA
        Validity
            Not Before: Oct  3 17:20:08 2022 GMT
            Not After : Sep 30 17:20:08 2032 GMT
        Subject: C = US, ST = California, L = Mountain View, O = Test CA, CN = Test Root CA
        Subject Public Key Info:
            Public Key Algorithm: rsaEncryption
                Public-Key: (2048 bit)
                Modulus:
                    00:c6:81:1f:92:73:b6:58:85:d9:8d:ac:b7:20:fd:
                    c7:bf:40:b2:ea:fa:e5:0b:52:01:8f:9a:c1:eb:7a:
                    80:c1:f3:89:a4:3e:d5:1b:61:cc:b5:cf:80:b1:1a:
                    db:bb:25:e0:18:bf:92:69:26:50:cd:e7:3f:ff:0d:
                    3c:b4:1f:14:12:ab:67:37:de:07:03:6c:12:74:82:
                    36:ac:c3:d4:d3:64:9f:91:ed:5b:f6:a9:7a:a4:9c:
                    98:e8:65:6c:94:e1:cb:55:73:ae:f8:1d:50:b0:78:
                    e5:74:ff:b1:37:2c:cb:19:3d:a4:8c:e7:76:4e:86:
                    5c:3f:df:b3:ed:45:23:4f:54:9b:33:c6:89:5e:13:
                    1d:dd:7d:59:a5:07:34:28:86:27:1f:fa:9e:53:4f:
                    2a:b6:42:ad:37:12:62:f5:72:36:b6:02:12:40:44:
                    fe:c7:9e:95:89:43:51:5e:b4:6e:c7:67:80:58:43:
                    be:cc:07:28:bd:59:ff:1c:4c:8d:90:42:f4:cf:fd:
                    54:00:4f:48:72:2b:e1:67:3c:84:17:68:95:bf:ca:
                    07:7b:df:86:9d:56:e3:32:e3:70:87:b7:f8:3a:f7:
                    e3:6e:65:14:7c:bb:76:b7:17:f1:42:8c:6f:2a:34:
                    64:10:35:14:8c:85:f6:57:bf:f3:5c:55:9d:ad:03:
                    10:f3
                Exponent: 65537 (0x10001)
        X509v3 extensions:
            X509v3 Basic Constraints: critical
                CA:TRUE
            X509v3 Subject Key Identifier: 
                9B:26:0B:8A:98:A9:BB:1D:B9:1F:1C:E3:1A:40:33:ED:8E:17:88:AB
            X509v3 Key Usage: critical
                Certificate Sign, CRL Sign
    Signature Algorithm: sha256WithRSAEncryption
    Signature Value:
        39:9a:f6:0e:eb:08:4d:a0:f0:59:b9:91:fe:b5:d8:2e:4d:6b:
        69:69:c5:d2:86:fc:a3:c2:a2:6c:ca:8d:98:1b:d2:fc:64:9b:
        96:b4:47:f9:f4:ed:6f:52:3c:b5:13:f6:1e:71:51:3b:da:54:
        93:c4:1d:94:17:23:76:9a:98:f5:9b:b8:b1:c5:ab:cd:ab:bd:
        1a:c9:00:13:e0:e3:c7:5a:a7:21:71:eb:08:2b:ec:85:5c:08:
        80:33:25:0f:1f:52:41:c4:9b:22:58:01:24:55:ef:9a:a6:ce:
        e4:85:a3:19:33:4d:7e:3f:04:32:15:d5:fc:63:5f:8b:dc:99:
        2b:10:63:56:ac:60:6e:f9:db:9f:63:7b:a8:df:ab:72:28:8a:
        a9:e2:8e:9d:e6:6c:7e:5b:16:ba:94:b2:23:f2:d7:31:5b:de:
        58:a0:8b:be:f4:6a:d2:d3:b4:e6:40:06:78:7a:2d:20:4c:cd:
        9d:20:dd:3b:fc:b9:f3:94:13:b0:6b:18:d7:6b:e8:bf:14:cc:
        87:30:8b:64:3f:ad:59:93:e5:f6:7c:d1:2b:f0:8e:4a:9c:c3:
        34:18:4d:62:33:bd:a6:3a:b6:3f:1f:49:5b:63:b4:01:a8:5c:
        f0:98:93:35:53:2e:b2:f2:19:7f:87:0d:db:b1:80:61:38:c8:
        47:01:85:b0
-----BEGIN CERTIFICATE-----
MIIDljCCAn6gAwIBAgIUC8wAgMmgC6HHCXyfcQ2Qks/ux/QwDQYJKoZIhvcNAQEL
BQAwYzELMAkGA1UEBhMCVVMxEzARBgNVBAgMCkNhbGlmb3JuaWExFjAUBgNVBAcM
DU1vdW50YWluIFZpZXcxEDAOBgNVBAoMB1Rlc3QgQ0ExFTATBgNVBAMMDFRlc3Qg
Um9vdCBDQTAeFw0yMjEwMDMxNzIwMDhaFw0zMjA5MzAxNzIwMDhaMGMxCzAJBgNV
BAYTAlVTMRMwEQYDVQQIDApDYWxpZm9ybmlhMRYwFAYDVQQHDA1Nb3VudGFpbiBW
aWV3MRAwDgYDVQQKDAdUZXN0IENBMRUwEwYDVQQDDAxUZXN0IFJvb3QgQ0EwggEi
MA0GCSqGSIb3DQEBAQUAA4IBDwAwggEKAoIBAQDGgR+Sc7ZYhdmNrLcg/ce/QLLq
+uULUgGPmsHreoDB84mkPtUbYcy1z4CxGtu7JeAYv5JpJlDN5z//DTy0HxQSq2c3
3gcDbBJ0gjasw9TTZJ+R7Vv2qXqknJjoZWyU4ctVc674HVCweOV0/7E3LMsZPaSM
53ZOhlw/37PtRSNPVJszxoleEx3dfVmlBzQohicf+p5TTyq2Qq03EmL1cja2AhJA
RP7HnpWJQ1FetG7HZ4BYQ77MByi9Wf8cTI2QQvTP/VQAT0hyK+FnPIQXaJW/ygd7
34adVuMy43CHt/g69+NuZRR8u3a3F/FCjG8qNGQQNRSMhfZXv/NcVZ2tAxDzAgMB
AAGjQjBAMA8GA1UdEwEB/wQFMAMBAf8wHQYDVR0OBBYEFJsmC4qYqbsduR8c4xpA
M+2OF4irMA4GA1UdDwEB/wQEAwIBBjANBgkqhkiG9w0BAQsFAAOCAQEAOZr2DusI
TaDwWbmR/rXYLk1raWnF0ob8o8KibMqNmBvS/GSblrRH+fTtb1I8tRP2HnFRO9pU
k8QdlBcjdpqY9Zu4scWrzau9GskAE+Djx1qnIXHrCCvshVwIgDMlDx9SQcSbIlgB
JFXvmqbO5IWjGTNNfj8EMhXV/GNfi9yZKxBjVqxgbvnbn2N7qN+rciiKqeKOneZs
flsWupSyI/LXMVveWKCLvvRq0tO05kAGeHotIEzNnSDdO/y585QTsGsY12vovxTM
hzCLZD+tWZPl9nzRK/COSpzDNBhNYjO9pjq2Px9JW2O0Aahc8JiTNVMusvIZf4cN
27GAYTjIRwGFsA==
-----END CERTIFICATE-----
