-----BEGIN PRIVATE KEY-----
MIIEvgIBADANBgkqhkiG9w0BAQEFAASCBKgwggSkAgEAAoIBAQDGgR+Sc7ZYhdmN
rLcg/ce/QLLq+uULUgGPmsHreoDB84mkPtUbYcy1z4CxGtu7JeAYv5JpJlDN5z//
DTy0HxQSq2c33gcDbBJ0gjasw9TTZJ+R7Vv2qXqknJjoZWyU4ctVc674HVCweOV0
/7E3LMsZPaSM53ZOhlw/37PtRSNPVJszxoleEx3dfVmlBzQohicf+p5TTyq2Qq03
EmL1cja2AhJARP7HnpWJQ1FetG7HZ4BYQ77MByi9Wf8cTI2QQvTP/VQAT0hyK+Fn
PIQXaJW/ygd734adVuMy43CHt/g69+NuZRR8u3a3F/FCjG8qNGQQNRSMhfZXv/Nc
VZ2tAxDzAgMBAAECggEAFRDg897ZzB0wUEuzB4pHJ3HLSwqjQgdK6R2IVOAkR/D7
e3W7kfNYETdbNfBev0auuJGkDQqm6qMO9JdICOl/bNfJ1XD3l5JhhwHGoaEKtgBo
usjQyKWFwXBo/ci9tDMeLAxh1izuQjwiRb9Y5D0ZtK0JCHcL5Bt4MMMhyh1bOPDW
xHm4VS7xa6sY9CRAjaDDHMv121xTkt4/fobClhky4TqklxnsGY0TzzRi1QSEYlVZ
pgu/lv9Wp5nsAxwdXuRvY2U360yDHE5sW14r/VEZ6YB3ZTtMNFBVuydr+EAjUxf9
BFconwqwPcnp3rONY79JuUUGo49k3KAs+2tOqV/0+QKBgQDo3R95iOHhVJ/AkprA
ohmhVLsgfySVMGYYrik6ROxQ90NyqI8StD6Abwggk207znC+a3v2Kj8xA/8rRfiF
7jXK+oPW6/2H+ASs9k1l3FqHQ7Wzt/bwZEQBUso+7zYpIchuMcPI7kmNJmG0zl6t
033onQWflytl/1u6eilpMyQZjQKBgQDaOhJT24zK7CeYlaxvVVjgbn0xzu7PajBE
tNmomkyDtaJAROkT9UvvZpBc8uhUeS0WPNLEE73SSt9jNBLcpBVAOCviuWM4emQi
cx+B7PtQF1vP7hCnnFNCCW2geUDI5/YkzJRzVqtb++Ql+nBf3CdkWcwKrAfqC7gM
byx1rMD0fwKBgQCNvFm2Ddz+3BVIj3NmIMRc8Efd5cWMkSLzjr5FW0JDnd0N4w8C
oXcRkYNu4I0yQ9tX6/BNyzUfToF4A2TbkDxpycWJgaaVph6icGB3yYHIpyvnsee6
Ni02aP/1AoEC1C8880lp+bAHG/+In7v9LaeLeFe95bNip+VbQZQHFju42QKBgQCq
OIHzR14bKvn320gVz8zzwzuEjpVY1MuxzB+7lB/63MMivp3QI5aHtskEt7Thr2Or
5OXCbGO0lRKKnyPXV2X8IdSZlWH/u/g/puz8u42Me6vyFRCIrTeEWzZX5jzSeZ1W
Nv3UudYQefsMZL0jCObxL9oouOezeFCn4lAbuhUIoQKBgAHbFk6ubgUTr+XAMqUy
Jkwyr7dhZ+gpZODQGxx8KBw4ky6eERf3DelbVOmrojg36XzU1UpufChQ0iZ8j4k3
tVfGZH7DV96J6ulZIVevCwMh2nHngpVyG6g3v9xozRbW0QWtwwoPsQK8k7ogr++8
H4w57rdYCq9osKtxR3XaqTgM
-----END PRIVATE KEY-----
Certificate:
    Data:
        Version: 3 (0x2)
        Serial Number:
            7c:22:d7:45:31:7e:86:f3:99:31:13:02:8a:19:6e:d9:c9:ac:c8:08
        Signature Algorithm: sha256WithRSAEncryption
        Issuer: C=US, ST=California, L=Mountain View, O=Test CA, CN=Test Root CA
        Validity
            Not Before: Oct 10 17:12:19 2025 GMT
            Not After : Oct  8 17:12:19 2035 GMT
        Subject: C=US, ST=California, L=Mountain View, O=Test CA, CN=Test Root CA
        Subject Public Key Info:
            Public Key Algorithm: rsaEncryption
                Public-Key: (2048 bit)
                Modulus:
                    00:c6:81:1f:92:73:b6:58:85:d9:8d:ac:b7:20:fd:
                    c7:bf:40:b2:ea:fa:e5:0b:52:01:8f:9a:c1:eb:7a:
                    80:c1:f3:89:a4:3e:d5:1b:61:cc:b5:cf:80:b1:1a:
                    db:bb:25:e0:18:bf:92:69:26:50:cd:e7:3f:ff:0d:
                    3c:b4:1f:14:12:ab:67:37:de:07:03:6c:12:74:82:
                    36:ac:c3:d4:d3:64:9f:91:ed:5b:f6:a9:7a:a4:9c:
                    98:e8:65:6c:94:e1:cb:55:73:ae:f8:1d:50:b0:78:
                    e5:74:ff:b1:37:2c:cb:19:3d:a4:8c:e7:76:4e:86:
                    5c:3f:df:b3:ed:45:23:4f:54:9b:33:c6:89:5e:13:
                    1d:dd:7d:59:a5:07:34:28:86:27:1f:fa:9e:53:4f:
                    2a:b6:42:ad:37:12:62:f5:72:36:b6:02:12:40:44:
                    fe:c7:9e:95:89:43:51:5e:b4:6e:c7:67:80:58:43:
                    be:cc:07:28:bd:59:ff:1c:4c:8d:90:42:f4:cf:fd:
                    54:00:4f:48:72:2b:e1:67:3c:84:17:68:95:bf:ca:
                    07:7b:df:86:9d:56:e3:32:e3:70:87:b7:f8:3a:f7:
                    e3:6e:65:14:7c:bb:76:b7:17:f1:42:8c:6f:2a:34:
                    64:10:35:14:8c:85:f6:57:bf:f3:5c:55:9d:ad:03:
                    10:f3
                Exponent: 65537 (0x10001)
        X509v3 extensions:
            X509v3 Basic Constraints: critical
                CA:TRUE
            X509v3 Subject Key Identifier: 
                9B:26:0B:8A:98:A9:BB:1D:B9:1F:1C:E3:1A:40:33:ED:8E:17:88:AB
            X509v3 Key Usage: critical
                Certificate Sign, CRL Sign
    Signature Algorithm: sha256WithRSAEncryption
    Signature Value:
        4e:bf:92:35:c3:5a:64:ff:8b:0a:f1:78:e7:cd:8f:8b:fc:99:
        1b:54:c0:81:47:b5:e1:22:d4:d0:00:3e:06:d0:58:0f:10:d7:
        69:69:65:da:7d:d3:cf:fa:a8:86:85:3e:91:e1:b7:bc:79:71:
        7e:43:72:82:09:83:75:e7:e2:c3:76:93:ed:41:a9:2c:29:a9:
        d7:3e:c8:e3:7a:b4:c3:77:f0:d0:1f:25:bc:c5:e5:d5:fb:e5:
        ec:c6:41:d4:cc:2d:70:a8:4b:b3:a8:89:0f:33:de:e8:72:8a:
        4e:c4:50:6f:a8:35:e4:77:3c:78:cf:bd:86:28:a5:17:60:26:
        dd:a8:f3:0a:30:15:6d:cd:33:92:e2:9c:0d:43:16:9e:27:38:
        c5:9f:1e:44:1c:b3:23:ba:66:51:c3:f2:aa:0f:dc:bd:da:9b:
        e2:89:14:d6:f3:1d:c7:22:97:76:ef:83:08:f4:a8:2f:ee:9e:
        d4:9a:6f:65:68:d4:32:c1:e6:51:be:82:7f:bf:e2:6d:a2:0a:
        f8:ca:4c:f4:cf:4f:1a:ba:80:b1:ce:3e:b9:64:4b:fc:fe:97:
        31:e8:39:de:4e:8a:86:7a:98:08:34:25:67:91:a1:d4:d3:6e:
        f5:88:66:2b:00:75:a7:a9:68:f7:0e:21:b2:2c:5c:3f:fc:d5:
        cc:4b:80:1f
-----BEGIN CERTIFICATE-----
MIIDljCCAn6gAwIBAgIUfCLXRTF+hvOZMRMCihlu2cmsyAgwDQYJKoZIhvcNAQEL
BQAwYzELMAkGA1UEBhMCVVMxEzARBgNVBAgMCkNhbGlmb3JuaWExFjAUBgNVBAcM
DU1vdW50YWluIFZpZXcxEDAOBgNVBAoMB1Rlc3QgQ0ExFTATBgNVBAMMDFRlc3Qg
Um9vdCBDQTAeFw0yNTEwMTAxNzEyMTlaFw0zNTEwMDgxNzEyMTlaMGMxCzAJBgNV
BAYTAlVTMRMwEQYDVQQIDApDYWxpZm9ybmlhMRYwFAYDVQQHDA1Nb3VudGFpbiBW
aWV3MRAwDgYDVQQKDAdUZXN0IENBMRUwEwYDVQQDDAxUZXN0IFJvb3QgQ0EwggEi
MA0GCSqGSIb3DQEBAQUAA4IBDwAwggEKAoIBAQDGgR+Sc7ZYhdmNrLcg/ce/QLLq
+uULUgGPmsHreoDB84mkPtUbYcy1z4CxGtu7JeAYv5JpJlDN5z//DTy0HxQSq2c3
3gcDbBJ0gjasw9TTZJ+R7Vv2qXqknJjoZWyU4ctVc674HVCweOV0/7E3LMsZPaSM
53ZOhlw/37PtRSNPVJszxoleEx3dfVmlBzQohicf+p5TTyq2Qq03EmL1cja2AhJA
RP7HnpWJQ1FetG7HZ4BYQ77MByi9Wf8cTI2QQvTP/VQAT0hyK+FnPIQXaJW/ygd7
34adVuMy43CHt/g69+NuZRR8u3a3F/FCjG8qNGQQNRSMhfZXv/NcVZ2tAxDzAgMB
AAGjQjBAMA8GA1UdEwEB/wQFMAMBAf8wHQYDVR0OBBYEFJsmC4qYqbsduR8c4xpA
M+2OF4irMA4GA1UdDwEB/wQEAwIBBjANBgkqhkiG9w0BAQsFAAOCAQEATr+SNcNa
ZP+LCvF4582Pi/yZG1TAgUe14SLU0AA+BtBYDxDXaWll2n3Tz/qohoU+keG3vHlx
fkNyggmDdefiw3aT7UGpLCmp1z7I43q0w3fw0B8lvMXl1fvl7MZB1MwtcKhLs6iJ
DzPe6HKKTsRQb6g15Hc8eM+9hiilF2Am3ajzCjAVbc0zkuKcDUMWnic4xZ8eRByz
I7pmUcPyqg/cvdqb4okU1vMdxyKXdu+DCPSoL+6e1JpvZWjUMsHmUb6Cf7/ibaIK
+MpM9M9PGrqAsc4+uWRL/P6XMeg53k6KhnqYCDQlZ5Gh1NNu9YhmKwB1p6lo9w4h
sixcP/zVzEuAHw==
-----END CERTIFICATE-----
