-----BEGIN PRIVATE KEY-----
MIIEvgIBADANBgkqhkiG9w0BAQEFAASCBKgwggSkAgEAAoIBAQDGgR+Sc7ZYhdmN
rLcg/ce/QLLq+uULUgGPmsHreoDB84mkPtUbYcy1z4CxGtu7JeAYv5JpJlDN5z//
DTy0HxQSq2c33gcDbBJ0gjasw9TTZJ+R7Vv2qXqknJjoZWyU4ctVc674HVCweOV0
/7E3LMsZPaSM53ZOhlw/37PtRSNPVJszxoleEx3dfVmlBzQohicf+p5TTyq2Qq03
EmL1cja2AhJARP7HnpWJQ1FetG7HZ4BYQ77MByi9Wf8cTI2QQvTP/VQAT0hyK+Fn
PIQXaJW/ygd734adVuMy43CHt/g69+NuZRR8u3a3F/FCjG8qNGQQNRSMhfZXv/Nc
VZ2tAxDzAgMBAAECggEAFRDg897ZzB0wUEuzB4pHJ3HLSwqjQgdK6R2IVOAkR/D7
e3W7kfNYETdbNfBev0auuJGkDQqm6qMO9JdICOl/bNfJ1XD3l5JhhwHGoaEKtgBo
usjQyKWFwXBo/ci9tDMeLAxh1izuQjwiRb9Y5D0ZtK0JCHcL5Bt4MMMhyh1bOPDW
xHm4VS7xa6sY9CRAjaDDHMv121xTkt4/fobClhky4TqklxnsGY0TzzRi1QSEYlVZ
pgu/lv9Wp5nsAxwdXuRvY2U360yDHE5sW14r/VEZ6YB3ZTtMNFBVuydr+EAjUxf9
BFconwqwPcnp3rONY79JuUUGo49k3KAs+2tOqV/0+QKBgQDo3R95iOHhVJ/AkprA
ohmhVLsgfySVMGYYrik6ROxQ90NyqI8StD6Abwggk207znC+a3v2Kj8xA/8rRfiF
7jXK+oPW6/2H+ASs9k1l3FqHQ7Wzt/bwZEQBUso+7zYpIchuMcPI7kmNJmG0zl6t
033onQWflytl/1u6eilpMyQZjQKBgQDaOhJT24zK7CeYlaxvVVjgbn0xzu7PajBE
tNmomkyDtaJAROkT9UvvZpBc8uhUeS0WPNLEE73SSt9jNBLcpBVAOCviuWM4emQi
cx+B7PtQF1vP7hCnnFNCCW2geUDI5/YkzJRzVqtb++Ql+nBf3CdkWcwKrAfqC7gM
byx1rMD0fwKBgQCNvFm2Ddz+3BVIj3NmIMRc8Efd5cWMkSLzjr5FW0JDnd0N4w8C
oXcRkYNu4I0yQ9tX6/BNyzUfToF4A2TbkDxpycWJgaaVph6icGB3yYHIpyvnsee6
Ni02aP/1AoEC1C8880lp+bAHG/+In7v9LaeLeFe95bNip+VbQZQHFju42QKBgQCq
OIHzR14bKvn320gVz8zzwzuEjpVY1MuxzB+7lB/63MMivp3QI5aHtskEt7Thr2Or
5OXCbGO0lRKKnyPXV2X8IdSZlWH/u/g/puz8u42Me6vyFRCIrTeEWzZX5jzSeZ1W
Nv3UudYQefsMZL0jCObxL9oouOezeFCn4lAbuhUIoQKBgAHbFk6ubgUTr+XAMqUy
Jkwyr7dhZ+gpZODQGxx8KBw4ky6eERf3DelbVOmrojg36XzU1UpufChQ0iZ8j4k3
tVfGZH7DV96J6ulZIVevCwMh2nHngpVyG6g3v9xozRbW0QWtwwoPsQK8k7ogr++8
H4w57rdYCq9osKtxR3XaqTgM
-----END PRIVATE KEY-----
Certificate:
    Data:
        Version: 3 (0x2)
        Serial Number:
            16:83:37:02:6b:55:f9:1c:d9:66:17:ee:fd:b1:27:1b:c0:e0:45:20
        Signature Algorithm: sha256WithRSAEncryption
        Issuer: C = US, ST = California, L = Mountain View, O = Test CA, CN = Test Root CA
        Validity
            Not Before: Oct 30 18:43:13 2023 GMT
            Not After : Oct 27 18:43:13 2033 GMT
        Subject: C = US, ST = California, L = Mountain View, O = Test CA, CN = Test Root CA
        Subject Public Key Info:
            Public Key Algorithm: rsaEncryption
                Public-Key: (2048 bit)
                Modulus:
                    00:c6:81:1f:92:73:b6:58:85:d9:8d:ac:b7:20:fd:
                    c7:bf:40:b2:ea:fa:e5:0b:52:01:8f:9a:c1:eb:7a:
                    80:c1:f3:89:a4:3e:d5:1b:61:cc:b5:cf:80:b1:1a:
                    db:bb:25:e0:18:bf:92:69:26:50:cd:e7:3f:ff:0d:
                    3c:b4:1f:14:12:ab:67:37:de:07:03:6c:12:74:82:
                    36:ac:c3:d4:d3:64:9f:91:ed:5b:f6:a9:7a:a4:9c:
                    98:e8:65:6c:94:e1:cb:55:73:ae:f8:1d:50:b0:78:
                    e5:74:ff:b1:37:2c:cb:19:3d:a4:8c:e7:76:4e:86:
                    5c:3f:df:b3:ed:45:23:4f:54:9b:33:c6:89:5e:13:
                    1d:dd:7d:59:a5:07:34:28:86:27:1f:fa:9e:53:4f:
                    2a:b6:42:ad:37:12:62:f5:72:36:b6:02:12:40:44:
                    fe:c7:9e:95:89:43:51:5e:b4:6e:c7:67:80:58:43:
                    be:cc:07:28:bd:59:ff:1c:4c:8d:90:42:f4:cf:fd:
                    54:00:4f:48:72:2b:e1:67:3c:84:17:68:95:bf:ca:
                    07:7b:df:86:9d:56:e3:32:e3:70:87:b7:f8:3a:f7:
                    e3:6e:65:14:7c:bb:76:b7:17:f1:42:8c:6f:2a:34:
                    64:10:35:14:8c:85:f6:57:bf:f3:5c:55:9d:ad:03:
                    10:f3
                Exponent: 65537 (0x10001)
        X509v3 extensions:
            X509v3 Basic Constraints: critical
                CA:TRUE
            X509v3 Subject Key Identifier: 
                9B:26:0B:8A:98:A9:BB:1D:B9:1F:1C:E3:1A:40:33:ED:8E:17:88:AB
            X509v3 Key Usage: critical
                Certificate Sign, CRL Sign
    Signature Algorithm: sha256WithRSAEncryption
    Signature Value:
        a3:3a:9f:5b:84:91:84:0e:33:60:b0:34:a1:6c:b3:f5:ba:06:
        42:f4:4b:a5:84:e6:a6:d1:de:18:10:21:05:08:ee:3f:bc:c5:
        00:e1:20:82:85:d7:39:68:82:63:02:ef:f3:b0:e5:e6:ea:d5:
        eb:09:bf:17:50:dd:dc:66:4f:0c:e3:e3:8e:6d:b8:1f:8d:de:
        4d:51:e8:bb:15:dd:69:23:90:ef:a9:36:9e:de:00:d1:e4:15:
        73:fa:94:f8:d0:75:55:b4:fb:36:db:62:10:9d:e9:68:6b:ce:
        33:64:98:25:9a:66:46:aa:0b:34:1a:50:e8:97:bd:af:ac:61:
        67:22:67:3d:82:23:3b:ce:03:63:53:f9:96:83:94:48:78:ef:
        f4:52:f6:90:a2:d9:4d:d0:8f:de:06:44:62:55:05:49:ad:2e:
        c2:d6:cb:80:35:af:ad:3a:25:a8:d0:06:2f:da:cb:83:f2:54:
        69:e6:3d:78:d2:a9:84:88:ee:b0:f1:b8:74:a2:fc:da:f4:ab:
        e7:a2:cd:dc:5d:5b:be:2f:55:01:c4:51:3e:f9:8d:6a:0b:a8:
        6a:0a:ba:10:b0:43:43:a4:d3:98:da:f3:02:b1:5c:f6:75:6c:
        5c:aa:76:a7:3a:2f:25:12:35:41:91:c6:1a:52:19:e2:f5:4c:
        8f:7e:06:f3
-----BEGIN CERTIFICATE-----
MIIDljCCAn6gAwIBAgIUFoM3AmtV+RzZZhfu/bEnG8DgRSAwDQYJKoZIhvcNAQEL
BQAwYzELMAkGA1UEBhMCVVMxEzARBgNVBAgMCkNhbGlmb3JuaWExFjAUBgNVBAcM
DU1vdW50YWluIFZpZXcxEDAOBgNVBAoMB1Rlc3QgQ0ExFTATBgNVBAMMDFRlc3Qg
Um9vdCBDQTAeFw0yMzEwMzAxODQzMTNaFw0zMzEwMjcxODQzMTNaMGMxCzAJBgNV
BAYTAlVTMRMwEQYDVQQIDApDYWxpZm9ybmlhMRYwFAYDVQQHDA1Nb3VudGFpbiBW
aWV3MRAwDgYDVQQKDAdUZXN0IENBMRUwEwYDVQQDDAxUZXN0IFJvb3QgQ0EwggEi
MA0GCSqGSIb3DQEBAQUAA4IBDwAwggEKAoIBAQDGgR+Sc7ZYhdmNrLcg/ce/QLLq
+uULUgGPmsHreoDB84mkPtUbYcy1z4CxGtu7JeAYv5JpJlDN5z//DTy0HxQSq2c3
3gcDbBJ0gjasw9TTZJ+R7Vv2qXqknJjoZWyU4ctVc674HVCweOV0/7E3LMsZPaSM
53ZOhlw/37PtRSNPVJszxoleEx3dfVmlBzQohicf+p5TTyq2Qq03EmL1cja2AhJA
RP7HnpWJQ1FetG7HZ4BYQ77MByi9Wf8cTI2QQvTP/VQAT0hyK+FnPIQXaJW/ygd7
34adVuMy43CHt/g69+NuZRR8u3a3F/FCjG8qNGQQNRSMhfZXv/NcVZ2tAxDzAgMB
AAGjQjBAMA8GA1UdEwEB/wQFMAMBAf8wHQYDVR0OBBYEFJsmC4qYqbsduR8c4xpA
M+2OF4irMA4GA1UdDwEB/wQEAwIBBjANBgkqhkiG9w0BAQsFAAOCAQEAozqfW4SR
hA4zYLA0oWyz9boGQvRLpYTmptHeGBAhBQjuP7zFAOEggoXXOWiCYwLv87Dl5urV
6wm/F1Dd3GZPDOPjjm24H43eTVHouxXdaSOQ76k2nt4A0eQVc/qU+NB1VbT7Ntti
EJ3paGvOM2SYJZpmRqoLNBpQ6Je9r6xhZyJnPYIjO84DY1P5loOUSHjv9FL2kKLZ
TdCP3gZEYlUFSa0uwtbLgDWvrTolqNAGL9rLg/JUaeY9eNKphIjusPG4dKL82vSr
56LN3F1bvi9VAcRRPvmNaguoagq6ELBDQ6TTmNrzArFc9nVsXKp2pzovJRI1QZHG
GlIZ4vVMj34G8w==
-----END CERTIFICATE-----
