-----BEGIN RSA PRIVATE KEY-----
MIIEpAIBAAKCAQEAxoEfknO2WIXZjay3IP3Hv0Cy6vrlC1IBj5rB63qAwfOJpD7V
G2HMtc+AsRrbuyXgGL+SaSZQzec//w08tB8UEqtnN94HA2wSdII2rMPU02Sfke1b
9ql6pJyY6GVslOHLVXOu+B1QsHjldP+xNyzLGT2kjOd2ToZcP9+z7UUjT1SbM8aJ
XhMd3X1ZpQc0KIYnH/qeU08qtkKtNxJi9XI2tgISQET+x56ViUNRXrRux2eAWEO+
zAcovVn/HEyNkEL0z/1UAE9IcivhZzyEF2iVv8oHe9+GnVbjMuNwh7f4OvfjbmUU
fLt2txfxQoxvKjRkEDUUjIX2V7/zXFWdrQMQ8wIDAQABAoIBABUQ4PPe2cwdMFBL
sweKRydxy0sKo0IHSukdiFTgJEfw+3t1u5HzWBE3WzXwXr9GrriRpA0KpuqjDvSX
SAjpf2zXydVw95eSYYcBxqGhCrYAaLrI0MilhcFwaP3IvbQzHiwMYdYs7kI8IkW/
WOQ9GbStCQh3C+QbeDDDIcodWzjw1sR5uFUu8WurGPQkQI2gwxzL9dtcU5LeP36G
wpYZMuE6pJcZ7BmNE880YtUEhGJVWaYLv5b/VqeZ7AMcHV7kb2NlN+tMgxxObFte
K/1RGemAd2U7TDRQVbsna/hAI1MX/QRXKJ8KsD3J6d6zjWO/SblFBqOPZNygLPtr
Tqlf9PkCgYEA6N0feYjh4VSfwJKawKIZoVS7IH8klTBmGK4pOkTsUPdDcqiPErQ+
gG8IIJNtO85wvmt79io/MQP/K0X4he41yvqD1uv9h/gErPZNZdxah0O1s7f28GRE
AVLKPu82KSHIbjHDyO5JjSZhtM5erdN96J0Fn5crZf9bunopaTMkGY0CgYEA2joS
U9uMyuwnmJWsb1VY4G59Mc7uz2owRLTZqJpMg7WiQETpE/VL72aQXPLoVHktFjzS
xBO90krfYzQS3KQVQDgr4rljOHpkInMfgez7UBdbz+4Qp5xTQgltoHlAyOf2JMyU
c1arW/vkJfpwX9wnZFnMCqwH6gu4DG8sdazA9H8CgYEAjbxZtg3c/twVSI9zZiDE
XPBH3eXFjJEi846+RVtCQ53dDeMPAqF3EZGDbuCNMkPbV+vwTcs1H06BeANk25A8
acnFiYGmlaYeonBgd8mByKcr57HnujYtNmj/9QKBAtQvPPNJafmwBxv/iJ+7/S2n
i3hXveWzYqflW0GUBxY7uNkCgYEAqjiB80deGyr599tIFc/M88M7hI6VWNTLscwf
u5Qf+tzDIr6d0COWh7bJBLe04a9jq+TlwmxjtJUSip8j11dl/CHUmZVh/7v4P6bs
/LuNjHur8hUQiK03hFs2V+Y80nmdVjb91LnWEHn7DGS9Iwjm8S/aKLjns3hQp+JQ
G7oVCKECgYAB2xZOrm4FE6/lwDKlMiZMMq+3YWfoKWTg0BscfCgcOJMunhEX9w3p
W1Tpq6I4N+l81NVKbnwoUNImfI+JN7VXxmR+w1feierpWSFXrwsDIdpx54KVchuo
N7/caM0W1tEFrcMKD7ECvJO6IK/vvB+MOe63WAqvaLCrcUd12qk4DA==
-----END RSA PRIVATE KEY-----
Certificate:
    Data:
        Version: 3 (0x2)
        Serial Number:
            2f:25:f3:ce:3c:5e:72:d0:33:29:f6:09:1f:5d:5f:53:d9:ac:23:bb
        Signature Algorithm: sha256WithRSAEncryption
        Issuer: C = US, ST = California, L = Mountain View, O = Test CA, CN = Test Root CA
        Validity
            Not Before: Mar 13 20:46:16 2020 GMT
            Not After : Mar 11 20:46:16 2030 GMT
        Subject: C = US, ST = California, L = Mountain View, O = Test CA, CN = Test Root CA
        Subject Public Key Info:
            Public Key Algorithm: rsaEncryption
                RSA Public-Key: (2048 bit)
                Modulus:
                    00:c6:81:1f:92:73:b6:58:85:d9:8d:ac:b7:20:fd:
                    c7:bf:40:b2:ea:fa:e5:0b:52:01:8f:9a:c1:eb:7a:
                    80:c1:f3:89:a4:3e:d5:1b:61:cc:b5:cf:80:b1:1a:
                    db:bb:25:e0:18:bf:92:69:26:50:cd:e7:3f:ff:0d:
                    3c:b4:1f:14:12:ab:67:37:de:07:03:6c:12:74:82:
                    36:ac:c3:d4:d3:64:9f:91:ed:5b:f6:a9:7a:a4:9c:
                    98:e8:65:6c:94:e1:cb:55:73:ae:f8:1d:50:b0:78:
                    e5:74:ff:b1:37:2c:cb:19:3d:a4:8c:e7:76:4e:86:
                    5c:3f:df:b3:ed:45:23:4f:54:9b:33:c6:89:5e:13:
                    1d:dd:7d:59:a5:07:34:28:86:27:1f:fa:9e:53:4f:
                    2a:b6:42:ad:37:12:62:f5:72:36:b6:02:12:40:44:
                    fe:c7:9e:95:89:43:51:5e:b4:6e:c7:67:80:58:43:
                    be:cc:07:28:bd:59:ff:1c:4c:8d:90:42:f4:cf:fd:
                    54:00:4f:48:72:2b:e1:67:3c:84:17:68:95:bf:ca:
                    07:7b:df:86:9d:56:e3:32:e3:70:87:b7:f8:3a:f7:
                    e3:6e:65:14:7c:bb:76:b7:17:f1:42:8c:6f:2a:34:
                    64:10:35:14:8c:85:f6:57:bf:f3:5c:55:9d:ad:03:
                    10:f3
                Exponent: 65537 (0x10001)
        X509v3 extensions:
            X509v3 Basic Constraints: critical
                CA:TRUE
            X509v3 Subject Key Identifier: 
                9B:26:0B:8A:98:A9:BB:1D:B9:1F:1C:E3:1A:40:33:ED:8E:17:88:AB
            X509v3 Key Usage: critical
                Certificate Sign, CRL Sign
    Signature Algorithm: sha256WithRSAEncryption
         b1:b1:83:61:af:db:ed:98:cf:3d:43:5f:a7:42:b8:6d:94:36:
         57:bb:ab:04:ee:dd:3b:b7:6d:ec:78:7d:46:59:b1:e6:2a:c3:
         aa:a5:70:a7:e1:0c:fa:65:37:c6:cb:7d:a1:37:35:a1:ff:f0:
         dd:ce:b6:a4:2c:12:d4:46:a9:9c:a2:91:3a:b0:95:55:97:55:
         e6:0a:da:63:60:24:19:ac:20:c9:b1:94:40:e9:99:b1:f5:c3:
         ed:61:5d:de:4c:e4:eb:d9:0e:ac:3a:0a:fc:44:7d:0f:77:a6:
         b6:da:28:d4:ed:ea:3a:bc:57:23:9c:72:2b:2d:b0:5d:11:02:
         4d:c5:bc:b0:d6:7e:00:8e:f7:e7:f5:19:3a:23:df:33:02:aa:
         4b:bf:81:f4:5a:99:ee:74:20:f3:77:a1:f0:85:1e:a8:d6:cc:
         a4:cb:31:fa:73:24:a2:0e:dd:9f:6f:82:38:5f:85:ac:8d:76:
         bd:d8:f2:69:73:e3:46:44:42:e3:5e:f3:aa:5e:44:13:51:ea:
         0b:78:91:77:96:ee:73:fe:2a:b5:88:c1:38:8d:8d:a8:19:76:
         94:05:02:cf:d4:6f:eb:e6:07:f5:9d:52:24:b8:50:a3:0e:c4:
         45:a6:09:b4:06:2d:3e:14:a5:3f:1c:1a:bc:da:b8:40:3e:c1:
         1c:f6:3c:05
-----BEGIN CERTIFICATE-----
MIIDljCCAn6gAwIBAgIULyXzzjxectAzKfYJH11fU9msI7swDQYJKoZIhvcNAQEL
BQAwYzELMAkGA1UEBhMCVVMxEzARBgNVBAgMCkNhbGlmb3JuaWExFjAUBgNVBAcM
DU1vdW50YWluIFZpZXcxEDAOBgNVBAoMB1Rlc3QgQ0ExFTATBgNVBAMMDFRlc3Qg
Um9vdCBDQTAeFw0yMDAzMTMyMDQ2MTZaFw0zMDAzMTEyMDQ2MTZaMGMxCzAJBgNV
BAYTAlVTMRMwEQYDVQQIDApDYWxpZm9ybmlhMRYwFAYDVQQHDA1Nb3VudGFpbiBW
aWV3MRAwDgYDVQQKDAdUZXN0IENBMRUwEwYDVQQDDAxUZXN0IFJvb3QgQ0EwggEi
MA0GCSqGSIb3DQEBAQUAA4IBDwAwggEKAoIBAQDGgR+Sc7ZYhdmNrLcg/ce/QLLq
+uULUgGPmsHreoDB84mkPtUbYcy1z4CxGtu7JeAYv5JpJlDN5z//DTy0HxQSq2c3
3gcDbBJ0gjasw9TTZJ+R7Vv2qXqknJjoZWyU4ctVc674HVCweOV0/7E3LMsZPaSM
53ZOhlw/37PtRSNPVJszxoleEx3dfVmlBzQohicf+p5TTyq2Qq03EmL1cja2AhJA
RP7HnpWJQ1FetG7HZ4BYQ77MByi9Wf8cTI2QQvTP/VQAT0hyK+FnPIQXaJW/ygd7
34adVuMy43CHt/g69+NuZRR8u3a3F/FCjG8qNGQQNRSMhfZXv/NcVZ2tAxDzAgMB
AAGjQjBAMA8GA1UdEwEB/wQFMAMBAf8wHQYDVR0OBBYEFJsmC4qYqbsduR8c4xpA
M+2OF4irMA4GA1UdDwEB/wQEAwIBBjANBgkqhkiG9w0BAQsFAAOCAQEAsbGDYa/b
7ZjPPUNfp0K4bZQ2V7urBO7dO7dt7Hh9Rlmx5irDqqVwp+EM+mU3xst9oTc1of/w
3c62pCwS1EapnKKROrCVVZdV5graY2AkGawgybGUQOmZsfXD7WFd3kzk69kOrDoK
/ER9D3emttoo1O3qOrxXI5xyKy2wXRECTcW8sNZ+AI735/UZOiPfMwKqS7+B9FqZ
7nQg83eh8IUeqNbMpMsx+nMkog7dn2+COF+FrI12vdjyaXPjRkRC417zql5EE1Hq
C3iRd5buc/4qtYjBOI2NqBl2lAUCz9Rv6+YH9Z1SJLhQow7ERaYJtAYtPhSlPxwa
vNq4QD7BHPY8BQ==
-----END CERTIFICATE-----
