-----BEGIN PRIVATE KEY-----
MIIEvgIBADANBgkqhkiG9w0BAQEFAASCBKgwggSkAgEAAoIBAQDGgR+Sc7ZYhdmN
rLcg/ce/QLLq+uULUgGPmsHreoDB84mkPtUbYcy1z4CxGtu7JeAYv5JpJlDN5z//
DTy0HxQSq2c33gcDbBJ0gjasw9TTZJ+R7Vv2qXqknJjoZWyU4ctVc674HVCweOV0
/7E3LMsZPaSM53ZOhlw/37PtRSNPVJszxoleEx3dfVmlBzQohicf+p5TTyq2Qq03
EmL1cja2AhJARP7HnpWJQ1FetG7HZ4BYQ77MByi9Wf8cTI2QQvTP/VQAT0hyK+Fn
PIQXaJW/ygd734adVuMy43CHt/g69+NuZRR8u3a3F/FCjG8qNGQQNRSMhfZXv/Nc
VZ2tAxDzAgMBAAECggEAFRDg897ZzB0wUEuzB4pHJ3HLSwqjQgdK6R2IVOAkR/D7
e3W7kfNYETdbNfBev0auuJGkDQqm6qMO9JdICOl/bNfJ1XD3l5JhhwHGoaEKtgBo
usjQyKWFwXBo/ci9tDMeLAxh1izuQjwiRb9Y5D0ZtK0JCHcL5Bt4MMMhyh1bOPDW
xHm4VS7xa6sY9CRAjaDDHMv121xTkt4/fobClhky4TqklxnsGY0TzzRi1QSEYlVZ
pgu/lv9Wp5nsAxwdXuRvY2U360yDHE5sW14r/VEZ6YB3ZTtMNFBVuydr+EAjUxf9
BFconwqwPcnp3rONY79JuUUGo49k3KAs+2tOqV/0+QKBgQDo3R95iOHhVJ/AkprA
ohmhVLsgfySVMGYYrik6ROxQ90NyqI8StD6Abwggk207znC+a3v2Kj8xA/8rRfiF
7jXK+oPW6/2H+ASs9k1l3FqHQ7Wzt/bwZEQBUso+7zYpIchuMcPI7kmNJmG0zl6t
033onQWflytl/1u6eilpMyQZjQKBgQDaOhJT24zK7CeYlaxvVVjgbn0xzu7PajBE
tNmomkyDtaJAROkT9UvvZpBc8uhUeS0WPNLEE73SSt9jNBLcpBVAOCviuWM4emQi
cx+B7PtQF1vP7hCnnFNCCW2geUDI5/YkzJRzVqtb++Ql+nBf3CdkWcwKrAfqC7gM
byx1rMD0fwKBgQCNvFm2Ddz+3BVIj3NmIMRc8Efd5cWMkSLzjr5FW0JDnd0N4w8C
oXcRkYNu4I0yQ9tX6/BNyzUfToF4A2TbkDxpycWJgaaVph6icGB3yYHIpyvnsee6
Ni02aP/1AoEC1C8880lp+bAHG/+In7v9LaeLeFe95bNip+VbQZQHFju42QKBgQCq
OIHzR14bKvn320gVz8zzwzuEjpVY1MuxzB+7lB/63MMivp3QI5aHtskEt7Thr2Or
5OXCbGO0lRKKnyPXV2X8IdSZlWH/u/g/puz8u42Me6vyFRCIrTeEWzZX5jzSeZ1W
Nv3UudYQefsMZL0jCObxL9oouOezeFCn4lAbuhUIoQKBgAHbFk6ubgUTr+XAMqUy
Jkwyr7dhZ+gpZODQGxx8KBw4ky6eERf3DelbVOmrojg36XzU1UpufChQ0iZ8j4k3
tVfGZH7DV96J6ulZIVevCwMh2nHngpVyG6g3v9xozRbW0QWtwwoPsQK8k7ogr++8
H4w57rdYCq9osKtxR3XaqTgM
-----END PRIVATE KEY-----
Certificate:
    Data:
        Version: 3 (0x2)
        Serial Number:
            41:19:f1:f8:22:2d:a0:19:4d:d0:24:87:fc:af:13:d6:6b:d7:85:d9
        Signature Algorithm: sha256WithRSAEncryption
        Issuer: C = US, ST = California, L = Mountain View, O = Test CA, CN = Test Root CA
        Validity
            Not Before: Dec  1 15:42:06 2021 GMT
            Not After : Nov 29 15:42:06 2031 GMT
        Subject: C = US, ST = California, L = Mountain View, O = Test CA, CN = Test Root CA
        Subject Public Key Info:
            Public Key Algorithm: rsaEncryption
                RSA Public-Key: (2048 bit)
                Modulus:
                    00:c6:81:1f:92:73:b6:58:85:d9:8d:ac:b7:20:fd:
                    c7:bf:40:b2:ea:fa:e5:0b:52:01:8f:9a:c1:eb:7a:
                    80:c1:f3:89:a4:3e:d5:1b:61:cc:b5:cf:80:b1:1a:
                    db:bb:25:e0:18:bf:92:69:26:50:cd:e7:3f:ff:0d:
                    3c:b4:1f:14:12:ab:67:37:de:07:03:6c:12:74:82:
                    36:ac:c3:d4:d3:64:9f:91:ed:5b:f6:a9:7a:a4:9c:
                    98:e8:65:6c:94:e1:cb:55:73:ae:f8:1d:50:b0:78:
                    e5:74:ff:b1:37:2c:cb:19:3d:a4:8c:e7:76:4e:86:
                    5c:3f:df:b3:ed:45:23:4f:54:9b:33:c6:89:5e:13:
                    1d:dd:7d:59:a5:07:34:28:86:27:1f:fa:9e:53:4f:
                    2a:b6:42:ad:37:12:62:f5:72:36:b6:02:12:40:44:
                    fe:c7:9e:95:89:43:51:5e:b4:6e:c7:67:80:58:43:
                    be:cc:07:28:bd:59:ff:1c:4c:8d:90:42:f4:cf:fd:
                    54:00:4f:48:72:2b:e1:67:3c:84:17:68:95:bf:ca:
                    07:7b:df:86:9d:56:e3:32:e3:70:87:b7:f8:3a:f7:
                    e3:6e:65:14:7c:bb:76:b7:17:f1:42:8c:6f:2a:34:
                    64:10:35:14:8c:85:f6:57:bf:f3:5c:55:9d:ad:03:
                    10:f3
                Exponent: 65537 (0x10001)
        X509v3 extensions:
            X509v3 Basic Constraints: critical
                CA:TRUE
            X509v3 Subject Key Identifier: 
                9B:26:0B:8A:98:A9:BB:1D:B9:1F:1C:E3:1A:40:33:ED:8E:17:88:AB
            X509v3 Key Usage: critical
                Certificate Sign, CRL Sign
    Signature Algorithm: sha256WithRSAEncryption
         0e:7f:a2:5b:22:6e:92:a3:90:4d:13:89:e1:67:31:4a:db:d2:
         eb:d7:f9:e4:46:4a:58:3d:6b:10:f9:77:7c:ac:50:61:15:1a:
         60:f7:ea:47:62:4a:08:1d:8e:73:9d:1a:51:71:7f:31:85:db:
         03:7b:21:8a:fe:30:e0:3f:82:b0:8f:ce:e9:22:ab:48:ef:bc:
         5b:2d:38:52:a1:68:82:69:78:05:43:c0:bf:fd:a6:65:f3:b1:
         38:2a:4d:cc:18:b1:c6:51:cf:3a:09:3c:fe:eb:12:4d:59:a3:
         56:b0:bc:86:ea:9a:6d:08:e3:43:d9:66:a9:1f:66:bc:b8:a5:
         25:bf:fb:f9:d5:0d:fc:bc:78:a6:89:44:ad:06:c7:66:87:ae:
         d4:42:80:8b:7f:e5:e2:63:4a:4b:c3:6e:21:e5:eb:08:c7:08:
         94:00:6e:98:94:66:f5:c2:e2:51:79:d4:be:0f:51:ce:e0:48:
         b3:a9:69:54:8b:0f:e3:72:56:40:73:c3:18:d0:9a:ae:61:8e:
         cc:04:e9:79:3e:68:13:d2:c5:74:aa:1d:31:c8:c0:0e:bc:3e:
         de:f9:a3:e4:2c:06:e8:f9:36:7d:dc:d6:97:de:9d:89:fa:f1:
         27:f0:de:c9:64:7c:54:5c:4b:49:00:04:07:d4:77:26:5e:54:
         93:a1:c0:5d
-----BEGIN CERTIFICATE-----
MIIDljCCAn6gAwIBAgIUQRnx+CItoBlN0CSH/K8T1mvXhdkwDQYJKoZIhvcNAQEL
BQAwYzELMAkGA1UEBhMCVVMxEzARBgNVBAgMCkNhbGlmb3JuaWExFjAUBgNVBAcM
DU1vdW50YWluIFZpZXcxEDAOBgNVBAoMB1Rlc3QgQ0ExFTATBgNVBAMMDFRlc3Qg
Um9vdCBDQTAeFw0yMTEyMDExNTQyMDZaFw0zMTExMjkxNTQyMDZaMGMxCzAJBgNV
BAYTAlVTMRMwEQYDVQQIDApDYWxpZm9ybmlhMRYwFAYDVQQHDA1Nb3VudGFpbiBW
aWV3MRAwDgYDVQQKDAdUZXN0IENBMRUwEwYDVQQDDAxUZXN0IFJvb3QgQ0EwggEi
MA0GCSqGSIb3DQEBAQUAA4IBDwAwggEKAoIBAQDGgR+Sc7ZYhdmNrLcg/ce/QLLq
+uULUgGPmsHreoDB84mkPtUbYcy1z4CxGtu7JeAYv5JpJlDN5z//DTy0HxQSq2c3
3gcDbBJ0gjasw9TTZJ+R7Vv2qXqknJjoZWyU4ctVc674HVCweOV0/7E3LMsZPaSM
53ZOhlw/37PtRSNPVJszxoleEx3dfVmlBzQohicf+p5TTyq2Qq03EmL1cja2AhJA
RP7HnpWJQ1FetG7HZ4BYQ77MByi9Wf8cTI2QQvTP/VQAT0hyK+FnPIQXaJW/ygd7
34adVuMy43CHt/g69+NuZRR8u3a3F/FCjG8qNGQQNRSMhfZXv/NcVZ2tAxDzAgMB
AAGjQjBAMA8GA1UdEwEB/wQFMAMBAf8wHQYDVR0OBBYEFJsmC4qYqbsduR8c4xpA
M+2OF4irMA4GA1UdDwEB/wQEAwIBBjANBgkqhkiG9w0BAQsFAAOCAQEADn+iWyJu
kqOQTROJ4WcxStvS69f55EZKWD1rEPl3fKxQYRUaYPfqR2JKCB2Oc50aUXF/MYXb
A3shiv4w4D+CsI/O6SKrSO+8Wy04UqFogml4BUPAv/2mZfOxOCpNzBixxlHPOgk8
/usSTVmjVrC8huqabQjjQ9lmqR9mvLilJb/7+dUN/Lx4polErQbHZoeu1EKAi3/l
4mNKS8NuIeXrCMcIlABumJRm9cLiUXnUvg9RzuBIs6lpVIsP43JWQHPDGNCarmGO
zATpeT5oE9LFdKodMcjADrw+3vmj5CwG6Pk2fdzWl96difrxJ/DeyWR8VFxLSQAE
B9R3Jl5Uk6HAXQ==
-----END CERTIFICATE-----
