-----BEGIN PRIVATE KEY-----
MIIEvgIBADANBgkqhkiG9w0BAQEFAASCBKgwggSkAgEAAoIBAQDGgR+Sc7ZYhdmN
rLcg/ce/QLLq+uULUgGPmsHreoDB84mkPtUbYcy1z4CxGtu7JeAYv5JpJlDN5z//
DTy0HxQSq2c33gcDbBJ0gjasw9TTZJ+R7Vv2qXqknJjoZWyU4ctVc674HVCweOV0
/7E3LMsZPaSM53ZOhlw/37PtRSNPVJszxoleEx3dfVmlBzQohicf+p5TTyq2Qq03
EmL1cja2AhJARP7HnpWJQ1FetG7HZ4BYQ77MByi9Wf8cTI2QQvTP/VQAT0hyK+Fn
PIQXaJW/ygd734adVuMy43CHt/g69+NuZRR8u3a3F/FCjG8qNGQQNRSMhfZXv/Nc
VZ2tAxDzAgMBAAECggEAFRDg897ZzB0wUEuzB4pHJ3HLSwqjQgdK6R2IVOAkR/D7
e3W7kfNYETdbNfBev0auuJGkDQqm6qMO9JdICOl/bNfJ1XD3l5JhhwHGoaEKtgBo
usjQyKWFwXBo/ci9tDMeLAxh1izuQjwiRb9Y5D0ZtK0JCHcL5Bt4MMMhyh1bOPDW
xHm4VS7xa6sY9CRAjaDDHMv121xTkt4/fobClhky4TqklxnsGY0TzzRi1QSEYlVZ
pgu/lv9Wp5nsAxwdXuRvY2U360yDHE5sW14r/VEZ6YB3ZTtMNFBVuydr+EAjUxf9
BFconwqwPcnp3rONY79JuUUGo49k3KAs+2tOqV/0+QKBgQDo3R95iOHhVJ/AkprA
ohmhVLsgfySVMGYYrik6ROxQ90NyqI8StD6Abwggk207znC+a3v2Kj8xA/8rRfiF
7jXK+oPW6/2H+ASs9k1l3FqHQ7Wzt/bwZEQBUso+7zYpIchuMcPI7kmNJmG0zl6t
033onQWflytl/1u6eilpMyQZjQKBgQDaOhJT24zK7CeYlaxvVVjgbn0xzu7PajBE
tNmomkyDtaJAROkT9UvvZpBc8uhUeS0WPNLEE73SSt9jNBLcpBVAOCviuWM4emQi
cx+B7PtQF1vP7hCnnFNCCW2geUDI5/YkzJRzVqtb++Ql+nBf3CdkWcwKrAfqC7gM
byx1rMD0fwKBgQCNvFm2Ddz+3BVIj3NmIMRc8Efd5cWMkSLzjr5FW0JDnd0N4w8C
oXcRkYNu4I0yQ9tX6/BNyzUfToF4A2TbkDxpycWJgaaVph6icGB3yYHIpyvnsee6
Ni02aP/1AoEC1C8880lp+bAHG/+In7v9LaeLeFe95bNip+VbQZQHFju42QKBgQCq
OIHzR14bKvn320gVz8zzwzuEjpVY1MuxzB+7lB/63MMivp3QI5aHtskEt7Thr2Or
5OXCbGO0lRKKnyPXV2X8IdSZlWH/u/g/puz8u42Me6vyFRCIrTeEWzZX5jzSeZ1W
Nv3UudYQefsMZL0jCObxL9oouOezeFCn4lAbuhUIoQKBgAHbFk6ubgUTr+XAMqUy
Jkwyr7dhZ+gpZODQGxx8KBw4ky6eERf3DelbVOmrojg36XzU1UpufChQ0iZ8j4k3
tVfGZH7DV96J6ulZIVevCwMh2nHngpVyG6g3v9xozRbW0QWtwwoPsQK8k7ogr++8
H4w57rdYCq9osKtxR3XaqTgM
-----END PRIVATE KEY-----
Certificate:
    Data:
        Version: 3 (0x2)
        Serial Number:
            72:bd:5c:25:d3:7f:55:35:70:d2:68:7b:43:78:76:8d:c0:4a:b9:55
        Signature Algorithm: sha256WithRSAEncryption
        Issuer: C=US, ST=California, L=Mountain View, O=Test CA, CN=Test Root CA
        Validity
            Not Before: Oct 10 20:46:12 2024 GMT
            Not After : Oct  8 20:46:12 2034 GMT
        Subject: C=US, ST=California, L=Mountain View, O=Test CA, CN=Test Root CA
        Subject Public Key Info:
            Public Key Algorithm: rsaEncryption
                Public-Key: (2048 bit)
                Modulus:
                    00:c6:81:1f:92:73:b6:58:85:d9:8d:ac:b7:20:fd:
                    c7:bf:40:b2:ea:fa:e5:0b:52:01:8f:9a:c1:eb:7a:
                    80:c1:f3:89:a4:3e:d5:1b:61:cc:b5:cf:80:b1:1a:
                    db:bb:25:e0:18:bf:92:69:26:50:cd:e7:3f:ff:0d:
                    3c:b4:1f:14:12:ab:67:37:de:07:03:6c:12:74:82:
                    36:ac:c3:d4:d3:64:9f:91:ed:5b:f6:a9:7a:a4:9c:
                    98:e8:65:6c:94:e1:cb:55:73:ae:f8:1d:50:b0:78:
                    e5:74:ff:b1:37:2c:cb:19:3d:a4:8c:e7:76:4e:86:
                    5c:3f:df:b3:ed:45:23:4f:54:9b:33:c6:89:5e:13:
                    1d:dd:7d:59:a5:07:34:28:86:27:1f:fa:9e:53:4f:
                    2a:b6:42:ad:37:12:62:f5:72:36:b6:02:12:40:44:
                    fe:c7:9e:95:89:43:51:5e:b4:6e:c7:67:80:58:43:
                    be:cc:07:28:bd:59:ff:1c:4c:8d:90:42:f4:cf:fd:
                    54:00:4f:48:72:2b:e1:67:3c:84:17:68:95:bf:ca:
                    07:7b:df:86:9d:56:e3:32:e3:70:87:b7:f8:3a:f7:
                    e3:6e:65:14:7c:bb:76:b7:17:f1:42:8c:6f:2a:34:
                    64:10:35:14:8c:85:f6:57:bf:f3:5c:55:9d:ad:03:
                    10:f3
                Exponent: 65537 (0x10001)
        X509v3 extensions:
            X509v3 Basic Constraints: critical
                CA:TRUE
            X509v3 Subject Key Identifier: 
                9B:26:0B:8A:98:A9:BB:1D:B9:1F:1C:E3:1A:40:33:ED:8E:17:88:AB
            X509v3 Key Usage: critical
                Certificate Sign, CRL Sign
    Signature Algorithm: sha256WithRSAEncryption
    Signature Value:
        4a:8a:b2:1b:36:8d:1e:19:24:62:1e:e8:c2:ae:d6:f4:68:5d:
        8f:e1:39:a7:45:4f:0c:e7:f4:8c:18:34:8b:c4:e7:06:71:95:
        82:eb:1c:f2:da:ee:02:95:98:72:5c:18:71:2a:4c:46:bc:24:
        ec:f9:c0:5f:10:f5:62:f6:cd:91:95:37:1a:54:a5:08:34:1a:
        26:3e:a3:19:15:d3:dc:1e:9d:ea:60:46:fa:58:d3:34:80:0e:
        ce:57:c2:39:14:67:39:e4:3d:83:42:cc:34:28:c8:ad:f3:3a:
        46:90:63:1a:b5:bc:13:ae:d4:eb:2e:6f:c9:6b:fe:5d:93:9c:
        ab:87:05:67:34:d1:47:9c:28:f1:5a:41:22:7c:be:45:17:a9:
        5f:f3:0c:e5:a8:f9:4c:9a:ce:71:b6:97:b1:77:02:20:52:88:
        09:65:2a:d7:6d:26:ac:57:25:e4:08:51:a3:54:d2:ad:e1:d5:
        2c:43:ad:1e:de:db:62:a1:dd:08:44:8b:d2:91:5e:d1:98:a8:
        6a:c8:de:32:f9:2d:87:7a:88:bb:60:88:f1:d1:ba:23:ed:cc:
        89:5b:22:fd:42:25:dd:c1:66:01:ae:22:e9:a6:a1:c7:31:47:
        36:8c:98:cc:22:79:5a:e8:83:01:79:e8:64:6d:fb:cb:cd:63:
        79:f4:3d:47
-----BEGIN CERTIFICATE-----
MIIDljCCAn6gAwIBAgIUcr1cJdN/VTVw0mh7Q3h2jcBKuVUwDQYJKoZIhvcNAQEL
BQAwYzELMAkGA1UEBhMCVVMxEzARBgNVBAgMCkNhbGlmb3JuaWExFjAUBgNVBAcM
DU1vdW50YWluIFZpZXcxEDAOBgNVBAoMB1Rlc3QgQ0ExFTATBgNVBAMMDFRlc3Qg
Um9vdCBDQTAeFw0yNDEwMTAyMDQ2MTJaFw0zNDEwMDgyMDQ2MTJaMGMxCzAJBgNV
BAYTAlVTMRMwEQYDVQQIDApDYWxpZm9ybmlhMRYwFAYDVQQHDA1Nb3VudGFpbiBW
aWV3MRAwDgYDVQQKDAdUZXN0IENBMRUwEwYDVQQDDAxUZXN0IFJvb3QgQ0EwggEi
MA0GCSqGSIb3DQEBAQUAA4IBDwAwggEKAoIBAQDGgR+Sc7ZYhdmNrLcg/ce/QLLq
+uULUgGPmsHreoDB84mkPtUbYcy1z4CxGtu7JeAYv5JpJlDN5z//DTy0HxQSq2c3
3gcDbBJ0gjasw9TTZJ+R7Vv2qXqknJjoZWyU4ctVc674HVCweOV0/7E3LMsZPaSM
53ZOhlw/37PtRSNPVJszxoleEx3dfVmlBzQohicf+p5TTyq2Qq03EmL1cja2AhJA
RP7HnpWJQ1FetG7HZ4BYQ77MByi9Wf8cTI2QQvTP/VQAT0hyK+FnPIQXaJW/ygd7
34adVuMy43CHt/g69+NuZRR8u3a3F/FCjG8qNGQQNRSMhfZXv/NcVZ2tAxDzAgMB
AAGjQjBAMA8GA1UdEwEB/wQFMAMBAf8wHQYDVR0OBBYEFJsmC4qYqbsduR8c4xpA
M+2OF4irMA4GA1UdDwEB/wQEAwIBBjANBgkqhkiG9w0BAQsFAAOCAQEASoqyGzaN
HhkkYh7owq7W9Ghdj+E5p0VPDOf0jBg0i8TnBnGVgusc8truApWYclwYcSpMRrwk
7PnAXxD1YvbNkZU3GlSlCDQaJj6jGRXT3B6d6mBG+ljTNIAOzlfCORRnOeQ9g0LM
NCjIrfM6RpBjGrW8E67U6y5vyWv+XZOcq4cFZzTRR5wo8VpBIny+RRepX/MM5aj5
TJrOcbaXsXcCIFKICWUq120mrFcl5AhRo1TSreHVLEOtHt7bYqHdCESL0pFe0Zio
asjeMvkth3qIu2CI8dG6I+3MiVsi/UIl3cFmAa4i6aahxzFHNoyYzCJ5WuiDAXno
ZG37y81jefQ9Rw==
-----END CERTIFICATE-----
