-----BEGIN PRIVATE KEY-----
MIIEvwIBADANBgkqhkiG9w0BAQEFAASCBKkwggSlAgEAAoIBAQC9o+TdWyQ2AkBd
6MXG42PIyEXvsufPWoZG2ZReNf3amGoh0CmUXffA7jFiJUDqBy/K/Cyuf7IBGgfG
SA9KM2kTUbvMMR0uXqrx0hlPDaZRg0DFwBBFl7WrRUjE6ivlI8XadwBKTc8EIZOr
xtm22PA2z1HCbE7pLvuA0s4kJ1kbhYkUQneEhqiahC2tsuOMj90lI0T6ChgjCb1r
8Odgr0MOH3hkhyo+NlRSKpI0ZKlwuAA4UdBxyII5YmCcd3U9dHYviEezZ4AQwWEd
CjUaNkrfNewDatDf97LTrPo9VY6BTq3g77LLlpW93roTiVhEQb8YjrKS4jjmIQEN
tzTnh7GxAgMBAAECggEBAJQqbTIVd6FK+QdmSsAuAVRqRVoWKc90Jt1MOgOxo3kb
BDEO9q2ZDW2LrMHF4YX3v3uUs0RTOLxrng9pVajfqgUSIuxSoz4LcPwm7uc4/u1I
416dxRjag3IhW82eOFV7MaaSu4NSb6AGq93WK1wU+vmX2YVSIgVGU/I+whi1NYWt
4Cq72f0E30F72G1+OrBZpdJpojSVOfRZY+VK8CIphNLtXlCzNv2omfTfvmyfEi02
vsxFylck6ULmQNFbuIaVrAJx5giAW8VFnvs/6NatyO+xOdelrgYJ/q+UQwvtstD2
qVoxV2a3mDQ0djoK6GZmFFwGy2BDlnFrEpugXjqgEdECgYEA+5SQuBLX1Xd4W7H6
WLxljobf7ACLd9vpgPmhtEpWTHFRdvdYrhc8Gs/FIEIGNoIFimZJZ0+DzOfULep8
2WYMheIahYOK+4nZfHyZbf2pdiXaNukX0C/wwTsACuTBOWC4GH0v1LYkYykDlCyf
MrFKuS9WjGFPB893s5M7lClpn3sCgYEAwPjDyGYmRif4ZGe4GfL1+vbmHJu0bd+3
n4FfwEpvaBn2xrNjcT+tc9uANN6knAccT9krWtmthJ+SYQ21hlTinbpzYC6/4Olf
BcKA4EbQTr9EV3IeqI5PRkMMJ4VKzfbskLSrcO6YGZq7dVfhULRFGms7wHx+ijJP
xP7gsNOQdcMCgYEA9McvK7pBwBP2yhjYAQCFO3ClbEV3bY5NmkzIddeiMcxLvBmb
cf9vXpLrNKCo1N4bL/an0tn93h9uRaKSCSAObTF6Jo+/aVBNiJ7e1bLp7+eScrzG
i6wpbojOWMsL6ZzeYg1jvW3e55AfSEtGNhdkIdwaNIn1UB8fU1ycqmLEvwMCgYBj
ZwF7Flt64hYKqn7kJwpcp5grfm1397jf2kXXiMBQkKdU/Y0pBhM0TgqBsXp7wRHt
c8Hof57pZUWC5wvt0YYWl7fdANfoZG6FSgcXAINHPTFYFjoCu6PMXrdBGGFLLXn4
pIh3mQASmGkd7hHrf6DlFf3mjnqkd3wtztkxXRnZ/wKBgQCBEMMJa19ONAdVWtP9
G2QeqthDPoMJDbvUAbjPoxUwBhN8vIObeamWsaKU9zbuDPpNaKw5pq6PdEFPOttu
i4du0hSRW/tH8XBa8lKdbGak8/KMLesfd3BKKLhwLe8Zr7l7n0br920MTWKbKuqM
ZAEGf9m7isatL4lNdngVXV2aUA==
-----END PRIVATE KEY-----
Certificate:
    Data:
        Version: 3 (0x2)
        Serial Number:
            12:f6:d9:f1:80:1b:50:9f:64:09:c8:ea:2f:16:33:be
        Signature Algorithm: sha1WithRSAEncryption
        Issuer: C=US, ST=California, L=Mountain View, O=Test CA, CN=Test Root CA
        Validity
            Not Before: Dec  1 15:42:29 2021 GMT
            Not After : Dec  1 15:42:29 2023 GMT
        Subject: C=US, ST=California, L=Mountain View, O=Test CA, CN=127.0.0.1
        Subject Public Key Info:
            Public Key Algorithm: rsaEncryption
                RSA Public-Key: (2048 bit)
                Modulus:
                    00:bd:a3:e4:dd:5b:24:36:02:40:5d:e8:c5:c6:e3:
                    63:c8:c8:45:ef:b2:e7:cf:5a:86:46:d9:94:5e:35:
                    fd:da:98:6a:21:d0:29:94:5d:f7:c0:ee:31:62:25:
                    40:ea:07:2f:ca:fc:2c:ae:7f:b2:01:1a:07:c6:48:
                    0f:4a:33:69:13:51:bb:cc:31:1d:2e:5e:aa:f1:d2:
                    19:4f:0d:a6:51:83:40:c5:c0:10:45:97:b5:ab:45:
                    48:c4:ea:2b:e5:23:c5:da:77:00:4a:4d:cf:04:21:
                    93:ab:c6:d9:b6:d8:f0:36:cf:51:c2:6c:4e:e9:2e:
                    fb:80:d2:ce:24:27:59:1b:85:89:14:42:77:84:86:
                    a8:9a:84:2d:ad:b2:e3:8c:8f:dd:25:23:44:fa:0a:
                    18:23:09:bd:6b:f0:e7:60:af:43:0e:1f:78:64:87:
                    2a:3e:36:54:52:2a:92:34:64:a9:70:b8:00:38:51:
                    d0:71:c8:82:39:62:60:9c:77:75:3d:74:76:2f:88:
                    47:b3:67:80:10:c1:61:1d:0a:35:1a:36:4a:df:35:
                    ec:03:6a:d0:df:f7:b2:d3:ac:fa:3d:55:8e:81:4e:
                    ad:e0:ef:b2:cb:96:95:bd:de:ba:13:89:58:44:41:
                    bf:18:8e:b2:92:e2:38:e6:21:01:0d:b7:34:e7:87:
                    b1:b1
                Exponent: 65537 (0x10001)
        X509v3 extensions:
            X509v3 Basic Constraints: critical
                CA:FALSE
            X509v3 Subject Key Identifier: 
                1F:90:87:C1:2E:EE:B4:70:94:B3:39:33:71:D2:37:34:19:46:7C:40
            X509v3 Authority Key Identifier: 
                keyid:9B:26:0B:8A:98:A9:BB:1D:B9:1F:1C:E3:1A:40:33:ED:8E:17:88:AB

            X509v3 Extended Key Usage: 
                TLS Web Server Authentication, TLS Web Client Authentication
            X509v3 Subject Alternative Name: 
                IP Address:127.0.0.1
    Signature Algorithm: sha1WithRSAEncryption
         0b:88:e7:bb:84:f6:a2:d7:8e:e6:46:60:d5:f0:22:84:46:19:
         f6:97:08:8f:d4:c0:ce:c0:02:f7:06:10:01:96:33:14:b0:f4:
         a2:3f:5b:78:5f:2e:00:1f:be:03:d8:b1:af:89:4c:9d:2d:47:
         16:d8:d0:77:0d:4e:00:3d:60:41:c8:e1:c9:fc:5f:88:af:da:
         65:ea:ea:60:af:9d:1b:34:3b:95:25:e0:e4:2d:f0:e0:82:33:
         74:79:14:f3:59:63:ca:72:eb:a3:eb:83:71:6f:19:e3:d8:1b:
         89:24:b3:ab:c6:82:db:69:a3:c7:dd:f0:8f:c6:6f:de:44:98:
         65:d3:66:37:a8:42:b6:20:9c:5b:15:7a:7b:82:e9:2d:4a:07:
         62:ce:b2:83:17:f9:69:07:a9:e1:24:8f:9a:1c:ac:a4:20:1b:
         eb:89:a5:f6:6b:6f:4f:c5:de:76:19:01:d2:ef:bf:5f:68:1c:
         b6:60:6c:b0:af:2c:93:7c:e2:b0:a8:6c:4d:ea:2c:1a:26:17:
         4d:25:cb:e4:65:ca:d9:89:4c:37:af:65:89:9b:4b:6f:a9:53:
         b5:3e:08:4f:bd:9c:6c:ea:69:20:7e:1d:eb:50:b9:be:1f:df:
         a9:2f:38:35:51:22:6b:84:96:01:5b:be:09:8f:d6:62:e8:6e:
         ae:09:ef:db
-----BEGIN CERTIFICATE-----
MIIDzjCCAragAwIBAgIQEvbZ8YAbUJ9kCcjqLxYzvjANBgkqhkiG9w0BAQUFADBj
MQswCQYDVQQGEwJVUzETMBEGA1UECAwKQ2FsaWZvcm5pYTEWMBQGA1UEBwwNTW91
bnRhaW4gVmlldzEQMA4GA1UECgwHVGVzdCBDQTEVMBMGA1UEAwwMVGVzdCBSb290
IENBMB4XDTIxMTIwMTE1NDIyOVoXDTIzMTIwMTE1NDIyOVowYDELMAkGA1UEBhMC
VVMxEzARBgNVBAgMCkNhbGlmb3JuaWExFjAUBgNVBAcMDU1vdW50YWluIFZpZXcx
EDAOBgNVBAoMB1Rlc3QgQ0ExEjAQBgNVBAMMCTEyNy4wLjAuMTCCASIwDQYJKoZI
hvcNAQEBBQADggEPADCCAQoCggEBAL2j5N1bJDYCQF3oxcbjY8jIRe+y589ahkbZ
lF41/dqYaiHQKZRd98DuMWIlQOoHL8r8LK5/sgEaB8ZID0ozaRNRu8wxHS5eqvHS
GU8NplGDQMXAEEWXtatFSMTqK+Ujxdp3AEpNzwQhk6vG2bbY8DbPUcJsTuku+4DS
ziQnWRuFiRRCd4SGqJqELa2y44yP3SUjRPoKGCMJvWvw52CvQw4feGSHKj42VFIq
kjRkqXC4ADhR0HHIgjliYJx3dT10di+IR7NngBDBYR0KNRo2St817ANq0N/3stOs
+j1VjoFOreDvssuWlb3euhOJWERBvxiOspLiOOYhAQ23NOeHsbECAwEAAaOBgDB+
MAwGA1UdEwEB/wQCMAAwHQYDVR0OBBYEFB+Qh8Eu7rRwlLM5M3HSNzQZRnxAMB8G
A1UdIwQYMBaAFJsmC4qYqbsduR8c4xpAM+2OF4irMB0GA1UdJQQWMBQGCCsGAQUF
BwMBBggrBgEFBQcDAjAPBgNVHREECDAGhwR/AAABMA0GCSqGSIb3DQEBBQUAA4IB
AQALiOe7hPai147mRmDV8CKERhn2lwiP1MDOwAL3BhABljMUsPSiP1t4Xy4AH74D
2LGviUydLUcW2NB3DU4APWBByOHJ/F+Ir9pl6upgr50bNDuVJeDkLfDggjN0eRTz
WWPKcuuj64Nxbxnj2BuJJLOrxoLbaaPH3fCPxm/eRJhl02Y3qEK2IJxbFXp7gukt
SgdizrKDF/lpB6nhJI+aHKykIBvriaX2a29Pxd52GQHS779faBy2YGywryyTfOKw
qGxN6iwaJhdNJcvkZcrZiUw3r2WJm0tvqVO1PghPvZxs6mkgfh3rULm+H9+pLzg1
USJrhJYBW74Jj9Zi6G6uCe/b
-----END CERTIFICATE-----
