Certificate:
    Data:
        Version: 3 (0x2)
        Serial Number:
            3e:2c:9d:be:b0:42:c8:cf:fc:99:42:d5:4d:41:6a:ab
        Signature Algorithm: sha1WithRSAEncryption
        Issuer: C=US, ST=California, L=Mountain View, O=Test CA, CN=Test Root CA
        Validity
            Not Before: Oct 30 00:00:00 2008 GMT
            Not After : Dec 30 00:00:00 2016 GMT
        Subject: C=US, ST=California, L=Mountain View, O=Test CA, CN=127.0.0.1
        Subject Public Key Info:
            Public Key Algorithm: rsaEncryption
                RSA Public-Key: (2048 bit)
                Modulus:
                    00:a2:e9:0f:5b:9f:f4:5c:f2:e2:d1:92:95:72:25:
                    be:a0:ac:97:d1:7a:8d:7b:0f:a0:52:bb:b3:b3:c0:
                    76:ec:02:f8:3a:32:8a:31:67:be:d7:86:f0:7b:4c:
                    8c:c9:f3:d0:d1:f2:b0:0b:6c:20:1a:41:bd:ab:40:
                    4f:c2:bd:ba:cb:31:83:76:79:2c:9d:58:b3:af:fd:
                    90:d7:59:cd:33:93:c5:de:e1:2e:f6:29:00:54:99:
                    f4:fe:ac:51:a0:d1:17:5a:aa:1f:2c:ee:bb:81:22:
                    fa:58:61:81:d0:c5:d8:38:8f:6f:08:8a:53:9b:ea:
                    0a:24:38:af:09:fe:57:7b:1d:3a:61:cb:fc:07:d8:
                    54:16:c4:06:8a:83:f0:24:27:c4:ac:14:c9:2c:64:
                    de:97:b8:8c:6e:3b:85:64:4d:59:17:c1:a2:fb:28:
                    e8:ab:24:8f:cf:b0:46:ea:2b:64:7f:9d:04:fe:22:
                    15:94:16:0b:4f:a4:8e:6e:d2:34:9b:f2:8f:61:ef:
                    87:f8:a8:fa:ce:d7:f2:6b:ae:5c:9a:fd:f4:19:ad:
                    79:47:9b:4e:d7:41:91:ab:55:bd:b1:2d:97:fc:82:
                    ae:6b:c1:3c:62:9a:f6:c9:cf:e7:3e:74:12:0c:ae:
                    39:99:c6:e9:69:36:23:00:30:6e:e0:ea:11:9b:5f:
                    af:a1
                Exponent: 65537 (0x10001)
        X509v3 extensions:
            X509v3 Basic Constraints: critical
                CA:FALSE
            X509v3 Subject Key Identifier: 
                E0:52:8D:C0:78:60:88:97:8F:FA:E5:1D:19:1F:30:23:3A:FB:47:90
            X509v3 Authority Key Identifier: 
                keyid:9B:26:0B:8A:98:A9:BB:1D:B9:1F:1C:E3:1A:40:33:ED:8E:17:88:AB

            X509v3 Extended Key Usage: 
                TLS Web Server Authentication, TLS Web Client Authentication
            X509v3 Subject Alternative Name: 
                IP Address:127.0.0.1
    Signature Algorithm: sha1WithRSAEncryption
         25:c9:57:a0:28:e2:eb:e6:5a:eb:c6:c4:3a:85:77:55:8c:78:
         89:14:56:d5:53:36:75:a4:8c:90:49:eb:56:16:81:c9:45:65:
         98:17:cd:27:bf:82:81:30:ac:31:26:7c:13:8a:87:45:47:3d:
         ab:4a:b3:6e:e6:a2:de:24:52:46:89:ef:44:a5:95:62:60:9e:
         62:f4:bf:df:54:ef:91:58:98:f1:44:9e:a4:45:3a:ca:d6:23:
         03:43:b8:4a:29:ff:87:97:64:58:50:cd:29:1a:64:cf:73:56:
         64:9a:2e:87:45:19:4a:99:ef:3e:f5:81:bc:21:08:8a:ac:2b:
         f5:be:a6:8a:bf:f3:43:85:8f:2a:1d:3f:58:01:ef:e0:d4:53:
         20:4d:f7:a2:bc:67:cb:cb:48:a5:8b:7a:73:20:cd:c6:91:10:
         78:fc:d4:67:33:1b:d0:00:69:db:39:f6:ab:62:da:51:e2:e1:
         83:4c:10:80:09:f8:15:60:f0:61:7a:3a:7f:19:a1:91:2e:52:
         3c:9a:98:53:06:25:90:5f:0b:f1:a1:b5:ee:de:9d:0d:13:01:
         52:9a:31:07:2d:86:7f:5b:c1:5a:0a:22:8a:46:2f:6a:64:cf:
         59:af:2d:e7:e7:91:89:ff:bb:6a:c7:17:6f:cb:8e:c7:df:d8:
         2c:39:a4:98
-----BEGIN CERTIFICATE-----
MIIDzjCCAragAwIBAgIQPiydvrBCyM/8mULVTUFqqzANBgkqhkiG9w0BAQUFADBj
MQswCQYDVQQGEwJVUzETMBEGA1UECAwKQ2FsaWZvcm5pYTEWMBQGA1UEBwwNTW91
bnRhaW4gVmlldzEQMA4GA1UECgwHVGVzdCBDQTEVMBMGA1UEAwwMVGVzdCBSb290
IENBMB4XDTA4MTAzMDAwMDAwMFoXDTE2MTIzMDAwMDAwMFowYDELMAkGA1UEBhMC
VVMxEzARBgNVBAgMCkNhbGlmb3JuaWExFjAUBgNVBAcMDU1vdW50YWluIFZpZXcx
EDAOBgNVBAoMB1Rlc3QgQ0ExEjAQBgNVBAMMCTEyNy4wLjAuMTCCASIwDQYJKoZI
hvcNAQEBBQADggEPADCCAQoCggEBAKLpD1uf9Fzy4tGSlXIlvqCsl9F6jXsPoFK7
s7PAduwC+DoyijFnvteG8HtMjMnz0NHysAtsIBpBvatAT8K9ussxg3Z5LJ1Ys6/9
kNdZzTOTxd7hLvYpAFSZ9P6sUaDRF1qqHyzuu4Ei+lhhgdDF2DiPbwiKU5vqCiQ4
rwn+V3sdOmHL/AfYVBbEBoqD8CQnxKwUySxk3pe4jG47hWRNWRfBovso6Kskj8+w
RuorZH+dBP4iFZQWC0+kjm7SNJvyj2Hvh/io+s7X8muuXJr99BmteUebTtdBkatV
vbEtl/yCrmvBPGKa9snP5z50EgyuOZnG6Wk2IwAwbuDqEZtfr6ECAwEAAaOBgDB+
MAwGA1UdEwEB/wQCMAAwHQYDVR0OBBYEFOBSjcB4YIiXj/rlHRkfMCM6+0eQMB8G
A1UdIwQYMBaAFJsmC4qYqbsduR8c4xpAM+2OF4irMB0GA1UdJQQWMBQGCCsGAQUF
BwMBBggrBgEFBQcDAjAPBgNVHREECDAGhwR/AAABMA0GCSqGSIb3DQEBBQUAA4IB
AQAlyVegKOLr5lrrxsQ6hXdVjHiJFFbVUzZ1pIyQSetWFoHJRWWYF80nv4KBMKwx
JnwTiodFRz2rSrNu5qLeJFJGie9EpZViYJ5i9L/fVO+RWJjxRJ6kRTrK1iMDQ7hK
Kf+Hl2RYUM0pGmTPc1Zkmi6HRRlKme8+9YG8IQiKrCv1vqaKv/NDhY8qHT9YAe/g
1FMgTfeivGfLy0ili3pzIM3GkRB4/NRnMxvQAGnbOfarYtpR4uGDTBCACfgVYPBh
ejp/GaGRLlI8mphTBiWQXwvxobXu3p0NEwFSmjEHLYZ/W8FaCiKKRi9qZM9Zry3n
55GJ/7tqxxdvy47H39gsOaSY
-----END CERTIFICATE-----
