Certificate:
    Data:
        Version: 3 (0x2)
        Serial Number:
            cf:95:70:1c:b6:6c:07:bb:a4:de:63:24:47:3b:4e:c7
        Signature Algorithm: sha1WithRSAEncryption
        Issuer: C=US, ST=California, L=Mountain View, O=Test CA, CN=Test Root CA
        Validity
            Not Before: Oct 30 00:00:00 2008 GMT
            Not After : Dec 30 00:00:00 2016 GMT
        Subject: C=US, ST=California, L=Mountain View, O=Test CA, CN=127.0.0.1
        Subject Public Key Info:
            Public Key Algorithm: rsaEncryption
                Public-Key: (2048 bit)
                Modulus:
                    00:e0:a4:53:17:a9:96:8c:58:ee:87:0f:10:4a:35:
                    6a:b7:31:09:98:17:4c:b9:f4:94:8e:10:03:99:93:
                    0e:bf:d1:55:13:8e:56:20:67:eb:e7:3a:a4:e7:e3:
                    2b:42:24:e3:93:ef:50:4d:ac:ba:41:70:5b:2d:12:
                    93:c2:22:2d:71:ac:49:5a:f4:3f:e5:b9:52:d5:90:
                    65:c2:35:24:0b:88:bd:65:ec:73:ec:36:28:ae:b8:
                    37:60:f7:f2:95:54:e5:6a:6f:bb:17:33:87:f2:6e:
                    64:d3:47:b8:4c:dd:fa:2e:ca:f2:3c:04:f1:e3:da:
                    21:01:be:34:0a:79:76:6b:02:68:3c:d5:8e:95:b8:
                    85:20:b6:b2:f0:7c:f4:13:f0:fa:a6:65:d6:58:81:
                    b7:35:1b:6c:6c:79:58:cd:53:65:1e:bd:7c:c3:2a:
                    92:f2:df:59:f7:3c:10:9c:32:98:7f:71:89:ed:bc:
                    83:48:34:c5:0c:34:ce:5c:92:85:73:86:01:7f:a0:
                    ec:9a:da:59:20:53:61:84:35:d1:63:15:84:2f:d7:
                    95:f4:9f:a6:bd:f2:1b:91:dc:98:a1:41:3a:e8:25:
                    eb:9b:c8:4b:a9:8e:f6:ba:98:4c:2b:fe:8d:94:05:
                    3e:99:43:0d:c3:e2:da:e7:e7:b5:c4:c2:d3:23:2c:
                    3b:bb
                Exponent: 65537 (0x10001)
        X509v3 extensions:
            X509v3 Basic Constraints: critical
                CA:FALSE
            X509v3 Subject Key Identifier: 
                73:8E:A8:84:AE:B9:99:74:DE:79:FD:6B:3B:BE:41:FF:F1:DC:35:1A
            X509v3 Authority Key Identifier: 
                9B:26:0B:8A:98:A9:BB:1D:B9:1F:1C:E3:1A:40:33:ED:8E:17:88:AB
            X509v3 Extended Key Usage: 
                TLS Web Server Authentication, TLS Web Client Authentication
            X509v3 Subject Alternative Name: 
                IP Address:127.0.0.1
    Signature Algorithm: sha1WithRSAEncryption
    Signature Value:
        20:42:73:7c:a9:f2:77:d5:40:41:f9:1b:8f:03:82:cc:77:7d:
        0a:c0:8b:06:2b:28:03:0c:cb:b8:97:2d:e5:64:dc:58:e4:74:
        2e:d9:2d:73:0c:8a:0c:cd:97:66:99:e2:24:30:6a:dc:ef:a8:
        2b:d3:e7:85:1d:cd:d2:a2:84:ba:08:fa:28:ef:39:86:01:db:
        0c:3e:ac:33:36:cb:37:f7:68:ce:f0:94:48:6c:9a:37:34:7f:
        ba:7c:9f:56:b4:1a:61:9e:99:60:e3:01:5c:2b:45:1d:84:05:
        1a:1f:66:02:ab:b7:0c:68:91:f1:e8:0a:45:30:19:4c:6e:2b:
        ba:e3:bb:54:d3:83:af:d8:cf:d7:00:15:e6:df:80:d2:bb:4f:
        4a:91:f9:9d:1e:5b:c9:cd:a5:94:5f:6a:4f:09:df:f4:54:66:
        bd:74:33:95:f8:88:c1:2e:b8:22:ee:ef:79:61:dc:6e:d3:f3:
        43:df:73:e4:c3:a3:34:6a:57:42:93:13:f2:0d:cb:7d:18:7e:
        2a:ab:2c:a2:f8:87:f4:44:3b:54:cc:19:f7:1b:c2:0b:43:aa:
        d6:91:e9:04:be:ef:0f:19:fa:cd:a9:0d:4e:85:2d:8f:a4:dd:
        f2:3a:ca:bc:5d:75:6e:29:42:47:8b:0d:c8:4a:35:75:d9:c5:
        c5:1f:3b:e3
-----BEGIN CERTIFICATE-----
MIIDzzCCAregAwIBAgIRAM+VcBy2bAe7pN5jJEc7TscwDQYJKoZIhvcNAQEFBQAw
YzELMAkGA1UEBhMCVVMxEzARBgNVBAgMCkNhbGlmb3JuaWExFjAUBgNVBAcMDU1v
dW50YWluIFZpZXcxEDAOBgNVBAoMB1Rlc3QgQ0ExFTATBgNVBAMMDFRlc3QgUm9v
dCBDQTAeFw0wODEwMzAwMDAwMDBaFw0xNjEyMzAwMDAwMDBaMGAxCzAJBgNVBAYT
AlVTMRMwEQYDVQQIDApDYWxpZm9ybmlhMRYwFAYDVQQHDA1Nb3VudGFpbiBWaWV3
MRAwDgYDVQQKDAdUZXN0IENBMRIwEAYDVQQDDAkxMjcuMC4wLjEwggEiMA0GCSqG
SIb3DQEBAQUAA4IBDwAwggEKAoIBAQDgpFMXqZaMWO6HDxBKNWq3MQmYF0y59JSO
EAOZkw6/0VUTjlYgZ+vnOqTn4ytCJOOT71BNrLpBcFstEpPCIi1xrEla9D/luVLV
kGXCNSQLiL1l7HPsNiiuuDdg9/KVVOVqb7sXM4fybmTTR7hM3fouyvI8BPHj2iEB
vjQKeXZrAmg81Y6VuIUgtrLwfPQT8PqmZdZYgbc1G2xseVjNU2UevXzDKpLy31n3
PBCcMph/cYntvININMUMNM5ckoVzhgF/oOya2lkgU2GENdFjFYQv15X0n6a98huR
3JihQTroJeubyEupjva6mEwr/o2UBT6ZQw3D4trn57XEwtMjLDu7AgMBAAGjgYAw
fjAMBgNVHRMBAf8EAjAAMB0GA1UdDgQWBBRzjqiErrmZdN55/Ws7vkH/8dw1GjAf
BgNVHSMEGDAWgBSbJguKmKm7HbkfHOMaQDPtjheIqzAdBgNVHSUEFjAUBggrBgEF
BQcDAQYIKwYBBQUHAwIwDwYDVR0RBAgwBocEfwAAATANBgkqhkiG9w0BAQUFAAOC
AQEAIEJzfKnyd9VAQfkbjwOCzHd9CsCLBisoAwzLuJct5WTcWOR0LtktcwyKDM2X
ZpniJDBq3O+oK9PnhR3N0qKEugj6KO85hgHbDD6sMzbLN/dozvCUSGyaNzR/unyf
VrQaYZ6ZYOMBXCtFHYQFGh9mAqu3DGiR8egKRTAZTG4ruuO7VNODr9jP1wAV5t+A
0rtPSpH5nR5byc2llF9qTwnf9FRmvXQzlfiIwS64Iu7veWHcbtPzQ99z5MOjNGpX
QpMT8g3LfRh+KqssoviH9EQ7VMwZ9xvCC0Oq1pHpBL7vDxn6zakNToUtj6Td8jrK
vF11bilCR4sNyEo1ddnFxR874w==
-----END CERTIFICATE-----
