-----BEGIN PRIVATE KEY-----
MIIEvwIBADANBgkqhkiG9w0BAQEFAASCBKkwggSlAgEAAoIBAQC9o+TdWyQ2AkBd
6MXG42PIyEXvsufPWoZG2ZReNf3amGoh0CmUXffA7jFiJUDqBy/K/Cyuf7IBGgfG
SA9KM2kTUbvMMR0uXqrx0hlPDaZRg0DFwBBFl7WrRUjE6ivlI8XadwBKTc8EIZOr
xtm22PA2z1HCbE7pLvuA0s4kJ1kbhYkUQneEhqiahC2tsuOMj90lI0T6ChgjCb1r
8Odgr0MOH3hkhyo+NlRSKpI0ZKlwuAA4UdBxyII5YmCcd3U9dHYviEezZ4AQwWEd
CjUaNkrfNewDatDf97LTrPo9VY6BTq3g77LLlpW93roTiVhEQb8YjrKS4jjmIQEN
tzTnh7GxAgMBAAECggEBAJQqbTIVd6FK+QdmSsAuAVRqRVoWKc90Jt1MOgOxo3kb
BDEO9q2ZDW2LrMHF4YX3v3uUs0RTOLxrng9pVajfqgUSIuxSoz4LcPwm7uc4/u1I
416dxRjag3IhW82eOFV7MaaSu4NSb6AGq93WK1wU+vmX2YVSIgVGU/I+whi1NYWt
4Cq72f0E30F72G1+OrBZpdJpojSVOfRZY+VK8CIphNLtXlCzNv2omfTfvmyfEi02
vsxFylck6ULmQNFbuIaVrAJx5giAW8VFnvs/6NatyO+xOdelrgYJ/q+UQwvtstD2
qVoxV2a3mDQ0djoK6GZmFFwGy2BDlnFrEpugXjqgEdECgYEA+5SQuBLX1Xd4W7H6
WLxljobf7ACLd9vpgPmhtEpWTHFRdvdYrhc8Gs/FIEIGNoIFimZJZ0+DzOfULep8
2WYMheIahYOK+4nZfHyZbf2pdiXaNukX0C/wwTsACuTBOWC4GH0v1LYkYykDlCyf
MrFKuS9WjGFPB893s5M7lClpn3sCgYEAwPjDyGYmRif4ZGe4GfL1+vbmHJu0bd+3
n4FfwEpvaBn2xrNjcT+tc9uANN6knAccT9krWtmthJ+SYQ21hlTinbpzYC6/4Olf
BcKA4EbQTr9EV3IeqI5PRkMMJ4VKzfbskLSrcO6YGZq7dVfhULRFGms7wHx+ijJP
xP7gsNOQdcMCgYEA9McvK7pBwBP2yhjYAQCFO3ClbEV3bY5NmkzIddeiMcxLvBmb
cf9vXpLrNKCo1N4bL/an0tn93h9uRaKSCSAObTF6Jo+/aVBNiJ7e1bLp7+eScrzG
i6wpbojOWMsL6ZzeYg1jvW3e55AfSEtGNhdkIdwaNIn1UB8fU1ycqmLEvwMCgYBj
ZwF7Flt64hYKqn7kJwpcp5grfm1397jf2kXXiMBQkKdU/Y0pBhM0TgqBsXp7wRHt
c8Hof57pZUWC5wvt0YYWl7fdANfoZG6FSgcXAINHPTFYFjoCu6PMXrdBGGFLLXn4
pIh3mQASmGkd7hHrf6DlFf3mjnqkd3wtztkxXRnZ/wKBgQCBEMMJa19ONAdVWtP9
G2QeqthDPoMJDbvUAbjPoxUwBhN8vIObeamWsaKU9zbuDPpNaKw5pq6PdEFPOttu
i4du0hSRW/tH8XBa8lKdbGak8/KMLesfd3BKKLhwLe8Zr7l7n0br920MTWKbKuqM
ZAEGf9m7isatL4lNdngVXV2aUA==
-----END PRIVATE KEY-----
Certificate:
    Data:
        Version: 3 (0x2)
        Serial Number:
            cf:95:70:1c:b6:6c:07:bb:a4:de:63:24:47:3b:4e:d9
        Signature Algorithm: sha1WithRSAEncryption
        Issuer: C=US, ST=California, L=Mountain View, O=Test CA, CN=Test Root CA
        Validity
            Not Before: Oct 30 18:43:23 2023 GMT
            Not After : Oct 29 18:43:23 2025 GMT
        Subject: C=US, ST=California, L=Mountain View, O=Test CA, CN=127.0.0.1
        Subject Public Key Info:
            Public Key Algorithm: rsaEncryption
                Public-Key: (2048 bit)
                Modulus:
                    00:bd:a3:e4:dd:5b:24:36:02:40:5d:e8:c5:c6:e3:
                    63:c8:c8:45:ef:b2:e7:cf:5a:86:46:d9:94:5e:35:
                    fd:da:98:6a:21:d0:29:94:5d:f7:c0:ee:31:62:25:
                    40:ea:07:2f:ca:fc:2c:ae:7f:b2:01:1a:07:c6:48:
                    0f:4a:33:69:13:51:bb:cc:31:1d:2e:5e:aa:f1:d2:
                    19:4f:0d:a6:51:83:40:c5:c0:10:45:97:b5:ab:45:
                    48:c4:ea:2b:e5:23:c5:da:77:00:4a:4d:cf:04:21:
                    93:ab:c6:d9:b6:d8:f0:36:cf:51:c2:6c:4e:e9:2e:
                    fb:80:d2:ce:24:27:59:1b:85:89:14:42:77:84:86:
                    a8:9a:84:2d:ad:b2:e3:8c:8f:dd:25:23:44:fa:0a:
                    18:23:09:bd:6b:f0:e7:60:af:43:0e:1f:78:64:87:
                    2a:3e:36:54:52:2a:92:34:64:a9:70:b8:00:38:51:
                    d0:71:c8:82:39:62:60:9c:77:75:3d:74:76:2f:88:
                    47:b3:67:80:10:c1:61:1d:0a:35:1a:36:4a:df:35:
                    ec:03:6a:d0:df:f7:b2:d3:ac:fa:3d:55:8e:81:4e:
                    ad:e0:ef:b2:cb:96:95:bd:de:ba:13:89:58:44:41:
                    bf:18:8e:b2:92:e2:38:e6:21:01:0d:b7:34:e7:87:
                    b1:b1
                Exponent: 65537 (0x10001)
        X509v3 extensions:
            X509v3 Basic Constraints: critical
                CA:FALSE
            X509v3 Subject Key Identifier: 
                1F:90:87:C1:2E:EE:B4:70:94:B3:39:33:71:D2:37:34:19:46:7C:40
            X509v3 Authority Key Identifier: 
                9B:26:0B:8A:98:A9:BB:1D:B9:1F:1C:E3:1A:40:33:ED:8E:17:88:AB
            X509v3 Extended Key Usage: 
                TLS Web Server Authentication, TLS Web Client Authentication
            X509v3 Subject Alternative Name: 
                IP Address:127.0.0.1
    Signature Algorithm: sha1WithRSAEncryption
    Signature Value:
        54:4d:bf:d4:9f:44:82:ff:0b:01:be:45:49:c4:01:ed:e4:e8:
        48:24:3c:3a:da:c9:fc:4e:bd:5f:38:50:f9:c8:e5:73:f8:a4:
        f2:1e:3e:99:3e:3a:ba:63:b3:13:26:b8:1d:ac:bd:1b:ae:73:
        67:96:3e:65:4b:7f:3d:4b:09:8f:2b:0a:53:1e:31:8e:95:24:
        2b:48:cd:82:14:28:46:c6:4c:16:d0:2b:ec:54:54:64:60:a3:
        32:8d:e2:a0:fc:7d:b9:c3:2d:2d:17:9b:74:7f:92:de:2d:c1:
        a5:f2:ab:6a:f5:64:f2:b3:58:df:f6:ce:11:21:56:11:95:8e:
        91:2c:3a:e8:bc:53:71:31:8a:27:62:65:7f:50:79:f7:ae:a2:
        78:65:92:e6:37:e6:62:b7:54:65:02:33:e0:e2:45:25:aa:cc:
        f4:02:22:a0:a3:0c:cf:d0:5d:56:d1:98:91:fd:81:cf:56:99:
        fa:96:5b:6b:c7:3d:ba:ae:f6:43:4d:82:92:03:31:0b:0c:74:
        b8:5b:30:5f:bd:05:e4:75:72:45:4a:69:38:57:99:60:02:69:
        73:5b:f3:95:55:f5:b1:0e:ce:ed:55:18:b1:0e:6e:bc:26:81:
        e7:97:fe:f0:86:da:c4:1c:5a:6a:07:cd:67:15:93:94:0a:e7:
        ef:39:98:e7
-----BEGIN CERTIFICATE-----
MIIDzzCCAregAwIBAgIRAM+VcBy2bAe7pN5jJEc7TtkwDQYJKoZIhvcNAQEFBQAw
YzELMAkGA1UEBhMCVVMxEzARBgNVBAgMCkNhbGlmb3JuaWExFjAUBgNVBAcMDU1v
dW50YWluIFZpZXcxEDAOBgNVBAoMB1Rlc3QgQ0ExFTATBgNVBAMMDFRlc3QgUm9v
dCBDQTAeFw0yMzEwMzAxODQzMjNaFw0yNTEwMjkxODQzMjNaMGAxCzAJBgNVBAYT
AlVTMRMwEQYDVQQIDApDYWxpZm9ybmlhMRYwFAYDVQQHDA1Nb3VudGFpbiBWaWV3
MRAwDgYDVQQKDAdUZXN0IENBMRIwEAYDVQQDDAkxMjcuMC4wLjEwggEiMA0GCSqG
SIb3DQEBAQUAA4IBDwAwggEKAoIBAQC9o+TdWyQ2AkBd6MXG42PIyEXvsufPWoZG
2ZReNf3amGoh0CmUXffA7jFiJUDqBy/K/Cyuf7IBGgfGSA9KM2kTUbvMMR0uXqrx
0hlPDaZRg0DFwBBFl7WrRUjE6ivlI8XadwBKTc8EIZOrxtm22PA2z1HCbE7pLvuA
0s4kJ1kbhYkUQneEhqiahC2tsuOMj90lI0T6ChgjCb1r8Odgr0MOH3hkhyo+NlRS
KpI0ZKlwuAA4UdBxyII5YmCcd3U9dHYviEezZ4AQwWEdCjUaNkrfNewDatDf97LT
rPo9VY6BTq3g77LLlpW93roTiVhEQb8YjrKS4jjmIQENtzTnh7GxAgMBAAGjgYAw
fjAMBgNVHRMBAf8EAjAAMB0GA1UdDgQWBBQfkIfBLu60cJSzOTNx0jc0GUZ8QDAf
BgNVHSMEGDAWgBSbJguKmKm7HbkfHOMaQDPtjheIqzAdBgNVHSUEFjAUBggrBgEF
BQcDAQYIKwYBBQUHAwIwDwYDVR0RBAgwBocEfwAAATANBgkqhkiG9w0BAQUFAAOC
AQEAVE2/1J9Egv8LAb5FScQB7eToSCQ8OtrJ/E69XzhQ+cjlc/ik8h4+mT46umOz
Eya4Hay9G65zZ5Y+ZUt/PUsJjysKUx4xjpUkK0jNghQoRsZMFtAr7FRUZGCjMo3i
oPx9ucMtLRebdH+S3i3BpfKravVk8rNY3/bOESFWEZWOkSw66LxTcTGKJ2Jlf1B5
966ieGWS5jfmYrdUZQIz4OJFJarM9AIioKMMz9BdVtGYkf2Bz1aZ+pZba8c9uq72
Q02CkgMxCwx0uFswX70F5HVyRUppOFeZYAJpc1vzlVX1sQ7O7VUYsQ5uvCaB55f+
8IbaxBxaagfNZxWTlArn7zmY5w==
-----END CERTIFICATE-----
