-----BEGIN PRIVATE KEY-----
MIIEvQIBADANBgkqhkiG9w0BAQEFAASCBKcwggSjAgEAAoIBAQC3FUBTWsYvyZ6x
lkfEONK6U2oqeuFWPuE8cLh9H7u6t19m4uhRGHnMnOtiqUeuUlI9HPOk76+H2PhK
M4BS2yIzd2JIItxrgqm8cOoVM6R4Na9nUfWM9jpymJlwBy2HsktvHyblVfgpXVTe
W0Sz+oy5yJgvxcnQHEZWE8U87zJ6wzqNp0D/mvZAye91wEsBWH0iIrPok3x7SAvT
wnZJN1qYooPQBS3W8ji0Y6ZS7Z/KAPHnVe653VDRvjlRJl/O012Z02cuSn53BoAJ
u8EhCuybSDn3FXvgbCan5Vwtl4gwTMTYq9rn5aZ0lmmKceMs/XuL1bFMc1oPHtZX
s/JjmPP/AgMBAAECggEBAJn+UgDKlXCUkdqloO+3K+h1SRM6EFdOxHzmAwebrXe7
zY7oxKeRgsFMK+DsqdJCg9HLjFPrFyWYph8jeog2sWnAvPYX/HahjMtn3jy/F1PV
NBgfo/5RDZBeMpE8OFuu6Cwrc7fqu7VvP3dYJU2NLNkHlJp6LunRHohAUOKT/02p
gzm5djM+9mTYAmvUQ5jx9SgltQL/eUOf+WKUQKVLaLsdgVFn8//kWfIiUxsGFe4q
Dx7SKcCkLFI7V3l6dJiiRpmd9ZonV03w/EGrxhn/afUrGwdsnXxHuQEBNSb5HXh7
yjHmE/N3NsKmHp3FH8SBENOdAMABPz1cWb5eXQvm48ECgYEA6mioSARwtIDtJ+21
ZBGh+YAL+k/nAs3V/dmAPxRu9vr+0rDLoUMJSlVyQIsGig8/rC82K6cohfmIBRtK
oqwBgzfpDpioZ3ssRF+VSJi2aqidFt/GXMJ/YkiajivTMft8469FmOM+PnAY0OEV
ScOuC984crfHV1dGvLnaTiO8mkcCgYEAx/JV0S/42tZwpnKhVeyVvF+9T9aWFvLc
AlZCbHBNDTlo7tsnw9yPZ0XAksQzUU1zupjkL2Wj9S/3vhRy/vmC44XD3Axn2KeD
xM0Xl578dMZNqQOxs6YaJJzYAwEWcSJvKKwxpCZMq1kVP1QihcmIGzknbo8D9E80
q4CSy1eQfIkCgYAxRQQx9vT1i6/NV7JrsSUZeyeJWmgU98zFyYSiPZpBQWp0QILc
h2mZfTJBjLc4J5Jbj6TUMhNbbaKAaEccwAilWwgacE3dSk94o5qOIsMc0goKt8hK
0PrTXq1VurJubAzJEpsPUpxPpWIh7V17Hq0jg6yquCQnIIoWuv2+tNY8mwKBgHnx
wIkeeuXs1zOMwf0Hl6MVuP4SX+OLJsd+GHDOZQ/lravPmYcI46UWk4ZvhuTVGfn5
+WE22jJVmQEis6fyQPPGx1dTcZpfQCws8XCVlF8b+o1UJXLtoRAnYE8kwK0rVSQ3
MOduPGBcqmq/Q3bZHNuNlhEFxGGiVPssJVtDAmoRAoGALtnaRmr0YvIcxQ921pM/
Suup3Hm6CcQ4ygl9cBZVcaJxdg5uOxgO0jNx3l+tSSV1eHVuZgW54aZyxg5t8kdv
laV1oKHmzCeRJkipB7LvWu6Aqa6nB+ARdsaKPaRamwRkZ+zlVZfp9Xjc72PTwndZ
pyfGQC1mOGLErTWa2HQQYlI=
-----END PRIVATE KEY-----
Certificate:
    Data:
        Version: 3 (0x2)
        Serial Number:
            3e:2c:9d:be:b0:42:c8:cf:fc:99:42:d5:4d:41:6a:bc
        Signature Algorithm: sha1WithRSAEncryption
        Issuer: C=US, ST=California, L=Mountain View, O=Test CA, CN=Test Root CA
        Validity
            Not Before: Mar 13 20:46:30 2020 GMT
            Not After : Mar 13 20:46:30 2022 GMT
        Subject: C=US, ST=California, L=Mountain View, O=Test CA, CN=127.0.0.1
        Subject Public Key Info:
            Public Key Algorithm: rsaEncryption
                RSA Public-Key: (2048 bit)
                Modulus:
                    00:b7:15:40:53:5a:c6:2f:c9:9e:b1:96:47:c4:38:
                    d2:ba:53:6a:2a:7a:e1:56:3e:e1:3c:70:b8:7d:1f:
                    bb:ba:b7:5f:66:e2:e8:51:18:79:cc:9c:eb:62:a9:
                    47:ae:52:52:3d:1c:f3:a4:ef:af:87:d8:f8:4a:33:
                    80:52:db:22:33:77:62:48:22:dc:6b:82:a9:bc:70:
                    ea:15:33:a4:78:35:af:67:51:f5:8c:f6:3a:72:98:
                    99:70:07:2d:87:b2:4b:6f:1f:26:e5:55:f8:29:5d:
                    54:de:5b:44:b3:fa:8c:b9:c8:98:2f:c5:c9:d0:1c:
                    46:56:13:c5:3c:ef:32:7a:c3:3a:8d:a7:40:ff:9a:
                    f6:40:c9:ef:75:c0:4b:01:58:7d:22:22:b3:e8:93:
                    7c:7b:48:0b:d3:c2:76:49:37:5a:98:a2:83:d0:05:
                    2d:d6:f2:38:b4:63:a6:52:ed:9f:ca:00:f1:e7:55:
                    ee:b9:dd:50:d1:be:39:51:26:5f:ce:d3:5d:99:d3:
                    67:2e:4a:7e:77:06:80:09:bb:c1:21:0a:ec:9b:48:
                    39:f7:15:7b:e0:6c:26:a7:e5:5c:2d:97:88:30:4c:
                    c4:d8:ab:da:e7:e5:a6:74:96:69:8a:71:e3:2c:fd:
                    7b:8b:d5:b1:4c:73:5a:0f:1e:d6:57:b3:f2:63:98:
                    f3:ff
                Exponent: 65537 (0x10001)
        X509v3 extensions:
            X509v3 Basic Constraints: critical
                CA:FALSE
            X509v3 Subject Key Identifier: 
                65:7D:5B:06:08:D8:9C:CE:3E:A7:E8:60:32:66:25:AE:B7:AD:EB:D4
            X509v3 Authority Key Identifier: 
                keyid:9B:26:0B:8A:98:A9:BB:1D:B9:1F:1C:E3:1A:40:33:ED:8E:17:88:AB

            X509v3 Extended Key Usage: 
                TLS Web Server Authentication, TLS Web Client Authentication
            X509v3 Subject Alternative Name: 
                IP Address:127.0.0.1
    Signature Algorithm: sha1WithRSAEncryption
         a8:f5:cd:7e:9f:43:7f:03:6b:1e:ad:83:ef:1d:9a:f2:f4:79:
         54:36:36:f7:50:76:75:5a:e3:ba:3e:94:a1:a0:9b:34:fa:5d:
         dd:fd:89:f5:c6:9d:47:6c:27:38:71:0e:43:0d:29:70:00:f8:
         26:33:99:a2:5f:69:31:97:22:14:b2:a9:07:e7:c5:90:21:8b:
         de:a2:65:71:d3:5c:d8:79:cf:38:bb:30:57:c6:2f:1a:8b:aa:
         87:85:d0:4c:27:20:4f:96:88:58:5c:2d:28:16:8b:86:e0:78:
         0b:7e:1b:37:0e:ff:e6:47:4e:11:8f:54:2a:29:55:ea:91:bc:
         d8:f0:be:2f:2d:d9:da:a4:eb:46:84:34:cd:43:3e:c2:f0:78:
         db:0c:44:a9:0c:9d:ed:da:8f:ce:48:f6:2a:e9:f6:6b:97:b3:
         08:73:40:2f:20:e9:de:39:c2:4b:f2:f4:95:6f:b8:60:10:2e:
         a7:f6:03:c6:5a:f3:8d:08:48:72:0e:70:7a:70:e8:a9:61:59:
         00:c4:4f:d7:43:d8:b5:16:a3:f7:ae:42:47:fe:09:95:58:2f:
         03:14:a1:59:39:63:8c:98:bc:a3:2a:f8:be:c1:0f:30:f6:82:
         99:b2:bf:37:91:45:be:ed:04:7c:37:17:e0:10:62:1a:e3:7e:
         07:46:99:4a
-----BEGIN CERTIFICATE-----
MIIDzjCCAragAwIBAgIQPiydvrBCyM/8mULVTUFqvDANBgkqhkiG9w0BAQUFADBj
MQswCQYDVQQGEwJVUzETMBEGA1UECAwKQ2FsaWZvcm5pYTEWMBQGA1UEBwwNTW91
bnRhaW4gVmlldzEQMA4GA1UECgwHVGVzdCBDQTEVMBMGA1UEAwwMVGVzdCBSb290
IENBMB4XDTIwMDMxMzIwNDYzMFoXDTIyMDMxMzIwNDYzMFowYDELMAkGA1UEBhMC
VVMxEzARBgNVBAgMCkNhbGlmb3JuaWExFjAUBgNVBAcMDU1vdW50YWluIFZpZXcx
EDAOBgNVBAoMB1Rlc3QgQ0ExEjAQBgNVBAMMCTEyNy4wLjAuMTCCASIwDQYJKoZI
hvcNAQEBBQADggEPADCCAQoCggEBALcVQFNaxi/JnrGWR8Q40rpTaip64VY+4Txw
uH0fu7q3X2bi6FEYecyc62KpR65SUj0c86Tvr4fY+EozgFLbIjN3Ykgi3GuCqbxw
6hUzpHg1r2dR9Yz2OnKYmXAHLYeyS28fJuVV+CldVN5bRLP6jLnImC/FydAcRlYT
xTzvMnrDOo2nQP+a9kDJ73XASwFYfSIis+iTfHtIC9PCdkk3Wpiig9AFLdbyOLRj
plLtn8oA8edV7rndUNG+OVEmX87TXZnTZy5KfncGgAm7wSEK7JtIOfcVe+BsJqfl
XC2XiDBMxNir2uflpnSWaYpx4yz9e4vVsUxzWg8e1lez8mOY8/8CAwEAAaOBgDB+
MAwGA1UdEwEB/wQCMAAwHQYDVR0OBBYEFGV9WwYI2JzOPqfoYDJmJa63revUMB8G
A1UdIwQYMBaAFJsmC4qYqbsduR8c4xpAM+2OF4irMB0GA1UdJQQWMBQGCCsGAQUF
BwMBBggrBgEFBQcDAjAPBgNVHREECDAGhwR/AAABMA0GCSqGSIb3DQEBBQUAA4IB
AQCo9c1+n0N/A2serYPvHZry9HlUNjb3UHZ1WuO6PpShoJs0+l3d/Yn1xp1HbCc4
cQ5DDSlwAPgmM5miX2kxlyIUsqkH58WQIYveomVx01zYec84uzBXxi8ai6qHhdBM
JyBPlohYXC0oFouG4HgLfhs3Dv/mR04Rj1QqKVXqkbzY8L4vLdnapOtGhDTNQz7C
8HjbDESpDJ3t2o/OSPYq6fZrl7MIc0AvIOneOcJL8vSVb7hgEC6n9gPGWvONCEhy
DnB6cOipYVkAxE/XQ9i1FqP3rkJH/gmVWC8DFKFZOWOMmLyjKvi+wQ8w9oKZsr83
kUW+7QR8NxfgEGIa434HRplK
-----END CERTIFICATE-----
