Certificate:
    Data:
        Version: 3 (0x2)
        Serial Number:
            f9:fc:f0:61:a5:95:a9:3e:04:b2:80:d9:e4:4d:dd:1b
        Signature Algorithm: sha1WithRSAEncryption
        Issuer: C=US, ST=California, L=Mountain View, O=Test CA, CN=Test Root CA
        Validity
            Not Before: Oct 30 00:00:00 2008 GMT
            Not After : Dec 30 00:00:00 2016 GMT
        Subject: C=US, ST=California, L=Mountain View, O=Test CA, CN=127.0.0.1
        Subject Public Key Info:
            Public Key Algorithm: rsaEncryption
                Public-Key: (2048 bit)
                Modulus:
                    00:b2:d0:a8:df:61:c5:48:74:58:1e:f6:ef:9c:b8:
                    b9:db:fe:94:fd:6e:c8:b8:5d:d0:2f:ba:cb:41:54:
                    c4:4a:95:c7:8e:f3:23:39:03:be:08:0d:71:ae:d4:
                    2f:ac:60:4b:5f:99:49:84:42:cd:7a:c3:8c:3f:ba:
                    df:0d:7a:67:f2:b0:2c:48:56:4d:51:b0:d9:3a:82:
                    d6:19:f6:97:55:60:19:07:67:b3:1f:4d:d1:80:46:
                    7d:67:69:70:94:98:9e:72:1f:0b:65:2e:bd:6e:04:
                    dc:ab:d4:7d:42:24:8f:a9:c4:9d:45:ef:80:06:43:
                    ac:11:19:70:70:09:6f:ca:6b:69:25:57:f0:56:48:
                    a8:fc:20:66:df:7a:b7:65:6a:e0:94:06:89:7f:f3:
                    b9:30:aa:b1:8d:b7:88:d0:18:0d:7d:f4:39:2b:c8:
                    95:a1:bf:fa:02:55:27:f3:63:52:d5:86:0b:b9:d7:
                    7f:17:00:8e:55:95:45:76:be:9b:4b:6f:89:5e:47:
                    94:54:56:48:c4:f4:78:02:c2:6d:69:57:57:75:d6:
                    e1:fc:8a:ba:b7:06:35:cc:0e:ab:bf:57:10:26:79:
                    ec:13:51:cb:ba:1b:9f:f8:44:58:36:04:d2:21:5a:
                    6d:bc:17:67:d3:02:63:54:f7:30:36:38:fc:bb:fa:
                    7f:5f
                Exponent: 65537 (0x10001)
        X509v3 extensions:
            X509v3 Basic Constraints: critical
                CA:FALSE
            X509v3 Subject Key Identifier: 
                4F:FF:A3:23:E8:30:D2:23:5A:D3:20:C8:4A:2A:48:0C:C1:98:07:50
            X509v3 Authority Key Identifier: 
                9B:26:0B:8A:98:A9:BB:1D:B9:1F:1C:E3:1A:40:33:ED:8E:17:88:AB
            X509v3 Extended Key Usage: 
                TLS Web Server Authentication, TLS Web Client Authentication
            X509v3 Subject Alternative Name: 
                IP Address:127.0.0.1
    Signature Algorithm: sha1WithRSAEncryption
    Signature Value:
        45:8b:79:b5:85:9c:87:22:e7:f9:47:d1:7d:38:a7:b1:26:bb:
        5f:f2:c6:6f:37:2a:b5:d5:cf:05:e2:07:a5:b9:d7:b7:e6:f1:
        51:df:f5:c7:79:4a:78:df:ef:9f:46:26:2a:68:90:8a:26:3c:
        d4:8e:f8:bd:83:89:3d:bc:e6:cb:a0:63:9d:9d:3a:32:94:dc:
        98:3e:26:11:e1:60:fa:2e:29:ca:26:23:5a:c0:b3:d0:24:c4:
        f6:c2:97:e7:e5:6c:fc:44:65:a6:a6:94:33:dc:3b:54:df:d6:
        2f:5f:9f:6a:a3:45:b0:f8:48:e9:a9:a3:5b:6a:eb:4f:6f:a2:
        bc:24:84:5a:91:73:44:0f:00:7a:28:6f:81:d8:74:c4:37:c5:
        97:fc:9e:73:e6:3f:df:df:66:9b:d6:18:ba:a2:e6:64:a1:43:
        23:be:39:33:17:45:38:58:2d:c6:bf:1b:b9:71:29:52:91:e9:
        5e:a5:53:bc:fb:70:e2:e3:2b:8e:9a:55:df:33:e4:5c:0f:d5:
        25:83:43:16:34:bd:c1:27:9f:01:c9:e7:6f:dc:f6:f8:f4:ef:
        23:de:0c:bc:59:e8:55:75:2a:29:25:0c:f6:62:f2:a3:ee:97:
        dc:9b:e5:92:53:c2:07:36:b2:e4:3a:60:08:56:06:2f:7f:2c:
        28:c6:fc:84
-----BEGIN CERTIFICATE-----
MIIDzzCCAregAwIBAgIRAPn88GGllak+BLKA2eRN3RswDQYJKoZIhvcNAQEFBQAw
YzELMAkGA1UEBhMCVVMxEzARBgNVBAgMCkNhbGlmb3JuaWExFjAUBgNVBAcMDU1v
dW50YWluIFZpZXcxEDAOBgNVBAoMB1Rlc3QgQ0ExFTATBgNVBAMMDFRlc3QgUm9v
dCBDQTAeFw0wODEwMzAwMDAwMDBaFw0xNjEyMzAwMDAwMDBaMGAxCzAJBgNVBAYT
AlVTMRMwEQYDVQQIDApDYWxpZm9ybmlhMRYwFAYDVQQHDA1Nb3VudGFpbiBWaWV3
MRAwDgYDVQQKDAdUZXN0IENBMRIwEAYDVQQDDAkxMjcuMC4wLjEwggEiMA0GCSqG
SIb3DQEBAQUAA4IBDwAwggEKAoIBAQCy0KjfYcVIdFge9u+cuLnb/pT9bsi4XdAv
ustBVMRKlceO8yM5A74IDXGu1C+sYEtfmUmEQs16w4w/ut8NemfysCxIVk1RsNk6
gtYZ9pdVYBkHZ7MfTdGARn1naXCUmJ5yHwtlLr1uBNyr1H1CJI+pxJ1F74AGQ6wR
GXBwCW/Ka2klV/BWSKj8IGbferdlauCUBol/87kwqrGNt4jQGA199DkryJWhv/oC
VSfzY1LVhgu5138XAI5VlUV2vptLb4leR5RUVkjE9HgCwm1pV1d11uH8irq3BjXM
Dqu/VxAmeewTUcu6G5/4RFg2BNIhWm28F2fTAmNU9zA2OPy7+n9fAgMBAAGjgYAw
fjAMBgNVHRMBAf8EAjAAMB0GA1UdDgQWBBRP/6Mj6DDSI1rTIMhKKkgMwZgHUDAf
BgNVHSMEGDAWgBSbJguKmKm7HbkfHOMaQDPtjheIqzAdBgNVHSUEFjAUBggrBgEF
BQcDAQYIKwYBBQUHAwIwDwYDVR0RBAgwBocEfwAAATANBgkqhkiG9w0BAQUFAAOC
AQEARYt5tYWchyLn+UfRfTinsSa7X/LGbzcqtdXPBeIHpbnXt+bxUd/1x3lKeN/v
n0YmKmiQiiY81I74vYOJPbzmy6BjnZ06MpTcmD4mEeFg+i4pyiYjWsCz0CTE9sKX
5+Vs/ERlpqaUM9w7VN/WL1+faqNFsPhI6amjW2rrT2+ivCSEWpFzRA8Aeihvgdh0
xDfFl/yec+Y/399mm9YYuqLmZKFDI745MxdFOFgtxr8buXEpUpHpXqVTvPtw4uMr
jppV3zPkXA/VJYNDFjS9wSefAcnnb9z2+PTvI94MvFnoVXUqKSUM9mLyo+6X3Jvl
klPCBzay5DpgCFYGL38sKMb8hA==
-----END CERTIFICATE-----
