-----BEGIN PRIVATE KEY-----
MIIEvwIBADANBgkqhkiG9w0BAQEFAASCBKkwggSlAgEAAoIBAQC9o+TdWyQ2AkBd
6MXG42PIyEXvsufPWoZG2ZReNf3amGoh0CmUXffA7jFiJUDqBy/K/Cyuf7IBGgfG
SA9KM2kTUbvMMR0uXqrx0hlPDaZRg0DFwBBFl7WrRUjE6ivlI8XadwBKTc8EIZOr
xtm22PA2z1HCbE7pLvuA0s4kJ1kbhYkUQneEhqiahC2tsuOMj90lI0T6ChgjCb1r
8Odgr0MOH3hkhyo+NlRSKpI0ZKlwuAA4UdBxyII5YmCcd3U9dHYviEezZ4AQwWEd
CjUaNkrfNewDatDf97LTrPo9VY6BTq3g77LLlpW93roTiVhEQb8YjrKS4jjmIQEN
tzTnh7GxAgMBAAECggEBAJQqbTIVd6FK+QdmSsAuAVRqRVoWKc90Jt1MOgOxo3kb
BDEO9q2ZDW2LrMHF4YX3v3uUs0RTOLxrng9pVajfqgUSIuxSoz4LcPwm7uc4/u1I
416dxRjag3IhW82eOFV7MaaSu4NSb6AGq93WK1wU+vmX2YVSIgVGU/I+whi1NYWt
4Cq72f0E30F72G1+OrBZpdJpojSVOfRZY+VK8CIphNLtXlCzNv2omfTfvmyfEi02
vsxFylck6ULmQNFbuIaVrAJx5giAW8VFnvs/6NatyO+xOdelrgYJ/q+UQwvtstD2
qVoxV2a3mDQ0djoK6GZmFFwGy2BDlnFrEpugXjqgEdECgYEA+5SQuBLX1Xd4W7H6
WLxljobf7ACLd9vpgPmhtEpWTHFRdvdYrhc8Gs/FIEIGNoIFimZJZ0+DzOfULep8
2WYMheIahYOK+4nZfHyZbf2pdiXaNukX0C/wwTsACuTBOWC4GH0v1LYkYykDlCyf
MrFKuS9WjGFPB893s5M7lClpn3sCgYEAwPjDyGYmRif4ZGe4GfL1+vbmHJu0bd+3
n4FfwEpvaBn2xrNjcT+tc9uANN6knAccT9krWtmthJ+SYQ21hlTinbpzYC6/4Olf
BcKA4EbQTr9EV3IeqI5PRkMMJ4VKzfbskLSrcO6YGZq7dVfhULRFGms7wHx+ijJP
xP7gsNOQdcMCgYEA9McvK7pBwBP2yhjYAQCFO3ClbEV3bY5NmkzIddeiMcxLvBmb
cf9vXpLrNKCo1N4bL/an0tn93h9uRaKSCSAObTF6Jo+/aVBNiJ7e1bLp7+eScrzG
i6wpbojOWMsL6ZzeYg1jvW3e55AfSEtGNhdkIdwaNIn1UB8fU1ycqmLEvwMCgYBj
ZwF7Flt64hYKqn7kJwpcp5grfm1397jf2kXXiMBQkKdU/Y0pBhM0TgqBsXp7wRHt
c8Hof57pZUWC5wvt0YYWl7fdANfoZG6FSgcXAINHPTFYFjoCu6PMXrdBGGFLLXn4
pIh3mQASmGkd7hHrf6DlFf3mjnqkd3wtztkxXRnZ/wKBgQCBEMMJa19ONAdVWtP9
G2QeqthDPoMJDbvUAbjPoxUwBhN8vIObeamWsaKU9zbuDPpNaKw5pq6PdEFPOttu
i4du0hSRW/tH8XBa8lKdbGak8/KMLesfd3BKKLhwLe8Zr7l7n0br920MTWKbKuqM
ZAEGf9m7isatL4lNdngVXV2aUA==
-----END PRIVATE KEY-----
Certificate:
    Data:
        Version: 3 (0x2)
        Serial Number:
            5a:84:70:47:19:f5:1a:b1:2b:02:fc:31:3f:08:cd:37
        Signature Algorithm: sha1WithRSAEncryption
        Issuer: C=US, ST=California, L=Mountain View, O=Test CA, CN=Test Root CA
        Validity
            Not Before: Oct 10 20:46:13 2024 GMT
            Not After : Oct 10 20:46:13 2026 GMT
        Subject: C=US, ST=California, L=Mountain View, O=Test CA, CN=127.0.0.1
        Subject Public Key Info:
            Public Key Algorithm: rsaEncryption
                Public-Key: (2048 bit)
                Modulus:
                    00:bd:a3:e4:dd:5b:24:36:02:40:5d:e8:c5:c6:e3:
                    63:c8:c8:45:ef:b2:e7:cf:5a:86:46:d9:94:5e:35:
                    fd:da:98:6a:21:d0:29:94:5d:f7:c0:ee:31:62:25:
                    40:ea:07:2f:ca:fc:2c:ae:7f:b2:01:1a:07:c6:48:
                    0f:4a:33:69:13:51:bb:cc:31:1d:2e:5e:aa:f1:d2:
                    19:4f:0d:a6:51:83:40:c5:c0:10:45:97:b5:ab:45:
                    48:c4:ea:2b:e5:23:c5:da:77:00:4a:4d:cf:04:21:
                    93:ab:c6:d9:b6:d8:f0:36:cf:51:c2:6c:4e:e9:2e:
                    fb:80:d2:ce:24:27:59:1b:85:89:14:42:77:84:86:
                    a8:9a:84:2d:ad:b2:e3:8c:8f:dd:25:23:44:fa:0a:
                    18:23:09:bd:6b:f0:e7:60:af:43:0e:1f:78:64:87:
                    2a:3e:36:54:52:2a:92:34:64:a9:70:b8:00:38:51:
                    d0:71:c8:82:39:62:60:9c:77:75:3d:74:76:2f:88:
                    47:b3:67:80:10:c1:61:1d:0a:35:1a:36:4a:df:35:
                    ec:03:6a:d0:df:f7:b2:d3:ac:fa:3d:55:8e:81:4e:
                    ad:e0:ef:b2:cb:96:95:bd:de:ba:13:89:58:44:41:
                    bf:18:8e:b2:92:e2:38:e6:21:01:0d:b7:34:e7:87:
                    b1:b1
                Exponent: 65537 (0x10001)
        X509v3 extensions:
            X509v3 Basic Constraints: critical
                CA:FALSE
            X509v3 Subject Key Identifier: 
                1F:90:87:C1:2E:EE:B4:70:94:B3:39:33:71:D2:37:34:19:46:7C:40
            X509v3 Authority Key Identifier: 
                9B:26:0B:8A:98:A9:BB:1D:B9:1F:1C:E3:1A:40:33:ED:8E:17:88:AB
            X509v3 Extended Key Usage: 
                TLS Web Server Authentication, TLS Web Client Authentication
            X509v3 Subject Alternative Name: 
                IP Address:127.0.0.1
    Signature Algorithm: sha1WithRSAEncryption
    Signature Value:
        73:17:b3:1c:bb:21:e0:73:66:65:63:fc:00:de:db:36:dc:3b:
        ff:08:76:dd:93:4a:eb:13:53:ed:66:8d:02:f3:90:42:8d:d3:
        7d:09:fd:26:87:95:0e:78:69:7f:bf:b1:76:46:7a:ae:da:f0:
        2d:0c:a7:57:ac:22:fe:0b:10:8a:a2:06:40:77:0d:4e:e1:b6:
        ba:65:b4:de:dc:ad:f3:d2:4d:c0:50:c5:3c:44:e9:1b:bb:14:
        d1:b7:74:31:37:5b:91:d3:63:b0:b8:9b:37:85:79:b6:55:3f:
        79:f1:a1:48:6e:6a:f5:cb:30:5c:e0:1c:74:20:ba:db:e7:8d:
        a5:98:f4:b4:55:78:84:3e:d6:55:4f:25:1f:4a:53:7f:cd:e3:
        36:f3:e0:9c:4a:21:aa:a5:07:0d:55:5a:29:7a:93:16:7d:13:
        7a:36:96:14:33:e5:c0:2a:d6:f1:b9:f3:bc:fa:56:28:c4:29:
        16:15:cc:0d:17:49:b6:67:36:0a:3d:82:8e:45:26:e5:eb:26:
        cc:b7:99:79:28:ba:8a:c1:06:87:29:2d:06:3d:e3:16:52:1b:
        5a:7a:c2:fc:be:05:2b:64:82:85:9e:8f:01:4a:e0:10:60:ed:
        0d:6f:21:87:ff:f9:78:c3:be:81:dd:6b:b1:7c:0b:b8:4c:c2:
        e3:af:e2:96
-----BEGIN CERTIFICATE-----
MIIDzjCCAragAwIBAgIQWoRwRxn1GrErAvwxPwjNNzANBgkqhkiG9w0BAQUFADBj
MQswCQYDVQQGEwJVUzETMBEGA1UECAwKQ2FsaWZvcm5pYTEWMBQGA1UEBwwNTW91
bnRhaW4gVmlldzEQMA4GA1UECgwHVGVzdCBDQTEVMBMGA1UEAwwMVGVzdCBSb290
IENBMB4XDTI0MTAxMDIwNDYxM1oXDTI2MTAxMDIwNDYxM1owYDELMAkGA1UEBhMC
VVMxEzARBgNVBAgMCkNhbGlmb3JuaWExFjAUBgNVBAcMDU1vdW50YWluIFZpZXcx
EDAOBgNVBAoMB1Rlc3QgQ0ExEjAQBgNVBAMMCTEyNy4wLjAuMTCCASIwDQYJKoZI
hvcNAQEBBQADggEPADCCAQoCggEBAL2j5N1bJDYCQF3oxcbjY8jIRe+y589ahkbZ
lF41/dqYaiHQKZRd98DuMWIlQOoHL8r8LK5/sgEaB8ZID0ozaRNRu8wxHS5eqvHS
GU8NplGDQMXAEEWXtatFSMTqK+Ujxdp3AEpNzwQhk6vG2bbY8DbPUcJsTuku+4DS
ziQnWRuFiRRCd4SGqJqELa2y44yP3SUjRPoKGCMJvWvw52CvQw4feGSHKj42VFIq
kjRkqXC4ADhR0HHIgjliYJx3dT10di+IR7NngBDBYR0KNRo2St817ANq0N/3stOs
+j1VjoFOreDvssuWlb3euhOJWERBvxiOspLiOOYhAQ23NOeHsbECAwEAAaOBgDB+
MAwGA1UdEwEB/wQCMAAwHQYDVR0OBBYEFB+Qh8Eu7rRwlLM5M3HSNzQZRnxAMB8G
A1UdIwQYMBaAFJsmC4qYqbsduR8c4xpAM+2OF4irMB0GA1UdJQQWMBQGCCsGAQUF
BwMBBggrBgEFBQcDAjAPBgNVHREECDAGhwR/AAABMA0GCSqGSIb3DQEBBQUAA4IB
AQBzF7McuyHgc2ZlY/wA3ts23Dv/CHbdk0rrE1PtZo0C85BCjdN9Cf0mh5UOeGl/
v7F2Rnqu2vAtDKdXrCL+CxCKogZAdw1O4ba6ZbTe3K3z0k3AUMU8ROkbuxTRt3Qx
N1uR02OwuJs3hXm2VT958aFIbmr1yzBc4Bx0ILrb542lmPS0VXiEPtZVTyUfSlN/
zeM28+CcSiGqpQcNVVopepMWfRN6NpYUM+XAKtbxufO8+lYoxCkWFcwNF0m2ZzYK
PYKORSbl6ybMt5l5KLqKwQaHKS0GPeMWUhtaesL8vgUrZIKFno8BSuAQYO0NbyGH
//l4w76B3WuxfAu4TMLjr+KW
-----END CERTIFICATE-----
