Certificate:
    Data:
        Version: 3 (0x2)
        Serial Number:
            12:f6:d9:f1:80:1b:50:9f:64:09:c8:ea:2f:16:33:aa
        Signature Algorithm: sha1WithRSAEncryption
        Issuer: C=US, ST=California, L=Mountain View, O=Test CA, CN=Test Root CA
        Validity
            Not Before: Oct 30 00:00:00 2008 GMT
            Not After : Dec 30 00:00:00 2016 GMT
        Subject: C=US, ST=California, L=Mountain View, O=Test CA, CN=127.0.0.1
        Subject Public Key Info:
            Public Key Algorithm: rsaEncryption
                RSA Public-Key: (2048 bit)
                Modulus:
                    00:c6:8d:7f:c1:d4:77:c7:80:5b:85:b4:bb:96:0f:
                    4b:2c:9f:53:39:5a:9d:ea:22:59:27:12:71:b2:8d:
                    88:05:57:40:dd:74:ce:d8:5f:5d:49:46:a7:9e:9a:
                    f3:ca:eb:45:93:b6:0f:b9:e0:df:6a:c3:88:fa:be:
                    2a:4c:b9:08:20:1a:75:a0:80:dc:a7:6a:b4:fc:16:
                    f0:cf:ea:c1:75:fc:3c:c3:38:b9:e0:5e:05:83:23:
                    50:f9:94:a7:f3:79:5b:59:75:80:5e:4f:34:ce:1d:
                    bd:82:fb:a9:f5:af:62:09:ab:13:92:0e:11:17:74:
                    77:60:82:c9:59:8e:cd:4c:1f:53:a0:6f:c4:03:14:
                    33:6c:e4:c2:3a:6b:c9:26:69:73:8e:0d:7f:30:7e:
                    6f:92:8f:9b:9f:0b:6e:a9:2b:ed:f2:cd:9c:0d:ca:
                    7a:c9:c7:2a:27:68:70:eb:c9:ee:d1:3d:bc:81:68:
                    a4:04:23:78:de:6a:3c:21:9c:cb:50:0d:4c:07:a0:
                    f5:c3:20:c9:b3:f1:68:29:79:0d:a6:95:2a:59:05:
                    f5:b9:68:95:61:56:22:1d:d6:a4:93:75:d8:f7:54:
                    d3:bf:b2:46:11:0c:0c:9f:35:91:11:8a:4b:eb:2e:
                    8d:b6:88:e0:30:3f:ed:05:a9:c7:b5:7b:a7:59:54:
                    7e:af
                Exponent: 65537 (0x10001)
        X509v3 extensions:
            X509v3 Basic Constraints: critical
                CA:FALSE
            X509v3 Subject Key Identifier: 
                F3:1F:B0:87:0B:E4:0C:42:54:A0:F4:50:37:F4:10:BD:B7:0D:C4:57
            X509v3 Authority Key Identifier: 
                keyid:9B:26:0B:8A:98:A9:BB:1D:B9:1F:1C:E3:1A:40:33:ED:8E:17:88:AB

            X509v3 Extended Key Usage: 
                TLS Web Server Authentication, TLS Web Client Authentication
            X509v3 Subject Alternative Name: 
                IP Address:127.0.0.1
    Signature Algorithm: sha1WithRSAEncryption
         93:ba:ce:1f:a3:2c:f1:39:f4:ee:8f:df:ae:79:c9:11:d8:89:
         b7:62:b9:9b:85:47:60:a6:98:73:60:b0:6a:51:08:39:b9:62:
         84:5f:78:b9:c0:59:f2:78:ad:38:29:54:98:e7:48:5d:13:4d:
         83:b8:5b:45:0b:a3:49:5c:14:51:9a:35:4f:da:af:8b:a2:d0:
         15:44:21:ec:44:fe:af:5e:9a:93:76:a4:62:50:1a:7a:02:d1:
         d7:9d:55:1b:ca:cb:8f:2d:c6:3e:2b:9a:18:b7:62:33:06:44:
         fb:22:e0:ab:d0:af:e2:6a:7c:07:3e:77:71:fe:ce:15:fb:4f:
         e5:a2:83:82:c4:1f:26:67:3b:ca:c0:73:b6:13:f0:5c:c9:54:
         ea:dc:7f:60:bb:54:a6:ca:5d:fe:dc:75:93:84:35:47:f2:04:
         f2:eb:f3:61:44:68:28:c8:54:7f:89:53:b2:f9:69:02:24:35:
         c4:cf:3d:8f:a7:a8:2e:d5:24:52:62:83:f3:a1:e8:86:0b:b0:
         d4:a8:a7:85:4c:bc:2a:82:28:95:e1:11:54:cc:3f:d3:e4:85:
         c1:d3:f6:17:c6:bf:d0:12:37:51:e7:9f:cb:bf:58:58:60:0f:
         1b:b1:49:db:29:76:24:4a:32:2d:1c:e4:cd:86:0a:1a:75:51:
         60:35:e1:4b
-----BEGIN CERTIFICATE-----
MIIDzjCCAragAwIBAgIQEvbZ8YAbUJ9kCcjqLxYzqjANBgkqhkiG9w0BAQUFADBj
MQswCQYDVQQGEwJVUzETMBEGA1UECAwKQ2FsaWZvcm5pYTEWMBQGA1UEBwwNTW91
bnRhaW4gVmlldzEQMA4GA1UECgwHVGVzdCBDQTEVMBMGA1UEAwwMVGVzdCBSb290
IENBMB4XDTA4MTAzMDAwMDAwMFoXDTE2MTIzMDAwMDAwMFowYDELMAkGA1UEBhMC
VVMxEzARBgNVBAgMCkNhbGlmb3JuaWExFjAUBgNVBAcMDU1vdW50YWluIFZpZXcx
EDAOBgNVBAoMB1Rlc3QgQ0ExEjAQBgNVBAMMCTEyNy4wLjAuMTCCASIwDQYJKoZI
hvcNAQEBBQADggEPADCCAQoCggEBAMaNf8HUd8eAW4W0u5YPSyyfUzlaneoiWScS
cbKNiAVXQN10zthfXUlGp56a88rrRZO2D7ng32rDiPq+Kky5CCAadaCA3KdqtPwW
8M/qwXX8PMM4ueBeBYMjUPmUp/N5W1l1gF5PNM4dvYL7qfWvYgmrE5IOERd0d2CC
yVmOzUwfU6BvxAMUM2zkwjprySZpc44NfzB+b5KPm58Lbqkr7fLNnA3KesnHKido
cOvJ7tE9vIFopAQjeN5qPCGcy1ANTAeg9cMgybPxaCl5DaaVKlkF9blolWFWIh3W
pJN12PdU07+yRhEMDJ81kRGKS+sujbaI4DA/7QWpx7V7p1lUfq8CAwEAAaOBgDB+
MAwGA1UdEwEB/wQCMAAwHQYDVR0OBBYEFPMfsIcL5AxCVKD0UDf0EL23DcRXMB8G
A1UdIwQYMBaAFJsmC4qYqbsduR8c4xpAM+2OF4irMB0GA1UdJQQWMBQGCCsGAQUF
BwMBBggrBgEFBQcDAjAPBgNVHREECDAGhwR/AAABMA0GCSqGSIb3DQEBBQUAA4IB
AQCTus4foyzxOfTuj9+ueckR2Im3YrmbhUdgpphzYLBqUQg5uWKEX3i5wFnyeK04
KVSY50hdE02DuFtFC6NJXBRRmjVP2q+LotAVRCHsRP6vXpqTdqRiUBp6AtHXnVUb
ysuPLcY+K5oYt2IzBkT7IuCr0K/ianwHPndx/s4V+0/looOCxB8mZzvKwHO2E/Bc
yVTq3H9gu1Smyl3+3HWThDVH8gTy6/NhRGgoyFR/iVOy+WkCJDXEzz2Pp6gu1SRS
YoPzoeiGC7DUqKeFTLwqgiiV4RFUzD/T5IXB0/YXxr/QEjdR55/Lv1hYYA8bsUnb
KXYkSjItHOTNhgoadVFgNeFL
-----END CERTIFICATE-----
