Certificate:
    Data:
        Version: 3 (0x2)
        Serial Number:
            5a:84:70:47:19:f5:1a:b1:2b:02:fc:31:3f:08:cd:36
        Signature Algorithm: sha1WithRSAEncryption
        Issuer: C=US, ST=California, L=Mountain View, O=Test CA, CN=Test Root CA
        Validity
            Not Before: Oct 30 00:00:00 2008 GMT
            Not After : Dec 30 00:00:00 2016 GMT
        Subject: C=US, ST=California, L=Mountain View, O=Test CA, CN=127.0.0.1
        Subject Public Key Info:
            Public Key Algorithm: rsaEncryption
                Public-Key: (2048 bit)
                Modulus:
                    00:d9:04:6a:e6:6c:bd:5b:fe:5d:f8:e1:83:69:68:
                    1d:19:a4:21:c8:05:d5:92:c8:15:a4:cd:74:6d:62:
                    61:bb:29:60:2f:b2:4b:3a:c3:89:c5:cf:f1:59:0f:
                    2f:99:6e:09:59:bf:4e:c9:88:1e:90:e4:4d:57:a5:
                    74:a3:cf:9d:cd:99:a3:8a:5f:64:e3:f2:13:af:e4:
                    e0:40:51:e2:47:a9:41:7a:a0:b2:62:6c:30:30:6a:
                    f0:82:13:1e:fd:61:14:21:36:54:4c:a8:cd:8b:cf:
                    5d:28:e5:42:b0:7f:91:6d:50:25:ce:16:3a:0a:4c:
                    99:2f:73:5d:22:5f:dc:40:d5:4c:a7:1d:51:d0:b1:
                    34:91:45:15:a2:b7:44:01:b6:c7:0a:0b:d9:0c:fe:
                    99:bf:ee:25:6d:3e:45:9b:27:66:24:b1:74:b9:09:
                    ae:f2:1f:98:df:69:ee:ae:b5:3b:58:92:f1:cc:79:
                    4e:5d:ee:9b:89:2a:58:06:24:7c:35:bb:1f:d5:fb:
                    4b:b3:9c:97:87:3d:c7:55:02:ec:8a:f2:6b:09:0d:
                    27:d1:fb:d8:4b:f9:42:a3:ea:c6:eb:f2:02:94:50:
                    ee:cf:4a:fa:2b:2b:47:22:e8:8f:f5:d0:8b:47:5b:
                    51:4c:22:4f:c8:6e:d1:85:3d:7c:9a:4a:4d:9a:d2:
                    b5:07
                Exponent: 65537 (0x10001)
        X509v3 extensions:
            X509v3 Basic Constraints: critical
                CA:FALSE
            X509v3 Subject Key Identifier: 
                B6:AE:69:65:40:DB:15:55:0C:FE:78:81:51:28:A5:10:29:4A:7C:66
            X509v3 Authority Key Identifier: 
                9B:26:0B:8A:98:A9:BB:1D:B9:1F:1C:E3:1A:40:33:ED:8E:17:88:AB
            X509v3 Extended Key Usage: 
                TLS Web Server Authentication, TLS Web Client Authentication
            X509v3 Subject Alternative Name: 
                IP Address:127.0.0.1
    Signature Algorithm: sha1WithRSAEncryption
    Signature Value:
        49:d5:c4:8d:78:e1:f8:1a:9d:9d:ae:cb:6a:e3:2a:ba:67:84:
        6c:a3:07:a0:c6:5c:d5:92:76:29:39:65:ad:9d:b1:fe:c4:55:
        58:67:00:5f:bb:bb:e2:62:dc:52:02:31:ea:3a:85:b8:ef:05:
        5b:b0:3d:5e:b0:2f:4e:ff:2f:e4:1f:a3:ae:46:f6:09:02:fe:
        fe:4f:94:38:22:7e:26:6e:af:85:ab:97:84:5f:49:df:18:fb:
        11:f1:d8:56:dc:43:8f:bd:45:2b:16:05:cc:49:b7:47:0f:b3:
        55:83:74:1c:b1:46:1c:74:7f:52:ec:3a:30:5c:f8:80:11:c2:
        71:66:4a:1e:3b:48:44:b3:e2:00:b8:f0:9e:6a:2b:b2:16:97:
        03:c0:4a:1d:7f:cc:32:59:db:65:79:c3:81:01:a8:7a:20:20:
        1b:1c:41:54:f7:df:ec:35:04:91:40:4a:70:79:49:e4:cb:70:
        96:8a:1e:3e:ea:d7:2d:20:e1:0d:9e:48:db:62:bd:7d:a4:14:
        9c:66:73:27:d5:9c:f4:32:94:22:95:7f:03:e4:49:00:33:9c:
        07:11:82:aa:f2:ff:77:0b:bf:62:c5:07:e1:99:f6:ea:d3:42:
        61:8a:49:06:ca:36:90:cb:f9:0d:74:02:d5:1f:b8:7d:48:4b:
        b8:e3:19:9d
-----BEGIN CERTIFICATE-----
MIIDzjCCAragAwIBAgIQWoRwRxn1GrErAvwxPwjNNjANBgkqhkiG9w0BAQUFADBj
MQswCQYDVQQGEwJVUzETMBEGA1UECAwKQ2FsaWZvcm5pYTEWMBQGA1UEBwwNTW91
bnRhaW4gVmlldzEQMA4GA1UECgwHVGVzdCBDQTEVMBMGA1UEAwwMVGVzdCBSb290
IENBMB4XDTA4MTAzMDAwMDAwMFoXDTE2MTIzMDAwMDAwMFowYDELMAkGA1UEBhMC
VVMxEzARBgNVBAgMCkNhbGlmb3JuaWExFjAUBgNVBAcMDU1vdW50YWluIFZpZXcx
EDAOBgNVBAoMB1Rlc3QgQ0ExEjAQBgNVBAMMCTEyNy4wLjAuMTCCASIwDQYJKoZI
hvcNAQEBBQADggEPADCCAQoCggEBANkEauZsvVv+Xfjhg2loHRmkIcgF1ZLIFaTN
dG1iYbspYC+ySzrDicXP8VkPL5luCVm/TsmIHpDkTVeldKPPnc2Zo4pfZOPyE6/k
4EBR4kepQXqgsmJsMDBq8IITHv1hFCE2VEyozYvPXSjlQrB/kW1QJc4WOgpMmS9z
XSJf3EDVTKcdUdCxNJFFFaK3RAG2xwoL2Qz+mb/uJW0+RZsnZiSxdLkJrvIfmN9p
7q61O1iS8cx5Tl3um4kqWAYkfDW7H9X7S7Ocl4c9x1UC7IryawkNJ9H72Ev5QqPq
xuvyApRQ7s9K+isrRyLoj/XQi0dbUUwiT8hu0YU9fJpKTZrStQcCAwEAAaOBgDB+
MAwGA1UdEwEB/wQCMAAwHQYDVR0OBBYEFLauaWVA2xVVDP54gVEopRApSnxmMB8G
A1UdIwQYMBaAFJsmC4qYqbsduR8c4xpAM+2OF4irMB0GA1UdJQQWMBQGCCsGAQUF
BwMBBggrBgEFBQcDAjAPBgNVHREECDAGhwR/AAABMA0GCSqGSIb3DQEBBQUAA4IB
AQBJ1cSNeOH4Gp2drstq4yq6Z4RsowegxlzVknYpOWWtnbH+xFVYZwBfu7viYtxS
AjHqOoW47wVbsD1esC9O/y/kH6OuRvYJAv7+T5Q4In4mbq+Fq5eEX0nfGPsR8dhW
3EOPvUUrFgXMSbdHD7NVg3QcsUYcdH9S7DowXPiAEcJxZkoeO0hEs+IAuPCeaiuy
FpcDwEodf8wyWdtlecOBAah6ICAbHEFU99/sNQSRQEpweUnky3CWih4+6tctIOEN
nkjbYr19pBScZnMn1Zz0MpQilX8D5EkAM5wHEYKq8v93C79ixQfhmfbq00JhikkG
yjaQy/kNdALVH7h9SEu44xmd
-----END CERTIFICATE-----
