Certificate:
    Data:
        Version: 3 (0x2)
        Serial Number:
            b0:6b:93:92:e3:5c:8d:7e:ed:9d:c8:96:59:c5:c2:6e
        Signature Algorithm: sha1WithRSAEncryption
        Issuer: C=US, ST=California, L=Mountain View, O=Test CA, CN=Test Root CA
        Validity
            Not Before: Oct 30 00:00:00 2008 GMT
            Not After : Dec 30 00:00:00 2016 GMT
        Subject: C=US, ST=California, L=Mountain View, O=Test CA, CN=127.0.0.1
        Subject Public Key Info:
            Public Key Algorithm: rsaEncryption
                Public-Key: (2048 bit)
                Modulus:
                    00:c5:5d:b5:e9:b8:f3:a2:a8:01:b7:3b:c0:e3:89:
                    89:cc:60:04:36:1a:ea:d1:52:9a:4b:6b:6f:5c:80:
                    09:e9:b9:89:49:53:4f:7c:c9:d3:04:2e:7c:91:4f:
                    b7:31:de:38:fc:18:37:53:9e:7f:4e:6a:03:68:df:
                    53:1b:95:06:10:88:5c:12:61:a1:73:4e:c9:a4:e0:
                    54:66:15:6f:f1:13:a8:ab:82:1d:f5:30:a4:f5:4c:
                    3d:52:49:4a:8e:d4:65:16:f1:7e:c5:9a:2f:08:de:
                    95:b5:02:54:24:ce:36:70:6c:48:07:a8:3b:ad:2e:
                    a0:41:d2:c6:84:06:62:c7:ec:e0:d0:9c:bf:a1:13:
                    7c:51:df:ab:7c:da:1d:02:f7:70:9e:e6:7b:8a:af:
                    75:f4:99:27:17:32:9f:b2:95:dc:3c:f8:80:4f:a3:
                    1e:82:0b:48:79:6a:ba:11:e0:65:2e:07:fe:74:db:
                    28:c0:99:f6:72:be:03:2a:5e:22:4d:25:43:6d:39:
                    97:76:ae:d4:58:8d:0a:23:4c:5a:89:48:55:7d:2b:
                    8e:7d:cc:95:5a:47:30:34:b3:4c:98:00:4f:30:28:
                    d9:c5:2d:2b:0f:79:b5:1a:19:73:58:fe:74:d2:50:
                    d8:5e:a0:40:0e:44:c3:ec:6d:5f:6e:ac:86:ab:43:
                    af:a7
                Exponent: 65537 (0x10001)
        X509v3 extensions:
            X509v3 Basic Constraints: critical
                CA:FALSE
            X509v3 Subject Key Identifier: 
                89:46:0C:BD:AB:A9:64:95:21:BF:40:3B:0A:35:60:B7:EA:20:4F:F9
            X509v3 Authority Key Identifier: 
                9B:26:0B:8A:98:A9:BB:1D:B9:1F:1C:E3:1A:40:33:ED:8E:17:88:AB
            X509v3 Extended Key Usage: 
                TLS Web Server Authentication, TLS Web Client Authentication
            X509v3 Subject Alternative Name: 
                IP Address:127.0.0.1
    Signature Algorithm: sha1WithRSAEncryption
    Signature Value:
        17:78:1c:ee:69:6f:a9:3a:14:f6:48:e8:2f:c9:23:3c:f1:83:
        c0:99:20:b6:21:cc:10:e1:22:06:cd:de:cc:e3:3c:fc:60:23:
        47:fa:df:03:7f:6a:1e:3b:6a:8c:fd:66:64:9d:3f:57:89:62:
        41:23:a7:30:c7:f2:58:40:aa:b9:dc:69:74:3e:b4:cd:fc:54:
        1e:2a:b5:6a:02:62:11:b6:d7:f9:6a:0f:31:37:45:9d:24:34:
        a6:40:d5:82:1f:0c:a3:ec:53:32:b6:57:64:9d:49:60:bc:3c:
        4d:57:b1:f5:a0:3e:c0:50:c5:12:56:70:66:4b:bb:f6:19:3b:
        a3:23:58:c3:c5:8e:51:5a:71:f6:a8:c6:e9:82:c8:d7:77:13:
        6d:27:d0:28:67:de:64:c9:df:db:2a:f1:0f:0d:e4:ba:5b:bc:
        46:5e:bb:a9:7a:50:b3:54:83:e4:fa:b2:3e:18:03:06:d1:d5:
        5c:50:45:25:47:9b:33:7e:3c:f3:c4:f4:c6:79:ad:e8:63:28:
        f1:2c:05:08:de:83:db:3e:41:df:5d:eb:6e:53:12:51:f8:fb:
        c4:e4:c5:dd:b1:72:e2:ae:f7:25:6c:e1:f4:aa:50:b8:b5:7c:
        cf:78:f3:9b:dc:e3:7d:86:f3:54:79:2e:7e:b9:e4:3b:ce:e3:
        37:4b:9f:72
-----BEGIN CERTIFICATE-----
MIIDzzCCAregAwIBAgIRALBrk5LjXI1+7Z3IllnFwm4wDQYJKoZIhvcNAQEFBQAw
YzELMAkGA1UEBhMCVVMxEzARBgNVBAgMCkNhbGlmb3JuaWExFjAUBgNVBAcMDU1v
dW50YWluIFZpZXcxEDAOBgNVBAoMB1Rlc3QgQ0ExFTATBgNVBAMMDFRlc3QgUm9v
dCBDQTAeFw0wODEwMzAwMDAwMDBaFw0xNjEyMzAwMDAwMDBaMGAxCzAJBgNVBAYT
AlVTMRMwEQYDVQQIDApDYWxpZm9ybmlhMRYwFAYDVQQHDA1Nb3VudGFpbiBWaWV3
MRAwDgYDVQQKDAdUZXN0IENBMRIwEAYDVQQDDAkxMjcuMC4wLjEwggEiMA0GCSqG
SIb3DQEBAQUAA4IBDwAwggEKAoIBAQDFXbXpuPOiqAG3O8DjiYnMYAQ2GurRUppL
a29cgAnpuYlJU098ydMELnyRT7cx3jj8GDdTnn9OagNo31MblQYQiFwSYaFzTsmk
4FRmFW/xE6irgh31MKT1TD1SSUqO1GUW8X7Fmi8I3pW1AlQkzjZwbEgHqDutLqBB
0saEBmLH7ODQnL+hE3xR36t82h0C93Ce5nuKr3X0mScXMp+yldw8+IBPox6CC0h5
aroR4GUuB/502yjAmfZyvgMqXiJNJUNtOZd2rtRYjQojTFqJSFV9K459zJVaRzA0
s0yYAE8wKNnFLSsPebUaGXNY/nTSUNheoEAORMPsbV9urIarQ6+nAgMBAAGjgYAw
fjAMBgNVHRMBAf8EAjAAMB0GA1UdDgQWBBSJRgy9q6lklSG/QDsKNWC36iBP+TAf
BgNVHSMEGDAWgBSbJguKmKm7HbkfHOMaQDPtjheIqzAdBgNVHSUEFjAUBggrBgEF
BQcDAQYIKwYBBQUHAwIwDwYDVR0RBAgwBocEfwAAATANBgkqhkiG9w0BAQUFAAOC
AQEAF3gc7mlvqToU9kjoL8kjPPGDwJkgtiHMEOEiBs3ezOM8/GAjR/rfA39qHjtq
jP1mZJ0/V4liQSOnMMfyWECqudxpdD60zfxUHiq1agJiEbbX+WoPMTdFnSQ0pkDV
gh8Mo+xTMrZXZJ1JYLw8TVex9aA+wFDFElZwZku79hk7oyNYw8WOUVpx9qjG6YLI
13cTbSfQKGfeZMnf2yrxDw3kulu8Rl67qXpQs1SD5PqyPhgDBtHVXFBFJUebM348
88T0xnmt6GMo8SwFCN6D2z5B313rblMSUfj7xOTF3bFy4q73JWzh9KpQuLV8z3jz
m9zjfYbzVHkufrnkO87jN0ufcg==
-----END CERTIFICATE-----
