-----BEGIN PRIVATE KEY-----
MIIEvwIBADANBgkqhkiG9w0BAQEFAASCBKkwggSlAgEAAoIBAQC9o+TdWyQ2AkBd
6MXG42PIyEXvsufPWoZG2ZReNf3amGoh0CmUXffA7jFiJUDqBy/K/Cyuf7IBGgfG
SA9KM2kTUbvMMR0uXqrx0hlPDaZRg0DFwBBFl7WrRUjE6ivlI8XadwBKTc8EIZOr
xtm22PA2z1HCbE7pLvuA0s4kJ1kbhYkUQneEhqiahC2tsuOMj90lI0T6ChgjCb1r
8Odgr0MOH3hkhyo+NlRSKpI0ZKlwuAA4UdBxyII5YmCcd3U9dHYviEezZ4AQwWEd
CjUaNkrfNewDatDf97LTrPo9VY6BTq3g77LLlpW93roTiVhEQb8YjrKS4jjmIQEN
tzTnh7GxAgMBAAECggEBAJQqbTIVd6FK+QdmSsAuAVRqRVoWKc90Jt1MOgOxo3kb
BDEO9q2ZDW2LrMHF4YX3v3uUs0RTOLxrng9pVajfqgUSIuxSoz4LcPwm7uc4/u1I
416dxRjag3IhW82eOFV7MaaSu4NSb6AGq93WK1wU+vmX2YVSIgVGU/I+whi1NYWt
4Cq72f0E30F72G1+OrBZpdJpojSVOfRZY+VK8CIphNLtXlCzNv2omfTfvmyfEi02
vsxFylck6ULmQNFbuIaVrAJx5giAW8VFnvs/6NatyO+xOdelrgYJ/q+UQwvtstD2
qVoxV2a3mDQ0djoK6GZmFFwGy2BDlnFrEpugXjqgEdECgYEA+5SQuBLX1Xd4W7H6
WLxljobf7ACLd9vpgPmhtEpWTHFRdvdYrhc8Gs/FIEIGNoIFimZJZ0+DzOfULep8
2WYMheIahYOK+4nZfHyZbf2pdiXaNukX0C/wwTsACuTBOWC4GH0v1LYkYykDlCyf
MrFKuS9WjGFPB893s5M7lClpn3sCgYEAwPjDyGYmRif4ZGe4GfL1+vbmHJu0bd+3
n4FfwEpvaBn2xrNjcT+tc9uANN6knAccT9krWtmthJ+SYQ21hlTinbpzYC6/4Olf
BcKA4EbQTr9EV3IeqI5PRkMMJ4VKzfbskLSrcO6YGZq7dVfhULRFGms7wHx+ijJP
xP7gsNOQdcMCgYEA9McvK7pBwBP2yhjYAQCFO3ClbEV3bY5NmkzIddeiMcxLvBmb
cf9vXpLrNKCo1N4bL/an0tn93h9uRaKSCSAObTF6Jo+/aVBNiJ7e1bLp7+eScrzG
i6wpbojOWMsL6ZzeYg1jvW3e55AfSEtGNhdkIdwaNIn1UB8fU1ycqmLEvwMCgYBj
ZwF7Flt64hYKqn7kJwpcp5grfm1397jf2kXXiMBQkKdU/Y0pBhM0TgqBsXp7wRHt
c8Hof57pZUWC5wvt0YYWl7fdANfoZG6FSgcXAINHPTFYFjoCu6PMXrdBGGFLLXn4
pIh3mQASmGkd7hHrf6DlFf3mjnqkd3wtztkxXRnZ/wKBgQCBEMMJa19ONAdVWtP9
G2QeqthDPoMJDbvUAbjPoxUwBhN8vIObeamWsaKU9zbuDPpNaKw5pq6PdEFPOttu
i4du0hSRW/tH8XBa8lKdbGak8/KMLesfd3BKKLhwLe8Zr7l7n0br920MTWKbKuqM
ZAEGf9m7isatL4lNdngVXV2aUA==
-----END PRIVATE KEY-----
Certificate:
    Data:
        Version: 3 (0x2)
        Serial Number:
            f9:fc:f0:61:a5:95:a9:3e:04:b2:80:d9:e4:4d:dd:1c
        Signature Algorithm: sha1WithRSAEncryption
        Issuer: C=US, ST=California, L=Mountain View, O=Test CA, CN=Test Root CA
        Validity
            Not Before: Oct 10 17:12:19 2025 GMT
            Not After : Oct 10 17:12:19 2027 GMT
        Subject: C=US, ST=California, L=Mountain View, O=Test CA, CN=127.0.0.1
        Subject Public Key Info:
            Public Key Algorithm: rsaEncryption
                Public-Key: (2048 bit)
                Modulus:
                    00:bd:a3:e4:dd:5b:24:36:02:40:5d:e8:c5:c6:e3:
                    63:c8:c8:45:ef:b2:e7:cf:5a:86:46:d9:94:5e:35:
                    fd:da:98:6a:21:d0:29:94:5d:f7:c0:ee:31:62:25:
                    40:ea:07:2f:ca:fc:2c:ae:7f:b2:01:1a:07:c6:48:
                    0f:4a:33:69:13:51:bb:cc:31:1d:2e:5e:aa:f1:d2:
                    19:4f:0d:a6:51:83:40:c5:c0:10:45:97:b5:ab:45:
                    48:c4:ea:2b:e5:23:c5:da:77:00:4a:4d:cf:04:21:
                    93:ab:c6:d9:b6:d8:f0:36:cf:51:c2:6c:4e:e9:2e:
                    fb:80:d2:ce:24:27:59:1b:85:89:14:42:77:84:86:
                    a8:9a:84:2d:ad:b2:e3:8c:8f:dd:25:23:44:fa:0a:
                    18:23:09:bd:6b:f0:e7:60:af:43:0e:1f:78:64:87:
                    2a:3e:36:54:52:2a:92:34:64:a9:70:b8:00:38:51:
                    d0:71:c8:82:39:62:60:9c:77:75:3d:74:76:2f:88:
                    47:b3:67:80:10:c1:61:1d:0a:35:1a:36:4a:df:35:
                    ec:03:6a:d0:df:f7:b2:d3:ac:fa:3d:55:8e:81:4e:
                    ad:e0:ef:b2:cb:96:95:bd:de:ba:13:89:58:44:41:
                    bf:18:8e:b2:92:e2:38:e6:21:01:0d:b7:34:e7:87:
                    b1:b1
                Exponent: 65537 (0x10001)
        X509v3 extensions:
            X509v3 Basic Constraints: critical
                CA:FALSE
            X509v3 Subject Key Identifier: 
                1F:90:87:C1:2E:EE:B4:70:94:B3:39:33:71:D2:37:34:19:46:7C:40
            X509v3 Authority Key Identifier: 
                9B:26:0B:8A:98:A9:BB:1D:B9:1F:1C:E3:1A:40:33:ED:8E:17:88:AB
            X509v3 Extended Key Usage: 
                TLS Web Server Authentication, TLS Web Client Authentication
            X509v3 Subject Alternative Name: 
                IP Address:127.0.0.1
    Signature Algorithm: sha1WithRSAEncryption
    Signature Value:
        31:5a:52:68:72:0f:f8:63:94:74:80:3f:8a:cb:7f:d0:55:c7:
        97:9d:18:ab:44:b7:25:ad:bd:07:1f:11:2b:5e:43:07:20:32:
        da:ce:e4:6a:0f:ae:5a:96:20:e6:ca:86:e1:bc:9f:ac:26:0b:
        7d:17:71:1e:53:d6:ff:05:6d:46:15:d7:52:2c:67:da:f7:a7:
        c8:46:c4:ef:8d:6f:8a:54:b6:9d:4d:07:d7:b5:f0:6e:2b:87:
        0c:1e:d1:3b:d5:08:9e:90:a2:55:08:6f:af:15:f8:53:03:80:
        a2:9c:4f:35:29:11:49:a8:b9:bf:a5:ae:be:01:7d:12:32:5a:
        9d:3c:71:b2:66:5f:80:88:11:05:27:dd:a9:19:56:76:e5:2d:
        46:61:e0:49:03:3f:13:8b:d3:9d:4b:b7:a2:c6:de:e0:b7:c1:
        cd:79:3e:c2:90:7b:c7:b6:48:cb:32:ee:e6:0e:89:fe:e0:1b:
        56:37:bd:74:e8:ae:0b:89:e9:28:2d:7b:a3:6f:7b:7b:bc:7e:
        c0:08:87:eb:a8:58:41:61:c9:dc:00:89:0d:26:aa:12:62:dd:
        64:af:19:95:f8:41:03:70:ae:2e:c4:8b:b7:78:80:18:dc:e0:
        b5:78:3e:ec:e7:42:0c:aa:0b:e0:26:5b:62:d8:9a:14:7f:0c:
        55:de:be:76
-----BEGIN CERTIFICATE-----
MIIDzzCCAregAwIBAgIRAPn88GGllak+BLKA2eRN3RwwDQYJKoZIhvcNAQEFBQAw
YzELMAkGA1UEBhMCVVMxEzARBgNVBAgMCkNhbGlmb3JuaWExFjAUBgNVBAcMDU1v
dW50YWluIFZpZXcxEDAOBgNVBAoMB1Rlc3QgQ0ExFTATBgNVBAMMDFRlc3QgUm9v
dCBDQTAeFw0yNTEwMTAxNzEyMTlaFw0yNzEwMTAxNzEyMTlaMGAxCzAJBgNVBAYT
AlVTMRMwEQYDVQQIDApDYWxpZm9ybmlhMRYwFAYDVQQHDA1Nb3VudGFpbiBWaWV3
MRAwDgYDVQQKDAdUZXN0IENBMRIwEAYDVQQDDAkxMjcuMC4wLjEwggEiMA0GCSqG
SIb3DQEBAQUAA4IBDwAwggEKAoIBAQC9o+TdWyQ2AkBd6MXG42PIyEXvsufPWoZG
2ZReNf3amGoh0CmUXffA7jFiJUDqBy/K/Cyuf7IBGgfGSA9KM2kTUbvMMR0uXqrx
0hlPDaZRg0DFwBBFl7WrRUjE6ivlI8XadwBKTc8EIZOrxtm22PA2z1HCbE7pLvuA
0s4kJ1kbhYkUQneEhqiahC2tsuOMj90lI0T6ChgjCb1r8Odgr0MOH3hkhyo+NlRS
KpI0ZKlwuAA4UdBxyII5YmCcd3U9dHYviEezZ4AQwWEdCjUaNkrfNewDatDf97LT
rPo9VY6BTq3g77LLlpW93roTiVhEQb8YjrKS4jjmIQENtzTnh7GxAgMBAAGjgYAw
fjAMBgNVHRMBAf8EAjAAMB0GA1UdDgQWBBQfkIfBLu60cJSzOTNx0jc0GUZ8QDAf
BgNVHSMEGDAWgBSbJguKmKm7HbkfHOMaQDPtjheIqzAdBgNVHSUEFjAUBggrBgEF
BQcDAQYIKwYBBQUHAwIwDwYDVR0RBAgwBocEfwAAATANBgkqhkiG9w0BAQUFAAOC
AQEAMVpSaHIP+GOUdIA/ist/0FXHl50Yq0S3Ja29Bx8RK15DByAy2s7kag+uWpYg
5sqG4byfrCYLfRdxHlPW/wVtRhXXUixn2venyEbE741vilS2nU0H17XwbiuHDB7R
O9UInpCiVQhvrxX4UwOAopxPNSkRSai5v6WuvgF9EjJanTxxsmZfgIgRBSfdqRlW
duUtRmHgSQM/E4vTnUu3osbe4LfBzXk+wpB7x7ZIyzLu5g6J/uAbVje9dOiuC4np
KC17o297e7x+wAiH66hYQWHJ3ACJDSaqEmLdZK8ZlfhBA3CuLsSLt3iAGNzgtXg+
7OdCDKoL4CZbYtiaFH8MVd6+dg==
-----END CERTIFICATE-----
