Certificate:
    Data:
        Version: 3 (0x2)
        Serial Number:
            50:0f:f6:88:fb:68:e6:ca:6a:f7:85:d9:e9:4c:ad:41:85:a1:f4:28
        Signature Algorithm: sha256WithRSAEncryption
        Issuer: C=US, ST=California, L=Mountain View, O=Test CA, CN=127.0.0.1
        Validity
            Not Before: Oct 10 17:12:19 2025 GMT
            Not After : Oct  8 17:12:19 2035 GMT
        Subject: C=US, ST=California, L=Mountain View, O=Test CA, CN=127.0.0.1
        Subject Public Key Info:
            Public Key Algorithm: rsaEncryption
                Public-Key: (2048 bit)
                Modulus:
                    00:b5:d9:54:7c:28:87:84:52:27:d7:78:fc:81:8c:
                    21:67:a8:3d:5c:3d:44:a2:0a:4b:71:cc:7c:6b:c8:
                    1c:8b:ba:18:c9:5d:bf:9d:88:82:84:3f:4b:39:34:
                    d4:2e:f9:2c:ad:89:f6:53:a0:da:4b:3f:bf:e1:ab:
                    c1:18:f6:fd:2d:ae:12:70:44:16:69:86:66:b5:1f:
                    2f:9b:05:72:83:9f:d3:fd:7d:b7:16:b9:7b:f6:d3:
                    53:a4:8f:14:a0:22:56:98:be:8c:44:c2:1a:28:a5:
                    1f:67:7d:09:39:22:25:f4:b3:f3:c2:2a:f0:83:ae:
                    79:d3:97:64:34:77:a3:db:4e:8b:86:75:e9:92:69:
                    7a:10:e7:1b:2e:48:0c:b0:0e:e8:6e:b3:ac:0c:cf:
                    14:87:be:17:ab:70:fa:38:7f:e9:08:ff:bb:db:2d:
                    4a:38:d3:74:ce:1b:bb:95:8b:a8:ca:5a:ac:15:39:
                    ac:70:fb:5f:44:d6:fa:1e:ca:f8:66:4c:34:b3:d3:
                    2f:da:65:e0:21:74:17:63:6d:ed:e3:bd:4b:47:94:
                    10:5a:31:e0:5a:76:43:14:7b:79:2b:4b:fb:17:0d:
                    90:53:57:5f:52:c3:c0:46:57:ac:46:52:1b:f3:f0:
                    50:4e:62:25:44:7e:64:43:f7:0d:91:e0:f5:28:05:
                    86:95
                Exponent: 65537 (0x10001)
        X509v3 extensions:
            X509v3 Subject Alternative Name: 
                DNS:www.example.org, DNS:mail.example.org, DNS:mail.example.com, DNS:example.test
            X509v3 Subject Key Identifier: 
                2D:7C:F2:5E:EC:95:CC:9B:EA:42:17:8C:22:FC:1F:8C:45:B6:52:5C
    Signature Algorithm: sha256WithRSAEncryption
    Signature Value:
        1d:e0:7f:00:cf:62:b2:16:06:b6:6e:e1:de:96:69:89:8d:49:
        8d:c2:59:07:04:96:9e:b2:e0:31:a3:60:f6:32:14:e5:21:c3:
        bd:30:5a:29:50:c4:c9:ea:c6:82:01:b7:64:56:c1:36:36:61:
        69:af:0d:c0:06:87:e5:91:10:19:d7:43:9d:32:43:d3:b4:5f:
        b6:19:bd:4c:59:f7:80:d2:8f:4d:30:90:12:98:56:6b:a7:12:
        85:27:d7:c6:0a:f2:c8:14:76:d0:bd:b9:16:39:ea:df:28:f8:
        22:ef:05:67:7a:d4:4e:5d:6f:7a:4e:56:98:ae:d1:97:f2:52:
        24:d4:d4:97:ec:c8:12:30:8c:58:56:62:30:6b:f1:50:04:dc:
        0b:55:0e:bc:90:fa:50:17:1f:c0:3f:47:3d:b3:c8:67:fb:fc:
        f1:1f:24:ea:1a:58:cd:0a:3e:b4:dc:51:f0:d3:09:b0:96:90:
        e1:6c:a1:d9:48:89:85:d6:5c:0c:39:7b:c4:ad:6c:b7:57:8c:
        5f:bb:9e:23:3a:4d:be:cf:a2:45:53:95:23:0a:f1:f7:9b:d6:
        39:2a:a1:9f:d2:1d:76:0e:39:e0:41:af:e7:df:ac:99:af:79:
        ab:4e:c0:39:4b:f0:db:73:52:f6:70:85:66:5a:9a:32:8b:fc:
        a5:a2:fd:fa
-----BEGIN CERTIFICATE-----
MIIDvTCCAqWgAwIBAgIUUA/2iPto5spq94XZ6UytQYWh9CgwDQYJKoZIhvcNAQEL
BQAwYDELMAkGA1UEBhMCVVMxEzARBgNVBAgMCkNhbGlmb3JuaWExFjAUBgNVBAcM
DU1vdW50YWluIFZpZXcxEDAOBgNVBAoMB1Rlc3QgQ0ExEjAQBgNVBAMMCTEyNy4w
LjAuMTAeFw0yNTEwMTAxNzEyMTlaFw0zNTEwMDgxNzEyMTlaMGAxCzAJBgNVBAYT
AlVTMRMwEQYDVQQIDApDYWxpZm9ybmlhMRYwFAYDVQQHDA1Nb3VudGFpbiBWaWV3
MRAwDgYDVQQKDAdUZXN0IENBMRIwEAYDVQQDDAkxMjcuMC4wLjEwggEiMA0GCSqG
SIb3DQEBAQUAA4IBDwAwggEKAoIBAQC12VR8KIeEUifXePyBjCFnqD1cPUSiCktx
zHxryByLuhjJXb+diIKEP0s5NNQu+SytifZToNpLP7/hq8EY9v0trhJwRBZphma1
Hy+bBXKDn9P9fbcWuXv201OkjxSgIlaYvoxEwhoopR9nfQk5IiX0s/PCKvCDrnnT
l2Q0d6PbTouGdemSaXoQ5xsuSAywDuhus6wMzxSHvhercPo4f+kI/7vbLUo403TO
G7uVi6jKWqwVOaxw+19E1voeyvhmTDSz0y/aZeAhdBdjbe3jvUtHlBBaMeBadkMU
e3krS/sXDZBTV19Sw8BGV6xGUhvz8FBOYiVEfmRD9w2R4PUoBYaVAgMBAAGjbzBt
MEwGA1UdEQRFMEOCD3d3dy5leGFtcGxlLm9yZ4IQbWFpbC5leGFtcGxlLm9yZ4IQ
bWFpbC5leGFtcGxlLmNvbYIMZXhhbXBsZS50ZXN0MB0GA1UdDgQWBBQtfPJe7JXM
m+pCF4wi/B+MRbZSXDANBgkqhkiG9w0BAQsFAAOCAQEAHeB/AM9ishYGtm7h3pZp
iY1JjcJZBwSWnrLgMaNg9jIU5SHDvTBaKVDEyerGggG3ZFbBNjZhaa8NwAaH5ZEQ
GddDnTJD07Rfthm9TFn3gNKPTTCQEphWa6cShSfXxgryyBR20L25Fjnq3yj4Iu8F
Z3rUTl1vek5WmK7Rl/JSJNTUl+zIEjCMWFZiMGvxUATcC1UOvJD6UBcfwD9HPbPI
Z/v88R8k6hpYzQo+tNxR8NMJsJaQ4Wyh2UiJhdZcDDl7xK1st1eMX7ueIzpNvs+i
RVOVIwrx95vWOSqhn9Iddg454EGv59+sma95q07AOUvw23NS9nCFZlqaMov8paL9
+g==
-----END CERTIFICATE-----
