Certificate:
    Data:
        Version: 3 (0x2)
        Serial Number:
            76:f6:f4:9b:0f:e3:13:bd:cd:40:e8:d9:13:f5:58:44:59:b6:c9:3c
        Signature Algorithm: sha256WithRSAEncryption
        Issuer: C = US, ST = California, L = Mountain View, O = Test CA, CN = 127.0.0.1
        Validity
            Not Before: Oct 30 18:43:14 2023 GMT
            Not After : Oct 27 18:43:14 2033 GMT
        Subject: C = US, ST = California, L = Mountain View, O = Test CA, CN = 127.0.0.1
        Subject Public Key Info:
            Public Key Algorithm: rsaEncryption
                Public-Key: (2048 bit)
                Modulus:
                    00:e1:a7:15:a5:ef:f9:cd:bd:86:9a:fa:48:90:25:
                    69:4f:31:e7:63:c4:bb:6b:3f:6b:c6:b4:83:26:28:
                    55:99:cf:f6:7d:9f:6c:c6:e9:e0:ce:98:1d:b8:3c:
                    d0:3a:2a:87:82:84:7d:56:e3:50:8d:dd:8f:74:59:
                    31:84:8b:91:22:cf:49:5c:bc:7b:cc:2a:c6:b4:92:
                    c9:08:de:22:53:b1:e3:de:96:cd:e4:f4:42:da:f3:
                    08:28:54:1c:ca:25:fb:e3:2c:66:23:95:4c:11:8d:
                    e4:e3:6b:f0:ca:fc:97:44:c9:a3:f5:93:4e:4c:cd:
                    46:e0:36:7d:53:f1:aa:da:13:52:d2:3d:f9:7b:12:
                    87:ec:25:b5:f4:b5:ff:5f:b2:c4:fa:5e:a7:5c:d7:
                    4a:83:14:91:0a:e7:e7:75:2a:5f:ee:80:cf:a0:46:
                    bb:34:cd:22:95:67:13:16:fa:57:14:3f:73:d5:bc:
                    6b:cd:78:7a:9b:eb:f2:8b:14:07:6c:40:a6:84:f8:
                    39:56:ca:6a:e1:d0:6e:51:cf:56:39:5b:16:aa:fc:
                    e2:ed:84:29:8a:a8:91:f1:eb:69:96:fe:ec:97:90:
                    c5:76:67:e0:8a:ba:74:65:34:53:62:12:ed:58:d9:
                    fc:3d:d6:03:a7:5d:d9:d5:b8:25:d6:a4:29:8f:b7:
                    ab:85
                Exponent: 65537 (0x10001)
        X509v3 extensions:
            X509v3 Subject Alternative Name: 
                DNS:www.example.org, DNS:mail.example.org, DNS:mail.example.com, DNS:example.test
            X509v3 Subject Key Identifier: 
                31:81:AE:03:F6:BA:E9:75:A6:C9:DA:66:8D:C4:87:A6:E8:01:D4:78
    Signature Algorithm: sha256WithRSAEncryption
    Signature Value:
        6a:c0:22:3e:06:88:b1:cd:af:97:ad:33:4f:9a:7b:68:2c:9f:
        1e:ce:f4:44:4f:3e:9f:50:27:76:b7:d4:93:e8:da:8c:d1:99:
        22:26:a6:bd:40:6e:0e:6b:3e:a1:e3:70:b2:d9:e8:96:c9:4f:
        90:cd:0e:97:19:35:b1:c0:13:b7:01:bf:25:11:2c:f5:53:f5:
        b7:70:e7:ab:56:e7:50:44:1f:00:7d:a9:36:8d:54:63:24:58:
        7f:25:04:05:25:c9:5d:34:c4:13:1b:18:11:0e:1f:9a:a2:61:
        13:79:c1:fc:fc:42:ea:b7:7a:0d:a7:f4:15:ae:97:6a:e3:03:
        3f:9d:5c:f7:f6:3d:27:08:79:f2:6b:2e:49:b5:71:45:38:9c:
        f1:a4:1b:37:2f:0a:06:c0:fb:b5:4b:d6:2b:a4:44:08:9a:be:
        4e:c6:8d:b5:b4:10:97:54:b7:c7:bf:91:20:5c:ce:bb:0a:ac:
        df:1c:af:af:69:56:a6:a7:b4:1d:31:d1:23:df:d6:42:49:ab:
        4b:22:2f:8c:36:e2:7f:05:15:a1:f0:dc:0d:62:51:53:70:b8:
        af:be:61:56:65:75:3d:7d:a5:0a:b2:99:da:75:81:18:2b:92:
        1d:a3:5b:c9:a6:bc:ff:8d:a1:33:a6:0f:04:1b:bc:71:33:81:
        b5:ca:4c:c0
-----BEGIN CERTIFICATE-----
MIIDvTCCAqWgAwIBAgIUdvb0mw/jE73NQOjZE/VYRFm2yTwwDQYJKoZIhvcNAQEL
BQAwYDELMAkGA1UEBhMCVVMxEzARBgNVBAgMCkNhbGlmb3JuaWExFjAUBgNVBAcM
DU1vdW50YWluIFZpZXcxEDAOBgNVBAoMB1Rlc3QgQ0ExEjAQBgNVBAMMCTEyNy4w
LjAuMTAeFw0yMzEwMzAxODQzMTRaFw0zMzEwMjcxODQzMTRaMGAxCzAJBgNVBAYT
AlVTMRMwEQYDVQQIDApDYWxpZm9ybmlhMRYwFAYDVQQHDA1Nb3VudGFpbiBWaWV3
MRAwDgYDVQQKDAdUZXN0IENBMRIwEAYDVQQDDAkxMjcuMC4wLjEwggEiMA0GCSqG
SIb3DQEBAQUAA4IBDwAwggEKAoIBAQDhpxWl7/nNvYaa+kiQJWlPMedjxLtrP2vG
tIMmKFWZz/Z9n2zG6eDOmB24PNA6KoeChH1W41CN3Y90WTGEi5Eiz0lcvHvMKsa0
kskI3iJTsePels3k9ELa8wgoVBzKJfvjLGYjlUwRjeTja/DK/JdEyaP1k05MzUbg
Nn1T8araE1LSPfl7EofsJbX0tf9fssT6Xqdc10qDFJEK5+d1Kl/ugM+gRrs0zSKV
ZxMW+lcUP3PVvGvNeHqb6/KLFAdsQKaE+DlWymrh0G5Rz1Y5Wxaq/OLthCmKqJHx
62mW/uyXkMV2Z+CKunRlNFNiEu1Y2fw91gOnXdnVuCXWpCmPt6uFAgMBAAGjbzBt
MEwGA1UdEQRFMEOCD3d3dy5leGFtcGxlLm9yZ4IQbWFpbC5leGFtcGxlLm9yZ4IQ
bWFpbC5leGFtcGxlLmNvbYIMZXhhbXBsZS50ZXN0MB0GA1UdDgQWBBQxga4D9rrp
dabJ2maNxIem6AHUeDANBgkqhkiG9w0BAQsFAAOCAQEAasAiPgaIsc2vl60zT5p7
aCyfHs70RE8+n1AndrfUk+jajNGZIiamvUBuDms+oeNwstnolslPkM0Olxk1scAT
twG/JREs9VP1t3Dnq1bnUEQfAH2pNo1UYyRYfyUEBSXJXTTEExsYEQ4fmqJhE3nB
/PxC6rd6Daf0Fa6XauMDP51c9/Y9Jwh58msuSbVxRTic8aQbNy8KBsD7tUvWK6RE
CJq+TsaNtbQQl1S3x7+RIFzOuwqs3xyvr2lWpqe0HTHRI9/WQkmrSyIvjDbifwUV
ofDcDWJRU3C4r75hVmV1PX2lCrKZ2nWBGCuSHaNbyaa8/42hM6YPBBu8cTOBtcpM
wA==
-----END CERTIFICATE-----
