Certificate:
    Data:
        Version: 3 (0x2)
        Serial Number:
            12:2e:f2:2d:e2:b5:a4:d9:f9:54:a2:fb:77:07:f4:1d:51:f2:3a:7f
        Signature Algorithm: sha256WithRSAEncryption
        Issuer: C = US, ST = California, L = Mountain View, O = Test CA, CN = 127.0.0.1
        Validity
            Not Before: Dec  1 15:42:07 2021 GMT
            Not After : Nov 29 15:42:07 2031 GMT
        Subject: C = US, ST = California, L = Mountain View, O = Test CA, CN = 127.0.0.1
        Subject Public Key Info:
            Public Key Algorithm: rsaEncryption
                RSA Public-Key: (2048 bit)
                Modulus:
                    00:a7:1e:07:5b:25:e9:5c:f6:b0:3d:31:36:ee:d0:
                    e3:8d:63:4a:2e:c2:c2:5a:59:fd:b3:55:b8:c9:93:
                    25:42:66:76:b5:ec:15:1e:f7:9e:73:5f:c6:5f:8a:
                    64:80:d1:97:1b:37:1a:77:f7:42:a5:c9:70:2a:62:
                    b1:e2:e9:bf:42:1f:c3:cf:3c:69:8d:42:7b:60:21:
                    e6:35:79:37:9a:93:10:dd:cc:9c:1f:9a:e9:49:02:
                    2c:af:50:8b:69:62:a0:32:4e:46:69:f3:73:5c:fc:
                    94:2a:12:ed:f4:76:a4:32:49:47:38:34:9e:8b:20:
                    1f:4f:57:57:2f:07:8f:a6:f1:35:68:c7:5f:16:1a:
                    cd:cf:ee:a4:c8:f9:6a:de:1c:d4:09:13:7d:a3:29:
                    8d:1c:70:f5:19:e1:66:e1:24:5e:9b:22:11:18:1d:
                    9d:bf:df:e5:47:d2:18:83:4e:13:a3:45:20:67:9d:
                    a0:06:17:32:ce:bd:9c:a2:49:5d:ed:5d:39:c7:c6:
                    eb:73:b2:97:ce:57:42:24:71:77:8d:23:f0:ad:1f:
                    2e:2b:52:cc:b1:8a:08:ac:78:77:4a:c9:1a:9b:32:
                    e4:1e:7f:aa:c3:1a:e6:ed:7f:1d:df:03:da:c0:76:
                    c2:c1:40:a5:20:30:6c:3d:8a:95:0f:1f:b5:b2:f1:
                    c8:e1
                Exponent: 65537 (0x10001)
        X509v3 extensions:
            X509v3 Subject Alternative Name: 
                DNS:www.example.org, DNS:mail.example.org, DNS:mail.example.com, DNS:example.test
    Signature Algorithm: sha256WithRSAEncryption
         80:a7:d2:27:56:cd:c7:fc:3b:a7:78:2c:d7:fd:e3:6f:41:94:
         d7:c6:1b:02:18:25:1c:31:0a:92:d3:9b:2e:77:32:02:0f:da:
         6e:df:81:9c:80:1b:1e:b2:82:fd:8e:27:77:0e:a5:0b:3b:82:
         bb:a0:92:3a:a1:6a:f2:0f:a4:5a:69:da:37:69:94:d6:75:c5:
         19:05:2b:c1:46:16:35:d9:e2:31:e6:9f:1e:80:0d:bc:7f:a4:
         01:f3:c8:63:3e:e9:78:7b:3e:c1:b0:a0:69:df:30:b4:a6:0b:
         15:80:21:43:9f:5a:2d:63:00:7a:22:09:7f:72:4f:64:bc:66:
         84:9c:e8:e2:d3:60:ec:eb:0e:d6:38:ba:c7:b1:0a:82:c6:3d:
         0f:e9:57:82:fd:a6:cd:65:98:9a:c5:d7:63:43:5d:77:60:8e:
         f8:5b:af:60:d2:39:48:3f:4d:77:e9:27:30:dc:43:c9:e0:09:
         1b:3a:7e:04:95:7f:12:44:57:b2:b8:72:9b:b6:47:09:3b:80:
         2c:50:7e:fe:9f:c9:2b:2c:cb:77:a1:09:47:83:3c:da:c2:e9:
         49:17:de:fc:46:4b:45:ae:3f:3c:85:38:6f:1c:d8:95:b5:1b:
         f1:fd:c2:79:c9:c7:0d:a7:3a:be:fd:92:1c:7a:26:e9:9a:71:
         f8:43:d8:6e
-----BEGIN CERTIFICATE-----
MIIDnjCCAoagAwIBAgIUEi7yLeK1pNn5VKL7dwf0HVHyOn8wDQYJKoZIhvcNAQEL
BQAwYDELMAkGA1UEBhMCVVMxEzARBgNVBAgMCkNhbGlmb3JuaWExFjAUBgNVBAcM
DU1vdW50YWluIFZpZXcxEDAOBgNVBAoMB1Rlc3QgQ0ExEjAQBgNVBAMMCTEyNy4w
LjAuMTAeFw0yMTEyMDExNTQyMDdaFw0zMTExMjkxNTQyMDdaMGAxCzAJBgNVBAYT
AlVTMRMwEQYDVQQIDApDYWxpZm9ybmlhMRYwFAYDVQQHDA1Nb3VudGFpbiBWaWV3
MRAwDgYDVQQKDAdUZXN0IENBMRIwEAYDVQQDDAkxMjcuMC4wLjEwggEiMA0GCSqG
SIb3DQEBAQUAA4IBDwAwggEKAoIBAQCnHgdbJelc9rA9MTbu0OONY0ouwsJaWf2z
VbjJkyVCZna17BUe955zX8ZfimSA0ZcbNxp390KlyXAqYrHi6b9CH8PPPGmNQntg
IeY1eTeakxDdzJwfmulJAiyvUItpYqAyTkZp83Nc/JQqEu30dqQySUc4NJ6LIB9P
V1cvB4+m8TVox18WGs3P7qTI+WreHNQJE32jKY0ccPUZ4WbhJF6bIhEYHZ2/3+VH
0hiDThOjRSBnnaAGFzLOvZyiSV3tXTnHxutzspfOV0IkcXeNI/CtHy4rUsyxigis
eHdKyRqbMuQef6rDGubtfx3fA9rAdsLBQKUgMGw9ipUPH7Wy8cjhAgMBAAGjUDBO
MEwGA1UdEQRFMEOCD3d3dy5leGFtcGxlLm9yZ4IQbWFpbC5leGFtcGxlLm9yZ4IQ
bWFpbC5leGFtcGxlLmNvbYIMZXhhbXBsZS50ZXN0MA0GCSqGSIb3DQEBCwUAA4IB
AQCAp9InVs3H/DuneCzX/eNvQZTXxhsCGCUcMQqS05sudzICD9pu34GcgBsesoL9
jid3DqULO4K7oJI6oWryD6Raado3aZTWdcUZBSvBRhY12eIx5p8egA28f6QB88hj
Pul4ez7BsKBp3zC0pgsVgCFDn1otYwB6Igl/ck9kvGaEnOji02Ds6w7WOLrHsQqC
xj0P6VeC/abNZZiaxddjQ113YI74W69g0jlIP0136Scw3EPJ4AkbOn4ElX8SRFey
uHKbtkcJO4AsUH7+n8krLMt3oQlHgzzawulJF978RktFrj88hThvHNiVtRvx/cJ5
yccNpzq+/ZIceibpmnH4Q9hu
-----END CERTIFICATE-----
