Certificate:
    Data:
        Version: 3 (0x2)
        Serial Number:
            11:48:7c:ad:94:b7:50:ec:24:70:a5:6e:36:47:98:71:bc:1b:56:82
        Signature Algorithm: sha256WithRSAEncryption
        Issuer: C = US, ST = California, L = Mountain View, O = Test CA, CN = 127.0.0.1
        Validity
            Not Before: Mar 13 20:46:17 2020 GMT
            Not After : Mar 11 20:46:17 2030 GMT
        Subject: C = US, ST = California, L = Mountain View, O = Test CA, CN = 127.0.0.1
        Subject Public Key Info:
            Public Key Algorithm: rsaEncryption
                RSA Public-Key: (2048 bit)
                Modulus:
                    00:b4:7d:d7:03:66:20:ad:5d:37:5a:43:fe:a2:a4:
                    3d:eb:ea:26:ab:43:ee:42:9c:d7:5d:ab:f5:89:37:
                    aa:ca:c7:ec:b6:02:21:27:84:4c:d3:ab:bb:56:16:
                    21:e0:6e:df:f5:dd:02:f7:f0:08:b7:59:e0:1e:d3:
                    c3:74:5c:67:91:1e:9c:f4:9f:b4:6b:29:58:bd:67:
                    66:5c:d5:bc:6f:85:22:c4:34:5d:88:0a:b4:69:50:
                    24:06:b9:fc:d2:bf:b7:20:0b:e3:a5:ea:b0:42:b6:
                    df:fa:a6:e2:66:13:ac:27:ee:c4:6b:6e:cb:1a:5b:
                    15:47:d9:cd:06:f1:e5:68:11:03:c2:9e:11:67:e5:
                    8a:d8:d9:77:fd:8d:ab:0f:d6:f1:28:41:ea:63:ca:
                    98:30:87:da:a3:5b:a6:44:a6:e9:69:67:1d:b1:31:
                    15:75:eb:7c:b8:72:52:8c:ea:78:12:65:b3:c4:73:
                    ee:85:74:35:0d:3d:4a:89:07:20:57:3e:3c:e7:53:
                    5e:af:29:f8:2c:36:7f:df:ee:c2:b3:ea:18:33:34:
                    54:0b:de:18:fe:75:c4:cc:9a:0c:13:49:de:8b:6e:
                    bf:96:85:9f:62:52:21:42:33:34:bc:37:39:a9:a2:
                    cd:09:0a:17:1b:77:69:d7:29:da:38:76:30:68:4e:
                    29:a5
                Exponent: 65537 (0x10001)
        X509v3 extensions:
            X509v3 Subject Alternative Name: 
                DNS:www.example.org, DNS:mail.example.org, DNS:mail.example.com, DNS:example.test
    Signature Algorithm: sha256WithRSAEncryption
         17:5f:6d:ae:7b:82:7b:dc:5f:18:d2:27:bf:07:a0:8a:b4:5b:
         32:a9:38:f3:d1:18:fd:bd:68:b8:58:58:c7:d4:53:25:82:14:
         f4:79:f3:31:83:e9:91:8b:33:87:0a:fe:95:ad:74:52:b3:91:
         4b:dd:82:10:d4:0a:a0:7a:ab:d6:32:b9:07:73:b5:4a:85:35:
         35:66:4b:f1:75:b8:93:07:3c:6a:7f:67:11:e6:9c:bc:bc:e8:
         83:dc:c1:85:11:28:c4:a2:08:25:57:30:6e:96:f6:fd:c5:76:
         c9:ea:8a:c6:30:d7:46:49:6a:ca:84:4c:52:22:71:c7:ce:6a:
         43:bc:19:1d:70:d9:4c:4b:48:79:a0:ca:98:dc:53:84:c0:0e:
         d5:68:57:5f:a6:d0:13:e4:81:2e:31:1b:d0:f3:32:a0:e3:4f:
         de:2c:6c:e0:55:01:77:5b:6d:5b:b0:8a:6d:3e:d4:d1:ca:cc:
         93:1a:0c:73:80:fe:3e:8e:e3:d0:53:cd:d5:29:62:57:f0:97:
         1d:e4:93:ff:2e:ba:92:29:19:12:d1:82:28:8b:9a:8a:e7:ca:
         c0:e4:a0:96:99:4a:cd:ad:45:9f:03:17:ca:35:1d:34:83:a1:
         3a:c3:77:ad:91:a3:e6:4b:d7:14:60:a0:5f:aa:35:72:64:c6:
         1f:0f:9f:ca
-----BEGIN CERTIFICATE-----
MIIDnjCCAoagAwIBAgIUEUh8rZS3UOwkcKVuNkeYcbwbVoIwDQYJKoZIhvcNAQEL
BQAwYDELMAkGA1UEBhMCVVMxEzARBgNVBAgMCkNhbGlmb3JuaWExFjAUBgNVBAcM
DU1vdW50YWluIFZpZXcxEDAOBgNVBAoMB1Rlc3QgQ0ExEjAQBgNVBAMMCTEyNy4w
LjAuMTAeFw0yMDAzMTMyMDQ2MTdaFw0zMDAzMTEyMDQ2MTdaMGAxCzAJBgNVBAYT
AlVTMRMwEQYDVQQIDApDYWxpZm9ybmlhMRYwFAYDVQQHDA1Nb3VudGFpbiBWaWV3
MRAwDgYDVQQKDAdUZXN0IENBMRIwEAYDVQQDDAkxMjcuMC4wLjEwggEiMA0GCSqG
SIb3DQEBAQUAA4IBDwAwggEKAoIBAQC0fdcDZiCtXTdaQ/6ipD3r6iarQ+5CnNdd
q/WJN6rKx+y2AiEnhEzTq7tWFiHgbt/13QL38Ai3WeAe08N0XGeRHpz0n7RrKVi9
Z2Zc1bxvhSLENF2ICrRpUCQGufzSv7cgC+Ol6rBCtt/6puJmE6wn7sRrbssaWxVH
2c0G8eVoEQPCnhFn5YrY2Xf9jasP1vEoQepjypgwh9qjW6ZEpulpZx2xMRV163y4
clKM6ngSZbPEc+6FdDUNPUqJByBXPjznU16vKfgsNn/f7sKz6hgzNFQL3hj+dcTM
mgwTSd6Lbr+WhZ9iUiFCMzS8Nzmpos0JChcbd2nXKdo4djBoTimlAgMBAAGjUDBO
MEwGA1UdEQRFMEOCD3d3dy5leGFtcGxlLm9yZ4IQbWFpbC5leGFtcGxlLm9yZ4IQ
bWFpbC5leGFtcGxlLmNvbYIMZXhhbXBsZS50ZXN0MA0GCSqGSIb3DQEBCwUAA4IB
AQAXX22ue4J73F8Y0ie/B6CKtFsyqTjz0Rj9vWi4WFjH1FMlghT0efMxg+mRizOH
Cv6VrXRSs5FL3YIQ1AqgeqvWMrkHc7VKhTU1ZkvxdbiTBzxqf2cR5py8vOiD3MGF
ESjEogglVzBulvb9xXbJ6orGMNdGSWrKhExSInHHzmpDvBkdcNlMS0h5oMqY3FOE
wA7VaFdfptAT5IEuMRvQ8zKg40/eLGzgVQF3W21bsIptPtTRysyTGgxzgP4+juPQ
U83VKWJX8Jcd5JP/LrqSKRkS0YIoi5qK58rA5KCWmUrNrUWfAxfKNR00g6E6w3et
kaPmS9cUYKBfqjVyZMYfD5/K
-----END CERTIFICATE-----
