Certificate:
    Data:
        Version: 3 (0x2)
        Serial Number:
            c0:31:6d:a9:8d:46:62:c5
    Signature Algorithm: sha256WithRSAEncryption
        Issuer: C = US, ST = California, L = Mountain View, O = Test CA, CN = 127.0.0.1
        Validity
            Not Before: Jun 19 18:00:00 2018 GMT
            Not After : Jun 16 18:00:00 2028 GMT
        Subject: C = US, ST = California, L = Mountain View, O = Test CA, CN = 127.0.0.1
        Subject Public Key Info:
            Public Key Algorithm: rsaEncryption
                Public-Key: (2048 bit)
                Modulus:
                    00:bc:75:b7:7b:11:4b:73:c5:b8:f8:2f:4e:46:fd:
                    e8:f1:cf:af:a5:e1:37:03:04:0f:af:17:43:03:57:
                    6b:ea:84:e1:91:53:26:d7:9a:d8:14:c6:fe:1f:17:
                    1a:ac:95:a6:06:be:1b:fd:9a:ea:e1:db:10:d1:06:
                    10:63:85:7c:04:69:e2:df:fe:44:ac:31:cd:6e:ec:
                    bf:ff:5c:2e:af:c6:d1:5f:08:d5:84:b1:0a:b0:3c:
                    70:80:8e:09:23:ca:49:d2:6b:b8:5c:c3:07:de:13:
                    41:6f:84:1b:48:d8:8d:06:57:29:89:23:2a:fc:3d:
                    97:3d:31:d4:38:0c:a5:64:7e:59:7c:22:92:a2:02:
                    fc:68:a8:23:db:d7:da:f6:9e:a7:34:9a:ce:92:ad:
                    78:b4:71:08:31:25:ea:d9:a6:fa:52:9f:49:ab:76:
                    74:78:f2:11:8f:7c:34:37:5c:5b:19:d1:83:f7:b3:
                    f3:55:ed:88:f2:05:65:2f:a2:ce:a8:91:bb:cd:dd:
                    1f:5c:9a:e0:0a:35:ec:45:b6:9f:b0:ce:fa:f3:05:
                    38:ab:34:38:88:6a:d0:f7:b2:0d:11:79:cd:b2:00:
                    9c:c0:9b:15:f6:86:df:fe:53:89:8f:86:5a:ed:ac:
                    3a:8d:bd:ff:9e:d9:a7:e2:65:6f:ae:85:6c:68:82:
                    80:09
                Exponent: 65537 (0x10001)
        X509v3 extensions:
            X509v3 Subject Alternative Name: 
                DNS:www.example.org, DNS:mail.example.org, DNS:mail.example.com, DNS:example.test
    Signature Algorithm: sha256WithRSAEncryption
         64:42:12:b1:84:3b:d6:93:d7:43:61:e6:b6:7a:ec:c1:43:14:
         f0:94:24:60:d0:53:ee:90:1e:4a:c4:d8:79:3f:10:eb:a5:e3:
         34:e2:bf:9c:ea:c2:a7:dc:8a:1e:f4:71:bc:34:4f:99:a6:58:
         6c:74:fd:85:2b:6a:ee:32:bf:50:22:72:23:e7:1f:12:60:c5:
         21:c1:c6:b6:62:a0:75:77:50:35:aa:b7:f3:2b:e7:27:ea:d2:
         2e:c7:91:2b:ae:fb:31:3f:c0:d8:d1:a4:7d:d1:80:39:a8:46:
         df:89:70:84:2b:6a:39:5b:44:2d:cb:73:76:de:8e:dc:97:35:
         2c:75:6a:42:a7:07:a0:4c:64:07:e1:1f:9a:a0:fa:89:18:5a:
         37:90:72:8c:21:ae:0e:fc:28:c7:a4:2a:c6:50:8c:5d:68:ae:
         4b:86:64:ca:56:49:05:55:8a:86:36:9f:99:34:5d:29:f7:1b:
         5d:7f:39:44:03:3e:94:c9:d7:7d:1a:2d:5f:fd:ca:b5:70:2e:
         44:35:fc:56:3d:9f:80:b7:f0:c0:dc:09:63:c6:11:b0:9c:99:
         c0:88:46:d8:14:92:1d:3d:3f:48:de:ed:a9:a2:19:af:e4:d2:
         52:d1:9c:b7:05:1f:d3:82:73:0a:3e:c4:21:88:90:9d:77:a9:
         97:d5:c2:d3
-----BEGIN CERTIFICATE-----
MIIDkzCCAnugAwIBAgIJAMAxbamNRmLFMA0GCSqGSIb3DQEBCwUAMGAxCzAJBgNV
BAYTAlVTMRMwEQYDVQQIDApDYWxpZm9ybmlhMRYwFAYDVQQHDA1Nb3VudGFpbiBW
aWV3MRAwDgYDVQQKDAdUZXN0IENBMRIwEAYDVQQDDAkxMjcuMC4wLjEwHhcNMTgw
NjE5MTgwMDAwWhcNMjgwNjE2MTgwMDAwWjBgMQswCQYDVQQGEwJVUzETMBEGA1UE
CAwKQ2FsaWZvcm5pYTEWMBQGA1UEBwwNTW91bnRhaW4gVmlldzEQMA4GA1UECgwH
VGVzdCBDQTESMBAGA1UEAwwJMTI3LjAuMC4xMIIBIjANBgkqhkiG9w0BAQEFAAOC
AQ8AMIIBCgKCAQEAvHW3exFLc8W4+C9ORv3o8c+vpeE3AwQPrxdDA1dr6oThkVMm
15rYFMb+HxcarJWmBr4b/Zrq4dsQ0QYQY4V8BGni3/5ErDHNbuy//1wur8bRXwjV
hLEKsDxwgI4JI8pJ0mu4XMMH3hNBb4QbSNiNBlcpiSMq/D2XPTHUOAylZH5ZfCKS
ogL8aKgj29fa9p6nNJrOkq14tHEIMSXq2ab6Up9Jq3Z0ePIRj3w0N1xbGdGD97Pz
Ve2I8gVlL6LOqJG7zd0fXJrgCjXsRbafsM768wU4qzQ4iGrQ97INEXnNsgCcwJsV
9obf/lOJj4Za7aw6jb3/ntmn4mVvroVsaIKACQIDAQABo1AwTjBMBgNVHREERTBD
gg93d3cuZXhhbXBsZS5vcmeCEG1haWwuZXhhbXBsZS5vcmeCEG1haWwuZXhhbXBs
ZS5jb22CDGV4YW1wbGUudGVzdDANBgkqhkiG9w0BAQsFAAOCAQEAZEISsYQ71pPX
Q2HmtnrswUMU8JQkYNBT7pAeSsTYeT8Q66XjNOK/nOrCp9yKHvRxvDRPmaZYbHT9
hStq7jK/UCJyI+cfEmDFIcHGtmKgdXdQNaq38yvnJ+rSLseRK677MT/A2NGkfdGA
OahG34lwhCtqOVtELctzdt6O3Jc1LHVqQqcHoExkB+EfmqD6iRhaN5ByjCGuDvwo
x6QqxlCMXWiuS4ZkylZJBVWKhjafmTRdKfcbXX85RAM+lMnXfRotX/3KtXAuRDX8
Vj2fgLfwwNwJY8YRsJyZwIhG2BSSHT0/SN7tqaIZr+TSUtGctwUf04JzCj7EIYiQ
nXepl9XC0w==
-----END CERTIFICATE-----
