Certificate:
    Data:
        Version: 3 (0x2)
        Serial Number:
            3c:e9:4d:32:fb:22:3f:c4:6b:22:6e:b2:93:d6:72:af:55:c2:95:44
        Signature Algorithm: sha256WithRSAEncryption
        Issuer: C=US, ST=California, L=Mountain View, O=Test CA, CN=127.0.0.1
        Validity
            Not Before: Oct 10 20:46:13 2024 GMT
            Not After : Oct  8 20:46:13 2034 GMT
        Subject: C=US, ST=California, L=Mountain View, O=Test CA, CN=127.0.0.1
        Subject Public Key Info:
            Public Key Algorithm: rsaEncryption
                Public-Key: (2048 bit)
                Modulus:
                    00:af:22:96:55:78:ee:f8:c0:72:aa:5c:c2:fa:a3:
                    2a:84:68:2a:f9:19:20:0e:7d:2e:8e:0f:25:64:a2:
                    bf:ef:1d:48:91:e5:7e:e6:6c:fe:ea:b4:11:4a:0b:
                    cf:43:e0:af:07:75:35:ba:0a:e8:88:bd:61:4b:13:
                    82:56:12:29:cc:dd:bb:8d:8e:5b:5f:33:1a:c3:e1:
                    f0:97:b2:d1:39:1a:14:5a:a5:fd:29:f1:d3:d2:90:
                    0c:31:73:88:15:2a:03:49:e8:e3:66:a7:a7:83:eb:
                    7e:ac:75:66:9e:d4:5f:66:2b:36:f6:34:ff:18:fc:
                    59:97:db:e1:57:2e:ea:40:5e:79:70:57:67:ba:ee:
                    8e:ea:9b:08:ae:5e:3b:12:67:8a:7b:d1:bf:48:3a:
                    68:ca:a1:94:ba:c5:80:37:9a:68:ef:54:ba:ff:59:
                    52:95:a9:4f:d6:91:1b:3b:be:6d:ff:15:62:fd:78:
                    b4:5a:97:60:2a:c7:0d:81:61:5a:52:ec:50:fa:cc:
                    2f:46:ee:70:37:2a:cd:18:f6:e1:43:a1:7c:d4:ff:
                    b8:d5:90:2a:f7:46:12:bc:3d:0e:77:87:85:2c:a8:
                    b7:26:ae:53:c8:37:dd:32:f5:2c:4b:96:be:8c:a1:
                    4b:34:20:29:cf:3a:3b:19:c9:5a:79:fa:8d:f1:88:
                    d7:2f
                Exponent: 65537 (0x10001)
        X509v3 extensions:
            X509v3 Subject Alternative Name: 
                DNS:www.example.org, DNS:mail.example.org, DNS:mail.example.com, DNS:example.test
            X509v3 Subject Key Identifier: 
                06:CC:5C:95:6A:25:E5:36:E9:B5:E2:1D:C6:56:EC:61:E9:9B:74:77
    Signature Algorithm: sha256WithRSAEncryption
    Signature Value:
        9d:6f:78:78:ec:a6:0a:af:a6:07:b2:95:ca:78:01:b4:15:a0:
        66:b2:7f:7d:34:0e:d5:25:e6:2e:1d:74:04:ae:32:5e:9f:99:
        3c:67:6a:bb:03:33:03:5f:48:8e:2b:46:dc:4d:74:25:97:16:
        ff:1f:ef:a6:89:ad:58:6b:8e:fe:fe:10:a4:ce:3f:22:aa:2e:
        dd:39:cc:5c:45:ec:d5:00:4b:f1:5e:14:46:05:4b:c1:64:af:
        87:cf:38:ed:cd:db:9c:b2:63:cb:27:5d:99:13:dc:e4:19:21:
        74:fa:cf:02:0a:0b:9a:6c:83:d1:31:1f:f0:38:42:f4:80:43:
        83:a5:1c:54:e0:b1:0e:68:ac:bc:ba:9f:51:d6:76:8d:4a:be:
        40:41:47:fe:6e:df:a2:0c:46:06:87:63:20:a4:68:6f:c5:2a:
        21:f1:34:49:c4:a3:f9:0c:cf:43:db:f6:d4:91:3d:48:93:13:
        2b:82:e1:d8:0f:d3:5e:5e:bf:dc:89:2d:5d:15:5f:1d:cf:47:
        d6:11:dd:02:9d:3d:54:90:c6:40:a6:c5:fc:cc:a1:4e:b3:4a:
        e8:18:9f:eb:40:d3:db:b6:ed:bc:66:1f:d7:ee:8c:d4:26:59:
        e6:e4:80:33:3d:a9:a0:ad:a1:9c:5e:c1:8a:6f:fb:84:4b:4e:
        4b:9f:bc:c8
-----BEGIN CERTIFICATE-----
MIIDvTCCAqWgAwIBAgIUPOlNMvsiP8RrIm6yk9Zyr1XClUQwDQYJKoZIhvcNAQEL
BQAwYDELMAkGA1UEBhMCVVMxEzARBgNVBAgMCkNhbGlmb3JuaWExFjAUBgNVBAcM
DU1vdW50YWluIFZpZXcxEDAOBgNVBAoMB1Rlc3QgQ0ExEjAQBgNVBAMMCTEyNy4w
LjAuMTAeFw0yNDEwMTAyMDQ2MTNaFw0zNDEwMDgyMDQ2MTNaMGAxCzAJBgNVBAYT
AlVTMRMwEQYDVQQIDApDYWxpZm9ybmlhMRYwFAYDVQQHDA1Nb3VudGFpbiBWaWV3
MRAwDgYDVQQKDAdUZXN0IENBMRIwEAYDVQQDDAkxMjcuMC4wLjEwggEiMA0GCSqG
SIb3DQEBAQUAA4IBDwAwggEKAoIBAQCvIpZVeO74wHKqXML6oyqEaCr5GSAOfS6O
DyVkor/vHUiR5X7mbP7qtBFKC89D4K8HdTW6CuiIvWFLE4JWEinM3buNjltfMxrD
4fCXstE5GhRapf0p8dPSkAwxc4gVKgNJ6ONmp6eD636sdWae1F9mKzb2NP8Y/FmX
2+FXLupAXnlwV2e67o7qmwiuXjsSZ4p70b9IOmjKoZS6xYA3mmjvVLr/WVKVqU/W
kRs7vm3/FWL9eLRal2Aqxw2BYVpS7FD6zC9G7nA3Ks0Y9uFDoXzU/7jVkCr3RhK8
PQ53h4UsqLcmrlPIN90y9SxLlr6MoUs0ICnPOjsZyVp5+o3xiNcvAgMBAAGjbzBt
MEwGA1UdEQRFMEOCD3d3dy5leGFtcGxlLm9yZ4IQbWFpbC5leGFtcGxlLm9yZ4IQ
bWFpbC5leGFtcGxlLmNvbYIMZXhhbXBsZS50ZXN0MB0GA1UdDgQWBBQGzFyVaiXl
Num14h3GVuxh6Zt0dzANBgkqhkiG9w0BAQsFAAOCAQEAnW94eOymCq+mB7KVyngB
tBWgZrJ/fTQO1SXmLh10BK4yXp+ZPGdquwMzA19IjitG3E10JZcW/x/vpomtWGuO
/v4QpM4/Iqou3TnMXEXs1QBL8V4URgVLwWSvh8847c3bnLJjyyddmRPc5BkhdPrP
AgoLmmyD0TEf8DhC9IBDg6UcVOCxDmisvLqfUdZ2jUq+QEFH/m7fogxGBodjIKRo
b8UqIfE0ScSj+QzPQ9v21JE9SJMTK4Lh2A/TXl6/3IktXRVfHc9H1hHdAp09VJDG
QKbF/MyhTrNK6Bif60DT27btvGYf1+6M1CZZ5uSAMz2poK2hnF7Bim/7hEtOS5+8
yA==
-----END CERTIFICATE-----
