Certificate:
    Data:
        Version: 3 (0x2)
        Serial Number:
            0a:30:58:00:41:4d:22:20:68:ab:c8:5e:5f:9d:57:82:9c:c3:a2:1e
        Signature Algorithm: sha256WithRSAEncryption
        Issuer: C = US, ST = California, L = Mountain View, O = Test CA, CN = 127.0.0.1
        Validity
            Not Before: Oct  3 17:20:09 2022 GMT
            Not After : Sep 30 17:20:09 2032 GMT
        Subject: C = US, ST = California, L = Mountain View, O = Test CA, CN = 127.0.0.1
        Subject Public Key Info:
            Public Key Algorithm: rsaEncryption
                Public-Key: (2048 bit)
                Modulus:
                    00:ec:e4:cc:ed:ab:60:cd:e3:0f:5c:3c:29:73:cf:
                    6e:a4:52:c4:dc:49:d6:2f:d5:cd:26:56:3d:3d:aa:
                    c6:69:d7:ad:7a:47:ea:84:73:aa:85:b8:95:13:85:
                    ea:9b:01:5c:ef:53:62:4f:92:61:9a:bd:64:7d:fa:
                    ce:ea:08:06:b5:c0:48:9f:db:a6:90:c1:26:26:bc:
                    c2:44:47:18:37:16:d8:63:5a:e9:bf:23:f9:46:d6:
                    65:0c:53:3b:b3:0e:d1:de:f7:d6:81:fe:0e:75:c4:
                    5d:38:45:28:17:98:c8:99:bf:9a:60:ec:b0:36:38:
                    9b:9e:36:57:e9:8a:51:d3:ee:1b:23:9b:18:db:31:
                    dc:3f:1c:02:b6:c5:73:2f:f5:90:71:7f:a1:ab:f3:
                    24:d6:d5:b4:5c:4f:37:eb:ca:44:55:9a:86:65:24:
                    78:56:04:b9:3a:63:f9:f7:26:2f:8d:bc:98:9c:19:
                    68:4d:f8:30:df:6c:30:32:31:75:3b:54:e7:7c:d3:
                    b0:05:c5:98:66:1c:f9:73:c4:b0:c2:83:67:c3:30:
                    79:6f:60:1f:0b:0c:67:6b:22:2c:cb:16:3d:73:1b:
                    8c:a0:a3:30:f1:db:9a:fc:0e:45:bb:7e:b4:03:a2:
                    33:d2:d3:cb:98:95:ec:66:f6:2e:51:e9:85:14:8d:
                    13:89
                Exponent: 65537 (0x10001)
        X509v3 extensions:
            X509v3 Subject Alternative Name: 
                DNS:www.example.org, DNS:mail.example.org, DNS:mail.example.com, DNS:example.test
            X509v3 Subject Key Identifier: 
                21:E7:36:0A:62:36:97:A3:5E:52:97:4A:73:AE:2B:1C:3E:25:C7:6C
    Signature Algorithm: sha256WithRSAEncryption
    Signature Value:
        4b:83:37:e0:92:ee:31:5c:ed:d7:4f:c8:10:7c:82:49:82:72:
        fd:d5:b0:b1:be:fb:a5:62:f8:9b:17:68:82:b9:f1:2a:d5:80:
        3a:e5:73:2c:f9:bc:86:c0:8c:3a:69:36:63:60:c5:fb:d3:b9:
        3b:87:8b:05:14:58:88:f5:87:50:e8:7c:c2:21:a7:66:ed:b4:
        7f:12:86:71:6b:93:cb:a8:68:4b:5b:a6:a9:1b:8a:f0:f2:41:
        b5:eb:eb:62:a3:f8:b6:e4:97:f2:4b:5b:47:45:3f:a5:50:74:
        a9:07:1d:2a:d7:7b:d5:57:91:6d:c2:ed:fa:2e:42:6d:19:2b:
        eb:4b:d6:3c:2b:c9:ac:1d:5e:11:1e:b8:cb:d7:fa:b3:4f:39:
        b6:1b:9f:b0:e0:27:96:a3:cc:7b:03:f0:0e:dc:34:3f:b6:fb:
        66:7b:d1:1b:a7:49:ec:f3:d5:fd:60:7c:54:ed:c1:ac:3c:a0:
        54:6f:62:d4:5b:99:39:09:e5:c2:9b:21:5e:8d:76:59:0f:b5:
        6d:8d:cb:b6:bb:21:ea:cb:33:9a:2c:14:ca:51:8b:26:3a:ce:
        9f:2d:5f:d2:ad:9d:8d:c7:2b:30:7e:40:40:43:94:83:c4:09:
        25:79:c0:fb:43:05:02:a8:93:b3:60:3f:fa:63:21:27:a3:eb:
        8b:0f:06:33
-----BEGIN CERTIFICATE-----
MIIDvTCCAqWgAwIBAgIUCjBYAEFNIiBoq8heX51XgpzDoh4wDQYJKoZIhvcNAQEL
BQAwYDELMAkGA1UEBhMCVVMxEzARBgNVBAgMCkNhbGlmb3JuaWExFjAUBgNVBAcM
DU1vdW50YWluIFZpZXcxEDAOBgNVBAoMB1Rlc3QgQ0ExEjAQBgNVBAMMCTEyNy4w
LjAuMTAeFw0yMjEwMDMxNzIwMDlaFw0zMjA5MzAxNzIwMDlaMGAxCzAJBgNVBAYT
AlVTMRMwEQYDVQQIDApDYWxpZm9ybmlhMRYwFAYDVQQHDA1Nb3VudGFpbiBWaWV3
MRAwDgYDVQQKDAdUZXN0IENBMRIwEAYDVQQDDAkxMjcuMC4wLjEwggEiMA0GCSqG
SIb3DQEBAQUAA4IBDwAwggEKAoIBAQDs5Mztq2DN4w9cPClzz26kUsTcSdYv1c0m
Vj09qsZp1616R+qEc6qFuJUTheqbAVzvU2JPkmGavWR9+s7qCAa1wEif26aQwSYm
vMJERxg3FthjWum/I/lG1mUMUzuzDtHe99aB/g51xF04RSgXmMiZv5pg7LA2OJue
NlfpilHT7hsjmxjbMdw/HAK2xXMv9ZBxf6Gr8yTW1bRcTzfrykRVmoZlJHhWBLk6
Y/n3Ji+NvJicGWhN+DDfbDAyMXU7VOd807AFxZhmHPlzxLDCg2fDMHlvYB8LDGdr
IizLFj1zG4ygozDx25r8DkW7frQDojPS08uYlexm9i5R6YUUjROJAgMBAAGjbzBt
MEwGA1UdEQRFMEOCD3d3dy5leGFtcGxlLm9yZ4IQbWFpbC5leGFtcGxlLm9yZ4IQ
bWFpbC5leGFtcGxlLmNvbYIMZXhhbXBsZS50ZXN0MB0GA1UdDgQWBBQh5zYKYjaX
o15Sl0pzriscPiXHbDANBgkqhkiG9w0BAQsFAAOCAQEAS4M34JLuMVzt10/IEHyC
SYJy/dWwsb77pWL4mxdogrnxKtWAOuVzLPm8hsCMOmk2Y2DF+9O5O4eLBRRYiPWH
UOh8wiGnZu20fxKGcWuTy6hoS1umqRuK8PJBtevrYqP4tuSX8ktbR0U/pVB0qQcd
Ktd71VeRbcLt+i5CbRkr60vWPCvJrB1eER64y9f6s085thufsOAnlqPMewPwDtw0
P7b7ZnvRG6dJ7PPV/WB8VO3BrDygVG9i1FuZOQnlwpshXo12WQ+1bY3Ltrsh6ssz
miwUylGLJjrOny1f0q2djccrMH5AQEOUg8QJJXnA+0MFAqiTs2A/+mMhJ6Priw8G
Mw==
-----END CERTIFICATE-----
