Certificate:
    Data:
        Version: 3 (0x2)
        Serial Number:
            12:f6:d9:f1:80:1b:50:9f:64:09:c8:ea:2f:16:33:b2
        Signature Algorithm: sha256WithRSAEncryption
        Issuer: C=US, ST=California, L=Mountain View, O=Test CA, CN=Test Root CA
        Validity
            Not Before: Sep  1 00:00:00 2018 GMT
            Not After : Apr  2 00:00:00 2015 GMT
        Subject: C=US, ST=California, L=Mountain View, O=Test CA, CN=127.0.0.1
        Subject Public Key Info:
            Public Key Algorithm: rsaEncryption
                RSA Public-Key: (2048 bit)
                Modulus:
                    00:c4:01:12:94:35:84:3b:37:2d:1a:7a:70:26:71:
                    83:71:80:35:fd:20:44:c0:06:50:ec:98:c7:b2:2f:
                    2e:cb:32:1c:09:48:06:b3:b8:15:11:e2:8e:a7:76:
                    c8:78:3e:c3:c1:b5:df:2d:f6:74:08:01:ae:87:ce:
                    df:ae:5c:a6:36:cc:0d:ce:a0:23:bf:b9:be:57:a0:
                    2d:38:5d:39:9d:dc:02:c4:dc:e9:d6:cd:b4:25:b8:
                    6b:20:47:ce:b6:f6:21:37:57:54:b7:52:ca:8e:7f:
                    7b:a9:77:a6:9c:89:20:40:c0:2d:17:16:72:aa:09:
                    7e:00:96:3e:e8:8b:9d:09:70:22:43:38:9b:98:f7:
                    9a:b4:cb:44:c2:76:bd:b5:ed:0f:1e:43:98:6c:87:
                    23:c1:ae:f0:b8:01:62:d4:a3:cd:35:2d:06:bd:c1:
                    98:26:62:10:fb:a2:18:31:b7:e3:f2:eb:29:c5:73:
                    50:d5:85:da:95:e6:82:95:3d:52:ba:74:15:33:96:
                    32:66:c3:a1:c0:0b:f0:b5:e1:bf:35:90:4e:6e:4c:
                    0b:46:45:6d:e7:28:c4:2c:fe:2b:a0:bf:38:7b:a7:
                    27:06:d7:13:69:bc:c4:60:ec:58:a5:dd:5d:a3:29:
                    dd:69:1d:01:22:ae:f7:93:83:dd:6d:4d:de:ef:19:
                    5b:07
                Exponent: 65537 (0x10001)
        X509v3 extensions:
            X509v3 Basic Constraints: critical
                CA:FALSE
            X509v3 Subject Key Identifier: 
                4F:BF:F3:D7:00:F9:45:45:B6:65:99:23:14:40:F6:95:80:DF:6A:02
            X509v3 Authority Key Identifier: 
                keyid:9B:26:0B:8A:98:A9:BB:1D:B9:1F:1C:E3:1A:40:33:ED:8E:17:88:AB

            X509v3 Extended Key Usage: 
                TLS Web Server Authentication, TLS Web Client Authentication
            X509v3 Subject Alternative Name: 
                IP Address:127.0.0.1
    Signature Algorithm: sha256WithRSAEncryption
         3f:72:8b:c2:c3:72:9d:fc:de:aa:69:46:7b:c7:b2:0a:12:ef:
         ba:6d:30:18:c9:8a:5e:10:e2:39:8c:ff:36:71:15:36:cc:0e:
         06:bd:5b:f6:81:3f:b7:2c:f4:cd:d9:1c:98:3c:b4:61:aa:1e:
         89:d4:4a:4c:49:8b:b7:54:22:e0:89:db:a0:33:e0:c1:67:ae:
         a2:25:3e:43:eb:11:2b:b8:7b:4b:e6:c9:ef:10:b7:15:af:2c:
         17:dd:18:26:6e:38:71:aa:e2:e1:2e:62:13:e3:b6:9e:a8:54:
         8b:94:7a:a9:b3:bd:3c:b0:b9:27:82:3c:9b:e9:28:e3:af:ca:
         fa:9f:6f:58:6a:01:40:83:20:7b:03:b3:c5:36:c8:20:3a:55:
         d3:79:bf:80:e5:95:a9:7d:87:29:0b:21:39:a5:77:0e:62:e8:
         23:3c:7b:3a:94:d9:c4:30:8c:b1:34:ff:b0:b2:9f:58:01:89:
         19:7b:21:37:76:df:01:d0:20:93:61:03:84:fa:b2:d2:08:f1:
         e4:d7:7a:a7:82:39:3c:e5:ca:8a:f6:1a:74:3b:21:7d:28:5b:
         4f:b3:02:7f:04:f5:f9:a6:c6:6a:aa:9a:5d:ba:6b:d4:07:73:
         c0:d0:e3:8e:8c:6e:d9:4a:ba:49:e9:4b:05:e9:80:d3:5a:6b:
         3d:c5:70:8e
-----BEGIN CERTIFICATE-----
MIIDzjCCAragAwIBAgIQEvbZ8YAbUJ9kCcjqLxYzsjANBgkqhkiG9w0BAQsFADBj
MQswCQYDVQQGEwJVUzETMBEGA1UECAwKQ2FsaWZvcm5pYTEWMBQGA1UEBwwNTW91
bnRhaW4gVmlldzEQMA4GA1UECgwHVGVzdCBDQTEVMBMGA1UEAwwMVGVzdCBSb290
IENBMB4XDTE4MDkwMTAwMDAwMFoXDTE1MDQwMjAwMDAwMFowYDELMAkGA1UEBhMC
VVMxEzARBgNVBAgMCkNhbGlmb3JuaWExFjAUBgNVBAcMDU1vdW50YWluIFZpZXcx
EDAOBgNVBAoMB1Rlc3QgQ0ExEjAQBgNVBAMMCTEyNy4wLjAuMTCCASIwDQYJKoZI
hvcNAQEBBQADggEPADCCAQoCggEBAMQBEpQ1hDs3LRp6cCZxg3GANf0gRMAGUOyY
x7IvLssyHAlIBrO4FRHijqd2yHg+w8G13y32dAgBrofO365cpjbMDc6gI7+5vleg
LThdOZ3cAsTc6dbNtCW4ayBHzrb2ITdXVLdSyo5/e6l3ppyJIEDALRcWcqoJfgCW
PuiLnQlwIkM4m5j3mrTLRMJ2vbXtDx5DmGyHI8Gu8LgBYtSjzTUtBr3BmCZiEPui
GDG34/LrKcVzUNWF2pXmgpU9Urp0FTOWMmbDocAL8LXhvzWQTm5MC0ZFbecoxCz+
K6C/OHunJwbXE2m8xGDsWKXdXaMp3WkdASKu95OD3W1N3u8ZWwcCAwEAAaOBgDB+
MAwGA1UdEwEB/wQCMAAwHQYDVR0OBBYEFE+/89cA+UVFtmWZIxRA9pWA32oCMB8G
A1UdIwQYMBaAFJsmC4qYqbsduR8c4xpAM+2OF4irMB0GA1UdJQQWMBQGCCsGAQUF
BwMBBggrBgEFBQcDAjAPBgNVHREECDAGhwR/AAABMA0GCSqGSIb3DQEBCwUAA4IB
AQA/covCw3Kd/N6qaUZ7x7IKEu+6bTAYyYpeEOI5jP82cRU2zA4GvVv2gT+3LPTN
2RyYPLRhqh6J1EpMSYu3VCLgidugM+DBZ66iJT5D6xEruHtL5snvELcVrywX3Rgm
bjhxquLhLmIT47aeqFSLlHqps708sLkngjyb6Sjjr8r6n29YagFAgyB7A7PFNsgg
OlXTeb+A5ZWpfYcpCyE5pXcOYugjPHs6lNnEMIyxNP+wsp9YAYkZeyE3dt8B0CCT
YQOE+rLSCPHk13qngjk85cqK9hp0OyF9KFtPswJ/BPX5psZqqppdumvUB3PA0OOO
jG7ZSrpJ6UsF6YDTWms9xXCO
-----END CERTIFICATE-----
