Certificate:
    Data:
        Version: 3 (0x2)
        Serial Number:
            3e:2c:9d:be:b0:42:c8:cf:fc:99:42:d5:4d:41:6a:b3
        Signature Algorithm: sha256WithRSAEncryption
        Issuer: C=US, ST=California, L=Mountain View, O=Test CA, CN=Test Root CA
        Validity
            Not Before: Sep  1 00:00:00 2018 GMT
            Not After : Apr  2 00:00:00 2015 GMT
        Subject: C=US, ST=California, L=Mountain View, O=Test CA, CN=127.0.0.1
        Subject Public Key Info:
            Public Key Algorithm: rsaEncryption
                RSA Public-Key: (2048 bit)
                Modulus:
                    00:9e:37:74:a3:d3:a1:6d:c2:c9:55:30:78:ec:e8:
                    fa:e6:9e:20:e5:be:f0:3e:02:86:84:b4:8f:4c:94:
                    94:66:04:19:68:26:ce:23:93:ac:aa:19:dc:87:6d:
                    bc:8e:10:bb:6f:ac:09:23:e8:1a:16:ae:3e:41:a0:
                    67:e7:ad:8c:ef:42:f8:2f:ad:6d:d4:ed:37:8c:9f:
                    e3:d7:a3:3e:0d:62:2d:65:68:b8:d8:05:7a:4f:e3:
                    3f:f1:c7:9b:8a:85:57:48:47:26:8d:d4:c8:84:2c:
                    87:cc:59:ec:dd:93:83:a5:88:78:a1:35:09:0e:32:
                    66:d0:6e:e9:2e:bc:4a:37:09:db:22:19:e2:83:5d:
                    68:89:71:53:b4:b7:6c:06:47:bb:6c:4b:a2:ec:20:
                    f5:f9:85:a0:f4:08:a5:af:25:4c:19:40:0a:29:f4:
                    57:72:bd:4a:9a:3a:8e:a5:18:29:75:e6:25:69:c4:
                    12:3a:18:f1:b2:04:08:a2:12:a6:59:44:97:71:03:
                    ef:c0:e1:22:32:34:b9:90:6a:ba:45:98:e9:8d:2b:
                    46:a8:05:7c:be:29:24:ad:ab:be:a8:95:ab:90:c4:
                    3d:2f:e5:56:c4:9a:7b:d4:41:b9:31:3d:32:1c:e4:
                    e9:da:e6:59:6e:10:1b:a1:b0:27:53:a9:07:84:53:
                    26:ed
                Exponent: 65537 (0x10001)
        X509v3 extensions:
            X509v3 Basic Constraints: critical
                CA:FALSE
            X509v3 Subject Key Identifier: 
                51:9E:6E:30:68:EA:D4:89:70:13:8E:2F:AA:12:27:5F:55:FA:FC:1A
            X509v3 Authority Key Identifier: 
                keyid:9B:26:0B:8A:98:A9:BB:1D:B9:1F:1C:E3:1A:40:33:ED:8E:17:88:AB

            X509v3 Extended Key Usage: 
                TLS Web Server Authentication, TLS Web Client Authentication
            X509v3 Subject Alternative Name: 
                IP Address:127.0.0.1
    Signature Algorithm: sha256WithRSAEncryption
         69:0c:89:81:df:db:3c:80:58:6f:8d:59:fc:d2:a0:c2:f2:3a:
         83:60:a6:d8:a0:96:40:61:32:ec:e2:4c:44:ef:fa:20:98:48:
         d9:91:f9:40:43:ef:81:58:90:02:78:bc:0b:bf:bd:7e:67:08:
         85:3c:88:e2:d9:38:9c:a8:51:45:43:eb:f1:77:97:47:f1:38:
         d8:f1:74:4e:d5:17:a1:a6:dc:1f:f7:62:15:e8:fd:36:1c:3a:
         cb:4c:1b:55:1f:62:36:e2:31:89:e0:84:02:5a:04:79:58:66:
         68:f9:d7:44:0d:25:29:f8:68:21:7b:c9:c8:d8:c6:21:9e:cd:
         1a:0b:7d:d6:30:0f:86:f8:7c:e0:e2:e5:b6:e3:ef:9e:c3:21:
         81:1e:f1:92:23:d6:87:b9:0e:90:b1:95:10:f1:20:ba:cf:0f:
         99:6d:bb:69:91:85:3c:ba:73:89:07:2f:e8:b0:9e:ca:94:0e:
         b7:0a:95:99:63:df:a9:52:9d:96:84:dd:f5:75:af:ca:72:b3:
         6e:4a:3d:50:23:54:1c:b7:0c:e0:53:55:f2:5d:79:89:72:80:
         b0:90:b7:2c:c9:8d:de:cf:ee:0a:ae:12:db:ba:a7:32:57:d3:
         d7:64:0d:2e:87:c3:2e:0c:51:f3:84:36:ba:a2:4d:f3:98:ff:
         eb:d1:06:d0
-----BEGIN CERTIFICATE-----
MIIDzjCCAragAwIBAgIQPiydvrBCyM/8mULVTUFqszANBgkqhkiG9w0BAQsFADBj
MQswCQYDVQQGEwJVUzETMBEGA1UECAwKQ2FsaWZvcm5pYTEWMBQGA1UEBwwNTW91
bnRhaW4gVmlldzEQMA4GA1UECgwHVGVzdCBDQTEVMBMGA1UEAwwMVGVzdCBSb290
IENBMB4XDTE4MDkwMTAwMDAwMFoXDTE1MDQwMjAwMDAwMFowYDELMAkGA1UEBhMC
VVMxEzARBgNVBAgMCkNhbGlmb3JuaWExFjAUBgNVBAcMDU1vdW50YWluIFZpZXcx
EDAOBgNVBAoMB1Rlc3QgQ0ExEjAQBgNVBAMMCTEyNy4wLjAuMTCCASIwDQYJKoZI
hvcNAQEBBQADggEPADCCAQoCggEBAJ43dKPToW3CyVUweOzo+uaeIOW+8D4ChoS0
j0yUlGYEGWgmziOTrKoZ3IdtvI4Qu2+sCSPoGhauPkGgZ+etjO9C+C+tbdTtN4yf
49ejPg1iLWVouNgFek/jP/HHm4qFV0hHJo3UyIQsh8xZ7N2Tg6WIeKE1CQ4yZtBu
6S68SjcJ2yIZ4oNdaIlxU7S3bAZHu2xLouwg9fmFoPQIpa8lTBlACin0V3K9Spo6
jqUYKXXmJWnEEjoY8bIECKISpllEl3ED78DhIjI0uZBqukWY6Y0rRqgFfL4pJK2r
vqiVq5DEPS/lVsSae9RBuTE9Mhzk6drmWW4QG6GwJ1OpB4RTJu0CAwEAAaOBgDB+
MAwGA1UdEwEB/wQCMAAwHQYDVR0OBBYEFFGebjBo6tSJcBOOL6oSJ19V+vwaMB8G
A1UdIwQYMBaAFJsmC4qYqbsduR8c4xpAM+2OF4irMB0GA1UdJQQWMBQGCCsGAQUF
BwMBBggrBgEFBQcDAjAPBgNVHREECDAGhwR/AAABMA0GCSqGSIb3DQEBCwUAA4IB
AQBpDImB39s8gFhvjVn80qDC8jqDYKbYoJZAYTLs4kxE7/ogmEjZkflAQ++BWJAC
eLwLv71+ZwiFPIji2TicqFFFQ+vxd5dH8TjY8XRO1Rehptwf92IV6P02HDrLTBtV
H2I24jGJ4IQCWgR5WGZo+ddEDSUp+Gghe8nI2MYhns0aC33WMA+G+Hzg4uW24++e
wyGBHvGSI9aHuQ6QsZUQ8SC6zw+ZbbtpkYU8unOJBy/osJ7KlA63CpWZY9+pUp2W
hN31da/KcrNuSj1QI1QctwzgU1XyXXmJcoCwkLcsyY3ez+4KrhLbuqcyV9PXZA0u
h8MuDFHzhDa6ok3zmP/r0QbQ
-----END CERTIFICATE-----
