Certificate:
    Data:
        Version: 3 (0x2)
        Serial Number:
            b0:6b:93:92:e3:5c:8d:7e:ed:9d:c8:96:59:c5:c2:76
        Signature Algorithm: sha256WithRSAEncryption
        Issuer: C=US, ST=California, L=Mountain View, O=Test CA, CN=Test Root CA
        Validity
            Not Before: Sep  1 00:00:00 2018 GMT
            Not After : Apr  2 00:00:00 2015 GMT
        Subject: C=US, ST=California, L=Mountain View, O=Test CA, CN=127.0.0.1
        Subject Public Key Info:
            Public Key Algorithm: rsaEncryption
                Public-Key: (2048 bit)
                Modulus:
                    00:e7:1f:c0:bc:e7:c2:07:2d:13:9c:c8:c9:8a:89:
                    a7:fd:63:87:c5:2a:b0:f5:e4:e0:08:af:e2:c3:f1:
                    8c:02:f1:20:7a:9d:09:c0:c7:24:ef:61:04:e3:c9:
                    da:36:60:d5:8e:84:c9:4f:cc:ba:88:eb:00:a7:92:
                    46:47:69:e2:89:50:90:63:55:49:9e:4c:fb:3a:c6:
                    92:90:4d:69:b5:d8:85:3b:d6:dd:c5:62:e8:da:51:
                    62:4e:0f:61:82:e1:72:6b:37:ac:34:f4:92:fb:17:
                    d9:d4:52:ec:c5:e5:96:f7:e3:8f:f1:c7:a0:f4:de:
                    bf:5d:d7:74:72:6f:41:60:9f:51:ed:93:08:48:7c:
                    c8:44:1d:6b:30:d4:1f:67:88:1b:1e:8e:bf:83:18:
                    d2:cd:46:78:62:e4:1c:ac:be:48:0b:56:db:7c:b9:
                    b9:4f:97:3a:51:c1:14:37:c9:87:56:c2:19:5e:93:
                    d6:fc:75:99:88:fd:9b:f5:bc:ab:0c:2f:77:86:bf:
                    4d:2c:05:84:2e:82:61:f7:7d:0a:c3:fd:80:46:bd:
                    1b:46:b8:15:6a:91:2f:de:5f:bd:c2:cb:76:77:59:
                    03:90:c9:6d:e3:19:df:d2:f0:cc:6c:ef:ff:92:e9:
                    27:39:5a:0f:e2:a6:49:5f:f9:0f:e4:10:d0:76:9b:
                    5c:ff
                Exponent: 65537 (0x10001)
        X509v3 extensions:
            X509v3 Basic Constraints: critical
                CA:FALSE
            X509v3 Subject Key Identifier: 
                F1:42:EA:7F:63:33:BE:07:0C:EE:F1:61:42:F0:3F:7D:1E:D5:26:52
            X509v3 Authority Key Identifier: 
                9B:26:0B:8A:98:A9:BB:1D:B9:1F:1C:E3:1A:40:33:ED:8E:17:88:AB
            X509v3 Extended Key Usage: 
                TLS Web Server Authentication, TLS Web Client Authentication
            X509v3 Subject Alternative Name: 
                IP Address:127.0.0.1
    Signature Algorithm: sha256WithRSAEncryption
    Signature Value:
        ac:f3:da:f2:75:15:ff:95:c9:14:47:22:c3:b6:fc:b2:93:3b:
        33:7a:c0:81:71:f3:95:33:90:55:08:89:c1:1b:b7:06:f5:9c:
        43:59:90:2a:b0:9c:4b:91:f1:40:c0:c5:71:80:64:1e:f1:b3:
        1c:45:b9:d3:05:f8:1a:2d:76:a5:47:5c:f9:bc:66:66:0c:11:
        04:af:f2:3b:ef:ff:50:46:1e:70:45:d3:14:b0:a4:4a:d3:8c:
        99:e4:e3:a1:c8:7d:83:18:29:b8:3d:ca:ad:5c:b0:cf:ea:47:
        73:eb:85:c2:85:99:b7:68:c5:c5:bd:f2:c6:75:b7:65:e7:74:
        da:39:fa:b7:dc:9f:a9:f6:fd:e7:d4:70:91:b3:42:8a:71:38:
        2e:e3:c3:2a:35:6f:08:56:21:35:81:89:46:ca:e1:05:a7:f6:
        60:f5:b0:b3:44:3a:23:43:f3:e8:99:a3:7b:f8:42:2e:60:e5:
        a6:ab:3f:06:20:70:2f:69:d7:bb:95:87:01:5d:16:31:c0:b7:
        97:09:0c:02:c4:20:b1:ab:15:ef:be:05:98:eb:41:a6:eb:eb:
        e1:90:43:e6:b1:5f:d6:61:a4:18:bd:8a:6e:00:47:a7:58:a0:
        67:df:ea:09:a7:81:c3:5a:58:a9:ee:ac:f6:8b:2a:38:57:25:
        b7:a6:38:36
-----BEGIN CERTIFICATE-----
MIIDzzCCAregAwIBAgIRALBrk5LjXI1+7Z3IllnFwnYwDQYJKoZIhvcNAQELBQAw
YzELMAkGA1UEBhMCVVMxEzARBgNVBAgMCkNhbGlmb3JuaWExFjAUBgNVBAcMDU1v
dW50YWluIFZpZXcxEDAOBgNVBAoMB1Rlc3QgQ0ExFTATBgNVBAMMDFRlc3QgUm9v
dCBDQTAeFw0xODA5MDEwMDAwMDBaFw0xNTA0MDIwMDAwMDBaMGAxCzAJBgNVBAYT
AlVTMRMwEQYDVQQIDApDYWxpZm9ybmlhMRYwFAYDVQQHDA1Nb3VudGFpbiBWaWV3
MRAwDgYDVQQKDAdUZXN0IENBMRIwEAYDVQQDDAkxMjcuMC4wLjEwggEiMA0GCSqG
SIb3DQEBAQUAA4IBDwAwggEKAoIBAQDnH8C858IHLROcyMmKiaf9Y4fFKrD15OAI
r+LD8YwC8SB6nQnAxyTvYQTjydo2YNWOhMlPzLqI6wCnkkZHaeKJUJBjVUmeTPs6
xpKQTWm12IU71t3FYujaUWJOD2GC4XJrN6w09JL7F9nUUuzF5Zb344/xx6D03r9d
13Ryb0Fgn1HtkwhIfMhEHWsw1B9niBsejr+DGNLNRnhi5BysvkgLVtt8ublPlzpR
wRQ3yYdWwhlek9b8dZmI/Zv1vKsML3eGv00sBYQugmH3fQrD/YBGvRtGuBVqkS/e
X73Cy3Z3WQOQyW3jGd/S8Mxs7/+S6Sc5Wg/ipklf+Q/kENB2m1z/AgMBAAGjgYAw
fjAMBgNVHRMBAf8EAjAAMB0GA1UdDgQWBBTxQup/YzO+Bwzu8WFC8D99HtUmUjAf
BgNVHSMEGDAWgBSbJguKmKm7HbkfHOMaQDPtjheIqzAdBgNVHSUEFjAUBggrBgEF
BQcDAQYIKwYBBQUHAwIwDwYDVR0RBAgwBocEfwAAATANBgkqhkiG9w0BAQsFAAOC
AQEArPPa8nUV/5XJFEciw7b8spM7M3rAgXHzlTOQVQiJwRu3BvWcQ1mQKrCcS5Hx
QMDFcYBkHvGzHEW50wX4Gi12pUdc+bxmZgwRBK/yO+//UEYecEXTFLCkStOMmeTj
och9gxgpuD3KrVywz+pHc+uFwoWZt2jFxb3yxnW3Zed02jn6t9yfqfb959RwkbNC
inE4LuPDKjVvCFYhNYGJRsrhBaf2YPWws0Q6I0Pz6Jmje/hCLmDlpqs/BiBwL2nX
u5WHAV0WMcC3lwkMAsQgsasV774FmOtBpuvr4ZBD5rFf1mGkGL2KbgBHp1igZ9/q
CaeBw1pYqe6s9osqOFclt6Y4Ng==
-----END CERTIFICATE-----
