Certificate:
    Data:
        Version: 3 (0x2)
        Serial Number:
            cf:95:70:1c:b6:6c:07:bb:a4:de:63:24:47:3b:4e:cf
        Signature Algorithm: sha256WithRSAEncryption
        Issuer: C=US, ST=California, L=Mountain View, O=Test CA, CN=Test Root CA
        Validity
            Not Before: Sep  1 00:00:00 2018 GMT
            Not After : Apr  2 00:00:00 2015 GMT
        Subject: C=US, ST=California, L=Mountain View, O=Test CA, CN=127.0.0.1
        Subject Public Key Info:
            Public Key Algorithm: rsaEncryption
                Public-Key: (2048 bit)
                Modulus:
                    00:9d:ab:b7:af:a8:2f:49:e7:e3:c2:ee:2d:46:16:
                    a1:b0:72:96:49:1d:30:fe:50:ca:3e:ec:d8:34:89:
                    9b:80:d2:26:b2:cd:1e:23:87:8e:f8:0f:ed:75:6c:
                    4b:01:45:e2:ee:6c:45:12:bf:eb:e2:47:42:d8:aa:
                    37:2b:bf:a2:05:9d:41:10:59:a5:81:50:cf:4a:84:
                    bf:9a:7b:78:72:44:3a:01:65:32:a2:84:93:71:0c:
                    be:be:e8:57:6e:65:d2:1f:ad:7b:5f:70:d2:49:20:
                    64:b9:57:b5:4c:c5:9e:a8:f7:9e:67:60:70:4c:57:
                    eb:c2:fa:a4:bc:ee:61:50:f4:05:84:e1:d8:92:1a:
                    a8:5f:7a:eb:e9:cd:d7:67:f2:a7:7f:5c:3d:24:c8:
                    ef:2a:37:cb:58:47:ef:8c:cc:1d:9a:39:25:60:7d:
                    80:cc:f7:00:90:b5:d9:ed:ab:90:cc:86:66:6d:5a:
                    db:ef:3d:c2:87:54:9b:e0:5e:28:7d:30:90:76:15:
                    45:6f:68:6e:53:94:87:68:de:91:ac:2d:61:c5:30:
                    cf:7d:ed:25:60:09:53:ea:88:6a:dc:46:a4:e6:e0:
                    22:92:92:40:37:c3:23:43:ec:89:17:1b:b9:5e:40:
                    88:ed:bf:dc:d9:b2:1d:23:90:a3:3c:3d:9b:35:96:
                    55:5b
                Exponent: 65537 (0x10001)
        X509v3 extensions:
            X509v3 Basic Constraints: critical
                CA:FALSE
            X509v3 Subject Key Identifier: 
                BB:5F:59:36:0A:8F:4E:90:46:46:C0:41:C8:5C:04:1C:AB:FC:54:12
            X509v3 Authority Key Identifier: 
                9B:26:0B:8A:98:A9:BB:1D:B9:1F:1C:E3:1A:40:33:ED:8E:17:88:AB
            X509v3 Extended Key Usage: 
                TLS Web Server Authentication, TLS Web Client Authentication
            X509v3 Subject Alternative Name: 
                IP Address:127.0.0.1
    Signature Algorithm: sha256WithRSAEncryption
    Signature Value:
        61:31:c2:92:0c:c3:b4:03:98:e9:54:3c:4d:1d:6a:fe:94:2d:
        b7:61:03:1a:98:fe:63:02:95:ba:63:19:da:53:4b:9e:7a:60:
        57:c4:bd:b0:88:18:19:92:ed:4f:ef:3d:eb:51:c7:af:66:ea:
        e7:57:12:98:66:e8:67:e8:d1:48:6e:b4:eb:60:5d:31:f0:d4:
        a2:34:23:27:51:57:45:b3:ee:60:4e:64:4f:f8:7e:67:2f:d2:
        68:2a:0d:ae:e0:b6:67:7a:28:df:11:60:3b:db:37:91:2c:a9:
        db:28:fa:99:eb:50:38:b3:76:58:73:71:bc:fd:12:f7:c8:00:
        c8:d6:74:bc:2c:e2:c4:47:d3:9d:01:78:54:dd:7f:0f:62:5a:
        29:11:af:44:ed:08:a9:15:7d:35:51:cd:75:fe:46:dc:cb:bc:
        c4:c2:5c:e2:77:fd:db:f6:d3:cd:a8:73:64:cc:96:10:0b:20:
        43:dd:1d:34:81:2a:fa:23:d0:11:78:0b:c2:55:4d:96:97:f5:
        79:22:b4:8a:d8:35:00:d0:b4:ea:1e:3c:2c:72:07:06:b9:cf:
        13:d8:da:e8:cf:e2:50:dc:31:f0:18:04:81:bb:a1:b5:63:16:
        28:12:c8:9f:c8:e7:5a:5f:19:0b:90:07:b0:1f:a7:a6:29:78:
        d5:87:8b:b5
-----BEGIN CERTIFICATE-----
MIIDzzCCAregAwIBAgIRAM+VcBy2bAe7pN5jJEc7Ts8wDQYJKoZIhvcNAQELBQAw
YzELMAkGA1UEBhMCVVMxEzARBgNVBAgMCkNhbGlmb3JuaWExFjAUBgNVBAcMDU1v
dW50YWluIFZpZXcxEDAOBgNVBAoMB1Rlc3QgQ0ExFTATBgNVBAMMDFRlc3QgUm9v
dCBDQTAeFw0xODA5MDEwMDAwMDBaFw0xNTA0MDIwMDAwMDBaMGAxCzAJBgNVBAYT
AlVTMRMwEQYDVQQIDApDYWxpZm9ybmlhMRYwFAYDVQQHDA1Nb3VudGFpbiBWaWV3
MRAwDgYDVQQKDAdUZXN0IENBMRIwEAYDVQQDDAkxMjcuMC4wLjEwggEiMA0GCSqG
SIb3DQEBAQUAA4IBDwAwggEKAoIBAQCdq7evqC9J5+PC7i1GFqGwcpZJHTD+UMo+
7Ng0iZuA0iayzR4jh474D+11bEsBReLubEUSv+viR0LYqjcrv6IFnUEQWaWBUM9K
hL+ae3hyRDoBZTKihJNxDL6+6FduZdIfrXtfcNJJIGS5V7VMxZ6o955nYHBMV+vC
+qS87mFQ9AWE4diSGqhfeuvpzddn8qd/XD0kyO8qN8tYR++MzB2aOSVgfYDM9wCQ
tdntq5DMhmZtWtvvPcKHVJvgXih9MJB2FUVvaG5TlIdo3pGsLWHFMM997SVgCVPq
iGrcRqTm4CKSkkA3wyND7IkXG7leQIjtv9zZsh0jkKM8PZs1llVbAgMBAAGjgYAw
fjAMBgNVHRMBAf8EAjAAMB0GA1UdDgQWBBS7X1k2Co9OkEZGwEHIXAQcq/xUEjAf
BgNVHSMEGDAWgBSbJguKmKm7HbkfHOMaQDPtjheIqzAdBgNVHSUEFjAUBggrBgEF
BQcDAQYIKwYBBQUHAwIwDwYDVR0RBAgwBocEfwAAATANBgkqhkiG9w0BAQsFAAOC
AQEAYTHCkgzDtAOY6VQ8TR1q/pQtt2EDGpj+YwKVumMZ2lNLnnpgV8S9sIgYGZLt
T+8961HHr2bq51cSmGboZ+jRSG6062BdMfDUojQjJ1FXRbPuYE5kT/h+Zy/SaCoN
ruC2Z3oo3xFgO9s3kSyp2yj6metQOLN2WHNxvP0S98gAyNZ0vCzixEfTnQF4VN1/
D2JaKRGvRO0IqRV9NVHNdf5G3Mu8xMJc4nf92/bTzahzZMyWEAsgQ90dNIEq+iPQ
EXgLwlVNlpf1eSK0itg1ANC06h48LHIHBrnPE9ja6M/iUNwx8BgEgbuhtWMWKBLI
n8jnWl8ZC5AHsB+npil41YeLtQ==
-----END CERTIFICATE-----
