Certificate:
    Data:
        Version: 3 (0x2)
        Serial Number:
            52:83:3e:40:43:9c:c2:20:40:c8:7a:6e:b1:d0:4f:c5:82:46:12:93
        Signature Algorithm: sha256WithRSAEncryption
        Issuer: C=US, ST=California, L=Mountain View, O=Test CA, CN=127.0.0.1
        Validity
            Not Before: Oct 10 17:12:19 2025 GMT
            Not After : Oct  8 17:12:19 2035 GMT
        Subject: C=US, ST=California, L=Mountain View, O=Test CA, CN=127.0.0.1
        Subject Public Key Info:
            Public Key Algorithm: rsaEncryption
                Public-Key: (2048 bit)
                Modulus:
                    00:c2:1b:71:64:54:1b:5e:94:b4:e3:f5:64:46:48:
                    f9:41:5a:af:63:54:eb:d8:42:1c:54:8c:2a:c1:e0:
                    6f:aa:92:d7:a8:44:ac:60:54:79:e8:0d:8b:59:d0:
                    13:2c:d9:ef:52:39:a1:8d:55:ce:bc:47:f8:bb:66:
                    66:5a:a8:2f:5f:4c:b8:27:88:6e:80:e4:7a:01:d4:
                    43:60:75:05:c3:6f:4c:3e:22:56:41:b9:58:88:bb:
                    40:4d:d0:ad:e1:68:67:ed:2b:a0:bc:6a:dd:9d:2b:
                    cf:58:14:f5:ff:80:8a:3f:c1:f3:cd:f4:67:9a:4d:
                    0e:dd:7c:68:28:22:59:6f:64:f6:6c:29:e2:9a:7f:
                    14:d5:e6:8b:f7:23:c9:18:03:76:ea:3e:1b:4e:92:
                    1e:3f:1a:cd:f6:18:1d:8d:63:58:be:60:9d:83:04:
                    ed:46:a4:c4:e9:c6:e1:b9:e0:fc:78:b2:8a:fd:38:
                    1c:8a:5d:a1:96:ac:8a:28:55:b1:e3:27:36:04:eb:
                    40:a1:85:5e:6f:66:2e:66:4e:03:c3:0b:c4:05:cb:
                    3b:52:72:4b:a0:65:f1:a0:ad:0f:ca:b2:6c:76:4c:
                    f8:15:96:8d:fb:d7:b5:88:09:04:8a:2f:e0:33:6e:
                    75:10:58:99:40:f8:25:13:48:4e:53:cd:93:f4:90:
                    8f:f3
                Exponent: 65537 (0x10001)
        X509v3 extensions:
            X509v3 Basic Constraints: critical
                CA:TRUE
            X509v3 Subject Alternative Name: 
                DNS:www.example.com
            X509v3 Subject Key Identifier: 
                17:34:8D:3F:45:07:75:AA:E7:8B:6A:02:92:AB:D3:7D:F6:8F:E6:5A
    Signature Algorithm: sha256WithRSAEncryption
    Signature Value:
        89:3a:41:0e:2a:d7:d2:05:e6:b0:e9:bb:5a:0e:86:92:9c:4f:
        75:20:a8:8b:5c:b9:0d:8f:e1:16:09:2c:84:90:f6:e7:f3:c4:
        02:e7:91:c9:3f:42:52:12:35:a4:ca:5c:c1:64:91:fb:f9:33:
        ea:8a:08:a0:a1:6b:6b:f0:26:b9:aa:9b:7f:4d:56:dd:5f:82:
        49:32:c9:1d:e1:7e:f8:b3:be:2b:1e:31:e3:29:dd:41:ae:b3:
        01:1d:26:56:e3:98:24:52:ef:a6:dc:c9:2f:a6:94:27:47:60:
        1e:de:db:82:ff:da:5d:f7:20:db:8c:8e:0f:43:ea:a1:64:a1:
        db:0b:9d:76:54:6e:fc:a3:c5:d1:60:6b:35:f1:e4:a0:1d:59:
        42:b7:63:cf:c9:f3:29:f0:f1:72:7d:43:b3:ed:42:f5:db:8e:
        95:3d:8e:32:b7:64:48:7f:30:8f:7c:e3:cd:17:2e:a0:c8:7a:
        19:f3:62:5d:6e:22:3b:44:b2:e8:42:da:69:e4:25:62:66:b1:
        14:33:62:c5:f2:34:8f:7a:9d:dd:21:df:77:9d:dd:85:3c:91:
        d6:45:55:1e:52:e6:7c:b6:f5:13:0e:e8:e2:5a:3b:c8:95:78:
        13:93:60:9e:d7:a1:2b:fa:15:a9:9c:b2:4c:1e:48:64:58:44:
        3b:11:cc:ea
-----BEGIN CERTIFICATE-----
MIIDnDCCAoSgAwIBAgIUUoM+QEOcwiBAyHpusdBPxYJGEpMwDQYJKoZIhvcNAQEL
BQAwYDELMAkGA1UEBhMCVVMxEzARBgNVBAgMCkNhbGlmb3JuaWExFjAUBgNVBAcM
DU1vdW50YWluIFZpZXcxEDAOBgNVBAoMB1Rlc3QgQ0ExEjAQBgNVBAMMCTEyNy4w
LjAuMTAeFw0yNTEwMTAxNzEyMTlaFw0zNTEwMDgxNzEyMTlaMGAxCzAJBgNVBAYT
AlVTMRMwEQYDVQQIDApDYWxpZm9ybmlhMRYwFAYDVQQHDA1Nb3VudGFpbiBWaWV3
MRAwDgYDVQQKDAdUZXN0IENBMRIwEAYDVQQDDAkxMjcuMC4wLjEwggEiMA0GCSqG
SIb3DQEBAQUAA4IBDwAwggEKAoIBAQDCG3FkVBtelLTj9WRGSPlBWq9jVOvYQhxU
jCrB4G+qkteoRKxgVHnoDYtZ0BMs2e9SOaGNVc68R/i7ZmZaqC9fTLgniG6A5HoB
1ENgdQXDb0w+IlZBuViIu0BN0K3haGftK6C8at2dK89YFPX/gIo/wfPN9GeaTQ7d
fGgoIllvZPZsKeKafxTV5ov3I8kYA3bqPhtOkh4/Gs32GB2NY1i+YJ2DBO1GpMTp
xuG54Px4sor9OByKXaGWrIooVbHjJzYE60ChhV5vZi5mTgPDC8QFyztSckugZfGg
rQ/Ksmx2TPgVlo3717WICQSKL+AzbnUQWJlA+CUTSE5TzZP0kI/zAgMBAAGjTjBM
MA8GA1UdEwEB/wQFMAMBAf8wGgYDVR0RBBMwEYIPd3d3LmV4YW1wbGUuY29tMB0G
A1UdDgQWBBQXNI0/RQd1queLagKSq9N99o/mWjANBgkqhkiG9w0BAQsFAAOCAQEA
iTpBDirX0gXmsOm7Wg6GkpxPdSCoi1y5DY/hFgkshJD25/PEAueRyT9CUhI1pMpc
wWSR+/kz6ooIoKFra/Amuaqbf01W3V+CSTLJHeF++LO+Kx4x4yndQa6zAR0mVuOY
JFLvptzJL6aUJ0dgHt7bgv/aXfcg24yOD0PqoWSh2wuddlRu/KPF0WBrNfHkoB1Z
Qrdjz8nzKfDxcn1Ds+1C9duOlT2OMrdkSH8wj3zjzRcuoMh6GfNiXW4iO0Sy6ELa
aeQlYmaxFDNixfI0j3qd3SHfd53dhTyR1kVVHlLmfLb1Ew7o4lo7yJV4E5Ngnteh
K/oVqZyyTB5IZFhEOxHM6g==
-----END CERTIFICATE-----
