Certificate:
    Data:
        Version: 3 (0x2)
        Serial Number:
            64:b2:04:2e:6b:94:d9:cd:c7:69:39:a8:9c:54:ee:0f:0b:a8:1f:93
        Signature Algorithm: sha256WithRSAEncryption
        Issuer: C = US, ST = California, L = Mountain View, O = Test CA, CN = 127.0.0.1
        Validity
            Not Before: Mar 13 20:46:17 2020 GMT
            Not After : Mar 11 20:46:17 2030 GMT
        Subject: C = US, ST = California, L = Mountain View, O = Test CA, CN = 127.0.0.1
        Subject Public Key Info:
            Public Key Algorithm: rsaEncryption
                RSA Public-Key: (2048 bit)
                Modulus:
                    00:b2:74:1b:cb:70:e0:fb:16:f6:9e:e2:fb:1f:53:
                    d8:40:2a:b7:c0:58:41:8c:cd:97:95:9a:4c:a4:b4:
                    e8:ce:ac:e0:f3:cb:9c:4c:87:7a:35:0a:32:82:65:
                    b4:14:8a:e7:8b:d6:ac:37:1c:4e:68:f6:aa:88:17:
                    f8:e7:bb:c6:2f:73:38:15:ca:32:93:88:54:d8:0a:
                    da:69:da:51:0f:0c:24:1d:5c:69:e9:3e:cf:20:29:
                    7f:c5:e0:99:8f:9a:b0:f2:94:3d:36:49:2a:d3:5f:
                    1d:31:57:9f:ac:32:c7:8f:37:cd:26:9f:39:ca:e8:
                    c7:38:13:87:b6:81:e6:d5:66:5f:6d:28:a2:c3:22:
                    4f:e2:38:ac:4b:13:87:aa:7c:03:0e:1e:96:2f:ef:
                    c3:96:f9:d5:73:34:16:0b:d6:18:0b:7a:95:c4:4a:
                    b5:ab:79:06:2b:01:8a:36:15:4e:66:c6:2b:ac:bb:
                    1e:ea:5e:f5:c1:87:07:c2:88:58:6b:87:a4:ec:c4:
                    f8:9b:30:a8:34:f7:0d:5f:0c:e5:3f:e2:89:68:32:
                    94:29:a5:3c:c3:f0:c5:5c:81:f3:72:a2:a8:d0:26:
                    f8:0a:95:b0:9f:d8:b1:70:b6:f1:4d:c4:91:0b:1e:
                    d9:3d:70:38:5c:69:bb:d8:f7:0b:57:01:b4:60:12:
                    18:c3
                Exponent: 65537 (0x10001)
        X509v3 extensions:
            X509v3 Basic Constraints: critical
                CA:TRUE
            X509v3 Subject Alternative Name: 
                DNS:www.example.com
    Signature Algorithm: sha256WithRSAEncryption
         1f:17:5c:2b:99:43:7c:47:03:e4:af:a7:03:2d:32:f0:5a:99:
         64:c2:b2:c2:4e:e5:43:f4:dd:11:f9:0a:7d:53:8d:0e:d1:a0:
         3b:c1:9e:43:5d:73:aa:60:a6:34:05:4d:cb:11:e1:5e:d7:c4:
         2b:f7:b9:a0:b3:5d:07:c8:36:f9:91:bc:f0:62:19:11:ff:86:
         21:40:be:25:ce:cd:90:c1:99:d8:46:4d:e8:e2:40:a6:db:4d:
         26:fc:7a:e1:e6:1f:78:52:39:b5:d7:b2:75:aa:8a:77:3b:20:
         42:6c:4b:8d:9f:34:4d:51:af:f9:46:2b:81:51:7e:21:2f:38:
         b0:96:84:92:05:18:3b:ca:b2:64:23:cc:17:48:40:f1:38:d3:
         70:1e:ba:06:84:9c:32:2d:97:f7:ee:2b:43:00:89:f7:ae:8b:
         74:63:70:fc:14:c2:c1:de:9c:e0:49:4f:2e:3e:6f:4b:8b:d5:
         aa:94:d1:50:35:99:56:cb:6a:3d:7c:a2:44:29:2f:df:f4:1b:
         aa:41:75:9a:e6:fe:b9:13:a7:86:86:a1:2b:77:31:3a:fe:32:
         55:63:a0:81:da:3e:c4:3f:2d:aa:4b:c9:3c:48:f2:fb:a2:46:
         ab:ef:22:07:41:29:67:1f:ab:68:e5:9f:bb:d1:17:61:a8:13:
         7e:a9:32:eb
-----BEGIN CERTIFICATE-----
MIIDfTCCAmWgAwIBAgIUZLIELmuU2c3HaTmonFTuDwuoH5MwDQYJKoZIhvcNAQEL
BQAwYDELMAkGA1UEBhMCVVMxEzARBgNVBAgMCkNhbGlmb3JuaWExFjAUBgNVBAcM
DU1vdW50YWluIFZpZXcxEDAOBgNVBAoMB1Rlc3QgQ0ExEjAQBgNVBAMMCTEyNy4w
LjAuMTAeFw0yMDAzMTMyMDQ2MTdaFw0zMDAzMTEyMDQ2MTdaMGAxCzAJBgNVBAYT
AlVTMRMwEQYDVQQIDApDYWxpZm9ybmlhMRYwFAYDVQQHDA1Nb3VudGFpbiBWaWV3
MRAwDgYDVQQKDAdUZXN0IENBMRIwEAYDVQQDDAkxMjcuMC4wLjEwggEiMA0GCSqG
SIb3DQEBAQUAA4IBDwAwggEKAoIBAQCydBvLcOD7Fvae4vsfU9hAKrfAWEGMzZeV
mkyktOjOrODzy5xMh3o1CjKCZbQUiueL1qw3HE5o9qqIF/jnu8YvczgVyjKTiFTY
Ctpp2lEPDCQdXGnpPs8gKX/F4JmPmrDylD02SSrTXx0xV5+sMsePN80mnznK6Mc4
E4e2gebVZl9tKKLDIk/iOKxLE4eqfAMOHpYv78OW+dVzNBYL1hgLepXESrWreQYr
AYo2FU5mxiusux7qXvXBhwfCiFhrh6TsxPibMKg09w1fDOU/4oloMpQppTzD8MVc
gfNyoqjQJvgKlbCf2LFwtvFNxJELHtk9cDhcabvY9wtXAbRgEhjDAgMBAAGjLzAt
MA8GA1UdEwEB/wQFMAMBAf8wGgYDVR0RBBMwEYIPd3d3LmV4YW1wbGUuY29tMA0G
CSqGSIb3DQEBCwUAA4IBAQAfF1wrmUN8RwPkr6cDLTLwWplkwrLCTuVD9N0R+Qp9
U40O0aA7wZ5DXXOqYKY0BU3LEeFe18Qr97mgs10HyDb5kbzwYhkR/4YhQL4lzs2Q
wZnYRk3o4kCm200m/Hrh5h94Ujm117J1qop3OyBCbEuNnzRNUa/5RiuBUX4hLziw
loSSBRg7yrJkI8wXSEDxONNwHroGhJwyLZf37itDAIn3rot0Y3D8FMLB3pzgSU8u
Pm9Li9WqlNFQNZlWy2o9fKJEKS/f9BuqQXWa5v65E6eGhqErdzE6/jJVY6CB2j7E
Py2qS8k8SPL7okar7yIHQSlnH6to5Z+70RdhqBN+qTLr
-----END CERTIFICATE-----
