Certificate:
    Data:
        Version: 3 (0x2)
        Serial Number:
            6c:ec:87:a8:f8:b7:e3:24:4b:b2:f5:ae:8b:41:87:30:87:f2:13:13
        Signature Algorithm: sha256WithRSAEncryption
        Issuer: C=US, ST=California, L=Mountain View, O=Test CA, CN=127.0.0.1
        Validity
            Not Before: Oct 10 20:46:13 2024 GMT
            Not After : Oct  8 20:46:13 2034 GMT
        Subject: C=US, ST=California, L=Mountain View, O=Test CA, CN=127.0.0.1
        Subject Public Key Info:
            Public Key Algorithm: rsaEncryption
                Public-Key: (2048 bit)
                Modulus:
                    00:b5:30:0b:c1:91:46:2f:89:ae:f8:37:ee:fa:8d:
                    65:26:47:6f:dd:55:23:cd:8c:e0:51:a9:54:9f:75:
                    e0:ed:31:30:6e:5f:c1:b9:11:aa:d9:f0:7d:31:6a:
                    28:69:03:05:63:e3:2c:42:d7:86:34:7d:ac:66:8a:
                    74:be:0c:bf:38:d5:3c:d7:b2:cd:dc:e3:fc:08:84:
                    f6:2c:5d:c5:49:f2:13:88:2e:d5:dc:f3:f2:40:29:
                    23:b2:39:67:06:42:cc:9a:ce:46:75:2a:99:48:52:
                    38:b1:f4:fe:ea:96:ed:9b:54:05:a8:ab:35:e4:92:
                    76:15:79:47:26:9b:01:bf:e5:50:1f:16:7c:c5:c7:
                    38:26:17:02:f6:a3:ed:ea:34:cf:e5:ed:e2:56:3e:
                    c1:79:eb:89:e6:5f:6c:c6:55:1c:e2:27:1b:8c:ba:
                    0d:03:63:3f:73:1a:0b:b6:e6:22:a2:9a:19:bd:a4:
                    7c:61:21:46:32:3a:2c:98:7c:3f:8c:4a:6a:43:38:
                    57:4b:d3:9a:de:91:3d:6b:31:73:1c:c8:34:54:24:
                    3b:f0:5e:8a:d2:66:d9:93:75:e0:f4:ac:8a:46:bc:
                    f9:3f:4e:b5:73:8f:52:8b:fc:c0:8c:0d:84:af:d6:
                    79:d8:5b:77:71:f6:1a:62:73:b7:b9:a3:c0:62:49:
                    89:41
                Exponent: 65537 (0x10001)
        X509v3 extensions:
            X509v3 Basic Constraints: critical
                CA:TRUE
            X509v3 Subject Alternative Name: 
                DNS:www.example.com
            X509v3 Subject Key Identifier: 
                AE:6A:1E:9C:43:F7:8F:17:7A:8F:3D:85:F5:82:23:D1:81:49:E7:D4
    Signature Algorithm: sha256WithRSAEncryption
    Signature Value:
        6a:2a:76:b7:93:de:cb:2c:31:ea:8c:fb:c3:6b:fc:ea:92:0e:
        98:d3:9f:f6:38:0f:e6:b0:a4:e5:3a:59:7a:f2:56:49:89:b9:
        9f:2d:2a:41:2b:74:a2:f3:0a:e8:6f:bc:5c:99:8b:c9:87:9f:
        b4:d3:e6:a6:d4:93:e6:7c:d4:5a:10:e1:ac:1c:8b:f1:e0:84:
        7a:db:ff:98:85:a4:c8:44:dc:61:33:ab:58:c7:39:ee:e6:f6:
        3c:7d:f5:8e:91:b4:12:d6:88:05:79:c6:a2:65:3e:02:25:9a:
        94:af:30:5e:c0:da:85:97:53:74:d6:9e:0d:95:1c:14:e1:1f:
        02:94:90:e6:e7:68:29:cf:2b:15:45:7c:cf:2b:47:56:03:c4:
        6e:32:05:50:a4:b4:63:89:a9:15:26:3d:4b:ff:69:f6:6f:0e:
        6d:db:f6:c0:05:d6:c5:14:8e:af:31:88:a0:1e:b2:d2:8d:e4:
        35:3f:10:6f:65:90:19:23:a3:a9:4c:75:a6:e9:51:cf:15:ec:
        95:d5:07:d3:08:73:03:f8:8c:b2:10:8d:ab:58:75:2e:72:5c:
        37:82:2d:66:e0:90:c0:11:33:3a:fd:e0:b5:e6:3d:54:8c:ed:
        3a:b3:16:bc:89:97:55:d1:b7:4a:69:bf:f7:c2:1e:59:29:97:
        a1:1f:36:a1
-----BEGIN CERTIFICATE-----
MIIDnDCCAoSgAwIBAgIUbOyHqPi34yRLsvWui0GHMIfyExMwDQYJKoZIhvcNAQEL
BQAwYDELMAkGA1UEBhMCVVMxEzARBgNVBAgMCkNhbGlmb3JuaWExFjAUBgNVBAcM
DU1vdW50YWluIFZpZXcxEDAOBgNVBAoMB1Rlc3QgQ0ExEjAQBgNVBAMMCTEyNy4w
LjAuMTAeFw0yNDEwMTAyMDQ2MTNaFw0zNDEwMDgyMDQ2MTNaMGAxCzAJBgNVBAYT
AlVTMRMwEQYDVQQIDApDYWxpZm9ybmlhMRYwFAYDVQQHDA1Nb3VudGFpbiBWaWV3
MRAwDgYDVQQKDAdUZXN0IENBMRIwEAYDVQQDDAkxMjcuMC4wLjEwggEiMA0GCSqG
SIb3DQEBAQUAA4IBDwAwggEKAoIBAQC1MAvBkUYvia74N+76jWUmR2/dVSPNjOBR
qVSfdeDtMTBuX8G5EarZ8H0xaihpAwVj4yxC14Y0faxminS+DL841TzXss3c4/wI
hPYsXcVJ8hOILtXc8/JAKSOyOWcGQsyazkZ1KplIUjix9P7qlu2bVAWoqzXkknYV
eUcmmwG/5VAfFnzFxzgmFwL2o+3qNM/l7eJWPsF564nmX2zGVRziJxuMug0DYz9z
Ggu25iKimhm9pHxhIUYyOiyYfD+MSmpDOFdL05rekT1rMXMcyDRUJDvwXorSZtmT
deD0rIpGvPk/TrVzj1KL/MCMDYSv1nnYW3dx9hpic7e5o8BiSYlBAgMBAAGjTjBM
MA8GA1UdEwEB/wQFMAMBAf8wGgYDVR0RBBMwEYIPd3d3LmV4YW1wbGUuY29tMB0G
A1UdDgQWBBSuah6cQ/ePF3qPPYX1giPRgUnn1DANBgkqhkiG9w0BAQsFAAOCAQEA
aip2t5Peyywx6oz7w2v86pIOmNOf9jgP5rCk5TpZevJWSYm5ny0qQSt0ovMK6G+8
XJmLyYeftNPmptST5nzUWhDhrByL8eCEetv/mIWkyETcYTOrWMc57ub2PH31jpG0
EtaIBXnGomU+AiWalK8wXsDahZdTdNaeDZUcFOEfApSQ5udoKc8rFUV8zytHVgPE
bjIFUKS0Y4mpFSY9S/9p9m8Obdv2wAXWxRSOrzGIoB6y0o3kNT8Qb2WQGSOjqUx1
pulRzxXsldUH0whzA/iMshCNq1h1LnJcN4ItZuCQwBEzOv3gteY9VIztOrMWvImX
VdG3Smm/98IeWSmXoR82oQ==
-----END CERTIFICATE-----
