Certificate:
    Data:
        Version: 3 (0x2)
        Serial Number:
            7f:9a:03:34:c6:e4:ba:e0:92:bb:a0:cb:9a:c4:a6:2a:89:38:57:b5
        Signature Algorithm: sha256WithRSAEncryption
        Issuer: C = US, ST = California, L = Mountain View, O = Test CA, CN = 127.0.0.1
        Validity
            Not Before: Mar 13 20:46:17 2020 GMT
            Not After : Mar 11 20:46:17 2030 GMT
        Subject: C = US, ST = California, L = Mountain View, O = Test CA, CN = 127.0.0.1
        Subject Public Key Info:
            Public Key Algorithm: rsaEncryption
                RSA Public-Key: (2048 bit)
                Modulus:
                    00:b5:46:69:81:43:dc:81:89:0a:bb:45:9a:68:5b:
                    13:7c:e9:7c:b1:0f:ef:94:58:cd:ae:6d:fb:07:03:
                    0d:10:a9:3e:3e:8b:a2:a4:18:00:aa:ed:47:be:b2:
                    13:b9:be:f7:52:68:32:0a:17:06:8f:55:2f:b1:31:
                    43:7b:08:db:18:3b:43:b4:55:c1:89:1f:46:58:71:
                    55:8f:33:3d:e4:ef:77:1f:e6:f0:ba:10:b4:1a:d4:
                    08:7d:34:35:a9:66:76:5c:ab:2c:86:5e:15:5c:53:
                    6e:08:92:d5:94:48:49:83:41:c5:ff:18:e4:81:2b:
                    d9:65:22:8f:90:96:b8:b0:82:40:61:d5:e5:2f:c3:
                    9d:c2:95:fa:a7:64:e2:a9:aa:02:19:67:07:b5:cf:
                    7c:96:14:0c:37:99:df:10:2f:23:b5:5a:bf:2b:a0:
                    8a:f9:fb:72:86:db:db:51:ae:4d:c0:35:da:bb:ce:
                    98:f8:1c:28:a6:04:4e:eb:1d:87:83:ac:70:bb:0b:
                    17:d2:1d:df:1c:f7:b1:a0:f8:85:5f:31:25:ce:37:
                    c5:65:09:d4:53:47:a0:fb:ab:cc:95:1a:8e:4c:e5:
                    bd:a0:dc:c4:32:24:aa:10:10:4e:01:68:b7:df:2a:
                    fc:64:e5:88:de:bb:dd:60:ac:ea:df:56:a2:11:1f:
                    f8:73
                Exponent: 65537 (0x10001)
        X509v3 extensions:
            X509v3 Basic Constraints: critical
                CA:TRUE
            X509v3 Subject Alternative Name: 
                IP Address:127.0.0.2, IP Address:FE80:0:0:0:0:0:0:1, DNS:test.example, email:test@test.example, othername:<unsupported>, DirName:/CN=127.0.0.3
    Signature Algorithm: sha256WithRSAEncryption
         5c:86:b6:d7:42:d1:91:3e:27:16:38:23:1b:58:96:1a:56:26:
         d3:c0:2a:62:5b:d2:bb:1b:cf:72:5e:9c:70:40:61:0f:05:0b:
         d9:2d:f8:67:de:b2:d5:6b:55:e2:48:b2:08:8f:b5:a0:36:32:
         63:3a:4b:08:12:de:54:e8:a8:bb:e2:4a:0b:76:0c:89:5e:d2:
         22:3d:42:06:23:64:85:17:0e:cf:56:91:ce:cc:ce:68:0a:55:
         87:fa:e0:f9:ad:63:ad:1b:fa:ca:d0:93:91:e6:76:8e:29:8e:
         db:9c:1b:39:a6:dc:ed:dd:46:f7:e4:3b:d7:87:d6:73:21:27:
         c4:cf:02:18:88:3f:99:ac:ba:63:ab:68:5d:ab:52:d7:1c:9b:
         2f:b9:1f:e8:59:57:ef:c2:f2:6b:2e:58:4d:e1:aa:85:da:8e:
         60:c7:1d:c6:ad:35:8a:07:ab:c5:11:60:84:71:fe:f6:ca:78:
         7b:ce:be:ba:41:c4:5b:b6:3e:da:82:8f:4a:93:b8:7e:2c:9d:
         46:85:5d:4c:66:e1:71:6f:13:12:af:a6:26:5a:48:d0:09:1e:
         dd:71:25:9d:06:bc:2b:81:b6:c2:6d:d1:c0:17:a6:98:09:dc:
         0d:e2:74:d6:a8:e9:de:e0:7f:06:86:ef:f8:48:f2:b7:b4:e9:
         ba:46:c3:68
-----BEGIN CERTIFICATE-----
MIID0zCCArugAwIBAgIUf5oDNMbkuuCSu6DLmsSmKok4V7UwDQYJKoZIhvcNAQEL
BQAwYDELMAkGA1UEBhMCVVMxEzARBgNVBAgMCkNhbGlmb3JuaWExFjAUBgNVBAcM
DU1vdW50YWluIFZpZXcxEDAOBgNVBAoMB1Rlc3QgQ0ExEjAQBgNVBAMMCTEyNy4w
LjAuMTAeFw0yMDAzMTMyMDQ2MTdaFw0zMDAzMTEyMDQ2MTdaMGAxCzAJBgNVBAYT
AlVTMRMwEQYDVQQIDApDYWxpZm9ybmlhMRYwFAYDVQQHDA1Nb3VudGFpbiBWaWV3
MRAwDgYDVQQKDAdUZXN0IENBMRIwEAYDVQQDDAkxMjcuMC4wLjEwggEiMA0GCSqG
SIb3DQEBAQUAA4IBDwAwggEKAoIBAQC1RmmBQ9yBiQq7RZpoWxN86XyxD++UWM2u
bfsHAw0QqT4+i6KkGACq7Ue+shO5vvdSaDIKFwaPVS+xMUN7CNsYO0O0VcGJH0ZY
cVWPMz3k73cf5vC6ELQa1Ah9NDWpZnZcqyyGXhVcU24IktWUSEmDQcX/GOSBK9ll
Io+QlriwgkBh1eUvw53ClfqnZOKpqgIZZwe1z3yWFAw3md8QLyO1Wr8roIr5+3KG
29tRrk3ANdq7zpj4HCimBE7rHYeDrHC7CxfSHd8c97Gg+IVfMSXON8VlCdRTR6D7
q8yVGo5M5b2g3MQyJKoQEE4BaLffKvxk5Yjeu91grOrfVqIRH/hzAgMBAAGjgYQw
gYEwDwYDVR0TAQH/BAUwAwEB/zBuBgNVHREEZzBlhwR/AAAChxD+gAAAAAAAAAAA
AAAAAAABggx0ZXN0LmV4YW1wbGWBEXRlc3RAdGVzdC5leGFtcGxloBIGAyoDBKAL
DAlpZ25vcmUgbWWkFjAUMRIwEAYDVQQDDAkxMjcuMC4wLjMwDQYJKoZIhvcNAQEL
BQADggEBAFyGttdC0ZE+JxY4IxtYlhpWJtPAKmJb0rsbz3JenHBAYQ8FC9kt+Gfe
stVrVeJIsgiPtaA2MmM6SwgS3lToqLviSgt2DIle0iI9QgYjZIUXDs9Wkc7MzmgK
VYf64PmtY60b+srQk5Hmdo4pjtucGzmm3O3dRvfkO9eH1nMhJ8TPAhiIP5msumOr
aF2rUtccmy+5H+hZV+/C8msuWE3hqoXajmDHHcatNYoHq8URYIRx/vbKeHvOvrpB
xFu2PtqCj0qTuH4snUaFXUxm4XFvExKvpiZaSNAJHt1xJZ0GvCuBtsJt0cAXppgJ
3A3idNao6d7gfwaG7/hI8re06bpGw2g=
-----END CERTIFICATE-----
