Certificate:
    Data:
        Version: 3 (0x2)
        Serial Number:
            01:15:e2:17:d7:3f:5b:45:e9:87:5d:15:a0:65:08:07:3b:0b:4e:9b
        Signature Algorithm: sha256WithRSAEncryption
        Issuer: C = US, ST = California, L = Mountain View, O = Test CA, CN = 127.0.0.1
        Validity
            Not Before: Oct 30 18:43:14 2023 GMT
            Not After : Oct 27 18:43:14 2033 GMT
        Subject: C = US, ST = California, L = Mountain View, O = Test CA, CN = 127.0.0.1
        Subject Public Key Info:
            Public Key Algorithm: rsaEncryption
                Public-Key: (2048 bit)
                Modulus:
                    00:94:fa:26:7a:a4:32:6d:ec:d4:f0:c1:e9:97:a8:
                    71:70:34:0e:54:fc:7d:e2:fa:7a:d7:20:c9:3d:a3:
                    f1:56:8a:32:24:aa:38:c5:9e:ec:8d:4c:57:d4:4f:
                    3c:34:bb:ff:f0:2c:16:bb:48:fe:be:af:6d:20:73:
                    8d:de:54:61:e9:4e:73:f0:64:2b:ab:4d:2c:14:4c:
                    22:bf:3e:1d:54:b4:48:04:3d:c3:db:a1:9e:34:67:
                    3c:d2:04:8c:e9:2c:e2:18:1a:37:4d:88:d1:7e:64:
                    c1:54:07:ba:fe:32:cc:58:87:6a:3a:a1:7b:94:99:
                    7b:19:21:43:fd:17:36:d0:59:32:e7:2a:73:78:f9:
                    22:fd:bb:fc:1e:1c:7a:a5:48:e5:3c:30:cd:23:35:
                    b8:e9:32:ae:e8:0a:3e:f0:ae:4f:c0:8d:47:56:6f:
                    52:b3:c9:cd:dd:ab:a8:86:89:1a:92:b3:c3:ac:f5:
                    b4:0c:9b:1d:2b:04:4f:8a:4d:6f:21:73:fd:77:1e:
                    be:15:ea:60:f5:10:7c:23:72:68:f1:76:89:9d:33:
                    0a:25:26:cd:80:34:fc:f2:2a:1d:0c:6a:98:87:c9:
                    88:88:56:47:52:2f:21:a4:14:2b:36:70:c9:aa:68:
                    22:e1:bb:15:d7:aa:af:7f:de:0b:3b:fe:c0:b5:18:
                    97:4b
                Exponent: 65537 (0x10001)
        X509v3 extensions:
            X509v3 Basic Constraints: critical
                CA:TRUE
            X509v3 Subject Alternative Name: 
                IP Address:127.0.0.2, IP Address:FE80:0:0:0:0:0:0:1, DNS:test.example, email:test@test.example, othername: 1.2.3.4::ignore me, DirName:/CN=127.0.0.3
            X509v3 Subject Key Identifier: 
                8C:B6:6C:B4:07:10:53:FF:92:CE:9A:EF:44:90:26:85:50:69:5B:BD
    Signature Algorithm: sha256WithRSAEncryption
    Signature Value:
        48:48:2b:6e:5b:fc:4a:19:88:c5:88:bb:df:35:df:10:83:2c:
        a1:fc:84:cd:f3:e2:ff:9b:46:35:02:76:f1:dc:ac:1c:8e:d3:
        61:53:7c:01:ca:30:70:12:ca:88:cf:56:e1:e0:8d:7f:7e:2e:
        9b:4e:76:d7:8b:14:49:ab:db:96:30:34:8d:41:3f:7a:a8:55:
        07:1c:b3:bd:cd:fa:20:4e:22:ea:e4:9f:5f:ad:ab:4a:04:3f:
        71:7e:13:b2:f9:4a:0c:77:2c:4b:03:49:e2:61:7c:72:b2:87:
        fa:1a:51:99:34:fe:69:80:e7:58:af:bb:93:47:82:0f:b2:af:
        c7:64:7e:98:54:4c:ca:48:47:54:4c:45:d0:4d:c6:f7:c0:6b:
        bd:35:5f:9f:9a:d2:98:25:fd:57:8f:0e:16:7f:ac:5d:c8:85:
        d3:24:27:95:1f:7d:3e:1c:0d:d8:96:74:08:b4:8c:e4:11:f8:
        42:ef:91:27:79:ee:b4:b2:03:ed:f9:73:9b:e0:86:fd:d1:76:
        38:6a:42:0a:f3:08:33:39:05:62:29:b1:ce:be:dc:f6:8c:83:
        7b:77:9e:c7:8e:9d:20:76:d8:ea:52:14:23:03:a8:6c:e1:64:
        5c:c4:4b:09:de:b9:4c:a5:a2:c7:fe:45:3f:b3:d2:46:1b:f4:
        4f:cd:7a:6d
-----BEGIN CERTIFICATE-----
MIID8jCCAtqgAwIBAgIUARXiF9c/W0Xph10VoGUIBzsLTpswDQYJKoZIhvcNAQEL
BQAwYDELMAkGA1UEBhMCVVMxEzARBgNVBAgMCkNhbGlmb3JuaWExFjAUBgNVBAcM
DU1vdW50YWluIFZpZXcxEDAOBgNVBAoMB1Rlc3QgQ0ExEjAQBgNVBAMMCTEyNy4w
LjAuMTAeFw0yMzEwMzAxODQzMTRaFw0zMzEwMjcxODQzMTRaMGAxCzAJBgNVBAYT
AlVTMRMwEQYDVQQIDApDYWxpZm9ybmlhMRYwFAYDVQQHDA1Nb3VudGFpbiBWaWV3
MRAwDgYDVQQKDAdUZXN0IENBMRIwEAYDVQQDDAkxMjcuMC4wLjEwggEiMA0GCSqG
SIb3DQEBAQUAA4IBDwAwggEKAoIBAQCU+iZ6pDJt7NTwwemXqHFwNA5U/H3i+nrX
IMk9o/FWijIkqjjFnuyNTFfUTzw0u//wLBa7SP6+r20gc43eVGHpTnPwZCurTSwU
TCK/Ph1UtEgEPcPboZ40ZzzSBIzpLOIYGjdNiNF+ZMFUB7r+MsxYh2o6oXuUmXsZ
IUP9FzbQWTLnKnN4+SL9u/weHHqlSOU8MM0jNbjpMq7oCj7wrk/AjUdWb1Kzyc3d
q6iGiRqSs8Os9bQMmx0rBE+KTW8hc/13Hr4V6mD1EHwjcmjxdomdMwolJs2ANPzy
Kh0MapiHyYiIVkdSLyGkFCs2cMmqaCLhuxXXqq9/3gs7/sC1GJdLAgMBAAGjgaMw
gaAwDwYDVR0TAQH/BAUwAwEB/zBuBgNVHREEZzBlhwR/AAAChxD+gAAAAAAAAAAA
AAAAAAABggx0ZXN0LmV4YW1wbGWBEXRlc3RAdGVzdC5leGFtcGxloBIGAyoDBKAL
DAlpZ25vcmUgbWWkFjAUMRIwEAYDVQQDDAkxMjcuMC4wLjMwHQYDVR0OBBYEFIy2
bLQHEFP/ks6a70SQJoVQaVu9MA0GCSqGSIb3DQEBCwUAA4IBAQBISCtuW/xKGYjF
iLvfNd8Qgyyh/ITN8+L/m0Y1Anbx3KwcjtNhU3wByjBwEsqIz1bh4I1/fi6bTnbX
ixRJq9uWMDSNQT96qFUHHLO9zfogTiLq5J9fratKBD9xfhOy+UoMdyxLA0niYXxy
sof6GlGZNP5pgOdYr7uTR4IPsq/HZH6YVEzKSEdUTEXQTcb3wGu9NV+fmtKYJf1X
jw4Wf6xdyIXTJCeVH30+HA3YlnQItIzkEfhC75Enee60sgPt+XOb4Ib90XY4akIK
8wgzOQViKbHOvtz2jIN7d57Hjp0gdtjqUhQjA6hs4WRcxEsJ3rlMpaLH/kU/s9JG
G/RPzXpt
-----END CERTIFICATE-----
