Certificate:
    Data:
        Version: 3 (0x2)
        Serial Number:
            3c:cb:fb:30:6a:43:63:80:cb:8a:91:20:df:86:df:d9:df:c5:35:d0
        Signature Algorithm: sha256WithRSAEncryption
        Issuer: C = US, ST = California, L = Mountain View, O = Test CA, CN = 127.0.0.1
        Validity
            Not Before: Oct  3 17:20:09 2022 GMT
            Not After : Sep 30 17:20:09 2032 GMT
        Subject: C = US, ST = California, L = Mountain View, O = Test CA, CN = 127.0.0.1
        Subject Public Key Info:
            Public Key Algorithm: rsaEncryption
                Public-Key: (2048 bit)
                Modulus:
                    00:c3:d7:35:26:24:ab:bd:83:85:71:3e:dc:9e:41:
                    a6:d4:bf:b9:20:c6:ca:37:f5:0e:dc:4a:23:f3:74:
                    24:c9:7a:e2:68:0c:13:2d:11:95:cd:f9:77:61:39:
                    db:42:c8:2c:b0:b3:eb:64:09:5c:a4:66:58:08:99:
                    85:3c:45:a7:75:f3:08:87:90:78:bc:09:e9:29:62:
                    54:da:15:57:4f:50:f1:6e:14:9e:f3:58:1e:d1:be:
                    4e:a2:6f:0a:fa:1c:f5:7b:5f:05:28:74:69:6e:2a:
                    10:fb:9b:aa:e2:30:fa:62:9a:ec:e1:28:ce:d8:38:
                    79:99:f6:86:09:44:e4:4f:f4:39:26:04:b5:3d:4a:
                    e4:d0:58:71:e7:24:c7:94:7d:84:68:d8:48:b3:6f:
                    e6:99:41:e4:d7:b3:9a:d2:41:f6:14:5f:46:33:58:
                    cb:d4:ce:2c:46:17:2a:9e:17:9c:e4:c1:bd:57:33:
                    5a:7c:b5:31:09:59:8c:a2:de:5b:ee:9d:1b:6a:b8:
                    ab:c0:b4:90:65:f9:2d:de:9e:d5:34:37:16:2f:84:
                    c7:23:1e:46:0b:66:d4:7a:73:80:bc:6c:f8:20:7b:
                    c3:6e:25:fb:27:4b:1f:82:3f:68:c6:fd:9f:a7:88:
                    be:3e:4a:e6:53:02:04:b6:dd:5c:3c:75:b2:5b:de:
                    7f:f3
                Exponent: 65537 (0x10001)
        X509v3 extensions:
            X509v3 Basic Constraints: critical
                CA:TRUE
            X509v3 Subject Alternative Name: 
                DNS:www.example.com
            X509v3 Subject Key Identifier: 
                BF:A7:72:AF:07:02:68:D6:D1:00:15:E6:D3:03:9A:0E:91:38:27:2F
    Signature Algorithm: sha256WithRSAEncryption
    Signature Value:
        24:e4:5a:62:e3:13:50:78:d2:ff:c2:27:51:47:99:62:ac:93:
        43:b1:51:6f:e5:b6:49:86:50:88:9c:88:8e:a5:00:a9:48:39:
        b7:c5:99:41:96:83:66:1a:40:6e:06:90:48:33:9a:74:fe:d4:
        be:29:7e:d9:4d:e3:58:0e:17:47:1b:35:14:12:a9:09:ca:07:
        38:74:fd:59:e4:7a:b7:d8:70:91:6b:02:c9:01:97:77:59:ac:
        27:b5:7c:38:6c:59:83:2e:15:eb:25:27:b7:63:28:39:c8:9a:
        14:5a:4a:c9:35:b4:dd:1c:d8:a1:2d:89:12:94:ad:c2:11:70:
        2e:cb:3f:3d:c0:ad:66:f1:da:8f:d8:db:98:02:6f:e0:46:c6:
        c1:cb:f3:86:ed:6f:7a:b6:6d:86:7e:12:8b:74:a5:06:87:3d:
        d8:c4:08:9d:1b:e9:55:5c:49:80:33:b5:36:ec:3e:87:7b:4e:
        63:45:a0:28:c7:c8:ce:41:22:2b:d3:f9:3a:a5:20:ff:24:d6:
        19:41:a6:ee:20:40:12:ad:c9:e0:be:56:0a:b7:8f:60:db:47:
        80:50:46:f6:cf:d9:39:73:1a:25:e1:4a:62:2f:f5:5b:89:75:
        85:f6:ea:8a:18:59:8a:9d:1b:cf:5c:d4:9c:f2:9c:cd:1b:d0:
        e9:d8:62:5f
-----BEGIN CERTIFICATE-----
MIIDnDCCAoSgAwIBAgIUPMv7MGpDY4DLipEg34bf2d/FNdAwDQYJKoZIhvcNAQEL
BQAwYDELMAkGA1UEBhMCVVMxEzARBgNVBAgMCkNhbGlmb3JuaWExFjAUBgNVBAcM
DU1vdW50YWluIFZpZXcxEDAOBgNVBAoMB1Rlc3QgQ0ExEjAQBgNVBAMMCTEyNy4w
LjAuMTAeFw0yMjEwMDMxNzIwMDlaFw0zMjA5MzAxNzIwMDlaMGAxCzAJBgNVBAYT
AlVTMRMwEQYDVQQIDApDYWxpZm9ybmlhMRYwFAYDVQQHDA1Nb3VudGFpbiBWaWV3
MRAwDgYDVQQKDAdUZXN0IENBMRIwEAYDVQQDDAkxMjcuMC4wLjEwggEiMA0GCSqG
SIb3DQEBAQUAA4IBDwAwggEKAoIBAQDD1zUmJKu9g4VxPtyeQabUv7kgxso39Q7c
SiPzdCTJeuJoDBMtEZXN+XdhOdtCyCyws+tkCVykZlgImYU8Rad18wiHkHi8Cekp
YlTaFVdPUPFuFJ7zWB7Rvk6ibwr6HPV7XwUodGluKhD7m6riMPpimuzhKM7YOHmZ
9oYJRORP9DkmBLU9SuTQWHHnJMeUfYRo2Eizb+aZQeTXs5rSQfYUX0YzWMvUzixG
FyqeF5zkwb1XM1p8tTEJWYyi3lvunRtquKvAtJBl+S3entU0NxYvhMcjHkYLZtR6
c4C8bPgge8NuJfsnSx+CP2jG/Z+niL4+SuZTAgS23Vw8dbJb3n/zAgMBAAGjTjBM
MA8GA1UdEwEB/wQFMAMBAf8wGgYDVR0RBBMwEYIPd3d3LmV4YW1wbGUuY29tMB0G
A1UdDgQWBBS/p3KvBwJo1tEAFebTA5oOkTgnLzANBgkqhkiG9w0BAQsFAAOCAQEA
JORaYuMTUHjS/8InUUeZYqyTQ7FRb+W2SYZQiJyIjqUAqUg5t8WZQZaDZhpAbgaQ
SDOadP7Uvil+2U3jWA4XRxs1FBKpCcoHOHT9WeR6t9hwkWsCyQGXd1msJ7V8OGxZ
gy4V6yUnt2MoOciaFFpKyTW03RzYoS2JEpStwhFwLss/PcCtZvHaj9jbmAJv4EbG
wcvzhu1verZthn4Si3SlBoc92MQInRvpVVxJgDO1Nuw+h3tOY0WgKMfIzkEiK9P5
OqUg/yTWGUGm7iBAEq3J4L5WCrePYNtHgFBG9s/ZOXMaJeFKYi/1W4l1hfbqihhZ
ip0bz1zUnPKczRvQ6dhiXw==
-----END CERTIFICATE-----
