Certificate:
    Data:
        Version: 3 (0x2)
        Serial Number:
            27:e4:4c:b5:76:35:23:a5:16:ed:76:90:53:b3:46:64:62:59:73:e9
        Signature Algorithm: sha256WithRSAEncryption
        Issuer: C = US, ST = California, L = Mountain View, O = Test CA, CN = 127.0.0.1
        Validity
            Not Before: Dec  1 15:42:08 2021 GMT
            Not After : Nov 29 15:42:08 2031 GMT
        Subject: C = US, ST = California, L = Mountain View, O = Test CA, CN = 127.0.0.1
        Subject Public Key Info:
            Public Key Algorithm: rsaEncryption
                RSA Public-Key: (2048 bit)
                Modulus:
                    00:a6:90:88:08:48:22:2f:71:31:48:a6:dc:76:bf:
                    33:41:89:f4:fb:14:4e:55:da:33:a8:8a:87:a5:af:
                    56:49:97:f6:8d:5b:f8:c9:a8:c7:46:08:80:e3:dc:
                    48:fd:13:5d:b8:1d:56:32:ba:f0:f2:69:1b:56:04:
                    88:b0:13:68:68:8b:2c:fc:55:14:9d:c4:d4:8d:f3:
                    7d:4d:b0:40:89:d1:2f:2f:1e:19:b8:f8:c2:a5:54:
                    bf:1a:26:e6:42:dc:ef:de:ce:dc:6d:15:47:e4:db:
                    5c:6e:76:c1:54:70:f7:b6:1f:eb:a7:10:9e:49:8a:
                    aa:62:e2:e3:26:01:c8:5a:fe:f8:b8:f8:d6:13:a1:
                    26:70:22:9f:3c:dd:ea:a0:e5:06:36:0d:7b:53:c4:
                    73:78:d8:6a:06:eb:81:fc:15:d1:42:19:17:4d:03:
                    4a:f8:b7:74:91:c9:3a:73:6f:1a:51:58:3c:c7:8a:
                    ae:0e:b0:bc:c8:77:d0:4f:66:86:78:33:20:de:6a:
                    b5:f2:d4:44:67:92:fe:d0:51:8f:08:9d:ac:12:e6:
                    4c:46:52:22:88:d9:33:ed:2d:60:fe:18:91:77:df:
                    3b:d0:c8:d7:78:ab:54:af:d9:48:a9:4b:0e:90:cf:
                    ee:41:b0:1e:51:64:ee:11:8a:1a:bc:2d:07:b5:d6:
                    8e:8f
                Exponent: 65537 (0x10001)
        X509v3 extensions:
            X509v3 Basic Constraints: critical
                CA:TRUE
            X509v3 Subject Alternative Name: 
                DNS:www.example.com
    Signature Algorithm: sha256WithRSAEncryption
         a5:cb:13:11:1e:37:f4:49:05:53:95:78:cf:67:0f:11:5e:b9:
         29:52:3c:fa:94:17:f6:df:4a:0b:52:73:cc:72:0e:f5:6f:17:
         55:80:76:06:eb:a4:74:d1:98:d3:12:ba:40:25:a6:70:76:69:
         c7:a3:29:8a:1f:06:41:36:6d:0b:a2:cc:4d:3c:3e:5e:3e:41:
         24:60:d5:e2:39:27:5d:53:53:98:a7:2c:ae:49:a3:2a:dc:1f:
         30:a6:79:73:d6:11:96:c1:8b:8e:a0:21:87:5f:d4:26:67:a3:
         90:90:8f:17:ca:7c:30:ef:8c:eb:54:a5:ca:19:96:3f:51:cc:
         6a:df:20:b5:98:bf:cf:32:fd:de:7f:3c:af:8f:69:be:6a:49:
         ea:b7:1e:9d:b1:bb:62:59:3f:58:f7:70:bf:7b:48:a5:3d:04:
         8b:9a:34:62:a5:92:fc:7e:2d:5b:4b:61:1e:6e:05:78:03:33:
         a2:00:95:14:ba:d8:ac:01:b2:85:68:09:34:10:06:fb:5e:24:
         97:da:27:9f:1b:45:c1:f6:1a:78:a5:18:75:d4:df:cc:e7:4d:
         79:03:d5:8f:a7:dd:f3:f2:09:29:4a:66:03:dd:5a:02:6c:b3:
         32:ce:43:24:93:e2:34:a0:c5:9f:34:64:bc:4f:57:87:78:bb:
         0e:47:09:5b
-----BEGIN CERTIFICATE-----
MIIDfTCCAmWgAwIBAgIUJ+RMtXY1I6UW7XaQU7NGZGJZc+kwDQYJKoZIhvcNAQEL
BQAwYDELMAkGA1UEBhMCVVMxEzARBgNVBAgMCkNhbGlmb3JuaWExFjAUBgNVBAcM
DU1vdW50YWluIFZpZXcxEDAOBgNVBAoMB1Rlc3QgQ0ExEjAQBgNVBAMMCTEyNy4w
LjAuMTAeFw0yMTEyMDExNTQyMDhaFw0zMTExMjkxNTQyMDhaMGAxCzAJBgNVBAYT
AlVTMRMwEQYDVQQIDApDYWxpZm9ybmlhMRYwFAYDVQQHDA1Nb3VudGFpbiBWaWV3
MRAwDgYDVQQKDAdUZXN0IENBMRIwEAYDVQQDDAkxMjcuMC4wLjEwggEiMA0GCSqG
SIb3DQEBAQUAA4IBDwAwggEKAoIBAQCmkIgISCIvcTFIptx2vzNBifT7FE5V2jOo
ioelr1ZJl/aNW/jJqMdGCIDj3Ej9E124HVYyuvDyaRtWBIiwE2hoiyz8VRSdxNSN
831NsECJ0S8vHhm4+MKlVL8aJuZC3O/eztxtFUfk21xudsFUcPe2H+unEJ5Jiqpi
4uMmAcha/vi4+NYToSZwIp883eqg5QY2DXtTxHN42GoG64H8FdFCGRdNA0r4t3SR
yTpzbxpRWDzHiq4OsLzId9BPZoZ4MyDearXy1ERnkv7QUY8InawS5kxGUiKI2TPt
LWD+GJF33zvQyNd4q1Sv2UipSw6Qz+5BsB5RZO4Rihq8LQe11o6PAgMBAAGjLzAt
MA8GA1UdEwEB/wQFMAMBAf8wGgYDVR0RBBMwEYIPd3d3LmV4YW1wbGUuY29tMA0G
CSqGSIb3DQEBCwUAA4IBAQClyxMRHjf0SQVTlXjPZw8RXrkpUjz6lBf230oLUnPM
cg71bxdVgHYG66R00ZjTErpAJaZwdmnHoymKHwZBNm0LosxNPD5ePkEkYNXiOSdd
U1OYpyyuSaMq3B8wpnlz1hGWwYuOoCGHX9QmZ6OQkI8Xynww74zrVKXKGZY/Ucxq
3yC1mL/PMv3efzyvj2m+aknqtx6dsbtiWT9Y93C/e0ilPQSLmjRipZL8fi1bS2Ee
bgV4AzOiAJUUutisAbKFaAk0EAb7XiSX2iefG0XB9hp4pRh11N/M5015A9WPp93z
8gkpSmYD3VoCbLMyzkMkk+I0oMWfNGS8T1eHeLsORwlb
-----END CERTIFICATE-----
