Certificate:
    Data:
        Version: 3 (0x2)
        Serial Number:
            77:a7:6b:ca:f7:5d:1d:19:ec:69:60:47:ff:28:e3:58:8c:df:cc:5d
        Signature Algorithm: sha256WithRSAEncryption
        Issuer: C = US, ST = California, L = Mountain View, O = Test CA, CN = 127.0.0.1
        Validity
            Not Before: Oct 30 18:43:15 2023 GMT
            Not After : Oct 27 18:43:15 2033 GMT
        Subject: C = US, ST = California, L = Mountain View, O = Test CA, CN = 127.0.0.1
        Subject Public Key Info:
            Public Key Algorithm: rsaEncryption
                Public-Key: (2048 bit)
                Modulus:
                    00:ba:cc:97:ef:b3:c5:6b:6b:5a:b8:62:f6:88:e0:
                    07:0a:38:93:97:8c:84:17:c7:c1:12:73:6b:c1:9d:
                    8d:63:97:a3:fa:15:cb:0d:d7:f3:70:ca:3b:4d:1a:
                    08:00:07:c5:bf:58:cf:ac:30:1a:8a:62:b7:0c:c9:
                    19:2b:e8:04:26:d8:a2:ab:f0:d9:56:8e:9f:d1:1b:
                    e2:48:a7:d6:2d:91:3c:3a:7a:9e:2a:11:8a:90:69:
                    a2:47:1b:81:fa:42:9f:65:80:d0:8e:c0:64:0d:ec:
                    fe:50:64:68:fe:6b:b1:e0:a1:8a:46:a5:87:b2:3b:
                    83:79:8f:ec:d9:b9:dc:40:e4:ac:6a:1a:cf:17:dd:
                    70:f9:d8:51:68:4c:f2:78:c1:d5:0f:6a:53:0d:4b:
                    12:31:c3:c7:32:3b:e1:e8:7a:d0:9b:77:40:0f:40:
                    0f:30:84:2d:d5:f6:e5:cd:3d:bb:6a:9d:ed:b4:8e:
                    1e:72:73:47:1a:fc:fe:13:2a:a2:f9:b0:9f:15:f4:
                    83:c5:db:4e:d4:41:8d:f6:3f:da:76:5e:d1:cf:77:
                    10:dc:a7:4a:17:e3:d4:f0:4a:3e:6a:95:3c:74:55:
                    fd:32:5a:88:e2:48:16:d1:13:3e:48:c9:12:9e:2e:
                    46:4e:97:dd:2f:5d:f1:4b:44:87:4d:4b:a9:db:63:
                    1a:97
                Exponent: 65537 (0x10001)
        X509v3 extensions:
            X509v3 Basic Constraints: critical
                CA:TRUE
            X509v3 Subject Alternative Name: 
                DNS:www.example.com
            X509v3 Subject Key Identifier: 
                E0:46:AF:39:B9:77:86:E5:A1:70:1C:D4:99:8D:C4:35:A9:52:7D:F2
    Signature Algorithm: sha256WithRSAEncryption
    Signature Value:
        b5:5c:80:37:00:28:86:d3:87:08:73:e3:ec:8e:7d:ce:c2:67:
        02:1e:8a:f6:7a:f8:71:66:df:dd:d3:b5:d0:46:67:b5:1a:3c:
        bf:b2:0d:94:61:46:58:92:cd:51:4b:af:20:d5:54:97:8e:b6:
        20:67:76:b9:fe:f7:ed:8d:aa:c1:d5:ab:1d:f7:be:0f:85:9a:
        67:ad:0d:ad:50:fd:4d:8d:ae:43:0d:6a:8e:38:6c:84:3c:a2:
        c3:61:36:6c:ba:05:42:98:70:99:43:d1:e1:23:9e:b9:d4:d3:
        cc:b6:6c:4e:f1:bd:f5:e3:1c:63:26:46:b3:4c:91:22:7c:3a:
        5f:de:72:ed:61:67:2e:fc:d8:90:2a:d2:77:b1:d3:0a:45:ea:
        2c:76:1a:cf:5f:1d:59:d0:cd:f1:98:08:a9:fb:4a:94:18:b6:
        c5:38:ce:fc:d5:94:bb:66:e6:39:5b:e0:d5:a7:3f:8a:96:ba:
        1f:f9:fa:fe:0b:2f:57:3d:59:24:6b:fc:2a:f3:0f:1c:f0:fc:
        1f:ca:ba:40:d3:1d:2e:48:e8:1f:8c:f4:86:fe:a5:48:33:cb:
        88:42:32:07:c5:aa:1e:be:a5:be:ff:c6:dc:d8:f5:d6:47:75:
        de:11:35:a0:ea:cc:9e:d4:27:0d:3c:02:2d:09:e5:3c:a1:6a:
        a2:61:3e:fb
-----BEGIN CERTIFICATE-----
MIIDnDCCAoSgAwIBAgIUd6dryvddHRnsaWBH/yjjWIzfzF0wDQYJKoZIhvcNAQEL
BQAwYDELMAkGA1UEBhMCVVMxEzARBgNVBAgMCkNhbGlmb3JuaWExFjAUBgNVBAcM
DU1vdW50YWluIFZpZXcxEDAOBgNVBAoMB1Rlc3QgQ0ExEjAQBgNVBAMMCTEyNy4w
LjAuMTAeFw0yMzEwMzAxODQzMTVaFw0zMzEwMjcxODQzMTVaMGAxCzAJBgNVBAYT
AlVTMRMwEQYDVQQIDApDYWxpZm9ybmlhMRYwFAYDVQQHDA1Nb3VudGFpbiBWaWV3
MRAwDgYDVQQKDAdUZXN0IENBMRIwEAYDVQQDDAkxMjcuMC4wLjEwggEiMA0GCSqG
SIb3DQEBAQUAA4IBDwAwggEKAoIBAQC6zJfvs8Vra1q4YvaI4AcKOJOXjIQXx8ES
c2vBnY1jl6P6FcsN1/NwyjtNGggAB8W/WM+sMBqKYrcMyRkr6AQm2KKr8NlWjp/R
G+JIp9YtkTw6ep4qEYqQaaJHG4H6Qp9lgNCOwGQN7P5QZGj+a7HgoYpGpYeyO4N5
j+zZudxA5KxqGs8X3XD52FFoTPJ4wdUPalMNSxIxw8cyO+HoetCbd0APQA8whC3V
9uXNPbtqne20jh5yc0ca/P4TKqL5sJ8V9IPF207UQY32P9p2XtHPdxDcp0oX49Tw
Sj5qlTx0Vf0yWojiSBbREz5IyRKeLkZOl90vXfFLRIdNS6nbYxqXAgMBAAGjTjBM
MA8GA1UdEwEB/wQFMAMBAf8wGgYDVR0RBBMwEYIPd3d3LmV4YW1wbGUuY29tMB0G
A1UdDgQWBBTgRq85uXeG5aFwHNSZjcQ1qVJ98jANBgkqhkiG9w0BAQsFAAOCAQEA
tVyANwAohtOHCHPj7I59zsJnAh6K9nr4cWbf3dO10EZntRo8v7INlGFGWJLNUUuv
INVUl462IGd2uf737Y2qwdWrHfe+D4WaZ60NrVD9TY2uQw1qjjhshDyiw2E2bLoF
QphwmUPR4SOeudTTzLZsTvG99eMcYyZGs0yRInw6X95y7WFnLvzYkCrSd7HTCkXq
LHYaz18dWdDN8ZgIqftKlBi2xTjO/NWUu2bmOVvg1ac/ipa6H/n6/gsvVz1ZJGv8
KvMPHPD8H8q6QNMdLkjoH4z0hv6lSDPLiEIyB8WqHr6lvv/G3Nj11kd13hE1oOrM
ntQnDTwCLQnlPKFqomE++w==
-----END CERTIFICATE-----
