Certificate:
    Data:
        Version: 3 (0x2)
        Serial Number:
            1a:3e:ff:08:8f:68:f4:e8:be:f8:a2:78:86:91:fa:b1:0b:a3:8c:1f
        Signature Algorithm: sha256WithRSAEncryption
        Issuer: C = US, ST = California, L = Mountain View, O = Test CA, CN = 127.0.0.1
        Validity
            Not Before: Oct  3 17:20:09 2022 GMT
            Not After : Sep 30 17:20:09 2032 GMT
        Subject: C = US, ST = California, L = Mountain View, O = Test CA, CN = 127.0.0.1
        Subject Public Key Info:
            Public Key Algorithm: rsaEncryption
                Public-Key: (2048 bit)
                Modulus:
                    00:e4:41:20:46:ee:74:19:2c:9b:0c:2e:e8:63:1b:
                    40:7a:76:f9:3b:33:9f:bb:61:3b:dc:a1:71:fb:3d:
                    e4:df:7b:2f:0f:17:91:88:3f:9d:33:93:bc:12:29:
                    ab:7e:6f:4b:04:68:3c:33:b4:79:02:d8:3d:df:fb:
                    9a:ee:29:de:24:7f:6d:49:00:76:5d:12:fe:d4:1b:
                    f8:3d:e5:08:e3:ea:22:ef:85:7e:5d:55:e1:e3:7b:
                    a1:84:c8:87:06:7b:08:97:ff:b9:cb:94:b9:c4:34:
                    fb:77:29:df:23:e3:19:96:8f:5f:5d:cd:95:5e:f0:
                    a5:ff:cf:91:b6:4d:a6:8a:f3:7d:7f:f8:22:8c:c9:
                    27:0b:a5:37:37:a2:99:e4:79:ee:6d:73:1d:c9:a8:
                    78:ba:f8:2a:aa:a0:3e:8b:8d:59:87:39:05:f1:eb:
                    48:49:47:28:12:30:28:50:80:2a:67:3b:af:68:88:
                    bd:c0:f1:38:da:4f:d3:7b:15:86:6f:c8:b7:61:5f:
                    c5:af:ca:34:a2:72:b0:59:03:2c:8d:4d:f2:e7:ad:
                    d0:d7:1a:cc:8f:2d:5c:d1:41:ea:21:1a:e9:90:2e:
                    63:99:90:28:1e:86:73:95:7d:7b:d7:eb:e7:af:2a:
                    16:60:38:d7:b0:34:71:65:a6:d3:bd:53:91:99:20:
                    e0:39
                Exponent: 65537 (0x10001)
        X509v3 extensions:
            X509v3 Basic Constraints: critical
                CA:TRUE
            X509v3 Subject Alternative Name: 
                IP Address:127.0.0.2, IP Address:FE80:0:0:0:0:0:0:1, DNS:test.example, email:test@test.example, othername: 1.2.3.4::ignore me, DirName:/CN=127.0.0.3
            X509v3 Subject Key Identifier: 
                67:95:3C:20:E0:D7:34:9E:D5:30:BE:B9:73:91:6F:0D:9B:96:3F:05
    Signature Algorithm: sha256WithRSAEncryption
    Signature Value:
        77:e7:81:56:2c:c2:10:36:0f:45:13:2c:9e:6d:9b:ef:ab:6d:
        50:e9:5f:3e:5f:93:9e:9a:81:24:76:5f:13:d3:b5:87:d5:c5:
        d6:e4:55:3b:c1:18:35:a1:27:aa:91:fc:90:dd:8a:c8:2e:1f:
        1e:17:4b:20:92:6e:fb:13:40:54:02:ea:cb:be:27:cf:c5:c0:
        a7:29:47:74:07:ff:10:a6:98:00:cd:38:19:b4:14:43:3f:ec:
        a1:8b:ff:47:6b:2c:ae:4b:08:d5:a0:9b:95:e3:76:56:1e:05:
        6f:26:3e:00:92:4b:4b:b8:e0:db:71:7a:61:93:72:ed:a2:f6:
        91:13:59:cf:62:d5:03:a2:09:96:ba:27:3c:82:38:dc:2d:8c:
        83:f9:ff:df:19:6b:a5:1a:b2:98:74:48:9f:e2:46:c7:70:3f:
        c9:f0:ef:3b:35:3b:03:bb:f0:a6:84:6c:c1:8b:67:fc:de:c7:
        ce:1d:2c:15:5f:46:4e:0f:b3:78:51:a1:7c:48:08:2b:c1:63:
        e8:95:ba:41:23:96:ef:f2:9c:53:be:ed:97:19:bd:f0:2f:bc:
        d1:16:e8:be:c4:6e:08:8f:a1:3d:95:48:c8:ea:68:4c:82:4b:
        4c:21:da:07:60:d6:b7:6d:09:35:7d:53:83:cf:e6:49:28:00:
        16:12:ed:17
-----BEGIN CERTIFICATE-----
MIID8jCCAtqgAwIBAgIUGj7/CI9o9Oi++KJ4hpH6sQujjB8wDQYJKoZIhvcNAQEL
BQAwYDELMAkGA1UEBhMCVVMxEzARBgNVBAgMCkNhbGlmb3JuaWExFjAUBgNVBAcM
DU1vdW50YWluIFZpZXcxEDAOBgNVBAoMB1Rlc3QgQ0ExEjAQBgNVBAMMCTEyNy4w
LjAuMTAeFw0yMjEwMDMxNzIwMDlaFw0zMjA5MzAxNzIwMDlaMGAxCzAJBgNVBAYT
AlVTMRMwEQYDVQQIDApDYWxpZm9ybmlhMRYwFAYDVQQHDA1Nb3VudGFpbiBWaWV3
MRAwDgYDVQQKDAdUZXN0IENBMRIwEAYDVQQDDAkxMjcuMC4wLjEwggEiMA0GCSqG
SIb3DQEBAQUAA4IBDwAwggEKAoIBAQDkQSBG7nQZLJsMLuhjG0B6dvk7M5+7YTvc
oXH7PeTfey8PF5GIP50zk7wSKat+b0sEaDwztHkC2D3f+5ruKd4kf21JAHZdEv7U
G/g95Qjj6iLvhX5dVeHje6GEyIcGewiX/7nLlLnENPt3Kd8j4xmWj19dzZVe8KX/
z5G2TaaK831/+CKMyScLpTc3opnkee5tcx3JqHi6+CqqoD6LjVmHOQXx60hJRygS
MChQgCpnO69oiL3A8TjaT9N7FYZvyLdhX8WvyjSicrBZAyyNTfLnrdDXGsyPLVzR
QeohGumQLmOZkCgehnOVfXvX6+evKhZgONewNHFlptO9U5GZIOA5AgMBAAGjgaMw
gaAwDwYDVR0TAQH/BAUwAwEB/zBuBgNVHREEZzBlhwR/AAAChxD+gAAAAAAAAAAA
AAAAAAABggx0ZXN0LmV4YW1wbGWBEXRlc3RAdGVzdC5leGFtcGxloBIGAyoDBKAL
DAlpZ25vcmUgbWWkFjAUMRIwEAYDVQQDDAkxMjcuMC4wLjMwHQYDVR0OBBYEFGeV
PCDg1zSe1TC+uXORbw2blj8FMA0GCSqGSIb3DQEBCwUAA4IBAQB354FWLMIQNg9F
EyyebZvvq21Q6V8+X5OemoEkdl8T07WH1cXW5FU7wRg1oSeqkfyQ3YrILh8eF0sg
km77E0BUAurLvifPxcCnKUd0B/8QppgAzTgZtBRDP+yhi/9HayyuSwjVoJuV43ZW
HgVvJj4AkktLuODbcXphk3LtovaRE1nPYtUDogmWuic8gjjcLYyD+f/fGWulGrKY
dEif4kbHcD/J8O87NTsDu/CmhGzBi2f83sfOHSwVX0ZOD7N4UaF8SAgrwWPolbpB
I5bv8pxTvu2XGb3wL7zRFui+xG4Ij6E9lUjI6mhMgktMIdoHYNa3bQk1fVODz+ZJ
KAAWEu0X
-----END CERTIFICATE-----
