Certificate:
    Data:
        Version: 3 (0x2)
        Serial Number:
            2d:4f:74:2d:4f:52:1d:3d:26:d3:80:9d:fc:e5:b3:f8:73:1c:4e:7b
        Signature Algorithm: sha256WithRSAEncryption
        Issuer: C=US, ST=California, L=Mountain View, O=Test CA, CN=127.0.0.1
        Validity
            Not Before: Oct 10 20:46:13 2024 GMT
            Not After : Oct  8 20:46:13 2034 GMT
        Subject: C=US, ST=California, L=Mountain View, O=Test CA, CN=127.0.0.1
        Subject Public Key Info:
            Public Key Algorithm: rsaEncryption
                Public-Key: (2048 bit)
                Modulus:
                    00:92:c3:25:01:1e:fc:af:df:a6:bf:c8:70:4a:2e:
                    1e:d6:87:63:e7:13:4d:b9:8f:2f:83:a7:f1:37:98:
                    c8:d0:2a:d9:f9:e5:5d:44:de:94:ab:fc:22:b9:11:
                    2c:db:11:c4:c8:13:9c:13:60:91:28:49:e5:74:cc:
                    e9:c4:a2:6e:b7:ca:39:05:40:64:ce:7b:08:87:1f:
                    83:ce:7a:36:6b:2e:e3:93:b2:58:7d:a2:8a:59:2e:
                    a1:29:d0:30:3d:91:3e:fa:9f:ea:2c:1b:3e:32:8e:
                    42:e4:49:33:6f:f1:7d:7d:b1:a3:0a:89:ee:3f:c2:
                    be:71:ed:cf:c2:82:fa:9a:76:65:ce:01:79:89:d6:
                    00:00:0f:d2:6f:85:08:85:c1:87:c5:94:b5:a8:9c:
                    82:fa:27:57:74:0e:84:96:47:05:c6:36:eb:85:ee:
                    9d:2f:67:11:79:9e:88:1a:5a:1b:a1:d5:49:2b:3f:
                    44:fd:48:1e:1d:36:28:57:ad:1e:42:3e:6c:ad:e4:
                    b4:3b:ea:ff:7a:e8:22:60:e5:ce:ee:ea:37:35:bc:
                    40:b1:b4:75:47:86:76:a9:fc:c2:f2:c3:42:a9:49:
                    bf:57:df:8d:a3:e3:1f:c9:9a:14:09:af:01:57:d7:
                    4b:85:9b:d9:86:1e:6a:6c:b7:e8:c6:8c:75:70:7c:
                    15:c1
                Exponent: 65537 (0x10001)
        X509v3 extensions:
            X509v3 Basic Constraints: critical
                CA:TRUE
            X509v3 Subject Alternative Name: 
                IP Address:127.0.0.2, IP Address:FE80:0:0:0:0:0:0:1, DNS:test.example, email:test@test.example, othername: 1.2.3.4::ignore me, DirName:/CN=127.0.0.3
            X509v3 Subject Key Identifier: 
                1B:6A:39:01:D2:BD:B1:BF:D6:F8:7F:AB:35:EC:A4:13:8A:A0:90:CA
    Signature Algorithm: sha256WithRSAEncryption
    Signature Value:
        44:73:4a:cd:f0:b3:af:06:ad:87:96:62:0b:77:09:fd:63:e5:
        09:17:a3:ac:3b:be:6c:74:e4:1e:e4:97:f7:16:03:20:d7:86:
        95:af:c6:28:ce:a8:c9:43:5e:0a:97:9e:2d:c8:ff:cc:4d:73:
        dd:d6:e4:f7:fc:31:00:ba:06:fb:f1:0e:99:df:c0:55:a7:2d:
        d7:35:8a:ac:a8:ef:aa:68:99:ed:ea:91:69:b5:a7:b8:b5:d8:
        a6:a4:52:4b:a2:51:00:e3:5a:63:92:e6:12:9c:2d:ea:37:18:
        43:48:a2:99:6b:de:ae:34:3f:f5:ff:76:4d:77:9e:f6:3f:89:
        09:c6:a0:f4:18:ec:df:82:fe:55:62:92:98:b7:ed:24:96:fd:
        d5:e3:8c:2a:e4:07:1f:ba:f1:a1:c7:80:ab:3a:fc:a0:6e:2a:
        11:78:c0:3d:13:a0:30:ae:68:b0:20:40:5d:9b:22:c9:b1:11:
        43:a5:e3:ce:c6:ae:2e:22:7c:d7:a7:47:c7:59:70:b5:d7:70:
        cd:4b:80:12:53:c0:00:7b:9d:8f:98:b4:4f:96:36:0b:c1:e1:
        b0:e4:e0:26:04:73:3b:f3:67:f0:ac:42:21:25:57:3c:ce:56:
        be:5b:25:dd:e0:41:07:5b:50:1e:40:3c:fa:59:72:72:5a:ea:
        4f:29:db:04
-----BEGIN CERTIFICATE-----
MIID8jCCAtqgAwIBAgIULU90LU9SHT0m04Cd/OWz+HMcTnswDQYJKoZIhvcNAQEL
BQAwYDELMAkGA1UEBhMCVVMxEzARBgNVBAgMCkNhbGlmb3JuaWExFjAUBgNVBAcM
DU1vdW50YWluIFZpZXcxEDAOBgNVBAoMB1Rlc3QgQ0ExEjAQBgNVBAMMCTEyNy4w
LjAuMTAeFw0yNDEwMTAyMDQ2MTNaFw0zNDEwMDgyMDQ2MTNaMGAxCzAJBgNVBAYT
AlVTMRMwEQYDVQQIDApDYWxpZm9ybmlhMRYwFAYDVQQHDA1Nb3VudGFpbiBWaWV3
MRAwDgYDVQQKDAdUZXN0IENBMRIwEAYDVQQDDAkxMjcuMC4wLjEwggEiMA0GCSqG
SIb3DQEBAQUAA4IBDwAwggEKAoIBAQCSwyUBHvyv36a/yHBKLh7Wh2PnE025jy+D
p/E3mMjQKtn55V1E3pSr/CK5ESzbEcTIE5wTYJEoSeV0zOnEom63yjkFQGTOewiH
H4POejZrLuOTslh9oopZLqEp0DA9kT76n+osGz4yjkLkSTNv8X19saMKie4/wr5x
7c/CgvqadmXOAXmJ1gAAD9JvhQiFwYfFlLWonIL6J1d0DoSWRwXGNuuF7p0vZxF5
nogaWhuh1UkrP0T9SB4dNihXrR5CPmyt5LQ76v966CJg5c7u6jc1vECxtHVHhnap
/MLyw0KpSb9X342j4x/JmhQJrwFX10uFm9mGHmpst+jGjHVwfBXBAgMBAAGjgaMw
gaAwDwYDVR0TAQH/BAUwAwEB/zBuBgNVHREEZzBlhwR/AAAChxD+gAAAAAAAAAAA
AAAAAAABggx0ZXN0LmV4YW1wbGWBEXRlc3RAdGVzdC5leGFtcGxloBIGAyoDBKAL
DAlpZ25vcmUgbWWkFjAUMRIwEAYDVQQDDAkxMjcuMC4wLjMwHQYDVR0OBBYEFBtq
OQHSvbG/1vh/qzXspBOKoJDKMA0GCSqGSIb3DQEBCwUAA4IBAQBEc0rN8LOvBq2H
lmILdwn9Y+UJF6OsO75sdOQe5Jf3FgMg14aVr8YozqjJQ14Kl54tyP/MTXPd1uT3
/DEAugb78Q6Z38BVpy3XNYqsqO+qaJnt6pFptae4tdimpFJLolEA41pjkuYSnC3q
NxhDSKKZa96uND/1/3ZNd572P4kJxqD0GOzfgv5VYpKYt+0klv3V44wq5AcfuvGh
x4CrOvygbioReMA9E6AwrmiwIEBdmyLJsRFDpePOxq4uInzXp0fHWXC113DNS4AS
U8AAe52PmLRPljYLweGw5OAmBHM782fwrEIhJVc8zla+WyXd4EEHW1AeQDz6WXJy
WupPKdsE
-----END CERTIFICATE-----
