Certificate:
    Data:
        Version: 3 (0x2)
        Serial Number:
            1b:21:2a:da:06:a5:65:8d:7e:7b:21:2b:9c:08:ae:77:df:5d:a7:3c
        Signature Algorithm: sha256WithRSAEncryption
        Issuer: C=US, ST=California, L=Mountain View, O=Test CA, CN=127.0.0.1
        Validity
            Not Before: Oct 10 17:12:19 2025 GMT
            Not After : Oct  8 17:12:19 2035 GMT
        Subject: C=US, ST=California, L=Mountain View, O=Test CA, CN=127.0.0.1
        Subject Public Key Info:
            Public Key Algorithm: rsaEncryption
                Public-Key: (2048 bit)
                Modulus:
                    00:c0:a2:20:d4:91:6b:4f:97:92:fc:5b:b7:e3:6d:
                    bc:9d:aa:92:9b:1d:30:11:6e:3d:9f:f7:ca:86:55:
                    e5:7d:d6:7f:80:ab:1c:bd:cf:2f:57:66:71:36:e8:
                    95:4b:4b:15:43:97:58:30:9a:9f:d5:14:ff:f9:a3:
                    9d:a6:7f:cd:db:bc:97:81:91:cc:60:c4:04:cb:13:
                    a3:9c:d3:41:e5:10:3e:5f:45:08:47:3a:99:da:9a:
                    3d:0e:04:5b:27:45:3c:04:9a:7c:d6:6e:90:48:97:
                    03:2b:42:aa:1a:50:8a:8b:5e:55:49:0c:51:9f:5e:
                    3f:25:6a:11:21:e8:d7:56:fb:3c:6a:02:3f:ba:f4:
                    2a:f8:17:c0:4a:f1:1d:37:9d:84:39:a3:ee:6e:3d:
                    d8:42:da:61:31:70:dd:01:89:90:45:b8:b4:c1:b0:
                    ac:60:15:28:be:1f:86:f7:00:5d:f2:b2:31:93:26:
                    15:67:42:3e:60:bd:61:03:a4:45:58:93:1a:fa:3f:
                    ae:cb:f1:24:a6:ec:02:52:9b:ee:5a:af:6c:e7:0e:
                    ee:e8:a9:52:a8:2d:91:d7:4c:f0:73:64:af:46:a2:
                    61:3b:35:f8:ed:6c:e1:b9:98:2a:15:d1:9c:6a:48:
                    09:b7:9b:67:da:15:50:87:85:04:84:79:c0:fe:eb:
                    96:3d
                Exponent: 65537 (0x10001)
        X509v3 extensions:
            X509v3 Basic Constraints: critical
                CA:TRUE
            X509v3 Subject Alternative Name: 
                IP Address:127.0.0.2, IP Address:FE80:0:0:0:0:0:0:1, DNS:test.example, email:test@test.example, othername: 1.2.3.4:ignore me, DirName:/CN=127.0.0.3
            X509v3 Subject Key Identifier: 
                1C:B4:D9:54:9B:60:E3:BA:29:C4:A2:5E:B5:8D:70:C1:C5:65:A8:91
    Signature Algorithm: sha256WithRSAEncryption
    Signature Value:
        95:2f:6f:21:08:de:75:ac:da:16:97:43:e8:32:3c:d7:71:2a:
        35:37:cf:95:fd:9e:e0:ed:7e:e3:62:d4:5a:79:93:47:c3:9b:
        14:78:4c:e3:bb:40:52:c9:bb:a0:a4:92:a1:ea:f6:1e:9e:a8:
        e5:d7:d4:3a:86:dc:1a:c2:20:82:db:0d:62:b9:15:7d:0a:8d:
        59:85:e7:d5:a4:9f:f9:ba:3b:45:64:2f:2f:b8:b1:3b:0f:e2:
        bb:56:7e:f0:09:07:27:c5:47:fe:40:a4:f1:47:8d:11:b4:47:
        9f:5d:81:aa:20:9f:ca:8c:41:5e:69:05:a1:a1:78:10:c3:5f:
        29:c4:01:a4:ce:6f:99:40:aa:cd:ec:5e:bc:5e:d4:30:b8:23:
        62:8a:74:e0:3d:79:fd:ad:21:ab:20:f5:e1:a9:56:c3:99:d1:
        26:99:2a:16:ba:67:89:f5:ae:29:5f:e5:d7:71:14:72:8c:be:
        8c:49:9e:f2:f7:86:38:cf:c6:99:ae:c9:e7:3c:5c:6a:91:48:
        4d:27:e6:04:86:9d:a5:e0:2e:31:f8:5c:ee:5b:a7:df:5e:de:
        c6:b1:76:8c:b6:d0:3d:ab:94:de:f7:26:15:8a:cd:ba:8a:be:
        71:e7:04:df:70:91:ed:8e:de:c0:51:f7:3b:d9:ce:ef:97:72:
        b2:31:50:d3
-----BEGIN CERTIFICATE-----
MIID8jCCAtqgAwIBAgIUGyEq2galZY1+eyErnAiud99dpzwwDQYJKoZIhvcNAQEL
BQAwYDELMAkGA1UEBhMCVVMxEzARBgNVBAgMCkNhbGlmb3JuaWExFjAUBgNVBAcM
DU1vdW50YWluIFZpZXcxEDAOBgNVBAoMB1Rlc3QgQ0ExEjAQBgNVBAMMCTEyNy4w
LjAuMTAeFw0yNTEwMTAxNzEyMTlaFw0zNTEwMDgxNzEyMTlaMGAxCzAJBgNVBAYT
AlVTMRMwEQYDVQQIDApDYWxpZm9ybmlhMRYwFAYDVQQHDA1Nb3VudGFpbiBWaWV3
MRAwDgYDVQQKDAdUZXN0IENBMRIwEAYDVQQDDAkxMjcuMC4wLjEwggEiMA0GCSqG
SIb3DQEBAQUAA4IBDwAwggEKAoIBAQDAoiDUkWtPl5L8W7fjbbydqpKbHTARbj2f
98qGVeV91n+Aqxy9zy9XZnE26JVLSxVDl1gwmp/VFP/5o52mf83bvJeBkcxgxATL
E6Oc00HlED5fRQhHOpnamj0OBFsnRTwEmnzWbpBIlwMrQqoaUIqLXlVJDFGfXj8l
ahEh6NdW+zxqAj+69Cr4F8BK8R03nYQ5o+5uPdhC2mExcN0BiZBFuLTBsKxgFSi+
H4b3AF3ysjGTJhVnQj5gvWEDpEVYkxr6P67L8SSm7AJSm+5ar2znDu7oqVKoLZHX
TPBzZK9GomE7NfjtbOG5mCoV0ZxqSAm3m2faFVCHhQSEecD+65Y9AgMBAAGjgaMw
gaAwDwYDVR0TAQH/BAUwAwEB/zBuBgNVHREEZzBlhwR/AAAChxD+gAAAAAAAAAAA
AAAAAAABggx0ZXN0LmV4YW1wbGWBEXRlc3RAdGVzdC5leGFtcGxloBIGAyoDBKAL
DAlpZ25vcmUgbWWkFjAUMRIwEAYDVQQDDAkxMjcuMC4wLjMwHQYDVR0OBBYEFBy0
2VSbYOO6KcSiXrWNcMHFZaiRMA0GCSqGSIb3DQEBCwUAA4IBAQCVL28hCN51rNoW
l0PoMjzXcSo1N8+V/Z7g7X7jYtRaeZNHw5sUeEzju0BSybugpJKh6vYenqjl19Q6
htwawiCC2w1iuRV9Co1ZhefVpJ/5ujtFZC8vuLE7D+K7Vn7wCQcnxUf+QKTxR40R
tEefXYGqIJ/KjEFeaQWhoXgQw18pxAGkzm+ZQKrN7F68XtQwuCNiinTgPXn9rSGr
IPXhqVbDmdEmmSoWumeJ9a4pX+XXcRRyjL6MSZ7y94Y4z8aZrsnnPFxqkUhNJ+YE
hp2l4C4x+FzuW6ffXt7GsXaMttA9q5Te9yYVis26ir5x5wTfcJHtjt7AUfc72c7v
l3KyMVDT
-----END CERTIFICATE-----
