Certificate:
    Data:
        Version: 3 (0x2)
        Serial Number:
            38:5b:f5:c0:6c:fa:b0:29:44:07:3c:43:8b:e0:12:b6:31:f0:64:7c
        Signature Algorithm: sha256WithRSAEncryption
        Issuer: C = US, ST = California, L = Mountain View, O = Test CA, CN = 127.0.0.1
        Validity
            Not Before: Dec  1 15:42:07 2021 GMT
            Not After : Nov 29 15:42:07 2031 GMT
        Subject: C = US, ST = California, L = Mountain View, O = Test CA, CN = 127.0.0.1
        Subject Public Key Info:
            Public Key Algorithm: rsaEncryption
                RSA Public-Key: (2048 bit)
                Modulus:
                    00:c2:a3:9d:32:46:83:54:a4:44:e2:7c:16:e1:84:
                    9d:d0:aa:e2:aa:0b:5e:08:82:79:d7:37:19:82:1e:
                    4b:f5:aa:56:fc:a9:b4:38:65:13:5c:ab:e7:b7:f9:
                    c7:35:ee:b6:f5:44:fc:8d:67:dd:c4:69:a6:0b:99:
                    6d:8f:ca:6f:08:2d:13:75:b2:f0:a5:fb:8c:d8:cd:
                    31:da:f0:aa:8a:ac:c3:0b:e9:51:26:87:75:0c:fb:
                    20:13:ac:ba:c3:f1:0a:67:d7:b6:b3:f5:b7:3e:f4:
                    a3:bc:69:98:9b:23:90:db:fd:bd:70:6a:ee:0a:87:
                    51:00:57:15:b5:cd:fc:5f:73:0d:e1:45:87:d9:55:
                    b8:c7:0f:35:f2:7d:af:36:54:2e:dd:71:ad:d2:87:
                    1c:f0:f4:da:45:68:a6:72:84:4b:ab:ad:13:44:b7:
                    ae:a2:20:7a:e9:1a:dc:70:5a:7a:f4:ae:40:0f:59:
                    5e:2a:f9:0c:a8:93:86:18:cf:12:5d:4c:c3:2b:df:
                    10:af:c2:01:ec:94:43:d1:4a:de:ef:ae:1d:94:8d:
                    09:d2:72:33:b6:99:fb:b9:0c:b2:cd:b4:c7:80:80:
                    57:5e:05:f0:f3:0b:ca:c6:cb:86:e4:59:00:97:20:
                    7a:11:ef:25:72:8b:66:51:da:be:03:56:6d:e5:19:
                    9b:c9
                Exponent: 65537 (0x10001)
        X509v3 extensions:
            X509v3 Basic Constraints: critical
                CA:TRUE
            X509v3 Subject Alternative Name: 
                IP Address:127.0.0.2, IP Address:FE80:0:0:0:0:0:0:1, DNS:test.example, email:test@test.example, othername:<unsupported>, DirName:/CN=127.0.0.3
    Signature Algorithm: sha256WithRSAEncryption
         31:a7:8f:d7:dc:92:57:9a:0a:c5:7b:ae:da:0d:8d:1d:0b:b7:
         ab:0a:a0:c6:43:e9:d2:22:00:bc:85:7c:89:21:8f:c2:e7:27:
         46:66:d9:f2:ed:ec:78:e3:83:0f:63:38:39:af:67:07:92:4a:
         97:99:79:68:ca:2c:17:b3:1d:40:e9:2f:74:f6:d0:fd:9b:07:
         5a:b1:14:c5:82:10:91:3e:7f:a7:46:b8:fd:2f:1f:81:c1:81:
         d5:d4:cb:54:45:3a:a3:0b:9b:2d:ee:dd:61:10:b9:a2:a1:09:
         49:57:86:34:4b:b8:2b:45:2d:f7:44:b4:3f:58:09:bc:9c:a5:
         67:41:c1:67:8e:26:85:f3:f9:10:90:8c:12:89:f9:20:0c:52:
         d4:7e:78:44:72:2a:51:f4:f3:37:83:14:7a:75:be:32:9a:10:
         de:cf:4e:e8:23:fb:5b:c2:10:d9:0e:a2:d7:4d:c7:68:b7:13:
         6d:13:f7:33:32:ec:14:73:f5:3a:9b:1d:4c:62:5b:d6:60:e6:
         8f:b1:e5:2b:08:0a:55:32:11:75:a6:d0:00:79:e7:3e:cd:79:
         ed:d1:65:5e:6a:da:27:25:bd:ec:c9:cb:07:75:95:85:85:ef:
         bf:9f:6e:a2:7f:f6:0d:49:cb:ae:1d:68:bb:3d:3a:39:ce:ff:
         ad:4d:26:fa
-----BEGIN CERTIFICATE-----
MIID0zCCArugAwIBAgIUOFv1wGz6sClEBzxDi+AStjHwZHwwDQYJKoZIhvcNAQEL
BQAwYDELMAkGA1UEBhMCVVMxEzARBgNVBAgMCkNhbGlmb3JuaWExFjAUBgNVBAcM
DU1vdW50YWluIFZpZXcxEDAOBgNVBAoMB1Rlc3QgQ0ExEjAQBgNVBAMMCTEyNy4w
LjAuMTAeFw0yMTEyMDExNTQyMDdaFw0zMTExMjkxNTQyMDdaMGAxCzAJBgNVBAYT
AlVTMRMwEQYDVQQIDApDYWxpZm9ybmlhMRYwFAYDVQQHDA1Nb3VudGFpbiBWaWV3
MRAwDgYDVQQKDAdUZXN0IENBMRIwEAYDVQQDDAkxMjcuMC4wLjEwggEiMA0GCSqG
SIb3DQEBAQUAA4IBDwAwggEKAoIBAQDCo50yRoNUpETifBbhhJ3QquKqC14IgnnX
NxmCHkv1qlb8qbQ4ZRNcq+e3+cc17rb1RPyNZ93EaaYLmW2Pym8ILRN1svCl+4zY
zTHa8KqKrMML6VEmh3UM+yATrLrD8Qpn17az9bc+9KO8aZibI5Db/b1wau4Kh1EA
VxW1zfxfcw3hRYfZVbjHDzXyfa82VC7dca3Shxzw9NpFaKZyhEurrRNEt66iIHrp
GtxwWnr0rkAPWV4q+Qyok4YYzxJdTMMr3xCvwgHslEPRSt7vrh2UjQnScjO2mfu5
DLLNtMeAgFdeBfDzC8rGy4bkWQCXIHoR7yVyi2ZR2r4DVm3lGZvJAgMBAAGjgYQw
gYEwDwYDVR0TAQH/BAUwAwEB/zBuBgNVHREEZzBlhwR/AAAChxD+gAAAAAAAAAAA
AAAAAAABggx0ZXN0LmV4YW1wbGWBEXRlc3RAdGVzdC5leGFtcGxloBIGAyoDBKAL
DAlpZ25vcmUgbWWkFjAUMRIwEAYDVQQDDAkxMjcuMC4wLjMwDQYJKoZIhvcNAQEL
BQADggEBADGnj9fckleaCsV7rtoNjR0Lt6sKoMZD6dIiALyFfIkhj8LnJ0Zm2fLt
7Hjjgw9jODmvZweSSpeZeWjKLBezHUDpL3T20P2bB1qxFMWCEJE+f6dGuP0vH4HB
gdXUy1RFOqMLmy3u3WEQuaKhCUlXhjRLuCtFLfdEtD9YCbycpWdBwWeOJoXz+RCQ
jBKJ+SAMUtR+eERyKlH08zeDFHp1vjKaEN7PTugj+1vCENkOotdNx2i3E20T9zMy
7BRz9TqbHUxiW9Zg5o+x5SsIClUyEXWm0AB55z7Nee3RZV5q2iclvezJywd1lYWF
77+fbqJ/9g1Jy64daLs9OjnO/61NJvo=
-----END CERTIFICATE-----
