-----BEGIN PRIVATE KEY-----
MIIEvQIBADANBgkqhkiG9w0BAQEFAASCBKcwggSjAgEAAoIBAQC/YhJcAr1m0ACU
h3Byf5G1zDF+1LurMi7E8SLbzYbBxv5nlPVQC2dEtmqcY2C8xgHaQ52lxWVH8sBJ
YzBpglpaBzt9YlbSvE7qXXWmErE/2Nb0EcRE9c5aJMd69b35l7TeebpO/Txba271
ufRzbmi9EdsjL07f+ZGbzD2h/thmATcRIHvcDaNlmk8gpiRJlZn1KNdNYS5Ma5s8
W9ddGkLFqRt9PbbWkBK7EdYV2g+1Cvdi2GjCtEX194n3Adx+UePAoXAdjGkAIRZS
supd8RcJkpyt+M3WCPhgHAZitf1ati/ngcTIH/xhe53LR4w7zUB6WqSTN4/3sYoU
9aikl9yZAgMBAAECggEADm3JbpByUScLdCdF7gv6I1eyv5owT/bnmceIVkQHjeJ/
2bVcTV2euop6PTIs3+6Zwyfn4dChEyyVHLNSuhGu2CzFam2YmCjEVl0Xep7cKDEj
+6C/SGez2A3/0CBo40FxzHgm+L+U5luSMQqFCJLhaKfI+r0dWDuLo9BhMS5yiDYb
3Wgt6HfTdATZ0xiGGacN9iK1VZk/a0BBjtjonJWOcoTRqakFNpU0rd322Y30t87d
rZVwB/fk5a5OEOqDtYknlrD/cK3j9qLtxfidNgK7FzwdTgGTl5S7rGRpiBKAi/9c
7LqdmKNnYJFpOoAHSbrwx1r2Ep4Si1JtswMXKGVzpQKBgQDdw7BLE2AeF2jx1UUM
vh7ljqG8LOa1hS6Bwa0LF84PoHmWL7sOYiyRazO6u9TsbJeQ6WKbVE2oktK1RsfD
/qq60fNzXbRFJeY55BP5pXP8M9dXl4f6ucQbcEOWEStICP7KbTjPlp6Jq2LKVSb4
hZbiDhpsjFT7eh9H/Xzw16P3RwKBgQDc7bBD0SMIcrQ/gXPJJSDSSSr2A5bdDytx
Fj+I/nZ56mrwXz8M/UCsn11eyH3ypPSk/MvHCZRsSsg0hymJFQg/em+0BeBK/ptq
jk8xc9d1ZyfJaFxUAktuDdb98hqBK8uOF9C9EYm8sw0TTDLTWUA9Cn8LO1zLcSNU
M+1I5ic9HwKBgArwmWTKuuYhH4M2kyZyxpFqfN4MlQEFZeruw/uVHAw3TWg0SJUI
EMzHrhCbLYDQRpXWfY/OE9qqC4z3xekMSh3XN5xMVhVHLllSwA2DtPoPEKN4jTO4
ME1uN1dS14DBONiBlNjgxEdkVgZHNxnxdSUHrxQFxDd3qc1iWuSCrssHAoGBALM9
G45JtHR8KwSC0B9WwgQZXINvcgwy7Hm5JR7N4+0RZGVTwOGW7cufF694VcZwUhMx
DVqTyRj6qucC6Y3PxHtLqCiTw97UJd8TSejDJQCZCkx7ILz/h5boH46zxxEZKPJF
HBLokajIU0levrV9aYKca2n/ZU+goJsF7fMA1sDdAoGAMwYcQQ9XJLIVR3c1+cPm
ZXwod+8SRf8cr9G9YxVg74+DzPoC4D6nLLoMztsIEbqs32BROhFAIPkxUx8t3B+w
BAD+gaC3vgesecqPKWY8a7OhyNYKxSAaMp9EH1ywNX456OabzXIrXi8h0UVeEjmL
lrUqZQ2VvXn8/MApYF+5AJg=
-----END PRIVATE KEY-----
Certificate:
    Data:
        Version: 3 (0x2)
        Serial Number:
            12:f6:d9:f1:80:1b:50:9f:64:09:c8:ea:2f:16:33:a8
        Signature Algorithm: sha256WithRSAEncryption
        Issuer: C=US, ST=California, L=Mountain View, O=Test CA, CN=Test Root CA
        Validity
            Not Before: Dec  1 15:42:07 2021 GMT
            Not After : Dec  1 15:42:07 2023 GMT
        Subject: C=US, ST=California, L=Mountain View, O=Test CA, CN=127.0.0.1
        Subject Public Key Info:
            Public Key Algorithm: rsaEncryption
                RSA Public-Key: (2048 bit)
                Modulus:
                    00:bf:62:12:5c:02:bd:66:d0:00:94:87:70:72:7f:
                    91:b5:cc:31:7e:d4:bb:ab:32:2e:c4:f1:22:db:cd:
                    86:c1:c6:fe:67:94:f5:50:0b:67:44:b6:6a:9c:63:
                    60:bc:c6:01:da:43:9d:a5:c5:65:47:f2:c0:49:63:
                    30:69:82:5a:5a:07:3b:7d:62:56:d2:bc:4e:ea:5d:
                    75:a6:12:b1:3f:d8:d6:f4:11:c4:44:f5:ce:5a:24:
                    c7:7a:f5:bd:f9:97:b4:de:79:ba:4e:fd:3c:5b:6b:
                    6e:f5:b9:f4:73:6e:68:bd:11:db:23:2f:4e:df:f9:
                    91:9b:cc:3d:a1:fe:d8:66:01:37:11:20:7b:dc:0d:
                    a3:65:9a:4f:20:a6:24:49:95:99:f5:28:d7:4d:61:
                    2e:4c:6b:9b:3c:5b:d7:5d:1a:42:c5:a9:1b:7d:3d:
                    b6:d6:90:12:bb:11:d6:15:da:0f:b5:0a:f7:62:d8:
                    68:c2:b4:45:f5:f7:89:f7:01:dc:7e:51:e3:c0:a1:
                    70:1d:8c:69:00:21:16:52:b2:ea:5d:f1:17:09:92:
                    9c:ad:f8:cd:d6:08:f8:60:1c:06:62:b5:fd:5a:b6:
                    2f:e7:81:c4:c8:1f:fc:61:7b:9d:cb:47:8c:3b:cd:
                    40:7a:5a:a4:93:37:8f:f7:b1:8a:14:f5:a8:a4:97:
                    dc:99
                Exponent: 65537 (0x10001)
        X509v3 extensions:
            X509v3 Basic Constraints: critical
                CA:FALSE
            X509v3 Subject Key Identifier: 
                45:0D:FA:A4:6B:B9:A7:1C:93:E8:AE:AF:C4:13:39:12:D4:2F:E0:5D
            X509v3 Authority Key Identifier: 
                keyid:9B:26:0B:8A:98:A9:BB:1D:B9:1F:1C:E3:1A:40:33:ED:8E:17:88:AB

            X509v3 Extended Key Usage: 
                TLS Web Server Authentication, TLS Web Client Authentication
            X509v3 Subject Alternative Name: 
                DNS:a.test, DNS:*.a.test, DNS:b.test, DNS:*.b.test, DNS:c.test, DNS:*.c.test, DNS:d.test, DNS:*.d.test
    Signature Algorithm: sha256WithRSAEncryption
         2d:09:f6:cc:ee:c1:5a:6f:44:e3:67:46:1c:fe:73:37:e1:5b:
         90:62:31:70:73:98:ce:d7:f4:30:07:74:b8:ee:ce:e1:c5:e6:
         fb:b0:78:d0:7d:95:57:4c:91:19:75:b6:45:6c:29:fd:bf:54:
         96:d5:c2:2b:02:16:68:3d:c2:06:55:19:5a:d8:7c:b5:67:8a:
         8c:95:57:9e:63:8f:3d:43:b6:21:65:e3:77:b8:73:3e:47:81:
         c8:47:b5:cc:55:34:a6:dc:f4:f2:1c:c1:1f:af:ec:9d:67:01:
         61:5a:68:99:88:b6:de:98:ec:30:38:27:c1:d8:a3:41:00:c0:
         e1:c9:65:3c:88:e0:24:06:b2:03:f0:05:6e:47:76:3d:a7:06:
         89:28:9f:02:ac:2f:69:7f:14:7d:2b:f2:f9:06:f3:0f:03:f0:
         a6:04:85:d7:14:07:ec:19:d4:3c:95:c3:f2:66:74:45:c7:d0:
         3d:fe:14:ce:9c:52:fc:49:43:f6:70:e9:bb:48:0b:ec:2b:5b:
         10:27:8e:02:f5:b2:76:a5:d3:99:4c:5e:8d:c5:ac:ad:a3:55:
         6e:5e:18:94:7e:fe:4a:93:ca:9a:5b:2f:2b:b8:4a:ef:b4:d5:
         de:f7:a8:19:e7:04:07:d9:8f:9f:39:01:57:74:eb:85:e9:2b:
         57:98:d8:23
-----BEGIN CERTIFICATE-----
MIIEETCCAvmgAwIBAgIQEvbZ8YAbUJ9kCcjqLxYzqDANBgkqhkiG9w0BAQsFADBj
MQswCQYDVQQGEwJVUzETMBEGA1UECAwKQ2FsaWZvcm5pYTEWMBQGA1UEBwwNTW91
bnRhaW4gVmlldzEQMA4GA1UECgwHVGVzdCBDQTEVMBMGA1UEAwwMVGVzdCBSb290
IENBMB4XDTIxMTIwMTE1NDIwN1oXDTIzMTIwMTE1NDIwN1owYDELMAkGA1UEBhMC
VVMxEzARBgNVBAgMCkNhbGlmb3JuaWExFjAUBgNVBAcMDU1vdW50YWluIFZpZXcx
EDAOBgNVBAoMB1Rlc3QgQ0ExEjAQBgNVBAMMCTEyNy4wLjAuMTCCASIwDQYJKoZI
hvcNAQEBBQADggEPADCCAQoCggEBAL9iElwCvWbQAJSHcHJ/kbXMMX7Uu6syLsTx
ItvNhsHG/meU9VALZ0S2apxjYLzGAdpDnaXFZUfywEljMGmCWloHO31iVtK8Tupd
daYSsT/Y1vQRxET1zlokx3r1vfmXtN55uk79PFtrbvW59HNuaL0R2yMvTt/5kZvM
PaH+2GYBNxEge9wNo2WaTyCmJEmVmfUo101hLkxrmzxb110aQsWpG309ttaQErsR
1hXaD7UK92LYaMK0RfX3ifcB3H5R48ChcB2MaQAhFlKy6l3xFwmSnK34zdYI+GAc
BmK1/Vq2L+eBxMgf/GF7nctHjDvNQHpapJM3j/exihT1qKSX3JkCAwEAAaOBwzCB
wDAMBgNVHRMBAf8EAjAAMB0GA1UdDgQWBBRFDfqka7mnHJPorq/EEzkS1C/gXTAf
BgNVHSMEGDAWgBSbJguKmKm7HbkfHOMaQDPtjheIqzAdBgNVHSUEFjAUBggrBgEF
BQcDAQYIKwYBBQUHAwIwUQYDVR0RBEowSIIGYS50ZXN0gggqLmEudGVzdIIGYi50
ZXN0gggqLmIudGVzdIIGYy50ZXN0gggqLmMudGVzdIIGZC50ZXN0gggqLmQudGVz
dDANBgkqhkiG9w0BAQsFAAOCAQEALQn2zO7BWm9E42dGHP5zN+FbkGIxcHOYztf0
MAd0uO7O4cXm+7B40H2VV0yRGXW2RWwp/b9UltXCKwIWaD3CBlUZWth8tWeKjJVX
nmOPPUO2IWXjd7hzPkeByEe1zFU0ptz08hzBH6/snWcBYVpomYi23pjsMDgnwdij
QQDA4cllPIjgJAayA/AFbkd2PacGiSifAqwvaX8UfSvy+QbzDwPwpgSF1xQH7BnU
PJXD8mZ0RcfQPf4UzpxS/ElD9nDpu0gL7CtbECeOAvWydqXTmUxejcWsraNVbl4Y
lH7+SpPKmlsvK7hK77TV3veoGecEB9mPnzkBV3TrhekrV5jYIw==
-----END CERTIFICATE-----
