-----BEGIN PRIVATE KEY-----
MIIEvQIBADANBgkqhkiG9w0BAQEFAASCBKcwggSjAgEAAoIBAQC/YhJcAr1m0ACU
h3Byf5G1zDF+1LurMi7E8SLbzYbBxv5nlPVQC2dEtmqcY2C8xgHaQ52lxWVH8sBJ
YzBpglpaBzt9YlbSvE7qXXWmErE/2Nb0EcRE9c5aJMd69b35l7TeebpO/Txba271
ufRzbmi9EdsjL07f+ZGbzD2h/thmATcRIHvcDaNlmk8gpiRJlZn1KNdNYS5Ma5s8
W9ddGkLFqRt9PbbWkBK7EdYV2g+1Cvdi2GjCtEX194n3Adx+UePAoXAdjGkAIRZS
supd8RcJkpyt+M3WCPhgHAZitf1ati/ngcTIH/xhe53LR4w7zUB6WqSTN4/3sYoU
9aikl9yZAgMBAAECggEADm3JbpByUScLdCdF7gv6I1eyv5owT/bnmceIVkQHjeJ/
2bVcTV2euop6PTIs3+6Zwyfn4dChEyyVHLNSuhGu2CzFam2YmCjEVl0Xep7cKDEj
+6C/SGez2A3/0CBo40FxzHgm+L+U5luSMQqFCJLhaKfI+r0dWDuLo9BhMS5yiDYb
3Wgt6HfTdATZ0xiGGacN9iK1VZk/a0BBjtjonJWOcoTRqakFNpU0rd322Y30t87d
rZVwB/fk5a5OEOqDtYknlrD/cK3j9qLtxfidNgK7FzwdTgGTl5S7rGRpiBKAi/9c
7LqdmKNnYJFpOoAHSbrwx1r2Ep4Si1JtswMXKGVzpQKBgQDdw7BLE2AeF2jx1UUM
vh7ljqG8LOa1hS6Bwa0LF84PoHmWL7sOYiyRazO6u9TsbJeQ6WKbVE2oktK1RsfD
/qq60fNzXbRFJeY55BP5pXP8M9dXl4f6ucQbcEOWEStICP7KbTjPlp6Jq2LKVSb4
hZbiDhpsjFT7eh9H/Xzw16P3RwKBgQDc7bBD0SMIcrQ/gXPJJSDSSSr2A5bdDytx
Fj+I/nZ56mrwXz8M/UCsn11eyH3ypPSk/MvHCZRsSsg0hymJFQg/em+0BeBK/ptq
jk8xc9d1ZyfJaFxUAktuDdb98hqBK8uOF9C9EYm8sw0TTDLTWUA9Cn8LO1zLcSNU
M+1I5ic9HwKBgArwmWTKuuYhH4M2kyZyxpFqfN4MlQEFZeruw/uVHAw3TWg0SJUI
EMzHrhCbLYDQRpXWfY/OE9qqC4z3xekMSh3XN5xMVhVHLllSwA2DtPoPEKN4jTO4
ME1uN1dS14DBONiBlNjgxEdkVgZHNxnxdSUHrxQFxDd3qc1iWuSCrssHAoGBALM9
G45JtHR8KwSC0B9WwgQZXINvcgwy7Hm5JR7N4+0RZGVTwOGW7cufF694VcZwUhMx
DVqTyRj6qucC6Y3PxHtLqCiTw97UJd8TSejDJQCZCkx7ILz/h5boH46zxxEZKPJF
HBLokajIU0levrV9aYKca2n/ZU+goJsF7fMA1sDdAoGAMwYcQQ9XJLIVR3c1+cPm
ZXwod+8SRf8cr9G9YxVg74+DzPoC4D6nLLoMztsIEbqs32BROhFAIPkxUx8t3B+w
BAD+gaC3vgesecqPKWY8a7OhyNYKxSAaMp9EH1ywNX456OabzXIrXi8h0UVeEjmL
lrUqZQ2VvXn8/MApYF+5AJg=
-----END PRIVATE KEY-----
Certificate:
    Data:
        Version: 3 (0x2)
        Serial Number:
            cf:95:70:1c:b6:6c:07:bb:a4:de:63:24:47:3b:4e:c6
        Signature Algorithm: sha256WithRSAEncryption
        Issuer: C=US, ST=California, L=Mountain View, O=Test CA, CN=Test Root CA
        Validity
            Not Before: Oct 30 18:43:14 2023 GMT
            Not After : Oct 29 18:43:14 2025 GMT
        Subject: C=US, ST=California, L=Mountain View, O=Test CA, CN=127.0.0.1
        Subject Public Key Info:
            Public Key Algorithm: rsaEncryption
                Public-Key: (2048 bit)
                Modulus:
                    00:bf:62:12:5c:02:bd:66:d0:00:94:87:70:72:7f:
                    91:b5:cc:31:7e:d4:bb:ab:32:2e:c4:f1:22:db:cd:
                    86:c1:c6:fe:67:94:f5:50:0b:67:44:b6:6a:9c:63:
                    60:bc:c6:01:da:43:9d:a5:c5:65:47:f2:c0:49:63:
                    30:69:82:5a:5a:07:3b:7d:62:56:d2:bc:4e:ea:5d:
                    75:a6:12:b1:3f:d8:d6:f4:11:c4:44:f5:ce:5a:24:
                    c7:7a:f5:bd:f9:97:b4:de:79:ba:4e:fd:3c:5b:6b:
                    6e:f5:b9:f4:73:6e:68:bd:11:db:23:2f:4e:df:f9:
                    91:9b:cc:3d:a1:fe:d8:66:01:37:11:20:7b:dc:0d:
                    a3:65:9a:4f:20:a6:24:49:95:99:f5:28:d7:4d:61:
                    2e:4c:6b:9b:3c:5b:d7:5d:1a:42:c5:a9:1b:7d:3d:
                    b6:d6:90:12:bb:11:d6:15:da:0f:b5:0a:f7:62:d8:
                    68:c2:b4:45:f5:f7:89:f7:01:dc:7e:51:e3:c0:a1:
                    70:1d:8c:69:00:21:16:52:b2:ea:5d:f1:17:09:92:
                    9c:ad:f8:cd:d6:08:f8:60:1c:06:62:b5:fd:5a:b6:
                    2f:e7:81:c4:c8:1f:fc:61:7b:9d:cb:47:8c:3b:cd:
                    40:7a:5a:a4:93:37:8f:f7:b1:8a:14:f5:a8:a4:97:
                    dc:99
                Exponent: 65537 (0x10001)
        X509v3 extensions:
            X509v3 Basic Constraints: critical
                CA:FALSE
            X509v3 Subject Key Identifier: 
                45:0D:FA:A4:6B:B9:A7:1C:93:E8:AE:AF:C4:13:39:12:D4:2F:E0:5D
            X509v3 Authority Key Identifier: 
                9B:26:0B:8A:98:A9:BB:1D:B9:1F:1C:E3:1A:40:33:ED:8E:17:88:AB
            X509v3 Extended Key Usage: 
                TLS Web Server Authentication, TLS Web Client Authentication
            X509v3 Subject Alternative Name: 
                DNS:a.test, DNS:*.a.test, DNS:b.test, DNS:*.b.test, DNS:c.test, DNS:*.c.test, DNS:d.test, DNS:*.d.test
    Signature Algorithm: sha256WithRSAEncryption
    Signature Value:
        98:9f:e1:fe:90:4e:a1:e2:d9:f1:5a:66:22:0b:09:10:0a:31:
        ec:af:af:b6:2c:76:45:54:47:39:77:91:f1:ce:e9:70:d6:90:
        d3:87:e8:a1:33:c6:74:e7:4e:e1:17:de:45:50:95:38:02:55:
        d5:d0:43:d2:bb:5b:be:22:e8:80:cd:4b:3d:fa:66:1e:32:e4:
        08:ac:49:a1:30:ec:6f:e6:e1:9f:2e:a3:29:ee:f8:44:e7:22:
        54:5f:7a:7b:d8:78:ad:b4:3a:ff:9d:fb:55:e2:7a:1f:c8:91:
        f5:10:ea:08:ae:f1:f6:8e:60:cd:0a:15:4d:b6:f6:3e:90:9d:
        4f:13:00:c8:72:d7:d5:80:10:87:f4:37:50:2f:a3:9a:7f:23:
        28:67:1f:d6:62:94:fa:b4:4b:a0:c0:ff:a6:16:f6:d7:ab:c1:
        5e:19:14:75:1a:0c:bf:04:49:6f:e3:76:55:24:7d:ef:74:30:
        1e:ae:1f:33:48:60:e5:16:e7:ab:c0:94:c5:57:b9:90:1e:42:
        6b:47:d6:47:cc:d8:0e:43:58:43:97:b8:04:58:f8:9e:7f:ef:
        8c:f0:e4:b7:59:d0:c7:c7:cd:c9:71:1a:53:4f:00:27:89:2e:
        fd:56:23:75:f4:d0:fb:93:9a:5e:8f:27:6a:50:f5:59:b1:8a:
        1b:5f:d9:b4
-----BEGIN CERTIFICATE-----
MIIEEjCCAvqgAwIBAgIRAM+VcBy2bAe7pN5jJEc7TsYwDQYJKoZIhvcNAQELBQAw
YzELMAkGA1UEBhMCVVMxEzARBgNVBAgMCkNhbGlmb3JuaWExFjAUBgNVBAcMDU1v
dW50YWluIFZpZXcxEDAOBgNVBAoMB1Rlc3QgQ0ExFTATBgNVBAMMDFRlc3QgUm9v
dCBDQTAeFw0yMzEwMzAxODQzMTRaFw0yNTEwMjkxODQzMTRaMGAxCzAJBgNVBAYT
AlVTMRMwEQYDVQQIDApDYWxpZm9ybmlhMRYwFAYDVQQHDA1Nb3VudGFpbiBWaWV3
MRAwDgYDVQQKDAdUZXN0IENBMRIwEAYDVQQDDAkxMjcuMC4wLjEwggEiMA0GCSqG
SIb3DQEBAQUAA4IBDwAwggEKAoIBAQC/YhJcAr1m0ACUh3Byf5G1zDF+1LurMi7E
8SLbzYbBxv5nlPVQC2dEtmqcY2C8xgHaQ52lxWVH8sBJYzBpglpaBzt9YlbSvE7q
XXWmErE/2Nb0EcRE9c5aJMd69b35l7TeebpO/Txba271ufRzbmi9EdsjL07f+ZGb
zD2h/thmATcRIHvcDaNlmk8gpiRJlZn1KNdNYS5Ma5s8W9ddGkLFqRt9PbbWkBK7
EdYV2g+1Cvdi2GjCtEX194n3Adx+UePAoXAdjGkAIRZSsupd8RcJkpyt+M3WCPhg
HAZitf1ati/ngcTIH/xhe53LR4w7zUB6WqSTN4/3sYoU9aikl9yZAgMBAAGjgcMw
gcAwDAYDVR0TAQH/BAIwADAdBgNVHQ4EFgQURQ36pGu5pxyT6K6vxBM5EtQv4F0w
HwYDVR0jBBgwFoAUmyYLipipux25HxzjGkAz7Y4XiKswHQYDVR0lBBYwFAYIKwYB
BQUHAwEGCCsGAQUFBwMCMFEGA1UdEQRKMEiCBmEudGVzdIIIKi5hLnRlc3SCBmIu
dGVzdIIIKi5iLnRlc3SCBmMudGVzdIIIKi5jLnRlc3SCBmQudGVzdIIIKi5kLnRl
c3QwDQYJKoZIhvcNAQELBQADggEBAJif4f6QTqHi2fFaZiILCRAKMeyvr7YsdkVU
Rzl3kfHO6XDWkNOH6KEzxnTnTuEX3kVQlTgCVdXQQ9K7W74i6IDNSz36Zh4y5Ais
SaEw7G/m4Z8uoynu+ETnIlRfenvYeK20Ov+d+1Xieh/IkfUQ6giu8faOYM0KFU22
9j6QnU8TAMhy19WAEIf0N1Avo5p/IyhnH9ZilPq0S6DA/6YW9terwV4ZFHUaDL8E
SW/jdlUkfe90MB6uHzNIYOUW56vAlMVXuZAeQmtH1kfM2A5DWEOXuARY+J5/74zw
5LdZ0MfHzclxGlNPACeJLv1WI3X00PuTml6PJ2pQ9Vmxihtf2bQ=
-----END CERTIFICATE-----
