-----BEGIN PRIVATE KEY-----
MIIEvQIBADANBgkqhkiG9w0BAQEFAASCBKcwggSjAgEAAoIBAQC/YhJcAr1m0ACU
h3Byf5G1zDF+1LurMi7E8SLbzYbBxv5nlPVQC2dEtmqcY2C8xgHaQ52lxWVH8sBJ
YzBpglpaBzt9YlbSvE7qXXWmErE/2Nb0EcRE9c5aJMd69b35l7TeebpO/Txba271
ufRzbmi9EdsjL07f+ZGbzD2h/thmATcRIHvcDaNlmk8gpiRJlZn1KNdNYS5Ma5s8
W9ddGkLFqRt9PbbWkBK7EdYV2g+1Cvdi2GjCtEX194n3Adx+UePAoXAdjGkAIRZS
supd8RcJkpyt+M3WCPhgHAZitf1ati/ngcTIH/xhe53LR4w7zUB6WqSTN4/3sYoU
9aikl9yZAgMBAAECggEADm3JbpByUScLdCdF7gv6I1eyv5owT/bnmceIVkQHjeJ/
2bVcTV2euop6PTIs3+6Zwyfn4dChEyyVHLNSuhGu2CzFam2YmCjEVl0Xep7cKDEj
+6C/SGez2A3/0CBo40FxzHgm+L+U5luSMQqFCJLhaKfI+r0dWDuLo9BhMS5yiDYb
3Wgt6HfTdATZ0xiGGacN9iK1VZk/a0BBjtjonJWOcoTRqakFNpU0rd322Y30t87d
rZVwB/fk5a5OEOqDtYknlrD/cK3j9qLtxfidNgK7FzwdTgGTl5S7rGRpiBKAi/9c
7LqdmKNnYJFpOoAHSbrwx1r2Ep4Si1JtswMXKGVzpQKBgQDdw7BLE2AeF2jx1UUM
vh7ljqG8LOa1hS6Bwa0LF84PoHmWL7sOYiyRazO6u9TsbJeQ6WKbVE2oktK1RsfD
/qq60fNzXbRFJeY55BP5pXP8M9dXl4f6ucQbcEOWEStICP7KbTjPlp6Jq2LKVSb4
hZbiDhpsjFT7eh9H/Xzw16P3RwKBgQDc7bBD0SMIcrQ/gXPJJSDSSSr2A5bdDytx
Fj+I/nZ56mrwXz8M/UCsn11eyH3ypPSk/MvHCZRsSsg0hymJFQg/em+0BeBK/ptq
jk8xc9d1ZyfJaFxUAktuDdb98hqBK8uOF9C9EYm8sw0TTDLTWUA9Cn8LO1zLcSNU
M+1I5ic9HwKBgArwmWTKuuYhH4M2kyZyxpFqfN4MlQEFZeruw/uVHAw3TWg0SJUI
EMzHrhCbLYDQRpXWfY/OE9qqC4z3xekMSh3XN5xMVhVHLllSwA2DtPoPEKN4jTO4
ME1uN1dS14DBONiBlNjgxEdkVgZHNxnxdSUHrxQFxDd3qc1iWuSCrssHAoGBALM9
G45JtHR8KwSC0B9WwgQZXINvcgwy7Hm5JR7N4+0RZGVTwOGW7cufF694VcZwUhMx
DVqTyRj6qucC6Y3PxHtLqCiTw97UJd8TSejDJQCZCkx7ILz/h5boH46zxxEZKPJF
HBLokajIU0levrV9aYKca2n/ZU+goJsF7fMA1sDdAoGAMwYcQQ9XJLIVR3c1+cPm
ZXwod+8SRf8cr9G9YxVg74+DzPoC4D6nLLoMztsIEbqs32BROhFAIPkxUx8t3B+w
BAD+gaC3vgesecqPKWY8a7OhyNYKxSAaMp9EH1ywNX456OabzXIrXi8h0UVeEjmL
lrUqZQ2VvXn8/MApYF+5AJg=
-----END PRIVATE KEY-----
Certificate:
    Data:
        Version: 3 (0x2)
        Serial Number:
            f9:fc:f0:61:a5:95:a9:3e:04:b2:80:d9:e4:4d:dd:1a
        Signature Algorithm: sha256WithRSAEncryption
        Issuer: C=US, ST=California, L=Mountain View, O=Test CA, CN=Test Root CA
        Validity
            Not Before: Oct 10 17:12:19 2025 GMT
            Not After : Oct 10 17:12:19 2027 GMT
        Subject: C=US, ST=California, L=Mountain View, O=Test CA, CN=127.0.0.1
        Subject Public Key Info:
            Public Key Algorithm: rsaEncryption
                Public-Key: (2048 bit)
                Modulus:
                    00:bf:62:12:5c:02:bd:66:d0:00:94:87:70:72:7f:
                    91:b5:cc:31:7e:d4:bb:ab:32:2e:c4:f1:22:db:cd:
                    86:c1:c6:fe:67:94:f5:50:0b:67:44:b6:6a:9c:63:
                    60:bc:c6:01:da:43:9d:a5:c5:65:47:f2:c0:49:63:
                    30:69:82:5a:5a:07:3b:7d:62:56:d2:bc:4e:ea:5d:
                    75:a6:12:b1:3f:d8:d6:f4:11:c4:44:f5:ce:5a:24:
                    c7:7a:f5:bd:f9:97:b4:de:79:ba:4e:fd:3c:5b:6b:
                    6e:f5:b9:f4:73:6e:68:bd:11:db:23:2f:4e:df:f9:
                    91:9b:cc:3d:a1:fe:d8:66:01:37:11:20:7b:dc:0d:
                    a3:65:9a:4f:20:a6:24:49:95:99:f5:28:d7:4d:61:
                    2e:4c:6b:9b:3c:5b:d7:5d:1a:42:c5:a9:1b:7d:3d:
                    b6:d6:90:12:bb:11:d6:15:da:0f:b5:0a:f7:62:d8:
                    68:c2:b4:45:f5:f7:89:f7:01:dc:7e:51:e3:c0:a1:
                    70:1d:8c:69:00:21:16:52:b2:ea:5d:f1:17:09:92:
                    9c:ad:f8:cd:d6:08:f8:60:1c:06:62:b5:fd:5a:b6:
                    2f:e7:81:c4:c8:1f:fc:61:7b:9d:cb:47:8c:3b:cd:
                    40:7a:5a:a4:93:37:8f:f7:b1:8a:14:f5:a8:a4:97:
                    dc:99
                Exponent: 65537 (0x10001)
        X509v3 extensions:
            X509v3 Basic Constraints: critical
                CA:FALSE
            X509v3 Subject Key Identifier: 
                45:0D:FA:A4:6B:B9:A7:1C:93:E8:AE:AF:C4:13:39:12:D4:2F:E0:5D
            X509v3 Authority Key Identifier: 
                9B:26:0B:8A:98:A9:BB:1D:B9:1F:1C:E3:1A:40:33:ED:8E:17:88:AB
            X509v3 Extended Key Usage: 
                TLS Web Server Authentication, TLS Web Client Authentication
            X509v3 Subject Alternative Name: 
                DNS:a.test, DNS:*.a.test, DNS:b.test, DNS:*.b.test, DNS:c.test, DNS:*.c.test, DNS:d.test, DNS:*.d.test
    Signature Algorithm: sha256WithRSAEncryption
    Signature Value:
        79:6d:7c:3d:43:e7:38:2d:96:e8:83:2a:b1:bc:ae:53:37:11:
        dc:da:1a:fd:8b:1f:fa:7d:63:c6:1b:33:42:cd:ec:bd:c7:18:
        d9:b7:1e:d5:8d:1a:83:ce:51:e1:47:80:30:b0:e8:bd:51:33:
        7b:77:0e:43:b2:bc:27:fa:c0:e6:ca:fc:95:28:c4:f0:01:69:
        b0:ad:fc:ed:82:3e:e9:2f:33:12:3a:54:64:9a:96:90:b7:13:
        ee:db:88:64:00:8b:81:08:0b:61:5a:77:26:37:bd:9a:ed:1b:
        b4:fd:0c:8f:96:4b:a8:3c:b8:f1:c6:c6:30:0f:d9:db:03:42:
        41:e8:c4:b4:98:a8:c9:83:45:88:70:ce:3e:85:08:03:42:ac:
        c0:2b:5a:dc:83:0f:bb:9c:e1:82:e9:50:6e:4e:d7:c5:f8:6e:
        96:7e:95:e4:3a:93:72:ac:ba:1e:5c:b6:35:07:43:32:c9:30:
        f7:e8:2b:b8:cf:36:31:6f:58:c0:1f:88:c0:ed:a9:c8:7d:3c:
        7e:29:12:f8:8d:c4:d7:0a:2f:a3:2e:7f:c2:e6:f0:5f:0d:b2:
        f8:62:db:27:dd:6c:c9:c2:03:43:58:1e:c4:e9:8e:f2:bd:2d:
        9d:11:28:36:44:a5:a0:d3:94:c3:e5:77:6f:b6:31:a6:3f:87:
        d2:12:b9:9b
-----BEGIN CERTIFICATE-----
MIIEEjCCAvqgAwIBAgIRAPn88GGllak+BLKA2eRN3RowDQYJKoZIhvcNAQELBQAw
YzELMAkGA1UEBhMCVVMxEzARBgNVBAgMCkNhbGlmb3JuaWExFjAUBgNVBAcMDU1v
dW50YWluIFZpZXcxEDAOBgNVBAoMB1Rlc3QgQ0ExFTATBgNVBAMMDFRlc3QgUm9v
dCBDQTAeFw0yNTEwMTAxNzEyMTlaFw0yNzEwMTAxNzEyMTlaMGAxCzAJBgNVBAYT
AlVTMRMwEQYDVQQIDApDYWxpZm9ybmlhMRYwFAYDVQQHDA1Nb3VudGFpbiBWaWV3
MRAwDgYDVQQKDAdUZXN0IENBMRIwEAYDVQQDDAkxMjcuMC4wLjEwggEiMA0GCSqG
SIb3DQEBAQUAA4IBDwAwggEKAoIBAQC/YhJcAr1m0ACUh3Byf5G1zDF+1LurMi7E
8SLbzYbBxv5nlPVQC2dEtmqcY2C8xgHaQ52lxWVH8sBJYzBpglpaBzt9YlbSvE7q
XXWmErE/2Nb0EcRE9c5aJMd69b35l7TeebpO/Txba271ufRzbmi9EdsjL07f+ZGb
zD2h/thmATcRIHvcDaNlmk8gpiRJlZn1KNdNYS5Ma5s8W9ddGkLFqRt9PbbWkBK7
EdYV2g+1Cvdi2GjCtEX194n3Adx+UePAoXAdjGkAIRZSsupd8RcJkpyt+M3WCPhg
HAZitf1ati/ngcTIH/xhe53LR4w7zUB6WqSTN4/3sYoU9aikl9yZAgMBAAGjgcMw
gcAwDAYDVR0TAQH/BAIwADAdBgNVHQ4EFgQURQ36pGu5pxyT6K6vxBM5EtQv4F0w
HwYDVR0jBBgwFoAUmyYLipipux25HxzjGkAz7Y4XiKswHQYDVR0lBBYwFAYIKwYB
BQUHAwEGCCsGAQUFBwMCMFEGA1UdEQRKMEiCBmEudGVzdIIIKi5hLnRlc3SCBmIu
dGVzdIIIKi5iLnRlc3SCBmMudGVzdIIIKi5jLnRlc3SCBmQudGVzdIIIKi5kLnRl
c3QwDQYJKoZIhvcNAQELBQADggEBAHltfD1D5zgtluiDKrG8rlM3EdzaGv2LH/p9
Y8YbM0LN7L3HGNm3HtWNGoPOUeFHgDCw6L1RM3t3DkOyvCf6wObK/JUoxPABabCt
/O2CPukvMxI6VGSalpC3E+7biGQAi4EIC2FadyY3vZrtG7T9DI+WS6g8uPHGxjAP
2dsDQkHoxLSYqMmDRYhwzj6FCANCrMArWtyDD7uc4YLpUG5O18X4bpZ+leQ6k3Ks
uh5ctjUHQzLJMPfoK7jPNjFvWMAfiMDtqch9PH4pEviNxNcKL6Muf8Lm8F8Nsvhi
2yfdbMnCA0NYHsTpjvK9LZ0RKDZEpaDTlMPld2+2MaY/h9ISuZs=
-----END CERTIFICATE-----
