-----BEGIN PRIVATE KEY-----
MIIEvQIBADANBgkqhkiG9w0BAQEFAASCBKcwggSjAgEAAoIBAQC0qJb6OLzVG3DP
5EHtczqgmUFVcglIs0kjL+tQHR7rmMFCxp6/MHAcubCms7tlMkSW8qUEQsmRJVF3
1jXgV063zgrXMTFbuTHmSnLK/9Ff25wyCOkWCYzhz7N+MIgALsSpLUCnmnfZxckU
u2HZnjBoRmU6Zh2lGbhGjFOr4hNINodwVmwh+BzgBqaf1m2ItXIU3oE9+lfyW0GU
aWDTOUZUCPfvSf/UPpLzrWDNdWGlqNjRWqgupyUwKxTg5ewfUhGNV6Mjrc3uKIJn
n4lwYeXHzTvEujsmzt4tlWZvihZijrXF+rBNIFxRZza8RNw2A7zVpecPWZ+ZSwCD
nrCfLkRtAgMBAAECggEAe3N5OCPtZfMKdAWWx5wmQ/h2HN2AWp2pLNJiCqzbpEMO
TYNMl3mSIw8BF+lZ9R0UodHN0cuR0g2eTjWjO1puAExcPBDxmaxD3QqixvVpLgf0
BHzySozcKLK2BVVEmltbKAA0XlO/8qCld/VUOFFQ4vC32+BMAbZBpnPd+WbTplP2
uj3KE6yU2Gn6z+cv8NhhhYgHBdgLtojsPu/Ezs/uKqsIomvzSIabzaYd7hk+RxY3
a2kfVMt5o4mxhax21hwoZUq5bRRHLzNLJlFjHI6/ALJMn0MfJzt0J2/KeWue36z5
QPW0nGt9DghvARPQtwrCTADSb9lpQoH0CSdLqf6AAQKBgQDfQ6bUcQazMGurrx0e
kUunwtMzxmMs9YOJpasGThFMmt2INP6zF4DePRTAP25wdQH8+quT1Uvws1g6MCa8
Da8hhxphsDD8gA6bMw4p+mE3PxranAZyjd2P1HcgxfJlJBEG+Hjm5Hw2SqgzbW9G
pAShBTMBUPwJFu2ycynbwF7GAQKBgQDPJbWDSXZZSSzvFdh/ZR6BEmyLrEcJ+nAr
IPqDgL0qgMbm0yU4IgYG6Z7fLoAmJOtHwOm8d3oJUtLqsyLmhPO01zXayXlo3ri2
T2LD5aqM+IvjwbfojLe2O0eCnU1JdmXCqWK/4neNgYwWAM1ARDBaVcgOiA+zzNde
R+iYCo/2bQKBgQDNZyonLM0jMhr82qCJrNbTwtQYQB6iEEYx7u7HYC9eMOQ7GbZy
Ad+Xls5uiG0MnTl1CxGrcoLpMbar4fzg6h4DVI6a7UREKXRGqNQRHr8t2qrUENOF
tKrwVmI7DqIRFvtrVFG26uKz+D+DAN1tOhzgHy5ruZwGqMeKc5VBDVykAQKBgBFK
5Zc7J70WZcDjwvoHl/9QaW1TiW6k0H5ZN3CI68HDlFcqoz3HYVdsY03gVORaSqXn
zdtk4fQrTN447B3wVWPwX1ePYCpIBYV6pRUTdCRmj08JGfA45xE4a6TUuuH6F06j
01GPd0mB2g7wLDJEPwEbjiLgaucon4YIXLtsjk4VAoGAeH9+EOKh6zvb/nhQ4X9f
+hldkbHhra9WPxRT8wB8mfOXaNVkJruJ6HDyXDb+bqlSaTgakw+VnAa0dSoyYIVB
wy8PWm+0pNjR3QZ01GbL2GVikr0dE805XwabFWHCMigbWvYxla+Kz5iQ9+bUrMAx
jo90xzuvy7tuwUDzXJU97Uc=
-----END PRIVATE KEY-----
Certificate:
    Data:
        Version: 3 (0x2)
        Serial Number:
            3e:2c:9d:be:b0:42:c8:cf:fc:99:42:d5:4d:41:6a:aa
        Signature Algorithm: sha256WithRSAEncryption
        Issuer: C=US, ST=California, L=Mountain View, O=Test CA, CN=Test Root CA
        Validity
            Not Before: Mar 13 20:46:17 2020 GMT
            Not After : Mar 13 20:46:17 2022 GMT
        Subject: C=US, ST=California, L=Mountain View, O=Test CA, CN=127.0.0.1
        Subject Public Key Info:
            Public Key Algorithm: rsaEncryption
                RSA Public-Key: (2048 bit)
                Modulus:
                    00:b4:a8:96:fa:38:bc:d5:1b:70:cf:e4:41:ed:73:
                    3a:a0:99:41:55:72:09:48:b3:49:23:2f:eb:50:1d:
                    1e:eb:98:c1:42:c6:9e:bf:30:70:1c:b9:b0:a6:b3:
                    bb:65:32:44:96:f2:a5:04:42:c9:91:25:51:77:d6:
                    35:e0:57:4e:b7:ce:0a:d7:31:31:5b:b9:31:e6:4a:
                    72:ca:ff:d1:5f:db:9c:32:08:e9:16:09:8c:e1:cf:
                    b3:7e:30:88:00:2e:c4:a9:2d:40:a7:9a:77:d9:c5:
                    c9:14:bb:61:d9:9e:30:68:46:65:3a:66:1d:a5:19:
                    b8:46:8c:53:ab:e2:13:48:36:87:70:56:6c:21:f8:
                    1c:e0:06:a6:9f:d6:6d:88:b5:72:14:de:81:3d:fa:
                    57:f2:5b:41:94:69:60:d3:39:46:54:08:f7:ef:49:
                    ff:d4:3e:92:f3:ad:60:cd:75:61:a5:a8:d8:d1:5a:
                    a8:2e:a7:25:30:2b:14:e0:e5:ec:1f:52:11:8d:57:
                    a3:23:ad:cd:ee:28:82:67:9f:89:70:61:e5:c7:cd:
                    3b:c4:ba:3b:26:ce:de:2d:95:66:6f:8a:16:62:8e:
                    b5:c5:fa:b0:4d:20:5c:51:67:36:bc:44:dc:36:03:
                    bc:d5:a5:e7:0f:59:9f:99:4b:00:83:9e:b0:9f:2e:
                    44:6d
                Exponent: 65537 (0x10001)
        X509v3 extensions:
            X509v3 Basic Constraints: critical
                CA:FALSE
            X509v3 Subject Key Identifier: 
                4B:85:5B:1B:4D:92:DC:E2:FB:DF:82:21:95:D4:9A:3C:7A:81:D7:EF
            X509v3 Authority Key Identifier: 
                keyid:9B:26:0B:8A:98:A9:BB:1D:B9:1F:1C:E3:1A:40:33:ED:8E:17:88:AB

            X509v3 Extended Key Usage: 
                TLS Web Server Authentication, TLS Web Client Authentication
            X509v3 Subject Alternative Name: 
                DNS:a.test, DNS:*.a.test, DNS:b.test, DNS:*.b.test, DNS:c.test, DNS:*.c.test, DNS:d.test, DNS:*.d.test
    Signature Algorithm: sha256WithRSAEncryption
         33:8f:42:7b:56:29:7a:dd:85:99:3b:24:21:28:80:8b:92:ab:
         bf:9e:4c:d2:23:c6:8d:5a:be:25:8c:b1:ce:ca:4d:ba:a2:a5:
         d8:b4:cd:e5:31:3e:6e:73:40:81:30:bf:7e:8f:c6:45:92:74:
         9d:d6:60:4f:7b:b5:4e:06:d4:ad:5f:e7:64:39:2f:7d:68:da:
         b8:e6:bc:52:fe:31:39:c8:d0:be:d4:3b:27:64:a3:f4:c0:1b:
         63:c8:12:35:97:4f:be:0e:db:ba:0a:ba:8c:c2:32:ac:a8:5b:
         aa:39:4b:1e:62:30:be:8b:f4:02:b7:2a:12:f4:01:76:35:6a:
         c3:00:20:72:a1:c8:a8:f8:c2:96:da:af:91:47:87:31:1f:6b:
         b7:c1:f8:2a:d9:ed:80:c0:fb:16:06:7a:68:69:77:59:f0:97:
         35:23:30:7e:08:db:79:f1:03:6b:ca:b8:24:27:cd:20:6f:31:
         52:90:d3:f5:0e:b0:3a:19:6a:d4:c8:0f:37:ff:64:88:e7:ce:
         b2:f0:c1:7f:a1:9c:f2:97:99:14:a9:db:bc:93:85:de:55:ff:
         8b:1a:a6:e4:cf:7e:f0:0d:b2:f9:ad:ae:09:38:b5:bf:71:a6:
         0e:16:93:d0:0c:ef:2d:db:3d:26:97:79:71:7d:c4:9d:50:59:
         ed:4b:5d:91
-----BEGIN CERTIFICATE-----
MIIEETCCAvmgAwIBAgIQPiydvrBCyM/8mULVTUFqqjANBgkqhkiG9w0BAQsFADBj
MQswCQYDVQQGEwJVUzETMBEGA1UECAwKQ2FsaWZvcm5pYTEWMBQGA1UEBwwNTW91
bnRhaW4gVmlldzEQMA4GA1UECgwHVGVzdCBDQTEVMBMGA1UEAwwMVGVzdCBSb290
IENBMB4XDTIwMDMxMzIwNDYxN1oXDTIyMDMxMzIwNDYxN1owYDELMAkGA1UEBhMC
VVMxEzARBgNVBAgMCkNhbGlmb3JuaWExFjAUBgNVBAcMDU1vdW50YWluIFZpZXcx
EDAOBgNVBAoMB1Rlc3QgQ0ExEjAQBgNVBAMMCTEyNy4wLjAuMTCCASIwDQYJKoZI
hvcNAQEBBQADggEPADCCAQoCggEBALSolvo4vNUbcM/kQe1zOqCZQVVyCUizSSMv
61AdHuuYwULGnr8wcBy5sKazu2UyRJbypQRCyZElUXfWNeBXTrfOCtcxMVu5MeZK
csr/0V/bnDII6RYJjOHPs34wiAAuxKktQKead9nFyRS7YdmeMGhGZTpmHaUZuEaM
U6viE0g2h3BWbCH4HOAGpp/WbYi1chTegT36V/JbQZRpYNM5RlQI9+9J/9Q+kvOt
YM11YaWo2NFaqC6nJTArFODl7B9SEY1XoyOtze4ogmefiXBh5cfNO8S6OybO3i2V
Zm+KFmKOtcX6sE0gXFFnNrxE3DYDvNWl5w9Zn5lLAIOesJ8uRG0CAwEAAaOBwzCB
wDAMBgNVHRMBAf8EAjAAMB0GA1UdDgQWBBRLhVsbTZLc4vvfgiGV1Jo8eoHX7zAf
BgNVHSMEGDAWgBSbJguKmKm7HbkfHOMaQDPtjheIqzAdBgNVHSUEFjAUBggrBgEF
BQcDAQYIKwYBBQUHAwIwUQYDVR0RBEowSIIGYS50ZXN0gggqLmEudGVzdIIGYi50
ZXN0gggqLmIudGVzdIIGYy50ZXN0gggqLmMudGVzdIIGZC50ZXN0gggqLmQudGVz
dDANBgkqhkiG9w0BAQsFAAOCAQEAM49Ce1Ypet2FmTskISiAi5Krv55M0iPGjVq+
JYyxzspNuqKl2LTN5TE+bnNAgTC/fo/GRZJ0ndZgT3u1TgbUrV/nZDkvfWjauOa8
Uv4xOcjQvtQ7J2Sj9MAbY8gSNZdPvg7bugq6jMIyrKhbqjlLHmIwvov0ArcqEvQB
djVqwwAgcqHIqPjCltqvkUeHMR9rt8H4KtntgMD7FgZ6aGl3WfCXNSMwfgjbefED
a8q4JCfNIG8xUpDT9Q6wOhlq1MgPN/9kiOfOsvDBf6Gc8peZFKnbvJOF3lX/ixqm
5M9+8A2y+a2uCTi1v3GmDhaT0AzvLds9Jpd5cX3EnVBZ7UtdkQ==
-----END CERTIFICATE-----
