-----BEGIN PRIVATE KEY-----
MIIEvQIBADANBgkqhkiG9w0BAQEFAASCBKcwggSjAgEAAoIBAQC/YhJcAr1m0ACU
h3Byf5G1zDF+1LurMi7E8SLbzYbBxv5nlPVQC2dEtmqcY2C8xgHaQ52lxWVH8sBJ
YzBpglpaBzt9YlbSvE7qXXWmErE/2Nb0EcRE9c5aJMd69b35l7TeebpO/Txba271
ufRzbmi9EdsjL07f+ZGbzD2h/thmATcRIHvcDaNlmk8gpiRJlZn1KNdNYS5Ma5s8
W9ddGkLFqRt9PbbWkBK7EdYV2g+1Cvdi2GjCtEX194n3Adx+UePAoXAdjGkAIRZS
supd8RcJkpyt+M3WCPhgHAZitf1ati/ngcTIH/xhe53LR4w7zUB6WqSTN4/3sYoU
9aikl9yZAgMBAAECggEADm3JbpByUScLdCdF7gv6I1eyv5owT/bnmceIVkQHjeJ/
2bVcTV2euop6PTIs3+6Zwyfn4dChEyyVHLNSuhGu2CzFam2YmCjEVl0Xep7cKDEj
+6C/SGez2A3/0CBo40FxzHgm+L+U5luSMQqFCJLhaKfI+r0dWDuLo9BhMS5yiDYb
3Wgt6HfTdATZ0xiGGacN9iK1VZk/a0BBjtjonJWOcoTRqakFNpU0rd322Y30t87d
rZVwB/fk5a5OEOqDtYknlrD/cK3j9qLtxfidNgK7FzwdTgGTl5S7rGRpiBKAi/9c
7LqdmKNnYJFpOoAHSbrwx1r2Ep4Si1JtswMXKGVzpQKBgQDdw7BLE2AeF2jx1UUM
vh7ljqG8LOa1hS6Bwa0LF84PoHmWL7sOYiyRazO6u9TsbJeQ6WKbVE2oktK1RsfD
/qq60fNzXbRFJeY55BP5pXP8M9dXl4f6ucQbcEOWEStICP7KbTjPlp6Jq2LKVSb4
hZbiDhpsjFT7eh9H/Xzw16P3RwKBgQDc7bBD0SMIcrQ/gXPJJSDSSSr2A5bdDytx
Fj+I/nZ56mrwXz8M/UCsn11eyH3ypPSk/MvHCZRsSsg0hymJFQg/em+0BeBK/ptq
jk8xc9d1ZyfJaFxUAktuDdb98hqBK8uOF9C9EYm8sw0TTDLTWUA9Cn8LO1zLcSNU
M+1I5ic9HwKBgArwmWTKuuYhH4M2kyZyxpFqfN4MlQEFZeruw/uVHAw3TWg0SJUI
EMzHrhCbLYDQRpXWfY/OE9qqC4z3xekMSh3XN5xMVhVHLllSwA2DtPoPEKN4jTO4
ME1uN1dS14DBONiBlNjgxEdkVgZHNxnxdSUHrxQFxDd3qc1iWuSCrssHAoGBALM9
G45JtHR8KwSC0B9WwgQZXINvcgwy7Hm5JR7N4+0RZGVTwOGW7cufF694VcZwUhMx
DVqTyRj6qucC6Y3PxHtLqCiTw97UJd8TSejDJQCZCkx7ILz/h5boH46zxxEZKPJF
HBLokajIU0levrV9aYKca2n/ZU+goJsF7fMA1sDdAoGAMwYcQQ9XJLIVR3c1+cPm
ZXwod+8SRf8cr9G9YxVg74+DzPoC4D6nLLoMztsIEbqs32BROhFAIPkxUx8t3B+w
BAD+gaC3vgesecqPKWY8a7OhyNYKxSAaMp9EH1ywNX456OabzXIrXi8h0UVeEjmL
lrUqZQ2VvXn8/MApYF+5AJg=
-----END PRIVATE KEY-----
Certificate:
    Data:
        Version: 3 (0x2)
        Serial Number:
            5a:84:70:47:19:f5:1a:b1:2b:02:fc:31:3f:08:cd:35
        Signature Algorithm: sha256WithRSAEncryption
        Issuer: C=US, ST=California, L=Mountain View, O=Test CA, CN=Test Root CA
        Validity
            Not Before: Oct 10 20:46:12 2024 GMT
            Not After : Oct 10 20:46:12 2026 GMT
        Subject: C=US, ST=California, L=Mountain View, O=Test CA, CN=127.0.0.1
        Subject Public Key Info:
            Public Key Algorithm: rsaEncryption
                Public-Key: (2048 bit)
                Modulus:
                    00:bf:62:12:5c:02:bd:66:d0:00:94:87:70:72:7f:
                    91:b5:cc:31:7e:d4:bb:ab:32:2e:c4:f1:22:db:cd:
                    86:c1:c6:fe:67:94:f5:50:0b:67:44:b6:6a:9c:63:
                    60:bc:c6:01:da:43:9d:a5:c5:65:47:f2:c0:49:63:
                    30:69:82:5a:5a:07:3b:7d:62:56:d2:bc:4e:ea:5d:
                    75:a6:12:b1:3f:d8:d6:f4:11:c4:44:f5:ce:5a:24:
                    c7:7a:f5:bd:f9:97:b4:de:79:ba:4e:fd:3c:5b:6b:
                    6e:f5:b9:f4:73:6e:68:bd:11:db:23:2f:4e:df:f9:
                    91:9b:cc:3d:a1:fe:d8:66:01:37:11:20:7b:dc:0d:
                    a3:65:9a:4f:20:a6:24:49:95:99:f5:28:d7:4d:61:
                    2e:4c:6b:9b:3c:5b:d7:5d:1a:42:c5:a9:1b:7d:3d:
                    b6:d6:90:12:bb:11:d6:15:da:0f:b5:0a:f7:62:d8:
                    68:c2:b4:45:f5:f7:89:f7:01:dc:7e:51:e3:c0:a1:
                    70:1d:8c:69:00:21:16:52:b2:ea:5d:f1:17:09:92:
                    9c:ad:f8:cd:d6:08:f8:60:1c:06:62:b5:fd:5a:b6:
                    2f:e7:81:c4:c8:1f:fc:61:7b:9d:cb:47:8c:3b:cd:
                    40:7a:5a:a4:93:37:8f:f7:b1:8a:14:f5:a8:a4:97:
                    dc:99
                Exponent: 65537 (0x10001)
        X509v3 extensions:
            X509v3 Basic Constraints: critical
                CA:FALSE
            X509v3 Subject Key Identifier: 
                45:0D:FA:A4:6B:B9:A7:1C:93:E8:AE:AF:C4:13:39:12:D4:2F:E0:5D
            X509v3 Authority Key Identifier: 
                9B:26:0B:8A:98:A9:BB:1D:B9:1F:1C:E3:1A:40:33:ED:8E:17:88:AB
            X509v3 Extended Key Usage: 
                TLS Web Server Authentication, TLS Web Client Authentication
            X509v3 Subject Alternative Name: 
                DNS:a.test, DNS:*.a.test, DNS:b.test, DNS:*.b.test, DNS:c.test, DNS:*.c.test, DNS:d.test, DNS:*.d.test
    Signature Algorithm: sha256WithRSAEncryption
    Signature Value:
        15:9b:84:00:ce:46:72:61:82:47:e3:47:ad:15:7f:dd:be:98:
        cf:97:90:de:19:1f:0e:c1:a7:f6:68:a5:c9:f5:c0:05:27:98:
        99:40:bf:70:7f:bd:28:28:6b:00:35:ca:f8:ab:75:5e:fc:1a:
        0a:ce:f7:2a:8d:60:06:0c:77:64:ea:ed:20:66:53:70:02:ec:
        ee:89:46:f6:a0:46:d8:a7:47:d0:66:26:c7:88:c0:24:e2:49:
        5a:1f:44:96:19:1c:ab:df:4c:29:ce:5d:c6:78:b7:02:e8:c1:
        69:2d:17:01:27:66:1c:ff:3b:3c:ce:5a:3b:02:1a:e5:2c:f9:
        aa:27:39:fb:c7:9f:04:ef:69:55:02:9c:89:23:62:b6:ba:04:
        93:7d:31:d5:fd:22:a9:5f:0b:d1:b2:f1:a8:09:d1:cc:0e:13:
        2b:88:5a:fc:06:2a:a6:71:be:c9:8c:41:bc:8b:44:65:28:f4:
        cd:e3:21:ad:4a:28:33:60:b9:cf:cb:c7:0b:e9:0a:e4:19:aa:
        7b:97:1a:ce:f6:a0:80:4f:c7:da:05:f2:9f:86:01:d0:93:bb:
        e2:71:9d:12:fb:b3:ec:b7:96:d3:f1:66:a8:28:83:fc:b3:63:
        9c:d8:37:64:4a:87:5b:5b:85:0b:6e:8b:73:56:d3:f9:3b:9a:
        91:85:b9:bb
-----BEGIN CERTIFICATE-----
MIIEETCCAvmgAwIBAgIQWoRwRxn1GrErAvwxPwjNNTANBgkqhkiG9w0BAQsFADBj
MQswCQYDVQQGEwJVUzETMBEGA1UECAwKQ2FsaWZvcm5pYTEWMBQGA1UEBwwNTW91
bnRhaW4gVmlldzEQMA4GA1UECgwHVGVzdCBDQTEVMBMGA1UEAwwMVGVzdCBSb290
IENBMB4XDTI0MTAxMDIwNDYxMloXDTI2MTAxMDIwNDYxMlowYDELMAkGA1UEBhMC
VVMxEzARBgNVBAgMCkNhbGlmb3JuaWExFjAUBgNVBAcMDU1vdW50YWluIFZpZXcx
EDAOBgNVBAoMB1Rlc3QgQ0ExEjAQBgNVBAMMCTEyNy4wLjAuMTCCASIwDQYJKoZI
hvcNAQEBBQADggEPADCCAQoCggEBAL9iElwCvWbQAJSHcHJ/kbXMMX7Uu6syLsTx
ItvNhsHG/meU9VALZ0S2apxjYLzGAdpDnaXFZUfywEljMGmCWloHO31iVtK8Tupd
daYSsT/Y1vQRxET1zlokx3r1vfmXtN55uk79PFtrbvW59HNuaL0R2yMvTt/5kZvM
PaH+2GYBNxEge9wNo2WaTyCmJEmVmfUo101hLkxrmzxb110aQsWpG309ttaQErsR
1hXaD7UK92LYaMK0RfX3ifcB3H5R48ChcB2MaQAhFlKy6l3xFwmSnK34zdYI+GAc
BmK1/Vq2L+eBxMgf/GF7nctHjDvNQHpapJM3j/exihT1qKSX3JkCAwEAAaOBwzCB
wDAMBgNVHRMBAf8EAjAAMB0GA1UdDgQWBBRFDfqka7mnHJPorq/EEzkS1C/gXTAf
BgNVHSMEGDAWgBSbJguKmKm7HbkfHOMaQDPtjheIqzAdBgNVHSUEFjAUBggrBgEF
BQcDAQYIKwYBBQUHAwIwUQYDVR0RBEowSIIGYS50ZXN0gggqLmEudGVzdIIGYi50
ZXN0gggqLmIudGVzdIIGYy50ZXN0gggqLmMudGVzdIIGZC50ZXN0gggqLmQudGVz
dDANBgkqhkiG9w0BAQsFAAOCAQEAFZuEAM5GcmGCR+NHrRV/3b6Yz5eQ3hkfDsGn
9milyfXABSeYmUC/cH+9KChrADXK+Kt1XvwaCs73Ko1gBgx3ZOrtIGZTcALs7olG
9qBG2KdH0GYmx4jAJOJJWh9Elhkcq99MKc5dxni3AujBaS0XASdmHP87PM5aOwIa
5Sz5qic5+8efBO9pVQKciSNitroEk30x1f0iqV8L0bLxqAnRzA4TK4ha/AYqpnG+
yYxBvItEZSj0zeMhrUooM2C5z8vHC+kK5Bmqe5cazvaggE/H2gXyn4YB0JO74nGd
Evuz7LeW0/FmqCiD/LNjnNg3ZEqHW1uFC26Lc1bT+TuakYW5uw==
-----END CERTIFICATE-----
