-----BEGIN PRIVATE KEY-----
MIIEvQIBADANBgkqhkiG9w0BAQEFAASCBKcwggSjAgEAAoIBAQC/YhJcAr1m0ACU
h3Byf5G1zDF+1LurMi7E8SLbzYbBxv5nlPVQC2dEtmqcY2C8xgHaQ52lxWVH8sBJ
YzBpglpaBzt9YlbSvE7qXXWmErE/2Nb0EcRE9c5aJMd69b35l7TeebpO/Txba271
ufRzbmi9EdsjL07f+ZGbzD2h/thmATcRIHvcDaNlmk8gpiRJlZn1KNdNYS5Ma5s8
W9ddGkLFqRt9PbbWkBK7EdYV2g+1Cvdi2GjCtEX194n3Adx+UePAoXAdjGkAIRZS
supd8RcJkpyt+M3WCPhgHAZitf1ati/ngcTIH/xhe53LR4w7zUB6WqSTN4/3sYoU
9aikl9yZAgMBAAECggEADm3JbpByUScLdCdF7gv6I1eyv5owT/bnmceIVkQHjeJ/
2bVcTV2euop6PTIs3+6Zwyfn4dChEyyVHLNSuhGu2CzFam2YmCjEVl0Xep7cKDEj
+6C/SGez2A3/0CBo40FxzHgm+L+U5luSMQqFCJLhaKfI+r0dWDuLo9BhMS5yiDYb
3Wgt6HfTdATZ0xiGGacN9iK1VZk/a0BBjtjonJWOcoTRqakFNpU0rd322Y30t87d
rZVwB/fk5a5OEOqDtYknlrD/cK3j9qLtxfidNgK7FzwdTgGTl5S7rGRpiBKAi/9c
7LqdmKNnYJFpOoAHSbrwx1r2Ep4Si1JtswMXKGVzpQKBgQDdw7BLE2AeF2jx1UUM
vh7ljqG8LOa1hS6Bwa0LF84PoHmWL7sOYiyRazO6u9TsbJeQ6WKbVE2oktK1RsfD
/qq60fNzXbRFJeY55BP5pXP8M9dXl4f6ucQbcEOWEStICP7KbTjPlp6Jq2LKVSb4
hZbiDhpsjFT7eh9H/Xzw16P3RwKBgQDc7bBD0SMIcrQ/gXPJJSDSSSr2A5bdDytx
Fj+I/nZ56mrwXz8M/UCsn11eyH3ypPSk/MvHCZRsSsg0hymJFQg/em+0BeBK/ptq
jk8xc9d1ZyfJaFxUAktuDdb98hqBK8uOF9C9EYm8sw0TTDLTWUA9Cn8LO1zLcSNU
M+1I5ic9HwKBgArwmWTKuuYhH4M2kyZyxpFqfN4MlQEFZeruw/uVHAw3TWg0SJUI
EMzHrhCbLYDQRpXWfY/OE9qqC4z3xekMSh3XN5xMVhVHLllSwA2DtPoPEKN4jTO4
ME1uN1dS14DBONiBlNjgxEdkVgZHNxnxdSUHrxQFxDd3qc1iWuSCrssHAoGBALM9
G45JtHR8KwSC0B9WwgQZXINvcgwy7Hm5JR7N4+0RZGVTwOGW7cufF694VcZwUhMx
DVqTyRj6qucC6Y3PxHtLqCiTw97UJd8TSejDJQCZCkx7ILz/h5boH46zxxEZKPJF
HBLokajIU0levrV9aYKca2n/ZU+goJsF7fMA1sDdAoGAMwYcQQ9XJLIVR3c1+cPm
ZXwod+8SRf8cr9G9YxVg74+DzPoC4D6nLLoMztsIEbqs32BROhFAIPkxUx8t3B+w
BAD+gaC3vgesecqPKWY8a7OhyNYKxSAaMp9EH1ywNX456OabzXIrXi8h0UVeEjmL
lrUqZQ2VvXn8/MApYF+5AJg=
-----END PRIVATE KEY-----
Certificate:
    Data:
        Version: 3 (0x2)
        Serial Number:
            b0:6b:93:92:e3:5c:8d:7e:ed:9d:c8:96:59:c5:c2:6c
        Signature Algorithm: sha256WithRSAEncryption
        Issuer: C=US, ST=California, L=Mountain View, O=Test CA, CN=Test Root CA
        Validity
            Not Before: Oct  3 17:20:08 2022 GMT
            Not After : Oct  2 17:20:08 2024 GMT
        Subject: C=US, ST=California, L=Mountain View, O=Test CA, CN=127.0.0.1
        Subject Public Key Info:
            Public Key Algorithm: rsaEncryption
                Public-Key: (2048 bit)
                Modulus:
                    00:bf:62:12:5c:02:bd:66:d0:00:94:87:70:72:7f:
                    91:b5:cc:31:7e:d4:bb:ab:32:2e:c4:f1:22:db:cd:
                    86:c1:c6:fe:67:94:f5:50:0b:67:44:b6:6a:9c:63:
                    60:bc:c6:01:da:43:9d:a5:c5:65:47:f2:c0:49:63:
                    30:69:82:5a:5a:07:3b:7d:62:56:d2:bc:4e:ea:5d:
                    75:a6:12:b1:3f:d8:d6:f4:11:c4:44:f5:ce:5a:24:
                    c7:7a:f5:bd:f9:97:b4:de:79:ba:4e:fd:3c:5b:6b:
                    6e:f5:b9:f4:73:6e:68:bd:11:db:23:2f:4e:df:f9:
                    91:9b:cc:3d:a1:fe:d8:66:01:37:11:20:7b:dc:0d:
                    a3:65:9a:4f:20:a6:24:49:95:99:f5:28:d7:4d:61:
                    2e:4c:6b:9b:3c:5b:d7:5d:1a:42:c5:a9:1b:7d:3d:
                    b6:d6:90:12:bb:11:d6:15:da:0f:b5:0a:f7:62:d8:
                    68:c2:b4:45:f5:f7:89:f7:01:dc:7e:51:e3:c0:a1:
                    70:1d:8c:69:00:21:16:52:b2:ea:5d:f1:17:09:92:
                    9c:ad:f8:cd:d6:08:f8:60:1c:06:62:b5:fd:5a:b6:
                    2f:e7:81:c4:c8:1f:fc:61:7b:9d:cb:47:8c:3b:cd:
                    40:7a:5a:a4:93:37:8f:f7:b1:8a:14:f5:a8:a4:97:
                    dc:99
                Exponent: 65537 (0x10001)
        X509v3 extensions:
            X509v3 Basic Constraints: critical
                CA:FALSE
            X509v3 Subject Key Identifier: 
                45:0D:FA:A4:6B:B9:A7:1C:93:E8:AE:AF:C4:13:39:12:D4:2F:E0:5D
            X509v3 Authority Key Identifier: 
                9B:26:0B:8A:98:A9:BB:1D:B9:1F:1C:E3:1A:40:33:ED:8E:17:88:AB
            X509v3 Extended Key Usage: 
                TLS Web Server Authentication, TLS Web Client Authentication
            X509v3 Subject Alternative Name: 
                DNS:a.test, DNS:*.a.test, DNS:b.test, DNS:*.b.test, DNS:c.test, DNS:*.c.test, DNS:d.test, DNS:*.d.test
    Signature Algorithm: sha256WithRSAEncryption
    Signature Value:
        1c:4e:4c:06:fc:2a:0a:89:2e:de:21:c3:46:99:51:84:89:c0:
        4e:66:10:73:a2:b0:cb:6b:12:e4:eb:bb:a4:56:17:2f:73:7c:
        ea:ae:7a:a7:0a:0b:6c:4a:24:2b:f2:82:51:2d:f8:b6:d7:3c:
        03:69:43:cd:cc:1b:85:4b:d9:c4:aa:5e:f7:c6:24:56:1a:61:
        0e:83:89:8f:08:08:93:a9:53:d1:f9:85:e5:d1:2d:05:40:4a:
        90:e1:36:90:3a:4b:4e:5d:ea:dd:e5:b7:ac:07:f1:62:34:6a:
        69:0f:f0:68:cc:6a:cf:47:bd:a7:55:fd:7e:8f:bc:d5:5a:a0:
        1e:b5:0a:e6:4b:53:8a:6f:e9:48:1b:0d:5c:ae:0a:57:07:64:
        a6:9e:ea:68:49:76:a3:a0:20:cf:f2:cb:b6:19:2b:2f:69:3f:
        41:50:71:27:db:32:9c:d8:4c:db:bc:c4:c2:c9:12:a4:4a:80:
        65:71:cc:18:06:eb:3c:64:63:31:b5:d2:dc:34:d6:49:70:b0:
        bb:98:7a:e3:e2:d4:00:4e:2a:41:7c:d4:70:93:6e:9a:12:26:
        c8:4f:3a:e6:4a:b2:04:23:0e:c5:f6:10:d7:9b:ec:86:44:4f:
        c0:9d:8d:d1:95:e6:4a:da:5e:81:d2:45:2f:b3:ae:97:fa:0a:
        fd:16:c2:2f
-----BEGIN CERTIFICATE-----
MIIEEjCCAvqgAwIBAgIRALBrk5LjXI1+7Z3IllnFwmwwDQYJKoZIhvcNAQELBQAw
YzELMAkGA1UEBhMCVVMxEzARBgNVBAgMCkNhbGlmb3JuaWExFjAUBgNVBAcMDU1v
dW50YWluIFZpZXcxEDAOBgNVBAoMB1Rlc3QgQ0ExFTATBgNVBAMMDFRlc3QgUm9v
dCBDQTAeFw0yMjEwMDMxNzIwMDhaFw0yNDEwMDIxNzIwMDhaMGAxCzAJBgNVBAYT
AlVTMRMwEQYDVQQIDApDYWxpZm9ybmlhMRYwFAYDVQQHDA1Nb3VudGFpbiBWaWV3
MRAwDgYDVQQKDAdUZXN0IENBMRIwEAYDVQQDDAkxMjcuMC4wLjEwggEiMA0GCSqG
SIb3DQEBAQUAA4IBDwAwggEKAoIBAQC/YhJcAr1m0ACUh3Byf5G1zDF+1LurMi7E
8SLbzYbBxv5nlPVQC2dEtmqcY2C8xgHaQ52lxWVH8sBJYzBpglpaBzt9YlbSvE7q
XXWmErE/2Nb0EcRE9c5aJMd69b35l7TeebpO/Txba271ufRzbmi9EdsjL07f+ZGb
zD2h/thmATcRIHvcDaNlmk8gpiRJlZn1KNdNYS5Ma5s8W9ddGkLFqRt9PbbWkBK7
EdYV2g+1Cvdi2GjCtEX194n3Adx+UePAoXAdjGkAIRZSsupd8RcJkpyt+M3WCPhg
HAZitf1ati/ngcTIH/xhe53LR4w7zUB6WqSTN4/3sYoU9aikl9yZAgMBAAGjgcMw
gcAwDAYDVR0TAQH/BAIwADAdBgNVHQ4EFgQURQ36pGu5pxyT6K6vxBM5EtQv4F0w
HwYDVR0jBBgwFoAUmyYLipipux25HxzjGkAz7Y4XiKswHQYDVR0lBBYwFAYIKwYB
BQUHAwEGCCsGAQUFBwMCMFEGA1UdEQRKMEiCBmEudGVzdIIIKi5hLnRlc3SCBmIu
dGVzdIIIKi5iLnRlc3SCBmMudGVzdIIIKi5jLnRlc3SCBmQudGVzdIIIKi5kLnRl
c3QwDQYJKoZIhvcNAQELBQADggEBABxOTAb8KgqJLt4hw0aZUYSJwE5mEHOisMtr
EuTru6RWFy9zfOqueqcKC2xKJCvyglEt+LbXPANpQ83MG4VL2cSqXvfGJFYaYQ6D
iY8ICJOpU9H5heXRLQVASpDhNpA6S05d6t3lt6wH8WI0amkP8GjMas9HvadV/X6P
vNVaoB61CuZLU4pv6UgbDVyuClcHZKae6mhJdqOgIM/yy7YZKy9pP0FQcSfbMpzY
TNu8xMLJEqRKgGVxzBgG6zxkYzG10tw01klwsLuYeuPi1ABOKkF81HCTbpoSJshP
OuZKsgQjDsX2ENeb7IZET8CdjdGV5kraXoHSRS+zrpf6Cv0Wwi8=
-----END CERTIFICATE-----
