===========================================
Certificate0: b71f915383e7212f48e9565d319d88b36fa41a0d993ee8dbef18bd087fab398e
===========================================
Certificate:
    Data:
        Version: 3 (0x2)
        Serial Number:
            b1:92:b3:6c:b6:9a:ed:66
        Signature Algorithm: sha256WithRSAEncryption
        Issuer: C = US, ST = Arizona, L = Scottsdale, O = "GoDaddy.com, Inc.", OU = http://certs.godaddy.com/repository/, CN = Go Daddy Secure Certificate Authority - G2
        Validity
            Not Before: Feb 22 00:03:48 2022 GMT
            Not After : Mar 26 00:03:48 2023 GMT
        Subject: CN = thepaverbros.com
        Subject Public Key Info:
            Public Key Algorithm: rsaEncryption
                RSA Public-Key: (2048 bit)
                Modulus:
                    00:ad:ad:8e:e5:27:d1:3a:ab:c6:40:d8:6d:24:19:
                    89:79:14:9e:5a:9c:9b:4b:45:e2:1e:c5:f5:5f:8d:
                    ee:ea:c6:1c:d7:43:f3:8b:10:a0:c5:3d:c5:7a:f9:
                    d4:7c:d1:50:7a:c4:6c:a3:f7:1f:1b:80:1d:3c:af:
                    da:c7:28:3a:63:a9:c9:c7:33:22:be:4a:67:8e:c0:
                    bd:48:8d:99:41:0d:da:01:e1:cd:05:92:32:b7:d0:
                    bf:23:ea:a8:2c:e4:02:99:d5:59:a0:11:7b:62:19:
                    98:b2:48:cb:49:4b:8f:94:d1:06:af:b2:f7:3e:ba:
                    a3:17:c4:18:47:87:a5:59:8b:36:f4:b6:a1:f2:e9:
                    c5:e0:94:8e:3d:fb:e6:c0:90:18:ed:84:2b:ce:fc:
                    ea:dd:5d:1f:ca:dc:17:21:05:9b:8a:ce:2e:e7:a9:
                    79:b1:eb:3c:41:7c:6a:00:cb:b6:60:82:dc:3d:96:
                    cb:30:c1:04:dd:ce:d8:00:fb:0e:8c:4b:3f:ba:be:
                    c8:4b:42:13:5c:24:9e:8e:73:5b:a0:e3:99:a8:06:
                    44:8c:4a:c5:aa:d5:5d:32:cc:56:61:3d:9f:3c:20:
                    1a:5f:17:c8:30:fb:1d:fa:c7:54:3a:c2:bc:d9:6d:
                    4d:bf:75:4a:b0:3d:55:7d:a2:1e:f4:2b:96:7c:bb:
                    04:01
                Exponent: 65537 (0x10001)
        X509v3 extensions:
            X509v3 Basic Constraints: critical
                CA:FALSE
            X509v3 Extended Key Usage: 
                TLS Web Server Authentication, TLS Web Client Authentication
            X509v3 Key Usage: critical
                Digital Signature, Key Encipherment
            X509v3 CRL Distribution Points: 

                Full Name:
                  URI:http://crl.godaddy.com/gdig2s1-3856.crl

            X509v3 Certificate Policies: 
                Policy: 2.16.840.1.114413.1.7.23.1
                  CPS: http://certificates.godaddy.com/repository/
                Policy: 2.23.140.1.2.1

            Authority Information Access: 
                OCSP - URI:http://ocsp.godaddy.com/
                CA Issuers - URI:http://certificates.godaddy.com/repository/gdig2.crt

            X509v3 Authority Key Identifier: 
                keyid:40:C2:BD:27:8E:CC:34:83:30:A2:33:D7:FB:6C:B3:F0:B4:2C:80:CE

            X509v3 Subject Alternative Name: 
                DNS:thepaverbros.com, DNS:www.thepaverbros.com
            X509v3 Subject Key Identifier: 
                B2:CC:1E:16:DC:9F:4E:C4:86:8B:B2:37:04:A8:74:1F:EE:F1:FB:B0
            CT Precertificate SCTs: 
                Signed Certificate Timestamp:
                    Version   : v1 (0x0)
                    Log ID    : E8:3E:D0:DA:3E:F5:06:35:32:E7:57:28:BC:89:6B:C9:
                                03:D3:CB:D1:11:6B:EC:EB:69:E1:77:7D:6D:06:BD:6E
                    Timestamp : Feb 22 00:03:49.647 2022 GMT
                    Extensions: none
                    Signature : ecdsa-with-SHA256
                                30:44:02:20:11:5D:B2:91:51:83:B4:C0:5D:5B:5C:3A:
                                C6:47:1A:E2:F9:AF:52:C9:A2:D3:54:EC:97:38:B4:91:
                                F7:56:5D:CA:02:20:2A:49:08:BE:30:F5:72:1F:3D:C6:
                                DC:15:C0:3F:14:5D:28:06:8A:46:5D:5E:43:D5:45:1B:
                                A9:DD:55:D4:52:C7
                Signed Certificate Timestamp:
                    Version   : v1 (0x0)
                    Log ID    : 35:CF:19:1B:BF:B1:6C:57:BF:0F:AD:4C:6D:42:CB:BB:
                                B6:27:20:26:51:EA:3F:E1:2A:EF:A8:03:C3:3B:D6:4C
                    Timestamp : Feb 22 00:03:49.984 2022 GMT
                    Extensions: none
                    Signature : ecdsa-with-SHA256
                                30:44:02:20:2F:C2:87:C2:D8:43:19:B6:6B:1C:99:A1:
                                F3:C9:59:42:4A:B4:03:CB:F7:AC:3A:BB:A2:F2:18:23:
                                B3:8D:94:D8:02:20:72:5F:56:33:CE:5D:A1:10:8F:23:
                                B1:6D:18:E1:BC:F4:81:6A:B4:8A:EF:81:C1:2F:72:27:
                                D2:4C:D1:1A:3C:01
                Signed Certificate Timestamp:
                    Version   : v1 (0x0)
                    Log ID    : 7A:32:8C:54:D8:B7:2D:B6:20:EA:38:E0:52:1E:E9:84:
                                16:70:32:13:85:4D:3B:D2:2B:C1:3A:57:A3:52:EB:52
                    Timestamp : Feb 22 00:03:50.108 2022 GMT
                    Extensions: none
                    Signature : ecdsa-with-SHA256
                                30:44:02:20:4B:35:3F:6E:2A:B2:E0:53:7B:98:11:E0:
                                99:3F:62:E4:65:98:6E:55:B9:2D:E4:72:0D:C3:91:2F:
                                C1:BE:E0:8C:02:20:67:C8:85:18:E1:B4:16:1F:7E:7E:
                                72:93:08:7D:89:A7:6A:CC:B7:BA:B8:B2:AC:78:3D:EA:
                                C6:3D:9B:25:A1:BE
    Signature Algorithm: sha256WithRSAEncryption
         27:17:ab:39:12:97:02:4c:a1:3b:ff:90:25:d9:50:93:c2:c5:
         78:f3:18:28:24:76:60:a7:0e:94:12:3f:07:63:67:3d:22:5d:
         41:dd:e1:61:e0:cc:be:e0:c8:18:d8:06:ff:29:45:05:dd:15:
         16:c1:a1:4a:92:b9:da:a9:d5:55:e4:e0:67:7c:d5:f2:5f:67:
         80:f9:77:bd:0c:67:f4:0e:10:da:a4:5a:e6:1f:5f:fa:59:16:
         71:f6:33:a9:32:93:c9:72:ba:5d:54:04:82:20:5f:f8:0f:52:
         e4:87:c8:34:3a:68:5d:26:b8:42:d9:ae:e2:5c:9d:50:f2:53:
         4f:47:23:3f:6f:87:15:80:47:34:94:4d:49:35:78:f9:12:94:
         50:b9:6b:dc:6e:91:ae:22:ff:0c:da:10:56:e7:47:81:03:f6:
         de:87:4c:a8:50:a3:dd:97:01:bb:28:4f:13:60:b8:68:fd:1b:
         ef:55:87:ee:e9:2c:ed:f5:c4:c6:7e:c6:5c:44:92:6e:24:ec:
         01:41:ea:49:35:0a:23:d7:55:ca:68:18:ca:03:fc:f8:ea:af:
         52:41:11:db:76:46:9b:31:d1:1b:db:82:db:4e:70:2a:93:aa:
         22:92:b0:6b:41:fa:08:58:3e:8e:d7:74:92:8a:cc:2f:d6:89:
         f9:54:2d:b3

-----BEGIN CERTIFICATE-----
MIIGmTCCBYGgAwIBAgIJALGSs2y2mu1mMA0GCSqGSIb3DQEBCwUAMIG0MQswCQYD
VQQGEwJVUzEQMA4GA1UECBMHQXJpem9uYTETMBEGA1UEBxMKU2NvdHRzZGFsZTEa
MBgGA1UEChMRR29EYWRkeS5jb20sIEluYy4xLTArBgNVBAsTJGh0dHA6Ly9jZXJ0
cy5nb2RhZGR5LmNvbS9yZXBvc2l0b3J5LzEzMDEGA1UEAxMqR28gRGFkZHkgU2Vj
dXJlIENlcnRpZmljYXRlIEF1dGhvcml0eSAtIEcyMB4XDTIyMDIyMjAwMDM0OFoX
DTIzMDMyNjAwMDM0OFowGzEZMBcGA1UEAxMQdGhlcGF2ZXJicm9zLmNvbTCCASIw
DQYJKoZIhvcNAQEBBQADggEPADCCAQoCggEBAK2tjuUn0TqrxkDYbSQZiXkUnlqc
m0tF4h7F9V+N7urGHNdD84sQoMU9xXr51HzRUHrEbKP3HxuAHTyv2scoOmOpyccz
Ir5KZ47AvUiNmUEN2gHhzQWSMrfQvyPqqCzkApnVWaARe2IZmLJIy0lLj5TRBq+y
9z66oxfEGEeHpVmLNvS2ofLpxeCUjj375sCQGO2EK8786t1dH8rcFyEFm4rOLuep
ebHrPEF8agDLtmCC3D2WyzDBBN3O2AD7DoxLP7q+yEtCE1wkno5zW6DjmagGRIxK
xarVXTLMVmE9nzwgGl8XyDD7HfrHVDrCvNltTb91SrA9VX2iHvQrlny7BAECAwEA
AaOCA0QwggNAMAwGA1UdEwEB/wQCMAAwHQYDVR0lBBYwFAYIKwYBBQUHAwEGCCsG
AQUFBwMCMA4GA1UdDwEB/wQEAwIFoDA4BgNVHR8EMTAvMC2gK6AphidodHRwOi8v
Y3JsLmdvZGFkZHkuY29tL2dkaWcyczEtMzg1Ni5jcmwwXQYDVR0gBFYwVDBIBgtg
hkgBhv1tAQcXATA5MDcGCCsGAQUFBwIBFitodHRwOi8vY2VydGlmaWNhdGVzLmdv
ZGFkZHkuY29tL3JlcG9zaXRvcnkvMAgGBmeBDAECATB2BggrBgEFBQcBAQRqMGgw
JAYIKwYBBQUHMAGGGGh0dHA6Ly9vY3NwLmdvZGFkZHkuY29tLzBABggrBgEFBQcw
AoY0aHR0cDovL2NlcnRpZmljYXRlcy5nb2RhZGR5LmNvbS9yZXBvc2l0b3J5L2dk
aWcyLmNydDAfBgNVHSMEGDAWgBRAwr0njsw0gzCiM9f7bLPwtCyAzjAxBgNVHREE
KjAoghB0aGVwYXZlcmJyb3MuY29tghR3d3cudGhlcGF2ZXJicm9zLmNvbTAdBgNV
HQ4EFgQUssweFtyfTsSGi7I3BKh0H+7x+7AwggF7BgorBgEEAdZ5AgQCBIIBawSC
AWcBZQB1AOg+0No+9QY1MudXKLyJa8kD08vREWvs62nhd31tBr1uAAABfx69zQ8A
AAQDAEYwRAIgEV2ykVGDtMBdW1w6xkca4vmvUsmi01Tslzi0kfdWXcoCICpJCL4w
9XIfPcbcFcA/FF0oBopGXV5D1UUbqd1V1FLHAHUANc8ZG7+xbFe/D61MbULLu7Yn
ICZR6j/hKu+oA8M71kwAAAF/Hr3OYAAABAMARjBEAiAvwofC2EMZtmscmaHzyVlC
SrQDy/esOrui8hgjs42U2AIgcl9WM85doRCPI7FtGOG89IFqtIrvgcEvcifSTNEa
PAEAdQB6MoxU2LcttiDqOOBSHumEFnAyE4VNO9IrwTpXo1LrUgAAAX8evc7cAAAE
AwBGMEQCIEs1P24qsuBTe5gR4Jk/YuRlmG5VuS3kcg3DkS/BvuCMAiBnyIUY4bQW
H35+cpMIfYmnasy3uriyrHg96sY9myWhvjANBgkqhkiG9w0BAQsFAAOCAQEAJxer
ORKXAkyhO/+QJdlQk8LFePMYKCR2YKcOlBI/B2NnPSJdQd3hYeDMvuDIGNgG/ylF
Bd0VFsGhSpK52qnVVeTgZ3zV8l9ngPl3vQxn9A4Q2qRa5h9f+lkWcfYzqTKTyXK6
XVQEgiBf+A9S5IfINDpoXSa4Qtmu4lydUPJTT0cjP2+HFYBHNJRNSTV4+RKUULlr
3G6RriL/DNoQVudHgQP23odMqFCj3ZcBuyhPE2C4aP0b71WH7uks7fXExn7GXESS
biTsAUHqSTUKI9dVymgYygP8+OqvUkER23ZGmzHRG9uC205wKpOqIpKwa0H6CFg+
jtd0korML9aJ+VQtsw==
-----END CERTIFICATE-----

===========================================
Certificate1: 973a41276ffd01e027a2aad49e34c37846d3e976ff6a620b6712e33832041aa6
===========================================
Certificate:
    Data:
        Version: 3 (0x2)
        Serial Number: 7 (0x7)
        Signature Algorithm: sha256WithRSAEncryption
        Issuer: C = US, ST = Arizona, L = Scottsdale, O = "GoDaddy.com, Inc.", CN = Go Daddy Root Certificate Authority - G2
        Validity
            Not Before: May  3 07:00:00 2011 GMT
            Not After : May  3 07:00:00 2031 GMT
        Subject: C = US, ST = Arizona, L = Scottsdale, O = "GoDaddy.com, Inc.", OU = http://certs.godaddy.com/repository/, CN = Go Daddy Secure Certificate Authority - G2
        Subject Public Key Info:
            Public Key Algorithm: rsaEncryption
                RSA Public-Key: (2048 bit)
                Modulus:
                    00:b9:e0:cb:10:d4:af:76:bd:d4:93:62:eb:30:64:
                    b8:81:08:6c:c3:04:d9:62:17:8e:2f:ff:3e:65:cf:
                    8f:ce:62:e6:3c:52:1c:da:16:45:4b:55:ab:78:6b:
                    63:83:62:90:ce:0f:69:6c:99:c8:1a:14:8b:4c:cc:
                    45:33:ea:88:dc:9e:a3:af:2b:fe:80:61:9d:79:57:
                    c4:cf:2e:f4:3f:30:3c:5d:47:fc:9a:16:bc:c3:37:
                    96:41:51:8e:11:4b:54:f8:28:be:d0:8c:be:f0:30:
                    38:1e:f3:b0:26:f8:66:47:63:6d:de:71:26:47:8f:
                    38:47:53:d1:46:1d:b4:e3:dc:00:ea:45:ac:bd:bc:
                    71:d9:aa:6f:00:db:db:cd:30:3a:79:4f:5f:4c:47:
                    f8:1d:ef:5b:c2:c4:9d:60:3b:b1:b2:43:91:d8:a4:
                    33:4e:ea:b3:d6:27:4f:ad:25:8a:a5:c6:f4:d5:d0:
                    a6:ae:74:05:64:57:88:b5:44:55:d4:2d:2a:3a:3e:
                    f8:b8:bd:e9:32:0a:02:94:64:c4:16:3a:50:f1:4a:
                    ae:e7:79:33:af:0c:20:07:7f:e8:df:04:39:c2:69:
                    02:6c:63:52:fa:77:c1:1b:c8:74:87:c8:b9:93:18:
                    50:54:35:4b:69:4e:bc:3b:d3:49:2e:1f:dc:c1:d2:
                    52:fb
                Exponent: 65537 (0x10001)
        X509v3 extensions:
            X509v3 Basic Constraints: critical
                CA:TRUE
            X509v3 Key Usage: critical
                Certificate Sign, CRL Sign
            X509v3 Subject Key Identifier: 
                40:C2:BD:27:8E:CC:34:83:30:A2:33:D7:FB:6C:B3:F0:B4:2C:80:CE
            X509v3 Authority Key Identifier: 
                keyid:3A:9A:85:07:10:67:28:B6:EF:F6:BD:05:41:6E:20:C1:94:DA:0F:DE

            Authority Information Access: 
                OCSP - URI:http://ocsp.godaddy.com/

            X509v3 CRL Distribution Points: 

                Full Name:
                  URI:http://crl.godaddy.com/gdroot-g2.crl

            X509v3 Certificate Policies: 
                Policy: X509v3 Any Policy
                  CPS: https://certs.godaddy.com/repository/

    Signature Algorithm: sha256WithRSAEncryption
         08:7e:6c:93:10:c8:38:b8:96:a9:90:4b:ff:a1:5f:4f:04:ef:
         6c:3e:9c:88:06:c9:50:8f:a6:73:f7:57:31:1b:be:bc:e4:2f:
         db:f8:ba:d3:5b:e0:b4:e7:e6:79:62:0e:0c:a2:d7:6a:63:73:
         31:b5:f5:a8:48:a4:3b:08:2d:a2:5d:90:d7:b4:7c:25:4f:11:
         56:30:c4:b6:44:9d:7b:2c:9d:e5:5e:e6:ef:0c:61:aa:bf:e4:
         2a:1b:ee:84:9e:b8:83:7d:c1:43:ce:44:a7:13:70:0d:91:1f:
         f4:c8:13:ad:83:60:d9:d8:72:a8:73:24:1e:b5:ac:22:0e:ca:
         17:89:62:58:44:1b:ab:89:25:01:00:0f:cd:c4:1b:62:db:51:
         b4:d3:0f:51:2a:9b:f4:bc:73:fc:76:ce:36:a4:cd:d9:d8:2c:
         ea:ae:9b:f5:2a:b2:90:d1:4d:75:18:8a:3f:8a:41:90:23:7d:
         5b:4b:fe:a4:03:58:9b:46:b2:c3:60:60:83:f8:7d:50:41:ce:
         c2:a1:90:c3:bb:ef:02:2f:d2:15:54:ee:44:15:d9:0a:ae:a7:
         8a:33:ed:b1:2d:76:36:26:dc:04:eb:9f:f7:61:1f:15:dc:87:
         6f:ee:46:96:28:ad:a1:26:7d:0a:09:a7:2e:04:a3:8d:bc:f8:
         bc:04:30:01

-----BEGIN CERTIFICATE-----
MIIE0DCCA7igAwIBAgIBBzANBgkqhkiG9w0BAQsFADCBgzELMAkGA1UEBhMCVVMx
EDAOBgNVBAgTB0FyaXpvbmExEzARBgNVBAcTClNjb3R0c2RhbGUxGjAYBgNVBAoT
EUdvRGFkZHkuY29tLCBJbmMuMTEwLwYDVQQDEyhHbyBEYWRkeSBSb290IENlcnRp
ZmljYXRlIEF1dGhvcml0eSAtIEcyMB4XDTExMDUwMzA3MDAwMFoXDTMxMDUwMzA3
MDAwMFowgbQxCzAJBgNVBAYTAlVTMRAwDgYDVQQIEwdBcml6b25hMRMwEQYDVQQH
EwpTY290dHNkYWxlMRowGAYDVQQKExFHb0RhZGR5LmNvbSwgSW5jLjEtMCsGA1UE
CxMkaHR0cDovL2NlcnRzLmdvZGFkZHkuY29tL3JlcG9zaXRvcnkvMTMwMQYDVQQD
EypHbyBEYWRkeSBTZWN1cmUgQ2VydGlmaWNhdGUgQXV0aG9yaXR5IC0gRzIwggEi
MA0GCSqGSIb3DQEBAQUAA4IBDwAwggEKAoIBAQC54MsQ1K92vdSTYuswZLiBCGzD
BNliF44v/z5lz4/OYuY8UhzaFkVLVat4a2ODYpDOD2lsmcgaFItMzEUz6ojcnqOv
K/6AYZ15V8TPLvQ/MDxdR/yaFrzDN5ZBUY4RS1T4KL7QjL7wMDge87Am+GZHY23e
cSZHjzhHU9FGHbTj3ADqRay9vHHZqm8A29vNMDp5T19MR/gd71vCxJ1gO7GyQ5HY
pDNO6rPWJ0+tJYqlxvTV0KaudAVkV4i1RFXULSo6Pvi4vekyCgKUZMQWOlDxSq7n
eTOvDCAHf+jfBDnCaQJsY1L6d8EbyHSHyLmTGFBUNUtpTrw700kuH9zB0lL7AgMB
AAGjggEaMIIBFjAPBgNVHRMBAf8EBTADAQH/MA4GA1UdDwEB/wQEAwIBBjAdBgNV
HQ4EFgQUQMK9J47MNIMwojPX+2yz8LQsgM4wHwYDVR0jBBgwFoAUOpqFBxBnKLbv
9r0FQW4gwZTaD94wNAYIKwYBBQUHAQEEKDAmMCQGCCsGAQUFBzABhhhodHRwOi8v
b2NzcC5nb2RhZGR5LmNvbS8wNQYDVR0fBC4wLDAqoCigJoYkaHR0cDovL2NybC5n
b2RhZGR5LmNvbS9nZHJvb3QtZzIuY3JsMEYGA1UdIAQ/MD0wOwYEVR0gADAzMDEG
CCsGAQUFBwIBFiVodHRwczovL2NlcnRzLmdvZGFkZHkuY29tL3JlcG9zaXRvcnkv
MA0GCSqGSIb3DQEBCwUAA4IBAQAIfmyTEMg4uJapkEv/oV9PBO9sPpyIBslQj6Zz
91cxG7685C/b+LrTW+C05+Z5Yg4MotdqY3MxtfWoSKQ7CC2iXZDXtHwlTxFWMMS2
RJ17LJ3lXubvDGGqv+QqG+6EnriDfcFDzkSnE3ANkR/0yBOtg2DZ2HKocyQetawi
DsoXiWJYRBuriSUBAA/NxBti21G00w9RKpv0vHP8ds42pM3Z2Czqrpv1KrKQ0U11
GIo/ikGQI31bS/6kA1ibRrLDYGCD+H1QQc7CoZDDu+8CL9IVVO5EFdkKrqeKM+2x
LXY2JtwE65/3YR8V3Idv7kaWKK2hJn0KCacuBKONvPi8BDAB
-----END CERTIFICATE-----

===========================================
Certificate2: 45140b3247eb9cc8c5b4f0d7b53091f73292089e6e5a63e2749dd3aca9198eda
===========================================
Certificate:
    Data:
        Version: 3 (0x2)
        Serial Number: 0 (0x0)
        Signature Algorithm: sha256WithRSAEncryption
        Issuer: C = US, ST = Arizona, L = Scottsdale, O = "GoDaddy.com, Inc.", CN = Go Daddy Root Certificate Authority - G2
        Validity
            Not Before: Sep  1 00:00:00 2009 GMT
            Not After : Dec 31 23:59:59 2037 GMT
        Subject: C = US, ST = Arizona, L = Scottsdale, O = "GoDaddy.com, Inc.", CN = Go Daddy Root Certificate Authority - G2
        Subject Public Key Info:
            Public Key Algorithm: rsaEncryption
                RSA Public-Key: (2048 bit)
                Modulus:
                    00:bf:71:62:08:f1:fa:59:34:f7:1b:c9:18:a3:f7:
                    80:49:58:e9:22:83:13:a6:c5:20:43:01:3b:84:f1:
                    e6:85:49:9f:27:ea:f6:84:1b:4e:a0:b4:db:70:98:
                    c7:32:01:b1:05:3e:07:4e:ee:f4:fa:4f:2f:59:30:
                    22:e7:ab:19:56:6b:e2:80:07:fc:f3:16:75:80:39:
                    51:7b:e5:f9:35:b6:74:4e:a9:8d:82:13:e4:b6:3f:
                    a9:03:83:fa:a2:be:8a:15:6a:7f:de:0b:c3:b6:19:
                    14:05:ca:ea:c3:a8:04:94:3b:46:7c:32:0d:f3:00:
                    66:22:c8:8d:69:6d:36:8c:11:18:b7:d3:b2:1c:60:
                    b4:38:fa:02:8c:ce:d3:dd:46:07:de:0a:3e:eb:5d:
                    7c:c8:7c:fb:b0:2b:53:a4:92:62:69:51:25:05:61:
                    1a:44:81:8c:2c:a9:43:96:23:df:ac:3a:81:9a:0e:
                    29:c5:1c:a9:e9:5d:1e:b6:9e:9e:30:0a:39:ce:f1:
                    88:80:fb:4b:5d:cc:32:ec:85:62:43:25:34:02:56:
                    27:01:91:b4:3b:70:2a:3f:6e:b1:e8:9c:88:01:7d:
                    9f:d4:f9:db:53:6d:60:9d:bf:2c:e7:58:ab:b8:5f:
                    46:fc:ce:c4:1b:03:3c:09:eb:49:31:5c:69:46:b3:
                    e0:47
                Exponent: 65537 (0x10001)
        X509v3 extensions:
            X509v3 Basic Constraints: critical
                CA:TRUE
            X509v3 Key Usage: critical
                Certificate Sign, CRL Sign
            X509v3 Subject Key Identifier: 
                3A:9A:85:07:10:67:28:B6:EF:F6:BD:05:41:6E:20:C1:94:DA:0F:DE
    Signature Algorithm: sha256WithRSAEncryption
         99:db:5d:79:d5:f9:97:59:67:03:61:f1:7e:3b:06:31:75:2d:
         a1:20:8e:4f:65:87:b4:f7:a6:9c:bc:d8:e9:2f:d0:db:5a:ee:
         cf:74:8c:73:b4:38:42:da:05:7b:f8:02:75:b8:fd:a5:b1:d7:
         ae:f6:d7:de:13:cb:53:10:7e:8a:46:d1:97:fa:b7:2e:2b:11:
         ab:90:b0:27:80:f9:e8:9f:5a:e9:37:9f:ab:e4:df:6c:b3:85:
         17:9d:3d:d9:24:4f:79:91:35:d6:5f:04:eb:80:83:ab:9a:02:
         2d:b5:10:f4:d8:90:c7:04:73:40:ed:72:25:a0:a9:9f:ec:9e:
         ab:68:12:99:57:c6:8f:12:3a:09:a4:bd:44:fd:06:15:37:c1:
         9b:e4:32:a3:ed:38:e8:d8:64:f3:2c:7e:14:fc:02:ea:9f:cd:
         ff:07:68:17:db:22:90:38:2d:7a:8d:d1:54:f1:69:e3:5f:33:
         ca:7a:3d:7b:0a:e3:ca:7f:5f:39:e5:e2:75:ba:c5:76:18:33:
         ce:2c:f0:2f:4c:ad:f7:b1:e7:ce:4f:a8:c4:9b:4a:54:06:c5:
         7f:7d:d5:08:0f:e2:1c:fe:7e:17:b8:ac:5e:f6:d4:16:b2:43:
         09:0c:4d:f6:a7:6b:b4:99:84:65:ca:7a:88:e2:e2:44:be:5c:
         f7:ea:1c:f5

-----BEGIN CERTIFICATE-----
MIIDxTCCAq2gAwIBAgIBADANBgkqhkiG9w0BAQsFADCBgzELMAkGA1UEBhMCVVMx
EDAOBgNVBAgTB0FyaXpvbmExEzARBgNVBAcTClNjb3R0c2RhbGUxGjAYBgNVBAoT
EUdvRGFkZHkuY29tLCBJbmMuMTEwLwYDVQQDEyhHbyBEYWRkeSBSb290IENlcnRp
ZmljYXRlIEF1dGhvcml0eSAtIEcyMB4XDTA5MDkwMTAwMDAwMFoXDTM3MTIzMTIz
NTk1OVowgYMxCzAJBgNVBAYTAlVTMRAwDgYDVQQIEwdBcml6b25hMRMwEQYDVQQH
EwpTY290dHNkYWxlMRowGAYDVQQKExFHb0RhZGR5LmNvbSwgSW5jLjExMC8GA1UE
AxMoR28gRGFkZHkgUm9vdCBDZXJ0aWZpY2F0ZSBBdXRob3JpdHkgLSBHMjCCASIw
DQYJKoZIhvcNAQEBBQADggEPADCCAQoCggEBAL9xYgjx+lk09xvJGKP3gElY6SKD
E6bFIEMBO4Tx5oVJnyfq9oQbTqC023CYxzIBsQU+B07u9PpPL1kwIuerGVZr4oAH
/PMWdYA5UXvl+TW2dE6pjYIT5LY/qQOD+qK+ihVqf94Lw7YZFAXK6sOoBJQ7Rnwy
DfMAZiLIjWltNowRGLfTshxgtDj6AozO091GB94KPutdfMh8+7ArU6SSYmlRJQVh
GkSBjCypQ5Yj36w6gZoOKcUcqeldHraenjAKOc7xiID7S13MMuyFYkMlNAJWJwGR
tDtwKj9useiciAF9n9T521NtYJ2/LOdYq7hfRvzOxBsDPAnrSTFcaUaz4EcCAwEA
AaNCMEAwDwYDVR0TAQH/BAUwAwEB/zAOBgNVHQ8BAf8EBAMCAQYwHQYDVR0OBBYE
FDqahQcQZyi27/a9BUFuIMGU2g/eMA0GCSqGSIb3DQEBCwUAA4IBAQCZ21151fmX
WWcDYfF+OwYxdS2hII5PZYe096acvNjpL9DbWu7PdIxztDhC2gV7+AJ1uP2lsdeu
9tfeE8tTEH6KRtGX+rcuKxGrkLAngPnon1rpN5+r5N9ss4UXnT3ZJE95kTXWXwTr
gIOrmgIttRD02JDHBHNA7XIloKmf7J6raBKZV8aPEjoJpL1E/QYVN8Gb5DKj7Tjo
2GTzLH4U/ALqn83/B2gX2yKQOC16jdFU8WnjXzPKej17CuPKf1855eJ1usV2GDPO
LPAvTK33sefOT6jEm0pUBsV/fdUID+Ic/n4XuKxe9tQWskMJDE32p2u0mYRlynqI
4uJEvlz36hz1
-----END CERTIFICATE-----

