===========================================
Certificate0: 2f3d743c3627324a11549a9e5cfd1845e6dfdd63771509f0903456411c60bda8
===========================================
Certificate:
    Data:
        Version: 3 (0x2)
        Serial Number:
            8c:7f:32:24:e1:a7:ab:96:00:00:00:00:50:ed:50:f3
        Signature Algorithm: sha256WithRSAEncryption
        Issuer: C = US, O = "Entrust, Inc.", OU = See www.entrust.net/legal-terms, OU = "(c) 2012 Entrust, Inc. - for authorized use only", CN = Entrust Certification Authority - L1K
        Validity
            Not Before: Feb  7 17:50:22 2019 GMT
            Not After : Feb  7 18:20:21 2020 GMT
        Subject: C = US, ST = Washington, L = Vancouver, O = "Nautilus, Inc.", CN = Treadclimber.com
        Subject Public Key Info:
            Public Key Algorithm: rsaEncryption
                RSA Public-Key: (2048 bit)
                Modulus:
                    00:c5:4a:d9:1b:cb:70:54:d7:7d:57:83:53:8e:22:
                    ad:aa:d2:41:4a:b7:39:4e:7f:99:66:a9:7e:4f:2b:
                    a7:ed:17:4c:da:3b:8d:07:bd:f1:90:0b:8d:05:4d:
                    e0:dc:3c:19:ef:2e:fe:a3:38:30:c4:9e:8d:56:34:
                    91:fe:25:65:8d:ad:46:a2:f1:fb:d0:5f:63:73:8d:
                    29:f8:09:f6:9c:4d:10:5e:63:5e:bf:66:24:0c:70:
                    3b:88:8f:f4:c6:ee:8f:31:68:05:0e:89:7a:7a:96:
                    3a:2b:50:71:97:d3:a0:f1:95:49:11:e2:f9:c8:78:
                    54:63:e8:6a:db:96:87:2d:de:18:ea:f2:43:4c:8d:
                    3f:a5:76:27:fa:d9:e3:25:ba:96:60:9c:9a:9a:a9:
                    d3:37:3c:9c:49:28:f4:54:ce:c0:2a:e1:ce:9f:de:
                    f8:b5:3f:d9:1c:aa:9c:3c:9c:d0:f7:67:84:3a:3a:
                    bf:19:bf:e2:44:b3:13:3a:d5:94:f3:db:eb:67:7e:
                    da:50:9a:4a:40:e9:46:f6:5f:65:b5:21:ae:e2:4e:
                    4d:02:fe:33:7f:b3:aa:0c:9c:cf:97:44:fe:28:15:
                    64:26:ca:fb:07:8c:4f:40:b9:df:f5:fb:7b:e4:81:
                    0e:85:16:4b:7e:80:74:df:62:3a:dd:1e:30:e8:11:
                    3a:bf
                Exponent: 65537 (0x10001)
        X509v3 extensions:
            X509v3 Key Usage: critical
                Digital Signature, Key Encipherment
            X509v3 Extended Key Usage: 
                TLS Web Server Authentication, TLS Web Client Authentication
            X509v3 CRL Distribution Points: 

                Full Name:
                  URI:http://crl.entrust.net/level1k.crl

            X509v3 Certificate Policies: 
                Policy: 2.16.840.1.114028.10.1.5
                  CPS: http://www.entrust.net/rpa
                Policy: 2.23.140.1.2.2

            Authority Information Access: 
                OCSP - URI:http://ocsp.entrust.net
                CA Issuers - URI:http://aia.entrust.net/l1k-chain256.cer

            X509v3 Subject Alternative Name: 
                DNS:Treadclimber.com, DNS:www.Treadclimber.com, DNS:bowflexcatalog.com, DNS:www.bowflexcatalog.com, DNS:bowflexhomegyms.com, DNS:www.bowflexhomegyms.com, DNS:bowflexmaxtrainer.com, DNS:www.bowflexmaxtrainer.com, DNS:bowflexselecttech.com, DNS:www.bowflexselecttech.com, DNS:bowflexhvt.com, DNS:www.bowflexhvt.com, DNS:meethvt.com, DNS:www.meethvt.com, DNS:universalhomefitness.com, DNS:www.universalhomefitness.com, DNS:bowflexmaxtrainer.ca, DNS:www.bowflexmaxtrainer.ca, DNS:treadclimber.ca, DNS:www.treadclimber.ca
            X509v3 Authority Key Identifier: 
                keyid:82:A2:70:74:DD:BC:53:3F:CF:7B:D4:F7:CD:7F:A7:60:C6:0A:4C:BF

            X509v3 Subject Key Identifier: 
                DB:F8:04:79:71:73:4C:9D:47:E0:52:C2:8A:24:7E:C4:A6:14:D2:90
            X509v3 Basic Constraints: 
                CA:FALSE
    Signature Algorithm: sha256WithRSAEncryption
         29:86:2a:a0:6f:bf:b7:3b:7e:9e:c3:e1:bb:28:9f:45:9f:0d:
         97:fc:24:a0:9c:28:6e:7c:50:3d:c2:ee:24:50:d1:c3:55:79:
         7b:10:94:50:4c:47:91:f5:f7:b3:d9:05:62:73:26:6f:8d:8e:
         18:b5:44:ae:55:32:0d:9d:12:36:a5:3b:df:d0:c1:07:7b:f4:
         a5:8b:7a:64:b6:8b:d1:de:4f:fb:6e:64:a1:e8:95:f4:69:d7:
         d3:f3:5c:75:ff:24:da:4e:e5:94:4d:e2:06:dc:87:de:2f:48:
         fe:69:8e:77:ac:7f:3c:6b:cc:57:08:a7:9a:c7:9d:b3:37:9b:
         0a:a6:54:0c:a4:08:e8:95:63:73:95:c5:d5:5a:7e:41:57:d2:
         a7:ca:45:ba:2c:4d:46:00:2d:3d:95:02:e2:34:08:91:43:7b:
         c5:aa:e1:af:cd:f1:f4:f4:b6:e2:43:f6:8d:ff:2d:7a:26:13:
         f8:99:be:77:92:90:b9:86:5f:93:2c:c6:61:37:56:0f:2a:1b:
         ed:ad:68:fc:16:aa:ef:b6:3e:3e:3c:97:b6:8e:e2:72:ef:cc:
         47:9a:4c:e6:55:ea:b7:81:60:bf:d7:c4:23:a8:06:6e:02:0f:
         85:2b:70:8c:0a:3d:fc:5c:be:21:46:e8:33:0f:dd:18:d3:ad:
         8b:d0:b6:6a

-----BEGIN CERTIFICATE-----
MIIG4zCCBcugAwIBAgIRAIx/MiThp6uWAAAAAFDtUPMwDQYJKoZIhvcNAQELBQAw
gboxCzAJBgNVBAYTAlVTMRYwFAYDVQQKEw1FbnRydXN0LCBJbmMuMSgwJgYDVQQL
Ex9TZWUgd3d3LmVudHJ1c3QubmV0L2xlZ2FsLXRlcm1zMTkwNwYDVQQLEzAoYykg
MjAxMiBFbnRydXN0LCBJbmMuIC0gZm9yIGF1dGhvcml6ZWQgdXNlIG9ubHkxLjAs
BgNVBAMTJUVudHJ1c3QgQ2VydGlmaWNhdGlvbiBBdXRob3JpdHkgLSBMMUswHhcN
MTkwMjA3MTc1MDIyWhcNMjAwMjA3MTgyMDIxWjBqMQswCQYDVQQGEwJVUzETMBEG
A1UECBMKV2FzaGluZ3RvbjESMBAGA1UEBxMJVmFuY291dmVyMRcwFQYDVQQKEw5O
YXV0aWx1cywgSW5jLjEZMBcGA1UEAxMQVHJlYWRjbGltYmVyLmNvbTCCASIwDQYJ
KoZIhvcNAQEBBQADggEPADCCAQoCggEBAMVK2RvLcFTXfVeDU44irarSQUq3OU5/
mWapfk8rp+0XTNo7jQe98ZALjQVN4Nw8Ge8u/qM4MMSejVY0kf4lZY2tRqLx+9Bf
Y3ONKfgJ9pxNEF5jXr9mJAxwO4iP9MbujzFoBQ6JenqWOitQcZfToPGVSRHi+ch4
VGPoatuWhy3eGOryQ0yNP6V2J/rZ4yW6lmCcmpqp0zc8nEko9FTOwCrhzp/e+LU/
2RyqnDyc0PdnhDo6vxm/4kSzEzrVlPPb62d+2lCaSkDpRvZfZbUhruJOTQL+M3+z
qgycz5dE/igVZCbK+weMT0C53/X7e+SBDoUWS36AdN9iOt0eMOgROr8CAwEAAaOC
AzEwggMtMA4GA1UdDwEB/wQEAwIFoDAdBgNVHSUEFjAUBggrBgEFBQcDAQYIKwYB
BQUHAwIwMwYDVR0fBCwwKjAooCagJIYiaHR0cDovL2NybC5lbnRydXN0Lm5ldC9s
ZXZlbDFrLmNybDBLBgNVHSAERDBCMDYGCmCGSAGG+mwKAQUwKDAmBggrBgEFBQcC
ARYaaHR0cDovL3d3dy5lbnRydXN0Lm5ldC9ycGEwCAYGZ4EMAQICMGgGCCsGAQUF
BwEBBFwwWjAjBggrBgEFBQcwAYYXaHR0cDovL29jc3AuZW50cnVzdC5uZXQwMwYI
KwYBBQUHMAKGJ2h0dHA6Ly9haWEuZW50cnVzdC5uZXQvbDFrLWNoYWluMjU2LmNl
cjCCAcMGA1UdEQSCAbowggG2ghBUcmVhZGNsaW1iZXIuY29tghR3d3cuVHJlYWRj
bGltYmVyLmNvbYISYm93ZmxleGNhdGFsb2cuY29tghZ3d3cuYm93ZmxleGNhdGFs
b2cuY29tghNib3dmbGV4aG9tZWd5bXMuY29tghd3d3cuYm93ZmxleGhvbWVneW1z
LmNvbYIVYm93ZmxleG1heHRyYWluZXIuY29tghl3d3cuYm93ZmxleG1heHRyYWlu
ZXIuY29tghVib3dmbGV4c2VsZWN0dGVjaC5jb22CGXd3dy5ib3dmbGV4c2VsZWN0
dGVjaC5jb22CDmJvd2ZsZXhodnQuY29tghJ3d3cuYm93ZmxleGh2dC5jb22CC21l
ZXRodnQuY29tgg93d3cubWVldGh2dC5jb22CGHVuaXZlcnNhbGhvbWVmaXRuZXNz
LmNvbYIcd3d3LnVuaXZlcnNhbGhvbWVmaXRuZXNzLmNvbYIUYm93ZmxleG1heHRy
YWluZXIuY2GCGHd3dy5ib3dmbGV4bWF4dHJhaW5lci5jYYIPdHJlYWRjbGltYmVy
LmNhghN3d3cudHJlYWRjbGltYmVyLmNhMB8GA1UdIwQYMBaAFIKicHTdvFM/z3vU
981/p2DGCky/MB0GA1UdDgQWBBTb+AR5cXNMnUfgUsKKJH7EphTSkDAJBgNVHRME
AjAAMA0GCSqGSIb3DQEBCwUAA4IBAQAphiqgb7+3O36ew+G7KJ9Fnw2X/CSgnChu
fFA9wu4kUNHDVXl7EJRQTEeR9fez2QVicyZvjY4YtUSuVTINnRI2pTvf0MEHe/Sl
i3pktovR3k/7bmSh6JX0adfT81x1/yTaTuWUTeIG3IfeL0j+aY53rH88a8xXCKea
x52zN5sKplQMpAjolWNzlcXVWn5BV9KnykW6LE1GAC09lQLiNAiRQ3vFquGvzfH0
9LbiQ/aN/y16JhP4mb53kpC5hl+TLMZhN1YPKhvtrWj8Fqrvtj4+PJe2juJy78xH
mkzmVeq3gWC/18QjqAZuAg+FK3CMCj38XL4hRugzD90Y062L0LZq
-----END CERTIFICATE-----

===========================================
Certificate1: d6c3fc493bacd1df8a1ba30f4ae26254b2a4528e4876081eacc6a16a090aa36a
===========================================
Certificate:
    Data:
        Version: 3 (0x2)
        Serial Number: 1372455166 (0x51ce00fe)
        Signature Algorithm: sha256WithRSAEncryption
        Issuer: O = Entrust.net, OU = www.entrust.net/CPS_2048 incorp. by ref. (limits liab.), OU = (c) 1999 Entrust.net Limited, CN = Entrust.net Certification Authority (2048)
        Validity
            Not Before: Oct 10 15:23:17 2014 GMT
            Not After : Oct 11 06:22:47 2024 GMT
        Subject: C = US, O = "Entrust, Inc.", OU = See www.entrust.net/legal-terms, OU = "(c) 2012 Entrust, Inc. - for authorized use only", CN = Entrust Certification Authority - L1K
        Subject Public Key Info:
            Public Key Algorithm: rsaEncryption
                RSA Public-Key: (2048 bit)
                Modulus:
                    00:da:3f:96:d0:4d:b9:2f:44:e7:db:39:5e:9b:50:
                    ee:5c:a5:61:da:41:67:53:09:aa:00:9a:8e:57:7f:
                    29:6b:db:c7:e1:21:24:aa:3a:d0:8d:47:23:d2:ed:
                    72:16:f0:91:21:d2:5d:b7:b8:4b:a8:83:8f:b7:91:
                    32:68:cf:ce:25:93:2c:b2:7d:97:c8:fe:c1:b4:17:
                    ba:09:9e:03:90:93:7b:7c:49:83:22:68:8a:9b:de:
                    47:c3:31:98:7a:2e:7d:40:0b:d2:ef:3e:d3:b2:8c:
                    aa:8f:48:a9:ff:00:e8:29:58:06:f7:b6:93:5a:94:
                    73:26:26:ad:58:0e:e5:42:b8:d5:ea:73:79:64:68:
                    53:25:b8:84:cf:94:7a:ae:06:45:0c:a3:6b:4d:d0:
                    c6:be:ea:18:a4:36:f0:92:b2:ba:1c:88:8f:3a:52:
                    7f:f7:5e:6d:83:1c:9d:f0:1f:e5:c3:d6:dd:a5:78:
                    92:3d:b0:6d:2c:ea:c9:cf:94:41:19:71:44:68:ba:
                    47:3c:04:e9:5d:ba:3e:f0:35:f7:15:b6:9e:f2:2e:
                    15:1e:3f:47:c8:c8:38:a7:73:45:5d:4d:b0:3b:b1:
                    8e:17:29:37:ea:dd:05:01:22:bb:94:36:2a:8d:5b:
                    35:fe:53:19:2f:08:46:c1:2a:b3:1a:62:1d:4e:2b:
                    d9:1b
                Exponent: 65537 (0x10001)
        X509v3 extensions:
            X509v3 Key Usage: critical
                Certificate Sign, CRL Sign
            X509v3 Basic Constraints: critical
                CA:TRUE, pathlen:0
            Authority Information Access: 
                OCSP - URI:http://ocsp.entrust.net

            X509v3 CRL Distribution Points: 

                Full Name:
                  URI:http://crl.entrust.net/2048ca.crl

            X509v3 Certificate Policies: 
                Policy: X509v3 Any Policy
                  CPS: http://www.entrust.net/rpa

            X509v3 Subject Key Identifier: 
                82:A2:70:74:DD:BC:53:3F:CF:7B:D4:F7:CD:7F:A7:60:C6:0A:4C:BF
            X509v3 Authority Key Identifier: 
                keyid:55:E4:81:D1:11:80:BE:D8:89:B9:08:A3:31:F9:A1:24:09:16:B9:70

    Signature Algorithm: sha256WithRSAEncryption
         58:42:71:c1:3e:29:16:6e:75:58:77:b5:65:4d:9e:29:f5:ae:
         0b:1c:18:f9:a3:08:43:75:ef:7d:6d:f1:92:ea:fe:ce:68:5c:
         e2:1f:be:a5:af:1a:4c:aa:83:3b:5f:a2:47:46:f7:7c:9e:c1:
         83:c4:7a:24:b0:e9:cc:e9:a2:9a:07:09:e8:1e:1d:77:56:49:
         fc:53:73:a8:47:cc:c9:2d:5a:60:34:a7:1a:0b:e5:2b:b8:df:
         ef:82:4a:dd:70:5e:10:18:08:3b:5d:dc:8a:84:3d:68:d8:00:
         b4:c4:9e:43:78:4b:5e:f0:62:6a:8c:90:66:53:8a:ac:c5:7d:
         58:ff:4e:a9:ad:d7:a4:ca:12:47:29:e5:f3:22:21:40:32:60:
         da:3a:fe:92:54:1e:43:a1:0d:a9:52:37:60:bf:87:c4:a1:c7:
         78:d5:87:1e:e5:77:e3:5f:5b:dc:71:6d:ba:44:87:31:05:80:
         58:0b:c5:de:74:28:81:83:08:84:d0:c8:46:5a:fe:8a:c6:bd:
         a9:0e:3b:64:78:6d:26:dc:3c:4c:f7:81:5c:3c:11:7f:25:3a:
         93:62:a5:a3:91:05:25:23:73:b4:cd:ce:cc:39:a4:03:78:30:
         66:46:5e:a9:75:b0:b4:67:03:a9:b1:9f:57:f0:d3:76:cf:e1:
         93:e8:80:a2

-----BEGIN CERTIFICATE-----
MIIE/jCCA+agAwIBAgIEUc4A/jANBgkqhkiG9w0BAQsFADCBtDEUMBIGA1UEChML
RW50cnVzdC5uZXQxQDA+BgNVBAsUN3d3dy5lbnRydXN0Lm5ldC9DUFNfMjA0OCBp
bmNvcnAuIGJ5IHJlZi4gKGxpbWl0cyBsaWFiLikxJTAjBgNVBAsTHChjKSAxOTk5
IEVudHJ1c3QubmV0IExpbWl0ZWQxMzAxBgNVBAMTKkVudHJ1c3QubmV0IENlcnRp
ZmljYXRpb24gQXV0aG9yaXR5ICgyMDQ4KTAeFw0xNDEwMTAxNTIzMTdaFw0yNDEw
MTEwNjIyNDdaMIG6MQswCQYDVQQGEwJVUzEWMBQGA1UEChMNRW50cnVzdCwgSW5j
LjEoMCYGA1UECxMfU2VlIHd3dy5lbnRydXN0Lm5ldC9sZWdhbC10ZXJtczE5MDcG
A1UECxMwKGMpIDIwMTIgRW50cnVzdCwgSW5jLiAtIGZvciBhdXRob3JpemVkIHVz
ZSBvbmx5MS4wLAYDVQQDEyVFbnRydXN0IENlcnRpZmljYXRpb24gQXV0aG9yaXR5
IC0gTDFLMIIBIjANBgkqhkiG9w0BAQEFAAOCAQ8AMIIBCgKCAQEA2j+W0E25L0Tn
2zlem1DuXKVh2kFnUwmqAJqOV38pa9vH4SEkqjrQjUcj0u1yFvCRIdJdt7hLqIOP
t5EyaM/OJZMssn2XyP7BtBe6CZ4DkJN7fEmDImiKm95HwzGYei59QAvS7z7Tsoyq
j0ip/wDoKVgG97aTWpRzJiatWA7lQrjV6nN5ZGhTJbiEz5R6rgZFDKNrTdDGvuoY
pDbwkrK6HIiPOlJ/915tgxyd8B/lw9bdpXiSPbBtLOrJz5RBGXFEaLpHPATpXbo+
8DX3Fbae8i4VHj9HyMg4p3NFXU2wO7GOFyk36t0FASK7lDYqjVs1/lMZLwhGwSqz
GmIdTivZGwIDAQABo4IBDjCCAQowDgYDVR0PAQH/BAQDAgEGMBIGA1UdEwEB/wQI
MAYBAf8CAQAwMwYIKwYBBQUHAQEEJzAlMCMGCCsGAQUFBzABhhdodHRwOi8vb2Nz
cC5lbnRydXN0Lm5ldDAyBgNVHR8EKzApMCegJaAjhiFodHRwOi8vY3JsLmVudHJ1
c3QubmV0LzIwNDhjYS5jcmwwOwYDVR0gBDQwMjAwBgRVHSAAMCgwJgYIKwYBBQUH
AgEWGmh0dHA6Ly93d3cuZW50cnVzdC5uZXQvcnBhMB0GA1UdDgQWBBSConB03bxT
P8971PfNf6dgxgpMvzAfBgNVHSMEGDAWgBRV5IHREYC+2Im5CKMx+aEkCRa5cDAN
BgkqhkiG9w0BAQsFAAOCAQEAWEJxwT4pFm51WHe1ZU2eKfWuCxwY+aMIQ3XvfW3x
kur+zmhc4h++pa8aTKqDO1+iR0b3fJ7Bg8R6JLDpzOmimgcJ6B4dd1ZJ/FNzqEfM
yS1aYDSnGgvlK7jf74JK3XBeEBgIO13cioQ9aNgAtMSeQ3hLXvBiaoyQZlOKrMV9
WP9Oqa3XpMoSRynl8yIhQDJg2jr+klQeQ6ENqVI3YL+HxKHHeNWHHuV3419b3HFt
ukSHMQWAWAvF3nQogYMIhNDIRlr+isa9qQ47ZHhtJtw8TPeBXDwRfyU6k2Klo5EF
JSNztM3OzDmkA3gwZkZeqXWwtGcDqbGfV/DTds/hk+iAog==
-----END CERTIFICATE-----

