-----BEGIN PRIVATE KEY-----
MIIEvQIBADANBgkqhkiG9w0BAQEFAASCBKcwggSjAgEAAoIBAQCtHZTAxIAlCLF+
VUYlvmW9wv+VjrU1xuPIRo/NIzyEzuyB7yFVlI+/oaEnZNlW5f2g+nPEsFKCdre9
A7K87eht+B8RYDowTdQqfgODOEIOWZ8MTL1WqenW+DKl6xNnVQKog6TdC9+hD/AY
YTin94DuHr2VC2zvEzrjspq7kf+FlTjU+MT86toS/t+cLhBpwBPbLmH18LEs5999
aEdUtFZwcJMTQT1i9PqYpNwiDKT9fIhMDIoa9CumyY+gT7tQ+tGlojNQICswU99U
LiS2KIg1JxFQ/KJoproTnFuxgwQAg7iGmJx/OtcXdus7HdO6mIEF/Q4l75KHaDWp
bRTl92G9AgMBAAECggEAepmBeIdxLUkb0pl3pVFS4nIP6Y34fY5OUM7QFnqG6JNW
4apF1ELzDsbbx3dfiHA3D+NvS3OH64dCFqVg1vYx7neTIQ4iB4WG5VT7DdowxdLo
laBfUtnglnKOA/0Yb8y/pjIc9sLq7DjKU6m+ow3gjELPBpfh3OqkgQ9DD+WUrbfW
0zTRKPuKnz5xfs2Lv6kUz7AriePGt2pf860WMGqzRwGZ+968seXiKZLPWToDu7l5
42YN8JAtDIwwe+87fp9Hxzv+sqembnl7Je8yklk6aCcNxg2zNfcWWCDvzV4YQ3FK
ocONxFXFipKk3dHx9G04AEC6uYqhMSyQlev9Rt/zoQKBgQDc2jbPmru5PmqGHtLa
Ih8KAvGcywSQsLqP2KbmDBR9Ajs9+yHa9IqNZPfE98fNtiiDSjEyOI0fZq3YHaLg
BZzFsrn4UuTJJYPX3rJBc1TmsS8aZ8RkqiVhWBdKasAPBDUUWEaWxbqAXhKjgrNw
K7xNmFASk7f1UjLvVE0LXd55dQKBgQDIqoMC6iXMQP7i/TW8P9jrvy3/dnVFdhN9
d7sFasApdwGsJVb5XWWIqA62lcdi+0sNnMgw4SZbPJlWLgcDiahJJe8hhQbHgLYK
j90VIYYl1FXUvZ2RjpgiwTR2I+iPPAyNRiFxVLiYEn8sGckDDEDG+eiDg9jOZ0aB
0Q3cprJ2KQKBgQCgzen2wy1INeAOA8d2uD1tZrNRfKi4SVWtgwwSmF0aoFNOT9pY
uJFhXlDhg6Bhce6RmaW0cWSfpn2RzBJZlvyNHhM2cfTPWJdkyGt2KGl7ByvKyB9B
RHmvJRrgPlXVGTUkuRm8kf+3k8dycqoAVHfo76vtuszIvK8Ff5YRXqmsOQKBgGe8
fm4LTe8BysLd0+G1wBZfhxAB1S5LlFfQhcaPIThOZXbw9r2DIvI6ryCE3ca10l7/
Jh7exk10TnDW6plRmMX37l+Nvat1Rqa/KLO72PXFh3mrbMHKzatp5g0NEzS4/mQq
VS+ZdLRpG4VY7ym8M+CpYSJcDsDlcvW5dUkUhD3BAoGAWskpxGJtWs5MaxrCA7Cs
XFMA4kFzdavnEQXtdm3VkdlrpJW04Yt6YLSVzeLsfZdK8x7RAiIrsTwSRHnYjCBJ
PTUU5ibJPFj7pKEJkXnAYJy41fzbLHUuL+X8liKms1pXJmcbUVPZq+eem/J3omls
CgleVqA09PTkNcz+Xy6KQpY=
-----END PRIVATE KEY-----
Certificate:
    Data:
        Version: 3 (0x2)
        Serial Number:
            cf:95:70:1c:b6:6c:07:bb:a4:de:63:24:47:3b:4e:c3
        Signature Algorithm: sha256WithRSAEncryption
        Issuer: C=US, ST=California, L=Mountain View, O=Test CA, CN=Test Root CA
        Validity
            Not Before: Oct 30 18:43:14 2023 GMT
            Not After : Oct 27 18:43:14 2033 GMT
        Subject: C=US, ST=California, L=Mountain View, O=Test CA, CN=127.0.0.1
        Subject Public Key Info:
            Public Key Algorithm: rsaEncryption
                Public-Key: (2048 bit)
                Modulus:
                    00:ad:1d:94:c0:c4:80:25:08:b1:7e:55:46:25:be:
                    65:bd:c2:ff:95:8e:b5:35:c6:e3:c8:46:8f:cd:23:
                    3c:84:ce:ec:81:ef:21:55:94:8f:bf:a1:a1:27:64:
                    d9:56:e5:fd:a0:fa:73:c4:b0:52:82:76:b7:bd:03:
                    b2:bc:ed:e8:6d:f8:1f:11:60:3a:30:4d:d4:2a:7e:
                    03:83:38:42:0e:59:9f:0c:4c:bd:56:a9:e9:d6:f8:
                    32:a5:eb:13:67:55:02:a8:83:a4:dd:0b:df:a1:0f:
                    f0:18:61:38:a7:f7:80:ee:1e:bd:95:0b:6c:ef:13:
                    3a:e3:b2:9a:bb:91:ff:85:95:38:d4:f8:c4:fc:ea:
                    da:12:fe:df:9c:2e:10:69:c0:13:db:2e:61:f5:f0:
                    b1:2c:e7:df:7d:68:47:54:b4:56:70:70:93:13:41:
                    3d:62:f4:fa:98:a4:dc:22:0c:a4:fd:7c:88:4c:0c:
                    8a:1a:f4:2b:a6:c9:8f:a0:4f:bb:50:fa:d1:a5:a2:
                    33:50:20:2b:30:53:df:54:2e:24:b6:28:88:35:27:
                    11:50:fc:a2:68:a6:ba:13:9c:5b:b1:83:04:00:83:
                    b8:86:98:9c:7f:3a:d7:17:76:eb:3b:1d:d3:ba:98:
                    81:05:fd:0e:25:ef:92:87:68:35:a9:6d:14:e5:f7:
                    61:bd
                Exponent: 65537 (0x10001)
        X509v3 extensions:
            X509v3 Basic Constraints: critical
                CA:FALSE
            X509v3 Subject Key Identifier: 
                E7:1B:C5:0D:E7:ED:C7:2B:2E:95:91:40:77:5A:57:DE:1C:F4:D7:FE
            X509v3 Authority Key Identifier: 
                9B:26:0B:8A:98:A9:BB:1D:B9:1F:1C:E3:1A:40:33:ED:8E:17:88:AB
            X509v3 Extended Key Usage: 
                TLS Web Server Authentication, TLS Web Client Authentication
            X509v3 Subject Alternative Name: 
                DNS:*.example.org
    Signature Algorithm: sha256WithRSAEncryption
    Signature Value:
        30:13:bf:ef:74:a5:df:c1:20:0b:49:40:39:de:d6:39:6f:18:
        cc:b4:1e:04:9b:cc:54:75:79:9f:b3:46:48:58:df:ad:58:b5:
        ce:8d:7f:e6:5e:8f:01:fc:48:42:04:e4:34:9b:e9:d8:15:ca:
        9a:db:3e:c5:41:e9:22:80:0a:a9:32:ab:57:d2:f1:1b:5f:35:
        79:45:97:12:76:41:12:df:26:d4:17:d7:36:0c:21:1c:c8:f4:
        8b:c6:6c:12:03:4e:87:fb:36:71:14:98:36:f9:fc:c0:51:50:
        e0:27:73:03:fa:6f:39:90:43:a0:0f:ae:96:e6:56:cb:0d:75:
        22:70:a7:b9:86:c0:8e:6b:77:69:5f:90:b2:68:50:22:32:8e:
        93:44:e0:7a:28:c3:d8:01:35:c5:69:d1:85:c2:11:96:2b:c4:
        f3:ff:43:18:a9:50:e1:04:64:e3:84:1f:f1:aa:42:80:06:78:
        77:f8:a5:4e:e9:27:5b:59:e8:03:06:3e:51:0f:db:eb:43:91:
        8a:0b:f1:8a:43:71:84:85:b0:7e:fd:08:ca:21:75:a4:a8:9d:
        43:3d:ed:e2:e4:30:72:ac:cc:68:9d:93:68:5a:dd:4e:c3:ca:
        eb:15:02:e4:a6:c4:72:ae:f4:1c:7e:b8:58:eb:99:98:17:2a:
        1d:23:4e:7c
-----BEGIN CERTIFICATE-----
MIID2TCCAsGgAwIBAgIRAM+VcBy2bAe7pN5jJEc7TsMwDQYJKoZIhvcNAQELBQAw
YzELMAkGA1UEBhMCVVMxEzARBgNVBAgMCkNhbGlmb3JuaWExFjAUBgNVBAcMDU1v
dW50YWluIFZpZXcxEDAOBgNVBAoMB1Rlc3QgQ0ExFTATBgNVBAMMDFRlc3QgUm9v
dCBDQTAeFw0yMzEwMzAxODQzMTRaFw0zMzEwMjcxODQzMTRaMGAxCzAJBgNVBAYT
AlVTMRMwEQYDVQQIDApDYWxpZm9ybmlhMRYwFAYDVQQHDA1Nb3VudGFpbiBWaWV3
MRAwDgYDVQQKDAdUZXN0IENBMRIwEAYDVQQDDAkxMjcuMC4wLjEwggEiMA0GCSqG
SIb3DQEBAQUAA4IBDwAwggEKAoIBAQCtHZTAxIAlCLF+VUYlvmW9wv+VjrU1xuPI
Ro/NIzyEzuyB7yFVlI+/oaEnZNlW5f2g+nPEsFKCdre9A7K87eht+B8RYDowTdQq
fgODOEIOWZ8MTL1WqenW+DKl6xNnVQKog6TdC9+hD/AYYTin94DuHr2VC2zvEzrj
spq7kf+FlTjU+MT86toS/t+cLhBpwBPbLmH18LEs5999aEdUtFZwcJMTQT1i9PqY
pNwiDKT9fIhMDIoa9CumyY+gT7tQ+tGlojNQICswU99ULiS2KIg1JxFQ/KJoproT
nFuxgwQAg7iGmJx/OtcXdus7HdO6mIEF/Q4l75KHaDWpbRTl92G9AgMBAAGjgYow
gYcwDAYDVR0TAQH/BAIwADAdBgNVHQ4EFgQU5xvFDeftxysulZFAd1pX3hz01/4w
HwYDVR0jBBgwFoAUmyYLipipux25HxzjGkAz7Y4XiKswHQYDVR0lBBYwFAYIKwYB
BQUHAwEGCCsGAQUFBwMCMBgGA1UdEQQRMA+CDSouZXhhbXBsZS5vcmcwDQYJKoZI
hvcNAQELBQADggEBADATv+90pd/BIAtJQDne1jlvGMy0HgSbzFR1eZ+zRkhY361Y
tc6Nf+ZejwH8SEIE5DSb6dgVyprbPsVB6SKACqkyq1fS8RtfNXlFlxJ2QRLfJtQX
1zYMIRzI9IvGbBIDTof7NnEUmDb5/MBRUOAncwP6bzmQQ6APrpbmVssNdSJwp7mG
wI5rd2lfkLJoUCIyjpNE4Hoow9gBNcVp0YXCEZYrxPP/QxipUOEEZOOEH/GqQoAG
eHf4pU7pJ1tZ6AMGPlEP2+tDkYoL8YpDcYSFsH79CMohdaSonUM97eLkMHKszGid
k2ha3U7DyusVAuSmxHKu9Bx+uFjrmZgXKh0jTnw=
-----END CERTIFICATE-----
