-----BEGIN PRIVATE KEY-----
MIIEvQIBADANBgkqhkiG9w0BAQEFAASCBKcwggSjAgEAAoIBAQCtHZTAxIAlCLF+
VUYlvmW9wv+VjrU1xuPIRo/NIzyEzuyB7yFVlI+/oaEnZNlW5f2g+nPEsFKCdre9
A7K87eht+B8RYDowTdQqfgODOEIOWZ8MTL1WqenW+DKl6xNnVQKog6TdC9+hD/AY
YTin94DuHr2VC2zvEzrjspq7kf+FlTjU+MT86toS/t+cLhBpwBPbLmH18LEs5999
aEdUtFZwcJMTQT1i9PqYpNwiDKT9fIhMDIoa9CumyY+gT7tQ+tGlojNQICswU99U
LiS2KIg1JxFQ/KJoproTnFuxgwQAg7iGmJx/OtcXdus7HdO6mIEF/Q4l75KHaDWp
bRTl92G9AgMBAAECggEAepmBeIdxLUkb0pl3pVFS4nIP6Y34fY5OUM7QFnqG6JNW
4apF1ELzDsbbx3dfiHA3D+NvS3OH64dCFqVg1vYx7neTIQ4iB4WG5VT7DdowxdLo
laBfUtnglnKOA/0Yb8y/pjIc9sLq7DjKU6m+ow3gjELPBpfh3OqkgQ9DD+WUrbfW
0zTRKPuKnz5xfs2Lv6kUz7AriePGt2pf860WMGqzRwGZ+968seXiKZLPWToDu7l5
42YN8JAtDIwwe+87fp9Hxzv+sqembnl7Je8yklk6aCcNxg2zNfcWWCDvzV4YQ3FK
ocONxFXFipKk3dHx9G04AEC6uYqhMSyQlev9Rt/zoQKBgQDc2jbPmru5PmqGHtLa
Ih8KAvGcywSQsLqP2KbmDBR9Ajs9+yHa9IqNZPfE98fNtiiDSjEyOI0fZq3YHaLg
BZzFsrn4UuTJJYPX3rJBc1TmsS8aZ8RkqiVhWBdKasAPBDUUWEaWxbqAXhKjgrNw
K7xNmFASk7f1UjLvVE0LXd55dQKBgQDIqoMC6iXMQP7i/TW8P9jrvy3/dnVFdhN9
d7sFasApdwGsJVb5XWWIqA62lcdi+0sNnMgw4SZbPJlWLgcDiahJJe8hhQbHgLYK
j90VIYYl1FXUvZ2RjpgiwTR2I+iPPAyNRiFxVLiYEn8sGckDDEDG+eiDg9jOZ0aB
0Q3cprJ2KQKBgQCgzen2wy1INeAOA8d2uD1tZrNRfKi4SVWtgwwSmF0aoFNOT9pY
uJFhXlDhg6Bhce6RmaW0cWSfpn2RzBJZlvyNHhM2cfTPWJdkyGt2KGl7ByvKyB9B
RHmvJRrgPlXVGTUkuRm8kf+3k8dycqoAVHfo76vtuszIvK8Ff5YRXqmsOQKBgGe8
fm4LTe8BysLd0+G1wBZfhxAB1S5LlFfQhcaPIThOZXbw9r2DIvI6ryCE3ca10l7/
Jh7exk10TnDW6plRmMX37l+Nvat1Rqa/KLO72PXFh3mrbMHKzatp5g0NEzS4/mQq
VS+ZdLRpG4VY7ym8M+CpYSJcDsDlcvW5dUkUhD3BAoGAWskpxGJtWs5MaxrCA7Cs
XFMA4kFzdavnEQXtdm3VkdlrpJW04Yt6YLSVzeLsfZdK8x7RAiIrsTwSRHnYjCBJ
PTUU5ibJPFj7pKEJkXnAYJy41fzbLHUuL+X8liKms1pXJmcbUVPZq+eem/J3omls
CgleVqA09PTkNcz+Xy6KQpY=
-----END PRIVATE KEY-----
Certificate:
    Data:
        Version: 3 (0x2)
        Serial Number:
            5a:84:70:47:19:f5:1a:b1:2b:02:fc:31:3f:08:cd:32
        Signature Algorithm: sha256WithRSAEncryption
        Issuer: C=US, ST=California, L=Mountain View, O=Test CA, CN=Test Root CA
        Validity
            Not Before: Oct 10 20:46:12 2024 GMT
            Not After : Oct  8 20:46:12 2034 GMT
        Subject: C=US, ST=California, L=Mountain View, O=Test CA, CN=127.0.0.1
        Subject Public Key Info:
            Public Key Algorithm: rsaEncryption
                Public-Key: (2048 bit)
                Modulus:
                    00:ad:1d:94:c0:c4:80:25:08:b1:7e:55:46:25:be:
                    65:bd:c2:ff:95:8e:b5:35:c6:e3:c8:46:8f:cd:23:
                    3c:84:ce:ec:81:ef:21:55:94:8f:bf:a1:a1:27:64:
                    d9:56:e5:fd:a0:fa:73:c4:b0:52:82:76:b7:bd:03:
                    b2:bc:ed:e8:6d:f8:1f:11:60:3a:30:4d:d4:2a:7e:
                    03:83:38:42:0e:59:9f:0c:4c:bd:56:a9:e9:d6:f8:
                    32:a5:eb:13:67:55:02:a8:83:a4:dd:0b:df:a1:0f:
                    f0:18:61:38:a7:f7:80:ee:1e:bd:95:0b:6c:ef:13:
                    3a:e3:b2:9a:bb:91:ff:85:95:38:d4:f8:c4:fc:ea:
                    da:12:fe:df:9c:2e:10:69:c0:13:db:2e:61:f5:f0:
                    b1:2c:e7:df:7d:68:47:54:b4:56:70:70:93:13:41:
                    3d:62:f4:fa:98:a4:dc:22:0c:a4:fd:7c:88:4c:0c:
                    8a:1a:f4:2b:a6:c9:8f:a0:4f:bb:50:fa:d1:a5:a2:
                    33:50:20:2b:30:53:df:54:2e:24:b6:28:88:35:27:
                    11:50:fc:a2:68:a6:ba:13:9c:5b:b1:83:04:00:83:
                    b8:86:98:9c:7f:3a:d7:17:76:eb:3b:1d:d3:ba:98:
                    81:05:fd:0e:25:ef:92:87:68:35:a9:6d:14:e5:f7:
                    61:bd
                Exponent: 65537 (0x10001)
        X509v3 extensions:
            X509v3 Basic Constraints: critical
                CA:FALSE
            X509v3 Subject Key Identifier: 
                E7:1B:C5:0D:E7:ED:C7:2B:2E:95:91:40:77:5A:57:DE:1C:F4:D7:FE
            X509v3 Authority Key Identifier: 
                9B:26:0B:8A:98:A9:BB:1D:B9:1F:1C:E3:1A:40:33:ED:8E:17:88:AB
            X509v3 Extended Key Usage: 
                TLS Web Server Authentication, TLS Web Client Authentication
            X509v3 Subject Alternative Name: 
                DNS:*.example.org
    Signature Algorithm: sha256WithRSAEncryption
    Signature Value:
        15:14:95:61:e7:cb:cc:5d:a7:2f:3e:d2:47:33:26:93:fe:8e:
        dc:6a:c0:d6:46:dc:68:f7:9c:f1:0d:99:e3:3d:63:82:96:be:
        77:e8:03:fa:28:d7:d6:31:fa:7e:48:bb:1e:0e:69:a1:90:40:
        96:4c:5c:2d:8d:f3:69:f0:19:39:ee:15:b8:71:84:cc:ec:c3:
        95:1e:07:f9:d7:30:7a:0e:bf:fc:5a:53:58:54:c3:56:71:09:
        57:3b:b1:9c:9c:b8:1a:45:b7:9a:91:23:cd:f8:a8:39:d4:9a:
        22:43:01:c0:60:e9:6a:bf:bf:b7:41:a2:7a:86:6c:ff:1b:d4:
        67:f8:d6:b8:84:2d:6d:8b:23:fa:4a:8a:24:59:5a:e3:23:78:
        80:b3:d6:f1:57:1a:8e:10:32:3a:95:2d:17:51:cf:ae:20:71:
        81:d5:7a:29:29:37:4c:c2:6b:17:ff:e2:2c:b9:04:af:fd:36:
        c9:6a:37:8f:e0:63:8c:9a:27:ef:b7:6f:58:48:e1:8f:d0:d4:
        47:fc:bb:d4:69:31:ac:69:92:05:6c:3f:f7:d1:b5:92:5e:70:
        c6:78:e5:90:88:d2:de:17:a3:8a:48:a6:04:18:6f:fb:2d:cd:
        87:dc:53:b2:9e:b1:84:f5:ed:e6:11:54:94:e9:4a:db:9e:bb:
        85:27:d0:e6
-----BEGIN CERTIFICATE-----
MIID2DCCAsCgAwIBAgIQWoRwRxn1GrErAvwxPwjNMjANBgkqhkiG9w0BAQsFADBj
MQswCQYDVQQGEwJVUzETMBEGA1UECAwKQ2FsaWZvcm5pYTEWMBQGA1UEBwwNTW91
bnRhaW4gVmlldzEQMA4GA1UECgwHVGVzdCBDQTEVMBMGA1UEAwwMVGVzdCBSb290
IENBMB4XDTI0MTAxMDIwNDYxMloXDTM0MTAwODIwNDYxMlowYDELMAkGA1UEBhMC
VVMxEzARBgNVBAgMCkNhbGlmb3JuaWExFjAUBgNVBAcMDU1vdW50YWluIFZpZXcx
EDAOBgNVBAoMB1Rlc3QgQ0ExEjAQBgNVBAMMCTEyNy4wLjAuMTCCASIwDQYJKoZI
hvcNAQEBBQADggEPADCCAQoCggEBAK0dlMDEgCUIsX5VRiW+Zb3C/5WOtTXG48hG
j80jPITO7IHvIVWUj7+hoSdk2Vbl/aD6c8SwUoJ2t70Dsrzt6G34HxFgOjBN1Cp+
A4M4Qg5ZnwxMvVap6db4MqXrE2dVAqiDpN0L36EP8BhhOKf3gO4evZULbO8TOuOy
mruR/4WVONT4xPzq2hL+35wuEGnAE9suYfXwsSzn331oR1S0VnBwkxNBPWL0+pik
3CIMpP18iEwMihr0K6bJj6BPu1D60aWiM1AgKzBT31QuJLYoiDUnEVD8omimuhOc
W7GDBACDuIaYnH861xd26zsd07qYgQX9DiXvkodoNaltFOX3Yb0CAwEAAaOBijCB
hzAMBgNVHRMBAf8EAjAAMB0GA1UdDgQWBBTnG8UN5+3HKy6VkUB3WlfeHPTX/jAf
BgNVHSMEGDAWgBSbJguKmKm7HbkfHOMaQDPtjheIqzAdBgNVHSUEFjAUBggrBgEF
BQcDAQYIKwYBBQUHAwIwGAYDVR0RBBEwD4INKi5leGFtcGxlLm9yZzANBgkqhkiG
9w0BAQsFAAOCAQEAFRSVYefLzF2nLz7SRzMmk/6O3GrA1kbcaPec8Q2Z4z1jgpa+
d+gD+ijX1jH6fki7Hg5poZBAlkxcLY3zafAZOe4VuHGEzOzDlR4H+dcweg6//FpT
WFTDVnEJVzuxnJy4GkW3mpEjzfioOdSaIkMBwGDpar+/t0GieoZs/xvUZ/jWuIQt
bYsj+kqKJFla4yN4gLPW8VcajhAyOpUtF1HPriBxgdV6KSk3TMJrF//iLLkEr/02
yWo3j+BjjJon77dvWEjhj9DUR/y71GkxrGmSBWw/99G1kl5wxnjlkIjS3hejikim
BBhv+y3Nh9xTsp6xhPXt5hFUlOlK2567hSfQ5g==
-----END CERTIFICATE-----
