-----BEGIN PRIVATE KEY-----
MIIEvQIBADANBgkqhkiG9w0BAQEFAASCBKcwggSjAgEAAoIBAQCdXn3erLvkrUMc
iNA7fuk/Y+9sTYdtHY5qStRE6O1CBB4hQWeaeUHxJm1tyP21xgfeplSEaA+nLLDc
76hGv+hb6hA6NtlNbi234h3FxtBqXgyUSqoR4uCydadAh7Q4BHBPALPue4ySPH/0
iIb2f7UThbJTaGpqnSx2VfMSoPkE53w1itSwTJZGJKiAhD0ieZgY/ubr6OL1zWiR
U5o4Yykcbgzgds012CRoBBBY6HlbddJ+hczElnEFAbrcOgkRnKC7w0wpKvnuc+WL
4IVVAxWGm1FrCD22H/aO2a+s+CDw6NelX39BobIcKP9KDAbdNxhzGMbKKRLckkPj
K12fXTJjAgMBAAECggEALFzV6O8S7M03LRUYdp05TchzVzmn4sfBPQ+pNV/georE
n6Vben2SbFPj514Qv6x6zXZgPw9C0mLT3QSmkINLEpYySubpbV2Q/9R7hiSc3k9z
Bl7iALbPlx95rcRTtrLxoiPVlXY404TAoYPXYCfyOPWopsC5tyJlxVpHcsn0SUAz
ZVqTRxbxYMSRiMaa1uMQZF3zBShDjxfA1VWr2KLc9a/glz1GnRNbWX6lDvg6zMcc
OS0XsuKTfZbxn3Jb9gqOaoTpxN5feeTOeExl/JVn5xQ0OYNkCD8qxK3PD3mnwJj3
zoL6TV5lqL7JeXcTgVBlhhsx2u4MVWM3hAg0sPz86QKBgQDKYOHkJwaHPKCj8FwZ
6jCydJyy/8g90h7I4o3tUQN5MYBrWb5rSa0TjcfloUOHtrXMPyTzdzikIQQ7mvNr
xuK67s5coMQqQeGPkf60YlD3Y2RYzhDI+b9bREJldthhZu0TtTozauJuv51SYEDF
baHEhyaf5OqzKmMFKlofLV4WFwKBgQDHEKxP1RuKUrFk1XALa9w3VZ5Adgm3Zbtm
iXonlea2DGv8MCj/MIz/hR0+xe0q4omqQ4RdbML2QAiJrv4KvUVtSf5sZbd3KyW8
ptr7IK4l4/jOcAyJwuMfEcVk79HbeGdCTaOPUMWtpznuunrjURKQ0HVYri3TTyTh
swsECYXBlQKBgD3Obs6N+Jlus6S9sHMdqbemk4C7Sz1OIaa6QhwbJNNrgcvHQbdk
bd5N66G+qXAWJdl142QTohHGH5PQk8zzlaT/b7isRJyfODLvpHkUmaOkEC5q6Ido
dr95zklMjXLZy0e8jkTLvNGT5YkV6lIhVEk/+VTVxbPoGwulzpY89cILAoGAYbbz
fnSTgkC5R0/mIhUeEiN6/RV0C4xqgxi0172jdHWAhFh3p1yDueHzyx6JHuX4wZVG
4j1DLnGcP0mg9lCWReFufHMprduGOKaHE4KlOYBAX8VswiriJhwpEzUNhHgD5+4I
fY8emfFeZKsxK2hefqt1DsThRbqx1gB3RdIO0EkCgYEAgZppkUS5wU+zK0OeAy3d
pjP6Hphwgg8JwPSjfi0M4RD42+8qxrj7UYoKCMRMv4g4JVccqws2PMtt9ncT18QQ
ok2ctwQGFbd7/g3YBgyKbusmQc56UNs3a+dHRQr1TjBAXap1nVdGMDHyE+CbiZXX
KxK+iwca19IXy6RqYHFwLqI=
-----END PRIVATE KEY-----
Certificate:
    Data:
        Version: 3 (0x2)
        Serial Number:
            3e:2c:9d:be:b0:42:c8:cf:fc:99:42:d5:4d:41:6a:a5
        Signature Algorithm: sha256WithRSAEncryption
        Issuer: C=US, ST=California, L=Mountain View, O=Test CA, CN=Test Root CA
        Validity
            Not Before: Mar 13 20:46:17 2020 GMT
            Not After : Mar 11 20:46:17 2030 GMT
        Subject: C=US, ST=California, L=Mountain View, O=Test CA, CN=127.0.0.1
        Subject Public Key Info:
            Public Key Algorithm: rsaEncryption
                RSA Public-Key: (2048 bit)
                Modulus:
                    00:9d:5e:7d:de:ac:bb:e4:ad:43:1c:88:d0:3b:7e:
                    e9:3f:63:ef:6c:4d:87:6d:1d:8e:6a:4a:d4:44:e8:
                    ed:42:04:1e:21:41:67:9a:79:41:f1:26:6d:6d:c8:
                    fd:b5:c6:07:de:a6:54:84:68:0f:a7:2c:b0:dc:ef:
                    a8:46:bf:e8:5b:ea:10:3a:36:d9:4d:6e:2d:b7:e2:
                    1d:c5:c6:d0:6a:5e:0c:94:4a:aa:11:e2:e0:b2:75:
                    a7:40:87:b4:38:04:70:4f:00:b3:ee:7b:8c:92:3c:
                    7f:f4:88:86:f6:7f:b5:13:85:b2:53:68:6a:6a:9d:
                    2c:76:55:f3:12:a0:f9:04:e7:7c:35:8a:d4:b0:4c:
                    96:46:24:a8:80:84:3d:22:79:98:18:fe:e6:eb:e8:
                    e2:f5:cd:68:91:53:9a:38:63:29:1c:6e:0c:e0:76:
                    cd:35:d8:24:68:04:10:58:e8:79:5b:75:d2:7e:85:
                    cc:c4:96:71:05:01:ba:dc:3a:09:11:9c:a0:bb:c3:
                    4c:29:2a:f9:ee:73:e5:8b:e0:85:55:03:15:86:9b:
                    51:6b:08:3d:b6:1f:f6:8e:d9:af:ac:f8:20:f0:e8:
                    d7:a5:5f:7f:41:a1:b2:1c:28:ff:4a:0c:06:dd:37:
                    18:73:18:c6:ca:29:12:dc:92:43:e3:2b:5d:9f:5d:
                    32:63
                Exponent: 65537 (0x10001)
        X509v3 extensions:
            X509v3 Basic Constraints: critical
                CA:FALSE
            X509v3 Subject Key Identifier: 
                83:F7:3F:C1:5B:0E:56:28:9B:CF:2C:01:99:48:94:D3:A2:2D:C4:2A
            X509v3 Authority Key Identifier: 
                keyid:9B:26:0B:8A:98:A9:BB:1D:B9:1F:1C:E3:1A:40:33:ED:8E:17:88:AB

            X509v3 Extended Key Usage: 
                TLS Web Server Authentication, TLS Web Client Authentication
            X509v3 Subject Alternative Name: 
                DNS:*.example.org
    Signature Algorithm: sha256WithRSAEncryption
         bd:bf:81:f6:36:d4:6f:66:db:0f:82:e4:de:46:bd:d5:bb:f9:
         c1:34:22:f8:05:69:50:2d:0a:53:0e:0a:16:b4:66:8b:e8:82:
         78:cd:05:9f:7d:5b:60:33:67:8b:64:38:0b:cc:99:50:f3:e9:
         60:14:99:88:54:10:53:9b:0a:5f:1a:6b:b8:f2:00:17:21:fa:
         8a:0c:7b:d9:c3:77:1e:39:03:8c:2b:c2:f7:eb:3e:ec:59:12:
         79:51:69:43:a4:b2:df:8b:73:91:66:66:df:9f:f7:6f:dd:16:
         5b:23:e0:6f:ed:27:64:d8:19:1e:6e:8b:5b:c3:bc:d9:13:c6:
         20:79:42:8a:81:0f:89:d8:86:90:13:12:37:64:18:d3:c5:8f:
         64:31:bc:ef:fb:41:81:0b:43:3c:44:a6:8c:89:f6:7f:b4:3e:
         02:bb:a4:55:73:b7:a4:ee:c3:b9:b6:02:a7:4d:77:70:6a:b5:
         17:79:cd:12:28:90:e8:1a:da:44:f5:3b:cc:f7:43:1b:83:6b:
         3c:c2:b0:9f:9b:0d:fc:23:f5:fd:13:02:4c:de:23:95:76:0a:
         6b:0f:56:2a:06:16:7b:5e:a8:46:e2:8c:64:ec:a8:34:13:3c:
         73:5d:45:65:df:1e:8a:60:f4:37:9f:71:16:be:75:3e:18:0e:
         1e:53:d1:9e
-----BEGIN CERTIFICATE-----
MIID2DCCAsCgAwIBAgIQPiydvrBCyM/8mULVTUFqpTANBgkqhkiG9w0BAQsFADBj
MQswCQYDVQQGEwJVUzETMBEGA1UECAwKQ2FsaWZvcm5pYTEWMBQGA1UEBwwNTW91
bnRhaW4gVmlldzEQMA4GA1UECgwHVGVzdCBDQTEVMBMGA1UEAwwMVGVzdCBSb290
IENBMB4XDTIwMDMxMzIwNDYxN1oXDTMwMDMxMTIwNDYxN1owYDELMAkGA1UEBhMC
VVMxEzARBgNVBAgMCkNhbGlmb3JuaWExFjAUBgNVBAcMDU1vdW50YWluIFZpZXcx
EDAOBgNVBAoMB1Rlc3QgQ0ExEjAQBgNVBAMMCTEyNy4wLjAuMTCCASIwDQYJKoZI
hvcNAQEBBQADggEPADCCAQoCggEBAJ1efd6su+StQxyI0Dt+6T9j72xNh20djmpK
1ETo7UIEHiFBZ5p5QfEmbW3I/bXGB96mVIRoD6cssNzvqEa/6FvqEDo22U1uLbfi
HcXG0GpeDJRKqhHi4LJ1p0CHtDgEcE8As+57jJI8f/SIhvZ/tROFslNoamqdLHZV
8xKg+QTnfDWK1LBMlkYkqICEPSJ5mBj+5uvo4vXNaJFTmjhjKRxuDOB2zTXYJGgE
EFjoeVt10n6FzMSWcQUButw6CRGcoLvDTCkq+e5z5YvghVUDFYabUWsIPbYf9o7Z
r6z4IPDo16Vff0Ghshwo/0oMBt03GHMYxsopEtySQ+MrXZ9dMmMCAwEAAaOBijCB
hzAMBgNVHRMBAf8EAjAAMB0GA1UdDgQWBBSD9z/BWw5WKJvPLAGZSJTToi3EKjAf
BgNVHSMEGDAWgBSbJguKmKm7HbkfHOMaQDPtjheIqzAdBgNVHSUEFjAUBggrBgEF
BQcDAQYIKwYBBQUHAwIwGAYDVR0RBBEwD4INKi5leGFtcGxlLm9yZzANBgkqhkiG
9w0BAQsFAAOCAQEAvb+B9jbUb2bbD4Lk3ka91bv5wTQi+AVpUC0KUw4KFrRmi+iC
eM0Fn31bYDNni2Q4C8yZUPPpYBSZiFQQU5sKXxpruPIAFyH6igx72cN3HjkDjCvC
9+s+7FkSeVFpQ6Sy34tzkWZm35/3b90WWyPgb+0nZNgZHm6LW8O82RPGIHlCioEP
idiGkBMSN2QY08WPZDG87/tBgQtDPESmjIn2f7Q+ArukVXO3pO7DubYCp013cGq1
F3nNEiiQ6BraRPU7zPdDG4NrPMKwn5sN/CP1/RMCTN4jlXYKaw9WKgYWe16oRuKM
ZOyoNBM8c11FZd8eimD0N59xFr51PhgOHlPRng==
-----END CERTIFICATE-----
