-----BEGIN PRIVATE KEY-----
MIIEvQIBADANBgkqhkiG9w0BAQEFAASCBKcwggSjAgEAAoIBAQCtHZTAxIAlCLF+
VUYlvmW9wv+VjrU1xuPIRo/NIzyEzuyB7yFVlI+/oaEnZNlW5f2g+nPEsFKCdre9
A7K87eht+B8RYDowTdQqfgODOEIOWZ8MTL1WqenW+DKl6xNnVQKog6TdC9+hD/AY
YTin94DuHr2VC2zvEzrjspq7kf+FlTjU+MT86toS/t+cLhBpwBPbLmH18LEs5999
aEdUtFZwcJMTQT1i9PqYpNwiDKT9fIhMDIoa9CumyY+gT7tQ+tGlojNQICswU99U
LiS2KIg1JxFQ/KJoproTnFuxgwQAg7iGmJx/OtcXdus7HdO6mIEF/Q4l75KHaDWp
bRTl92G9AgMBAAECggEAepmBeIdxLUkb0pl3pVFS4nIP6Y34fY5OUM7QFnqG6JNW
4apF1ELzDsbbx3dfiHA3D+NvS3OH64dCFqVg1vYx7neTIQ4iB4WG5VT7DdowxdLo
laBfUtnglnKOA/0Yb8y/pjIc9sLq7DjKU6m+ow3gjELPBpfh3OqkgQ9DD+WUrbfW
0zTRKPuKnz5xfs2Lv6kUz7AriePGt2pf860WMGqzRwGZ+968seXiKZLPWToDu7l5
42YN8JAtDIwwe+87fp9Hxzv+sqembnl7Je8yklk6aCcNxg2zNfcWWCDvzV4YQ3FK
ocONxFXFipKk3dHx9G04AEC6uYqhMSyQlev9Rt/zoQKBgQDc2jbPmru5PmqGHtLa
Ih8KAvGcywSQsLqP2KbmDBR9Ajs9+yHa9IqNZPfE98fNtiiDSjEyOI0fZq3YHaLg
BZzFsrn4UuTJJYPX3rJBc1TmsS8aZ8RkqiVhWBdKasAPBDUUWEaWxbqAXhKjgrNw
K7xNmFASk7f1UjLvVE0LXd55dQKBgQDIqoMC6iXMQP7i/TW8P9jrvy3/dnVFdhN9
d7sFasApdwGsJVb5XWWIqA62lcdi+0sNnMgw4SZbPJlWLgcDiahJJe8hhQbHgLYK
j90VIYYl1FXUvZ2RjpgiwTR2I+iPPAyNRiFxVLiYEn8sGckDDEDG+eiDg9jOZ0aB
0Q3cprJ2KQKBgQCgzen2wy1INeAOA8d2uD1tZrNRfKi4SVWtgwwSmF0aoFNOT9pY
uJFhXlDhg6Bhce6RmaW0cWSfpn2RzBJZlvyNHhM2cfTPWJdkyGt2KGl7ByvKyB9B
RHmvJRrgPlXVGTUkuRm8kf+3k8dycqoAVHfo76vtuszIvK8Ff5YRXqmsOQKBgGe8
fm4LTe8BysLd0+G1wBZfhxAB1S5LlFfQhcaPIThOZXbw9r2DIvI6ryCE3ca10l7/
Jh7exk10TnDW6plRmMX37l+Nvat1Rqa/KLO72PXFh3mrbMHKzatp5g0NEzS4/mQq
VS+ZdLRpG4VY7ym8M+CpYSJcDsDlcvW5dUkUhD3BAoGAWskpxGJtWs5MaxrCA7Cs
XFMA4kFzdavnEQXtdm3VkdlrpJW04Yt6YLSVzeLsfZdK8x7RAiIrsTwSRHnYjCBJ
PTUU5ibJPFj7pKEJkXnAYJy41fzbLHUuL+X8liKms1pXJmcbUVPZq+eem/J3omls
CgleVqA09PTkNcz+Xy6KQpY=
-----END PRIVATE KEY-----
Certificate:
    Data:
        Version: 3 (0x2)
        Serial Number:
            f9:fc:f0:61:a5:95:a9:3e:04:b2:80:d9:e4:4d:dd:18
        Signature Algorithm: sha256WithRSAEncryption
        Issuer: C=US, ST=California, L=Mountain View, O=Test CA, CN=Test Root CA
        Validity
            Not Before: Oct 10 17:12:19 2025 GMT
            Not After : Oct  8 17:12:19 2035 GMT
        Subject: C=US, ST=California, L=Mountain View, O=Test CA, CN=127.0.0.1
        Subject Public Key Info:
            Public Key Algorithm: rsaEncryption
                Public-Key: (2048 bit)
                Modulus:
                    00:ad:1d:94:c0:c4:80:25:08:b1:7e:55:46:25:be:
                    65:bd:c2:ff:95:8e:b5:35:c6:e3:c8:46:8f:cd:23:
                    3c:84:ce:ec:81:ef:21:55:94:8f:bf:a1:a1:27:64:
                    d9:56:e5:fd:a0:fa:73:c4:b0:52:82:76:b7:bd:03:
                    b2:bc:ed:e8:6d:f8:1f:11:60:3a:30:4d:d4:2a:7e:
                    03:83:38:42:0e:59:9f:0c:4c:bd:56:a9:e9:d6:f8:
                    32:a5:eb:13:67:55:02:a8:83:a4:dd:0b:df:a1:0f:
                    f0:18:61:38:a7:f7:80:ee:1e:bd:95:0b:6c:ef:13:
                    3a:e3:b2:9a:bb:91:ff:85:95:38:d4:f8:c4:fc:ea:
                    da:12:fe:df:9c:2e:10:69:c0:13:db:2e:61:f5:f0:
                    b1:2c:e7:df:7d:68:47:54:b4:56:70:70:93:13:41:
                    3d:62:f4:fa:98:a4:dc:22:0c:a4:fd:7c:88:4c:0c:
                    8a:1a:f4:2b:a6:c9:8f:a0:4f:bb:50:fa:d1:a5:a2:
                    33:50:20:2b:30:53:df:54:2e:24:b6:28:88:35:27:
                    11:50:fc:a2:68:a6:ba:13:9c:5b:b1:83:04:00:83:
                    b8:86:98:9c:7f:3a:d7:17:76:eb:3b:1d:d3:ba:98:
                    81:05:fd:0e:25:ef:92:87:68:35:a9:6d:14:e5:f7:
                    61:bd
                Exponent: 65537 (0x10001)
        X509v3 extensions:
            X509v3 Basic Constraints: critical
                CA:FALSE
            X509v3 Subject Key Identifier: 
                E7:1B:C5:0D:E7:ED:C7:2B:2E:95:91:40:77:5A:57:DE:1C:F4:D7:FE
            X509v3 Authority Key Identifier: 
                9B:26:0B:8A:98:A9:BB:1D:B9:1F:1C:E3:1A:40:33:ED:8E:17:88:AB
            X509v3 Extended Key Usage: 
                TLS Web Server Authentication, TLS Web Client Authentication
            X509v3 Subject Alternative Name: 
                DNS:*.example.org
    Signature Algorithm: sha256WithRSAEncryption
    Signature Value:
        28:a9:ea:ed:13:de:7b:1b:28:0f:f7:e7:e5:34:0a:2c:5c:49:
        15:22:c9:eb:85:ef:fa:3f:7e:d9:2c:9f:81:c2:7b:5f:f6:43:
        0e:c4:fd:98:e6:ee:85:78:14:e0:9b:93:5f:48:ec:26:4f:c9:
        0c:49:f7:64:ad:02:f5:72:92:a8:eb:69:ce:57:ef:40:59:28:
        1c:ce:47:7c:79:5f:a1:e5:bc:bd:25:a8:61:4a:23:b0:23:00:
        00:f7:e0:ea:a4:33:6a:c1:b5:e0:31:68:29:4e:d1:29:a8:e9:
        42:db:04:b5:4e:98:28:70:7c:4e:5c:39:60:d1:be:e4:f4:59:
        29:fe:49:a9:7b:8f:bb:e3:c4:5f:7c:41:2e:6d:c8:4f:ac:e7:
        44:e5:a6:0f:c5:5d:0c:9a:8c:27:d7:01:aa:f0:81:8a:52:90:
        f4:51:bb:1c:c3:84:96:33:a0:35:73:97:01:74:41:f7:29:c9:
        cb:f9:8c:3e:1a:2c:17:a5:9f:55:55:e9:04:38:82:a1:36:af:
        99:c6:d7:a7:cd:5f:54:7c:15:3c:a4:6d:04:19:fa:3f:f4:a7:
        63:fc:b4:95:25:fc:12:14:22:89:fe:76:5d:af:0b:b9:71:97:
        64:dd:b8:2e:16:10:1c:2a:8b:8c:66:87:50:58:8f:cf:cb:4f:
        6a:68:b3:e9
-----BEGIN CERTIFICATE-----
MIID2TCCAsGgAwIBAgIRAPn88GGllak+BLKA2eRN3RgwDQYJKoZIhvcNAQELBQAw
YzELMAkGA1UEBhMCVVMxEzARBgNVBAgMCkNhbGlmb3JuaWExFjAUBgNVBAcMDU1v
dW50YWluIFZpZXcxEDAOBgNVBAoMB1Rlc3QgQ0ExFTATBgNVBAMMDFRlc3QgUm9v
dCBDQTAeFw0yNTEwMTAxNzEyMTlaFw0zNTEwMDgxNzEyMTlaMGAxCzAJBgNVBAYT
AlVTMRMwEQYDVQQIDApDYWxpZm9ybmlhMRYwFAYDVQQHDA1Nb3VudGFpbiBWaWV3
MRAwDgYDVQQKDAdUZXN0IENBMRIwEAYDVQQDDAkxMjcuMC4wLjEwggEiMA0GCSqG
SIb3DQEBAQUAA4IBDwAwggEKAoIBAQCtHZTAxIAlCLF+VUYlvmW9wv+VjrU1xuPI
Ro/NIzyEzuyB7yFVlI+/oaEnZNlW5f2g+nPEsFKCdre9A7K87eht+B8RYDowTdQq
fgODOEIOWZ8MTL1WqenW+DKl6xNnVQKog6TdC9+hD/AYYTin94DuHr2VC2zvEzrj
spq7kf+FlTjU+MT86toS/t+cLhBpwBPbLmH18LEs5999aEdUtFZwcJMTQT1i9PqY
pNwiDKT9fIhMDIoa9CumyY+gT7tQ+tGlojNQICswU99ULiS2KIg1JxFQ/KJoproT
nFuxgwQAg7iGmJx/OtcXdus7HdO6mIEF/Q4l75KHaDWpbRTl92G9AgMBAAGjgYow
gYcwDAYDVR0TAQH/BAIwADAdBgNVHQ4EFgQU5xvFDeftxysulZFAd1pX3hz01/4w
HwYDVR0jBBgwFoAUmyYLipipux25HxzjGkAz7Y4XiKswHQYDVR0lBBYwFAYIKwYB
BQUHAwEGCCsGAQUFBwMCMBgGA1UdEQQRMA+CDSouZXhhbXBsZS5vcmcwDQYJKoZI
hvcNAQELBQADggEBACip6u0T3nsbKA/35+U0CixcSRUiyeuF7/o/ftksn4HCe1/2
Qw7E/Zjm7oV4FOCbk19I7CZPyQxJ92StAvVykqjrac5X70BZKBzOR3x5X6HlvL0l
qGFKI7AjAAD34OqkM2rBteAxaClO0Smo6ULbBLVOmChwfE5cOWDRvuT0WSn+Sal7
j7vjxF98QS5tyE+s50Tlpg/FXQyajCfXAarwgYpSkPRRuxzDhJYzoDVzlwF0Qfcp
ycv5jD4aLBeln1VV6QQ4gqE2r5nG16fNX1R8FTykbQQZ+j/0p2P8tJUl/BIUIon+
dl2vC7lxl2TduC4WEBwqi4xmh1BYj8/LT2pos+k=
-----END CERTIFICATE-----
