-----BEGIN PRIVATE KEY-----
MIIEvQIBADANBgkqhkiG9w0BAQEFAASCBKcwggSjAgEAAoIBAQCtHZTAxIAlCLF+
VUYlvmW9wv+VjrU1xuPIRo/NIzyEzuyB7yFVlI+/oaEnZNlW5f2g+nPEsFKCdre9
A7K87eht+B8RYDowTdQqfgODOEIOWZ8MTL1WqenW+DKl6xNnVQKog6TdC9+hD/AY
YTin94DuHr2VC2zvEzrjspq7kf+FlTjU+MT86toS/t+cLhBpwBPbLmH18LEs5999
aEdUtFZwcJMTQT1i9PqYpNwiDKT9fIhMDIoa9CumyY+gT7tQ+tGlojNQICswU99U
LiS2KIg1JxFQ/KJoproTnFuxgwQAg7iGmJx/OtcXdus7HdO6mIEF/Q4l75KHaDWp
bRTl92G9AgMBAAECggEAepmBeIdxLUkb0pl3pVFS4nIP6Y34fY5OUM7QFnqG6JNW
4apF1ELzDsbbx3dfiHA3D+NvS3OH64dCFqVg1vYx7neTIQ4iB4WG5VT7DdowxdLo
laBfUtnglnKOA/0Yb8y/pjIc9sLq7DjKU6m+ow3gjELPBpfh3OqkgQ9DD+WUrbfW
0zTRKPuKnz5xfs2Lv6kUz7AriePGt2pf860WMGqzRwGZ+968seXiKZLPWToDu7l5
42YN8JAtDIwwe+87fp9Hxzv+sqembnl7Je8yklk6aCcNxg2zNfcWWCDvzV4YQ3FK
ocONxFXFipKk3dHx9G04AEC6uYqhMSyQlev9Rt/zoQKBgQDc2jbPmru5PmqGHtLa
Ih8KAvGcywSQsLqP2KbmDBR9Ajs9+yHa9IqNZPfE98fNtiiDSjEyOI0fZq3YHaLg
BZzFsrn4UuTJJYPX3rJBc1TmsS8aZ8RkqiVhWBdKasAPBDUUWEaWxbqAXhKjgrNw
K7xNmFASk7f1UjLvVE0LXd55dQKBgQDIqoMC6iXMQP7i/TW8P9jrvy3/dnVFdhN9
d7sFasApdwGsJVb5XWWIqA62lcdi+0sNnMgw4SZbPJlWLgcDiahJJe8hhQbHgLYK
j90VIYYl1FXUvZ2RjpgiwTR2I+iPPAyNRiFxVLiYEn8sGckDDEDG+eiDg9jOZ0aB
0Q3cprJ2KQKBgQCgzen2wy1INeAOA8d2uD1tZrNRfKi4SVWtgwwSmF0aoFNOT9pY
uJFhXlDhg6Bhce6RmaW0cWSfpn2RzBJZlvyNHhM2cfTPWJdkyGt2KGl7ByvKyB9B
RHmvJRrgPlXVGTUkuRm8kf+3k8dycqoAVHfo76vtuszIvK8Ff5YRXqmsOQKBgGe8
fm4LTe8BysLd0+G1wBZfhxAB1S5LlFfQhcaPIThOZXbw9r2DIvI6ryCE3ca10l7/
Jh7exk10TnDW6plRmMX37l+Nvat1Rqa/KLO72PXFh3mrbMHKzatp5g0NEzS4/mQq
VS+ZdLRpG4VY7ym8M+CpYSJcDsDlcvW5dUkUhD3BAoGAWskpxGJtWs5MaxrCA7Cs
XFMA4kFzdavnEQXtdm3VkdlrpJW04Yt6YLSVzeLsfZdK8x7RAiIrsTwSRHnYjCBJ
PTUU5ibJPFj7pKEJkXnAYJy41fzbLHUuL+X8liKms1pXJmcbUVPZq+eem/J3omls
CgleVqA09PTkNcz+Xy6KQpY=
-----END PRIVATE KEY-----
Certificate:
    Data:
        Version: 3 (0x2)
        Serial Number:
            12:f6:d9:f1:80:1b:50:9f:64:09:c8:ea:2f:16:33:a3
        Signature Algorithm: sha256WithRSAEncryption
        Issuer: C=US, ST=California, L=Mountain View, O=Test CA, CN=Test Root CA
        Validity
            Not Before: Dec  1 15:42:07 2021 GMT
            Not After : Nov 29 15:42:07 2031 GMT
        Subject: C=US, ST=California, L=Mountain View, O=Test CA, CN=127.0.0.1
        Subject Public Key Info:
            Public Key Algorithm: rsaEncryption
                RSA Public-Key: (2048 bit)
                Modulus:
                    00:ad:1d:94:c0:c4:80:25:08:b1:7e:55:46:25:be:
                    65:bd:c2:ff:95:8e:b5:35:c6:e3:c8:46:8f:cd:23:
                    3c:84:ce:ec:81:ef:21:55:94:8f:bf:a1:a1:27:64:
                    d9:56:e5:fd:a0:fa:73:c4:b0:52:82:76:b7:bd:03:
                    b2:bc:ed:e8:6d:f8:1f:11:60:3a:30:4d:d4:2a:7e:
                    03:83:38:42:0e:59:9f:0c:4c:bd:56:a9:e9:d6:f8:
                    32:a5:eb:13:67:55:02:a8:83:a4:dd:0b:df:a1:0f:
                    f0:18:61:38:a7:f7:80:ee:1e:bd:95:0b:6c:ef:13:
                    3a:e3:b2:9a:bb:91:ff:85:95:38:d4:f8:c4:fc:ea:
                    da:12:fe:df:9c:2e:10:69:c0:13:db:2e:61:f5:f0:
                    b1:2c:e7:df:7d:68:47:54:b4:56:70:70:93:13:41:
                    3d:62:f4:fa:98:a4:dc:22:0c:a4:fd:7c:88:4c:0c:
                    8a:1a:f4:2b:a6:c9:8f:a0:4f:bb:50:fa:d1:a5:a2:
                    33:50:20:2b:30:53:df:54:2e:24:b6:28:88:35:27:
                    11:50:fc:a2:68:a6:ba:13:9c:5b:b1:83:04:00:83:
                    b8:86:98:9c:7f:3a:d7:17:76:eb:3b:1d:d3:ba:98:
                    81:05:fd:0e:25:ef:92:87:68:35:a9:6d:14:e5:f7:
                    61:bd
                Exponent: 65537 (0x10001)
        X509v3 extensions:
            X509v3 Basic Constraints: critical
                CA:FALSE
            X509v3 Subject Key Identifier: 
                E7:1B:C5:0D:E7:ED:C7:2B:2E:95:91:40:77:5A:57:DE:1C:F4:D7:FE
            X509v3 Authority Key Identifier: 
                keyid:9B:26:0B:8A:98:A9:BB:1D:B9:1F:1C:E3:1A:40:33:ED:8E:17:88:AB

            X509v3 Extended Key Usage: 
                TLS Web Server Authentication, TLS Web Client Authentication
            X509v3 Subject Alternative Name: 
                DNS:*.example.org
    Signature Algorithm: sha256WithRSAEncryption
         1b:4c:3b:40:2c:3d:60:30:03:17:bd:79:83:3c:d3:0d:10:fe:
         72:38:61:69:4a:5b:88:f1:cc:23:da:1f:83:02:d6:bd:ac:87:
         82:95:7f:9d:4f:ae:b0:ca:c4:59:e9:42:29:bb:28:b3:af:d3:
         30:95:58:3c:c4:38:a0:7c:dc:78:99:97:5b:02:a3:89:e6:58:
         0d:96:d0:ab:b6:cb:f5:c8:0f:0c:05:7d:27:4e:ef:6f:a7:7b:
         04:4c:27:05:92:01:1e:21:47:fc:0a:35:64:c8:00:02:72:98:
         35:1e:b4:15:64:48:fb:0f:af:34:f2:7a:a6:57:2d:2b:16:4d:
         b8:a0:54:7d:b0:18:19:bc:4e:c3:83:5c:10:fc:74:dc:90:6e:
         dc:14:36:cf:9c:e9:e2:92:7e:db:a6:d1:0a:78:68:65:8a:1a:
         b0:fa:0c:6a:41:ca:d4:f4:4b:e2:8a:6b:59:77:3d:15:eb:c1:
         68:be:f5:c7:75:2d:05:33:4d:e1:af:cb:c1:e8:21:2f:fd:be:
         49:11:e2:f1:6c:0b:65:51:10:f9:1b:87:f1:c4:7d:bc:53:e1:
         2f:f4:90:66:fd:ec:c6:6e:a1:68:26:fc:5c:b1:3d:8f:c6:c1:
         41:54:27:d6:75:47:7a:78:6d:ac:b3:53:ea:60:18:a1:5c:84:
         58:13:ba:44
-----BEGIN CERTIFICATE-----
MIID2DCCAsCgAwIBAgIQEvbZ8YAbUJ9kCcjqLxYzozANBgkqhkiG9w0BAQsFADBj
MQswCQYDVQQGEwJVUzETMBEGA1UECAwKQ2FsaWZvcm5pYTEWMBQGA1UEBwwNTW91
bnRhaW4gVmlldzEQMA4GA1UECgwHVGVzdCBDQTEVMBMGA1UEAwwMVGVzdCBSb290
IENBMB4XDTIxMTIwMTE1NDIwN1oXDTMxMTEyOTE1NDIwN1owYDELMAkGA1UEBhMC
VVMxEzARBgNVBAgMCkNhbGlmb3JuaWExFjAUBgNVBAcMDU1vdW50YWluIFZpZXcx
EDAOBgNVBAoMB1Rlc3QgQ0ExEjAQBgNVBAMMCTEyNy4wLjAuMTCCASIwDQYJKoZI
hvcNAQEBBQADggEPADCCAQoCggEBAK0dlMDEgCUIsX5VRiW+Zb3C/5WOtTXG48hG
j80jPITO7IHvIVWUj7+hoSdk2Vbl/aD6c8SwUoJ2t70Dsrzt6G34HxFgOjBN1Cp+
A4M4Qg5ZnwxMvVap6db4MqXrE2dVAqiDpN0L36EP8BhhOKf3gO4evZULbO8TOuOy
mruR/4WVONT4xPzq2hL+35wuEGnAE9suYfXwsSzn331oR1S0VnBwkxNBPWL0+pik
3CIMpP18iEwMihr0K6bJj6BPu1D60aWiM1AgKzBT31QuJLYoiDUnEVD8omimuhOc
W7GDBACDuIaYnH861xd26zsd07qYgQX9DiXvkodoNaltFOX3Yb0CAwEAAaOBijCB
hzAMBgNVHRMBAf8EAjAAMB0GA1UdDgQWBBTnG8UN5+3HKy6VkUB3WlfeHPTX/jAf
BgNVHSMEGDAWgBSbJguKmKm7HbkfHOMaQDPtjheIqzAdBgNVHSUEFjAUBggrBgEF
BQcDAQYIKwYBBQUHAwIwGAYDVR0RBBEwD4INKi5leGFtcGxlLm9yZzANBgkqhkiG
9w0BAQsFAAOCAQEAG0w7QCw9YDADF715gzzTDRD+cjhhaUpbiPHMI9ofgwLWvayH
gpV/nU+usMrEWelCKbsos6/TMJVYPMQ4oHzceJmXWwKjieZYDZbQq7bL9cgPDAV9
J07vb6d7BEwnBZIBHiFH/Ao1ZMgAAnKYNR60FWRI+w+vNPJ6plctKxZNuKBUfbAY
GbxOw4NcEPx03JBu3BQ2z5zp4pJ+26bRCnhoZYoasPoMakHK1PRL4oprWXc9FevB
aL71x3UtBTNN4a/LweghL/2+SRHi8WwLZVEQ+RuH8cR9vFPhL/SQZv3sxm6haCb8
XLE9j8bBQVQn1nVHenhtrLNT6mAYoVyEWBO6RA==
-----END CERTIFICATE-----
