-----BEGIN PRIVATE KEY-----
MIIEvQIBADANBgkqhkiG9w0BAQEFAASCBKcwggSjAgEAAoIBAQCtHZTAxIAlCLF+
VUYlvmW9wv+VjrU1xuPIRo/NIzyEzuyB7yFVlI+/oaEnZNlW5f2g+nPEsFKCdre9
A7K87eht+B8RYDowTdQqfgODOEIOWZ8MTL1WqenW+DKl6xNnVQKog6TdC9+hD/AY
YTin94DuHr2VC2zvEzrjspq7kf+FlTjU+MT86toS/t+cLhBpwBPbLmH18LEs5999
aEdUtFZwcJMTQT1i9PqYpNwiDKT9fIhMDIoa9CumyY+gT7tQ+tGlojNQICswU99U
LiS2KIg1JxFQ/KJoproTnFuxgwQAg7iGmJx/OtcXdus7HdO6mIEF/Q4l75KHaDWp
bRTl92G9AgMBAAECggEAepmBeIdxLUkb0pl3pVFS4nIP6Y34fY5OUM7QFnqG6JNW
4apF1ELzDsbbx3dfiHA3D+NvS3OH64dCFqVg1vYx7neTIQ4iB4WG5VT7DdowxdLo
laBfUtnglnKOA/0Yb8y/pjIc9sLq7DjKU6m+ow3gjELPBpfh3OqkgQ9DD+WUrbfW
0zTRKPuKnz5xfs2Lv6kUz7AriePGt2pf860WMGqzRwGZ+968seXiKZLPWToDu7l5
42YN8JAtDIwwe+87fp9Hxzv+sqembnl7Je8yklk6aCcNxg2zNfcWWCDvzV4YQ3FK
ocONxFXFipKk3dHx9G04AEC6uYqhMSyQlev9Rt/zoQKBgQDc2jbPmru5PmqGHtLa
Ih8KAvGcywSQsLqP2KbmDBR9Ajs9+yHa9IqNZPfE98fNtiiDSjEyOI0fZq3YHaLg
BZzFsrn4UuTJJYPX3rJBc1TmsS8aZ8RkqiVhWBdKasAPBDUUWEaWxbqAXhKjgrNw
K7xNmFASk7f1UjLvVE0LXd55dQKBgQDIqoMC6iXMQP7i/TW8P9jrvy3/dnVFdhN9
d7sFasApdwGsJVb5XWWIqA62lcdi+0sNnMgw4SZbPJlWLgcDiahJJe8hhQbHgLYK
j90VIYYl1FXUvZ2RjpgiwTR2I+iPPAyNRiFxVLiYEn8sGckDDEDG+eiDg9jOZ0aB
0Q3cprJ2KQKBgQCgzen2wy1INeAOA8d2uD1tZrNRfKi4SVWtgwwSmF0aoFNOT9pY
uJFhXlDhg6Bhce6RmaW0cWSfpn2RzBJZlvyNHhM2cfTPWJdkyGt2KGl7ByvKyB9B
RHmvJRrgPlXVGTUkuRm8kf+3k8dycqoAVHfo76vtuszIvK8Ff5YRXqmsOQKBgGe8
fm4LTe8BysLd0+G1wBZfhxAB1S5LlFfQhcaPIThOZXbw9r2DIvI6ryCE3ca10l7/
Jh7exk10TnDW6plRmMX37l+Nvat1Rqa/KLO72PXFh3mrbMHKzatp5g0NEzS4/mQq
VS+ZdLRpG4VY7ym8M+CpYSJcDsDlcvW5dUkUhD3BAoGAWskpxGJtWs5MaxrCA7Cs
XFMA4kFzdavnEQXtdm3VkdlrpJW04Yt6YLSVzeLsfZdK8x7RAiIrsTwSRHnYjCBJ
PTUU5ibJPFj7pKEJkXnAYJy41fzbLHUuL+X8liKms1pXJmcbUVPZq+eem/J3omls
CgleVqA09PTkNcz+Xy6KQpY=
-----END PRIVATE KEY-----
Certificate:
    Data:
        Version: 3 (0x2)
        Serial Number:
            b0:6b:93:92:e3:5c:8d:7e:ed:9d:c8:96:59:c5:c2:67
        Signature Algorithm: sha256WithRSAEncryption
        Issuer: C=US, ST=California, L=Mountain View, O=Test CA, CN=Test Root CA
        Validity
            Not Before: Oct  3 17:20:08 2022 GMT
            Not After : Sep 30 17:20:08 2032 GMT
        Subject: C=US, ST=California, L=Mountain View, O=Test CA, CN=127.0.0.1
        Subject Public Key Info:
            Public Key Algorithm: rsaEncryption
                Public-Key: (2048 bit)
                Modulus:
                    00:ad:1d:94:c0:c4:80:25:08:b1:7e:55:46:25:be:
                    65:bd:c2:ff:95:8e:b5:35:c6:e3:c8:46:8f:cd:23:
                    3c:84:ce:ec:81:ef:21:55:94:8f:bf:a1:a1:27:64:
                    d9:56:e5:fd:a0:fa:73:c4:b0:52:82:76:b7:bd:03:
                    b2:bc:ed:e8:6d:f8:1f:11:60:3a:30:4d:d4:2a:7e:
                    03:83:38:42:0e:59:9f:0c:4c:bd:56:a9:e9:d6:f8:
                    32:a5:eb:13:67:55:02:a8:83:a4:dd:0b:df:a1:0f:
                    f0:18:61:38:a7:f7:80:ee:1e:bd:95:0b:6c:ef:13:
                    3a:e3:b2:9a:bb:91:ff:85:95:38:d4:f8:c4:fc:ea:
                    da:12:fe:df:9c:2e:10:69:c0:13:db:2e:61:f5:f0:
                    b1:2c:e7:df:7d:68:47:54:b4:56:70:70:93:13:41:
                    3d:62:f4:fa:98:a4:dc:22:0c:a4:fd:7c:88:4c:0c:
                    8a:1a:f4:2b:a6:c9:8f:a0:4f:bb:50:fa:d1:a5:a2:
                    33:50:20:2b:30:53:df:54:2e:24:b6:28:88:35:27:
                    11:50:fc:a2:68:a6:ba:13:9c:5b:b1:83:04:00:83:
                    b8:86:98:9c:7f:3a:d7:17:76:eb:3b:1d:d3:ba:98:
                    81:05:fd:0e:25:ef:92:87:68:35:a9:6d:14:e5:f7:
                    61:bd
                Exponent: 65537 (0x10001)
        X509v3 extensions:
            X509v3 Basic Constraints: critical
                CA:FALSE
            X509v3 Subject Key Identifier: 
                E7:1B:C5:0D:E7:ED:C7:2B:2E:95:91:40:77:5A:57:DE:1C:F4:D7:FE
            X509v3 Authority Key Identifier: 
                9B:26:0B:8A:98:A9:BB:1D:B9:1F:1C:E3:1A:40:33:ED:8E:17:88:AB
            X509v3 Extended Key Usage: 
                TLS Web Server Authentication, TLS Web Client Authentication
            X509v3 Subject Alternative Name: 
                DNS:*.example.org
    Signature Algorithm: sha256WithRSAEncryption
    Signature Value:
        3b:28:28:79:3c:bf:0e:3f:54:71:1e:0b:cb:1d:96:15:b4:9e:
        34:1a:ea:ce:ad:4a:63:41:6f:bc:c3:0b:c6:89:db:23:72:88:
        85:cf:cf:43:c3:ba:49:aa:dd:a9:4b:ed:da:ce:17:e0:c9:ee:
        c2:f2:38:2e:0a:e5:b6:85:58:2a:89:25:36:da:ba:17:e7:1e:
        eb:63:ee:be:83:ce:ce:05:f7:2a:96:18:a6:fd:20:50:5b:9a:
        8d:1c:6e:11:f2:8e:11:c3:ae:86:5f:4d:d0:68:45:be:99:a9:
        3b:87:eb:a8:e6:99:62:f9:ea:8f:03:12:91:47:df:58:46:11:
        66:c1:57:9c:a5:a5:d2:75:ce:c8:8c:63:79:19:17:30:03:2e:
        58:3a:cf:82:63:e9:7f:9a:c2:8d:e2:4a:dc:7f:5d:3b:40:10:
        38:a4:45:46:3f:95:5c:48:97:7e:4e:85:82:48:e9:aa:89:c0:
        77:d8:f3:16:b3:7a:4d:bb:82:84:e8:54:59:dc:5b:97:3f:83:
        b3:bd:f1:84:31:ae:02:17:92:84:e9:db:06:c0:97:0c:02:2b:
        4b:d7:99:7f:d7:9e:9a:3d:99:06:5e:3d:74:f6:b4:1f:22:f0:
        27:cb:4c:1f:ae:c4:24:c8:1a:9a:8d:21:7b:db:32:88:5d:a6:
        72:b4:5e:70
-----BEGIN CERTIFICATE-----
MIID2TCCAsGgAwIBAgIRALBrk5LjXI1+7Z3IllnFwmcwDQYJKoZIhvcNAQELBQAw
YzELMAkGA1UEBhMCVVMxEzARBgNVBAgMCkNhbGlmb3JuaWExFjAUBgNVBAcMDU1v
dW50YWluIFZpZXcxEDAOBgNVBAoMB1Rlc3QgQ0ExFTATBgNVBAMMDFRlc3QgUm9v
dCBDQTAeFw0yMjEwMDMxNzIwMDhaFw0zMjA5MzAxNzIwMDhaMGAxCzAJBgNVBAYT
AlVTMRMwEQYDVQQIDApDYWxpZm9ybmlhMRYwFAYDVQQHDA1Nb3VudGFpbiBWaWV3
MRAwDgYDVQQKDAdUZXN0IENBMRIwEAYDVQQDDAkxMjcuMC4wLjEwggEiMA0GCSqG
SIb3DQEBAQUAA4IBDwAwggEKAoIBAQCtHZTAxIAlCLF+VUYlvmW9wv+VjrU1xuPI
Ro/NIzyEzuyB7yFVlI+/oaEnZNlW5f2g+nPEsFKCdre9A7K87eht+B8RYDowTdQq
fgODOEIOWZ8MTL1WqenW+DKl6xNnVQKog6TdC9+hD/AYYTin94DuHr2VC2zvEzrj
spq7kf+FlTjU+MT86toS/t+cLhBpwBPbLmH18LEs5999aEdUtFZwcJMTQT1i9PqY
pNwiDKT9fIhMDIoa9CumyY+gT7tQ+tGlojNQICswU99ULiS2KIg1JxFQ/KJoproT
nFuxgwQAg7iGmJx/OtcXdus7HdO6mIEF/Q4l75KHaDWpbRTl92G9AgMBAAGjgYow
gYcwDAYDVR0TAQH/BAIwADAdBgNVHQ4EFgQU5xvFDeftxysulZFAd1pX3hz01/4w
HwYDVR0jBBgwFoAUmyYLipipux25HxzjGkAz7Y4XiKswHQYDVR0lBBYwFAYIKwYB
BQUHAwEGCCsGAQUFBwMCMBgGA1UdEQQRMA+CDSouZXhhbXBsZS5vcmcwDQYJKoZI
hvcNAQELBQADggEBADsoKHk8vw4/VHEeC8sdlhW0njQa6s6tSmNBb7zDC8aJ2yNy
iIXPz0PDukmq3alL7drOF+DJ7sLyOC4K5baFWCqJJTbauhfnHutj7r6Dzs4F9yqW
GKb9IFBbmo0cbhHyjhHDroZfTdBoRb6ZqTuH66jmmWL56o8DEpFH31hGEWbBV5yl
pdJ1zsiMY3kZFzADLlg6z4Jj6X+awo3iStx/XTtAEDikRUY/lVxIl35OhYJI6aqJ
wHfY8xazek27goToVFncW5c/g7O98YQxrgIXkoTp2wbAlwwCK0vXmX/Xnpo9mQZe
PXT2tB8i8CfLTB+uxCTIGpqNIXvbMohdpnK0XnA=
-----END CERTIFICATE-----
