Certificate:
    Data:
        Version: 3 (0x2)
        Serial Number:
            e3:e2:72:2a:fb:6d:e8:f9:5d:db:93:27:30:f9:d8:e5
        Signature Algorithm: sha256WithRSAEncryption
        Issuer: C=US, ST=California, L=Mountain View, O=Test CA, CN=Test Intermediate CA
        Validity
            Not Before: Dec  1 15:42:07 2021 GMT
            Not After : Dec  1 15:42:07 2023 GMT
        Subject: C=US, ST=California, L=Mountain View, O=Test CA, CN=127.0.0.1
        Subject Public Key Info:
            Public Key Algorithm: rsaEncryption
                RSA Public-Key: (2048 bit)
                Modulus:
                    00:e0:53:f4:f3:98:c1:14:33:02:c8:a4:6d:fe:aa:
                    2a:f7:94:3d:a6:6f:00:df:3b:de:4c:9f:a3:ea:07:
                    d4:ac:e5:5b:0d:d1:ac:e0:ed:f9:c5:98:1d:35:2d:
                    e5:b3:49:97:14:85:44:0f:dc:4c:d2:67:08:88:01:
                    a5:d8:a7:eb:93:d1:6a:a1:f7:51:e7:84:7e:52:2a:
                    7d:bc:6f:0e:d8:db:b6:a6:3e:de:dc:f5:a4:68:96:
                    44:11:85:02:ed:47:12:df:b8:60:71:95:7b:62:87:
                    68:7a:44:56:09:d5:b4:c8:f1:f6:c9:46:92:8b:68:
                    e8:83:d5:d5:86:71:23:c3:80:1e:bf:6c:01:c7:d2:
                    a4:bc:40:6d:e0:e3:c0:2e:30:78:bd:ad:dd:25:66:
                    d3:f5:07:07:56:d7:ce:e2:72:c5:25:7d:0c:e1:a7:
                    6f:00:a8:da:ab:4b:54:43:09:64:a4:b6:52:38:2f:
                    b7:cc:01:dd:1c:03:27:03:47:bf:df:e6:37:b0:ed:
                    18:dc:51:0b:d4:75:22:df:50:7b:3c:eb:37:39:1c:
                    9b:6f:08:7b:a7:05:ac:8c:43:f7:f1:da:51:06:b3:
                    82:45:3e:c8:81:73:9e:b0:a5:cf:76:96:af:81:2c:
                    ac:01:2a:4a:58:4b:1d:be:ff:1f:85:c2:27:de:f1:
                    78:0b
                Exponent: 65537 (0x10001)
        X509v3 extensions:
            X509v3 Basic Constraints: critical
                CA:FALSE
            X509v3 Subject Key Identifier: 
                E2:E0:A4:73:95:9B:E9:6E:FD:CE:29:C4:6F:07:81:0B:96:BD:47:BA
            X509v3 Authority Key Identifier: 
                keyid:17:5C:45:F3:D0:AC:1C:10:4C:8B:43:44:20:C4:DD:93:C5:C5:19:3B

            X509v3 Extended Key Usage: 
                TLS Web Server Authentication, TLS Web Client Authentication
            X509v3 Subject Alternative Name: 
                IP Address:127.0.0.1
    Signature Algorithm: sha256WithRSAEncryption
         92:02:42:eb:93:af:3b:ae:72:a5:0b:d0:fc:05:62:4c:fa:29:
         cf:0e:bd:32:1b:e7:c2:fc:42:e6:b9:04:32:2d:e1:61:68:43:
         4f:d7:a3:a7:9a:3d:a0:1b:07:09:13:5d:ce:82:49:cb:20:9e:
         cd:2a:32:18:cc:61:c2:42:45:31:dc:14:e5:fd:c5:66:00:12:
         ba:ba:a1:51:71:65:63:d7:22:4c:ec:6d:28:36:0f:e5:70:5c:
         0d:30:c7:75:8b:7f:99:d7:57:74:c0:63:5b:ee:9f:5f:d6:88:
         96:d2:12:cf:de:48:64:0a:c2:9c:82:35:61:0c:6c:8c:3d:28:
         0d:27:c4:db:7b:bf:93:f7:06:7d:3f:76:37:22:62:b5:aa:f9:
         95:e5:c4:06:dd:af:39:7b:ab:23:d7:29:93:6c:63:2b:0a:d4:
         08:15:a6:2a:c7:77:d1:c9:e9:4e:35:77:75:e2:38:17:30:f5:
         b2:b0:f1:5a:04:3d:ac:3c:b4:b1:4c:de:c0:f8:58:ab:ef:a6:
         56:3b:98:41:72:25:7d:02:60:22:70:0b:98:2b:1a:e0:f5:4d:
         46:a8:94:e2:cc:0b:5e:fe:89:a9:32:29:b9:20:94:90:8f:2b:
         24:c6:e6:21:df:00:8e:fb:f7:8f:0b:49:0b:35:7b:14:f8:22:
         1a:a1:f8:c0
-----BEGIN CERTIFICATE-----
MIID1zCCAr+gAwIBAgIRAOPicir7bej5XduTJzD52OUwDQYJKoZIhvcNAQELBQAw
azELMAkGA1UEBhMCVVMxEzARBgNVBAgMCkNhbGlmb3JuaWExFjAUBgNVBAcMDU1v
dW50YWluIFZpZXcxEDAOBgNVBAoMB1Rlc3QgQ0ExHTAbBgNVBAMMFFRlc3QgSW50
ZXJtZWRpYXRlIENBMB4XDTIxMTIwMTE1NDIwN1oXDTIzMTIwMTE1NDIwN1owYDEL
MAkGA1UEBhMCVVMxEzARBgNVBAgMCkNhbGlmb3JuaWExFjAUBgNVBAcMDU1vdW50
YWluIFZpZXcxEDAOBgNVBAoMB1Rlc3QgQ0ExEjAQBgNVBAMMCTEyNy4wLjAuMTCC
ASIwDQYJKoZIhvcNAQEBBQADggEPADCCAQoCggEBAOBT9POYwRQzAsikbf6qKveU
PaZvAN873kyfo+oH1KzlWw3RrODt+cWYHTUt5bNJlxSFRA/cTNJnCIgBpdin65PR
aqH3UeeEflIqfbxvDtjbtqY+3tz1pGiWRBGFAu1HEt+4YHGVe2KHaHpEVgnVtMjx
9slGkoto6IPV1YZxI8OAHr9sAcfSpLxAbeDjwC4weL2t3SVm0/UHB1bXzuJyxSV9
DOGnbwCo2qtLVEMJZKS2Ujgvt8wB3RwDJwNHv9/mN7DtGNxRC9R1It9QezzrNzkc
m28Ie6cFrIxD9/HaUQazgkU+yIFznrClz3aWr4EsrAEqSlhLHb7/H4XCJ97xeAsC
AwEAAaOBgDB+MAwGA1UdEwEB/wQCMAAwHQYDVR0OBBYEFOLgpHOVm+lu/c4pxG8H
gQuWvUe6MB8GA1UdIwQYMBaAFBdcRfPQrBwQTItDRCDE3ZPFxRk7MB0GA1UdJQQW
MBQGCCsGAQUFBwMBBggrBgEFBQcDAjAPBgNVHREECDAGhwR/AAABMA0GCSqGSIb3
DQEBCwUAA4IBAQCSAkLrk687rnKlC9D8BWJM+inPDr0yG+fC/ELmuQQyLeFhaENP
16Onmj2gGwcJE13OgknLIJ7NKjIYzGHCQkUx3BTl/cVmABK6uqFRcWVj1yJM7G0o
Ng/lcFwNMMd1i3+Z11d0wGNb7p9f1oiW0hLP3khkCsKcgjVhDGyMPSgNJ8Tbe7+T
9wZ9P3Y3ImK1qvmV5cQG3a85e6sj1ymTbGMrCtQIFaYqx3fRyelONXd14jgXMPWy
sPFaBD2sPLSxTN7A+Fir76ZWO5hBciV9AmAicAuYKxrg9U1GqJTizAte/ompMim5
IJSQjyskxuYh3wCO+/ePC0kLNXsU+CIaofjA
-----END CERTIFICATE-----
Certificate:
    Data:
        Version: 3 (0x2)
        Serial Number:
            12:f6:d9:f1:80:1b:50:9f:64:09:c8:ea:2f:16:33:a0
        Signature Algorithm: sha256WithRSAEncryption
        Issuer: C=US, ST=California, L=Mountain View, O=Test CA, CN=Test Root CA
        Validity
            Not Before: Dec  1 15:42:06 2021 GMT
            Not After : Nov 29 15:42:06 2031 GMT
        Subject: C=US, ST=California, L=Mountain View, O=Test CA, CN=Test Intermediate CA
        Subject Public Key Info:
            Public Key Algorithm: rsaEncryption
                RSA Public-Key: (2048 bit)
                Modulus:
                    00:9d:e9:bd:e4:3d:4a:2f:fb:c2:f9:e6:22:2a:42:
                    15:46:1c:8c:8f:47:4c:e9:c5:57:95:1f:66:70:93:
                    22:f0:94:c3:bb:b5:5b:ef:a4:6f:c8:c7:89:95:75:
                    ba:0c:36:bf:4e:6b:a9:35:47:08:43:9e:29:6a:e2:
                    c3:fb:03:b7:1f:b6:e1:51:6b:ed:7b:19:c7:f9:ce:
                    3b:dc:65:e9:66:c7:83:94:c4:d1:4e:ee:ed:64:4b:
                    81:f1:1a:ea:5a:64:18:1b:6a:4e:93:d0:13:6c:90:
                    60:ca:d2:4e:b7:24:16:f8:b2:08:58:9d:8d:a7:33:
                    45:15:34:81:ad:2d:2d:9c:60:ef:f9:2b:98:fe:79:
                    d3:8d:2c:48:db:12:91:f4:2e:fa:bf:f5:26:c1:82:
                    05:80:dd:4c:a8:70:bf:a7:bc:10:34:77:39:db:47:
                    04:0f:ed:44:b2:65:46:22:20:88:59:28:0f:c7:0c:
                    a2:b4:91:a5:a2:aa:ca:05:9f:8a:9b:6e:a3:cb:d4:
                    a4:e8:24:75:9d:20:81:22:5b:5f:77:3e:c9:f1:1e:
                    ae:eb:8a:33:8c:27:5b:1e:be:6d:21:1b:42:72:95:
                    e3:9e:13:03:75:a7:58:d4:be:68:12:fe:63:8e:4b:
                    11:7a:34:e7:a3:6b:dd:73:ae:3e:19:9a:ec:91:8b:
                    73:af
                Exponent: 65537 (0x10001)
        X509v3 extensions:
            X509v3 Basic Constraints: critical
                CA:TRUE
            X509v3 Subject Key Identifier: 
                17:5C:45:F3:D0:AC:1C:10:4C:8B:43:44:20:C4:DD:93:C5:C5:19:3B
            X509v3 Key Usage: critical
                Certificate Sign, CRL Sign
    Signature Algorithm: sha256WithRSAEncryption
         9c:b1:c1:f7:c5:82:aa:43:3e:04:32:9c:32:18:de:ec:e4:d8:
         60:d8:83:a3:b0:9b:76:b8:e8:4e:e5:e2:45:d6:71:76:cc:f9:
         4d:5a:18:cb:06:4f:fb:a6:22:56:f3:d2:1b:c2:64:ff:c6:1e:
         21:da:34:a5:e3:eb:e6:98:cf:6e:2d:77:bb:e6:ac:37:24:b1:
         12:21:8b:88:11:ef:59:cf:b0:e0:a3:b5:6d:8c:ec:f8:de:ea:
         5e:e4:e0:ed:2f:7c:91:a1:d0:ba:69:d6:bc:24:b7:fe:7d:11:
         9e:65:ba:25:a5:22:55:53:fd:6b:18:30:17:ec:d3:d8:69:5a:
         51:4c:e4:27:47:13:a9:b1:8b:1b:b4:9a:f0:8f:a9:a2:91:56:
         b4:b9:e1:ed:c0:7e:58:34:e9:a5:2d:fd:02:b3:3b:47:02:42:
         6c:ce:c2:98:b1:45:11:06:68:3a:48:be:cc:bf:66:b0:8e:c6:
         02:ff:b8:68:64:d8:4b:44:25:b6:c5:78:63:17:53:e6:1b:8d:
         8d:5d:0c:54:c7:fa:01:25:e5:5d:d6:dc:52:e0:25:9d:12:0d:
         56:01:a9:c7:d9:3e:86:74:e1:d6:de:f9:0e:60:e2:6a:0f:a9:
         fa:4d:3a:1d:5b:b1:26:1c:a7:5f:9e:71:62:f0:2c:ad:1e:e8:
         ec:87:20:cf
-----BEGIN CERTIFICATE-----
MIIDmjCCAoKgAwIBAgIQEvbZ8YAbUJ9kCcjqLxYzoDANBgkqhkiG9w0BAQsFADBj
MQswCQYDVQQGEwJVUzETMBEGA1UECAwKQ2FsaWZvcm5pYTEWMBQGA1UEBwwNTW91
bnRhaW4gVmlldzEQMA4GA1UECgwHVGVzdCBDQTEVMBMGA1UEAwwMVGVzdCBSb290
IENBMB4XDTIxMTIwMTE1NDIwNloXDTMxMTEyOTE1NDIwNlowazELMAkGA1UEBhMC
VVMxEzARBgNVBAgMCkNhbGlmb3JuaWExFjAUBgNVBAcMDU1vdW50YWluIFZpZXcx
EDAOBgNVBAoMB1Rlc3QgQ0ExHTAbBgNVBAMMFFRlc3QgSW50ZXJtZWRpYXRlIENB
MIIBIjANBgkqhkiG9w0BAQEFAAOCAQ8AMIIBCgKCAQEAnem95D1KL/vC+eYiKkIV
RhyMj0dM6cVXlR9mcJMi8JTDu7Vb76RvyMeJlXW6DDa/TmupNUcIQ54pauLD+wO3
H7bhUWvtexnH+c473GXpZseDlMTRTu7tZEuB8RrqWmQYG2pOk9ATbJBgytJOtyQW
+LIIWJ2NpzNFFTSBrS0tnGDv+SuY/nnTjSxI2xKR9C76v/UmwYIFgN1MqHC/p7wQ
NHc520cED+1EsmVGIiCIWSgPxwyitJGloqrKBZ+Km26jy9Sk6CR1nSCBIltfdz7J
8R6u64ozjCdbHr5tIRtCcpXjnhMDdadY1L5oEv5jjksRejTno2vdc64+GZrskYtz
rwIDAQABo0IwQDAPBgNVHRMBAf8EBTADAQH/MB0GA1UdDgQWBBQXXEXz0KwcEEyL
Q0QgxN2TxcUZOzAOBgNVHQ8BAf8EBAMCAQYwDQYJKoZIhvcNAQELBQADggEBAJyx
wffFgqpDPgQynDIY3uzk2GDYg6Owm3a46E7l4kXWcXbM+U1aGMsGT/umIlbz0hvC
ZP/GHiHaNKXj6+aYz24td7vmrDcksRIhi4gR71nPsOCjtW2M7Pje6l7k4O0vfJGh
0Lpp1rwkt/59EZ5luiWlIlVT/WsYMBfs09hpWlFM5CdHE6mxixu0mvCPqaKRVrS5
4e3Aflg06aUt/QKzO0cCQmzOwpixRREGaDpIvsy/ZrCOxgL/uGhk2EtEJbbFeGMX
U+YbjY1dDFTH+gEl5V3W3FLgJZ0SDVYBqcfZPoZ04dbe+Q5g4moPqfpNOh1bsSYc
p1+ecWLwLK0e6OyHIM8=
-----END CERTIFICATE-----
Certificate:
    Data:
        Version: 3 (0x2)
        Serial Number:
            41:19:f1:f8:22:2d:a0:19:4d:d0:24:87:fc:af:13:d6:6b:d7:85:d9
        Signature Algorithm: sha256WithRSAEncryption
        Issuer: C = US, ST = California, L = Mountain View, O = Test CA, CN = Test Root CA
        Validity
            Not Before: Dec  1 15:42:06 2021 GMT
            Not After : Nov 29 15:42:06 2031 GMT
        Subject: C = US, ST = California, L = Mountain View, O = Test CA, CN = Test Root CA
        Subject Public Key Info:
            Public Key Algorithm: rsaEncryption
                RSA Public-Key: (2048 bit)
                Modulus:
                    00:c6:81:1f:92:73:b6:58:85:d9:8d:ac:b7:20:fd:
                    c7:bf:40:b2:ea:fa:e5:0b:52:01:8f:9a:c1:eb:7a:
                    80:c1:f3:89:a4:3e:d5:1b:61:cc:b5:cf:80:b1:1a:
                    db:bb:25:e0:18:bf:92:69:26:50:cd:e7:3f:ff:0d:
                    3c:b4:1f:14:12:ab:67:37:de:07:03:6c:12:74:82:
                    36:ac:c3:d4:d3:64:9f:91:ed:5b:f6:a9:7a:a4:9c:
                    98:e8:65:6c:94:e1:cb:55:73:ae:f8:1d:50:b0:78:
                    e5:74:ff:b1:37:2c:cb:19:3d:a4:8c:e7:76:4e:86:
                    5c:3f:df:b3:ed:45:23:4f:54:9b:33:c6:89:5e:13:
                    1d:dd:7d:59:a5:07:34:28:86:27:1f:fa:9e:53:4f:
                    2a:b6:42:ad:37:12:62:f5:72:36:b6:02:12:40:44:
                    fe:c7:9e:95:89:43:51:5e:b4:6e:c7:67:80:58:43:
                    be:cc:07:28:bd:59:ff:1c:4c:8d:90:42:f4:cf:fd:
                    54:00:4f:48:72:2b:e1:67:3c:84:17:68:95:bf:ca:
                    07:7b:df:86:9d:56:e3:32:e3:70:87:b7:f8:3a:f7:
                    e3:6e:65:14:7c:bb:76:b7:17:f1:42:8c:6f:2a:34:
                    64:10:35:14:8c:85:f6:57:bf:f3:5c:55:9d:ad:03:
                    10:f3
                Exponent: 65537 (0x10001)
        X509v3 extensions:
            X509v3 Basic Constraints: critical
                CA:TRUE
            X509v3 Subject Key Identifier: 
                9B:26:0B:8A:98:A9:BB:1D:B9:1F:1C:E3:1A:40:33:ED:8E:17:88:AB
            X509v3 Key Usage: critical
                Certificate Sign, CRL Sign
    Signature Algorithm: sha256WithRSAEncryption
         0e:7f:a2:5b:22:6e:92:a3:90:4d:13:89:e1:67:31:4a:db:d2:
         eb:d7:f9:e4:46:4a:58:3d:6b:10:f9:77:7c:ac:50:61:15:1a:
         60:f7:ea:47:62:4a:08:1d:8e:73:9d:1a:51:71:7f:31:85:db:
         03:7b:21:8a:fe:30:e0:3f:82:b0:8f:ce:e9:22:ab:48:ef:bc:
         5b:2d:38:52:a1:68:82:69:78:05:43:c0:bf:fd:a6:65:f3:b1:
         38:2a:4d:cc:18:b1:c6:51:cf:3a:09:3c:fe:eb:12:4d:59:a3:
         56:b0:bc:86:ea:9a:6d:08:e3:43:d9:66:a9:1f:66:bc:b8:a5:
         25:bf:fb:f9:d5:0d:fc:bc:78:a6:89:44:ad:06:c7:66:87:ae:
         d4:42:80:8b:7f:e5:e2:63:4a:4b:c3:6e:21:e5:eb:08:c7:08:
         94:00:6e:98:94:66:f5:c2:e2:51:79:d4:be:0f:51:ce:e0:48:
         b3:a9:69:54:8b:0f:e3:72:56:40:73:c3:18:d0:9a:ae:61:8e:
         cc:04:e9:79:3e:68:13:d2:c5:74:aa:1d:31:c8:c0:0e:bc:3e:
         de:f9:a3:e4:2c:06:e8:f9:36:7d:dc:d6:97:de:9d:89:fa:f1:
         27:f0:de:c9:64:7c:54:5c:4b:49:00:04:07:d4:77:26:5e:54:
         93:a1:c0:5d
-----BEGIN CERTIFICATE-----
MIIDljCCAn6gAwIBAgIUQRnx+CItoBlN0CSH/K8T1mvXhdkwDQYJKoZIhvcNAQEL
BQAwYzELMAkGA1UEBhMCVVMxEzARBgNVBAgMCkNhbGlmb3JuaWExFjAUBgNVBAcM
DU1vdW50YWluIFZpZXcxEDAOBgNVBAoMB1Rlc3QgQ0ExFTATBgNVBAMMDFRlc3Qg
Um9vdCBDQTAeFw0yMTEyMDExNTQyMDZaFw0zMTExMjkxNTQyMDZaMGMxCzAJBgNV
BAYTAlVTMRMwEQYDVQQIDApDYWxpZm9ybmlhMRYwFAYDVQQHDA1Nb3VudGFpbiBW
aWV3MRAwDgYDVQQKDAdUZXN0IENBMRUwEwYDVQQDDAxUZXN0IFJvb3QgQ0EwggEi
MA0GCSqGSIb3DQEBAQUAA4IBDwAwggEKAoIBAQDGgR+Sc7ZYhdmNrLcg/ce/QLLq
+uULUgGPmsHreoDB84mkPtUbYcy1z4CxGtu7JeAYv5JpJlDN5z//DTy0HxQSq2c3
3gcDbBJ0gjasw9TTZJ+R7Vv2qXqknJjoZWyU4ctVc674HVCweOV0/7E3LMsZPaSM
53ZOhlw/37PtRSNPVJszxoleEx3dfVmlBzQohicf+p5TTyq2Qq03EmL1cja2AhJA
RP7HnpWJQ1FetG7HZ4BYQ77MByi9Wf8cTI2QQvTP/VQAT0hyK+FnPIQXaJW/ygd7
34adVuMy43CHt/g69+NuZRR8u3a3F/FCjG8qNGQQNRSMhfZXv/NcVZ2tAxDzAgMB
AAGjQjBAMA8GA1UdEwEB/wQFMAMBAf8wHQYDVR0OBBYEFJsmC4qYqbsduR8c4xpA
M+2OF4irMA4GA1UdDwEB/wQEAwIBBjANBgkqhkiG9w0BAQsFAAOCAQEADn+iWyJu
kqOQTROJ4WcxStvS69f55EZKWD1rEPl3fKxQYRUaYPfqR2JKCB2Oc50aUXF/MYXb
A3shiv4w4D+CsI/O6SKrSO+8Wy04UqFogml4BUPAv/2mZfOxOCpNzBixxlHPOgk8
/usSTVmjVrC8huqabQjjQ9lmqR9mvLilJb/7+dUN/Lx4polErQbHZoeu1EKAi3/l
4mNKS8NuIeXrCMcIlABumJRm9cLiUXnUvg9RzuBIs6lpVIsP43JWQHPDGNCarmGO
zATpeT5oE9LFdKodMcjADrw+3vmj5CwG6Pk2fdzWl96difrxJ/DeyWR8VFxLSQAE
B9R3Jl5Uk6HAXQ==
-----END CERTIFICATE-----
