Certificate:
    Data:
        Version: 3 (0x2)
        Serial Number:
            9c:ac:13:39:97:f9:d0:e4:e8:7f:a3:f1:71:92:32:fa
        Signature Algorithm: sha256WithRSAEncryption
        Issuer: C=US, ST=California, L=Mountain View, O=Test CA, CN=Test Intermediate CA
        Validity
            Not Before: Oct  3 17:20:08 2022 GMT
            Not After : Oct  2 17:20:08 2024 GMT
        Subject: C=US, ST=California, L=Mountain View, O=Test CA, CN=127.0.0.1
        Subject Public Key Info:
            Public Key Algorithm: rsaEncryption
                Public-Key: (2048 bit)
                Modulus:
                    00:e0:53:f4:f3:98:c1:14:33:02:c8:a4:6d:fe:aa:
                    2a:f7:94:3d:a6:6f:00:df:3b:de:4c:9f:a3:ea:07:
                    d4:ac:e5:5b:0d:d1:ac:e0:ed:f9:c5:98:1d:35:2d:
                    e5:b3:49:97:14:85:44:0f:dc:4c:d2:67:08:88:01:
                    a5:d8:a7:eb:93:d1:6a:a1:f7:51:e7:84:7e:52:2a:
                    7d:bc:6f:0e:d8:db:b6:a6:3e:de:dc:f5:a4:68:96:
                    44:11:85:02:ed:47:12:df:b8:60:71:95:7b:62:87:
                    68:7a:44:56:09:d5:b4:c8:f1:f6:c9:46:92:8b:68:
                    e8:83:d5:d5:86:71:23:c3:80:1e:bf:6c:01:c7:d2:
                    a4:bc:40:6d:e0:e3:c0:2e:30:78:bd:ad:dd:25:66:
                    d3:f5:07:07:56:d7:ce:e2:72:c5:25:7d:0c:e1:a7:
                    6f:00:a8:da:ab:4b:54:43:09:64:a4:b6:52:38:2f:
                    b7:cc:01:dd:1c:03:27:03:47:bf:df:e6:37:b0:ed:
                    18:dc:51:0b:d4:75:22:df:50:7b:3c:eb:37:39:1c:
                    9b:6f:08:7b:a7:05:ac:8c:43:f7:f1:da:51:06:b3:
                    82:45:3e:c8:81:73:9e:b0:a5:cf:76:96:af:81:2c:
                    ac:01:2a:4a:58:4b:1d:be:ff:1f:85:c2:27:de:f1:
                    78:0b
                Exponent: 65537 (0x10001)
        X509v3 extensions:
            X509v3 Basic Constraints: critical
                CA:FALSE
            X509v3 Subject Key Identifier: 
                E2:E0:A4:73:95:9B:E9:6E:FD:CE:29:C4:6F:07:81:0B:96:BD:47:BA
            X509v3 Authority Key Identifier: 
                17:5C:45:F3:D0:AC:1C:10:4C:8B:43:44:20:C4:DD:93:C5:C5:19:3B
            X509v3 Extended Key Usage: 
                TLS Web Server Authentication, TLS Web Client Authentication
            X509v3 Subject Alternative Name: 
                IP Address:127.0.0.1
    Signature Algorithm: sha256WithRSAEncryption
    Signature Value:
        93:a1:82:4b:78:ce:18:3a:0a:ae:c8:3b:04:4a:1e:2a:e0:e8:
        c3:dd:15:cb:ed:4f:23:09:b8:d4:49:4f:3b:2c:98:bf:bd:7a:
        4e:de:6b:48:93:0c:17:50:d5:df:b0:8a:95:3a:f4:d2:3c:c4:
        71:cd:fc:d3:72:b1:99:dd:5c:82:74:df:42:d9:51:85:26:92:
        2b:c8:0d:1b:aa:e5:98:9f:9d:25:cd:82:f1:a5:42:20:9c:7f:
        e9:b3:b8:1e:75:70:2a:07:ee:33:db:6d:b6:6a:cb:e0:80:e9:
        fe:12:15:0f:4e:e6:78:99:a3:22:68:1a:bc:ce:77:45:f0:9f:
        ce:23:25:bd:32:b6:8d:f4:1a:3a:8e:e9:a7:bd:da:e7:d5:ba:
        84:38:4f:db:bb:29:7f:ec:4f:56:1a:c4:43:1a:0e:a5:c9:db:
        b1:69:9d:00:82:b6:b2:4b:67:e7:58:45:37:dc:30:81:93:5a:
        56:de:5e:0f:9c:d6:1a:73:9c:9e:f4:f1:8e:20:11:fc:f3:3f:
        77:7f:9a:f1:93:42:31:2b:5a:e2:70:f2:7a:f0:07:7e:28:c3:
        21:6a:c5:b3:fe:08:76:4b:a3:58:70:f6:44:22:a5:e1:b9:17:
        ce:a4:90:35:5c:c7:9a:e0:12:b7:5f:24:d5:60:0c:bd:9d:b6:
        1b:78:17:16
-----BEGIN CERTIFICATE-----
MIID1zCCAr+gAwIBAgIRAJysEzmX+dDk6H+j8XGSMvowDQYJKoZIhvcNAQELBQAw
azELMAkGA1UEBhMCVVMxEzARBgNVBAgMCkNhbGlmb3JuaWExFjAUBgNVBAcMDU1v
dW50YWluIFZpZXcxEDAOBgNVBAoMB1Rlc3QgQ0ExHTAbBgNVBAMMFFRlc3QgSW50
ZXJtZWRpYXRlIENBMB4XDTIyMTAwMzE3MjAwOFoXDTI0MTAwMjE3MjAwOFowYDEL
MAkGA1UEBhMCVVMxEzARBgNVBAgMCkNhbGlmb3JuaWExFjAUBgNVBAcMDU1vdW50
YWluIFZpZXcxEDAOBgNVBAoMB1Rlc3QgQ0ExEjAQBgNVBAMMCTEyNy4wLjAuMTCC
ASIwDQYJKoZIhvcNAQEBBQADggEPADCCAQoCggEBAOBT9POYwRQzAsikbf6qKveU
PaZvAN873kyfo+oH1KzlWw3RrODt+cWYHTUt5bNJlxSFRA/cTNJnCIgBpdin65PR
aqH3UeeEflIqfbxvDtjbtqY+3tz1pGiWRBGFAu1HEt+4YHGVe2KHaHpEVgnVtMjx
9slGkoto6IPV1YZxI8OAHr9sAcfSpLxAbeDjwC4weL2t3SVm0/UHB1bXzuJyxSV9
DOGnbwCo2qtLVEMJZKS2Ujgvt8wB3RwDJwNHv9/mN7DtGNxRC9R1It9QezzrNzkc
m28Ie6cFrIxD9/HaUQazgkU+yIFznrClz3aWr4EsrAEqSlhLHb7/H4XCJ97xeAsC
AwEAAaOBgDB+MAwGA1UdEwEB/wQCMAAwHQYDVR0OBBYEFOLgpHOVm+lu/c4pxG8H
gQuWvUe6MB8GA1UdIwQYMBaAFBdcRfPQrBwQTItDRCDE3ZPFxRk7MB0GA1UdJQQW
MBQGCCsGAQUFBwMBBggrBgEFBQcDAjAPBgNVHREECDAGhwR/AAABMA0GCSqGSIb3
DQEBCwUAA4IBAQCToYJLeM4YOgquyDsESh4q4OjD3RXL7U8jCbjUSU87LJi/vXpO
3mtIkwwXUNXfsIqVOvTSPMRxzfzTcrGZ3VyCdN9C2VGFJpIryA0bquWYn50lzYLx
pUIgnH/ps7gedXAqB+4z2222asvggOn+EhUPTuZ4maMiaBq8zndF8J/OIyW9MraN
9Bo6jumnvdrn1bqEOE/buyl/7E9WGsRDGg6lyduxaZ0AgrayS2fnWEU33DCBk1pW
3l4PnNYac5ye9PGOIBH88z93f5rxk0IxK1ricPJ68Ad+KMMhasWz/gh2S6NYcPZE
IqXhuRfOpJA1XMea4BK3XyTVYAy9nbYbeBcW
-----END CERTIFICATE-----
Certificate:
    Data:
        Version: 3 (0x2)
        Serial Number:
            b0:6b:93:92:e3:5c:8d:7e:ed:9d:c8:96:59:c5:c2:64
        Signature Algorithm: sha256WithRSAEncryption
        Issuer: C=US, ST=California, L=Mountain View, O=Test CA, CN=Test Root CA
        Validity
            Not Before: Oct  3 17:20:08 2022 GMT
            Not After : Sep 30 17:20:08 2032 GMT
        Subject: C=US, ST=California, L=Mountain View, O=Test CA, CN=Test Intermediate CA
        Subject Public Key Info:
            Public Key Algorithm: rsaEncryption
                Public-Key: (2048 bit)
                Modulus:
                    00:9d:e9:bd:e4:3d:4a:2f:fb:c2:f9:e6:22:2a:42:
                    15:46:1c:8c:8f:47:4c:e9:c5:57:95:1f:66:70:93:
                    22:f0:94:c3:bb:b5:5b:ef:a4:6f:c8:c7:89:95:75:
                    ba:0c:36:bf:4e:6b:a9:35:47:08:43:9e:29:6a:e2:
                    c3:fb:03:b7:1f:b6:e1:51:6b:ed:7b:19:c7:f9:ce:
                    3b:dc:65:e9:66:c7:83:94:c4:d1:4e:ee:ed:64:4b:
                    81:f1:1a:ea:5a:64:18:1b:6a:4e:93:d0:13:6c:90:
                    60:ca:d2:4e:b7:24:16:f8:b2:08:58:9d:8d:a7:33:
                    45:15:34:81:ad:2d:2d:9c:60:ef:f9:2b:98:fe:79:
                    d3:8d:2c:48:db:12:91:f4:2e:fa:bf:f5:26:c1:82:
                    05:80:dd:4c:a8:70:bf:a7:bc:10:34:77:39:db:47:
                    04:0f:ed:44:b2:65:46:22:20:88:59:28:0f:c7:0c:
                    a2:b4:91:a5:a2:aa:ca:05:9f:8a:9b:6e:a3:cb:d4:
                    a4:e8:24:75:9d:20:81:22:5b:5f:77:3e:c9:f1:1e:
                    ae:eb:8a:33:8c:27:5b:1e:be:6d:21:1b:42:72:95:
                    e3:9e:13:03:75:a7:58:d4:be:68:12:fe:63:8e:4b:
                    11:7a:34:e7:a3:6b:dd:73:ae:3e:19:9a:ec:91:8b:
                    73:af
                Exponent: 65537 (0x10001)
        X509v3 extensions:
            X509v3 Basic Constraints: critical
                CA:TRUE
            X509v3 Subject Key Identifier: 
                17:5C:45:F3:D0:AC:1C:10:4C:8B:43:44:20:C4:DD:93:C5:C5:19:3B
            X509v3 Key Usage: critical
                Certificate Sign, CRL Sign
            X509v3 Authority Key Identifier: 
                9B:26:0B:8A:98:A9:BB:1D:B9:1F:1C:E3:1A:40:33:ED:8E:17:88:AB
    Signature Algorithm: sha256WithRSAEncryption
    Signature Value:
        25:54:8b:68:3b:3c:92:ed:1b:c7:a1:62:b3:7c:ff:7e:8c:57:
        7c:67:5c:ea:74:9f:e8:f1:b5:c8:e4:88:0e:c9:a3:f3:28:c4:
        05:af:8f:ad:51:32:66:ae:5d:7a:b1:77:7e:99:06:c8:30:26:
        5a:9f:1e:34:ea:aa:3e:0a:73:a2:40:e3:8f:1a:01:96:a2:6d:
        2f:6c:d9:36:65:98:c8:86:41:0e:ee:0d:aa:da:62:54:62:23:
        c6:23:b0:f1:ca:35:7b:e5:4b:d1:ab:80:80:d6:00:2b:19:85:
        9d:e0:3c:3f:13:1e:90:d2:df:c3:31:90:0f:a8:40:08:33:4e:
        f7:a4:d0:ed:3e:a4:41:cf:e8:37:49:d1:58:e8:07:3d:4b:a1:
        c9:fe:12:07:9a:de:e0:c8:f3:68:d6:31:5d:03:77:2f:fa:b0:
        e6:2c:f3:80:59:d0:9b:1b:59:22:cd:7e:58:c6:cf:82:92:c3:
        76:95:78:b2:75:c8:fa:59:9f:0e:c0:e3:6d:70:f9:82:ba:db:
        89:89:81:b7:b9:e1:41:63:51:56:8a:5a:d2:52:c2:19:2f:d9:
        c0:9d:19:82:59:79:f9:56:1c:25:81:4d:0a:cd:77:1b:de:85:
        6e:51:04:08:0b:0c:33:65:52:f6:90:a8:82:25:77:a0:fa:5e:
        9c:2a:91:66
-----BEGIN CERTIFICATE-----
MIIDvDCCAqSgAwIBAgIRALBrk5LjXI1+7Z3IllnFwmQwDQYJKoZIhvcNAQELBQAw
YzELMAkGA1UEBhMCVVMxEzARBgNVBAgMCkNhbGlmb3JuaWExFjAUBgNVBAcMDU1v
dW50YWluIFZpZXcxEDAOBgNVBAoMB1Rlc3QgQ0ExFTATBgNVBAMMDFRlc3QgUm9v
dCBDQTAeFw0yMjEwMDMxNzIwMDhaFw0zMjA5MzAxNzIwMDhaMGsxCzAJBgNVBAYT
AlVTMRMwEQYDVQQIDApDYWxpZm9ybmlhMRYwFAYDVQQHDA1Nb3VudGFpbiBWaWV3
MRAwDgYDVQQKDAdUZXN0IENBMR0wGwYDVQQDDBRUZXN0IEludGVybWVkaWF0ZSBD
QTCCASIwDQYJKoZIhvcNAQEBBQADggEPADCCAQoCggEBAJ3pveQ9Si/7wvnmIipC
FUYcjI9HTOnFV5UfZnCTIvCUw7u1W++kb8jHiZV1ugw2v05rqTVHCEOeKWriw/sD
tx+24VFr7XsZx/nOO9xl6WbHg5TE0U7u7WRLgfEa6lpkGBtqTpPQE2yQYMrSTrck
FviyCFidjaczRRU0ga0tLZxg7/krmP55040sSNsSkfQu+r/1JsGCBYDdTKhwv6e8
EDR3OdtHBA/tRLJlRiIgiFkoD8cMorSRpaKqygWfiptuo8vUpOgkdZ0ggSJbX3c+
yfEeruuKM4wnWx6+bSEbQnKV454TA3WnWNS+aBL+Y45LEXo056Nr3XOuPhma7JGL
c68CAwEAAaNjMGEwDwYDVR0TAQH/BAUwAwEB/zAdBgNVHQ4EFgQUF1xF89CsHBBM
i0NEIMTdk8XFGTswDgYDVR0PAQH/BAQDAgEGMB8GA1UdIwQYMBaAFJsmC4qYqbsd
uR8c4xpAM+2OF4irMA0GCSqGSIb3DQEBCwUAA4IBAQAlVItoOzyS7RvHoWKzfP9+
jFd8Z1zqdJ/o8bXI5IgOyaPzKMQFr4+tUTJmrl16sXd+mQbIMCZanx406qo+CnOi
QOOPGgGWom0vbNk2ZZjIhkEO7g2q2mJUYiPGI7DxyjV75UvRq4CA1gArGYWd4Dw/
Ex6Q0t/DMZAPqEAIM073pNDtPqRBz+g3SdFY6Ac9S6HJ/hIHmt7gyPNo1jFdA3cv
+rDmLPOAWdCbG1kizX5Yxs+CksN2lXiydcj6WZ8OwONtcPmCutuJiYG3ueFBY1FW
ilrSUsIZL9nAnRmCWXn5VhwlgU0KzXcb3oVuUQQICwwzZVL2kKiCJXeg+l6cKpFm
-----END CERTIFICATE-----
Certificate:
    Data:
        Version: 3 (0x2)
        Serial Number:
            0b:cc:00:80:c9:a0:0b:a1:c7:09:7c:9f:71:0d:90:92:cf:ee:c7:f4
        Signature Algorithm: sha256WithRSAEncryption
        Issuer: C = US, ST = California, L = Mountain View, O = Test CA, CN = Test Root CA
        Validity
            Not Before: Oct  3 17:20:08 2022 GMT
            Not After : Sep 30 17:20:08 2032 GMT
        Subject: C = US, ST = California, L = Mountain View, O = Test CA, CN = Test Root CA
        Subject Public Key Info:
            Public Key Algorithm: rsaEncryption
                Public-Key: (2048 bit)
                Modulus:
                    00:c6:81:1f:92:73:b6:58:85:d9:8d:ac:b7:20:fd:
                    c7:bf:40:b2:ea:fa:e5:0b:52:01:8f:9a:c1:eb:7a:
                    80:c1:f3:89:a4:3e:d5:1b:61:cc:b5:cf:80:b1:1a:
                    db:bb:25:e0:18:bf:92:69:26:50:cd:e7:3f:ff:0d:
                    3c:b4:1f:14:12:ab:67:37:de:07:03:6c:12:74:82:
                    36:ac:c3:d4:d3:64:9f:91:ed:5b:f6:a9:7a:a4:9c:
                    98:e8:65:6c:94:e1:cb:55:73:ae:f8:1d:50:b0:78:
                    e5:74:ff:b1:37:2c:cb:19:3d:a4:8c:e7:76:4e:86:
                    5c:3f:df:b3:ed:45:23:4f:54:9b:33:c6:89:5e:13:
                    1d:dd:7d:59:a5:07:34:28:86:27:1f:fa:9e:53:4f:
                    2a:b6:42:ad:37:12:62:f5:72:36:b6:02:12:40:44:
                    fe:c7:9e:95:89:43:51:5e:b4:6e:c7:67:80:58:43:
                    be:cc:07:28:bd:59:ff:1c:4c:8d:90:42:f4:cf:fd:
                    54:00:4f:48:72:2b:e1:67:3c:84:17:68:95:bf:ca:
                    07:7b:df:86:9d:56:e3:32:e3:70:87:b7:f8:3a:f7:
                    e3:6e:65:14:7c:bb:76:b7:17:f1:42:8c:6f:2a:34:
                    64:10:35:14:8c:85:f6:57:bf:f3:5c:55:9d:ad:03:
                    10:f3
                Exponent: 65537 (0x10001)
        X509v3 extensions:
            X509v3 Basic Constraints: critical
                CA:TRUE
            X509v3 Subject Key Identifier: 
                9B:26:0B:8A:98:A9:BB:1D:B9:1F:1C:E3:1A:40:33:ED:8E:17:88:AB
            X509v3 Key Usage: critical
                Certificate Sign, CRL Sign
    Signature Algorithm: sha256WithRSAEncryption
    Signature Value:
        39:9a:f6:0e:eb:08:4d:a0:f0:59:b9:91:fe:b5:d8:2e:4d:6b:
        69:69:c5:d2:86:fc:a3:c2:a2:6c:ca:8d:98:1b:d2:fc:64:9b:
        96:b4:47:f9:f4:ed:6f:52:3c:b5:13:f6:1e:71:51:3b:da:54:
        93:c4:1d:94:17:23:76:9a:98:f5:9b:b8:b1:c5:ab:cd:ab:bd:
        1a:c9:00:13:e0:e3:c7:5a:a7:21:71:eb:08:2b:ec:85:5c:08:
        80:33:25:0f:1f:52:41:c4:9b:22:58:01:24:55:ef:9a:a6:ce:
        e4:85:a3:19:33:4d:7e:3f:04:32:15:d5:fc:63:5f:8b:dc:99:
        2b:10:63:56:ac:60:6e:f9:db:9f:63:7b:a8:df:ab:72:28:8a:
        a9:e2:8e:9d:e6:6c:7e:5b:16:ba:94:b2:23:f2:d7:31:5b:de:
        58:a0:8b:be:f4:6a:d2:d3:b4:e6:40:06:78:7a:2d:20:4c:cd:
        9d:20:dd:3b:fc:b9:f3:94:13:b0:6b:18:d7:6b:e8:bf:14:cc:
        87:30:8b:64:3f:ad:59:93:e5:f6:7c:d1:2b:f0:8e:4a:9c:c3:
        34:18:4d:62:33:bd:a6:3a:b6:3f:1f:49:5b:63:b4:01:a8:5c:
        f0:98:93:35:53:2e:b2:f2:19:7f:87:0d:db:b1:80:61:38:c8:
        47:01:85:b0
-----BEGIN CERTIFICATE-----
MIIDljCCAn6gAwIBAgIUC8wAgMmgC6HHCXyfcQ2Qks/ux/QwDQYJKoZIhvcNAQEL
BQAwYzELMAkGA1UEBhMCVVMxEzARBgNVBAgMCkNhbGlmb3JuaWExFjAUBgNVBAcM
DU1vdW50YWluIFZpZXcxEDAOBgNVBAoMB1Rlc3QgQ0ExFTATBgNVBAMMDFRlc3Qg
Um9vdCBDQTAeFw0yMjEwMDMxNzIwMDhaFw0zMjA5MzAxNzIwMDhaMGMxCzAJBgNV
BAYTAlVTMRMwEQYDVQQIDApDYWxpZm9ybmlhMRYwFAYDVQQHDA1Nb3VudGFpbiBW
aWV3MRAwDgYDVQQKDAdUZXN0IENBMRUwEwYDVQQDDAxUZXN0IFJvb3QgQ0EwggEi
MA0GCSqGSIb3DQEBAQUAA4IBDwAwggEKAoIBAQDGgR+Sc7ZYhdmNrLcg/ce/QLLq
+uULUgGPmsHreoDB84mkPtUbYcy1z4CxGtu7JeAYv5JpJlDN5z//DTy0HxQSq2c3
3gcDbBJ0gjasw9TTZJ+R7Vv2qXqknJjoZWyU4ctVc674HVCweOV0/7E3LMsZPaSM
53ZOhlw/37PtRSNPVJszxoleEx3dfVmlBzQohicf+p5TTyq2Qq03EmL1cja2AhJA
RP7HnpWJQ1FetG7HZ4BYQ77MByi9Wf8cTI2QQvTP/VQAT0hyK+FnPIQXaJW/ygd7
34adVuMy43CHt/g69+NuZRR8u3a3F/FCjG8qNGQQNRSMhfZXv/NcVZ2tAxDzAgMB
AAGjQjBAMA8GA1UdEwEB/wQFMAMBAf8wHQYDVR0OBBYEFJsmC4qYqbsduR8c4xpA
M+2OF4irMA4GA1UdDwEB/wQEAwIBBjANBgkqhkiG9w0BAQsFAAOCAQEAOZr2DusI
TaDwWbmR/rXYLk1raWnF0ob8o8KibMqNmBvS/GSblrRH+fTtb1I8tRP2HnFRO9pU
k8QdlBcjdpqY9Zu4scWrzau9GskAE+Djx1qnIXHrCCvshVwIgDMlDx9SQcSbIlgB
JFXvmqbO5IWjGTNNfj8EMhXV/GNfi9yZKxBjVqxgbvnbn2N7qN+rciiKqeKOneZs
flsWupSyI/LXMVveWKCLvvRq0tO05kAGeHotIEzNnSDdO/y585QTsGsY12vovxTM
hzCLZD+tWZPl9nzRK/COSpzDNBhNYjO9pjq2Px9JW2O0Aahc8JiTNVMusvIZf4cN
27GAYTjIRwGFsA==
-----END CERTIFICATE-----
