Certificate:
    Data:
        Version: 3 (0x2)
        Serial Number:
            5f:23:b6:e4:95:4b:65:81:8e:70:c7:91:28:90:a4:88
        Signature Algorithm: sha256WithRSAEncryption
        Issuer: C=US, ST=California, L=Mountain View, O=Test CA, CN=Test Intermediate CA
        Validity
            Not Before: Oct 10 17:12:19 2025 GMT
            Not After : Oct 10 17:12:19 2027 GMT
        Subject: C=US, ST=California, L=Mountain View, O=Test CA, CN=127.0.0.1
        Subject Public Key Info:
            Public Key Algorithm: rsaEncryption
                Public-Key: (2048 bit)
                Modulus:
                    00:e0:53:f4:f3:98:c1:14:33:02:c8:a4:6d:fe:aa:
                    2a:f7:94:3d:a6:6f:00:df:3b:de:4c:9f:a3:ea:07:
                    d4:ac:e5:5b:0d:d1:ac:e0:ed:f9:c5:98:1d:35:2d:
                    e5:b3:49:97:14:85:44:0f:dc:4c:d2:67:08:88:01:
                    a5:d8:a7:eb:93:d1:6a:a1:f7:51:e7:84:7e:52:2a:
                    7d:bc:6f:0e:d8:db:b6:a6:3e:de:dc:f5:a4:68:96:
                    44:11:85:02:ed:47:12:df:b8:60:71:95:7b:62:87:
                    68:7a:44:56:09:d5:b4:c8:f1:f6:c9:46:92:8b:68:
                    e8:83:d5:d5:86:71:23:c3:80:1e:bf:6c:01:c7:d2:
                    a4:bc:40:6d:e0:e3:c0:2e:30:78:bd:ad:dd:25:66:
                    d3:f5:07:07:56:d7:ce:e2:72:c5:25:7d:0c:e1:a7:
                    6f:00:a8:da:ab:4b:54:43:09:64:a4:b6:52:38:2f:
                    b7:cc:01:dd:1c:03:27:03:47:bf:df:e6:37:b0:ed:
                    18:dc:51:0b:d4:75:22:df:50:7b:3c:eb:37:39:1c:
                    9b:6f:08:7b:a7:05:ac:8c:43:f7:f1:da:51:06:b3:
                    82:45:3e:c8:81:73:9e:b0:a5:cf:76:96:af:81:2c:
                    ac:01:2a:4a:58:4b:1d:be:ff:1f:85:c2:27:de:f1:
                    78:0b
                Exponent: 65537 (0x10001)
        X509v3 extensions:
            X509v3 Basic Constraints: critical
                CA:FALSE
            X509v3 Subject Key Identifier: 
                E2:E0:A4:73:95:9B:E9:6E:FD:CE:29:C4:6F:07:81:0B:96:BD:47:BA
            X509v3 Authority Key Identifier: 
                17:5C:45:F3:D0:AC:1C:10:4C:8B:43:44:20:C4:DD:93:C5:C5:19:3B
            X509v3 Extended Key Usage: 
                TLS Web Server Authentication, TLS Web Client Authentication
            X509v3 Subject Alternative Name: 
                IP Address:127.0.0.1
    Signature Algorithm: sha256WithRSAEncryption
    Signature Value:
        0d:64:bb:3f:9f:0a:3b:e9:be:f0:71:e0:0e:b1:38:20:ba:ec:
        b5:7b:e0:71:0b:0f:b2:1b:05:6a:04:df:19:5f:a7:15:d3:b9:
        ab:af:33:45:ae:21:f4:c1:0c:4f:66:24:d0:bc:68:85:6a:65:
        78:b4:ef:ee:ed:c2:26:48:44:15:a1:e1:36:3d:38:59:74:28:
        71:94:a6:f7:dc:67:98:41:73:2a:ff:5b:52:8e:80:91:ad:aa:
        31:b1:0e:3c:18:04:c8:10:15:aa:ba:9b:16:6a:21:84:81:51:
        34:20:c5:bc:88:de:24:66:24:cf:2f:91:1a:15:6d:3a:a4:53:
        68:b5:aa:1e:1a:e1:4f:5d:74:82:c5:8e:3f:ae:10:be:6d:c9:
        d7:bc:0c:01:e5:3a:b1:d4:d9:b9:7e:6c:b3:7a:9c:df:7b:12:
        38:a9:ef:d5:de:ff:81:bc:dc:9f:b3:bf:65:cd:8b:e7:1b:56:
        f8:0d:ec:0a:e8:94:e3:ef:79:5b:04:30:a4:fc:58:44:e4:de:
        0a:0f:ee:d8:ca:7b:6e:f6:b5:e9:ff:ce:ae:f7:69:ec:97:bf:
        1d:d1:b7:4a:5e:83:c2:cd:ce:27:d3:d6:11:02:1b:1a:06:74:
        c6:a9:70:b2:26:c4:51:63:95:fb:f3:a1:43:bb:a5:a0:40:0a:
        8c:62:c3:10
-----BEGIN CERTIFICATE-----
MIID1jCCAr6gAwIBAgIQXyO25JVLZYGOcMeRKJCkiDANBgkqhkiG9w0BAQsFADBr
MQswCQYDVQQGEwJVUzETMBEGA1UECAwKQ2FsaWZvcm5pYTEWMBQGA1UEBwwNTW91
bnRhaW4gVmlldzEQMA4GA1UECgwHVGVzdCBDQTEdMBsGA1UEAwwUVGVzdCBJbnRl
cm1lZGlhdGUgQ0EwHhcNMjUxMDEwMTcxMjE5WhcNMjcxMDEwMTcxMjE5WjBgMQsw
CQYDVQQGEwJVUzETMBEGA1UECAwKQ2FsaWZvcm5pYTEWMBQGA1UEBwwNTW91bnRh
aW4gVmlldzEQMA4GA1UECgwHVGVzdCBDQTESMBAGA1UEAwwJMTI3LjAuMC4xMIIB
IjANBgkqhkiG9w0BAQEFAAOCAQ8AMIIBCgKCAQEA4FP085jBFDMCyKRt/qoq95Q9
pm8A3zveTJ+j6gfUrOVbDdGs4O35xZgdNS3ls0mXFIVED9xM0mcIiAGl2Kfrk9Fq
ofdR54R+Uip9vG8O2Nu2pj7e3PWkaJZEEYUC7UcS37hgcZV7YodoekRWCdW0yPH2
yUaSi2jog9XVhnEjw4Aev2wBx9KkvEBt4OPALjB4va3dJWbT9QcHVtfO4nLFJX0M
4advAKjaq0tUQwlkpLZSOC+3zAHdHAMnA0e/3+Y3sO0Y3FEL1HUi31B7POs3ORyb
bwh7pwWsjEP38dpRBrOCRT7IgXOesKXPdpavgSysASpKWEsdvv8fhcIn3vF4CwID
AQABo4GAMH4wDAYDVR0TAQH/BAIwADAdBgNVHQ4EFgQU4uCkc5Wb6W79zinEbweB
C5a9R7owHwYDVR0jBBgwFoAUF1xF89CsHBBMi0NEIMTdk8XFGTswHQYDVR0lBBYw
FAYIKwYBBQUHAwEGCCsGAQUFBwMCMA8GA1UdEQQIMAaHBH8AAAEwDQYJKoZIhvcN
AQELBQADggEBAA1kuz+fCjvpvvBx4A6xOCC67LV74HELD7IbBWoE3xlfpxXTuauv
M0WuIfTBDE9mJNC8aIVqZXi07+7twiZIRBWh4TY9OFl0KHGUpvfcZ5hBcyr/W1KO
gJGtqjGxDjwYBMgQFaq6mxZqIYSBUTQgxbyI3iRmJM8vkRoVbTqkU2i1qh4a4U9d
dILFjj+uEL5tyde8DAHlOrHU2bl+bLN6nN97Ejip79Xe/4G83J+zv2XNi+cbVvgN
7ArolOPveVsEMKT8WETk3goP7tjKe272ten/zq73aeyXvx3Rt0peg8LNzifT1hEC
GxoGdMapcLImxFFjlfvzoUO7paBACoxiwxA=
-----END CERTIFICATE-----
Certificate:
    Data:
        Version: 3 (0x2)
        Serial Number:
            f9:fc:f0:61:a5:95:a9:3e:04:b2:80:d9:e4:4d:dd:15
        Signature Algorithm: sha256WithRSAEncryption
        Issuer: C=US, ST=California, L=Mountain View, O=Test CA, CN=Test Root CA
        Validity
            Not Before: Oct 10 17:12:19 2025 GMT
            Not After : Oct  8 17:12:19 2035 GMT
        Subject: C=US, ST=California, L=Mountain View, O=Test CA, CN=Test Intermediate CA
        Subject Public Key Info:
            Public Key Algorithm: rsaEncryption
                Public-Key: (2048 bit)
                Modulus:
                    00:9d:e9:bd:e4:3d:4a:2f:fb:c2:f9:e6:22:2a:42:
                    15:46:1c:8c:8f:47:4c:e9:c5:57:95:1f:66:70:93:
                    22:f0:94:c3:bb:b5:5b:ef:a4:6f:c8:c7:89:95:75:
                    ba:0c:36:bf:4e:6b:a9:35:47:08:43:9e:29:6a:e2:
                    c3:fb:03:b7:1f:b6:e1:51:6b:ed:7b:19:c7:f9:ce:
                    3b:dc:65:e9:66:c7:83:94:c4:d1:4e:ee:ed:64:4b:
                    81:f1:1a:ea:5a:64:18:1b:6a:4e:93:d0:13:6c:90:
                    60:ca:d2:4e:b7:24:16:f8:b2:08:58:9d:8d:a7:33:
                    45:15:34:81:ad:2d:2d:9c:60:ef:f9:2b:98:fe:79:
                    d3:8d:2c:48:db:12:91:f4:2e:fa:bf:f5:26:c1:82:
                    05:80:dd:4c:a8:70:bf:a7:bc:10:34:77:39:db:47:
                    04:0f:ed:44:b2:65:46:22:20:88:59:28:0f:c7:0c:
                    a2:b4:91:a5:a2:aa:ca:05:9f:8a:9b:6e:a3:cb:d4:
                    a4:e8:24:75:9d:20:81:22:5b:5f:77:3e:c9:f1:1e:
                    ae:eb:8a:33:8c:27:5b:1e:be:6d:21:1b:42:72:95:
                    e3:9e:13:03:75:a7:58:d4:be:68:12:fe:63:8e:4b:
                    11:7a:34:e7:a3:6b:dd:73:ae:3e:19:9a:ec:91:8b:
                    73:af
                Exponent: 65537 (0x10001)
        X509v3 extensions:
            X509v3 Basic Constraints: critical
                CA:TRUE
            X509v3 Subject Key Identifier: 
                17:5C:45:F3:D0:AC:1C:10:4C:8B:43:44:20:C4:DD:93:C5:C5:19:3B
            X509v3 Key Usage: critical
                Certificate Sign, CRL Sign
            X509v3 Authority Key Identifier: 
                9B:26:0B:8A:98:A9:BB:1D:B9:1F:1C:E3:1A:40:33:ED:8E:17:88:AB
    Signature Algorithm: sha256WithRSAEncryption
    Signature Value:
        22:24:b6:d3:ed:ba:4a:c1:c9:4f:be:de:2a:41:72:2b:56:a7:
        64:35:a4:7d:41:74:fc:76:c2:f6:e1:4e:ed:e4:34:e0:10:f1:
        cd:26:f6:78:76:50:f7:38:df:c8:60:9a:92:be:e0:d6:17:0d:
        ea:6d:bd:2c:d2:a3:d2:0e:46:d0:81:7a:1c:02:b2:05:ce:2b:
        b3:e6:17:8e:4a:73:11:a3:3f:9a:8c:47:91:8e:c9:47:f2:d1:
        d4:8d:b8:46:5b:55:fe:8a:21:50:26:5b:e8:10:7d:35:34:5f:
        6e:09:83:15:46:50:4f:ba:86:dc:04:57:55:9c:3e:05:ac:e8:
        f9:87:10:e2:91:ff:24:3e:6a:31:75:4b:de:72:5d:52:3b:fe:
        02:e6:c9:3f:65:83:a0:59:d3:d9:4d:c5:51:0f:5f:2f:c8:90:
        30:e4:17:3a:95:d9:d9:f0:e3:af:2f:8f:01:ab:23:90:da:e4:
        29:55:3a:31:c5:de:67:3e:b3:4b:cc:f0:5b:94:fd:5d:f6:55:
        ba:c3:8e:f3:70:e8:88:19:40:b8:7f:d7:29:4c:1c:12:7e:a4:
        61:ad:02:33:d2:0a:14:d1:fb:79:82:20:96:20:17:8e:dc:49:
        cf:70:38:a6:18:d1:ae:97:cc:4b:d6:b6:bb:09:36:74:e8:29:
        41:ee:70:e6
-----BEGIN CERTIFICATE-----
MIIDvDCCAqSgAwIBAgIRAPn88GGllak+BLKA2eRN3RUwDQYJKoZIhvcNAQELBQAw
YzELMAkGA1UEBhMCVVMxEzARBgNVBAgMCkNhbGlmb3JuaWExFjAUBgNVBAcMDU1v
dW50YWluIFZpZXcxEDAOBgNVBAoMB1Rlc3QgQ0ExFTATBgNVBAMMDFRlc3QgUm9v
dCBDQTAeFw0yNTEwMTAxNzEyMTlaFw0zNTEwMDgxNzEyMTlaMGsxCzAJBgNVBAYT
AlVTMRMwEQYDVQQIDApDYWxpZm9ybmlhMRYwFAYDVQQHDA1Nb3VudGFpbiBWaWV3
MRAwDgYDVQQKDAdUZXN0IENBMR0wGwYDVQQDDBRUZXN0IEludGVybWVkaWF0ZSBD
QTCCASIwDQYJKoZIhvcNAQEBBQADggEPADCCAQoCggEBAJ3pveQ9Si/7wvnmIipC
FUYcjI9HTOnFV5UfZnCTIvCUw7u1W++kb8jHiZV1ugw2v05rqTVHCEOeKWriw/sD
tx+24VFr7XsZx/nOO9xl6WbHg5TE0U7u7WRLgfEa6lpkGBtqTpPQE2yQYMrSTrck
FviyCFidjaczRRU0ga0tLZxg7/krmP55040sSNsSkfQu+r/1JsGCBYDdTKhwv6e8
EDR3OdtHBA/tRLJlRiIgiFkoD8cMorSRpaKqygWfiptuo8vUpOgkdZ0ggSJbX3c+
yfEeruuKM4wnWx6+bSEbQnKV454TA3WnWNS+aBL+Y45LEXo056Nr3XOuPhma7JGL
c68CAwEAAaNjMGEwDwYDVR0TAQH/BAUwAwEB/zAdBgNVHQ4EFgQUF1xF89CsHBBM
i0NEIMTdk8XFGTswDgYDVR0PAQH/BAQDAgEGMB8GA1UdIwQYMBaAFJsmC4qYqbsd
uR8c4xpAM+2OF4irMA0GCSqGSIb3DQEBCwUAA4IBAQAiJLbT7bpKwclPvt4qQXIr
VqdkNaR9QXT8dsL24U7t5DTgEPHNJvZ4dlD3ON/IYJqSvuDWFw3qbb0s0qPSDkbQ
gXocArIFziuz5heOSnMRoz+ajEeRjslH8tHUjbhGW1X+iiFQJlvoEH01NF9uCYMV
RlBPuobcBFdVnD4FrOj5hxDikf8kPmoxdUvecl1SO/4C5sk/ZYOgWdPZTcVRD18v
yJAw5Bc6ldnZ8OOvL48BqyOQ2uQpVToxxd5nPrNLzPBblP1d9lW6w47zcOiIGUC4
f9cpTBwSfqRhrQIz0goU0ft5giCWIBeO3EnPcDimGNGul8xL1ra7CTZ06ClB7nDm
-----END CERTIFICATE-----
Certificate:
    Data:
        Version: 3 (0x2)
        Serial Number:
            7c:22:d7:45:31:7e:86:f3:99:31:13:02:8a:19:6e:d9:c9:ac:c8:08
        Signature Algorithm: sha256WithRSAEncryption
        Issuer: C=US, ST=California, L=Mountain View, O=Test CA, CN=Test Root CA
        Validity
            Not Before: Oct 10 17:12:19 2025 GMT
            Not After : Oct  8 17:12:19 2035 GMT
        Subject: C=US, ST=California, L=Mountain View, O=Test CA, CN=Test Root CA
        Subject Public Key Info:
            Public Key Algorithm: rsaEncryption
                Public-Key: (2048 bit)
                Modulus:
                    00:c6:81:1f:92:73:b6:58:85:d9:8d:ac:b7:20:fd:
                    c7:bf:40:b2:ea:fa:e5:0b:52:01:8f:9a:c1:eb:7a:
                    80:c1:f3:89:a4:3e:d5:1b:61:cc:b5:cf:80:b1:1a:
                    db:bb:25:e0:18:bf:92:69:26:50:cd:e7:3f:ff:0d:
                    3c:b4:1f:14:12:ab:67:37:de:07:03:6c:12:74:82:
                    36:ac:c3:d4:d3:64:9f:91:ed:5b:f6:a9:7a:a4:9c:
                    98:e8:65:6c:94:e1:cb:55:73:ae:f8:1d:50:b0:78:
                    e5:74:ff:b1:37:2c:cb:19:3d:a4:8c:e7:76:4e:86:
                    5c:3f:df:b3:ed:45:23:4f:54:9b:33:c6:89:5e:13:
                    1d:dd:7d:59:a5:07:34:28:86:27:1f:fa:9e:53:4f:
                    2a:b6:42:ad:37:12:62:f5:72:36:b6:02:12:40:44:
                    fe:c7:9e:95:89:43:51:5e:b4:6e:c7:67:80:58:43:
                    be:cc:07:28:bd:59:ff:1c:4c:8d:90:42:f4:cf:fd:
                    54:00:4f:48:72:2b:e1:67:3c:84:17:68:95:bf:ca:
                    07:7b:df:86:9d:56:e3:32:e3:70:87:b7:f8:3a:f7:
                    e3:6e:65:14:7c:bb:76:b7:17:f1:42:8c:6f:2a:34:
                    64:10:35:14:8c:85:f6:57:bf:f3:5c:55:9d:ad:03:
                    10:f3
                Exponent: 65537 (0x10001)
        X509v3 extensions:
            X509v3 Basic Constraints: critical
                CA:TRUE
            X509v3 Subject Key Identifier: 
                9B:26:0B:8A:98:A9:BB:1D:B9:1F:1C:E3:1A:40:33:ED:8E:17:88:AB
            X509v3 Key Usage: critical
                Certificate Sign, CRL Sign
    Signature Algorithm: sha256WithRSAEncryption
    Signature Value:
        4e:bf:92:35:c3:5a:64:ff:8b:0a:f1:78:e7:cd:8f:8b:fc:99:
        1b:54:c0:81:47:b5:e1:22:d4:d0:00:3e:06:d0:58:0f:10:d7:
        69:69:65:da:7d:d3:cf:fa:a8:86:85:3e:91:e1:b7:bc:79:71:
        7e:43:72:82:09:83:75:e7:e2:c3:76:93:ed:41:a9:2c:29:a9:
        d7:3e:c8:e3:7a:b4:c3:77:f0:d0:1f:25:bc:c5:e5:d5:fb:e5:
        ec:c6:41:d4:cc:2d:70:a8:4b:b3:a8:89:0f:33:de:e8:72:8a:
        4e:c4:50:6f:a8:35:e4:77:3c:78:cf:bd:86:28:a5:17:60:26:
        dd:a8:f3:0a:30:15:6d:cd:33:92:e2:9c:0d:43:16:9e:27:38:
        c5:9f:1e:44:1c:b3:23:ba:66:51:c3:f2:aa:0f:dc:bd:da:9b:
        e2:89:14:d6:f3:1d:c7:22:97:76:ef:83:08:f4:a8:2f:ee:9e:
        d4:9a:6f:65:68:d4:32:c1:e6:51:be:82:7f:bf:e2:6d:a2:0a:
        f8:ca:4c:f4:cf:4f:1a:ba:80:b1:ce:3e:b9:64:4b:fc:fe:97:
        31:e8:39:de:4e:8a:86:7a:98:08:34:25:67:91:a1:d4:d3:6e:
        f5:88:66:2b:00:75:a7:a9:68:f7:0e:21:b2:2c:5c:3f:fc:d5:
        cc:4b:80:1f
-----BEGIN CERTIFICATE-----
MIIDljCCAn6gAwIBAgIUfCLXRTF+hvOZMRMCihlu2cmsyAgwDQYJKoZIhvcNAQEL
BQAwYzELMAkGA1UEBhMCVVMxEzARBgNVBAgMCkNhbGlmb3JuaWExFjAUBgNVBAcM
DU1vdW50YWluIFZpZXcxEDAOBgNVBAoMB1Rlc3QgQ0ExFTATBgNVBAMMDFRlc3Qg
Um9vdCBDQTAeFw0yNTEwMTAxNzEyMTlaFw0zNTEwMDgxNzEyMTlaMGMxCzAJBgNV
BAYTAlVTMRMwEQYDVQQIDApDYWxpZm9ybmlhMRYwFAYDVQQHDA1Nb3VudGFpbiBW
aWV3MRAwDgYDVQQKDAdUZXN0IENBMRUwEwYDVQQDDAxUZXN0IFJvb3QgQ0EwggEi
MA0GCSqGSIb3DQEBAQUAA4IBDwAwggEKAoIBAQDGgR+Sc7ZYhdmNrLcg/ce/QLLq
+uULUgGPmsHreoDB84mkPtUbYcy1z4CxGtu7JeAYv5JpJlDN5z//DTy0HxQSq2c3
3gcDbBJ0gjasw9TTZJ+R7Vv2qXqknJjoZWyU4ctVc674HVCweOV0/7E3LMsZPaSM
53ZOhlw/37PtRSNPVJszxoleEx3dfVmlBzQohicf+p5TTyq2Qq03EmL1cja2AhJA
RP7HnpWJQ1FetG7HZ4BYQ77MByi9Wf8cTI2QQvTP/VQAT0hyK+FnPIQXaJW/ygd7
34adVuMy43CHt/g69+NuZRR8u3a3F/FCjG8qNGQQNRSMhfZXv/NcVZ2tAxDzAgMB
AAGjQjBAMA8GA1UdEwEB/wQFMAMBAf8wHQYDVR0OBBYEFJsmC4qYqbsduR8c4xpA
M+2OF4irMA4GA1UdDwEB/wQEAwIBBjANBgkqhkiG9w0BAQsFAAOCAQEATr+SNcNa
ZP+LCvF4582Pi/yZG1TAgUe14SLU0AA+BtBYDxDXaWll2n3Tz/qohoU+keG3vHlx
fkNyggmDdefiw3aT7UGpLCmp1z7I43q0w3fw0B8lvMXl1fvl7MZB1MwtcKhLs6iJ
DzPe6HKKTsRQb6g15Hc8eM+9hiilF2Am3ajzCjAVbc0zkuKcDUMWnic4xZ8eRByz
I7pmUcPyqg/cvdqb4okU1vMdxyKXdu+DCPSoL+6e1JpvZWjUMsHmUb6Cf7/ibaIK
+MpM9M9PGrqAsc4+uWRL/P6XMeg53k6KhnqYCDQlZ5Gh1NNu9YhmKwB1p6lo9w4h
sixcP/zVzEuAHw==
-----END CERTIFICATE-----
