Certificate:
    Data:
        Version: 3 (0x2)
        Serial Number:
            db:15:0b:57:64:f6:dc:4a:c0:6e:e7:ea:5d:c9:c5:cd
        Signature Algorithm: sha256WithRSAEncryption
        Issuer: C=US, ST=California, L=Mountain View, O=Test CA, CN=Test Intermediate CA
        Validity
            Not Before: Mar 13 20:46:17 2020 GMT
            Not After : Mar 13 20:46:17 2022 GMT
        Subject: C=US, ST=California, L=Mountain View, O=Test CA, CN=127.0.0.1
        Subject Public Key Info:
            Public Key Algorithm: rsaEncryption
                RSA Public-Key: (2048 bit)
                Modulus:
                    00:a6:58:dc:36:25:d1:a6:a4:93:08:cf:2d:3b:86:
                    07:b5:ce:44:c7:5b:7f:d7:11:a6:51:98:ec:82:4c:
                    6c:31:45:a3:04:56:6f:c1:77:d6:6c:38:db:3c:d8:
                    2d:d2:25:aa:47:4f:f4:a4:f3:8e:09:98:37:d3:0f:
                    71:f6:ac:29:47:7b:08:8e:68:ab:fc:7e:10:02:65:
                    b6:86:4c:b0:27:04:6a:15:23:b3:3a:19:b8:15:f3:
                    3b:0b:1d:ad:d8:9f:49:b1:72:f2:af:08:df:c8:02:
                    aa:cb:f3:2a:2d:c0:fd:28:b0:97:da:4a:a9:22:74:
                    c2:3a:0b:64:65:2a:c9:f4:65:f7:46:7f:3c:a9:61:
                    96:5f:0c:2a:66:c3:f2:c7:fe:69:87:2f:70:0c:1b:
                    66:37:92:c5:3f:85:40:d8:e4:26:45:18:3f:ce:53:
                    27:a0:97:7e:11:87:dc:4a:ec:26:eb:ff:95:0e:b3:
                    ea:2e:66:45:0a:aa:cc:c5:81:59:2e:0a:1b:0e:1b:
                    59:71:ca:d3:90:ef:6f:ca:b7:8c:a8:ca:82:55:b8:
                    fb:4a:e5:ba:29:78:ce:eb:cd:8e:4f:9c:af:85:a4:
                    ef:0b:64:5e:3e:7e:a0:e0:e5:b0:86:f3:19:08:fa:
                    3f:fa:1e:4a:9b:fc:b5:16:17:88:0d:38:0e:c3:a6:
                    5f:d5
                Exponent: 65537 (0x10001)
        X509v3 extensions:
            X509v3 Basic Constraints: critical
                CA:FALSE
            X509v3 Subject Key Identifier: 
                81:CD:A7:DD:52:43:7F:DF:7A:4B:BA:F5:B0:B6:10:A0:44:0C:EC:6C
            X509v3 Authority Key Identifier: 
                keyid:17:5C:45:F3:D0:AC:1C:10:4C:8B:43:44:20:C4:DD:93:C5:C5:19:3B

            X509v3 Extended Key Usage: 
                TLS Web Server Authentication, TLS Web Client Authentication
            X509v3 Subject Alternative Name: 
                IP Address:127.0.0.1
    Signature Algorithm: sha256WithRSAEncryption
         80:2c:94:86:a4:69:32:38:0e:41:73:db:0a:42:e9:1c:05:81:
         fa:80:cc:c2:c3:2b:3d:7e:46:b1:19:32:ff:97:fe:fc:be:c2:
         32:7c:e2:db:fe:27:0a:75:26:6a:b8:6f:9f:0f:37:0c:bc:02:
         2d:6c:04:63:4a:45:50:75:b7:3e:90:49:85:50:3d:85:52:57:
         1d:2e:d5:b9:75:c1:84:56:9a:cb:92:e8:9b:28:38:bd:20:c5:
         6d:8c:53:70:37:9a:f5:64:5e:d5:11:e4:28:6b:08:9c:8b:0f:
         2a:f7:a1:59:00:15:58:6b:11:91:11:27:c3:6e:e2:54:52:f7:
         fe:e6:3d:27:d5:0f:b6:91:ab:39:12:9d:c5:dc:f3:02:e4:87:
         48:c7:e8:93:c0:85:69:5c:97:8b:d8:5f:bf:d4:a1:f2:c4:5a:
         69:88:b0:3c:75:86:30:09:b4:84:0a:17:56:2c:6f:d4:c6:10:
         f9:23:1c:5e:77:8c:29:5c:db:41:36:33:c7:3a:00:85:f9:a0:
         f5:e3:71:9a:55:b7:0b:45:45:30:07:a7:78:6f:b2:2b:4e:e5:
         84:2f:bc:49:d7:80:07:ed:d1:44:c8:c3:5a:ec:3c:65:05:a0:
         78:e3:a3:8b:1c:b2:2e:b0:64:f5:9e:7b:08:8d:bd:4a:07:4f:
         29:50:74:e8
-----BEGIN CERTIFICATE-----
MIID1zCCAr+gAwIBAgIRANsVC1dk9txKwG7n6l3Jxc0wDQYJKoZIhvcNAQELBQAw
azELMAkGA1UEBhMCVVMxEzARBgNVBAgMCkNhbGlmb3JuaWExFjAUBgNVBAcMDU1v
dW50YWluIFZpZXcxEDAOBgNVBAoMB1Rlc3QgQ0ExHTAbBgNVBAMMFFRlc3QgSW50
ZXJtZWRpYXRlIENBMB4XDTIwMDMxMzIwNDYxN1oXDTIyMDMxMzIwNDYxN1owYDEL
MAkGA1UEBhMCVVMxEzARBgNVBAgMCkNhbGlmb3JuaWExFjAUBgNVBAcMDU1vdW50
YWluIFZpZXcxEDAOBgNVBAoMB1Rlc3QgQ0ExEjAQBgNVBAMMCTEyNy4wLjAuMTCC
ASIwDQYJKoZIhvcNAQEBBQADggEPADCCAQoCggEBAKZY3DYl0aakkwjPLTuGB7XO
RMdbf9cRplGY7IJMbDFFowRWb8F31mw42zzYLdIlqkdP9KTzjgmYN9MPcfasKUd7
CI5oq/x+EAJltoZMsCcEahUjszoZuBXzOwsdrdifSbFy8q8I38gCqsvzKi3A/Siw
l9pKqSJ0wjoLZGUqyfRl90Z/PKlhll8MKmbD8sf+aYcvcAwbZjeSxT+FQNjkJkUY
P85TJ6CXfhGH3ErsJuv/lQ6z6i5mRQqqzMWBWS4KGw4bWXHK05Dvb8q3jKjKglW4
+0rluil4zuvNjk+cr4Wk7wtkXj5+oODlsIbzGQj6P/oeSpv8tRYXiA04DsOmX9UC
AwEAAaOBgDB+MAwGA1UdEwEB/wQCMAAwHQYDVR0OBBYEFIHNp91SQ3/feku69bC2
EKBEDOxsMB8GA1UdIwQYMBaAFBdcRfPQrBwQTItDRCDE3ZPFxRk7MB0GA1UdJQQW
MBQGCCsGAQUFBwMBBggrBgEFBQcDAjAPBgNVHREECDAGhwR/AAABMA0GCSqGSIb3
DQEBCwUAA4IBAQCALJSGpGkyOA5Bc9sKQukcBYH6gMzCwys9fkaxGTL/l/78vsIy
fOLb/icKdSZquG+fDzcMvAItbARjSkVQdbc+kEmFUD2FUlcdLtW5dcGEVprLkuib
KDi9IMVtjFNwN5r1ZF7VEeQoawiciw8q96FZABVYaxGRESfDbuJUUvf+5j0n1Q+2
kas5Ep3F3PMC5IdIx+iTwIVpXJeL2F+/1KHyxFppiLA8dYYwCbSEChdWLG/UxhD5
Ixxed4wpXNtBNjPHOgCF+aD143GaVbcLRUUwB6d4b7IrTuWEL7xJ14AH7dFEyMNa
7DxlBaB446OLHLIusGT1nnsIjb1KB08pUHTo
-----END CERTIFICATE-----
Certificate:
    Data:
        Version: 3 (0x2)
        Serial Number:
            3e:2c:9d:be:b0:42:c8:cf:fc:99:42:d5:4d:41:6a:a2
        Signature Algorithm: sha256WithRSAEncryption
        Issuer: C=US, ST=California, L=Mountain View, O=Test CA, CN=Test Root CA
        Validity
            Not Before: Mar 13 20:46:16 2020 GMT
            Not After : Mar 11 20:46:16 2030 GMT
        Subject: C=US, ST=California, L=Mountain View, O=Test CA, CN=Test Intermediate CA
        Subject Public Key Info:
            Public Key Algorithm: rsaEncryption
                RSA Public-Key: (2048 bit)
                Modulus:
                    00:9d:e9:bd:e4:3d:4a:2f:fb:c2:f9:e6:22:2a:42:
                    15:46:1c:8c:8f:47:4c:e9:c5:57:95:1f:66:70:93:
                    22:f0:94:c3:bb:b5:5b:ef:a4:6f:c8:c7:89:95:75:
                    ba:0c:36:bf:4e:6b:a9:35:47:08:43:9e:29:6a:e2:
                    c3:fb:03:b7:1f:b6:e1:51:6b:ed:7b:19:c7:f9:ce:
                    3b:dc:65:e9:66:c7:83:94:c4:d1:4e:ee:ed:64:4b:
                    81:f1:1a:ea:5a:64:18:1b:6a:4e:93:d0:13:6c:90:
                    60:ca:d2:4e:b7:24:16:f8:b2:08:58:9d:8d:a7:33:
                    45:15:34:81:ad:2d:2d:9c:60:ef:f9:2b:98:fe:79:
                    d3:8d:2c:48:db:12:91:f4:2e:fa:bf:f5:26:c1:82:
                    05:80:dd:4c:a8:70:bf:a7:bc:10:34:77:39:db:47:
                    04:0f:ed:44:b2:65:46:22:20:88:59:28:0f:c7:0c:
                    a2:b4:91:a5:a2:aa:ca:05:9f:8a:9b:6e:a3:cb:d4:
                    a4:e8:24:75:9d:20:81:22:5b:5f:77:3e:c9:f1:1e:
                    ae:eb:8a:33:8c:27:5b:1e:be:6d:21:1b:42:72:95:
                    e3:9e:13:03:75:a7:58:d4:be:68:12:fe:63:8e:4b:
                    11:7a:34:e7:a3:6b:dd:73:ae:3e:19:9a:ec:91:8b:
                    73:af
                Exponent: 65537 (0x10001)
        X509v3 extensions:
            X509v3 Basic Constraints: critical
                CA:TRUE
            X509v3 Subject Key Identifier: 
                17:5C:45:F3:D0:AC:1C:10:4C:8B:43:44:20:C4:DD:93:C5:C5:19:3B
            X509v3 Key Usage: critical
                Certificate Sign, CRL Sign
    Signature Algorithm: sha256WithRSAEncryption
         00:25:9c:ba:83:ee:0f:a2:57:cc:9a:d4:50:15:d5:e0:e7:4a:
         8a:57:d1:3e:b1:de:a5:be:26:f0:22:98:35:c0:ee:f1:84:4f:
         aa:8d:92:e5:5c:29:23:ad:68:fb:9a:68:d0:2c:6e:04:5e:25:
         fb:a0:65:04:fc:82:0b:ec:5b:53:a9:f4:61:1e:15:0f:5e:93:
         94:ec:d3:31:82:06:a1:16:09:01:b9:cb:90:a9:f9:ac:e3:d3:
         15:4c:2c:75:1c:97:24:d3:33:33:e1:b3:53:28:4e:e3:8e:6f:
         59:06:83:20:06:bd:9b:e9:44:8a:bd:80:59:6d:c2:cd:ce:c5:
         9c:81:31:3c:72:f5:6c:bf:31:69:a9:7c:32:28:cb:0e:d3:fd:
         23:5b:30:e0:c1:e9:c8:f8:6e:21:d1:86:c6:ca:62:a6:d6:19:
         e4:0b:25:88:95:74:ce:b3:c6:4c:3c:32:63:d6:6a:8b:a3:49:
         53:15:85:9d:1a:06:16:e5:62:35:f5:d2:8c:99:91:15:35:9e:
         9d:36:98:75:4d:f9:39:de:2e:74:8f:36:2b:3a:b4:51:74:26:
         7c:22:6b:c3:52:3e:03:9f:cc:31:e9:24:68:6b:49:63:b5:24:
         6f:08:79:ed:4a:c1:6b:b5:da:72:1f:d5:a4:7e:6c:9b:4d:d2:
         4d:5d:c1:2b
-----BEGIN CERTIFICATE-----
MIIDmjCCAoKgAwIBAgIQPiydvrBCyM/8mULVTUFqojANBgkqhkiG9w0BAQsFADBj
MQswCQYDVQQGEwJVUzETMBEGA1UECAwKQ2FsaWZvcm5pYTEWMBQGA1UEBwwNTW91
bnRhaW4gVmlldzEQMA4GA1UECgwHVGVzdCBDQTEVMBMGA1UEAwwMVGVzdCBSb290
IENBMB4XDTIwMDMxMzIwNDYxNloXDTMwMDMxMTIwNDYxNlowazELMAkGA1UEBhMC
VVMxEzARBgNVBAgMCkNhbGlmb3JuaWExFjAUBgNVBAcMDU1vdW50YWluIFZpZXcx
EDAOBgNVBAoMB1Rlc3QgQ0ExHTAbBgNVBAMMFFRlc3QgSW50ZXJtZWRpYXRlIENB
MIIBIjANBgkqhkiG9w0BAQEFAAOCAQ8AMIIBCgKCAQEAnem95D1KL/vC+eYiKkIV
RhyMj0dM6cVXlR9mcJMi8JTDu7Vb76RvyMeJlXW6DDa/TmupNUcIQ54pauLD+wO3
H7bhUWvtexnH+c473GXpZseDlMTRTu7tZEuB8RrqWmQYG2pOk9ATbJBgytJOtyQW
+LIIWJ2NpzNFFTSBrS0tnGDv+SuY/nnTjSxI2xKR9C76v/UmwYIFgN1MqHC/p7wQ
NHc520cED+1EsmVGIiCIWSgPxwyitJGloqrKBZ+Km26jy9Sk6CR1nSCBIltfdz7J
8R6u64ozjCdbHr5tIRtCcpXjnhMDdadY1L5oEv5jjksRejTno2vdc64+GZrskYtz
rwIDAQABo0IwQDAPBgNVHRMBAf8EBTADAQH/MB0GA1UdDgQWBBQXXEXz0KwcEEyL
Q0QgxN2TxcUZOzAOBgNVHQ8BAf8EBAMCAQYwDQYJKoZIhvcNAQELBQADggEBAAAl
nLqD7g+iV8ya1FAV1eDnSopX0T6x3qW+JvAimDXA7vGET6qNkuVcKSOtaPuaaNAs
bgReJfugZQT8ggvsW1Op9GEeFQ9ek5Ts0zGCBqEWCQG5y5Cp+azj0xVMLHUclyTT
MzPhs1MoTuOOb1kGgyAGvZvpRIq9gFltws3OxZyBMTxy9Wy/MWmpfDIoyw7T/SNb
MODB6cj4biHRhsbKYqbWGeQLJYiVdM6zxkw8MmPWaoujSVMVhZ0aBhblYjX10oyZ
kRU1np02mHVN+TneLnSPNis6tFF0Jnwia8NSPgOfzDHpJGhrSWO1JG8Iee1KwWu1
2nIf1aR+bJtN0k1dwSs=
-----END CERTIFICATE-----
Certificate:
    Data:
        Version: 3 (0x2)
        Serial Number:
            2f:25:f3:ce:3c:5e:72:d0:33:29:f6:09:1f:5d:5f:53:d9:ac:23:bb
        Signature Algorithm: sha256WithRSAEncryption
        Issuer: C = US, ST = California, L = Mountain View, O = Test CA, CN = Test Root CA
        Validity
            Not Before: Mar 13 20:46:16 2020 GMT
            Not After : Mar 11 20:46:16 2030 GMT
        Subject: C = US, ST = California, L = Mountain View, O = Test CA, CN = Test Root CA
        Subject Public Key Info:
            Public Key Algorithm: rsaEncryption
                RSA Public-Key: (2048 bit)
                Modulus:
                    00:c6:81:1f:92:73:b6:58:85:d9:8d:ac:b7:20:fd:
                    c7:bf:40:b2:ea:fa:e5:0b:52:01:8f:9a:c1:eb:7a:
                    80:c1:f3:89:a4:3e:d5:1b:61:cc:b5:cf:80:b1:1a:
                    db:bb:25:e0:18:bf:92:69:26:50:cd:e7:3f:ff:0d:
                    3c:b4:1f:14:12:ab:67:37:de:07:03:6c:12:74:82:
                    36:ac:c3:d4:d3:64:9f:91:ed:5b:f6:a9:7a:a4:9c:
                    98:e8:65:6c:94:e1:cb:55:73:ae:f8:1d:50:b0:78:
                    e5:74:ff:b1:37:2c:cb:19:3d:a4:8c:e7:76:4e:86:
                    5c:3f:df:b3:ed:45:23:4f:54:9b:33:c6:89:5e:13:
                    1d:dd:7d:59:a5:07:34:28:86:27:1f:fa:9e:53:4f:
                    2a:b6:42:ad:37:12:62:f5:72:36:b6:02:12:40:44:
                    fe:c7:9e:95:89:43:51:5e:b4:6e:c7:67:80:58:43:
                    be:cc:07:28:bd:59:ff:1c:4c:8d:90:42:f4:cf:fd:
                    54:00:4f:48:72:2b:e1:67:3c:84:17:68:95:bf:ca:
                    07:7b:df:86:9d:56:e3:32:e3:70:87:b7:f8:3a:f7:
                    e3:6e:65:14:7c:bb:76:b7:17:f1:42:8c:6f:2a:34:
                    64:10:35:14:8c:85:f6:57:bf:f3:5c:55:9d:ad:03:
                    10:f3
                Exponent: 65537 (0x10001)
        X509v3 extensions:
            X509v3 Basic Constraints: critical
                CA:TRUE
            X509v3 Subject Key Identifier: 
                9B:26:0B:8A:98:A9:BB:1D:B9:1F:1C:E3:1A:40:33:ED:8E:17:88:AB
            X509v3 Key Usage: critical
                Certificate Sign, CRL Sign
    Signature Algorithm: sha256WithRSAEncryption
         b1:b1:83:61:af:db:ed:98:cf:3d:43:5f:a7:42:b8:6d:94:36:
         57:bb:ab:04:ee:dd:3b:b7:6d:ec:78:7d:46:59:b1:e6:2a:c3:
         aa:a5:70:a7:e1:0c:fa:65:37:c6:cb:7d:a1:37:35:a1:ff:f0:
         dd:ce:b6:a4:2c:12:d4:46:a9:9c:a2:91:3a:b0:95:55:97:55:
         e6:0a:da:63:60:24:19:ac:20:c9:b1:94:40:e9:99:b1:f5:c3:
         ed:61:5d:de:4c:e4:eb:d9:0e:ac:3a:0a:fc:44:7d:0f:77:a6:
         b6:da:28:d4:ed:ea:3a:bc:57:23:9c:72:2b:2d:b0:5d:11:02:
         4d:c5:bc:b0:d6:7e:00:8e:f7:e7:f5:19:3a:23:df:33:02:aa:
         4b:bf:81:f4:5a:99:ee:74:20:f3:77:a1:f0:85:1e:a8:d6:cc:
         a4:cb:31:fa:73:24:a2:0e:dd:9f:6f:82:38:5f:85:ac:8d:76:
         bd:d8:f2:69:73:e3:46:44:42:e3:5e:f3:aa:5e:44:13:51:ea:
         0b:78:91:77:96:ee:73:fe:2a:b5:88:c1:38:8d:8d:a8:19:76:
         94:05:02:cf:d4:6f:eb:e6:07:f5:9d:52:24:b8:50:a3:0e:c4:
         45:a6:09:b4:06:2d:3e:14:a5:3f:1c:1a:bc:da:b8:40:3e:c1:
         1c:f6:3c:05
-----BEGIN CERTIFICATE-----
MIIDljCCAn6gAwIBAgIULyXzzjxectAzKfYJH11fU9msI7swDQYJKoZIhvcNAQEL
BQAwYzELMAkGA1UEBhMCVVMxEzARBgNVBAgMCkNhbGlmb3JuaWExFjAUBgNVBAcM
DU1vdW50YWluIFZpZXcxEDAOBgNVBAoMB1Rlc3QgQ0ExFTATBgNVBAMMDFRlc3Qg
Um9vdCBDQTAeFw0yMDAzMTMyMDQ2MTZaFw0zMDAzMTEyMDQ2MTZaMGMxCzAJBgNV
BAYTAlVTMRMwEQYDVQQIDApDYWxpZm9ybmlhMRYwFAYDVQQHDA1Nb3VudGFpbiBW
aWV3MRAwDgYDVQQKDAdUZXN0IENBMRUwEwYDVQQDDAxUZXN0IFJvb3QgQ0EwggEi
MA0GCSqGSIb3DQEBAQUAA4IBDwAwggEKAoIBAQDGgR+Sc7ZYhdmNrLcg/ce/QLLq
+uULUgGPmsHreoDB84mkPtUbYcy1z4CxGtu7JeAYv5JpJlDN5z//DTy0HxQSq2c3
3gcDbBJ0gjasw9TTZJ+R7Vv2qXqknJjoZWyU4ctVc674HVCweOV0/7E3LMsZPaSM
53ZOhlw/37PtRSNPVJszxoleEx3dfVmlBzQohicf+p5TTyq2Qq03EmL1cja2AhJA
RP7HnpWJQ1FetG7HZ4BYQ77MByi9Wf8cTI2QQvTP/VQAT0hyK+FnPIQXaJW/ygd7
34adVuMy43CHt/g69+NuZRR8u3a3F/FCjG8qNGQQNRSMhfZXv/NcVZ2tAxDzAgMB
AAGjQjBAMA8GA1UdEwEB/wQFMAMBAf8wHQYDVR0OBBYEFJsmC4qYqbsduR8c4xpA
M+2OF4irMA4GA1UdDwEB/wQEAwIBBjANBgkqhkiG9w0BAQsFAAOCAQEAsbGDYa/b
7ZjPPUNfp0K4bZQ2V7urBO7dO7dt7Hh9Rlmx5irDqqVwp+EM+mU3xst9oTc1of/w
3c62pCwS1EapnKKROrCVVZdV5graY2AkGawgybGUQOmZsfXD7WFd3kzk69kOrDoK
/ER9D3emttoo1O3qOrxXI5xyKy2wXRECTcW8sNZ+AI735/UZOiPfMwKqS7+B9FqZ
7nQg83eh8IUeqNbMpMsx+nMkog7dn2+COF+FrI12vdjyaXPjRkRC417zql5EE1Hq
C3iRd5buc/4qtYjBOI2NqBl2lAUCz9Rv6+YH9Z1SJLhQow7ERaYJtAYtPhSlPxwa
vNq4QD7BHPY8BQ==
-----END CERTIFICATE-----
