[Created by: generate-chains.py]

Certificate chain where the target certificate sets the extended key usage
to clientAuth. Neither the root nor the intermediate have an EKU.

Certificate:
    Data:
        Version: 3 (0x2)
        Serial Number:
            51:d2:13:35:b6:8a:b2:3b:cd:22:15:03:93:0a:b2:a0:22:4d:e1:57
        Signature Algorithm: sha256WithRSAEncryption
        Issuer: CN=Intermediate
        Validity
            Not Before: Nov  3 12:00:00 2020 GMT
            Not After : Nov  3 12:00:00 2021 GMT
        Subject: CN=Target
        Subject Public Key Info:
            Public Key Algorithm: rsaEncryption
                RSA Public-Key: (2048 bit)
                Modulus:
                    00:c3:82:13:64:0e:35:33:0c:ac:44:be:6d:92:f5:
                    e4:97:d8:9a:bd:64:f1:b5:67:62:01:7b:0c:98:57:
                    4a:63:64:b0:9d:6a:7b:84:a2:91:fe:73:0b:4c:81:
                    ce:89:f9:8d:8d:8a:41:18:c8:d8:64:27:36:32:e6:
                    36:26:44:16:13:2e:a1:ad:38:06:0b:1b:39:62:6a:
                    94:ac:a0:59:be:52:cb:47:d7:4b:00:09:91:8e:14:
                    69:a9:62:df:49:d8:b6:79:73:de:60:d4:b8:76:89:
                    a4:53:8a:1d:4b:80:88:31:e8:05:46:81:1b:7b:5d:
                    52:d0:6b:3b:53:0d:25:3c:95:9b:2d:99:83:3c:03:
                    8c:b5:73:fb:43:6c:82:b3:48:57:38:3c:ff:b7:79:
                    d8:13:74:06:d0:17:78:a9:38:09:76:ca:f9:b7:5a:
                    a5:8a:6e:85:7f:27:34:79:82:ef:a2:01:93:ae:fa:
                    0b:18:47:d4:14:ff:67:78:2b:53:92:f6:ac:27:42:
                    c7:7f:8e:fd:06:4a:36:b9:7a:98:5e:0d:94:ef:1a:
                    fa:08:ad:8d:64:28:c7:c1:03:76:63:b9:33:5a:9f:
                    16:be:d3:e0:5c:e9:43:7b:9b:83:b3:90:31:e7:59:
                    2b:1c:d2:8c:73:15:a2:3a:94:35:03:80:97:f8:5d:
                    a3:13
                Exponent: 65537 (0x10001)
        X509v3 extensions:
            X509v3 Subject Key Identifier: 
                5A:16:9C:06:85:B6:F4:77:AD:72:58:A2:4F:A1:FE:29:CF:97:8A:2B
            X509v3 Authority Key Identifier: 
                keyid:24:B9:91:41:39:F1:30:5E:F8:C5:3B:C0:51:CC:11:58:A6:13:73:B3

            Authority Information Access: 
                CA Issuers - URI:http://url-for-aia/Intermediate.cer

            X509v3 CRL Distribution Points: 

                Full Name:
                  URI:http://url-for-crl/Intermediate.crl

            X509v3 Key Usage: critical
                Digital Signature, Key Encipherment
            X509v3 Extended Key Usage: 
                TLS Web Client Authentication
    Signature Algorithm: sha256WithRSAEncryption
         a4:8a:1b:d3:a8:fb:85:a3:4b:a5:56:c6:1a:76:ce:9d:53:29:
         36:25:1e:25:95:26:23:54:4f:27:1a:e4:6d:db:4c:5f:a0:70:
         ea:61:ff:9b:33:44:44:52:21:ee:f7:62:f5:5a:f9:f4:ec:61:
         87:ca:c2:2a:d7:99:55:83:a6:9f:7a:bf:15:f3:21:4e:db:f3:
         c1:7e:48:9c:cc:78:89:84:32:26:4e:dd:27:c8:c0:e8:f0:a7:
         b8:9f:9c:6b:c2:12:62:71:3b:b1:5f:73:e0:29:9a:fe:72:ca:
         96:57:2e:0b:9c:9a:a3:b8:b8:7f:53:67:58:2c:7f:e8:74:91:
         0a:78:6c:93:5f:b5:0a:b5:24:ec:77:8a:d3:b2:58:0b:78:c2:
         11:06:05:4e:fa:e4:d8:36:be:7b:df:36:81:2c:76:61:6a:75:
         22:d0:84:d7:ae:46:92:54:4c:b7:62:ba:7f:55:69:58:cf:37:
         d9:26:7f:bb:e6:57:12:ea:26:a1:5a:a9:b1:d3:45:d5:10:46:
         c1:75:fe:6e:a8:9f:6c:4f:55:3d:a2:30:63:38:b4:60:84:4e:
         45:11:c8:55:8b:6e:79:d8:3b:30:46:3d:0a:53:df:13:28:18:
         81:a8:9e:b3:99:07:55:5b:12:98:90:c8:58:1e:a5:19:aa:20:
         10:2b:89:fc
-----BEGIN CERTIFICATE-----
MIIDljCCAn6gAwIBAgIUUdITNbaKsjvNIhUDkwqyoCJN4VcwDQYJKoZIhvcNAQEL
BQAwFzEVMBMGA1UEAwwMSW50ZXJtZWRpYXRlMB4XDTIwMTEwMzEyMDAwMFoXDTIx
MTEwMzEyMDAwMFowETEPMA0GA1UEAwwGVGFyZ2V0MIIBIjANBgkqhkiG9w0BAQEF
AAOCAQ8AMIIBCgKCAQEAw4ITZA41MwysRL5tkvXkl9iavWTxtWdiAXsMmFdKY2Sw
nWp7hKKR/nMLTIHOifmNjYpBGMjYZCc2MuY2JkQWEy6hrTgGCxs5YmqUrKBZvlLL
R9dLAAmRjhRpqWLfSdi2eXPeYNS4domkU4odS4CIMegFRoEbe11S0Gs7Uw0lPJWb
LZmDPAOMtXP7Q2yCs0hXODz/t3nYE3QG0Bd4qTgJdsr5t1qlim6Ffyc0eYLvogGT
rvoLGEfUFP9neCtTkvasJ0LHf479Bko2uXqYXg2U7xr6CK2NZCjHwQN2Y7kzWp8W
vtPgXOlDe5uDs5Ax51krHNKMcxWiOpQ1A4CX+F2jEwIDAQABo4HfMIHcMB0GA1Ud
DgQWBBRaFpwGhbb0d61yWKJPof4pz5eKKzAfBgNVHSMEGDAWgBQkuZFBOfEwXvjF
O8BRzBFYphNzszA/BggrBgEFBQcBAQQzMDEwLwYIKwYBBQUHMAKGI2h0dHA6Ly91
cmwtZm9yLWFpYS9JbnRlcm1lZGlhdGUuY2VyMDQGA1UdHwQtMCswKaAnoCWGI2h0
dHA6Ly91cmwtZm9yLWNybC9JbnRlcm1lZGlhdGUuY3JsMA4GA1UdDwEB/wQEAwIF
oDATBgNVHSUEDDAKBggrBgEFBQcDAjANBgkqhkiG9w0BAQsFAAOCAQEApIob06j7
haNLpVbGGnbOnVMpNiUeJZUmI1RPJxrkbdtMX6Bw6mH/mzNERFIh7vdi9Vr59Oxh
h8rCKteZVYOmn3q/FfMhTtvzwX5InMx4iYQyJk7dJ8jA6PCnuJ+ca8ISYnE7sV9z
4Cma/nLKllcuC5yao7i4f1NnWCx/6HSRCnhsk1+1CrUk7HeK07JYC3jCEQYFTvrk
2Da+e982gSx2YWp1ItCE165GklRMt2K6f1VpWM832SZ/u+ZXEuomoVqpsdNF1RBG
wXX+bqifbE9VPaIwYzi0YIRORRHIVYtuedg7MEY9ClPfEygYgaies5kHVVsSmJDI
WB6lGaogECuJ/A==
-----END CERTIFICATE-----

Certificate:
    Data:
        Version: 3 (0x2)
        Serial Number:
            21:b4:f1:0c:52:12:7e:ce:93:5e:dd:2d:2b:69:e9:bb:8c:4d:24:70
        Signature Algorithm: sha256WithRSAEncryption
        Issuer: CN=Root
        Validity
            Not Before: Nov  3 12:00:00 2020 GMT
            Not After : Nov  3 12:00:00 2021 GMT
        Subject: CN=Intermediate
        Subject Public Key Info:
            Public Key Algorithm: rsaEncryption
                RSA Public-Key: (2048 bit)
                Modulus:
                    00:ed:3b:bb:f2:8b:20:81:de:42:41:c6:24:63:1c:
                    4b:e5:63:b0:93:07:fd:22:64:50:7d:ef:8f:ed:65:
                    aa:ba:f4:d9:ad:0c:68:dd:50:b0:ea:0a:5e:18:9e:
                    df:48:88:ec:1f:fa:6b:4a:3e:db:ea:24:6e:b1:a3:
                    bb:0b:12:de:1d:49:d3:32:78:24:f9:e8:4f:aa:85:
                    90:21:a2:2c:8f:58:95:8c:70:80:8d:cd:99:68:03:
                    67:0f:48:eb:96:17:63:93:2b:8f:72:77:23:5f:97:
                    4f:86:bd:17:d2:70:5b:5c:18:f8:01:d6:11:d8:c0:
                    dc:32:b2:f4:bf:dd:da:65:fb:86:23:c0:a4:bd:ff:
                    c2:a4:b6:87:9e:10:98:d4:f4:09:cb:26:50:1d:56:
                    83:72:09:c6:c1:b7:cc:52:9c:61:09:04:bb:aa:2a:
                    63:66:a5:b1:02:60:85:bc:30:91:62:bb:6f:b0:24:
                    33:e8:b5:9a:13:1f:3a:73:95:d5:fb:bc:a9:48:dd:
                    14:a2:a4:62:e1:97:19:57:b1:1a:da:c1:79:93:fd:
                    74:cb:e1:ff:0c:49:c2:78:57:8e:ef:dc:df:60:96:
                    8e:e6:a2:97:60:b9:53:6b:17:8e:ae:f9:3d:be:31:
                    dd:46:18:bd:af:b6:a6:02:fa:48:2f:d8:c6:f0:1f:
                    bc:43
                Exponent: 65537 (0x10001)
        X509v3 extensions:
            X509v3 Subject Key Identifier: 
                24:B9:91:41:39:F1:30:5E:F8:C5:3B:C0:51:CC:11:58:A6:13:73:B3
            X509v3 Authority Key Identifier: 
                keyid:CD:6F:4C:FE:AA:7A:3A:63:5D:12:79:6D:F4:4C:B0:2A:8A:7F:FB:6C

            Authority Information Access: 
                CA Issuers - URI:http://url-for-aia/Root.cer

            X509v3 CRL Distribution Points: 

                Full Name:
                  URI:http://url-for-crl/Root.crl

            X509v3 Key Usage: critical
                Certificate Sign, CRL Sign
            X509v3 Basic Constraints: critical
                CA:TRUE
    Signature Algorithm: sha256WithRSAEncryption
         15:41:4b:b1:54:33:20:4c:83:41:bf:10:d8:50:1d:a9:0b:61:
         2d:9b:c3:e9:f8:6d:57:0a:9d:ee:1a:ab:eb:ad:15:b2:b0:d5:
         f2:56:f5:0a:35:3e:c4:c3:cd:e0:f9:66:3d:be:fe:16:61:7a:
         bb:49:25:97:d7:ee:d9:fa:3b:b6:17:86:c3:d2:84:ab:68:16:
         9d:d1:26:50:fe:16:53:ec:5f:f4:7b:0e:7d:ca:6c:de:2b:b9:
         dc:4c:44:55:d3:63:7d:9b:72:82:25:3e:a8:bc:64:d4:8f:5d:
         0d:5f:f1:7a:82:8a:f9:af:39:f5:87:2d:ca:a9:06:26:0f:e3:
         c7:4a:10:e4:84:03:4d:39:19:49:d5:b7:b3:b1:9e:f3:06:37:
         8e:24:ac:13:8d:ea:e3:3e:c0:a0:69:89:5e:32:a9:6f:b5:8d:
         92:17:b0:07:f6:ec:70:3d:7c:ea:e5:df:e2:04:e9:71:43:8a:
         f1:90:22:6b:c9:68:59:87:73:73:77:9f:a2:9e:b9:5d:0b:8f:
         bc:44:3a:1e:c6:92:c3:a1:04:8a:f0:35:75:c6:5c:3a:e8:8c:
         e2:43:ca:02:d0:08:dc:56:50:bc:14:4e:32:af:8b:3e:e2:87:
         db:5e:a7:8d:52:db:e3:1f:61:df:60:0e:3f:7b:a4:c0:81:6a:
         1a:6e:f9:91
-----BEGIN CERTIFICATE-----
MIIDgDCCAmigAwIBAgIUIbTxDFISfs6TXt0tK2npu4xNJHAwDQYJKoZIhvcNAQEL
BQAwDzENMAsGA1UEAwwEUm9vdDAeFw0yMDExMDMxMjAwMDBaFw0yMTExMDMxMjAw
MDBaMBcxFTATBgNVBAMMDEludGVybWVkaWF0ZTCCASIwDQYJKoZIhvcNAQEBBQAD
ggEPADCCAQoCggEBAO07u/KLIIHeQkHGJGMcS+VjsJMH/SJkUH3vj+1lqrr02a0M
aN1QsOoKXhie30iI7B/6a0o+2+okbrGjuwsS3h1J0zJ4JPnoT6qFkCGiLI9YlYxw
gI3NmWgDZw9I65YXY5Mrj3J3I1+XT4a9F9JwW1wY+AHWEdjA3DKy9L/d2mX7hiPA
pL3/wqS2h54QmNT0CcsmUB1Wg3IJxsG3zFKcYQkEu6oqY2alsQJghbwwkWK7b7Ak
M+i1mhMfOnOV1fu8qUjdFKKkYuGXGVexGtrBeZP9dMvh/wxJwnhXju/c32CWjuai
l2C5U2sXjq75Pb4x3UYYva+2pgL6SC/YxvAfvEMCAwEAAaOByzCByDAdBgNVHQ4E
FgQUJLmRQTnxMF74xTvAUcwRWKYTc7MwHwYDVR0jBBgwFoAUzW9M/qp6OmNdEnlt
9EywKop/+2wwNwYIKwYBBQUHAQEEKzApMCcGCCsGAQUFBzAChhtodHRwOi8vdXJs
LWZvci1haWEvUm9vdC5jZXIwLAYDVR0fBCUwIzAhoB+gHYYbaHR0cDovL3VybC1m
b3ItY3JsL1Jvb3QuY3JsMA4GA1UdDwEB/wQEAwIBBjAPBgNVHRMBAf8EBTADAQH/
MA0GCSqGSIb3DQEBCwUAA4IBAQAVQUuxVDMgTINBvxDYUB2pC2Etm8Pp+G1XCp3u
GqvrrRWysNXyVvUKNT7Ew83g+WY9vv4WYXq7SSWX1+7Z+ju2F4bD0oSraBad0SZQ
/hZT7F/0ew59ymzeK7ncTERV02N9m3KCJT6ovGTUj10NX/F6gor5rzn1hy3KqQYm
D+PHShDkhANNORlJ1bezsZ7zBjeOJKwTjerjPsCgaYleMqlvtY2SF7AH9uxwPXzq
5d/iBOlxQ4rxkCJryWhZh3Nzd5+inrldC4+8RDoexpLDoQSK8DV1xlw66IziQ8oC
0AjcVlC8FE4yr4s+4ofbXqeNUtvjH2HfYA4/e6TAgWoabvmR
-----END CERTIFICATE-----

Certificate:
    Data:
        Version: 3 (0x2)
        Serial Number:
            21:b4:f1:0c:52:12:7e:ce:93:5e:dd:2d:2b:69:e9:bb:8c:4d:24:6f
        Signature Algorithm: sha256WithRSAEncryption
        Issuer: CN=Root
        Validity
            Not Before: Nov  3 12:00:00 2020 GMT
            Not After : Nov  3 12:00:00 2021 GMT
        Subject: CN=Root
        Subject Public Key Info:
            Public Key Algorithm: rsaEncryption
                RSA Public-Key: (2048 bit)
                Modulus:
                    00:e8:17:31:b6:0e:84:10:a4:9b:bf:9e:ae:9e:29:
                    b7:6f:81:ae:d7:df:45:89:d1:29:51:0e:1e:39:7a:
                    96:6b:7f:c0:78:df:88:cf:db:b3:ab:8d:49:0f:fb:
                    70:55:85:4f:93:9f:12:a1:a6:55:5c:a9:ae:8d:79:
                    4d:a6:3a:32:03:9c:bf:ad:95:c4:8b:49:1f:02:b5:
                    23:a0:9f:da:d3:45:c6:8c:fc:ec:97:46:57:dd:77:
                    56:c6:a2:46:78:da:a2:59:bb:22:ea:de:63:94:50:
                    19:91:1c:10:cd:67:e0:57:10:bd:e0:de:69:67:80:
                    6d:31:a8:43:bc:49:2c:8a:d6:4a:23:0f:a6:78:f4:
                    74:c7:4f:37:52:3a:af:9c:03:b2:b3:6c:26:ab:62:
                    61:12:6d:22:15:66:da:ec:d6:b8:1f:9b:14:b9:04:
                    9c:9b:5e:b5:cb:8b:62:95:67:6a:a1:57:44:02:77:
                    a2:81:3e:c7:20:52:a2:16:2e:ba:c2:29:a1:54:ed:
                    33:67:f2:2a:26:a3:b6:da:08:8d:63:6c:ca:4f:c6:
                    84:88:b9:60:08:cf:50:8e:5a:3e:75:d7:ec:d7:63:
                    c1:fe:18:3f:4e:fb:08:de:39:45:d2:81:34:8e:89:
                    5a:48:ce:49:bf:ca:84:cb:26:ac:c2:f7:1f:6b:3f:
                    0d:49
                Exponent: 65537 (0x10001)
        X509v3 extensions:
            X509v3 Subject Key Identifier: 
                CD:6F:4C:FE:AA:7A:3A:63:5D:12:79:6D:F4:4C:B0:2A:8A:7F:FB:6C
            X509v3 Authority Key Identifier: 
                keyid:CD:6F:4C:FE:AA:7A:3A:63:5D:12:79:6D:F4:4C:B0:2A:8A:7F:FB:6C

            Authority Information Access: 
                CA Issuers - URI:http://url-for-aia/Root.cer

            X509v3 CRL Distribution Points: 

                Full Name:
                  URI:http://url-for-crl/Root.crl

            X509v3 Key Usage: critical
                Certificate Sign, CRL Sign
            X509v3 Basic Constraints: critical
                CA:TRUE
    Signature Algorithm: sha256WithRSAEncryption
         3f:ec:87:fd:d9:d3:fe:5f:ca:23:07:8c:dd:ac:25:b6:43:7d:
         a4:2c:8f:58:cf:2a:91:dd:43:b6:c4:24:20:1c:1e:16:f5:82:
         19:42:af:e0:64:f8:b0:aa:e1:ad:51:c0:32:b2:1b:08:54:3a:
         c8:f2:8a:9f:82:67:d0:1a:2d:9f:2e:82:0f:68:1a:75:89:7f:
         28:71:f7:40:40:17:83:47:1e:ae:2e:d8:3a:b6:4c:93:56:d7:
         8a:12:ef:65:cc:04:8e:05:25:f2:99:a2:e4:21:d9:05:25:74:
         9d:c5:3e:be:b6:a1:26:7d:7b:4d:23:1e:d7:e8:d2:dc:31:c0:
         06:d1:07:b8:68:aa:2e:f2:77:76:a1:78:d1:66:a3:87:82:e2:
         53:f1:c2:63:6a:4c:3e:5f:07:28:27:78:4b:e4:7c:2d:59:82:
         97:1d:86:67:f9:38:97:53:c2:f1:4c:e0:df:1d:ad:c3:51:2a:
         15:fb:29:c0:b9:8b:69:bc:61:18:da:33:74:bc:cd:d5:bc:19:
         03:5d:1f:fd:1d:0b:4c:ca:8f:11:6a:17:3a:94:0d:29:a7:25:
         cd:a4:8d:f2:85:04:5a:d7:c3:36:5b:98:ec:cb:43:36:04:89:
         22:53:4f:ff:8e:4e:09:53:57:a3:9a:bd:33:46:9d:ff:d3:1d:
         da:93:1a:07
-----BEGIN CERTIFICATE-----
MIIDeDCCAmCgAwIBAgIUIbTxDFISfs6TXt0tK2npu4xNJG8wDQYJKoZIhvcNAQEL
BQAwDzENMAsGA1UEAwwEUm9vdDAeFw0yMDExMDMxMjAwMDBaFw0yMTExMDMxMjAw
MDBaMA8xDTALBgNVBAMMBFJvb3QwggEiMA0GCSqGSIb3DQEBAQUAA4IBDwAwggEK
AoIBAQDoFzG2DoQQpJu/nq6eKbdvga7X30WJ0SlRDh45epZrf8B434jP27OrjUkP
+3BVhU+TnxKhplVcqa6NeU2mOjIDnL+tlcSLSR8CtSOgn9rTRcaM/OyXRlfdd1bG
okZ42qJZuyLq3mOUUBmRHBDNZ+BXEL3g3mlngG0xqEO8SSyK1kojD6Z49HTHTzdS
Oq+cA7KzbCarYmESbSIVZtrs1rgfmxS5BJybXrXLi2KVZ2qhV0QCd6KBPscgUqIW
LrrCKaFU7TNn8iomo7baCI1jbMpPxoSIuWAIz1COWj511+zXY8H+GD9O+wjeOUXS
gTSOiVpIzkm/yoTLJqzC9x9rPw1JAgMBAAGjgcswgcgwHQYDVR0OBBYEFM1vTP6q
ejpjXRJ5bfRMsCqKf/tsMB8GA1UdIwQYMBaAFM1vTP6qejpjXRJ5bfRMsCqKf/ts
MDcGCCsGAQUFBwEBBCswKTAnBggrBgEFBQcwAoYbaHR0cDovL3VybC1mb3ItYWlh
L1Jvb3QuY2VyMCwGA1UdHwQlMCMwIaAfoB2GG2h0dHA6Ly91cmwtZm9yLWNybC9S
b290LmNybDAOBgNVHQ8BAf8EBAMCAQYwDwYDVR0TAQH/BAUwAwEB/zANBgkqhkiG
9w0BAQsFAAOCAQEAP+yH/dnT/l/KIweM3awltkN9pCyPWM8qkd1DtsQkIBweFvWC
GUKv4GT4sKrhrVHAMrIbCFQ6yPKKn4Jn0Botny6CD2gadYl/KHH3QEAXg0ceri7Y
OrZMk1bXihLvZcwEjgUl8pmi5CHZBSV0ncU+vrahJn17TSMe1+jS3DHABtEHuGiq
LvJ3dqF40Wajh4LiU/HCY2pMPl8HKCd4S+R8LVmClx2GZ/k4l1PC8Uzg3x2tw1Eq
FfspwLmLabxhGNozdLzN1bwZA10f/R0LTMqPEWoXOpQNKaclzaSN8oUEWtfDNluY
7MtDNgSJIlNP/45OCVNXo5q9M0ad/9Md2pMaBw==
-----END CERTIFICATE-----
