[Created by: generate-chains.py]

Certificate chain where the target certificate sets the extended key usage
to clientAuth. Neither the root nor the intermediate have an EKU.

Certificate:
    Data:
        Version: 3 (0x2)
        Serial Number:
            51:d2:13:35:b6:8a:b2:3b:cd:22:15:03:93:0a:b2:a0:22:4d:e1:57
        Signature Algorithm: sha256WithRSAEncryption
        Issuer: CN=Intermediate
        Validity
            Not Before: Oct  5 12:00:00 2022 GMT
            Not After : Oct  5 12:00:00 2023 GMT
        Subject: CN=Target
        Subject Public Key Info:
            Public Key Algorithm: rsaEncryption
                Public-Key: (2048 bit)
                Modulus:
                    00:c3:82:13:64:0e:35:33:0c:ac:44:be:6d:92:f5:
                    e4:97:d8:9a:bd:64:f1:b5:67:62:01:7b:0c:98:57:
                    4a:63:64:b0:9d:6a:7b:84:a2:91:fe:73:0b:4c:81:
                    ce:89:f9:8d:8d:8a:41:18:c8:d8:64:27:36:32:e6:
                    36:26:44:16:13:2e:a1:ad:38:06:0b:1b:39:62:6a:
                    94:ac:a0:59:be:52:cb:47:d7:4b:00:09:91:8e:14:
                    69:a9:62:df:49:d8:b6:79:73:de:60:d4:b8:76:89:
                    a4:53:8a:1d:4b:80:88:31:e8:05:46:81:1b:7b:5d:
                    52:d0:6b:3b:53:0d:25:3c:95:9b:2d:99:83:3c:03:
                    8c:b5:73:fb:43:6c:82:b3:48:57:38:3c:ff:b7:79:
                    d8:13:74:06:d0:17:78:a9:38:09:76:ca:f9:b7:5a:
                    a5:8a:6e:85:7f:27:34:79:82:ef:a2:01:93:ae:fa:
                    0b:18:47:d4:14:ff:67:78:2b:53:92:f6:ac:27:42:
                    c7:7f:8e:fd:06:4a:36:b9:7a:98:5e:0d:94:ef:1a:
                    fa:08:ad:8d:64:28:c7:c1:03:76:63:b9:33:5a:9f:
                    16:be:d3:e0:5c:e9:43:7b:9b:83:b3:90:31:e7:59:
                    2b:1c:d2:8c:73:15:a2:3a:94:35:03:80:97:f8:5d:
                    a3:13
                Exponent: 65537 (0x10001)
        X509v3 extensions:
            X509v3 Subject Key Identifier: 
                5A:16:9C:06:85:B6:F4:77:AD:72:58:A2:4F:A1:FE:29:CF:97:8A:2B
            X509v3 Authority Key Identifier: 
                24:B9:91:41:39:F1:30:5E:F8:C5:3B:C0:51:CC:11:58:A6:13:73:B3
            Authority Information Access: 
                CA Issuers - URI:http://url-for-aia/Intermediate.cer
            X509v3 CRL Distribution Points: 
                Full Name:
                  URI:http://url-for-crl/Intermediate.crl
            X509v3 Key Usage: critical
                Digital Signature, Key Encipherment
            X509v3 Extended Key Usage: 
                TLS Web Client Authentication
    Signature Algorithm: sha256WithRSAEncryption
    Signature Value:
        81:3b:4a:ac:ea:79:1d:2e:28:01:e5:95:de:c2:2f:83:f2:25:
        8d:4f:89:6c:2f:c9:55:64:b6:45:bb:97:58:57:93:9b:9c:59:
        b5:ab:d3:65:47:0f:1a:23:dd:e7:13:7a:19:7d:b0:ba:0e:56:
        85:32:d2:4b:3d:57:2e:45:30:61:c0:92:dc:69:62:94:dc:f4:
        42:7c:2f:07:a2:87:6d:d5:99:ae:4e:c1:ca:4e:e5:67:01:1d:
        c4:a1:02:cf:6d:83:87:7a:c1:78:1a:17:a1:12:9b:76:e4:f6:
        d7:38:82:ee:c8:3b:da:c4:4e:82:2d:43:c6:b4:49:eb:ca:f3:
        8a:ac:7c:47:7d:9f:d5:45:7d:a9:d9:db:42:fd:86:bb:21:88:
        d9:29:e9:1e:4e:ee:8e:55:8d:f3:e4:30:12:22:9e:c2:5b:36:
        cc:5e:1f:02:ef:e1:cc:1f:7b:ae:89:91:29:ad:ab:ae:73:02:
        6c:11:ed:86:1c:b8:05:93:04:fe:04:33:e3:8e:5d:6b:19:9e:
        3d:cb:9f:1c:3f:17:b1:2b:a8:d7:9b:20:e5:59:97:4f:a8:06:
        10:6a:8e:22:97:5d:b5:1f:1c:f8:f1:15:12:2c:a5:dc:43:19:
        ce:ab:16:05:2a:bb:75:c7:10:f0:eb:29:ec:ec:b2:9f:60:90:
        a0:0a:66:e5
-----BEGIN CERTIFICATE-----
MIIDljCCAn6gAwIBAgIUUdITNbaKsjvNIhUDkwqyoCJN4VcwDQYJKoZIhvcNAQEL
BQAwFzEVMBMGA1UEAwwMSW50ZXJtZWRpYXRlMB4XDTIyMTAwNTEyMDAwMFoXDTIz
MTAwNTEyMDAwMFowETEPMA0GA1UEAwwGVGFyZ2V0MIIBIjANBgkqhkiG9w0BAQEF
AAOCAQ8AMIIBCgKCAQEAw4ITZA41MwysRL5tkvXkl9iavWTxtWdiAXsMmFdKY2Sw
nWp7hKKR/nMLTIHOifmNjYpBGMjYZCc2MuY2JkQWEy6hrTgGCxs5YmqUrKBZvlLL
R9dLAAmRjhRpqWLfSdi2eXPeYNS4domkU4odS4CIMegFRoEbe11S0Gs7Uw0lPJWb
LZmDPAOMtXP7Q2yCs0hXODz/t3nYE3QG0Bd4qTgJdsr5t1qlim6Ffyc0eYLvogGT
rvoLGEfUFP9neCtTkvasJ0LHf479Bko2uXqYXg2U7xr6CK2NZCjHwQN2Y7kzWp8W
vtPgXOlDe5uDs5Ax51krHNKMcxWiOpQ1A4CX+F2jEwIDAQABo4HfMIHcMB0GA1Ud
DgQWBBRaFpwGhbb0d61yWKJPof4pz5eKKzAfBgNVHSMEGDAWgBQkuZFBOfEwXvjF
O8BRzBFYphNzszA/BggrBgEFBQcBAQQzMDEwLwYIKwYBBQUHMAKGI2h0dHA6Ly91
cmwtZm9yLWFpYS9JbnRlcm1lZGlhdGUuY2VyMDQGA1UdHwQtMCswKaAnoCWGI2h0
dHA6Ly91cmwtZm9yLWNybC9JbnRlcm1lZGlhdGUuY3JsMA4GA1UdDwEB/wQEAwIF
oDATBgNVHSUEDDAKBggrBgEFBQcDAjANBgkqhkiG9w0BAQsFAAOCAQEAgTtKrOp5
HS4oAeWV3sIvg/IljU+JbC/JVWS2RbuXWFeTm5xZtavTZUcPGiPd5xN6GX2wug5W
hTLSSz1XLkUwYcCS3GlilNz0QnwvB6KHbdWZrk7Byk7lZwEdxKECz22Dh3rBeBoX
oRKbduT21ziC7sg72sROgi1DxrRJ68rziqx8R32f1UV9qdnbQv2GuyGI2SnpHk7u
jlWN8+QwEiKewls2zF4fAu/hzB97romRKa2rrnMCbBHthhy4BZME/gQz445daxme
PcufHD8XsSuo15sg5VmXT6gGEGqOIpddtR8c+PEVEiyl3EMZzqsWBSq7dccQ8Osp
7Oyyn2CQoApm5Q==
-----END CERTIFICATE-----

Certificate:
    Data:
        Version: 3 (0x2)
        Serial Number:
            21:b4:f1:0c:52:12:7e:ce:93:5e:dd:2d:2b:69:e9:bb:8c:4d:24:70
        Signature Algorithm: sha256WithRSAEncryption
        Issuer: CN=Root
        Validity
            Not Before: Oct  5 12:00:00 2022 GMT
            Not After : Oct  5 12:00:00 2023 GMT
        Subject: CN=Intermediate
        Subject Public Key Info:
            Public Key Algorithm: rsaEncryption
                Public-Key: (2048 bit)
                Modulus:
                    00:ed:3b:bb:f2:8b:20:81:de:42:41:c6:24:63:1c:
                    4b:e5:63:b0:93:07:fd:22:64:50:7d:ef:8f:ed:65:
                    aa:ba:f4:d9:ad:0c:68:dd:50:b0:ea:0a:5e:18:9e:
                    df:48:88:ec:1f:fa:6b:4a:3e:db:ea:24:6e:b1:a3:
                    bb:0b:12:de:1d:49:d3:32:78:24:f9:e8:4f:aa:85:
                    90:21:a2:2c:8f:58:95:8c:70:80:8d:cd:99:68:03:
                    67:0f:48:eb:96:17:63:93:2b:8f:72:77:23:5f:97:
                    4f:86:bd:17:d2:70:5b:5c:18:f8:01:d6:11:d8:c0:
                    dc:32:b2:f4:bf:dd:da:65:fb:86:23:c0:a4:bd:ff:
                    c2:a4:b6:87:9e:10:98:d4:f4:09:cb:26:50:1d:56:
                    83:72:09:c6:c1:b7:cc:52:9c:61:09:04:bb:aa:2a:
                    63:66:a5:b1:02:60:85:bc:30:91:62:bb:6f:b0:24:
                    33:e8:b5:9a:13:1f:3a:73:95:d5:fb:bc:a9:48:dd:
                    14:a2:a4:62:e1:97:19:57:b1:1a:da:c1:79:93:fd:
                    74:cb:e1:ff:0c:49:c2:78:57:8e:ef:dc:df:60:96:
                    8e:e6:a2:97:60:b9:53:6b:17:8e:ae:f9:3d:be:31:
                    dd:46:18:bd:af:b6:a6:02:fa:48:2f:d8:c6:f0:1f:
                    bc:43
                Exponent: 65537 (0x10001)
        X509v3 extensions:
            X509v3 Subject Key Identifier: 
                24:B9:91:41:39:F1:30:5E:F8:C5:3B:C0:51:CC:11:58:A6:13:73:B3
            X509v3 Authority Key Identifier: 
                CD:6F:4C:FE:AA:7A:3A:63:5D:12:79:6D:F4:4C:B0:2A:8A:7F:FB:6C
            Authority Information Access: 
                CA Issuers - URI:http://url-for-aia/Root.cer
            X509v3 CRL Distribution Points: 
                Full Name:
                  URI:http://url-for-crl/Root.crl
            X509v3 Key Usage: critical
                Certificate Sign, CRL Sign
            X509v3 Basic Constraints: critical
                CA:TRUE
    Signature Algorithm: sha256WithRSAEncryption
    Signature Value:
        8a:7c:9a:a1:4a:2e:62:45:6d:e1:00:3e:d1:83:a4:b7:5e:46:
        54:68:2b:25:d4:d1:33:8d:38:86:fe:a3:1e:82:0d:ef:2c:df:
        6c:76:a7:9a:ab:6e:3b:0c:5e:e4:53:34:74:61:90:31:b2:03:
        5d:11:f3:84:bf:17:28:b2:dc:90:09:27:20:af:00:7b:9c:bd:
        47:23:64:b9:3e:43:cd:1a:a3:c1:5b:f1:be:4a:02:d0:db:47:
        04:ea:32:1b:07:a0:b0:15:70:48:4f:22:b5:f1:7b:d7:70:b8:
        db:1f:47:33:00:c3:22:0a:6a:b0:c7:48:61:5d:43:82:a0:97:
        9f:b3:6c:89:98:5f:be:a1:5e:70:d2:df:3c:4c:c0:58:2c:f2:
        0b:11:81:79:63:94:3b:38:75:ed:2e:ac:52:33:aa:3c:65:c2:
        48:83:c9:76:d2:4e:e3:92:99:95:cf:0a:e9:ef:26:0d:53:91:
        56:8b:f3:26:ac:ba:12:bb:b4:a8:a1:5c:9e:58:3f:79:bf:83:
        1c:32:f8:cb:07:d8:cb:04:ac:4d:27:85:3a:f7:15:36:0d:49:
        4a:fd:33:27:fa:15:1f:d4:8f:8e:47:d2:fb:52:ec:8a:b8:2f:
        bc:82:3a:d8:8c:5a:06:0a:6f:08:30:c1:3e:9a:b1:ff:2b:62:
        d9:ec:8e:91
-----BEGIN CERTIFICATE-----
MIIDgDCCAmigAwIBAgIUIbTxDFISfs6TXt0tK2npu4xNJHAwDQYJKoZIhvcNAQEL
BQAwDzENMAsGA1UEAwwEUm9vdDAeFw0yMjEwMDUxMjAwMDBaFw0yMzEwMDUxMjAw
MDBaMBcxFTATBgNVBAMMDEludGVybWVkaWF0ZTCCASIwDQYJKoZIhvcNAQEBBQAD
ggEPADCCAQoCggEBAO07u/KLIIHeQkHGJGMcS+VjsJMH/SJkUH3vj+1lqrr02a0M
aN1QsOoKXhie30iI7B/6a0o+2+okbrGjuwsS3h1J0zJ4JPnoT6qFkCGiLI9YlYxw
gI3NmWgDZw9I65YXY5Mrj3J3I1+XT4a9F9JwW1wY+AHWEdjA3DKy9L/d2mX7hiPA
pL3/wqS2h54QmNT0CcsmUB1Wg3IJxsG3zFKcYQkEu6oqY2alsQJghbwwkWK7b7Ak
M+i1mhMfOnOV1fu8qUjdFKKkYuGXGVexGtrBeZP9dMvh/wxJwnhXju/c32CWjuai
l2C5U2sXjq75Pb4x3UYYva+2pgL6SC/YxvAfvEMCAwEAAaOByzCByDAdBgNVHQ4E
FgQUJLmRQTnxMF74xTvAUcwRWKYTc7MwHwYDVR0jBBgwFoAUzW9M/qp6OmNdEnlt
9EywKop/+2wwNwYIKwYBBQUHAQEEKzApMCcGCCsGAQUFBzAChhtodHRwOi8vdXJs
LWZvci1haWEvUm9vdC5jZXIwLAYDVR0fBCUwIzAhoB+gHYYbaHR0cDovL3VybC1m
b3ItY3JsL1Jvb3QuY3JsMA4GA1UdDwEB/wQEAwIBBjAPBgNVHRMBAf8EBTADAQH/
MA0GCSqGSIb3DQEBCwUAA4IBAQCKfJqhSi5iRW3hAD7Rg6S3XkZUaCsl1NEzjTiG
/qMegg3vLN9sdqeaq247DF7kUzR0YZAxsgNdEfOEvxcostyQCScgrwB7nL1HI2S5
PkPNGqPBW/G+SgLQ20cE6jIbB6CwFXBITyK18XvXcLjbH0czAMMiCmqwx0hhXUOC
oJefs2yJmF++oV5w0t88TMBYLPILEYF5Y5Q7OHXtLqxSM6o8ZcJIg8l20k7jkpmV
zwrp7yYNU5FWi/MmrLoSu7SooVyeWD95v4McMvjLB9jLBKxNJ4U69xU2DUlK/TMn
+hUf1I+OR9L7UuyKuC+8gjrYjFoGCm8IMME+mrH/K2LZ7I6R
-----END CERTIFICATE-----

Certificate:
    Data:
        Version: 3 (0x2)
        Serial Number:
            21:b4:f1:0c:52:12:7e:ce:93:5e:dd:2d:2b:69:e9:bb:8c:4d:24:6f
        Signature Algorithm: sha256WithRSAEncryption
        Issuer: CN=Root
        Validity
            Not Before: Oct  5 12:00:00 2022 GMT
            Not After : Oct  5 12:00:00 2023 GMT
        Subject: CN=Root
        Subject Public Key Info:
            Public Key Algorithm: rsaEncryption
                Public-Key: (2048 bit)
                Modulus:
                    00:e8:17:31:b6:0e:84:10:a4:9b:bf:9e:ae:9e:29:
                    b7:6f:81:ae:d7:df:45:89:d1:29:51:0e:1e:39:7a:
                    96:6b:7f:c0:78:df:88:cf:db:b3:ab:8d:49:0f:fb:
                    70:55:85:4f:93:9f:12:a1:a6:55:5c:a9:ae:8d:79:
                    4d:a6:3a:32:03:9c:bf:ad:95:c4:8b:49:1f:02:b5:
                    23:a0:9f:da:d3:45:c6:8c:fc:ec:97:46:57:dd:77:
                    56:c6:a2:46:78:da:a2:59:bb:22:ea:de:63:94:50:
                    19:91:1c:10:cd:67:e0:57:10:bd:e0:de:69:67:80:
                    6d:31:a8:43:bc:49:2c:8a:d6:4a:23:0f:a6:78:f4:
                    74:c7:4f:37:52:3a:af:9c:03:b2:b3:6c:26:ab:62:
                    61:12:6d:22:15:66:da:ec:d6:b8:1f:9b:14:b9:04:
                    9c:9b:5e:b5:cb:8b:62:95:67:6a:a1:57:44:02:77:
                    a2:81:3e:c7:20:52:a2:16:2e:ba:c2:29:a1:54:ed:
                    33:67:f2:2a:26:a3:b6:da:08:8d:63:6c:ca:4f:c6:
                    84:88:b9:60:08:cf:50:8e:5a:3e:75:d7:ec:d7:63:
                    c1:fe:18:3f:4e:fb:08:de:39:45:d2:81:34:8e:89:
                    5a:48:ce:49:bf:ca:84:cb:26:ac:c2:f7:1f:6b:3f:
                    0d:49
                Exponent: 65537 (0x10001)
        X509v3 extensions:
            X509v3 Subject Key Identifier: 
                CD:6F:4C:FE:AA:7A:3A:63:5D:12:79:6D:F4:4C:B0:2A:8A:7F:FB:6C
            X509v3 Authority Key Identifier: 
                CD:6F:4C:FE:AA:7A:3A:63:5D:12:79:6D:F4:4C:B0:2A:8A:7F:FB:6C
            Authority Information Access: 
                CA Issuers - URI:http://url-for-aia/Root.cer
            X509v3 CRL Distribution Points: 
                Full Name:
                  URI:http://url-for-crl/Root.crl
            X509v3 Key Usage: critical
                Certificate Sign, CRL Sign
            X509v3 Basic Constraints: critical
                CA:TRUE
    Signature Algorithm: sha256WithRSAEncryption
    Signature Value:
        18:a5:c4:fe:72:e9:7e:83:f3:77:92:f2:04:19:d3:d7:7c:3c:
        86:bd:dd:7b:93:ef:05:8c:59:cb:24:35:ed:95:7c:ed:96:bd:
        a7:4d:48:94:78:98:d3:ee:15:3f:cb:fa:ae:2e:17:79:aa:d4:
        5c:e1:f4:7a:7c:6c:35:f4:70:00:76:ed:9b:58:01:fc:1c:01:
        2f:94:1b:de:e4:ea:65:57:1e:7a:f5:07:e7:37:f3:98:c9:3e:
        be:7e:6a:7e:2b:6c:85:b7:b1:09:13:48:23:a2:1c:57:d7:06:
        11:f6:df:ad:b2:1d:8e:53:4e:0f:8e:46:8a:76:cc:7f:bf:f5:
        c9:50:b0:2c:a9:0e:9f:e4:07:82:72:23:2b:5c:6a:89:13:b3:
        89:56:02:f2:b2:65:52:23:f2:92:ec:28:dc:72:aa:12:ce:67:
        e1:e7:4f:fd:b5:48:76:da:42:cc:79:07:3e:d9:cc:ab:22:91:
        20:b0:e8:a0:a7:5e:df:74:a1:46:4b:dc:c0:ca:97:a1:86:7b:
        5f:c5:4e:f1:2b:c7:30:f5:42:8e:30:42:dd:1b:18:88:62:a4:
        e8:7d:77:1f:a3:e0:68:9d:4b:94:19:37:04:81:f1:e8:d5:41:
        7e:9e:0f:ff:a7:90:ca:ba:cb:ac:fc:10:de:ae:bc:c4:f3:cb:
        92:e4:ea:62
-----BEGIN CERTIFICATE-----
MIIDeDCCAmCgAwIBAgIUIbTxDFISfs6TXt0tK2npu4xNJG8wDQYJKoZIhvcNAQEL
BQAwDzENMAsGA1UEAwwEUm9vdDAeFw0yMjEwMDUxMjAwMDBaFw0yMzEwMDUxMjAw
MDBaMA8xDTALBgNVBAMMBFJvb3QwggEiMA0GCSqGSIb3DQEBAQUAA4IBDwAwggEK
AoIBAQDoFzG2DoQQpJu/nq6eKbdvga7X30WJ0SlRDh45epZrf8B434jP27OrjUkP
+3BVhU+TnxKhplVcqa6NeU2mOjIDnL+tlcSLSR8CtSOgn9rTRcaM/OyXRlfdd1bG
okZ42qJZuyLq3mOUUBmRHBDNZ+BXEL3g3mlngG0xqEO8SSyK1kojD6Z49HTHTzdS
Oq+cA7KzbCarYmESbSIVZtrs1rgfmxS5BJybXrXLi2KVZ2qhV0QCd6KBPscgUqIW
LrrCKaFU7TNn8iomo7baCI1jbMpPxoSIuWAIz1COWj511+zXY8H+GD9O+wjeOUXS
gTSOiVpIzkm/yoTLJqzC9x9rPw1JAgMBAAGjgcswgcgwHQYDVR0OBBYEFM1vTP6q
ejpjXRJ5bfRMsCqKf/tsMB8GA1UdIwQYMBaAFM1vTP6qejpjXRJ5bfRMsCqKf/ts
MDcGCCsGAQUFBwEBBCswKTAnBggrBgEFBQcwAoYbaHR0cDovL3VybC1mb3ItYWlh
L1Jvb3QuY2VyMCwGA1UdHwQlMCMwIaAfoB2GG2h0dHA6Ly91cmwtZm9yLWNybC9S
b290LmNybDAOBgNVHQ8BAf8EBAMCAQYwDwYDVR0TAQH/BAUwAwEB/zANBgkqhkiG
9w0BAQsFAAOCAQEAGKXE/nLpfoPzd5LyBBnT13w8hr3de5PvBYxZyyQ17ZV87Za9
p01IlHiY0+4VP8v6ri4XearUXOH0enxsNfRwAHbtm1gB/BwBL5Qb3uTqZVceevUH
5zfzmMk+vn5qfitshbexCRNII6IcV9cGEfbfrbIdjlNOD45GinbMf7/1yVCwLKkO
n+QHgnIjK1xqiROziVYC8rJlUiPykuwo3HKqEs5n4edP/bVIdtpCzHkHPtnMqyKR
ILDooKde33ShRkvcwMqXoYZ7X8VO8SvHMPVCjjBC3RsYiGKk6H13H6PgaJ1LlBk3
BIHx6NVBfp4P/6eQyrrLrPwQ3q68xPPLkuTqYg==
-----END CERTIFICATE-----
