[Created by: generate-chains.py]

Certificate chain where the intermediate lacks a basic constraints
extension (yet is used to issue another certificate).

Certificate:
    Data:
        Version: 3 (0x2)
        Serial Number:
            49:69:f3:be:c4:d1:47:b6:f9:34:d0:0a:22:12:e6:60:9c:51:8b:6e
        Signature Algorithm: sha256WithRSAEncryption
        Issuer: CN=Intermediate
        Validity
            Not Before: Oct  5 12:00:00 2022 GMT
            Not After : Oct  5 12:00:00 2023 GMT
        Subject: CN=Target
        Subject Public Key Info:
            Public Key Algorithm: rsaEncryption
                Public-Key: (2048 bit)
                Modulus:
                    00:cd:97:c5:b2:49:20:8b:97:3c:5d:b5:01:5b:8d:
                    ac:af:2a:2a:b5:cf:1a:ba:d8:1c:2d:68:12:1f:1f:
                    10:8c:50:4d:d6:75:72:cb:62:d5:5f:ff:6b:45:44:
                    a6:76:15:31:6e:7d:0e:21:2e:53:65:57:cf:7f:24:
                    ab:2d:05:db:7e:94:e7:7b:dc:ec:02:6d:58:3b:4e:
                    db:c0:95:02:bf:c4:ad:4c:26:20:49:11:a5:d1:b7:
                    01:e9:27:15:85:ef:19:9a:7d:b9:32:6a:f8:0e:45:
                    8b:ee:f4:31:ad:e6:ef:bf:be:d7:ac:44:2e:11:59:
                    15:5b:82:81:37:88:46:58:98:96:5b:b4:33:c5:c3:
                    14:11:7a:53:fc:e9:7a:c5:dd:61:ed:01:a4:83:fe:
                    39:66:8d:34:8d:87:09:94:78:f4:fe:0c:0e:e8:ca:
                    f1:d0:7a:d6:d0:55:1d:4b:21:31:6c:54:39:ff:1d:
                    38:c4:58:c0:10:02:78:ab:73:36:d3:2b:09:a4:62:
                    e9:e3:32:41:02:ea:d6:99:0a:0e:01:3c:df:68:3e:
                    58:cb:7e:c2:61:84:c9:27:37:83:0b:5c:e8:60:5e:
                    53:64:e6:50:cf:2a:22:cd:be:57:92:72:6c:6b:47:
                    77:ee:bb:96:48:b0:4b:1b:eb:37:b8:0f:2b:c6:97:
                    98:b3
                Exponent: 65537 (0x10001)
        X509v3 extensions:
            X509v3 Subject Key Identifier: 
                A1:B6:F2:69:1D:9D:60:3D:20:03:B7:D6:19:26:AF:97:9F:7F:56:2A
            X509v3 Authority Key Identifier: 
                45:32:A9:37:50:F0:A0:A1:8E:02:EB:8B:34:65:28:12:3F:FB:6A:18
            Authority Information Access: 
                CA Issuers - URI:http://url-for-aia/Intermediate.cer
            X509v3 CRL Distribution Points: 
                Full Name:
                  URI:http://url-for-crl/Intermediate.crl
            X509v3 Key Usage: critical
                Digital Signature, Key Encipherment
            X509v3 Extended Key Usage: 
                TLS Web Server Authentication, TLS Web Client Authentication
    Signature Algorithm: sha256WithRSAEncryption
    Signature Value:
        4c:6b:52:3b:3f:9d:60:da:2c:fb:c0:82:91:15:15:07:f8:45:
        19:7a:66:4b:41:7e:16:0d:47:76:76:cb:c8:8f:2c:dc:58:5a:
        26:98:c8:a8:38:50:aa:45:75:cf:53:f7:b7:27:16:be:c5:e0:
        16:b1:53:bb:dc:5c:21:9d:1a:f1:23:4a:cd:00:5a:0f:ae:b0:
        b7:77:f6:9d:8e:2c:c5:33:78:68:68:ff:a0:ce:67:7c:51:d9:
        00:9e:16:c3:bc:e9:6f:f7:87:d4:09:34:61:21:57:bf:18:36:
        23:7e:b3:94:16:64:07:05:d6:ea:4d:3c:2f:44:ef:d8:9a:2e:
        e8:46:2a:81:0a:e1:23:54:68:3e:41:55:e9:42:4d:d5:ec:17:
        48:bb:58:ec:87:03:5d:50:56:d4:a4:f4:cb:c1:71:cd:b6:c7:
        bf:03:2a:0b:5c:d3:27:cd:dd:82:60:ca:56:bc:78:48:ab:42:
        e3:59:4d:52:20:e2:fc:c6:ce:94:36:e5:87:bf:0b:ff:eb:77:
        2b:03:8c:38:f8:f7:16:ec:cd:f0:4d:74:dd:9b:e9:f1:1c:19:
        26:6d:32:6c:de:3c:2c:e6:ef:10:4c:f0:bb:b4:14:43:8f:3b:
        ea:ee:6c:8f:98:c9:05:6a:a6:29:41:ac:7a:cb:0f:52:0a:93:
        b4:94:61:4d
-----BEGIN CERTIFICATE-----
MIIDoDCCAoigAwIBAgIUSWnzvsTRR7b5NNAKIhLmYJxRi24wDQYJKoZIhvcNAQEL
BQAwFzEVMBMGA1UEAwwMSW50ZXJtZWRpYXRlMB4XDTIyMTAwNTEyMDAwMFoXDTIz
MTAwNTEyMDAwMFowETEPMA0GA1UEAwwGVGFyZ2V0MIIBIjANBgkqhkiG9w0BAQEF
AAOCAQ8AMIIBCgKCAQEAzZfFskkgi5c8XbUBW42sryoqtc8autgcLWgSHx8QjFBN
1nVyy2LVX/9rRUSmdhUxbn0OIS5TZVfPfySrLQXbfpTne9zsAm1YO07bwJUCv8St
TCYgSRGl0bcB6ScVhe8Zmn25Mmr4DkWL7vQxrebvv77XrEQuEVkVW4KBN4hGWJiW
W7QzxcMUEXpT/Ol6xd1h7QGkg/45Zo00jYcJlHj0/gwO6Mrx0HrW0FUdSyExbFQ5
/x04xFjAEAJ4q3M20ysJpGLp4zJBAurWmQoOATzfaD5Yy37CYYTJJzeDC1zoYF5T
ZOZQzyoizb5XknJsa0d37ruWSLBLG+s3uA8rxpeYswIDAQABo4HpMIHmMB0GA1Ud
DgQWBBShtvJpHZ1gPSADt9YZJq+Xn39WKjAfBgNVHSMEGDAWgBRFMqk3UPCgoY4C
64s0ZSgSP/tqGDA/BggrBgEFBQcBAQQzMDEwLwYIKwYBBQUHMAKGI2h0dHA6Ly91
cmwtZm9yLWFpYS9JbnRlcm1lZGlhdGUuY2VyMDQGA1UdHwQtMCswKaAnoCWGI2h0
dHA6Ly91cmwtZm9yLWNybC9JbnRlcm1lZGlhdGUuY3JsMA4GA1UdDwEB/wQEAwIF
oDAdBgNVHSUEFjAUBggrBgEFBQcDAQYIKwYBBQUHAwIwDQYJKoZIhvcNAQELBQAD
ggEBAExrUjs/nWDaLPvAgpEVFQf4RRl6ZktBfhYNR3Z2y8iPLNxYWiaYyKg4UKpF
dc9T97cnFr7F4BaxU7vcXCGdGvEjSs0AWg+usLd39p2OLMUzeGho/6DOZ3xR2QCe
FsO86W/3h9QJNGEhV78YNiN+s5QWZAcF1upNPC9E79iaLuhGKoEK4SNUaD5BVelC
TdXsF0i7WOyHA11QVtSk9MvBcc22x78DKgtc0yfN3YJgyla8eEirQuNZTVIg4vzG
zpQ25Ye/C//rdysDjDj49xbszfBNdN2b6fEcGSZtMmzePCzm7xBM8Lu0FEOPO+ru
bI+YyQVqpilBrHrLD1IKk7SUYU0=
-----END CERTIFICATE-----

Certificate:
    Data:
        Version: 3 (0x2)
        Serial Number:
            7c:71:83:7d:9a:71:3e:fb:f4:b1:79:2c:b6:6c:11:29:14:74:0b:74
        Signature Algorithm: sha256WithRSAEncryption
        Issuer: CN=Root
        Validity
            Not Before: Oct  5 12:00:00 2022 GMT
            Not After : Oct  5 12:00:00 2023 GMT
        Subject: CN=Intermediate
        Subject Public Key Info:
            Public Key Algorithm: rsaEncryption
                Public-Key: (2048 bit)
                Modulus:
                    00:d4:d2:58:5a:24:b9:9d:c4:07:62:ed:0a:24:09:
                    46:d4:97:a8:e1:e6:fa:c2:8d:ba:31:da:ea:95:6f:
                    ca:79:cc:10:08:cd:8e:5d:33:eb:04:40:94:7a:15:
                    94:71:fe:50:73:ea:a0:41:e6:bf:93:aa:7f:60:c2:
                    e6:55:1a:24:ce:b5:f9:5f:ad:f7:90:b5:49:1c:30:
                    45:ad:ed:12:d3:b0:9d:de:03:33:01:a6:c0:12:4e:
                    96:13:d7:9f:b0:69:67:b9:cf:d5:a9:ce:9d:7c:4e:
                    5f:0d:7b:d1:a4:65:93:12:22:42:e8:02:9f:18:0b:
                    03:af:1f:3c:b1:e0:ac:a7:a7:87:b1:22:c1:c9:fe:
                    1d:81:13:dd:e7:d9:21:68:86:6a:06:13:82:73:e5:
                    78:78:e0:99:76:75:38:68:73:cb:8b:33:25:53:72:
                    d1:58:f0:40:64:36:03:32:1d:72:c3:8c:ef:de:76:
                    07:df:9a:b7:b9:4c:10:94:fb:c8:7b:69:ba:d3:a9:
                    1a:21:8c:f7:c5:b3:b1:1b:72:44:10:8c:dd:c3:76:
                    36:e5:ce:a8:a0:29:1b:fa:47:0c:e3:89:f2:44:84:
                    cc:88:0f:48:09:c9:0e:1e:a9:ee:a7:55:ba:5a:6f:
                    78:66:d8:bd:4d:9c:d5:52:95:83:b1:80:b5:af:ce:
                    f5:73
                Exponent: 65537 (0x10001)
        X509v3 extensions:
            X509v3 Subject Key Identifier: 
                45:32:A9:37:50:F0:A0:A1:8E:02:EB:8B:34:65:28:12:3F:FB:6A:18
            X509v3 Authority Key Identifier: 
                E5:37:1E:E2:93:2C:94:BA:7F:8B:6E:2F:75:D5:0D:D8:0A:D2:96:12
            Authority Information Access: 
                CA Issuers - URI:http://url-for-aia/Root.cer
            X509v3 CRL Distribution Points: 
                Full Name:
                  URI:http://url-for-crl/Root.crl
            X509v3 Key Usage: critical
                Certificate Sign, CRL Sign
    Signature Algorithm: sha256WithRSAEncryption
    Signature Value:
        99:68:c7:5a:d3:4d:07:88:9f:d9:69:78:42:3b:be:b5:7b:42:
        fd:60:59:32:3e:0b:fd:31:22:f0:c8:61:26:8d:ad:14:eb:17:
        2c:b0:5e:c4:1c:10:41:8c:f2:e8:94:c5:69:39:10:03:68:d4:
        f6:04:1a:7c:0a:47:c5:e0:35:1e:a2:6f:99:70:41:d1:c0:a8:
        96:2e:bb:de:a1:86:c6:66:c3:52:d5:13:01:1b:9d:53:f4:7d:
        31:19:5d:49:de:d9:39:ea:17:29:e4:9e:90:08:4e:6e:eb:d3:
        9d:4b:d4:ea:20:fe:5c:81:7d:75:89:92:06:bb:fb:a0:dc:13:
        05:bd:3f:bb:af:ae:1e:2f:fa:ac:ef:d8:15:c1:95:0b:f6:4f:
        c8:d6:47:e5:49:80:c6:7a:1a:9a:3d:0f:9c:41:08:ce:fc:2f:
        fd:3c:97:76:a2:19:b1:c6:16:99:b7:c8:1f:33:f6:79:04:89:
        0e:a0:21:43:75:6c:61:63:1e:57:38:95:51:27:34:9a:26:2a:
        1d:80:bd:55:0b:4c:65:72:21:d3:c7:24:06:41:bb:8b:21:fb:
        b7:34:05:08:1f:aa:7d:cd:44:2f:3e:21:98:8d:ae:84:bc:2c:
        40:dd:23:9f:e2:fc:67:8f:77:58:0e:dc:c9:2c:00:27:05:a3:
        fd:3b:27:19
-----BEGIN CERTIFICATE-----
MIIDbzCCAlegAwIBAgIUfHGDfZpxPvv0sXkstmwRKRR0C3QwDQYJKoZIhvcNAQEL
BQAwDzENMAsGA1UEAwwEUm9vdDAeFw0yMjEwMDUxMjAwMDBaFw0yMzEwMDUxMjAw
MDBaMBcxFTATBgNVBAMMDEludGVybWVkaWF0ZTCCASIwDQYJKoZIhvcNAQEBBQAD
ggEPADCCAQoCggEBANTSWFokuZ3EB2LtCiQJRtSXqOHm+sKNujHa6pVvynnMEAjN
jl0z6wRAlHoVlHH+UHPqoEHmv5Oqf2DC5lUaJM61+V+t95C1SRwwRa3tEtOwnd4D
MwGmwBJOlhPXn7BpZ7nP1anOnXxOXw170aRlkxIiQugCnxgLA68fPLHgrKenh7Ei
wcn+HYET3efZIWiGagYTgnPleHjgmXZ1OGhzy4szJVNy0VjwQGQ2AzIdcsOM7952
B9+at7lMEJT7yHtputOpGiGM98WzsRtyRBCM3cN2NuXOqKApG/pHDOOJ8kSEzIgP
SAnJDh6p7qdVulpveGbYvU2c1VKVg7GAta/O9XMCAwEAAaOBujCBtzAdBgNVHQ4E
FgQURTKpN1DwoKGOAuuLNGUoEj/7ahgwHwYDVR0jBBgwFoAU5Tce4pMslLp/i24v
ddUN2ArSlhIwNwYIKwYBBQUHAQEEKzApMCcGCCsGAQUFBzAChhtodHRwOi8vdXJs
LWZvci1haWEvUm9vdC5jZXIwLAYDVR0fBCUwIzAhoB+gHYYbaHR0cDovL3VybC1m
b3ItY3JsL1Jvb3QuY3JsMA4GA1UdDwEB/wQEAwIBBjANBgkqhkiG9w0BAQsFAAOC
AQEAmWjHWtNNB4if2Wl4Qju+tXtC/WBZMj4L/TEi8MhhJo2tFOsXLLBexBwQQYzy
6JTFaTkQA2jU9gQafApHxeA1HqJvmXBB0cColi673qGGxmbDUtUTARudU/R9MRld
Sd7ZOeoXKeSekAhObuvTnUvU6iD+XIF9dYmSBrv7oNwTBb0/u6+uHi/6rO/YFcGV
C/ZPyNZH5UmAxnoamj0PnEEIzvwv/TyXdqIZscYWmbfIHzP2eQSJDqAhQ3VsYWMe
VziVUSc0miYqHYC9VQtMZXIh08ckBkG7iyH7tzQFCB+qfc1ELz4hmI2uhLwsQN0j
n+L8Z493WA7cySwAJwWj/TsnGQ==
-----END CERTIFICATE-----

Certificate:
    Data:
        Version: 3 (0x2)
        Serial Number:
            7c:71:83:7d:9a:71:3e:fb:f4:b1:79:2c:b6:6c:11:29:14:74:0b:73
        Signature Algorithm: sha256WithRSAEncryption
        Issuer: CN=Root
        Validity
            Not Before: Oct  5 12:00:00 2022 GMT
            Not After : Oct  5 12:00:00 2023 GMT
        Subject: CN=Root
        Subject Public Key Info:
            Public Key Algorithm: rsaEncryption
                Public-Key: (2048 bit)
                Modulus:
                    00:a9:f3:a8:48:50:46:fe:b1:fa:ee:af:1a:5c:c1:
                    f2:d0:e1:f9:d1:b4:8e:82:c7:91:d2:eb:1e:06:ba:
                    27:e5:3e:d5:ae:c7:1c:3f:a6:b9:48:05:c4:90:57:
                    23:ab:2a:01:cd:ca:7f:df:8c:b6:2e:6f:83:88:e9:
                    8e:f3:b0:e8:97:9a:91:cd:ad:d0:ef:fb:4b:d7:61:
                    bd:f1:5d:00:97:70:5b:95:1e:6d:3c:a7:03:2b:ec:
                    29:cc:b6:ed:b1:e2:9a:db:38:ce:73:02:19:3f:20:
                    03:70:cd:88:29:f9:ad:40:f7:16:0b:b4:93:9b:ac:
                    13:da:bb:39:e9:2f:2f:17:39:1a:27:47:75:cd:0a:
                    81:a2:e5:a8:58:e7:08:15:a3:33:86:0e:b9:ba:90:
                    23:3b:2a:2a:ed:04:d7:80:85:51:d8:dd:ba:d0:96:
                    34:ef:8c:21:19:ce:cd:0a:9e:fc:ab:3d:ed:69:d1:
                    4b:d2:2b:1f:77:5c:74:96:d7:25:ce:02:e0:49:ed:
                    18:ee:c4:37:d1:e5:f5:a2:5c:ae:c9:fe:2b:cd:68:
                    a6:a5:31:9a:76:5e:a2:10:be:aa:14:ca:57:c3:31:
                    ac:92:bd:9b:53:df:69:8f:e2:26:85:36:20:27:f5:
                    60:fb:66:6d:9b:a7:ec:f8:e4:1a:df:a2:38:ee:ef:
                    3c:d1
                Exponent: 65537 (0x10001)
        X509v3 extensions:
            X509v3 Subject Key Identifier: 
                E5:37:1E:E2:93:2C:94:BA:7F:8B:6E:2F:75:D5:0D:D8:0A:D2:96:12
            X509v3 Authority Key Identifier: 
                E5:37:1E:E2:93:2C:94:BA:7F:8B:6E:2F:75:D5:0D:D8:0A:D2:96:12
            Authority Information Access: 
                CA Issuers - URI:http://url-for-aia/Root.cer
            X509v3 CRL Distribution Points: 
                Full Name:
                  URI:http://url-for-crl/Root.crl
            X509v3 Key Usage: critical
                Certificate Sign, CRL Sign
            X509v3 Basic Constraints: critical
                CA:TRUE
    Signature Algorithm: sha256WithRSAEncryption
    Signature Value:
        4b:42:2f:e7:75:5a:4b:9b:a1:a6:7c:a9:60:73:b4:c2:c0:f4:
        81:31:42:0b:66:d7:94:25:cb:9b:d7:39:25:1b:54:d1:01:51:
        d9:92:a2:29:55:9a:b7:82:1b:ea:a4:42:bb:99:fe:03:3a:a0:
        5a:0e:f9:d9:23:ee:bb:16:4d:1a:ef:65:c5:d8:3a:fe:9a:5e:
        4e:81:b6:c5:60:1a:e8:4e:dc:f0:4c:35:fb:d9:bc:04:fe:6a:
        71:ef:a5:c0:9c:6f:3e:ca:14:04:5b:e1:98:8d:97:a5:ce:c8:
        9a:b3:b1:2a:82:f9:de:33:95:a3:10:7c:fa:16:00:43:a8:5c:
        1b:24:66:bd:50:d0:f0:e1:77:cb:c3:14:ea:a0:d1:fa:0d:ff:
        c4:3b:3d:64:cb:74:7d:58:29:06:81:ae:4b:a5:f5:0f:52:10:
        a5:9a:31:c1:38:db:cb:47:a0:d5:87:f1:6e:01:e7:89:5e:e3:
        8b:31:da:94:ae:aa:f6:10:40:77:ac:de:55:e8:f1:ab:23:ea:
        a9:44:3e:54:b8:46:e9:2e:18:27:4b:4e:52:fc:ed:2e:69:ff:
        17:ad:b1:a8:aa:a7:54:5d:36:a1:37:2c:13:68:4a:2e:19:24:
        e3:33:bc:5e:81:29:3c:59:c8:57:3a:d5:38:47:a0:10:41:b5:
        31:34:86:58
-----BEGIN CERTIFICATE-----
MIIDeDCCAmCgAwIBAgIUfHGDfZpxPvv0sXkstmwRKRR0C3MwDQYJKoZIhvcNAQEL
BQAwDzENMAsGA1UEAwwEUm9vdDAeFw0yMjEwMDUxMjAwMDBaFw0yMzEwMDUxMjAw
MDBaMA8xDTALBgNVBAMMBFJvb3QwggEiMA0GCSqGSIb3DQEBAQUAA4IBDwAwggEK
AoIBAQCp86hIUEb+sfrurxpcwfLQ4fnRtI6Cx5HS6x4GuiflPtWuxxw/prlIBcSQ
VyOrKgHNyn/fjLYub4OI6Y7zsOiXmpHNrdDv+0vXYb3xXQCXcFuVHm08pwMr7CnM
tu2x4prbOM5zAhk/IANwzYgp+a1A9xYLtJObrBPauznpLy8XORonR3XNCoGi5ahY
5wgVozOGDrm6kCM7KirtBNeAhVHY3brQljTvjCEZzs0KnvyrPe1p0UvSKx93XHSW
1yXOAuBJ7RjuxDfR5fWiXK7J/ivNaKalMZp2XqIQvqoUylfDMaySvZtT32mP4iaF
NiAn9WD7Zm2bp+z45Brfojju7zzRAgMBAAGjgcswgcgwHQYDVR0OBBYEFOU3HuKT
LJS6f4tuL3XVDdgK0pYSMB8GA1UdIwQYMBaAFOU3HuKTLJS6f4tuL3XVDdgK0pYS
MDcGCCsGAQUFBwEBBCswKTAnBggrBgEFBQcwAoYbaHR0cDovL3VybC1mb3ItYWlh
L1Jvb3QuY2VyMCwGA1UdHwQlMCMwIaAfoB2GG2h0dHA6Ly91cmwtZm9yLWNybC9S
b290LmNybDAOBgNVHQ8BAf8EBAMCAQYwDwYDVR0TAQH/BAUwAwEB/zANBgkqhkiG
9w0BAQsFAAOCAQEAS0Iv53VaS5uhpnypYHO0wsD0gTFCC2bXlCXLm9c5JRtU0QFR
2ZKiKVWat4Ib6qRCu5n+AzqgWg752SPuuxZNGu9lxdg6/ppeToG2xWAa6E7c8Ew1
+9m8BP5qce+lwJxvPsoUBFvhmI2Xpc7ImrOxKoL53jOVoxB8+hYAQ6hcGyRmvVDQ
8OF3y8MU6qDR+g3/xDs9ZMt0fVgpBoGuS6X1D1IQpZoxwTjby0eg1YfxbgHniV7j
izHalK6q9hBAd6zeVejxqyPqqUQ+VLhG6S4YJ0tOUvztLmn/F62xqKqnVF02oTcs
E2hKLhkk4zO8XoEpPFnIVzrVOEegEEG1MTSGWA==
-----END CERTIFICATE-----
