[Created by: generate-chains.py]

Certificate chain where the intermediate lacks a basic constraints
extension (yet is used to issue another certificate).

Certificate:
    Data:
        Version: 3 (0x2)
        Serial Number:
            49:69:f3:be:c4:d1:47:b6:f9:34:d0:0a:22:12:e6:60:9c:51:8b:6e
        Signature Algorithm: sha256WithRSAEncryption
        Issuer: CN=Intermediate
        Validity
            Not Before: Nov  3 12:00:00 2020 GMT
            Not After : Nov  3 12:00:00 2021 GMT
        Subject: CN=Target
        Subject Public Key Info:
            Public Key Algorithm: rsaEncryption
                RSA Public-Key: (2048 bit)
                Modulus:
                    00:cd:97:c5:b2:49:20:8b:97:3c:5d:b5:01:5b:8d:
                    ac:af:2a:2a:b5:cf:1a:ba:d8:1c:2d:68:12:1f:1f:
                    10:8c:50:4d:d6:75:72:cb:62:d5:5f:ff:6b:45:44:
                    a6:76:15:31:6e:7d:0e:21:2e:53:65:57:cf:7f:24:
                    ab:2d:05:db:7e:94:e7:7b:dc:ec:02:6d:58:3b:4e:
                    db:c0:95:02:bf:c4:ad:4c:26:20:49:11:a5:d1:b7:
                    01:e9:27:15:85:ef:19:9a:7d:b9:32:6a:f8:0e:45:
                    8b:ee:f4:31:ad:e6:ef:bf:be:d7:ac:44:2e:11:59:
                    15:5b:82:81:37:88:46:58:98:96:5b:b4:33:c5:c3:
                    14:11:7a:53:fc:e9:7a:c5:dd:61:ed:01:a4:83:fe:
                    39:66:8d:34:8d:87:09:94:78:f4:fe:0c:0e:e8:ca:
                    f1:d0:7a:d6:d0:55:1d:4b:21:31:6c:54:39:ff:1d:
                    38:c4:58:c0:10:02:78:ab:73:36:d3:2b:09:a4:62:
                    e9:e3:32:41:02:ea:d6:99:0a:0e:01:3c:df:68:3e:
                    58:cb:7e:c2:61:84:c9:27:37:83:0b:5c:e8:60:5e:
                    53:64:e6:50:cf:2a:22:cd:be:57:92:72:6c:6b:47:
                    77:ee:bb:96:48:b0:4b:1b:eb:37:b8:0f:2b:c6:97:
                    98:b3
                Exponent: 65537 (0x10001)
        X509v3 extensions:
            X509v3 Subject Key Identifier: 
                A1:B6:F2:69:1D:9D:60:3D:20:03:B7:D6:19:26:AF:97:9F:7F:56:2A
            X509v3 Authority Key Identifier: 
                keyid:45:32:A9:37:50:F0:A0:A1:8E:02:EB:8B:34:65:28:12:3F:FB:6A:18

            Authority Information Access: 
                CA Issuers - URI:http://url-for-aia/Intermediate.cer

            X509v3 CRL Distribution Points: 

                Full Name:
                  URI:http://url-for-crl/Intermediate.crl

            X509v3 Key Usage: critical
                Digital Signature, Key Encipherment
            X509v3 Extended Key Usage: 
                TLS Web Server Authentication, TLS Web Client Authentication
    Signature Algorithm: sha256WithRSAEncryption
         85:2e:48:bc:96:03:8e:74:ed:75:70:04:0f:70:1c:5c:9c:70:
         ed:ea:4b:79:2a:ea:61:74:00:7e:ca:d3:db:85:ed:e2:47:17:
         03:11:8b:2c:08:84:24:10:4a:d6:cf:61:78:70:fd:95:12:b2:
         6e:a2:37:4e:a7:89:04:94:9b:88:88:35:df:c0:e7:c2:29:e4:
         b4:1a:ed:d0:a1:23:be:42:3f:dc:6a:4f:27:61:f7:60:74:d6:
         4b:d2:29:3c:93:30:dc:32:9f:66:f2:e2:90:59:af:59:ca:4a:
         29:b5:5b:52:73:9a:88:a0:88:a5:f2:f0:82:5b:e8:86:95:44:
         5d:3a:27:4c:5d:ec:c1:ea:34:3c:19:ed:cc:dd:1b:0f:92:87:
         11:7c:26:8d:5d:ef:22:f5:02:7f:3d:db:d6:7d:cb:ca:d4:e6:
         8b:ea:c5:a2:b0:7a:11:50:ec:eb:49:74:90:9e:3c:f4:13:06:
         74:06:c5:7f:fd:2b:4d:67:06:88:5b:52:58:42:db:16:1c:88:
         43:ba:9e:5c:15:3e:64:24:f7:7e:59:45:37:7f:51:3b:b2:40:
         3b:91:88:ba:93:c2:52:7a:c6:b6:99:a2:a5:fc:9b:ca:e1:0e:
         13:a9:4e:e6:2e:b3:d0:00:18:92:af:34:f6:09:3d:66:bb:e4:
         4a:ad:d4:bf
-----BEGIN CERTIFICATE-----
MIIDoDCCAoigAwIBAgIUSWnzvsTRR7b5NNAKIhLmYJxRi24wDQYJKoZIhvcNAQEL
BQAwFzEVMBMGA1UEAwwMSW50ZXJtZWRpYXRlMB4XDTIwMTEwMzEyMDAwMFoXDTIx
MTEwMzEyMDAwMFowETEPMA0GA1UEAwwGVGFyZ2V0MIIBIjANBgkqhkiG9w0BAQEF
AAOCAQ8AMIIBCgKCAQEAzZfFskkgi5c8XbUBW42sryoqtc8autgcLWgSHx8QjFBN
1nVyy2LVX/9rRUSmdhUxbn0OIS5TZVfPfySrLQXbfpTne9zsAm1YO07bwJUCv8St
TCYgSRGl0bcB6ScVhe8Zmn25Mmr4DkWL7vQxrebvv77XrEQuEVkVW4KBN4hGWJiW
W7QzxcMUEXpT/Ol6xd1h7QGkg/45Zo00jYcJlHj0/gwO6Mrx0HrW0FUdSyExbFQ5
/x04xFjAEAJ4q3M20ysJpGLp4zJBAurWmQoOATzfaD5Yy37CYYTJJzeDC1zoYF5T
ZOZQzyoizb5XknJsa0d37ruWSLBLG+s3uA8rxpeYswIDAQABo4HpMIHmMB0GA1Ud
DgQWBBShtvJpHZ1gPSADt9YZJq+Xn39WKjAfBgNVHSMEGDAWgBRFMqk3UPCgoY4C
64s0ZSgSP/tqGDA/BggrBgEFBQcBAQQzMDEwLwYIKwYBBQUHMAKGI2h0dHA6Ly91
cmwtZm9yLWFpYS9JbnRlcm1lZGlhdGUuY2VyMDQGA1UdHwQtMCswKaAnoCWGI2h0
dHA6Ly91cmwtZm9yLWNybC9JbnRlcm1lZGlhdGUuY3JsMA4GA1UdDwEB/wQEAwIF
oDAdBgNVHSUEFjAUBggrBgEFBQcDAQYIKwYBBQUHAwIwDQYJKoZIhvcNAQELBQAD
ggEBAIUuSLyWA4507XVwBA9wHFyccO3qS3kq6mF0AH7K09uF7eJHFwMRiywIhCQQ
StbPYXhw/ZUSsm6iN06niQSUm4iINd/A58Ip5LQa7dChI75CP9xqTydh92B01kvS
KTyTMNwyn2by4pBZr1nKSim1W1JzmoigiKXy8IJb6IaVRF06J0xd7MHqNDwZ7czd
Gw+ShxF8Jo1d7yL1An8929Z9y8rU5ovqxaKwehFQ7OtJdJCePPQTBnQGxX/9K01n
BohbUlhC2xYciEO6nlwVPmQk935ZRTd/UTuyQDuRiLqTwlJ6xraZoqX8m8rhDhOp
TuYus9AAGJKvNPYJPWa75Eqt1L8=
-----END CERTIFICATE-----

Certificate:
    Data:
        Version: 3 (0x2)
        Serial Number:
            7c:71:83:7d:9a:71:3e:fb:f4:b1:79:2c:b6:6c:11:29:14:74:0b:74
        Signature Algorithm: sha256WithRSAEncryption
        Issuer: CN=Root
        Validity
            Not Before: Nov  3 12:00:00 2020 GMT
            Not After : Nov  3 12:00:00 2021 GMT
        Subject: CN=Intermediate
        Subject Public Key Info:
            Public Key Algorithm: rsaEncryption
                RSA Public-Key: (2048 bit)
                Modulus:
                    00:d4:d2:58:5a:24:b9:9d:c4:07:62:ed:0a:24:09:
                    46:d4:97:a8:e1:e6:fa:c2:8d:ba:31:da:ea:95:6f:
                    ca:79:cc:10:08:cd:8e:5d:33:eb:04:40:94:7a:15:
                    94:71:fe:50:73:ea:a0:41:e6:bf:93:aa:7f:60:c2:
                    e6:55:1a:24:ce:b5:f9:5f:ad:f7:90:b5:49:1c:30:
                    45:ad:ed:12:d3:b0:9d:de:03:33:01:a6:c0:12:4e:
                    96:13:d7:9f:b0:69:67:b9:cf:d5:a9:ce:9d:7c:4e:
                    5f:0d:7b:d1:a4:65:93:12:22:42:e8:02:9f:18:0b:
                    03:af:1f:3c:b1:e0:ac:a7:a7:87:b1:22:c1:c9:fe:
                    1d:81:13:dd:e7:d9:21:68:86:6a:06:13:82:73:e5:
                    78:78:e0:99:76:75:38:68:73:cb:8b:33:25:53:72:
                    d1:58:f0:40:64:36:03:32:1d:72:c3:8c:ef:de:76:
                    07:df:9a:b7:b9:4c:10:94:fb:c8:7b:69:ba:d3:a9:
                    1a:21:8c:f7:c5:b3:b1:1b:72:44:10:8c:dd:c3:76:
                    36:e5:ce:a8:a0:29:1b:fa:47:0c:e3:89:f2:44:84:
                    cc:88:0f:48:09:c9:0e:1e:a9:ee:a7:55:ba:5a:6f:
                    78:66:d8:bd:4d:9c:d5:52:95:83:b1:80:b5:af:ce:
                    f5:73
                Exponent: 65537 (0x10001)
        X509v3 extensions:
            X509v3 Subject Key Identifier: 
                45:32:A9:37:50:F0:A0:A1:8E:02:EB:8B:34:65:28:12:3F:FB:6A:18
            X509v3 Authority Key Identifier: 
                keyid:E5:37:1E:E2:93:2C:94:BA:7F:8B:6E:2F:75:D5:0D:D8:0A:D2:96:12

            Authority Information Access: 
                CA Issuers - URI:http://url-for-aia/Root.cer

            X509v3 CRL Distribution Points: 

                Full Name:
                  URI:http://url-for-crl/Root.crl

            X509v3 Key Usage: critical
                Certificate Sign, CRL Sign
    Signature Algorithm: sha256WithRSAEncryption
         a8:b1:00:10:1f:61:ac:4e:e7:c3:cf:15:4e:80:91:a3:51:14:
         c8:c6:e3:2d:d5:c1:68:05:b8:95:cb:11:9f:4a:e6:81:49:cb:
         4f:c1:e5:50:4f:03:fe:29:d4:ad:f9:ed:aa:42:7a:52:15:4d:
         16:26:b2:a4:07:cc:07:9e:1a:fd:84:80:08:49:bc:92:bd:e0:
         a8:1c:2d:8b:24:c6:be:9d:2d:4a:4a:b8:69:68:1c:84:45:06:
         f7:be:c8:4f:39:56:25:92:3c:21:c1:5f:72:6f:b1:18:04:09:
         a9:20:89:18:2c:d3:83:f3:18:6a:67:34:e0:4e:a6:af:7c:62:
         04:bb:e9:85:c7:33:a1:31:67:f7:98:26:9d:b6:82:9f:b5:9d:
         62:f7:c3:2e:49:00:84:ff:43:16:32:78:c9:18:d6:39:f0:1a:
         c5:2a:69:1d:64:38:88:53:bf:be:1e:2d:20:21:a5:64:ad:6e:
         55:77:67:25:22:3d:6d:00:77:fd:6e:d2:43:f6:0d:f3:8d:8e:
         d0:36:59:c3:88:1e:af:86:0a:24:21:d3:32:99:b5:d1:21:80:
         fc:ad:8e:5d:7d:ee:a7:f9:43:42:e0:8d:d2:c7:db:2d:0d:56:
         96:49:55:13:02:c3:ad:50:58:07:37:32:f1:06:fe:59:99:5e:
         1c:18:ad:c1
-----BEGIN CERTIFICATE-----
MIIDbzCCAlegAwIBAgIUfHGDfZpxPvv0sXkstmwRKRR0C3QwDQYJKoZIhvcNAQEL
BQAwDzENMAsGA1UEAwwEUm9vdDAeFw0yMDExMDMxMjAwMDBaFw0yMTExMDMxMjAw
MDBaMBcxFTATBgNVBAMMDEludGVybWVkaWF0ZTCCASIwDQYJKoZIhvcNAQEBBQAD
ggEPADCCAQoCggEBANTSWFokuZ3EB2LtCiQJRtSXqOHm+sKNujHa6pVvynnMEAjN
jl0z6wRAlHoVlHH+UHPqoEHmv5Oqf2DC5lUaJM61+V+t95C1SRwwRa3tEtOwnd4D
MwGmwBJOlhPXn7BpZ7nP1anOnXxOXw170aRlkxIiQugCnxgLA68fPLHgrKenh7Ei
wcn+HYET3efZIWiGagYTgnPleHjgmXZ1OGhzy4szJVNy0VjwQGQ2AzIdcsOM7952
B9+at7lMEJT7yHtputOpGiGM98WzsRtyRBCM3cN2NuXOqKApG/pHDOOJ8kSEzIgP
SAnJDh6p7qdVulpveGbYvU2c1VKVg7GAta/O9XMCAwEAAaOBujCBtzAdBgNVHQ4E
FgQURTKpN1DwoKGOAuuLNGUoEj/7ahgwHwYDVR0jBBgwFoAU5Tce4pMslLp/i24v
ddUN2ArSlhIwNwYIKwYBBQUHAQEEKzApMCcGCCsGAQUFBzAChhtodHRwOi8vdXJs
LWZvci1haWEvUm9vdC5jZXIwLAYDVR0fBCUwIzAhoB+gHYYbaHR0cDovL3VybC1m
b3ItY3JsL1Jvb3QuY3JsMA4GA1UdDwEB/wQEAwIBBjANBgkqhkiG9w0BAQsFAAOC
AQEAqLEAEB9hrE7nw88VToCRo1EUyMbjLdXBaAW4lcsRn0rmgUnLT8HlUE8D/inU
rfntqkJ6UhVNFiaypAfMB54a/YSACEm8kr3gqBwtiyTGvp0tSkq4aWgchEUG977I
TzlWJZI8IcFfcm+xGAQJqSCJGCzTg/MYamc04E6mr3xiBLvphcczoTFn95gmnbaC
n7WdYvfDLkkAhP9DFjJ4yRjWOfAaxSppHWQ4iFO/vh4tICGlZK1uVXdnJSI9bQB3
/W7SQ/YN842O0DZZw4ger4YKJCHTMpm10SGA/K2OXX3up/lDQuCN0sfbLQ1WlklV
EwLDrVBYBzcy8Qb+WZleHBitwQ==
-----END CERTIFICATE-----

Certificate:
    Data:
        Version: 3 (0x2)
        Serial Number:
            7c:71:83:7d:9a:71:3e:fb:f4:b1:79:2c:b6:6c:11:29:14:74:0b:73
        Signature Algorithm: sha256WithRSAEncryption
        Issuer: CN=Root
        Validity
            Not Before: Nov  3 12:00:00 2020 GMT
            Not After : Nov  3 12:00:00 2021 GMT
        Subject: CN=Root
        Subject Public Key Info:
            Public Key Algorithm: rsaEncryption
                RSA Public-Key: (2048 bit)
                Modulus:
                    00:a9:f3:a8:48:50:46:fe:b1:fa:ee:af:1a:5c:c1:
                    f2:d0:e1:f9:d1:b4:8e:82:c7:91:d2:eb:1e:06:ba:
                    27:e5:3e:d5:ae:c7:1c:3f:a6:b9:48:05:c4:90:57:
                    23:ab:2a:01:cd:ca:7f:df:8c:b6:2e:6f:83:88:e9:
                    8e:f3:b0:e8:97:9a:91:cd:ad:d0:ef:fb:4b:d7:61:
                    bd:f1:5d:00:97:70:5b:95:1e:6d:3c:a7:03:2b:ec:
                    29:cc:b6:ed:b1:e2:9a:db:38:ce:73:02:19:3f:20:
                    03:70:cd:88:29:f9:ad:40:f7:16:0b:b4:93:9b:ac:
                    13:da:bb:39:e9:2f:2f:17:39:1a:27:47:75:cd:0a:
                    81:a2:e5:a8:58:e7:08:15:a3:33:86:0e:b9:ba:90:
                    23:3b:2a:2a:ed:04:d7:80:85:51:d8:dd:ba:d0:96:
                    34:ef:8c:21:19:ce:cd:0a:9e:fc:ab:3d:ed:69:d1:
                    4b:d2:2b:1f:77:5c:74:96:d7:25:ce:02:e0:49:ed:
                    18:ee:c4:37:d1:e5:f5:a2:5c:ae:c9:fe:2b:cd:68:
                    a6:a5:31:9a:76:5e:a2:10:be:aa:14:ca:57:c3:31:
                    ac:92:bd:9b:53:df:69:8f:e2:26:85:36:20:27:f5:
                    60:fb:66:6d:9b:a7:ec:f8:e4:1a:df:a2:38:ee:ef:
                    3c:d1
                Exponent: 65537 (0x10001)
        X509v3 extensions:
            X509v3 Subject Key Identifier: 
                E5:37:1E:E2:93:2C:94:BA:7F:8B:6E:2F:75:D5:0D:D8:0A:D2:96:12
            X509v3 Authority Key Identifier: 
                keyid:E5:37:1E:E2:93:2C:94:BA:7F:8B:6E:2F:75:D5:0D:D8:0A:D2:96:12

            Authority Information Access: 
                CA Issuers - URI:http://url-for-aia/Root.cer

            X509v3 CRL Distribution Points: 

                Full Name:
                  URI:http://url-for-crl/Root.crl

            X509v3 Key Usage: critical
                Certificate Sign, CRL Sign
            X509v3 Basic Constraints: critical
                CA:TRUE
    Signature Algorithm: sha256WithRSAEncryption
         15:bb:b7:7a:5b:67:15:1f:2b:c3:a4:44:a2:4a:5c:62:b3:6f:
         61:39:a5:70:9b:91:ff:6b:bc:78:83:3d:b5:ed:52:29:93:a3:
         5e:a8:a3:62:ed:24:25:87:7f:15:26:84:a2:5c:13:71:c8:2e:
         36:51:c5:e7:11:7b:35:05:68:ff:eb:a6:e6:ff:0a:7f:2a:a9:
         c4:0a:5f:a4:27:7c:86:ce:c9:b3:cb:f2:da:5a:a6:77:20:ef:
         b2:76:4d:39:29:4e:2d:6c:e1:2a:89:2f:b8:f0:02:f4:76:4a:
         0c:14:d2:93:a0:8a:f4:78:dc:0c:37:0f:35:9e:18:d4:64:fa:
         80:bc:25:a6:b5:bb:83:b9:1a:77:e8:de:ed:62:89:c6:07:64:
         1c:a9:f5:8f:65:26:db:8b:72:13:a2:8e:a7:c5:90:ec:a2:aa:
         53:15:cb:d3:6c:97:ba:6b:72:8e:f0:c5:dc:26:c8:9e:16:5f:
         2a:90:ca:92:3e:c7:40:86:12:5c:22:52:a7:d0:c8:ce:bc:ad:
         29:2f:c2:2f:5b:9a:45:14:71:3b:d6:92:88:4e:7e:00:90:07:
         6b:38:36:96:5b:73:ad:e1:f8:8b:57:16:4d:60:3d:68:d1:95:
         c5:10:e2:7c:b5:e9:7a:ea:30:0a:aa:20:b6:df:c8:45:4f:86:
         45:f3:a0:74
-----BEGIN CERTIFICATE-----
MIIDeDCCAmCgAwIBAgIUfHGDfZpxPvv0sXkstmwRKRR0C3MwDQYJKoZIhvcNAQEL
BQAwDzENMAsGA1UEAwwEUm9vdDAeFw0yMDExMDMxMjAwMDBaFw0yMTExMDMxMjAw
MDBaMA8xDTALBgNVBAMMBFJvb3QwggEiMA0GCSqGSIb3DQEBAQUAA4IBDwAwggEK
AoIBAQCp86hIUEb+sfrurxpcwfLQ4fnRtI6Cx5HS6x4GuiflPtWuxxw/prlIBcSQ
VyOrKgHNyn/fjLYub4OI6Y7zsOiXmpHNrdDv+0vXYb3xXQCXcFuVHm08pwMr7CnM
tu2x4prbOM5zAhk/IANwzYgp+a1A9xYLtJObrBPauznpLy8XORonR3XNCoGi5ahY
5wgVozOGDrm6kCM7KirtBNeAhVHY3brQljTvjCEZzs0KnvyrPe1p0UvSKx93XHSW
1yXOAuBJ7RjuxDfR5fWiXK7J/ivNaKalMZp2XqIQvqoUylfDMaySvZtT32mP4iaF
NiAn9WD7Zm2bp+z45Brfojju7zzRAgMBAAGjgcswgcgwHQYDVR0OBBYEFOU3HuKT
LJS6f4tuL3XVDdgK0pYSMB8GA1UdIwQYMBaAFOU3HuKTLJS6f4tuL3XVDdgK0pYS
MDcGCCsGAQUFBwEBBCswKTAnBggrBgEFBQcwAoYbaHR0cDovL3VybC1mb3ItYWlh
L1Jvb3QuY2VyMCwGA1UdHwQlMCMwIaAfoB2GG2h0dHA6Ly91cmwtZm9yLWNybC9S
b290LmNybDAOBgNVHQ8BAf8EBAMCAQYwDwYDVR0TAQH/BAUwAwEB/zANBgkqhkiG
9w0BAQsFAAOCAQEAFbu3eltnFR8rw6REokpcYrNvYTmlcJuR/2u8eIM9te1SKZOj
XqijYu0kJYd/FSaEolwTccguNlHF5xF7NQVo/+um5v8KfyqpxApfpCd8hs7Js8vy
2lqmdyDvsnZNOSlOLWzhKokvuPAC9HZKDBTSk6CK9HjcDDcPNZ4Y1GT6gLwlprW7
g7kad+je7WKJxgdkHKn1j2Um24tyE6KOp8WQ7KKqUxXL02yXumtyjvDF3CbInhZf
KpDKkj7HQIYSXCJSp9DIzrytKS/CL1uaRRRxO9aSiE5+AJAHazg2lltzreH4i1cW
TWA9aNGVxRDifLXpeuowCqogtt/IRU+GRfOgdA==
-----END CERTIFICATE-----
