EXPORTS
    ??$?0$$CBD$0A@@VoidPtr@str_format_internal@absl@@QAE@PBD@Z
    ??$?0$$CBU?$atomic@_N@__1@std@@@Condition@absl@@QAE@P6A_NPBU?$atomic@_N@__1@std@@@Z0@Z
    ??$?0$$CBUCordRep@cord_internal@absl@@@Hex@absl@@QAE@PBUCordRep@cord_internal@1@W4PadSpec@1@@Z
    ??$?0$$CBVFormatArgImpl@str_format_internal@absl@@$$CBV012@@?$Span@$$CBVFormatArgImpl@str_format_internal@absl@@@absl@@QAE@V?$initializer_list@VFormatArgImpl@str_format_internal@absl@@@std@@@Z
    ??$?0$$T@?$Storage@PAH$00$0A@@internal_compressed_tuple@container_internal@absl@@QAE@Uin_place_t@3@$$QA$$T@Z
    ??$?0$$T@?$Storage@PAPAUCordRep@cord_internal@absl@@$00$0A@@internal_compressed_tuple@container_internal@absl@@QAE@Uin_place_t@3@$$QA$$T@Z
    ??$?0$$T@?$Storage@PAPBUCordRep@cord_internal@absl@@$00$0A@@internal_compressed_tuple@container_internal@absl@@QAE@Uin_place_t@3@$$QA$$T@Z
    ??$?0$$T@?$Storage@PAUPayload@status_internal@absl@@$00$0A@@internal_compressed_tuple@container_internal@absl@@QAE@Uin_place_t@3@$$QA$$T@Z
    ??$?0$$T@?$Storage@PAUSubRange@absl@@$00$0A@@internal_compressed_tuple@container_internal@absl@@QAE@Uin_place_t@3@$$QA$$T@Z
    ??$?0$$TAAV?$allocator@PAPBVImpl@time_zone@cctz@time_internal@absl@@@__1@std@@@?$__compressed_pair@PAPAPBVImpl@time_zone@cctz@time_internal@absl@@AAV?$allocator@PAPBVImpl@time_zone@cctz@time_internal@absl@@@__1@std@@@__1@std@@QAE@$$QA$$TAAV?$allocator@PAPBVImpl@time_zone@cctz@time_internal@absl@@@12@@Z
    ??$?0$$TAAV?$allocator@PAUCordRep@cord_internal@absl@@@__1@std@@@?$__compressed_pair@PAPAUCordRep@cord_internal@absl@@AAV?$allocator@PAUCordRep@cord_internal@absl@@@__1@std@@@__1@std@@QAE@$$QA$$TAAV?$allocator@PAUCordRep@cord_internal@absl@@@12@@Z
    ??$?0$$TAAV?$allocator@PAVCordzHandle@cord_internal@absl@@@__1@std@@@?$__compressed_pair@PAPAVCordzHandle@cord_internal@absl@@AAV?$allocator@PAVCordzHandle@cord_internal@absl@@@__1@std@@@__1@std@@QAE@$$QA$$TAAV?$allocator@PAVCordzHandle@cord_internal@absl@@@12@@Z
    ??$?0$$TAAV?$allocator@PBVCordzHandle@cord_internal@absl@@@__1@std@@@?$__compressed_pair@PAPBVCordzHandle@cord_internal@absl@@AAV?$allocator@PBVCordzHandle@cord_internal@absl@@@__1@std@@@__1@std@@QAE@$$QA$$TAAV?$allocator@PBVCordzHandle@cord_internal@absl@@@12@@Z
    ??$?0$$TAAV?$allocator@UConversionItem@ParsedFormatBase@str_format_internal@absl@@@__1@std@@@?$__compressed_pair@PAUConversionItem@ParsedFormatBase@str_format_internal@absl@@AAV?$allocator@UConversionItem@ParsedFormatBase@str_format_internal@absl@@@__1@std@@@__1@std@@QAE@$$QA$$TAAV?$allocator@UConversionItem@ParsedFormatBase@str_format_internal@absl@@@12@@Z
    ??$?0$$TAAV?$allocator@UTransition@cctz@time_internal@absl@@@__1@std@@@?$__compressed_pair@PAUTransition@cctz@time_internal@absl@@AAV?$allocator@UTransition@cctz@time_internal@absl@@@__1@std@@@__1@std@@QAE@$$QA$$TAAV?$allocator@UTransition@cctz@time_internal@absl@@@12@@Z
    ??$?0$$TAAV?$allocator@UTransitionType@cctz@time_internal@absl@@@__1@std@@@?$__compressed_pair@PAUTransitionType@cctz@time_internal@absl@@AAV?$allocator@UTransitionType@cctz@time_internal@absl@@@__1@std@@@__1@std@@QAE@$$QA$$TAAV?$allocator@UTransitionType@cctz@time_internal@absl@@@12@@Z
    ??$?0$$TAAV?$allocator@UViableSubstitution@strings_internal@absl@@@__1@std@@@?$__compressed_pair@PAUViableSubstitution@strings_internal@absl@@AAV?$allocator@UViableSubstitution@strings_internal@absl@@@__1@std@@@__1@std@@QAE@$$QA$$TAAV?$allocator@UViableSubstitution@strings_internal@absl@@@12@@Z
    ??$?0$$TU__default_init_tag@__1@std@@@?$__compressed_pair@PAPAPBVImpl@time_zone@cctz@time_internal@absl@@V?$allocator@PAPBVImpl@time_zone@cctz@time_internal@absl@@@__1@std@@@__1@std@@QAE@$$QA$$T$$QAU__default_init_tag@12@@Z
    ??$?0$$TU__default_init_tag@__1@std@@@?$__compressed_pair@PAPAUCordRep@cord_internal@absl@@V?$allocator@PAUCordRep@cord_internal@absl@@@__1@std@@@__1@std@@QAE@$$QA$$T$$QAU__default_init_tag@12@@Z
    ??$?0$$TU__default_init_tag@__1@std@@@?$__compressed_pair@PAPAVCordzHandle@cord_internal@absl@@V?$allocator@PAVCordzHandle@cord_internal@absl@@@__1@std@@@__1@std@@QAE@$$QA$$T$$QAU__default_init_tag@12@@Z
    ??$?0$$TU__default_init_tag@__1@std@@@?$__compressed_pair@PAPBVCordzHandle@cord_internal@absl@@V?$allocator@PBVCordzHandle@cord_internal@absl@@@__1@std@@@__1@std@@QAE@$$QA$$T$$QAU__default_init_tag@12@@Z
    ??$?0$$TU__default_init_tag@__1@std@@@?$__compressed_pair@PAUConversionItem@ParsedFormatBase@str_format_internal@absl@@V?$allocator@UConversionItem@ParsedFormatBase@str_format_internal@absl@@@__1@std@@@__1@std@@QAE@$$QA$$T$$QAU__default_init_tag@12@@Z
    ??$?0$$TU__default_init_tag@__1@std@@@?$__compressed_pair@PAUTransition@cctz@time_internal@absl@@V?$allocator@UTransition@cctz@time_internal@absl@@@__1@std@@@__1@std@@QAE@$$QA$$T$$QAU__default_init_tag@12@@Z
    ??$?0$$TU__default_init_tag@__1@std@@@?$__compressed_pair@PAUTransitionType@cctz@time_internal@absl@@V?$allocator@UTransitionType@cctz@time_internal@absl@@@__1@std@@@__1@std@@QAE@$$QA$$T$$QAU__default_init_tag@12@@Z
    ??$?0$$TU__default_init_tag@__1@std@@@?$__compressed_pair@PAUViableSubstitution@strings_internal@absl@@V?$allocator@UViableSubstitution@strings_internal@absl@@@__1@std@@@__1@std@@QAE@$$QA$$T$$QAU__default_init_tag@12@@Z
    ??$?0$$TU__default_init_tag@__1@std@@@?$__compressed_pair@PAVFormatArgImpl@str_format_internal@absl@@V?$allocator@VFormatArgImpl@str_format_internal@absl@@@__1@std@@@__1@std@@QAE@$$QA$$T$$QAU__default_init_tag@12@@Z
    ??$?0$$TX@?$__compressed_pair_elem@PAPAPBVImpl@time_zone@cctz@time_internal@absl@@$0A@$0A@@__1@std@@QAE@$$QA$$T@Z
    ??$?0$$TX@?$__compressed_pair_elem@PAPAUCordRep@cord_internal@absl@@$0A@$0A@@__1@std@@QAE@$$QA$$T@Z
    ??$?0$$TX@?$__compressed_pair_elem@PAPAVCordzHandle@cord_internal@absl@@$0A@$0A@@__1@std@@QAE@$$QA$$T@Z
    ??$?0$$TX@?$__compressed_pair_elem@PAPBVCordzHandle@cord_internal@absl@@$0A@$0A@@__1@std@@QAE@$$QA$$T@Z
    ??$?0$$TX@?$__compressed_pair_elem@PAUConversionItem@ParsedFormatBase@str_format_internal@absl@@$0A@$0A@@__1@std@@QAE@$$QA$$T@Z
    ??$?0$$TX@?$__compressed_pair_elem@PAUTransition@cctz@time_internal@absl@@$0A@$0A@@__1@std@@QAE@$$QA$$T@Z
    ??$?0$$TX@?$__compressed_pair_elem@PAUTransitionType@cctz@time_internal@absl@@$0A@$0A@@__1@std@@QAE@$$QA$$T@Z
    ??$?0$$TX@?$__compressed_pair_elem@PAUViableSubstitution@strings_internal@absl@@$0A@$0A@@__1@std@@QAE@$$QA$$T@Z
    ??$?0$$TX@?$__compressed_pair_elem@PAVFormatArgImpl@str_format_internal@absl@@$0A@$0A@@__1@std@@QAE@$$QA$$T@Z
    ??$?0$$V@?$__temp_value@UTransition@cctz@time_internal@absl@@V?$allocator@UTransition@cctz@time_internal@absl@@@__1@std@@@__1@std@@QAE@AAV?$allocator@UTransition@cctz@time_internal@absl@@@12@@Z
    ??$?0$$V@?$__temp_value@UTransitionType@cctz@time_internal@absl@@V?$allocator@UTransitionType@cctz@time_internal@absl@@@__1@std@@@__1@std@@QAE@AAV?$allocator@UTransitionType@cctz@time_internal@absl@@@12@@Z
    ??$?0$00X@?$__compressed_pair@U?$__hash_node_base@PAU?$__hash_node@U?$__hash_value_type@V?$basic_string@DU?$char_traits@D@__1@std@@V?$allocator@D@23@@__1@std@@PBVImpl@time_zone@cctz@time_internal@absl@@@__1@std@@PAX@__1@std@@@__1@std@@V?$allocator@U?$__hash_node@U?$__hash_value_type@V?$basic_string@DU?$char_traits@D@__1@std@@V?$allocator@D@23@@__1@std@@PBVImpl@time_zone@cctz@time_internal@absl@@@__1@std@@PAX@__1@std@@@23@@__1@std@@QAE@XZ
    ??$?0$00X@?$unique_ptr@$$BY0A@PAU?$__hash_node_base@PAU?$__hash_node@U?$__hash_value_type@V?$basic_string@DU?$char_traits@D@__1@std@@V?$allocator@D@23@@__1@std@@PBVImpl@time_zone@cctz@time_internal@absl@@@__1@std@@PAX@__1@std@@@__1@std@@V?$__bucket_list_deallocator@V?$allocator@PAU?$__hash_node_base@PAU?$__hash_node@U?$__hash_value_type@V?$basic_string@DU?$char_traits@D@__1@std@@V?$allocator@D@23@@__1@std@@PBVImpl@time_zone@cctz@time_internal@absl@@@__1@std@@PAX@__1@std@@@__1@std@@@__1@std@@@23@@__1@std@@QAE@XZ
    ??$?0$00X@?$unique_ptr@$$CBVImpl@time_zone@cctz@time_internal@absl@@U?$default_delete@$$CBVImpl@time_zone@cctz@time_internal@absl@@@__1@std@@@__1@std@@QAE@PBVImpl@time_zone@cctz@time_internal@absl@@@Z
    ??$?0$00X@?$unique_ptr@PAPBVImpl@time_zone@cctz@time_internal@absl@@V?$__allocator_destructor@V?$allocator@PBVImpl@time_zone@cctz@time_internal@absl@@@__1@std@@@__1@std@@@__1@std@@QAE@PAPBVImpl@time_zone@cctz@time_internal@absl@@$$QAV?$__allocator_destructor@V?$allocator@PBVImpl@time_zone@cctz@time_internal@absl@@@__1@std@@@12@@Z
    ??$?0$00X@?$unique_ptr@U?$__hash_node@U?$__hash_value_type@V?$basic_string@DU?$char_traits@D@__1@std@@V?$allocator@D@23@@__1@std@@PBVImpl@time_zone@cctz@time_internal@absl@@@__1@std@@PAX@__1@std@@V?$__hash_node_destructor@V?$allocator@U?$__hash_node@U?$__hash_value_type@V?$basic_string@DU?$char_traits@D@__1@std@@V?$allocator@D@23@@__1@std@@PBVImpl@time_zone@cctz@time_internal@absl@@@__1@std@@PAX@__1@std@@@__1@std@@@23@@__1@std@@QAE@PAU?$__hash_node@U?$__hash_value_type@V?$basic_string@DU?$char_traits@D@__1@std@@V?$allocator@D@23@@__1@std@@PBVImpl@time_zone@cctz@time_internal@absl@@@__1@std@@PAX@12@$$QAV?$__hash_node_destructor@V?$allocator@U?$__hash_node@U?$__hash_value_type@V?$basic_string@DU?$char_traits@D@__1@std@@V?$allocator@D@23@@__1@std@@PBVImpl@time_zone@cctz@time_internal@absl@@@__1@std@@PAX@__1@std@@@__1@std@@@12@@Z
    ??$?0$00X@?$unique_ptr@UThreadIdentity@base_internal@absl@@P6AXPAX@Z@__1@std@@QAE@PAUThreadIdentity@base_internal@absl@@ABQ6AXPAX@Z@Z
    ??$?0$00X@?$unique_ptr@V?$InlinedVector@UPayload@status_internal@absl@@$00V?$allocator@UPayload@status_internal@absl@@@__1@std@@@absl@@U?$default_delete@V?$InlinedVector@UPayload@status_internal@absl@@$00V?$allocator@UPayload@status_internal@absl@@@__1@std@@@absl@@@__1@std@@@__1@std@@QAE@$$T@Z
    ??$?0$00X@?$unique_ptr@V?$InlinedVector@UPayload@status_internal@absl@@$00V?$allocator@UPayload@status_internal@absl@@@__1@std@@@absl@@U?$default_delete@V?$InlinedVector@UPayload@status_internal@absl@@$00V?$allocator@UPayload@status_internal@absl@@@__1@std@@@absl@@@__1@std@@@__1@std@@QAE@PAV?$InlinedVector@UPayload@status_internal@absl@@$00V?$allocator@UPayload@status_internal@absl@@@__1@std@@@absl@@@Z
    ??$?0$00X@?$unique_ptr@V?$InlinedVector@UPayload@status_internal@absl@@$00V?$allocator@UPayload@status_internal@absl@@@__1@std@@@absl@@U?$default_delete@V?$InlinedVector@UPayload@status_internal@absl@@$00V?$allocator@UPayload@status_internal@absl@@@__1@std@@@absl@@@__1@std@@@__1@std@@QAE@XZ
    ??$?0$00X@?$unique_ptr@VTimeZoneIf@cctz@time_internal@absl@@U?$default_delete@VTimeZoneIf@cctz@time_internal@absl@@@__1@std@@@__1@std@@QAE@PAVTimeZoneIf@cctz@time_internal@absl@@@Z
    ??$?0$00X@?$unique_ptr@VTimeZoneInfo@cctz@time_internal@absl@@U?$default_delete@VTimeZoneInfo@cctz@time_internal@absl@@@__1@std@@@__1@std@@QAE@PAVTimeZoneInfo@cctz@time_internal@absl@@@Z
    ??$?0$00X@?$unique_ptr@VZoneInfoSource@cctz@time_internal@absl@@U?$default_delete@VZoneInfoSource@cctz@time_internal@absl@@@__1@std@@@__1@std@@QAE@$$T@Z
    ??$?0$00X@?$unique_ptr@VZoneInfoSource@cctz@time_internal@absl@@U?$default_delete@VZoneInfoSource@cctz@time_internal@absl@@@__1@std@@@__1@std@@QAE@PAVZoneInfoSource@cctz@time_internal@absl@@@Z
    ??$?0AAI@?$Storage@I$0A@$0A@@internal_compressed_tuple@container_internal@absl@@QAE@Uin_place_t@3@AAI@Z
    ??$?0AAIABV?$allocator@PAUCordRep@cord_internal@absl@@@__1@std@@$00@?$CompressedTuple@IV?$allocator@PAUCordRep@cord_internal@absl@@@__1@std@@@container_internal@absl@@QAE@AAIABV?$allocator@PAUCordRep@cord_internal@absl@@@__1@std@@@Z
    ??$?0AAIABV?$allocator@PAUCordRep@cord_internal@absl@@@__1@std@@@?$CompressedTupleImpl@V?$CompressedTuple@IV?$allocator@PAUCordRep@cord_internal@absl@@@__1@std@@@container_internal@absl@@U?$integer_sequence@I$0A@$00@3@$00@internal_compressed_tuple@container_internal@absl@@QAE@Uin_place_t@3@AAIABV?$allocator@PAUCordRep@cord_internal@absl@@@__1@std@@@Z
    ??$?0AAPAPBVImpl@time_zone@cctz@time_internal@absl@@V?$__allocator_destructor@V?$allocator@PBVImpl@time_zone@cctz@time_internal@absl@@@__1@std@@@__1@std@@@?$__compressed_pair@PAPBVImpl@time_zone@cctz@time_internal@absl@@V?$__allocator_destructor@V?$allocator@PBVImpl@time_zone@cctz@time_internal@absl@@@__1@std@@@__1@std@@@__1@std@@QAE@AAPAPBVImpl@time_zone@cctz@time_internal@absl@@$$QAV?$__allocator_destructor@V?$allocator@PBVImpl@time_zone@cctz@time_internal@absl@@@__1@std@@@12@@Z
    ??$?0AAPAPBVImpl@time_zone@cctz@time_internal@absl@@X@?$__compressed_pair_elem@PAPBVImpl@time_zone@cctz@time_internal@absl@@$0A@$0A@@__1@std@@QAE@AAPAPBVImpl@time_zone@cctz@time_internal@absl@@@Z
    ??$?0AAPAU?$__hash_node@U?$__hash_value_type@V?$basic_string@DU?$char_traits@D@__1@std@@V?$allocator@D@23@@__1@std@@PBVImpl@time_zone@cctz@time_internal@absl@@@__1@std@@PAX@__1@std@@V?$__hash_node_destructor@V?$allocator@U?$__hash_node@U?$__hash_value_type@V?$basic_string@DU?$char_traits@D@__1@std@@V?$allocator@D@23@@__1@std@@PBVImpl@time_zone@cctz@time_internal@absl@@@__1@std@@PAX@__1@std@@@__1@std@@@12@@?$__compressed_pair@PAU?$__hash_node@U?$__hash_value_type@V?$basic_string@DU?$char_traits@D@__1@std@@V?$allocator@D@23@@__1@std@@PBVImpl@time_zone@cctz@time_internal@absl@@@__1@std@@PAX@__1@std@@V?$__hash_node_destructor@V?$allocator@U?$__hash_node@U?$__hash_value_type@V?$basic_string@DU?$char_traits@D@__1@std@@V?$allocator@D@23@@__1@std@@PBVImpl@time_zone@cctz@time_internal@absl@@@__1@std@@PAX@__1@std@@@__1@std@@@23@@__1@std@@QAE@AAPAU?$__hash_node@U?$__hash_value_type@V?$basic_string@DU?$char_traits@D@__1@std@@V?$allocator@D@23@@__1@std@@PBVImpl@time_zone@cctz@time_internal@absl@@@__1@std@@PAX@12@$$QAV?$__hash_node_destructor@V?$allocator@U?$__hash_node@U?$__hash_value_type@V?$basic_string@DU?$char_traits@D@__1@std@@V?$allocator@D@23@@__1@std@@PBVImpl@time_zone@cctz@time_internal@absl@@@__1@std@@PAX@__1@std@@@__1@std@@@12@@Z
    ??$?0AAPAU?$__hash_node@U?$__hash_value_type@V?$basic_string@DU?$char_traits@D@__1@std@@V?$allocator@D@23@@__1@std@@PBVImpl@time_zone@cctz@time_internal@absl@@@__1@std@@PAX@__1@std@@X@?$__compressed_pair_elem@PAU?$__hash_node@U?$__hash_value_type@V?$basic_string@DU?$char_traits@D@__1@std@@V?$allocator@D@23@@__1@std@@PBVImpl@time_zone@cctz@time_internal@absl@@@__1@std@@PAX@__1@std@@$0A@$0A@@__1@std@@QAE@AAPAU?$__hash_node@U?$__hash_value_type@V?$basic_string@DU?$char_traits@D@__1@std@@V?$allocator@D@23@@__1@std@@PBVImpl@time_zone@cctz@time_internal@absl@@@__1@std@@PAX@12@@Z
    ??$?0AAPAUThreadIdentity@base_internal@absl@@ABQ6AXPAX@Z@?$__compressed_pair@PAUThreadIdentity@base_internal@absl@@P6AXPAX@Z@__1@std@@QAE@AAPAUThreadIdentity@base_internal@absl@@ABQ6AXPAX@Z@Z
    ??$?0AAPAUThreadIdentity@base_internal@absl@@X@?$__compressed_pair_elem@PAUThreadIdentity@base_internal@absl@@$0A@$0A@@__1@std@@QAE@AAPAUThreadIdentity@base_internal@absl@@@Z
    ??$?0AAPAV?$InlinedVector@UPayload@status_internal@absl@@$00V?$allocator@UPayload@status_internal@absl@@@__1@std@@@absl@@U__default_init_tag@__1@std@@@?$__compressed_pair@PAV?$InlinedVector@UPayload@status_internal@absl@@$00V?$allocator@UPayload@status_internal@absl@@@__1@std@@@absl@@U?$default_delete@V?$InlinedVector@UPayload@status_internal@absl@@$00V?$allocator@UPayload@status_internal@absl@@@__1@std@@@absl@@@__1@std@@@__1@std@@QAE@AAPAV?$InlinedVector@UPayload@status_internal@absl@@$00V?$allocator@UPayload@status_internal@absl@@@__1@std@@@absl@@$$QAU__default_init_tag@12@@Z
    ??$?0AAPAV?$InlinedVector@UPayload@status_internal@absl@@$00V?$allocator@UPayload@status_internal@absl@@@__1@std@@@absl@@X@?$__compressed_pair_elem@PAV?$InlinedVector@UPayload@status_internal@absl@@$00V?$allocator@UPayload@status_internal@absl@@@__1@std@@@absl@@$0A@$0A@@__1@std@@QAE@AAPAV?$InlinedVector@UPayload@status_internal@absl@@$00V?$allocator@UPayload@status_internal@absl@@@__1@std@@@absl@@@Z
    ??$?0AAPAVTimeZoneIf@cctz@time_internal@absl@@U__default_init_tag@__1@std@@@?$__compressed_pair@PAVTimeZoneIf@cctz@time_internal@absl@@U?$default_delete@VTimeZoneIf@cctz@time_internal@absl@@@__1@std@@@__1@std@@QAE@AAPAVTimeZoneIf@cctz@time_internal@absl@@$$QAU__default_init_tag@12@@Z
    ??$?0AAPAVTimeZoneIf@cctz@time_internal@absl@@X@?$__compressed_pair_elem@PAVTimeZoneIf@cctz@time_internal@absl@@$0A@$0A@@__1@std@@QAE@AAPAVTimeZoneIf@cctz@time_internal@absl@@@Z
    ??$?0AAPAVTimeZoneInfo@cctz@time_internal@absl@@U__default_init_tag@__1@std@@@?$__compressed_pair@PAVTimeZoneInfo@cctz@time_internal@absl@@U?$default_delete@VTimeZoneInfo@cctz@time_internal@absl@@@__1@std@@@__1@std@@QAE@AAPAVTimeZoneInfo@cctz@time_internal@absl@@$$QAU__default_init_tag@12@@Z
    ??$?0AAPAVTimeZoneInfo@cctz@time_internal@absl@@X@?$__compressed_pair_elem@PAVTimeZoneInfo@cctz@time_internal@absl@@$0A@$0A@@__1@std@@QAE@AAPAVTimeZoneInfo@cctz@time_internal@absl@@@Z
    ??$?0AAPAVZoneInfoSource@cctz@time_internal@absl@@U__default_init_tag@__1@std@@@?$__compressed_pair@PAVZoneInfoSource@cctz@time_internal@absl@@U?$default_delete@VZoneInfoSource@cctz@time_internal@absl@@@__1@std@@@__1@std@@QAE@AAPAVZoneInfoSource@cctz@time_internal@absl@@$$QAU__default_init_tag@12@@Z
    ??$?0AAPAVZoneInfoSource@cctz@time_internal@absl@@X@?$__compressed_pair_elem@PAVZoneInfoSource@cctz@time_internal@absl@@$0A@$0A@@__1@std@@QAE@AAPAVZoneInfoSource@cctz@time_internal@absl@@@Z
    ??$?0AAPBVImpl@time_zone@cctz@time_internal@absl@@U__default_init_tag@__1@std@@@?$__compressed_pair@PBVImpl@time_zone@cctz@time_internal@absl@@U?$default_delete@$$CBVImpl@time_zone@cctz@time_internal@absl@@@__1@std@@@__1@std@@QAE@AAPBVImpl@time_zone@cctz@time_internal@absl@@$$QAU__default_init_tag@12@@Z
    ??$?0AAPBVImpl@time_zone@cctz@time_internal@absl@@X@?$__compressed_pair_elem@PBVImpl@time_zone@cctz@time_internal@absl@@$0A@$0A@@__1@std@@QAE@AAPBVImpl@time_zone@cctz@time_internal@absl@@@Z
    ??$?0AAV?$allocator@H@__1@std@@$$T$00@?$CompressedTuple@V?$allocator@H@__1@std@@PAH@container_internal@absl@@QAE@AAV?$allocator@H@__1@std@@$$QA$$T@Z
    ??$?0AAV?$allocator@H@__1@std@@$$T@?$CompressedTupleImpl@V?$CompressedTuple@V?$allocator@H@__1@std@@PAH@container_internal@absl@@U?$integer_sequence@I$0A@$00@3@$00@internal_compressed_tuple@container_internal@absl@@QAE@Uin_place_t@3@AAV?$allocator@H@__1@std@@$$QA$$T@Z
    ??$?0AAV?$allocator@H@__1@std@@@?$Storage@V?$allocator@H@__1@std@@$0A@$00@internal_compressed_tuple@container_internal@absl@@QAE@Uin_place_t@3@AAV?$allocator@H@__1@std@@@Z
    ??$?0AAV?$allocator@PAPBVImpl@time_zone@cctz@time_internal@absl@@@__1@std@@X@?$__compressed_pair_elem@AAV?$allocator@PAPBVImpl@time_zone@cctz@time_internal@absl@@@__1@std@@$00$0A@@__1@std@@QAE@AAV?$allocator@PAPBVImpl@time_zone@cctz@time_internal@absl@@@12@@Z
    ??$?0AAV?$allocator@PAUCordRep@cord_internal@absl@@@__1@std@@$$T$00@?$CompressedTuple@V?$allocator@PAUCordRep@cord_internal@absl@@@__1@std@@PAPAUCordRep@cord_internal@absl@@@container_internal@absl@@QAE@AAV?$allocator@PAUCordRep@cord_internal@absl@@@__1@std@@$$QA$$T@Z
    ??$?0AAV?$allocator@PAUCordRep@cord_internal@absl@@@__1@std@@$$T@?$CompressedTupleImpl@V?$CompressedTuple@V?$allocator@PAUCordRep@cord_internal@absl@@@__1@std@@PAPAUCordRep@cord_internal@absl@@@container_internal@absl@@U?$integer_sequence@I$0A@$00@3@$00@internal_compressed_tuple@container_internal@absl@@QAE@Uin_place_t@3@AAV?$allocator@PAUCordRep@cord_internal@absl@@@__1@std@@$$QA$$T@Z
    ??$?0AAV?$allocator@PAUCordRep@cord_internal@absl@@@__1@std@@@?$Storage@V?$allocator@PAUCordRep@cord_internal@absl@@@__1@std@@$0A@$00@internal_compressed_tuple@container_internal@absl@@QAE@Uin_place_t@3@AAV?$allocator@PAUCordRep@cord_internal@absl@@@__1@std@@@Z
    ??$?0AAV?$allocator@PAUCordRep@cord_internal@absl@@@__1@std@@X@?$__compressed_pair_elem@AAV?$allocator@PAUCordRep@cord_internal@absl@@@__1@std@@$00$0A@@__1@std@@QAE@AAV?$allocator@PAUCordRep@cord_internal@absl@@@12@@Z
    ??$?0AAV?$allocator@PAVCordzHandle@cord_internal@absl@@@__1@std@@X@?$__compressed_pair_elem@AAV?$allocator@PAVCordzHandle@cord_internal@absl@@@__1@std@@$00$0A@@__1@std@@QAE@AAV?$allocator@PAVCordzHandle@cord_internal@absl@@@12@@Z
    ??$?0AAV?$allocator@PBUCordRep@cord_internal@absl@@@__1@std@@$$T$00@?$CompressedTuple@V?$allocator@PBUCordRep@cord_internal@absl@@@__1@std@@PAPBUCordRep@cord_internal@absl@@@container_internal@absl@@QAE@AAV?$allocator@PBUCordRep@cord_internal@absl@@@__1@std@@$$QA$$T@Z
    ??$?0AAV?$allocator@PBUCordRep@cord_internal@absl@@@__1@std@@$$T@?$CompressedTupleImpl@V?$CompressedTuple@V?$allocator@PBUCordRep@cord_internal@absl@@@__1@std@@PAPBUCordRep@cord_internal@absl@@@container_internal@absl@@U?$integer_sequence@I$0A@$00@3@$00@internal_compressed_tuple@container_internal@absl@@QAE@Uin_place_t@3@AAV?$allocator@PBUCordRep@cord_internal@absl@@@__1@std@@$$QA$$T@Z
    ??$?0AAV?$allocator@PBUCordRep@cord_internal@absl@@@__1@std@@@?$Storage@V?$allocator@PBUCordRep@cord_internal@absl@@@__1@std@@$0A@$00@internal_compressed_tuple@container_internal@absl@@QAE@Uin_place_t@3@AAV?$allocator@PBUCordRep@cord_internal@absl@@@__1@std@@@Z
    ??$?0AAV?$allocator@PBVCordzHandle@cord_internal@absl@@@__1@std@@X@?$__compressed_pair_elem@AAV?$allocator@PBVCordzHandle@cord_internal@absl@@@__1@std@@$00$0A@@__1@std@@QAE@AAV?$allocator@PBVCordzHandle@cord_internal@absl@@@12@@Z
    ??$?0AAV?$allocator@UConversionItem@ParsedFormatBase@str_format_internal@absl@@@__1@std@@X@?$__compressed_pair_elem@AAV?$allocator@UConversionItem@ParsedFormatBase@str_format_internal@absl@@@__1@std@@$00$0A@@__1@std@@QAE@AAV?$allocator@UConversionItem@ParsedFormatBase@str_format_internal@absl@@@12@@Z
    ??$?0AAV?$allocator@UPayload@status_internal@absl@@@__1@std@@$$T$00@?$CompressedTuple@V?$allocator@UPayload@status_internal@absl@@@__1@std@@PAUPayload@status_internal@absl@@@container_internal@absl@@QAE@AAV?$allocator@UPayload@status_internal@absl@@@__1@std@@$$QA$$T@Z
    ??$?0AAV?$allocator@UPayload@status_internal@absl@@@__1@std@@$$T@?$CompressedTupleImpl@V?$CompressedTuple@V?$allocator@UPayload@status_internal@absl@@@__1@std@@PAUPayload@status_internal@absl@@@container_internal@absl@@U?$integer_sequence@I$0A@$00@3@$00@internal_compressed_tuple@container_internal@absl@@QAE@Uin_place_t@3@AAV?$allocator@UPayload@status_internal@absl@@@__1@std@@$$QA$$T@Z
    ??$?0AAV?$allocator@UPayload@status_internal@absl@@@__1@std@@@?$Storage@V?$allocator@UPayload@status_internal@absl@@@__1@std@@$0A@$00@internal_compressed_tuple@container_internal@absl@@QAE@Uin_place_t@3@AAV?$allocator@UPayload@status_internal@absl@@@__1@std@@@Z
    ??$?0AAV?$allocator@USubRange@absl@@@__1@std@@$$T$00@?$CompressedTuple@V?$allocator@USubRange@absl@@@__1@std@@PAUSubRange@absl@@@container_internal@absl@@QAE@AAV?$allocator@USubRange@absl@@@__1@std@@$$QA$$T@Z
    ??$?0AAV?$allocator@USubRange@absl@@@__1@std@@$$T@?$CompressedTupleImpl@V?$CompressedTuple@V?$allocator@USubRange@absl@@@__1@std@@PAUSubRange@absl@@@container_internal@absl@@U?$integer_sequence@I$0A@$00@3@$00@internal_compressed_tuple@container_internal@absl@@QAE@Uin_place_t@3@AAV?$allocator@USubRange@absl@@@__1@std@@$$QA$$T@Z
    ??$?0AAV?$allocator@USubRange@absl@@@__1@std@@@?$Storage@V?$allocator@USubRange@absl@@@__1@std@@$0A@$00@internal_compressed_tuple@container_internal@absl@@QAE@Uin_place_t@3@AAV?$allocator@USubRange@absl@@@__1@std@@@Z
    ??$?0AAV?$allocator@UTransition@cctz@time_internal@absl@@@__1@std@@X@?$__compressed_pair_elem@AAV?$allocator@UTransition@cctz@time_internal@absl@@@__1@std@@$00$0A@@__1@std@@QAE@AAV?$allocator@UTransition@cctz@time_internal@absl@@@12@@Z
    ??$?0AAV?$allocator@UTransitionType@cctz@time_internal@absl@@@__1@std@@X@?$__compressed_pair_elem@AAV?$allocator@UTransitionType@cctz@time_internal@absl@@@__1@std@@$00$0A@@__1@std@@QAE@AAV?$allocator@UTransitionType@cctz@time_internal@absl@@@12@@Z
    ??$?0AAV?$allocator@UViableSubstitution@strings_internal@absl@@@__1@std@@X@?$__compressed_pair_elem@AAV?$allocator@UViableSubstitution@strings_internal@absl@@@__1@std@@$00$0A@@__1@std@@QAE@AAV?$allocator@UViableSubstitution@strings_internal@absl@@@12@@Z
    ??$?0ABV?$allocator@PAUCordRep@cord_internal@absl@@@__1@std@@@?$Storage@V?$allocator@PAUCordRep@cord_internal@absl@@@__1@std@@$00$00@internal_compressed_tuple@container_internal@absl@@QAE@Uin_place_t@3@ABV?$allocator@PAUCordRep@cord_internal@absl@@@__1@std@@@Z
    ??$?0ABV?$allocator@PAUCordRep@cord_internal@absl@@@__1@std@@@?$Storage@V?$allocator@PAUCordRep@cord_internal@absl@@@__1@std@@$0A@$00@internal_compressed_tuple@container_internal@absl@@QAE@Uin_place_t@3@ABV?$allocator@PAUCordRep@cord_internal@absl@@@__1@std@@@Z
    ??$?0ABV?$allocator@PAUCordRep@cord_internal@absl@@@__1@std@@H$00@?$CompressedTuple@V?$allocator@PAUCordRep@cord_internal@absl@@@__1@std@@I@container_internal@absl@@QAE@ABV?$allocator@PAUCordRep@cord_internal@absl@@@__1@std@@$$QAH@Z
    ??$?0ABV?$allocator@PAUCordRep@cord_internal@absl@@@__1@std@@H@?$CompressedTupleImpl@V?$CompressedTuple@V?$allocator@PAUCordRep@cord_internal@absl@@@__1@std@@I@container_internal@absl@@U?$integer_sequence@I$0A@$00@3@$00@internal_compressed_tuple@container_internal@absl@@QAE@Uin_place_t@3@ABV?$allocator@PAUCordRep@cord_internal@absl@@@__1@std@@$$QAH@Z
    ??$?0ABV?$allocator@UPayload@status_internal@absl@@@__1@std@@@?$Storage@V?$allocator@UPayload@status_internal@absl@@@__1@std@@$0A@$00@internal_compressed_tuple@container_internal@absl@@QAE@Uin_place_t@3@ABV?$allocator@UPayload@status_internal@absl@@@__1@std@@@Z
    ??$?0ABV?$allocator@UPayload@status_internal@absl@@@__1@std@@H$00@?$CompressedTuple@V?$allocator@UPayload@status_internal@absl@@@__1@std@@I@container_internal@absl@@QAE@ABV?$allocator@UPayload@status_internal@absl@@@__1@std@@$$QAH@Z
    ??$?0ABV?$allocator@UPayload@status_internal@absl@@@__1@std@@H@?$CompressedTupleImpl@V?$CompressedTuple@V?$allocator@UPayload@status_internal@absl@@@__1@std@@I@container_internal@absl@@U?$integer_sequence@I$0A@$00@3@$00@internal_compressed_tuple@container_internal@absl@@QAE@Uin_place_t@3@ABV?$allocator@UPayload@status_internal@absl@@@__1@std@@$$QAH@Z
    ??$?0ABV?$basic_string@DU?$char_traits@D@__1@std@@V?$allocator@D@23@@__1@std@@$$Z$$V$$Z$0A@$$Z$S@?$pair@$$CBV?$basic_string@DU?$char_traits@D@__1@std@@V?$allocator@D@23@@__1@std@@PBVImpl@time_zone@cctz@time_internal@absl@@@__1@std@@AAE@Upiecewise_construct_t@12@AAV?$tuple@ABV?$basic_string@DU?$char_traits@D@__1@std@@V?$allocator@D@23@@__1@std@@@12@AAV?$tuple@$$V@12@U?$__tuple_indices@$0A@@12@U?$__tuple_indices@$S@12@@Z
    ??$?0ABV?$basic_string@DU?$char_traits@D@__1@std@@V?$allocator@D@23@@__1@std@@$$Z$$V@?$pair@$$CBV?$basic_string@DU?$char_traits@D@__1@std@@V?$allocator@D@23@@__1@std@@PBVImpl@time_zone@cctz@time_internal@absl@@@__1@std@@QAE@Upiecewise_construct_t@12@V?$tuple@ABV?$basic_string@DU?$char_traits@D@__1@std@@V?$allocator@D@23@@__1@std@@@12@V?$tuple@$$V@12@@Z
    ??$?0ABVCord@absl@@$0A@@?$optional@VCord@absl@@@absl@@QAE@ABVCord@1@@Z
    ??$?0ABVCord@absl@@@?$optional_data_dtor_base@VCord@absl@@$0A@@optional_internal@absl@@IAE@Uin_place_t@2@ABVCord@2@@Z
    ??$?0H@?$Storage@I$00$0A@@internal_compressed_tuple@container_internal@absl@@QAE@Uin_place_t@3@$$QAH@Z
    ??$?0H@FormatArgImpl@str_format_internal@absl@@QAE@ABH@Z
    ??$?0HU__default_init_tag@__1@std@@@?$__compressed_pair@IV?$__unordered_map_hasher@V?$basic_string@DU?$char_traits@D@__1@std@@V?$allocator@D@23@@__1@std@@U?$__hash_value_type@V?$basic_string@DU?$char_traits@D@__1@std@@V?$allocator@D@23@@__1@std@@PBVImpl@time_zone@cctz@time_internal@absl@@@23@U?$hash@V?$basic_string@DU?$char_traits@D@__1@std@@V?$allocator@D@23@@__1@std@@@23@U?$equal_to@V?$basic_string@DU?$char_traits@D@__1@std@@V?$allocator@D@23@@__1@std@@@23@$00@__1@std@@@__1@std@@QAE@$$QAH$$QAU__default_init_tag@12@@Z
    ??$?0HU__default_init_tag@__1@std@@@?$__compressed_pair@IV?$allocator@PAU?$__hash_node_base@PAU?$__hash_node@U?$__hash_value_type@V?$basic_string@DU?$char_traits@D@__1@std@@V?$allocator@D@23@@__1@std@@PBVImpl@time_zone@cctz@time_internal@absl@@@__1@std@@PAX@__1@std@@@__1@std@@@__1@std@@@__1@std@@QAE@$$QAH$$QAU__default_init_tag@12@@Z
    ??$?0HU__default_init_tag@__1@std@@@?$__compressed_pair@IV?$allocator@PBVImpl@time_zone@cctz@time_internal@absl@@@__1@std@@@__1@std@@QAE@$$QAH$$QAU__default_init_tag@12@@Z
    ??$?0MU__default_init_tag@__1@std@@@?$__compressed_pair@MV?$__unordered_map_equal@V?$basic_string@DU?$char_traits@D@__1@std@@V?$allocator@D@23@@__1@std@@U?$__hash_value_type@V?$basic_string@DU?$char_traits@D@__1@std@@V?$allocator@D@23@@__1@std@@PBVImpl@time_zone@cctz@time_internal@absl@@@23@U?$equal_to@V?$basic_string@DU?$char_traits@D@__1@std@@V?$allocator@D@23@@__1@std@@@23@U?$hash@V?$basic_string@DU?$char_traits@D@__1@std@@V?$allocator@D@23@@__1@std@@@23@$00@__1@std@@@__1@std@@QAE@$$QAM$$QAU__default_init_tag@12@@Z
    ??$?0PAPAU?$__hash_node_base@PAU?$__hash_node@U?$__hash_value_type@V?$basic_string@DU?$char_traits@D@__1@std@@V?$allocator@D@23@@__1@std@@PBVImpl@time_zone@cctz@time_internal@absl@@@__1@std@@PAX@__1@std@@@__1@std@@U__default_init_tag@12@@?$__compressed_pair@PAPAU?$__hash_node_base@PAU?$__hash_node@U?$__hash_value_type@V?$basic_string@DU?$char_traits@D@__1@std@@V?$allocator@D@23@@__1@std@@PBVImpl@time_zone@cctz@time_internal@absl@@@__1@std@@PAX@__1@std@@@__1@std@@V?$__bucket_list_deallocator@V?$allocator@PAU?$__hash_node_base@PAU?$__hash_node@U?$__hash_value_type@V?$basic_string@DU?$char_traits@D@__1@std@@V?$allocator@D@23@@__1@std@@PBVImpl@time_zone@cctz@time_internal@absl@@@__1@std@@PAX@__1@std@@@__1@std@@@__1@std@@@23@@__1@std@@QAE@$$QAPAPAU?$__hash_node_base@PAU?$__hash_node@U?$__hash_value_type@V?$basic_string@DU?$char_traits@D@__1@std@@V?$allocator@D@23@@__1@std@@PBVImpl@time_zone@cctz@time_internal@absl@@@__1@std@@PAX@__1@std@@@12@$$QAU__default_init_tag@12@@Z
    ??$?0PAPAU?$__hash_node_base@PAU?$__hash_node@U?$__hash_value_type@V?$basic_string@DU?$char_traits@D@__1@std@@V?$allocator@D@23@@__1@std@@PBVImpl@time_zone@cctz@time_internal@absl@@@__1@std@@PAX@__1@std@@@__1@std@@X@?$__compressed_pair_elem@PAPAU?$__hash_node_base@PAU?$__hash_node@U?$__hash_value_type@V?$basic_string@DU?$char_traits@D@__1@std@@V?$allocator@D@23@@__1@std@@PBVImpl@time_zone@cctz@time_internal@absl@@@__1@std@@PAX@__1@std@@@__1@std@@$0A@$0A@@__1@std@@QAE@$$QAPAPAU?$__hash_node_base@PAU?$__hash_node@U?$__hash_value_type@V?$basic_string@DU?$char_traits@D@__1@std@@V?$allocator@D@23@@__1@std@@PBVImpl@time_zone@cctz@time_internal@absl@@@__1@std@@PAX@__1@std@@@12@@Z
    ??$?0PAUTransition@cctz@time_internal@absl@@@?$__wrap_iter@PBUTransition@cctz@time_internal@absl@@@__1@std@@QAE@ABV?$__wrap_iter@PAUTransition@cctz@time_internal@absl@@@12@PAX@Z
    ??$?0PAUTransitionType@cctz@time_internal@absl@@@?$__wrap_iter@PBUTransitionType@cctz@time_internal@absl@@@__1@std@@QAE@ABV?$__wrap_iter@PAUTransitionType@cctz@time_internal@absl@@@12@PAX@Z
    ??$?0PAV?$InlinedVector@UPayload@status_internal@absl@@$00V?$allocator@UPayload@status_internal@absl@@@__1@std@@@absl@@U?$default_delete@V?$InlinedVector@UPayload@status_internal@absl@@$00V?$allocator@UPayload@status_internal@absl@@@__1@std@@@absl@@@__1@std@@@?$__compressed_pair@PAV?$InlinedVector@UPayload@status_internal@absl@@$00V?$allocator@UPayload@status_internal@absl@@@__1@std@@@absl@@U?$default_delete@V?$InlinedVector@UPayload@status_internal@absl@@$00V?$allocator@UPayload@status_internal@absl@@@__1@std@@@absl@@@__1@std@@@__1@std@@QAE@$$QAPAV?$InlinedVector@UPayload@status_internal@absl@@$00V?$allocator@UPayload@status_internal@absl@@@__1@std@@@absl@@$$QAU?$default_delete@V?$InlinedVector@UPayload@status_internal@absl@@$00V?$allocator@UPayload@status_internal@absl@@@__1@std@@@absl@@@12@@Z
    ??$?0PAV?$InlinedVector@UPayload@status_internal@absl@@$00V?$allocator@UPayload@status_internal@absl@@@__1@std@@@absl@@U__default_init_tag@__1@std@@@?$__compressed_pair@PAV?$InlinedVector@UPayload@status_internal@absl@@$00V?$allocator@UPayload@status_internal@absl@@@__1@std@@@absl@@U?$default_delete@V?$InlinedVector@UPayload@status_internal@absl@@$00V?$allocator@UPayload@status_internal@absl@@@__1@std@@@absl@@@__1@std@@@__1@std@@QAE@$$QAPAV?$InlinedVector@UPayload@status_internal@absl@@$00V?$allocator@UPayload@status_internal@absl@@@__1@std@@@absl@@$$QAU__default_init_tag@12@@Z
    ??$?0PAV?$InlinedVector@UPayload@status_internal@absl@@$00V?$allocator@UPayload@status_internal@absl@@@__1@std@@@absl@@X@?$__compressed_pair_elem@PAV?$InlinedVector@UPayload@status_internal@absl@@$00V?$allocator@UPayload@status_internal@absl@@@__1@std@@@absl@@$0A@$0A@@__1@std@@QAE@$$QAPAV?$InlinedVector@UPayload@status_internal@absl@@$00V?$allocator@UPayload@status_internal@absl@@@__1@std@@@absl@@@Z
    ??$?0PAVZoneInfoSource@cctz@time_internal@absl@@U__default_init_tag@__1@std@@@?$__compressed_pair@PAVZoneInfoSource@cctz@time_internal@absl@@U?$default_delete@VZoneInfoSource@cctz@time_internal@absl@@@__1@std@@@__1@std@@QAE@$$QAPAVZoneInfoSource@cctz@time_internal@absl@@$$QAU__default_init_tag@12@@Z
    ??$?0PAVZoneInfoSource@cctz@time_internal@absl@@X@?$__compressed_pair_elem@PAVZoneInfoSource@cctz@time_internal@absl@@$0A@$0A@@__1@std@@QAE@$$QAPAVZoneInfoSource@cctz@time_internal@absl@@@Z
    ??$?0U?$default_delete@V?$InlinedVector@UPayload@status_internal@absl@@$00V?$allocator@UPayload@status_internal@absl@@@__1@std@@@absl@@@__1@std@@X@?$__compressed_pair_elem@U?$default_delete@V?$InlinedVector@UPayload@status_internal@absl@@$00V?$allocator@UPayload@status_internal@absl@@@__1@std@@@absl@@@__1@std@@$00$00@__1@std@@QAE@$$QAU?$default_delete@V?$InlinedVector@UPayload@status_internal@absl@@$00V?$allocator@UPayload@status_internal@absl@@@__1@std@@@absl@@@12@@Z
    ??$?0USynchEvent@absl@@@Condition@absl@@QAE@P6A_NPAUSynchEvent@1@@Z0@Z
    ??$?0Uday_tag@detail@cctz@time_internal@absl@@@?$civil_time@Umonth_tag@detail@cctz@time_internal@absl@@@detail@cctz@time_internal@absl@@QAE@ABV?$civil_time@Uday_tag@detail@cctz@time_internal@absl@@@1234@PAX@Z
    ??$?0Uday_tag@detail@cctz@time_internal@absl@@@?$civil_time@Usecond_tag@detail@cctz@time_internal@absl@@@detail@cctz@time_internal@absl@@QAE@ABV?$civil_time@Uday_tag@detail@cctz@time_internal@absl@@@1234@PAX@Z
    ??$?0Uday_tag@detail@cctz@time_internal@absl@@@?$civil_time@Uyear_tag@detail@cctz@time_internal@absl@@@detail@cctz@time_internal@absl@@QAE@ABV?$civil_time@Uday_tag@detail@cctz@time_internal@absl@@@1234@PAX@Z
    ??$?0Uday_tag@time_internal@absl@@@?$civil_time@Uhour_tag@time_internal@absl@@@detail@cctz@time_internal@absl@@QAE@ABV?$civil_time@Uday_tag@time_internal@absl@@@1234@PAX@Z
    ??$?0Uday_tag@time_internal@absl@@@?$civil_time@Uminute_tag@time_internal@absl@@@detail@cctz@time_internal@absl@@QAE@ABV?$civil_time@Uday_tag@time_internal@absl@@@1234@PAX@Z
    ??$?0Uday_tag@time_internal@absl@@@?$civil_time@Umonth_tag@time_internal@absl@@@detail@cctz@time_internal@absl@@QAE@ABV?$civil_time@Uday_tag@time_internal@absl@@@1234@PAX@Z
    ??$?0Uday_tag@time_internal@absl@@@?$civil_time@Usecond_tag@time_internal@absl@@@detail@cctz@time_internal@absl@@QAE@ABV?$civil_time@Uday_tag@time_internal@absl@@@1234@PAX@Z
    ??$?0Uday_tag@time_internal@absl@@@?$civil_time@Uyear_tag@time_internal@absl@@@detail@cctz@time_internal@absl@@QAE@ABV?$civil_time@Uday_tag@time_internal@absl@@@1234@PAX@Z
    ??$?0Uhour_tag@detail@cctz@time_internal@absl@@@?$civil_time@Uday_tag@detail@cctz@time_internal@absl@@@detail@cctz@time_internal@absl@@QAE@ABV?$civil_time@Uhour_tag@detail@cctz@time_internal@absl@@@1234@PAX@Z
    ??$?0Uhour_tag@time_internal@absl@@@?$civil_time@Uday_tag@time_internal@absl@@@detail@cctz@time_internal@absl@@QAE@ABV?$civil_time@Uhour_tag@time_internal@absl@@@1234@PAX@Z
    ??$?0Uhour_tag@time_internal@absl@@@?$civil_time@Uminute_tag@time_internal@absl@@@detail@cctz@time_internal@absl@@QAE@ABV?$civil_time@Uhour_tag@time_internal@absl@@@1234@PAX@Z
    ??$?0Uhour_tag@time_internal@absl@@@?$civil_time@Umonth_tag@time_internal@absl@@@detail@cctz@time_internal@absl@@QAE@ABV?$civil_time@Uhour_tag@time_internal@absl@@@1234@PAX@Z
    ??$?0Uhour_tag@time_internal@absl@@@?$civil_time@Usecond_tag@time_internal@absl@@@detail@cctz@time_internal@absl@@QAE@ABV?$civil_time@Uhour_tag@time_internal@absl@@@1234@PAX@Z
    ??$?0Uhour_tag@time_internal@absl@@@?$civil_time@Uyear_tag@time_internal@absl@@@detail@cctz@time_internal@absl@@QAE@ABV?$civil_time@Uhour_tag@time_internal@absl@@@1234@PAX@Z
    ??$?0Uminute_tag@detail@cctz@time_internal@absl@@@?$civil_time@Uhour_tag@detail@cctz@time_internal@absl@@@detail@cctz@time_internal@absl@@QAE@ABV?$civil_time@Uminute_tag@detail@cctz@time_internal@absl@@@1234@PAX@Z
    ??$?0Uminute_tag@time_internal@absl@@@?$civil_time@Uday_tag@time_internal@absl@@@detail@cctz@time_internal@absl@@QAE@ABV?$civil_time@Uminute_tag@time_internal@absl@@@1234@PAX@Z
    ??$?0Uminute_tag@time_internal@absl@@@?$civil_time@Uhour_tag@time_internal@absl@@@detail@cctz@time_internal@absl@@QAE@ABV?$civil_time@Uminute_tag@time_internal@absl@@@1234@PAX@Z
    ??$?0Uminute_tag@time_internal@absl@@@?$civil_time@Umonth_tag@time_internal@absl@@@detail@cctz@time_internal@absl@@QAE@ABV?$civil_time@Uminute_tag@time_internal@absl@@@1234@PAX@Z
    ??$?0Uminute_tag@time_internal@absl@@@?$civil_time@Usecond_tag@time_internal@absl@@@detail@cctz@time_internal@absl@@QAE@ABV?$civil_time@Uminute_tag@time_internal@absl@@@1234@PAX@Z
    ??$?0Uminute_tag@time_internal@absl@@@?$civil_time@Uyear_tag@time_internal@absl@@@detail@cctz@time_internal@absl@@QAE@ABV?$civil_time@Uminute_tag@time_internal@absl@@@1234@PAX@Z
    ??$?0Umonth_tag@detail@cctz@time_internal@absl@@@?$civil_time@Uyear_tag@detail@cctz@time_internal@absl@@@detail@cctz@time_internal@absl@@QAE@ABV?$civil_time@Umonth_tag@detail@cctz@time_internal@absl@@@1234@PAX@Z
    ??$?0Umonth_tag@time_internal@absl@@@?$civil_time@Uday_tag@time_internal@absl@@@detail@cctz@time_internal@absl@@QAE@ABV?$civil_time@Umonth_tag@time_internal@absl@@@1234@PAX@Z
    ??$?0Umonth_tag@time_internal@absl@@@?$civil_time@Uhour_tag@time_internal@absl@@@detail@cctz@time_internal@absl@@QAE@ABV?$civil_time@Umonth_tag@time_internal@absl@@@1234@PAX@Z
    ??$?0Umonth_tag@time_internal@absl@@@?$civil_time@Uminute_tag@time_internal@absl@@@detail@cctz@time_internal@absl@@QAE@ABV?$civil_time@Umonth_tag@time_internal@absl@@@1234@PAX@Z
    ??$?0Umonth_tag@time_internal@absl@@@?$civil_time@Usecond_tag@time_internal@absl@@@detail@cctz@time_internal@absl@@QAE@ABV?$civil_time@Umonth_tag@time_internal@absl@@@1234@PAX@Z
    ??$?0Umonth_tag@time_internal@absl@@@?$civil_time@Uyear_tag@time_internal@absl@@@detail@cctz@time_internal@absl@@QAE@ABV?$civil_time@Umonth_tag@time_internal@absl@@@1234@PAX@Z
    ??$?0Usecond_tag@detail@cctz@time_internal@absl@@@?$civil_time@Uday_tag@detail@cctz@time_internal@absl@@@detail@cctz@time_internal@absl@@QAE@ABV?$civil_time@Usecond_tag@detail@cctz@time_internal@absl@@@1234@PAX@Z
    ??$?0Usecond_tag@detail@cctz@time_internal@absl@@@?$civil_time@Uminute_tag@detail@cctz@time_internal@absl@@@detail@cctz@time_internal@absl@@QAE@ABV?$civil_time@Usecond_tag@detail@cctz@time_internal@absl@@@1234@PAX@Z
    ??$?0Usecond_tag@detail@cctz@time_internal@absl@@@?$civil_time@Usecond_tag@time_internal@absl@@@detail@cctz@time_internal@absl@@QAE@ABV?$civil_time@Usecond_tag@detail@cctz@time_internal@absl@@@1234@PAX@Z
    ??$?0Usecond_tag@time_internal@absl@@@?$civil_time@Uday_tag@time_internal@absl@@@detail@cctz@time_internal@absl@@QAE@ABV?$civil_time@Usecond_tag@time_internal@absl@@@1234@PAX@Z
    ??$?0Usecond_tag@time_internal@absl@@@?$civil_time@Uhour_tag@time_internal@absl@@@detail@cctz@time_internal@absl@@QAE@ABV?$civil_time@Usecond_tag@time_internal@absl@@@1234@PAX@Z
    ??$?0Usecond_tag@time_internal@absl@@@?$civil_time@Uminute_tag@time_internal@absl@@@detail@cctz@time_internal@absl@@QAE@ABV?$civil_time@Usecond_tag@time_internal@absl@@@1234@PAX@Z
    ??$?0Usecond_tag@time_internal@absl@@@?$civil_time@Umonth_tag@time_internal@absl@@@detail@cctz@time_internal@absl@@QAE@ABV?$civil_time@Usecond_tag@time_internal@absl@@@1234@PAX@Z
    ??$?0Usecond_tag@time_internal@absl@@@?$civil_time@Usecond_tag@detail@cctz@time_internal@absl@@@detail@cctz@time_internal@absl@@QAE@ABV?$civil_time@Usecond_tag@time_internal@absl@@@1234@PAX@Z
    ??$?0Usecond_tag@time_internal@absl@@@?$civil_time@Uyear_tag@time_internal@absl@@@detail@cctz@time_internal@absl@@QAE@ABV?$civil_time@Usecond_tag@time_internal@absl@@@1234@PAX@Z
    ??$?0Uyear_tag@detail@cctz@time_internal@absl@@@?$civil_time@Uday_tag@detail@cctz@time_internal@absl@@@detail@cctz@time_internal@absl@@QAE@ABV?$civil_time@Uyear_tag@detail@cctz@time_internal@absl@@@1234@PAX@Z
    ??$?0Uyear_tag@time_internal@absl@@@?$civil_time@Uday_tag@time_internal@absl@@@detail@cctz@time_internal@absl@@QAE@ABV?$civil_time@Uyear_tag@time_internal@absl@@@1234@PAX@Z
    ??$?0Uyear_tag@time_internal@absl@@@?$civil_time@Uhour_tag@time_internal@absl@@@detail@cctz@time_internal@absl@@QAE@ABV?$civil_time@Uyear_tag@time_internal@absl@@@1234@PAX@Z
    ??$?0Uyear_tag@time_internal@absl@@@?$civil_time@Uminute_tag@time_internal@absl@@@detail@cctz@time_internal@absl@@QAE@ABV?$civil_time@Uyear_tag@time_internal@absl@@@1234@PAX@Z
    ??$?0Uyear_tag@time_internal@absl@@@?$civil_time@Umonth_tag@time_internal@absl@@@detail@cctz@time_internal@absl@@QAE@ABV?$civil_time@Uyear_tag@time_internal@absl@@@1234@PAX@Z
    ??$?0Uyear_tag@time_internal@absl@@@?$civil_time@Usecond_tag@time_internal@absl@@@detail@cctz@time_internal@absl@@QAE@ABV?$civil_time@Uyear_tag@time_internal@absl@@@1234@PAX@Z
    ??$?0V?$Span@I@absl@@XV01@@?$Span@I@absl@@QAE@AAV01@@Z
    ??$?0V?$Span@VFormatArgImpl@str_format_internal@absl@@@absl@@XV01@@?$Span@$$CBVFormatArgImpl@str_format_internal@absl@@@absl@@QAE@ABV?$Span@VFormatArgImpl@str_format_internal@absl@@@1@@Z
    ??$?0V?$__allocator_destructor@V?$allocator@PBVImpl@time_zone@cctz@time_internal@absl@@@__1@std@@@__1@std@@X@?$__compressed_pair_elem@V?$__allocator_destructor@V?$allocator@PBVImpl@time_zone@cctz@time_internal@absl@@@__1@std@@@__1@std@@$00$0A@@__1@std@@QAE@$$QAV?$__allocator_destructor@V?$allocator@PBVImpl@time_zone@cctz@time_internal@absl@@@__1@std@@@12@@Z
    ??$?0V?$__hash_iterator@PAU?$__hash_node@U?$__hash_value_type@V?$basic_string@DU?$char_traits@D@__1@std@@V?$allocator@D@23@@__1@std@@PBVImpl@time_zone@cctz@time_internal@absl@@@__1@std@@PAX@__1@std@@@__1@std@@AA_N$0A@@?$pair@V?$__hash_iterator@PAU?$__hash_node@U?$__hash_value_type@V?$basic_string@DU?$char_traits@D@__1@std@@V?$allocator@D@23@@__1@std@@PBVImpl@time_zone@cctz@time_internal@absl@@@__1@std@@PAX@__1@std@@@__1@std@@_N@__1@std@@QAE@$$QAV?$__hash_iterator@PAU?$__hash_node@U?$__hash_value_type@V?$basic_string@DU?$char_traits@D@__1@std@@V?$allocator@D@23@@__1@std@@PBVImpl@time_zone@cctz@time_internal@absl@@@__1@std@@PAX@__1@std@@@12@AA_N@Z
    ??$?0V?$__hash_node_destructor@V?$allocator@U?$__hash_node@U?$__hash_value_type@V?$basic_string@DU?$char_traits@D@__1@std@@V?$allocator@D@23@@__1@std@@PBVImpl@time_zone@cctz@time_internal@absl@@@__1@std@@PAX@__1@std@@@__1@std@@@__1@std@@X@?$__compressed_pair_elem@V?$__hash_node_destructor@V?$allocator@U?$__hash_node@U?$__hash_value_type@V?$basic_string@DU?$char_traits@D@__1@std@@V?$allocator@D@23@@__1@std@@PBVImpl@time_zone@cctz@time_internal@absl@@@__1@std@@PAX@__1@std@@@__1@std@@@__1@std@@$00$0A@@__1@std@@QAE@$$QAV?$__hash_node_destructor@V?$allocator@U?$__hash_node@U?$__hash_value_type@V?$basic_string@DU?$char_traits@D@__1@std@@V?$allocator@D@23@@__1@std@@PBVImpl@time_zone@cctz@time_internal@absl@@@__1@std@@PAX@__1@std@@@__1@std@@@12@@Z
    ??$?0V?$allocator@D@__1@std@@@AlphaNum@absl@@QAE@ABV?$basic_string@DU?$char_traits@D@__1@std@@V?$allocator@D@23@@__1@std@@@Z
    ??$?0V?$allocator@D@__1@std@@@string_view@absl@@QAE@ABV?$basic_string@DU?$char_traits@D@__1@std@@V?$allocator@D@23@@__1@std@@@Z
    ??$?0V?$allocator@H@__1@std@@@?$Storage@V?$allocator@H@__1@std@@$0A@$00@internal_compressed_tuple@container_internal@absl@@QAE@Uin_place_t@3@$$QAV?$allocator@H@__1@std@@@Z
    ??$?0V?$allocator@H@__1@std@@H$00@?$CompressedTuple@V?$allocator@H@__1@std@@I@container_internal@absl@@QAE@$$QAV?$allocator@H@__1@std@@$$QAH@Z
    ??$?0V?$allocator@H@__1@std@@H@?$CompressedTupleImpl@V?$CompressedTuple@V?$allocator@H@__1@std@@I@container_internal@absl@@U?$integer_sequence@I$0A@$00@3@$00@internal_compressed_tuple@container_internal@absl@@QAE@Uin_place_t@3@$$QAV?$allocator@H@__1@std@@$$QAH@Z
    ??$?0V?$allocator@PAUCordRep@cord_internal@absl@@@__1@std@@@?$Storage@V?$allocator@PAUCordRep@cord_internal@absl@@@__1@std@@$0A@$00@internal_compressed_tuple@container_internal@absl@@QAE@Uin_place_t@3@$$QAV?$allocator@PAUCordRep@cord_internal@absl@@@__1@std@@@Z
    ??$?0V?$allocator@PAUCordRep@cord_internal@absl@@@__1@std@@H$00@?$CompressedTuple@V?$allocator@PAUCordRep@cord_internal@absl@@@__1@std@@I@container_internal@absl@@QAE@$$QAV?$allocator@PAUCordRep@cord_internal@absl@@@__1@std@@$$QAH@Z
    ??$?0V?$allocator@PAUCordRep@cord_internal@absl@@@__1@std@@H@?$CompressedTupleImpl@V?$CompressedTuple@V?$allocator@PAUCordRep@cord_internal@absl@@@__1@std@@I@container_internal@absl@@U?$integer_sequence@I$0A@$00@3@$00@internal_compressed_tuple@container_internal@absl@@QAE@Uin_place_t@3@$$QAV?$allocator@PAUCordRep@cord_internal@absl@@@__1@std@@$$QAH@Z
    ??$?0V?$allocator@PBUCordRep@cord_internal@absl@@@__1@std@@@?$Storage@V?$allocator@PBUCordRep@cord_internal@absl@@@__1@std@@$0A@$00@internal_compressed_tuple@container_internal@absl@@QAE@Uin_place_t@3@$$QAV?$allocator@PBUCordRep@cord_internal@absl@@@__1@std@@@Z
    ??$?0V?$allocator@PBUCordRep@cord_internal@absl@@@__1@std@@H$00@?$CompressedTuple@V?$allocator@PBUCordRep@cord_internal@absl@@@__1@std@@I@container_internal@absl@@QAE@$$QAV?$allocator@PBUCordRep@cord_internal@absl@@@__1@std@@$$QAH@Z
    ??$?0V?$allocator@PBUCordRep@cord_internal@absl@@@__1@std@@H@?$CompressedTupleImpl@V?$CompressedTuple@V?$allocator@PBUCordRep@cord_internal@absl@@@__1@std@@I@container_internal@absl@@U?$integer_sequence@I$0A@$00@3@$00@internal_compressed_tuple@container_internal@absl@@QAE@Uin_place_t@3@$$QAV?$allocator@PBUCordRep@cord_internal@absl@@@__1@std@@$$QAH@Z
    ??$?0V?$allocator@UPayload@status_internal@absl@@@__1@std@@@?$Storage@V?$allocator@UPayload@status_internal@absl@@@__1@std@@$0A@$00@internal_compressed_tuple@container_internal@absl@@QAE@Uin_place_t@3@$$QAV?$allocator@UPayload@status_internal@absl@@@__1@std@@@Z
    ??$?0V?$allocator@UPayload@status_internal@absl@@@__1@std@@H$00@?$CompressedTuple@V?$allocator@UPayload@status_internal@absl@@@__1@std@@I@container_internal@absl@@QAE@$$QAV?$allocator@UPayload@status_internal@absl@@@__1@std@@$$QAH@Z
    ??$?0V?$allocator@UPayload@status_internal@absl@@@__1@std@@H@?$CompressedTupleImpl@V?$CompressedTuple@V?$allocator@UPayload@status_internal@absl@@@__1@std@@I@container_internal@absl@@U?$integer_sequence@I$0A@$00@3@$00@internal_compressed_tuple@container_internal@absl@@QAE@Uin_place_t@3@$$QAV?$allocator@UPayload@status_internal@absl@@@__1@std@@$$QAH@Z
    ??$?0V?$allocator@USubRange@absl@@@__1@std@@@?$Storage@V?$allocator@USubRange@absl@@@__1@std@@$0A@$00@internal_compressed_tuple@container_internal@absl@@QAE@Uin_place_t@3@$$QAV?$allocator@USubRange@absl@@@__1@std@@@Z
    ??$?0V?$allocator@USubRange@absl@@@__1@std@@H$00@?$CompressedTuple@V?$allocator@USubRange@absl@@@__1@std@@I@container_internal@absl@@QAE@$$QAV?$allocator@USubRange@absl@@@__1@std@@$$QAH@Z
    ??$?0V?$allocator@USubRange@absl@@@__1@std@@H@?$CompressedTupleImpl@V?$CompressedTuple@V?$allocator@USubRange@absl@@@__1@std@@I@container_internal@absl@@U?$integer_sequence@I$0A@$00@3@$00@internal_compressed_tuple@container_internal@absl@@QAE@Uin_place_t@3@$$QAV?$allocator@USubRange@absl@@@__1@std@@$$QAH@Z
    ??$?0V?$basic_ostream@DU?$char_traits@D@__1@std@@@__1@std@@$0A@@FormatRawSinkImpl@str_format_internal@absl@@QAE@PAV?$basic_ostream@DU?$char_traits@D@__1@std@@@__1@std@@@Z
    ??$?0V?$basic_string@DU?$char_traits@D@__1@std@@V?$allocator@D@23@@__1@std@@$0A@@Cord@absl@@QAE@$$QAV?$basic_string@DU?$char_traits@D@__1@std@@V?$allocator@D@23@@__1@std@@@Z
    ??$?0V?$basic_string@DU?$char_traits@D@__1@std@@V?$allocator@D@23@@__1@std@@$0A@@FormatRawSinkImpl@str_format_internal@absl@@QAE@PAV?$basic_string@DU?$char_traits@D@__1@std@@V?$allocator@D@23@@__1@std@@@Z
    ??$?0V?$vector@VFormatArgImpl@str_format_internal@absl@@V?$allocator@VFormatArgImpl@str_format_internal@absl@@@__1@std@@@__1@std@@XV012@@?$Span@$$CBVFormatArgImpl@str_format_internal@absl@@@absl@@QAE@ABV?$vector@VFormatArgImpl@str_format_internal@absl@@V?$allocator@VFormatArgImpl@str_format_internal@absl@@@__1@std@@@__1@std@@@Z
    ??$?0VBufferRawSink@str_format_internal@absl@@$0A@@FormatRawSinkImpl@str_format_internal@absl@@QAE@PAVBufferRawSink@12@@Z
    ??$?0VFILERawSink@str_format_internal@absl@@$0A@@FormatRawSinkImpl@str_format_internal@absl@@QAE@PAVFILERawSink@12@@Z
    ??$?8PAPAVCordzHandle@cord_internal@absl@@PAPAV012@@__1@std@@YA_NABV?$__wrap_iter@PAPAVCordzHandle@cord_internal@absl@@@01@0@Z
    ??$?8PAUTransitionType@cctz@time_internal@absl@@PAU0123@@__1@std@@YA_NABV?$__wrap_iter@PAUTransitionType@cctz@time_internal@absl@@@01@0@Z
    ??$?8PBUConversionItem@ParsedFormatBase@str_format_internal@absl@@PBU0123@@__1@std@@YA_NABV?$__wrap_iter@PBUConversionItem@ParsedFormatBase@str_format_internal@absl@@@01@0@Z
    ??$?9PAPAVCordzHandle@cord_internal@absl@@@__1@std@@YA_NABV?$__wrap_iter@PAPAVCordzHandle@cord_internal@absl@@@01@0@Z
    ??$?9PAUTransitionType@cctz@time_internal@absl@@@__1@std@@YA_NABV?$__wrap_iter@PAUTransitionType@cctz@time_internal@absl@@@01@0@Z
    ??$?9PBUConversionItem@ParsedFormatBase@str_format_internal@absl@@@__1@std@@YA_NABV?$__wrap_iter@PBUConversionItem@ParsedFormatBase@str_format_internal@absl@@@01@0@Z
    ??$?9VZoneInfoSource@cctz@time_internal@absl@@U?$default_delete@VZoneInfoSource@cctz@time_internal@absl@@@__1@std@@@__1@std@@YA_NABV?$unique_ptr@VZoneInfoSource@cctz@time_internal@absl@@U?$default_delete@VZoneInfoSource@cctz@time_internal@absl@@@__1@std@@@01@$$T@Z
    ??$?BV?$allocator@D@__1@std@@@string_view@absl@@QBE?AV?$basic_string@DU?$char_traits@D@__1@std@@V?$allocator@D@23@@__1@std@@XZ
    ??$?DH@absl@@YA?AVDuration@0@HV10@@Z
    ??$?DN@absl@@YA?AVDuration@0@NV10@@Z
    ??$?D_J@absl@@YA?AVDuration@0@_JV10@@Z
    ??$?GPAPAPBVImpl@time_zone@cctz@time_internal@absl@@PAPAPBV01234@@__1@std@@YAHABV?$move_iterator@PAPAPBVImpl@time_zone@cctz@time_internal@absl@@@01@0@Z
    ??$?GPAUTransition@cctz@time_internal@absl@@PAU0123@@__1@std@@YAHABV?$move_iterator@PAUTransition@cctz@time_internal@absl@@@01@0@Z
    ??$?GPAUTransitionType@cctz@time_internal@absl@@PAU0123@@__1@std@@YAHABV?$move_iterator@PAUTransitionType@cctz@time_internal@absl@@@01@0@Z
    ??$?GPBUTransition@cctz@time_internal@absl@@PAU0123@@__1@std@@YAHABV?$__wrap_iter@PBUTransition@cctz@time_internal@absl@@@01@ABV?$__wrap_iter@PAUTransition@cctz@time_internal@absl@@@01@@Z
    ??$?GPBUTransitionType@cctz@time_internal@absl@@PAU0123@@__1@std@@YAHABV?$__wrap_iter@PBUTransitionType@cctz@time_internal@absl@@@01@ABV?$__wrap_iter@PAUTransitionType@cctz@time_internal@absl@@@01@@Z
    ??$?K_J@absl@@YA?AVDuration@0@V10@_J@Z
    ??$?MUsecond_tag@detail@cctz@time_internal@absl@@U01234@@detail@cctz@time_internal@absl@@YA_NABV?$civil_time@Usecond_tag@detail@cctz@time_internal@absl@@@0123@0@Z
    ??$?NUsecond_tag@detail@cctz@time_internal@absl@@U01234@@detail@cctz@time_internal@absl@@YA_NABV?$civil_time@Usecond_tag@detail@cctz@time_internal@absl@@@0123@0@Z
    ??$?OUsecond_tag@detail@cctz@time_internal@absl@@U01234@@detail@cctz@time_internal@absl@@YA_NABV?$civil_time@Usecond_tag@detail@cctz@time_internal@absl@@@0123@0@Z
    ??$?PUsecond_tag@detail@cctz@time_internal@absl@@U01234@@detail@cctz@time_internal@absl@@YA_NABV?$civil_time@Usecond_tag@detail@cctz@time_internal@absl@@@0123@0@Z
    ??$?RAAPAXAAY0MI@DABH@?$AtomicHook@P6A_NPBXPADH@Z@base_internal@absl@@QBE_NAAPAXAAY0MI@DABH@Z
    ??$?RAAPBDAAHAAY0LLI@DABQBDPAD@?$AtomicHook@P6AXPBDH000@Z@base_internal@absl@@QBEXAAPBDAAHAAY0LLI@DABQBD$$QAPAD@Z
    ??$?RAAY04$$CBDPAVCondVar@absl@@@?$AtomicHook@P6AXPBDPBX@Z@base_internal@absl@@QBEXAAY04$$CBD$$QAPAVCondVar@2@@Z
    ??$?RAAY06$$CBDPAVCondVar@absl@@@?$AtomicHook@P6AXPBDPBX@Z@base_internal@absl@@QBEXAAY06$$CBD$$QAPAVCondVar@2@@Z
    ??$?RAAY0BB@$$CBDPAVCondVar@absl@@@?$AtomicHook@P6AXPBDPBX@Z@base_internal@absl@@QBEXAAY0BB@$$CBD$$QAPAVCondVar@2@@Z
    ??$?RAAY0N@$$CBDPAVMutex@absl@@AA_J@?$AtomicHook@P6AXPBDPBX_J@Z@base_internal@absl@@QBEXAAY0N@$$CBD$$QAPAVMutex@2@AA_J@Z
    ??$?RAAY0O@$$CBDPAVCondVar@absl@@@?$AtomicHook@P6AXPBDPBX@Z@base_internal@absl@@QBEXAAY0O@$$CBD$$QAPAVCondVar@2@@Z
    ??$?RAA_J@?$AtomicHook@P6AX_J@Z@base_internal@absl@@QBEXAA_J@Z
    ??$?RPAVSpinLock@base_internal@absl@@AB_K@?$AtomicHook@P6AXPBX_J@Z@base_internal@absl@@QBEX$$QAPAVSpinLock@12@AB_K@Z
    ??$?RW4LogSeverity@absl@@ABQBDHAAPBD@?$AtomicHook@P6AXW4LogSeverity@absl@@PBDHABV?$basic_string@DU?$char_traits@D@__1@std@@V?$allocator@D@23@@__1@std@@@Z@base_internal@absl@@QBEX$$QAW4LogSeverity@2@ABQBD$$QAHAAPBD@Z
    ??$?RW4LogSeverity@absl@@ABQBDHAAV?$basic_string@DU?$char_traits@D@__1@std@@V?$allocator@D@23@@__1@std@@@?$AtomicHook@P6AXW4LogSeverity@absl@@PBDHABV?$basic_string@DU?$char_traits@D@__1@std@@V?$allocator@D@23@@__1@std@@@Z@base_internal@absl@@QBEX$$QAW4LogSeverity@2@ABQBD$$QAHAAV?$basic_string@DU?$char_traits@D@__1@std@@V?$allocator@D@23@@__1@std@@@Z
    ??$?RW4LogSeverity@absl@@ABQBDHV?$basic_string@DU?$char_traits@D@__1@std@@V?$allocator@D@23@@__1@std@@@?$AtomicHook@P6AXW4LogSeverity@absl@@PBDHABV?$basic_string@DU?$char_traits@D@__1@std@@V?$allocator@D@23@@__1@std@@@Z@base_internal@absl@@QBEX$$QAW4LogSeverity@2@ABQBD$$QAH$$QAV?$basic_string@DU?$char_traits@D@__1@std@@V?$allocator@D@23@@__1@std@@@Z
    ??$?XH$0A@@Duration@absl@@QAEAAV01@H@Z
    ??$Add@$00@CordRepBtree@cord_internal@absl@@AAEXPAUCordRep@12@@Z
    ??$Add@$00@CordRepBtree@cord_internal@absl@@AAEXV?$Span@QAUCordRep@cord_internal@absl@@@2@@Z
    ??$Add@$0A@@CordRepBtree@cord_internal@absl@@AAEXPAUCordRep@12@@Z
    ??$Add@$0A@@CordRepBtree@cord_internal@absl@@AAEXV?$Span@QAUCordRep@cord_internal@absl@@@2@@Z
    ??$AddCordRep@$00@CordRepBtree@cord_internal@absl@@CAPAV012@PAV012@PAUCordRep@12@@Z
    ??$AddCordRep@$0A@@CordRepBtree@cord_internal@absl@@CAPAV012@PAV012@PAUCordRep@12@@Z
    ??$AddData@$00@CordRepBtree@cord_internal@absl@@AAE?AVstring_view@2@V32@I@Z
    ??$AddData@$00@CordRepBtree@cord_internal@absl@@CAPAV012@PAV012@Vstring_view@2@I@Z
    ??$AddData@$0A@@CordRepBtree@cord_internal@absl@@AAE?AVstring_view@2@V32@I@Z
    ??$AddData@$0A@@CordRepBtree@cord_internal@absl@@CAPAV012@PAV012@Vstring_view@2@I@Z
    ??$AddEdge@$00@CordRepBtree@cord_internal@absl@@QAE?AUOpResult@012@_NPAUCordRep@12@I@Z
    ??$AddEdge@$0A@@CordRepBtree@cord_internal@absl@@QAE?AUOpResult@012@_NPAUCordRep@12@I@Z
    ??$AddRing@$00@CordRepRing@cord_internal@absl@@CAPAV012@PAV012@0II@Z
    ??$AddRing@$0A@@CordRepRing@cord_internal@absl@@CAPAV012@PAV012@0II@Z
    ??$Append@V?$basic_string@DU?$char_traits@D@__1@std@@V?$allocator@D@23@@__1@std@@$0A@@Cord@absl@@QAEX$$QAV?$basic_string@DU?$char_traits@D@__1@std@@V?$allocator@D@23@@__1@std@@@Z
    ??$AppendImpl@ABVCord@absl@@@Cord@absl@@AAEXABV01@@Z
    ??$AppendImpl@VCord@absl@@@Cord@absl@@AAEX$$QAV01@@Z
    ??$ArgumentToConv@C@str_format_internal@absl@@YA?AW4FormatConversionCharSet@1@XZ
    ??$ArgumentToConv@D@str_format_internal@absl@@YA?AW4FormatConversionCharSet@1@XZ
    ??$ArgumentToConv@E@str_format_internal@absl@@YA?AW4FormatConversionCharSet@1@XZ
    ??$ArgumentToConv@F@str_format_internal@absl@@YA?AW4FormatConversionCharSet@1@XZ
    ??$ArgumentToConv@G@str_format_internal@absl@@YA?AW4FormatConversionCharSet@1@XZ
    ??$ArgumentToConv@H@str_format_internal@absl@@YA?AW4FormatConversionCharSet@1@XZ
    ??$ArgumentToConv@I@str_format_internal@absl@@YA?AW4FormatConversionCharSet@1@XZ
    ??$ArgumentToConv@J@str_format_internal@absl@@YA?AW4FormatConversionCharSet@1@XZ
    ??$ArgumentToConv@K@str_format_internal@absl@@YA?AW4FormatConversionCharSet@1@XZ
    ??$ArgumentToConv@M@str_format_internal@absl@@YA?AW4FormatConversionCharSet@1@XZ
    ??$ArgumentToConv@N@str_format_internal@absl@@YA?AW4FormatConversionCharSet@1@XZ
    ??$ArgumentToConv@O@str_format_internal@absl@@YA?AW4FormatConversionCharSet@1@XZ
    ??$ArgumentToConv@PBD@str_format_internal@absl@@YA?AW4FormatConversionCharSet@1@XZ
    ??$ArgumentToConv@UVoidPtr@str_format_internal@absl@@@str_format_internal@absl@@YA?AW4FormatConversionCharSet@1@XZ
    ??$ArgumentToConv@V?$basic_string@DU?$char_traits@D@__1@std@@V?$allocator@D@23@@__1@std@@@str_format_internal@absl@@YA?AW4FormatConversionCharSet@1@XZ
    ??$ArgumentToConv@Vint128@absl@@@str_format_internal@absl@@YA?AW4FormatConversionCharSet@1@XZ
    ??$ArgumentToConv@Vstring_view@absl@@@str_format_internal@absl@@YA?AW4FormatConversionCharSet@1@XZ
    ??$ArgumentToConv@Vuint128@absl@@@str_format_internal@absl@@YA?AW4FormatConversionCharSet@1@XZ
    ??$ArgumentToConv@_J@str_format_internal@absl@@YA?AW4FormatConversionCharSet@1@XZ
    ??$ArgumentToConv@_K@str_format_internal@absl@@YA?AW4FormatConversionCharSet@1@XZ
    ??$ArgumentToConv@_N@str_format_internal@absl@@YA?AW4FormatConversionCharSet@1@XZ
    ??$AssignElements@PAUPayload@status_internal@absl@@V?$IteratorValueAdapter@V?$allocator@UPayload@status_internal@absl@@@__1@std@@V?$move_iterator@PAUPayload@status_internal@absl@@@23@@inlined_vector_internal@3@I@inlined_vector_internal@absl@@YAXPAUPayload@status_internal@1@PAV?$IteratorValueAdapter@V?$allocator@UPayload@status_internal@absl@@@__1@std@@V?$move_iterator@PAUPayload@status_internal@absl@@@23@@01@I@Z
    ??$Base64EscapeInternal@V?$basic_string@DU?$char_traits@D@__1@std@@V?$allocator@D@23@@__1@std@@@strings_internal@absl@@YAXPBEIPAV?$basic_string@DU?$char_traits@D@__1@std@@V?$allocator@D@23@@__1@std@@_NPBD@Z
    ??$CallOnceImpl@A6AXXZ$$V@base_internal@absl@@YAXPAU?$atomic@I@__1@std@@W4SchedulingMode@01@A6AXXZ@Z
    ??$CastAndCallFunction@$$CBU?$atomic@_N@__1@std@@@Condition@absl@@CA_NPBV01@@Z
    ??$CastAndCallFunction@USynchEvent@absl@@@Condition@absl@@CA_NPBV01@@Z
    ??$Compare@$0FE@$0FE@@strings_internal@absl@@YAHABV?$BigUnsigned@$0FE@@01@0@Z
    ??$ConstructElements@V?$allocator@H@__1@std@@PAHV?$IteratorValueAdapter@V?$allocator@H@__1@std@@V?$move_iterator@PAH@23@@inlined_vector_internal@absl@@I@inlined_vector_internal@absl@@YAXPAV?$allocator@H@__1@std@@PAHPAV?$IteratorValueAdapter@V?$allocator@H@__1@std@@V?$move_iterator@PAH@23@@01@I@Z
    ??$ConstructElements@V?$allocator@PAUCordRep@cord_internal@absl@@@__1@std@@PAPAUCordRep@cord_internal@absl@@V?$CopyValueAdapter@V?$allocator@PAUCordRep@cord_internal@absl@@@__1@std@@@inlined_vector_internal@6@I@inlined_vector_internal@absl@@YAXPAV?$allocator@PAUCordRep@cord_internal@absl@@@__1@std@@PAPAUCordRep@cord_internal@1@PAV?$CopyValueAdapter@V?$allocator@PAUCordRep@cord_internal@absl@@@__1@std@@@01@I@Z
    ??$ConstructElements@V?$allocator@PAUCordRep@cord_internal@absl@@@__1@std@@PAPAUCordRep@cord_internal@absl@@V?$IteratorValueAdapter@V?$allocator@PAUCordRep@cord_internal@absl@@@__1@std@@V?$move_iterator@PAPAUCordRep@cord_internal@absl@@@23@@inlined_vector_internal@6@I@inlined_vector_internal@absl@@YAXPAV?$allocator@PAUCordRep@cord_internal@absl@@@__1@std@@PAPAUCordRep@cord_internal@1@PAV?$IteratorValueAdapter@V?$allocator@PAUCordRep@cord_internal@absl@@@__1@std@@V?$move_iterator@PAPAUCordRep@cord_internal@absl@@@23@@01@I@Z
    ??$ConstructElements@V?$allocator@PBUCordRep@cord_internal@absl@@@__1@std@@PAPBUCordRep@cord_internal@absl@@V?$IteratorValueAdapter@V?$allocator@PBUCordRep@cord_internal@absl@@@__1@std@@V?$move_iterator@PAPBUCordRep@cord_internal@absl@@@23@@inlined_vector_internal@6@I@inlined_vector_internal@absl@@YAXPAV?$allocator@PBUCordRep@cord_internal@absl@@@__1@std@@PAPBUCordRep@cord_internal@1@PAV?$IteratorValueAdapter@V?$allocator@PBUCordRep@cord_internal@absl@@@__1@std@@V?$move_iterator@PAPBUCordRep@cord_internal@absl@@@23@@01@I@Z
    ??$ConstructElements@V?$allocator@UPayload@status_internal@absl@@@__1@std@@PAUPayload@status_internal@absl@@V?$IteratorValueAdapter@V?$allocator@UPayload@status_internal@absl@@@__1@std@@PBUPayload@status_internal@absl@@@inlined_vector_internal@6@I@inlined_vector_internal@absl@@YAXPAV?$allocator@UPayload@status_internal@absl@@@__1@std@@PAUPayload@status_internal@1@PAV?$IteratorValueAdapter@V?$allocator@UPayload@status_internal@absl@@@__1@std@@PBUPayload@status_internal@absl@@@01@I@Z
    ??$ConstructElements@V?$allocator@UPayload@status_internal@absl@@@__1@std@@PAUPayload@status_internal@absl@@V?$IteratorValueAdapter@V?$allocator@UPayload@status_internal@absl@@@__1@std@@V?$move_iterator@PAUPayload@status_internal@absl@@@23@@inlined_vector_internal@6@I@inlined_vector_internal@absl@@YAXPAV?$allocator@UPayload@status_internal@absl@@@__1@std@@PAUPayload@status_internal@1@PAV?$IteratorValueAdapter@V?$allocator@UPayload@status_internal@absl@@@__1@std@@V?$move_iterator@PAUPayload@status_internal@absl@@@23@@01@I@Z
    ??$ConstructElements@V?$allocator@USubRange@absl@@@__1@std@@PAUSubRange@absl@@V?$IteratorValueAdapter@V?$allocator@USubRange@absl@@@__1@std@@V?$move_iterator@PAUSubRange@absl@@@23@@inlined_vector_internal@5@I@inlined_vector_internal@absl@@YAXPAV?$allocator@USubRange@absl@@@__1@std@@PAUSubRange@1@PAV?$IteratorValueAdapter@V?$allocator@USubRange@absl@@@__1@std@@V?$move_iterator@PAUSubRange@absl@@@23@@01@I@Z
    ??$Convert@VFormatArgImpl@str_format_internal@absl@@@FormatArgImplFriend@str_format_internal@absl@@SA_NVFormatArgImpl@12@VFormatConversionSpecImpl@12@PAVFormatSinkImpl@12@@Z
    ??$DestroyElements@V?$allocator@H@__1@std@@PAHI@inlined_vector_internal@absl@@YAXPAV?$allocator@H@__1@std@@PAHI@Z
    ??$DestroyElements@V?$allocator@PAUCordRep@cord_internal@absl@@@__1@std@@PAPAUCordRep@cord_internal@absl@@I@inlined_vector_internal@absl@@YAXPAV?$allocator@PAUCordRep@cord_internal@absl@@@__1@std@@PAPAUCordRep@cord_internal@1@I@Z
    ??$DestroyElements@V?$allocator@PBUCordRep@cord_internal@absl@@@__1@std@@PAPBUCordRep@cord_internal@absl@@I@inlined_vector_internal@absl@@YAXPAV?$allocator@PBUCordRep@cord_internal@absl@@@__1@std@@PAPBUCordRep@cord_internal@1@I@Z
    ??$DestroyElements@V?$allocator@UPayload@status_internal@absl@@@__1@std@@PAUPayload@status_internal@absl@@I@inlined_vector_internal@absl@@YAXPAV?$allocator@UPayload@status_internal@absl@@@__1@std@@PAUPayload@status_internal@1@I@Z
    ??$DestroyElements@V?$allocator@USubRange@absl@@@__1@std@@PAUSubRange@absl@@I@inlined_vector_internal@absl@@YAXPAV?$allocator@USubRange@absl@@@__1@std@@PAUSubRange@1@I@Z
    ??$Dispatch@C@FormatArgImpl@str_format_internal@absl@@CA_NTData@012@VFormatConversionSpecImpl@12@PAX@Z
    ??$Dispatch@D@FormatArgImpl@str_format_internal@absl@@CA_NTData@012@VFormatConversionSpecImpl@12@PAX@Z
    ??$Dispatch@E@FormatArgImpl@str_format_internal@absl@@CA_NTData@012@VFormatConversionSpecImpl@12@PAX@Z
    ??$Dispatch@F@FormatArgImpl@str_format_internal@absl@@CA_NTData@012@VFormatConversionSpecImpl@12@PAX@Z
    ??$Dispatch@G@FormatArgImpl@str_format_internal@absl@@CA_NTData@012@VFormatConversionSpecImpl@12@PAX@Z
    ??$Dispatch@H@FormatArgImpl@str_format_internal@absl@@CA_NTData@012@VFormatConversionSpecImpl@12@PAX@Z
    ??$Dispatch@I@FormatArgImpl@str_format_internal@absl@@CA_NTData@012@VFormatConversionSpecImpl@12@PAX@Z
    ??$Dispatch@J@FormatArgImpl@str_format_internal@absl@@CA_NTData@012@VFormatConversionSpecImpl@12@PAX@Z
    ??$Dispatch@K@FormatArgImpl@str_format_internal@absl@@CA_NTData@012@VFormatConversionSpecImpl@12@PAX@Z
    ??$Dispatch@M@FormatArgImpl@str_format_internal@absl@@CA_NTData@012@VFormatConversionSpecImpl@12@PAX@Z
    ??$Dispatch@N@FormatArgImpl@str_format_internal@absl@@CA_NTData@012@VFormatConversionSpecImpl@12@PAX@Z
    ??$Dispatch@O@FormatArgImpl@str_format_internal@absl@@CA_NTData@012@VFormatConversionSpecImpl@12@PAX@Z
    ??$Dispatch@PBD@FormatArgImpl@str_format_internal@absl@@CA_NTData@012@VFormatConversionSpecImpl@12@PAX@Z
    ??$Dispatch@UVoidPtr@str_format_internal@absl@@@FormatArgImpl@str_format_internal@absl@@CA_NTData@012@VFormatConversionSpecImpl@12@PAX@Z
    ??$Dispatch@V?$basic_string@DU?$char_traits@D@__1@std@@V?$allocator@D@23@@__1@std@@@FormatArgImpl@str_format_internal@absl@@CA_NTData@012@VFormatConversionSpecImpl@12@PAX@Z
    ??$Dispatch@Vint128@absl@@@FormatArgImpl@str_format_internal@absl@@CA_NTData@012@VFormatConversionSpecImpl@12@PAX@Z
    ??$Dispatch@Vstring_view@absl@@@FormatArgImpl@str_format_internal@absl@@CA_NTData@012@VFormatConversionSpecImpl@12@PAX@Z
    ??$Dispatch@Vuint128@absl@@@FormatArgImpl@str_format_internal@absl@@CA_NTData@012@VFormatConversionSpecImpl@12@PAX@Z
    ??$Dispatch@_J@FormatArgImpl@str_format_internal@absl@@CA_NTData@012@VFormatConversionSpecImpl@12@PAX@Z
    ??$Dispatch@_K@FormatArgImpl@str_format_internal@absl@@CA_NTData@012@VFormatConversionSpecImpl@12@PAX@Z
    ??$Dispatch@_N@FormatArgImpl@str_format_internal@absl@@CA_NTData@012@VFormatConversionSpecImpl@12@PAX@Z
    ??$DivMod@$09@?$BigUnsigned@$03@strings_internal@absl@@AAEIXZ
    ??$DivMod@$09@?$BigUnsigned@$0FE@@strings_internal@absl@@AAEIXZ
    ??$EmplaceBack@ABH@?$Storage@H$0CP@V?$allocator@H@__1@std@@@inlined_vector_internal@absl@@QAEAAHABH@Z
    ??$EmplaceBack@ABQAUCordRep@cord_internal@absl@@@?$Storage@PAUCordRep@cord_internal@absl@@$01V?$allocator@PAUCordRep@cord_internal@absl@@@__1@std@@@inlined_vector_internal@absl@@QAEAAPAUCordRep@cord_internal@2@ABQAU342@@Z
    ??$EmplaceBack@ABQAUCordRep@cord_internal@absl@@@?$Storage@PAUCordRep@cord_internal@absl@@$0CP@V?$allocator@PAUCordRep@cord_internal@absl@@@__1@std@@@inlined_vector_internal@absl@@QAEAAPAUCordRep@cord_internal@2@ABQAU342@@Z
    ??$EmplaceBack@ABQBUCordRep@cord_internal@absl@@@?$Storage@PBUCordRep@cord_internal@absl@@$0CP@V?$allocator@PBUCordRep@cord_internal@absl@@@__1@std@@@inlined_vector_internal@absl@@QAEAAPBUCordRep@cord_internal@2@ABQBU342@@Z
    ??$EmplaceBack@PAUCordRep@cord_internal@absl@@@?$Storage@PAUCordRep@cord_internal@absl@@$0CP@V?$allocator@PAUCordRep@cord_internal@absl@@@__1@std@@@inlined_vector_internal@absl@@QAEAAPAUCordRep@cord_internal@2@$$QAPAU342@@Z
    ??$EmplaceBack@UPayload@status_internal@absl@@@?$Storage@UPayload@status_internal@absl@@$00V?$allocator@UPayload@status_internal@absl@@@__1@std@@@inlined_vector_internal@absl@@QAEAAUPayload@status_internal@2@$$QAU342@@Z
    ??$EmplaceBack@USubRange@absl@@@?$Storage@USubRange@absl@@$0CP@V?$allocator@USubRange@absl@@@__1@std@@@inlined_vector_internal@absl@@QAEAAUSubRange@2@$$QAU32@@Z
    ??$EmplaceBackSlow@ABH@?$Storage@H$0CP@V?$allocator@H@__1@std@@@inlined_vector_internal@absl@@AAEAAHABH@Z
    ??$EmplaceBackSlow@ABQAUCordRep@cord_internal@absl@@@?$Storage@PAUCordRep@cord_internal@absl@@$01V?$allocator@PAUCordRep@cord_internal@absl@@@__1@std@@@inlined_vector_internal@absl@@AAEAAPAUCordRep@cord_internal@2@ABQAU342@@Z
    ??$EmplaceBackSlow@ABQAUCordRep@cord_internal@absl@@@?$Storage@PAUCordRep@cord_internal@absl@@$0CP@V?$allocator@PAUCordRep@cord_internal@absl@@@__1@std@@@inlined_vector_internal@absl@@AAEAAPAUCordRep@cord_internal@2@ABQAU342@@Z
    ??$EmplaceBackSlow@ABQBUCordRep@cord_internal@absl@@@?$Storage@PBUCordRep@cord_internal@absl@@$0CP@V?$allocator@PBUCordRep@cord_internal@absl@@@__1@std@@@inlined_vector_internal@absl@@AAEAAPBUCordRep@cord_internal@2@ABQBU342@@Z
    ??$EmplaceBackSlow@PAUCordRep@cord_internal@absl@@@?$Storage@PAUCordRep@cord_internal@absl@@$0CP@V?$allocator@PAUCordRep@cord_internal@absl@@@__1@std@@@inlined_vector_internal@absl@@AAEAAPAUCordRep@cord_internal@2@$$QAPAU342@@Z
    ??$EmplaceBackSlow@UPayload@status_internal@absl@@@?$Storage@UPayload@status_internal@absl@@$00V?$allocator@UPayload@status_internal@absl@@@__1@std@@@inlined_vector_internal@absl@@AAEAAUPayload@status_internal@2@$$QAU342@@Z
    ??$EmplaceBackSlow@USubRange@absl@@@?$Storage@USubRange@absl@@$0CP@V?$allocator@USubRange@absl@@@__1@std@@@inlined_vector_internal@absl@@AAEAAUSubRange@2@$$QAU32@@Z
    ??$ExtractCharSet@$03@str_format_internal@absl@@YA?AW4FormatConversionCharSet@1@U?$ArgConvertResult@$03@01@@Z
    ??$ExtractCharSet@$0BPOAA@@str_format_internal@absl@@YA?AW4FormatConversionCharSet@1@U?$ArgConvertResult@$0BPOAA@@01@@Z
    ??$ExtractCharSet@$0BPPPL@@str_format_internal@absl@@YA?AW4FormatConversionCharSet@1@U?$ArgConvertResult@$0BPPPL@@01@@Z
    ??$ExtractCharSet@$0EAAAA@@str_format_internal@absl@@YA?AW4FormatConversionCharSet@1@U?$ArgConvertResult@$0EAAAA@@01@@Z
    ??$ExtractCharSet@$0EAAAE@@str_format_internal@absl@@YA?AW4FormatConversionCharSet@1@U?$ArgConvertResult@$0EAAAE@@01@@Z
    ??$FastIntToBuffer@C@numbers_internal@absl@@YAPADCPAD@Z
    ??$FastIntToBuffer@D@numbers_internal@absl@@YAPADDPAD@Z
    ??$FastIntToBuffer@E@numbers_internal@absl@@YAPADEPAD@Z
    ??$FastIntToBuffer@F@numbers_internal@absl@@YAPADFPAD@Z
    ??$FastIntToBuffer@G@numbers_internal@absl@@YAPADGPAD@Z
    ??$FastIntToBuffer@J@numbers_internal@absl@@YAPADJPAD@Z
    ??$FastIntToBuffer@K@numbers_internal@absl@@YAPADKPAD@Z
    ??$Fill@$00@CordRepRing@cord_internal@absl@@AAEXPBV012@II@Z
    ??$Fill@$0A@@CordRepRing@cord_internal@absl@@AAEXPBV012@II@Z
    ??$FindBinary@$00@CordRepRing@cord_internal@absl@@ABEIIII@Z
    ??$FindBinary@$0A@@CordRepRing@cord_internal@absl@@ABEIIII@Z
    ??$FindSubstitutions@V?$initializer_list@U?$pair@Vstring_view@absl@@V12@@__1@std@@@std@@@strings_internal@absl@@YA?AV?$vector@UViableSubstitution@strings_internal@absl@@V?$allocator@UViableSubstitution@strings_internal@absl@@@__1@std@@@__1@std@@Vstring_view@1@ABV?$initializer_list@U?$pair@Vstring_view@absl@@V12@@__1@std@@@4@@Z
    ??$Flush@V?$basic_ostream@DU?$char_traits@D@__1@std@@@__1@std@@@FormatRawSinkImpl@str_format_internal@absl@@CAXPAXVstring_view@2@@Z
    ??$Flush@V?$basic_string@DU?$char_traits@D@__1@std@@V?$allocator@D@23@@__1@std@@@FormatRawSinkImpl@str_format_internal@absl@@CAXPAXVstring_view@2@@Z
    ??$Flush@VBufferRawSink@str_format_internal@absl@@@FormatRawSinkImpl@str_format_internal@absl@@CAXPAXVstring_view@2@@Z
    ??$Flush@VFILERawSink@str_format_internal@absl@@@FormatRawSinkImpl@str_format_internal@absl@@CAXPAXVstring_view@2@@Z
    ??$ForEach@V<lambda_1>@?0???$AddRing@$00@CordRepRing@cord_internal@absl@@CAPAV234@PAV234@0II@Z@@CordRepRing@cord_internal@absl@@QBEXII$$QAV<lambda_1>@?0???$AddRing@$00@012@CAPAV012@PAV012@0II@Z@@Z
    ??$ForEach@V<lambda_1>@?0???$AddRing@$0A@@CordRepRing@cord_internal@absl@@CAPAV234@PAV234@0II@Z@@CordRepRing@cord_internal@absl@@QBEXII$$QAV<lambda_1>@?0???$AddRing@$0A@@012@CAPAV012@PAV012@0II@Z@@Z
    ??$ForEach@V<lambda_1>@?0???$Fill@$00@CordRepRing@cord_internal@absl@@AAEXPBV234@II@Z@@CordRepRing@cord_internal@absl@@QBEXII$$QAV<lambda_1>@?0???$Fill@$00@012@AAEXPBV012@II@Z@@Z
    ??$ForEach@V<lambda_1>@?0???$Fill@$0A@@CordRepRing@cord_internal@absl@@AAEXPBV234@II@Z@@CordRepRing@cord_internal@absl@@QBEXII$$QAV<lambda_1>@?0???$Fill@$0A@@012@AAEXPBV012@II@Z@@Z
    ??$ForEach@V<lambda_2>@?0???$AddRing@$00@CordRepRing@cord_internal@absl@@CAPAV234@PAV234@0II@Z@@CordRepRing@cord_internal@absl@@QBEXII$$QAV<lambda_2>@?0???$AddRing@$00@012@CAPAV012@PAV012@0II@Z@@Z
    ??$ForEach@V<lambda_2>@?0???$AddRing@$0A@@CordRepRing@cord_internal@absl@@CAPAV234@PAV234@0II@Z@@CordRepRing@cord_internal@absl@@QBEXII$$QAV<lambda_2>@?0???$AddRing@$0A@@012@CAPAV012@PAV012@0II@Z@@Z
    ??$FormatConvertImpl@_N$0A@@str_format_internal@absl@@YA?AU?$ArgConvertResult@$0BPPPL@@01@_NVFormatConversionSpecImpl@01@PAVFormatSinkImpl@01@@Z
    ??$FromChrono@_JV?$ratio@$00$0PECEA@@__1@std@@@time_internal@absl@@YA?AVDuration@1@ABV?$duration@_JV?$ratio@$00$0PECEA@@__1@std@@@chrono@__1@std@@@Z
    ??$FromInt64@$00@time_internal@absl@@YA?AVDuration@1@_JV?$ratio@$00$00@__1@std@@@Z
    ??$FromInt64@$0DLJKMKAA@@time_internal@absl@@YA?AVDuration@1@_JV?$ratio@$00$0DLJKMKAA@@__1@std@@@Z
    ??$FromInt64@$0DOI@@time_internal@absl@@YA?AVDuration@1@_JV?$ratio@$00$0DOI@@__1@std@@@Z
    ??$FromInt64@$0PECEA@@time_internal@absl@@YA?AVDuration@1@_JV?$ratio@$00$0PECEA@@__1@std@@@Z
    ??$GenericCompare@HVCord@absl@@@absl@@YAHABVCord@0@0I@Z
    ??$GenericCompare@HVstring_view@absl@@@absl@@YAHABVCord@0@ABVstring_view@0@I@Z
    ??$GenericCompare@_NVCord@absl@@@absl@@YA_NABVCord@0@0I@Z
    ??$GenericCompare@_NVstring_view@absl@@@absl@@YA_NABVCord@0@ABVstring_view@0@I@Z
    ??$GetData@$$CBV?$Span@VFormatArgImpl@str_format_internal@absl@@@absl@@@span_internal@absl@@YAPAVFormatArgImpl@str_format_internal@1@ABV?$Span@VFormatArgImpl@str_format_internal@absl@@@1@@Z
    ??$GetData@$$CBV?$vector@VFormatArgImpl@str_format_internal@absl@@V?$allocator@VFormatArgImpl@str_format_internal@absl@@@__1@std@@@__1@std@@@span_internal@absl@@YAPBVFormatArgImpl@str_format_internal@1@ABV?$vector@VFormatArgImpl@str_format_internal@absl@@V?$allocator@VFormatArgImpl@str_format_internal@absl@@@__1@std@@@__1@std@@@Z
    ??$GetData@V?$Span@I@absl@@@span_internal@absl@@YAPAIAAV?$Span@I@1@@Z
    ??$GetDataImpl@$$CBV?$Span@VFormatArgImpl@str_format_internal@absl@@@absl@@@span_internal@absl@@YAPAVFormatArgImpl@str_format_internal@1@ABV?$Span@VFormatArgImpl@str_format_internal@absl@@@1@D@Z
    ??$GetDataImpl@$$CBV?$vector@VFormatArgImpl@str_format_internal@absl@@V?$allocator@VFormatArgImpl@str_format_internal@absl@@@__1@std@@@__1@std@@@span_internal@absl@@YAPBVFormatArgImpl@str_format_internal@1@ABV?$vector@VFormatArgImpl@str_format_internal@absl@@V?$allocator@VFormatArgImpl@str_format_internal@absl@@@__1@std@@@__1@std@@D@Z
    ??$GetDataImpl@V?$Span@I@absl@@@span_internal@absl@@YAPAIAAV?$Span@I@1@D@Z
    ??$HidePtr@$$CBX@base_internal@absl@@YAIPBX@Z
    ??$HidePtr@U?$atomic@H@__1@std@@@base_internal@absl@@YAIPAU?$atomic@H@__1@std@@@Z
    ??$HidePtr@X@base_internal@absl@@YAIPAX@Z
    ??$Hours@H$0A@@absl@@YA?AVDuration@0@H@Z
    ??$Init@$0A@@CordRepBtreeNavigator@cord_internal@absl@@AAEPAUCordRep@12@PAVCordRepBtree@12@@Z
    ??$Init@H@FormatArgImpl@str_format_internal@absl@@AAEXABH@Z
    ??$Initialize@V?$CopyValueAdapter@V?$allocator@PAUCordRep@cord_internal@absl@@@__1@std@@@inlined_vector_internal@absl@@@?$Storage@PAUCordRep@cord_internal@absl@@$0CP@V?$allocator@PAUCordRep@cord_internal@absl@@@__1@std@@@inlined_vector_internal@absl@@QAEXV?$CopyValueAdapter@V?$allocator@PAUCordRep@cord_internal@absl@@@__1@std@@@12@I@Z
    ??$Invoke@A6AXXZ$$V@Callable@base_internal@absl@@SAXA6AXXZ@Z
    ??$InvokeFlush@V?$basic_ostream@DU?$char_traits@D@__1@std@@@__1@std@@@str_format_internal@absl@@YAXPAV?$basic_ostream@DU?$char_traits@D@__1@std@@@__1@std@@Vstring_view@1@@Z
    ??$InvokeFlush@V?$basic_string@DU?$char_traits@D@__1@std@@V?$allocator@D@23@@__1@std@@@str_format_internal@absl@@YAXPAV?$basic_string@DU?$char_traits@D@__1@std@@V?$allocator@D@23@@__1@std@@Vstring_view@1@@Z
    ??$InvokeFlush@VBufferRawSink@str_format_internal@absl@@@str_format_internal@absl@@YAXPAVBufferRawSink@01@Vstring_view@1@@Z
    ??$InvokeFlush@VFILERawSink@str_format_internal@absl@@@str_format_internal@absl@@YAXPAVFILERawSink@01@Vstring_view@1@@Z
    ??$LowLevelCallOnce@A6AXXZ$$V@base_internal@absl@@YAXPAVonce_flag@1@A6AXXZ@Z
    ??$MakeConstSpan@$SQAX@absl@@YA?AV?$Span@QAX@0@PBQAXI@Z
    ??$MakeSpan@$SI$0BAA@@absl@@YA?AV?$Span@I@0@AAY0BAA@I@Z
    ??$MakeSpan@$SI$0BIA@@absl@@YA?AV?$Span@I@0@AAY0BIA@I@Z
    ??$MakeSpan@$SI$0CAA@@absl@@YA?AV?$Span@I@0@AAY0CAA@I@Z
    ??$MakeSpan@$SI$0CIA@@absl@@YA?AV?$Span@I@0@AAY0CIA@I@Z
    ??$MakeSpan@$SI$0IA@@absl@@YA?AV?$Span@I@0@AAY0IA@I@Z
    ??$MakeSpan@$SVFormatArgImpl@str_format_internal@absl@@@absl@@YA?AV?$Span@VFormatArgImpl@str_format_internal@absl@@@0@PAVFormatArgImpl@str_format_internal@0@I@Z
    ??$Merge@$00@CordRepBtree@cord_internal@absl@@CAPAV012@PAV012@0@Z
    ??$Merge@$0A@@CordRepBtree@cord_internal@absl@@CAPAV012@PAV012@0@Z
    ??$Microseconds@H$0A@@absl@@YA?AVDuration@0@H@Z
    ??$Microseconds@J$0A@@absl@@YA?AVDuration@0@J@Z
    ??$Milliseconds@H$0A@@absl@@YA?AVDuration@0@H@Z
    ??$Milliseconds@K$0A@@absl@@YA?AVDuration@0@K@Z
    ??$Milliseconds@N$0A@@absl@@YA?AVDuration@0@N@Z
    ??$Minutes@H$0A@@absl@@YA?AVDuration@0@H@Z
    ??$Nanoseconds@H$0A@@absl@@YA?AVDuration@0@H@Z
    ??$Nanoseconds@J$0A@@absl@@YA?AVDuration@0@J@Z
    ??$Nanoseconds@_J$0A@@absl@@YA?AVDuration@0@_J@Z
    ??$NewLeaf@$00@CordRepBtree@cord_internal@absl@@CAPAV012@Vstring_view@2@I@Z
    ??$NewLeaf@$0A@@CordRepBtree@cord_internal@absl@@CAPAV012@Vstring_view@2@I@Z
    ??$Offset@$00$0A@@?$LayoutImpl@V?$tuple@IPAUCordRep@cord_internal@absl@@I@__1@std@@U?$integer_sequence@I$0A@$00$01@absl@@U45@@internal_layout@container_internal@absl@@QBEIXZ
    ??$Offset@$00$0A@@?$LayoutImpl@V?$tuple@IPAUCordRep@cord_internal@absl@@I@__1@std@@U?$integer_sequence@I$0A@$00@absl@@U?$integer_sequence@I$0A@$00$01@5@@internal_layout@container_internal@absl@@QBEIXZ
    ??$Offset@$00$0A@@?$LayoutImpl@V?$tuple@IPAUCordRep@cord_internal@absl@@I@__1@std@@U?$integer_sequence@I$0A@@absl@@U?$integer_sequence@I$0A@$00@5@@internal_layout@container_internal@absl@@QBEIXZ
    ??$Offset@$01$0A@@?$LayoutImpl@V?$tuple@IPAUCordRep@cord_internal@absl@@I@__1@std@@U?$integer_sequence@I$0A@$00$01@absl@@U45@@internal_layout@container_internal@absl@@QBEIXZ
    ??$Offset@$01$0A@@?$LayoutImpl@V?$tuple@IPAUCordRep@cord_internal@absl@@I@__1@std@@U?$integer_sequence@I$0A@$00@absl@@U?$integer_sequence@I$0A@$00$01@5@@internal_layout@container_internal@absl@@QBEIXZ
    ??$Offset@$0A@$0A@@?$LayoutImpl@V?$tuple@IPAUCordRep@cord_internal@absl@@I@__1@std@@U?$integer_sequence@I$0A@$00$01@absl@@U45@@internal_layout@container_internal@absl@@QBEIXZ
    ??$Offset@$0A@$0A@@?$LayoutImpl@V?$tuple@IPAUCordRep@cord_internal@absl@@I@__1@std@@U?$integer_sequence@I$0A@$00@absl@@U?$integer_sequence@I$0A@$00$01@5@@internal_layout@container_internal@absl@@QBEIXZ
    ??$Offset@$0A@$0A@@?$LayoutImpl@V?$tuple@IPAUCordRep@cord_internal@absl@@I@__1@std@@U?$integer_sequence@I$0A@@absl@@U?$integer_sequence@I$0A@$00@5@@internal_layout@container_internal@absl@@QBEIXZ
    ??$Offset@$0A@$0A@@?$LayoutImpl@V?$tuple@IPAUCordRep@cord_internal@absl@@I@__1@std@@U?$integer_sequence@I$S@absl@@U?$integer_sequence@I$0A@@5@@internal_layout@container_internal@absl@@QBEIXZ
    ??$ParseFloat@$09@strings_internal@absl@@YA?AUParsedFloat@01@PBD0W4chars_format@1@@Z
    ??$ParseFloat@$0BA@@strings_internal@absl@@YA?AUParsedFloat@01@PBD0W4chars_format@1@@Z
    ??$ParseFormatString@UParsedFormatConsumer@ParsedFormatBase@str_format_internal@absl@@@str_format_internal@absl@@YA_NVstring_view@1@UParsedFormatConsumer@ParsedFormatBase@01@@Z
    ??$Partial@$$V@?$Layout@IPAUCordRep@cord_internal@absl@@I@container_internal@absl@@SA?AV?$LayoutImpl@V?$tuple@IPAUCordRep@cord_internal@absl@@I@__1@std@@U?$integer_sequence@I$S@absl@@U?$integer_sequence@I$0A@@5@@internal_layout@12@XZ
    ??$Partial@AAI@?$Layout@IPAUCordRep@cord_internal@absl@@I@container_internal@absl@@SA?AV?$LayoutImpl@V?$tuple@IPAUCordRep@cord_internal@absl@@I@__1@std@@U?$integer_sequence@I$0A@@absl@@U?$integer_sequence@I$0A@$00@5@@internal_layout@12@AAI@Z
    ??$Partial@AAIAAI@?$Layout@IPAUCordRep@cord_internal@absl@@I@container_internal@absl@@SA?AV?$LayoutImpl@V?$tuple@IPAUCordRep@cord_internal@absl@@I@__1@std@@U?$integer_sequence@I$0A@$00@absl@@U?$integer_sequence@I$0A@$00$01@5@@internal_layout@12@AAI0@Z
    ??$Partial@I@?$Layout@IPAUCordRep@cord_internal@absl@@I@container_internal@absl@@SA?AV?$LayoutImpl@V?$tuple@IPAUCordRep@cord_internal@absl@@I@__1@std@@U?$integer_sequence@I$0A@@absl@@U?$integer_sequence@I$0A@$00@5@@internal_layout@12@$$QAI@Z
    ??$Partial@II@?$Layout@IPAUCordRep@cord_internal@absl@@I@container_internal@absl@@SA?AV?$LayoutImpl@V?$tuple@IPAUCordRep@cord_internal@absl@@I@__1@std@@U?$integer_sequence@I$0A@$00@absl@@U?$integer_sequence@I$0A@$00$01@5@@internal_layout@12@$$QAI0@Z
    ??$Pointer@$00$$CBD@?$LayoutImpl@V?$tuple@IPAUCordRep@cord_internal@absl@@I@__1@std@@U?$integer_sequence@I$0A@@absl@@U?$integer_sequence@I$0A@$00@5@@internal_layout@container_internal@absl@@QBEPBQAUCordRep@cord_internal@3@PBD@Z
    ??$Pointer@$00D@?$LayoutImpl@V?$tuple@IPAUCordRep@cord_internal@absl@@I@__1@std@@U?$integer_sequence@I$0A@@absl@@U?$integer_sequence@I$0A@$00@5@@internal_layout@container_internal@absl@@QBEPAPAUCordRep@cord_internal@3@PAD@Z
    ??$Pointer@$01$$CBD@?$LayoutImpl@V?$tuple@IPAUCordRep@cord_internal@absl@@I@__1@std@@U?$integer_sequence@I$0A@$00@absl@@U?$integer_sequence@I$0A@$00$01@5@@internal_layout@container_internal@absl@@QBEPBIPBD@Z
    ??$Pointer@$01D@?$LayoutImpl@V?$tuple@IPAUCordRep@cord_internal@absl@@I@__1@std@@U?$integer_sequence@I$0A@$00@absl@@U?$integer_sequence@I$0A@$00$01@5@@internal_layout@container_internal@absl@@QBEPAIPAD@Z
    ??$Pointer@$0A@$$CBD@?$LayoutImpl@V?$tuple@IPAUCordRep@cord_internal@absl@@I@__1@std@@U?$integer_sequence@I$S@absl@@U?$integer_sequence@I$0A@@5@@internal_layout@container_internal@absl@@QBEPBIPBD@Z
    ??$Pointer@$0A@D@?$LayoutImpl@V?$tuple@IPAUCordRep@cord_internal@absl@@I@__1@std@@U?$integer_sequence@I$S@absl@@U?$integer_sequence@I$0A@@5@@internal_layout@container_internal@absl@@QBEPAIPAD@Z
    ??$Prepend@V?$basic_string@DU?$char_traits@D@__1@std@@V?$allocator@D@23@@__1@std@@$0A@@Cord@absl@@QAEX$$QAV?$basic_string@DU?$char_traits@D@__1@std@@V?$allocator@D@23@@__1@std@@@Z
    ??$STLStringReserveAmortized@V?$basic_string@DU?$char_traits@D@__1@std@@V?$allocator@D@23@@__1@std@@@strings_internal@absl@@YAXPAV?$basic_string@DU?$char_traits@D@__1@std@@V?$allocator@D@23@@__1@std@@I@Z
    ??$STLStringResizeUninitialized@V?$basic_string@DU?$char_traits@D@__1@std@@V?$allocator@D@23@@__1@std@@X@strings_internal@absl@@YAXPAV?$basic_string@DU?$char_traits@D@__1@std@@V?$allocator@D@23@@__1@std@@I@Z
    ??$STLStringResizeUninitializedAmortized@V?$basic_string@DU?$char_traits@D@__1@std@@V?$allocator@D@23@@__1@std@@@strings_internal@absl@@YAXPAV?$basic_string@DU?$char_traits@D@__1@std@@V?$allocator@D@23@@__1@std@@I@Z
    ??$Seconds@H$0A@@absl@@YA?AVDuration@0@H@Z
    ??$Seconds@J$0A@@absl@@YA?AVDuration@0@J@Z
    ??$Seconds@_J$0A@@absl@@YA?AVDuration@0@_J@Z
    ??$SetEdge@$00@CordRepBtree@cord_internal@absl@@QAE?AUOpResult@012@_NPAUCordRep@12@I@Z
    ??$SetEdge@$0A@@CordRepBtree@cord_internal@absl@@QAE?AUOpResult@012@_NPAUCordRep@12@I@Z
    ??$SharedCompareImpl@VCord@absl@@@absl@@YAHABVCord@0@0@Z
    ??$SharedCompareImpl@Vstring_view@absl@@@absl@@YAHABVCord@0@ABVstring_view@0@@Z
    ??$StrAppend@$$V@absl@@YAXPAV?$basic_string@DU?$char_traits@D@__1@std@@V?$allocator@D@23@@__1@std@@ABVAlphaNum@0@1111@Z
    ??$StrReplaceAll@V?$initializer_list@U?$pair@Vstring_view@absl@@V12@@__1@std@@@std@@@absl@@YA?AV?$basic_string@DU?$char_traits@D@__1@std@@V?$allocator@D@23@@__1@std@@Vstring_view@0@ABV?$initializer_list@U?$pair@Vstring_view@absl@@V12@@__1@std@@@3@@Z
    ??$StrReplaceAll@V?$initializer_list@U?$pair@Vstring_view@absl@@V12@@__1@std@@@std@@@absl@@YAHABV?$initializer_list@U?$pair@Vstring_view@absl@@V12@@__1@std@@@std@@PAV?$basic_string@DU?$char_traits@D@__1@std@@V?$allocator@D@23@@__1@2@@Z
    ??$ToChronoDuration@V?$duration@JV?$ratio@$0DM@$00@__1@std@@@chrono@__1@std@@@time_internal@absl@@YA?AV?$duration@JV?$ratio@$0DM@$00@__1@std@@@chrono@__1@std@@VDuration@1@@Z
    ??$ToChronoDuration@V?$duration@JV?$ratio@$0OBA@$00@__1@std@@@chrono@__1@std@@@time_internal@absl@@YA?AV?$duration@JV?$ratio@$0OBA@$00@__1@std@@@chrono@__1@std@@VDuration@1@@Z
    ??$ToChronoDuration@V?$duration@_JV?$ratio@$00$00@__1@std@@@chrono@__1@std@@@time_internal@absl@@YA?AV?$duration@_JV?$ratio@$00$00@__1@std@@@chrono@__1@std@@VDuration@1@@Z
    ??$ToChronoDuration@V?$duration@_JV?$ratio@$00$0DLJKMKAA@@__1@std@@@chrono@__1@std@@@time_internal@absl@@YA?AV?$duration@_JV?$ratio@$00$0DLJKMKAA@@__1@std@@@chrono@__1@std@@VDuration@1@@Z
    ??$ToChronoDuration@V?$duration@_JV?$ratio@$00$0DOI@@__1@std@@@chrono@__1@std@@@time_internal@absl@@YA?AV?$duration@_JV?$ratio@$00$0DOI@@__1@std@@@chrono@__1@std@@VDuration@1@@Z
    ??$ToChronoDuration@V?$duration@_JV?$ratio@$00$0PECEA@@__1@std@@@chrono@__1@std@@@time_internal@absl@@YA?AV?$duration@_JV?$ratio@$00$0PECEA@@__1@std@@@chrono@__1@std@@VDuration@1@@Z
    ??$ToInt@C@FormatArgImpl@str_format_internal@absl@@CA_NTData@012@PAHU?$integral_constant@_N$00@__1@std@@U?$integral_constant@_N$0A@@56@@Z
    ??$ToInt@D@FormatArgImpl@str_format_internal@absl@@CA_NTData@012@PAHU?$integral_constant@_N$00@__1@std@@U?$integral_constant@_N$0A@@56@@Z
    ??$ToInt@E@FormatArgImpl@str_format_internal@absl@@CA_NTData@012@PAHU?$integral_constant@_N$00@__1@std@@U?$integral_constant@_N$0A@@56@@Z
    ??$ToInt@F@FormatArgImpl@str_format_internal@absl@@CA_NTData@012@PAHU?$integral_constant@_N$00@__1@std@@U?$integral_constant@_N$0A@@56@@Z
    ??$ToInt@G@FormatArgImpl@str_format_internal@absl@@CA_NTData@012@PAHU?$integral_constant@_N$00@__1@std@@U?$integral_constant@_N$0A@@56@@Z
    ??$ToInt@H@FormatArgImpl@str_format_internal@absl@@CA_NTData@012@PAHU?$integral_constant@_N$00@__1@std@@U?$integral_constant@_N$0A@@56@@Z
    ??$ToInt@I@FormatArgImpl@str_format_internal@absl@@CA_NTData@012@PAHU?$integral_constant@_N$00@__1@std@@U?$integral_constant@_N$0A@@56@@Z
    ??$ToInt@J@FormatArgImpl@str_format_internal@absl@@CA_NTData@012@PAHU?$integral_constant@_N$00@__1@std@@U?$integral_constant@_N$0A@@56@@Z
    ??$ToInt@K@FormatArgImpl@str_format_internal@absl@@CA_NTData@012@PAHU?$integral_constant@_N$00@__1@std@@U?$integral_constant@_N$0A@@56@@Z
    ??$ToInt@M@FormatArgImpl@str_format_internal@absl@@CA_NTData@012@PAHU?$integral_constant@_N$0A@@__1@std@@2@Z
    ??$ToInt@N@FormatArgImpl@str_format_internal@absl@@CA_NTData@012@PAHU?$integral_constant@_N$0A@@__1@std@@2@Z
    ??$ToInt@O@FormatArgImpl@str_format_internal@absl@@CA_NTData@012@PAHU?$integral_constant@_N$0A@@__1@std@@2@Z
    ??$ToInt@PBD@FormatArgImpl@str_format_internal@absl@@CA_NTData@012@PAHU?$integral_constant@_N$0A@@__1@std@@2@Z
    ??$ToInt@UVoidPtr@str_format_internal@absl@@@FormatArgImpl@str_format_internal@absl@@CA_NTData@012@PAHU?$integral_constant@_N$0A@@__1@std@@2@Z
    ??$ToInt@V?$basic_string@DU?$char_traits@D@__1@std@@V?$allocator@D@23@@__1@std@@@FormatArgImpl@str_format_internal@absl@@CA_NTData@012@PAHU?$integral_constant@_N$0A@@__1@std@@2@Z
    ??$ToInt@VFormatArgImpl@str_format_internal@absl@@@FormatArgImplFriend@str_format_internal@absl@@SA_NVFormatArgImpl@12@PAH@Z
    ??$ToInt@Vint128@absl@@@FormatArgImpl@str_format_internal@absl@@CA_NTData@012@PAHU?$integral_constant@_N$0A@@__1@std@@2@Z
    ??$ToInt@Vstring_view@absl@@@FormatArgImpl@str_format_internal@absl@@CA_NTData@012@PAHU?$integral_constant@_N$0A@@__1@std@@2@Z
    ??$ToInt@Vuint128@absl@@@FormatArgImpl@str_format_internal@absl@@CA_NTData@012@PAHU?$integral_constant@_N$0A@@__1@std@@2@Z
    ??$ToInt@_J@FormatArgImpl@str_format_internal@absl@@CA_NTData@012@PAHU?$integral_constant@_N$00@__1@std@@U?$integral_constant@_N$0A@@56@@Z
    ??$ToInt@_K@FormatArgImpl@str_format_internal@absl@@CA_NTData@012@PAHU?$integral_constant@_N$00@__1@std@@U?$integral_constant@_N$0A@@56@@Z
    ??$ToInt@_N@FormatArgImpl@str_format_internal@absl@@CA_NTData@012@PAHU?$integral_constant@_N$00@__1@std@@U?$integral_constant@_N$0A@@56@@Z
    ??$ToIntVal@C@FormatArgImpl@str_format_internal@absl@@CAHABC@Z
    ??$ToIntVal@D@FormatArgImpl@str_format_internal@absl@@CAHABD@Z
    ??$ToIntVal@E@FormatArgImpl@str_format_internal@absl@@CAHABE@Z
    ??$ToIntVal@F@FormatArgImpl@str_format_internal@absl@@CAHABF@Z
    ??$ToIntVal@G@FormatArgImpl@str_format_internal@absl@@CAHABG@Z
    ??$ToIntVal@H@FormatArgImpl@str_format_internal@absl@@CAHABH@Z
    ??$ToIntVal@I@FormatArgImpl@str_format_internal@absl@@CAHABI@Z
    ??$ToIntVal@J@FormatArgImpl@str_format_internal@absl@@CAHABJ@Z
    ??$ToIntVal@K@FormatArgImpl@str_format_internal@absl@@CAHABK@Z
    ??$ToIntVal@_J@FormatArgImpl@str_format_internal@absl@@CAHAB_J@Z
    ??$ToIntVal@_K@FormatArgImpl@str_format_internal@absl@@CAHAB_K@Z
    ??$ToIntVal@_N@FormatArgImpl@str_format_internal@absl@@CAHAB_N@Z
    ??$UnhidePtr@X@base_internal@absl@@YAPAXI@Z
    ??$__advance@PBUTransition@cctz@time_internal@absl@@@__1@std@@YAXAAPBUTransition@cctz@time_internal@absl@@HUrandom_access_iterator_tag@01@@Z
    ??$__advance@PBVFormatArgImpl@str_format_internal@absl@@@__1@std@@YAXAAPBVFormatArgImpl@str_format_internal@absl@@HUrandom_access_iterator_tag@01@@Z
    ??$__construct_at_end@PBQAUCordRep@cord_internal@absl@@@?$vector@PAUCordRep@cord_internal@absl@@V?$allocator@PAUCordRep@cord_internal@absl@@@__1@std@@@__1@std@@AAEXPBQAUCordRep@cord_internal@absl@@0I@Z
    ??$__construct_at_end@PBVFormatArgImpl@str_format_internal@absl@@@?$vector@VFormatArgImpl@str_format_internal@absl@@V?$allocator@VFormatArgImpl@str_format_internal@absl@@@__1@std@@@__1@std@@AAEXPBVFormatArgImpl@str_format_internal@absl@@0I@Z
    ??$__construct_at_end@V?$move_iterator@PAPAPBVImpl@time_zone@cctz@time_internal@absl@@@__1@std@@@?$__split_buffer@PAPBVImpl@time_zone@cctz@time_internal@absl@@AAV?$allocator@PAPBVImpl@time_zone@cctz@time_internal@absl@@@__1@std@@@__1@std@@QAEXV?$move_iterator@PAPAPBVImpl@time_zone@cctz@time_internal@absl@@@12@0@Z
    ??$__construct_at_end@V?$move_iterator@PAUTransition@cctz@time_internal@absl@@@__1@std@@@?$__split_buffer@UTransition@cctz@time_internal@absl@@AAV?$allocator@UTransition@cctz@time_internal@absl@@@__1@std@@@__1@std@@QAEXV?$move_iterator@PAUTransition@cctz@time_internal@absl@@@12@0@Z
    ??$__construct_at_end@V?$move_iterator@PAUTransitionType@cctz@time_internal@absl@@@__1@std@@@?$__split_buffer@UTransitionType@cctz@time_internal@absl@@AAV?$allocator@UTransitionType@cctz@time_internal@absl@@@__1@std@@@__1@std@@QAEXV?$move_iterator@PAUTransitionType@cctz@time_internal@absl@@@12@0@Z
    ??$__construct_backward_with_exception_guarantees@V?$allocator@PAUCordRep@cord_internal@absl@@@__1@std@@PAUCordRep@cord_internal@absl@@X@__1@std@@YAXAAV?$allocator@PAUCordRep@cord_internal@absl@@@01@PAPAUCordRep@cord_internal@absl@@1AAPAPAU345@@Z
    ??$__construct_backward_with_exception_guarantees@V?$allocator@PAVCordzHandle@cord_internal@absl@@@__1@std@@PAVCordzHandle@cord_internal@absl@@X@__1@std@@YAXAAV?$allocator@PAVCordzHandle@cord_internal@absl@@@01@PAPAVCordzHandle@cord_internal@absl@@1AAPAPAV345@@Z
    ??$__construct_backward_with_exception_guarantees@V?$allocator@PBVCordzHandle@cord_internal@absl@@@__1@std@@PBVCordzHandle@cord_internal@absl@@X@__1@std@@YAXAAV?$allocator@PBVCordzHandle@cord_internal@absl@@@01@PAPBVCordzHandle@cord_internal@absl@@1AAPAPBV345@@Z
    ??$__construct_backward_with_exception_guarantees@V?$allocator@UConversionItem@ParsedFormatBase@str_format_internal@absl@@@__1@std@@UConversionItem@ParsedFormatBase@str_format_internal@absl@@X@__1@std@@YAXAAV?$allocator@UConversionItem@ParsedFormatBase@str_format_internal@absl@@@01@PAUConversionItem@ParsedFormatBase@str_format_internal@absl@@1AAPAU3456@@Z
    ??$__construct_backward_with_exception_guarantees@V?$allocator@UTransition@cctz@time_internal@absl@@@__1@std@@UTransition@cctz@time_internal@absl@@X@__1@std@@YAXAAV?$allocator@UTransition@cctz@time_internal@absl@@@01@PAUTransition@cctz@time_internal@absl@@1AAPAU3456@@Z
    ??$__construct_backward_with_exception_guarantees@V?$allocator@UTransitionType@cctz@time_internal@absl@@@__1@std@@UTransitionType@cctz@time_internal@absl@@X@__1@std@@YAXAAV?$allocator@UTransitionType@cctz@time_internal@absl@@@01@PAUTransitionType@cctz@time_internal@absl@@1AAPAU3456@@Z
    ??$__construct_backward_with_exception_guarantees@V?$allocator@UViableSubstitution@strings_internal@absl@@@__1@std@@UViableSubstitution@strings_internal@absl@@X@__1@std@@YAXAAV?$allocator@UViableSubstitution@strings_internal@absl@@@01@PAUViableSubstitution@strings_internal@absl@@1AAPAU345@@Z
    ??$__construct_forward_with_exception_guarantees@V?$allocator@UTransition@cctz@time_internal@absl@@@__1@std@@PAUTransition@cctz@time_internal@absl@@@__1@std@@YAXAAV?$allocator@UTransition@cctz@time_internal@absl@@@01@PAUTransition@cctz@time_internal@absl@@1AAPAU3456@@Z
    ??$__construct_forward_with_exception_guarantees@V?$allocator@UTransitionType@cctz@time_internal@absl@@@__1@std@@PAUTransitionType@cctz@time_internal@absl@@@__1@std@@YAXAAV?$allocator@UTransitionType@cctz@time_internal@absl@@@01@PAUTransitionType@cctz@time_internal@absl@@1AAPAU3456@@Z
    ??$__construct_node_hash@ABUpiecewise_construct_t@__1@std@@V?$tuple@ABV?$basic_string@DU?$char_traits@D@__1@std@@V?$allocator@D@23@@__1@std@@@23@V?$tuple@$$V@23@@?$__hash_table@U?$__hash_value_type@V?$basic_string@DU?$char_traits@D@__1@std@@V?$allocator@D@23@@__1@std@@PBVImpl@time_zone@cctz@time_internal@absl@@@__1@std@@V?$__unordered_map_hasher@V?$basic_string@DU?$char_traits@D@__1@std@@V?$allocator@D@23@@__1@std@@U?$__hash_value_type@V?$basic_string@DU?$char_traits@D@__1@std@@V?$allocator@D@23@@__1@std@@PBVImpl@time_zone@cctz@time_internal@absl@@@23@U?$hash@V?$basic_string@DU?$char_traits@D@__1@std@@V?$allocator@D@23@@__1@std@@@23@U?$equal_to@V?$basic_string@DU?$char_traits@D@__1@std@@V?$allocator@D@23@@__1@std@@@23@$00@23@V?$__unordered_map_equal@V?$basic_string@DU?$char_traits@D@__1@std@@V?$allocator@D@23@@__1@std@@U?$__hash_value_type@V?$basic_string@DU?$char_traits@D@__1@std@@V?$allocator@D@23@@__1@std@@PBVImpl@time_zone@cctz@time_internal@absl@@@23@U?$equal_to@V?$basic_string@DU?$char_traits@D@__1@std@@V?$allocator@D@23@@__1@std@@@23@U?$hash@V?$basic_string@DU?$char_traits@D@__1@std@@V?$allocator@D@23@@__1@std@@@23@$00@23@V?$allocator@U?$__hash_value_type@V?$basic_string@DU?$char_traits@D@__1@std@@V?$allocator@D@23@@__1@std@@PBVImpl@time_zone@cctz@time_internal@absl@@@__1@std@@@23@@__1@std@@AAE?AV?$unique_ptr@U?$__hash_node@U?$__hash_value_type@V?$basic_string@DU?$char_traits@D@__1@std@@V?$allocator@D@23@@__1@std@@PBVImpl@time_zone@cctz@time_internal@absl@@@__1@std@@PAX@__1@std@@V?$__hash_node_destructor@V?$allocator@U?$__hash_node@U?$__hash_value_type@V?$basic_string@DU?$char_traits@D@__1@std@@V?$allocator@D@23@@__1@std@@PBVImpl@time_zone@cctz@time_internal@absl@@@__1@std@@PAX@__1@std@@@__1@std@@@23@@12@IABUpiecewise_construct_t@12@$$QAV?$tuple@ABV?$basic_string@DU?$char_traits@D@__1@std@@V?$allocator@D@23@@__1@std@@@12@$$QAV?$tuple@$$V@12@@Z
    ??$__construct_one_at_end@$$V@?$vector@UTransition@cctz@time_internal@absl@@V?$allocator@UTransition@cctz@time_internal@absl@@@__1@std@@@__1@std@@AAEXXZ
    ??$__construct_one_at_end@$$V@?$vector@UTransitionType@cctz@time_internal@absl@@V?$allocator@UTransitionType@cctz@time_internal@absl@@@__1@std@@@__1@std@@AAEXXZ
    ??$__construct_one_at_end@AAVstring_view@absl@@ABV12@AAI@?$vector@UViableSubstitution@strings_internal@absl@@V?$allocator@UViableSubstitution@strings_internal@absl@@@__1@std@@@__1@std@@AAEXAAVstring_view@absl@@ABV34@AAI@Z
    ??$__construct_one_at_end@ABQAUCordRep@cord_internal@absl@@@?$vector@PAUCordRep@cord_internal@absl@@V?$allocator@PAUCordRep@cord_internal@absl@@@__1@std@@@__1@std@@AAEXABQAUCordRep@cord_internal@absl@@@Z
    ??$__construct_one_at_end@ABQAVCordzHandle@cord_internal@absl@@@?$vector@PAVCordzHandle@cord_internal@absl@@V?$allocator@PAVCordzHandle@cord_internal@absl@@@__1@std@@@__1@std@@AAEXABQAVCordzHandle@cord_internal@absl@@@Z
    ??$__construct_one_at_end@ABQBVCordzHandle@cord_internal@absl@@@?$vector@PBVCordzHandle@cord_internal@absl@@V?$allocator@PBVCordzHandle@cord_internal@absl@@@__1@std@@@__1@std@@AAEXABQBVCordzHandle@cord_internal@absl@@@Z
    ??$__construct_one_at_end@ABUTransition@cctz@time_internal@absl@@@?$vector@UTransition@cctz@time_internal@absl@@V?$allocator@UTransition@cctz@time_internal@absl@@@__1@std@@@__1@std@@AAEXABUTransition@cctz@time_internal@absl@@@Z
    ??$__construct_one_at_end@UConversionItem@ParsedFormatBase@str_format_internal@absl@@@?$vector@UConversionItem@ParsedFormatBase@str_format_internal@absl@@V?$allocator@UConversionItem@ParsedFormatBase@str_format_internal@absl@@@__1@std@@@__1@std@@AAEX$$QAUConversionItem@ParsedFormatBase@str_format_internal@absl@@@Z
    ??$__construct_range_forward@V?$allocator@PAUCordRep@cord_internal@absl@@@__1@std@@QAUCordRep@cord_internal@absl@@PAU456@PAU456@PAU456@X@__1@std@@YAXAAV?$allocator@PAUCordRep@cord_internal@absl@@@01@PBQAUCordRep@cord_internal@absl@@1AAPAPAU345@@Z
    ??$__construct_range_forward@V?$allocator@VFormatArgImpl@str_format_internal@absl@@@__1@std@@$$CBVFormatArgImpl@str_format_internal@absl@@V456@V456@V456@X@__1@std@@YAXAAV?$allocator@VFormatArgImpl@str_format_internal@absl@@@01@PBVFormatArgImpl@str_format_internal@absl@@1AAPAV345@@Z
    ??$__copy@$$CBVFormatArgImpl@str_format_internal@absl@@V123@@__1@std@@YAPAVFormatArgImpl@str_format_internal@absl@@PBV234@0PAV234@@Z
    ??$__cxx_atomic_compare_exchange_weak@PAUHashtablezInfo@container_internal@absl@@@__1@std@@YA_NPAU?$__cxx_atomic_base_impl@PAUHashtablezInfo@container_internal@absl@@@01@PAPAUHashtablezInfo@container_internal@absl@@PAU345@W4memory_order@01@3@Z
    ??$__cxx_atomic_exchange@P6AXABUHashtablezInfo@container_internal@absl@@@Z@__1@std@@YAP6AXABUHashtablezInfo@container_internal@absl@@@ZPAU?$__cxx_atomic_base_impl@P6AXABUHashtablezInfo@container_internal@absl@@@Z@01@P6AX0@ZW4memory_order@01@@Z
    ??$__cxx_atomic_load@P6AXABUHashtablezInfo@container_internal@absl@@@Z@__1@std@@YAP6AXABUHashtablezInfo@container_internal@absl@@@ZPBU?$__cxx_atomic_base_impl@P6AXABUHashtablezInfo@container_internal@absl@@@Z@01@W4memory_order@01@@Z
    ??$__cxx_atomic_load@PAUHashtablezInfo@container_internal@absl@@@__1@std@@YAPAUHashtablezInfo@container_internal@absl@@PBU?$__cxx_atomic_base_impl@PAUHashtablezInfo@container_internal@absl@@@01@W4memory_order@01@@Z
    ??$__cxx_atomic_load@PAVCordzHandle@cord_internal@absl@@@__1@std@@YAPAVCordzHandle@cord_internal@absl@@PBU?$__cxx_atomic_base_impl@PAVCordzHandle@cord_internal@absl@@@01@W4memory_order@01@@Z
    ??$__cxx_atomic_load@PAVCordzInfo@cord_internal@absl@@@__1@std@@YAPAVCordzInfo@cord_internal@absl@@PBU?$__cxx_atomic_base_impl@PAVCordzInfo@cord_internal@absl@@@01@W4memory_order@01@@Z
    ??$__cxx_atomic_load@W4OnDeadlockCycle@absl@@@__1@std@@YA?AW4OnDeadlockCycle@absl@@PBU?$__cxx_atomic_base_impl@W4OnDeadlockCycle@absl@@@01@W4memory_order@01@@Z
    ??$__cxx_atomic_load@W4State@PerThreadSynch@base_internal@absl@@@__1@std@@YA?AW4State@PerThreadSynch@base_internal@absl@@PBU?$__cxx_atomic_base_impl@W4State@PerThreadSynch@base_internal@absl@@@01@W4memory_order@01@@Z
    ??$__cxx_atomic_store@PAVCordzHandle@cord_internal@absl@@@__1@std@@YAXPAU?$__cxx_atomic_base_impl@PAVCordzHandle@cord_internal@absl@@@01@PAVCordzHandle@cord_internal@absl@@W4memory_order@01@@Z
    ??$__cxx_atomic_store@PAVCordzInfo@cord_internal@absl@@@__1@std@@YAXPAU?$__cxx_atomic_base_impl@PAVCordzInfo@cord_internal@absl@@@01@PAVCordzInfo@cord_internal@absl@@W4memory_order@01@@Z
    ??$__cxx_atomic_store@W4OnDeadlockCycle@absl@@@__1@std@@YAXPAU?$__cxx_atomic_base_impl@W4OnDeadlockCycle@absl@@@01@W4OnDeadlockCycle@absl@@W4memory_order@01@@Z
    ??$__cxx_atomic_store@W4State@PerThreadSynch@base_internal@absl@@@__1@std@@YAXPAU?$__cxx_atomic_base_impl@W4State@PerThreadSynch@base_internal@absl@@@01@W4State@PerThreadSynch@base_internal@absl@@W4memory_order@01@@Z
    ??$__distance@PBUPayload@status_internal@absl@@@__1@std@@YAHPBUPayload@status_internal@absl@@0Urandom_access_iterator_tag@01@@Z
    ??$__distance@PBUTransition@cctz@time_internal@absl@@@__1@std@@YAHPBUTransition@cctz@time_internal@absl@@0Urandom_access_iterator_tag@01@@Z
    ??$__distance@PBVFormatArgImpl@str_format_internal@absl@@@__1@std@@YAHPBVFormatArgImpl@str_format_internal@absl@@0Urandom_access_iterator_tag@01@@Z
    ??$__distance@V?$move_iterator@PAPAPBVImpl@time_zone@cctz@time_internal@absl@@@__1@std@@@__1@std@@YAHV?$move_iterator@PAPAPBVImpl@time_zone@cctz@time_internal@absl@@@01@0Urandom_access_iterator_tag@01@@Z
    ??$__distance@V?$move_iterator@PAUTransition@cctz@time_internal@absl@@@__1@std@@@__1@std@@YAHV?$move_iterator@PAUTransition@cctz@time_internal@absl@@@01@0Urandom_access_iterator_tag@01@@Z
    ??$__distance@V?$move_iterator@PAUTransitionType@cctz@time_internal@absl@@@__1@std@@@__1@std@@YAHV?$move_iterator@PAUTransitionType@cctz@time_internal@absl@@@01@0Urandom_access_iterator_tag@01@@Z
    ??$__emplace_back_slow_path@AAVstring_view@absl@@ABV12@AAI@?$vector@UViableSubstitution@strings_internal@absl@@V?$allocator@UViableSubstitution@strings_internal@absl@@@__1@std@@@__1@std@@AAEXAAVstring_view@absl@@ABV34@AAI@Z
    ??$__emplace_unique_key_args@V?$basic_string@DU?$char_traits@D@__1@std@@V?$allocator@D@23@@__1@std@@ABUpiecewise_construct_t@23@V?$tuple@ABV?$basic_string@DU?$char_traits@D@__1@std@@V?$allocator@D@23@@__1@std@@@23@V?$tuple@$$V@23@@?$__hash_table@U?$__hash_value_type@V?$basic_string@DU?$char_traits@D@__1@std@@V?$allocator@D@23@@__1@std@@PBVImpl@time_zone@cctz@time_internal@absl@@@__1@std@@V?$__unordered_map_hasher@V?$basic_string@DU?$char_traits@D@__1@std@@V?$allocator@D@23@@__1@std@@U?$__hash_value_type@V?$basic_string@DU?$char_traits@D@__1@std@@V?$allocator@D@23@@__1@std@@PBVImpl@time_zone@cctz@time_internal@absl@@@23@U?$hash@V?$basic_string@DU?$char_traits@D@__1@std@@V?$allocator@D@23@@__1@std@@@23@U?$equal_to@V?$basic_string@DU?$char_traits@D@__1@std@@V?$allocator@D@23@@__1@std@@@23@$00@23@V?$__unordered_map_equal@V?$basic_string@DU?$char_traits@D@__1@std@@V?$allocator@D@23@@__1@std@@U?$__hash_value_type@V?$basic_string@DU?$char_traits@D@__1@std@@V?$allocator@D@23@@__1@std@@PBVImpl@time_zone@cctz@time_internal@absl@@@23@U?$equal_to@V?$basic_string@DU?$char_traits@D@__1@std@@V?$allocator@D@23@@__1@std@@@23@U?$hash@V?$basic_string@DU?$char_traits@D@__1@std@@V?$allocator@D@23@@__1@std@@@23@$00@23@V?$allocator@U?$__hash_value_type@V?$basic_string@DU?$char_traits@D@__1@std@@V?$allocator@D@23@@__1@std@@PBVImpl@time_zone@cctz@time_internal@absl@@@__1@std@@@23@@__1@std@@QAE?AU?$pair@V?$__hash_iterator@PAU?$__hash_node@U?$__hash_value_type@V?$basic_string@DU?$char_traits@D@__1@std@@V?$allocator@D@23@@__1@std@@PBVImpl@time_zone@cctz@time_internal@absl@@@__1@std@@PAX@__1@std@@@__1@std@@_N@12@ABV?$basic_string@DU?$char_traits@D@__1@std@@V?$allocator@D@23@@12@ABUpiecewise_construct_t@12@$$QAV?$tuple@ABV?$basic_string@DU?$char_traits@D@__1@std@@V?$allocator@D@23@@__1@std@@@12@$$QAV?$tuple@$$V@12@@Z
    ??$__lower_bound@AAUByUnixTime@Transition@cctz@time_internal@absl@@PBU2345@U2345@@__1@std@@YAPBUTransition@cctz@time_internal@absl@@PBU2345@0ABU2345@AAUByUnixTime@2345@@Z
    ??$__move@PAPBVImpl@time_zone@cctz@time_internal@absl@@PAPBV12345@@__1@std@@YAPAPAPBVImpl@time_zone@cctz@time_internal@absl@@PAPAPBV23456@00@Z
    ??$__move@UTransition@cctz@time_internal@absl@@U1234@@__1@std@@YAPAUTransition@cctz@time_internal@absl@@PAU2345@00@Z
    ??$__move@UTransitionType@cctz@time_internal@absl@@U1234@@__1@std@@YAPAUTransitionType@cctz@time_internal@absl@@PAU2345@00@Z
    ??$__move_backward@PAPBVImpl@time_zone@cctz@time_internal@absl@@PAPBV12345@@__1@std@@YAPAPAPBVImpl@time_zone@cctz@time_internal@absl@@PAPAPBV23456@00@Z
    ??$__move_backward@UTransition@cctz@time_internal@absl@@U1234@@__1@std@@YAPAUTransition@cctz@time_internal@absl@@PAU2345@00@Z
    ??$__move_backward@UTransitionType@cctz@time_internal@absl@@U1234@@__1@std@@YAPAUTransitionType@cctz@time_internal@absl@@PAU2345@00@Z
    ??$__push_back_slow_path@ABQAUCordRep@cord_internal@absl@@@?$vector@PAUCordRep@cord_internal@absl@@V?$allocator@PAUCordRep@cord_internal@absl@@@__1@std@@@__1@std@@AAEXABQAUCordRep@cord_internal@absl@@@Z
    ??$__push_back_slow_path@ABQAVCordzHandle@cord_internal@absl@@@?$vector@PAVCordzHandle@cord_internal@absl@@V?$allocator@PAVCordzHandle@cord_internal@absl@@@__1@std@@@__1@std@@AAEXABQAVCordzHandle@cord_internal@absl@@@Z
    ??$__push_back_slow_path@ABQBVCordzHandle@cord_internal@absl@@@?$vector@PBVCordzHandle@cord_internal@absl@@V?$allocator@PBVCordzHandle@cord_internal@absl@@@__1@std@@@__1@std@@AAEXABQBVCordzHandle@cord_internal@absl@@@Z
    ??$__push_back_slow_path@ABUTransition@cctz@time_internal@absl@@@?$vector@UTransition@cctz@time_internal@absl@@V?$allocator@UTransition@cctz@time_internal@absl@@@__1@std@@@__1@std@@AAEXABUTransition@cctz@time_internal@absl@@@Z
    ??$__push_back_slow_path@UConversionItem@ParsedFormatBase@str_format_internal@absl@@@?$vector@UConversionItem@ParsedFormatBase@str_format_internal@absl@@V?$allocator@UConversionItem@ParsedFormatBase@str_format_internal@absl@@@__1@std@@@__1@std@@AAEX$$QAUConversionItem@ParsedFormatBase@str_format_internal@absl@@@Z
    ??$__rewrap_iter@PAPAPBVImpl@time_zone@cctz@time_internal@absl@@@__1@std@@YAPAPAPBVImpl@time_zone@cctz@time_internal@absl@@PAPAPBV23456@0@Z
    ??$__rewrap_iter@PAUTransition@cctz@time_internal@absl@@@__1@std@@YAPAUTransition@cctz@time_internal@absl@@PAU2345@0@Z
    ??$__rewrap_iter@PAUTransitionType@cctz@time_internal@absl@@@__1@std@@YAPAUTransitionType@cctz@time_internal@absl@@PAU2345@0@Z
    ??$__rewrap_iter@PAVFormatArgImpl@str_format_internal@absl@@@__1@std@@YAPAVFormatArgImpl@str_format_internal@absl@@PAV234@0@Z
    ??$__to_address@$$CBVFormatArgImpl@str_format_internal@absl@@@__1@std@@YAPBVFormatArgImpl@str_format_internal@absl@@PBV234@@Z
    ??$__to_address@PAPBVImpl@time_zone@cctz@time_internal@absl@@@__1@std@@YAPAPAPBVImpl@time_zone@cctz@time_internal@absl@@PAPAPBV23456@@Z
    ??$__to_address@PAUCordRep@cord_internal@absl@@@__1@std@@YAPAPAUCordRep@cord_internal@absl@@PAPAU234@@Z
    ??$__to_address@PAVCordzHandle@cord_internal@absl@@@__1@std@@YAPAPAVCordzHandle@cord_internal@absl@@PAPAV234@@Z
    ??$__to_address@PBVCordzHandle@cord_internal@absl@@@__1@std@@YAPAPBVCordzHandle@cord_internal@absl@@PAPBV234@@Z
    ??$__to_address@UConversionItem@ParsedFormatBase@str_format_internal@absl@@@__1@std@@YAPAUConversionItem@ParsedFormatBase@str_format_internal@absl@@PAU2345@@Z
    ??$__to_address@UTransition@cctz@time_internal@absl@@@__1@std@@YAPAUTransition@cctz@time_internal@absl@@PAU2345@@Z
    ??$__to_address@UTransitionType@cctz@time_internal@absl@@@__1@std@@YAPAUTransitionType@cctz@time_internal@absl@@PAU2345@@Z
    ??$__to_address@UViableSubstitution@strings_internal@absl@@@__1@std@@YAPAUViableSubstitution@strings_internal@absl@@PAU234@@Z
    ??$__to_address@VFormatArgImpl@str_format_internal@absl@@@__1@std@@YAPAVFormatArgImpl@str_format_internal@absl@@PAV234@@Z
    ??$__unwrap_iter@PAPAPBVImpl@time_zone@cctz@time_internal@absl@@U?$__unwrap_iter_impl@PAPAPBVImpl@time_zone@cctz@time_internal@absl@@$00@__1@std@@@__1@std@@YAPAPAPBVImpl@time_zone@cctz@time_internal@absl@@PAPAPBV23456@@Z
    ??$__unwrap_iter@PAUTransition@cctz@time_internal@absl@@U?$__unwrap_iter_impl@PAUTransition@cctz@time_internal@absl@@$00@__1@std@@@__1@std@@YAPAUTransition@cctz@time_internal@absl@@PAU2345@@Z
    ??$__unwrap_iter@PAUTransitionType@cctz@time_internal@absl@@U?$__unwrap_iter_impl@PAUTransitionType@cctz@time_internal@absl@@$00@__1@std@@@__1@std@@YAPAUTransitionType@cctz@time_internal@absl@@PAU2345@@Z
    ??$__unwrap_iter@PAVFormatArgImpl@str_format_internal@absl@@U?$__unwrap_iter_impl@PAVFormatArgImpl@str_format_internal@absl@@$00@__1@std@@@__1@std@@YAPAVFormatArgImpl@str_format_internal@absl@@PAV234@@Z
    ??$__unwrap_iter@PBVFormatArgImpl@str_format_internal@absl@@U?$__unwrap_iter_impl@PBVFormatArgImpl@str_format_internal@absl@@$00@__1@std@@@__1@std@@YAPBVFormatArgImpl@str_format_internal@absl@@PBV234@@Z
    ??$__upper_bound@AAUByCivilTime@Transition@cctz@time_internal@absl@@PBU2345@U2345@@__1@std@@YAPBUTransition@cctz@time_internal@absl@@PBU2345@0ABU2345@AAUByCivilTime@2345@@Z
    ??$__upper_bound@AAUByUnixTime@Transition@cctz@time_internal@absl@@PBU2345@U2345@@__1@std@@YAPBUTransition@cctz@time_internal@absl@@PBU2345@0ABU2345@AAUByUnixTime@2345@@Z
    ??$addressof@$$CBU?$__hash_value_type@V?$basic_string@DU?$char_traits@D@__1@std@@V?$allocator@D@23@@__1@std@@PBVImpl@time_zone@cctz@time_internal@absl@@@__1@std@@@__1@std@@YAPBU?$__hash_value_type@V?$basic_string@DU?$char_traits@D@__1@std@@V?$allocator@D@23@@__1@std@@PBVImpl@time_zone@cctz@time_internal@absl@@@01@ABU201@@Z
    ??$addressof@$$CBU?$pair@$$CBV?$basic_string@DU?$char_traits@D@__1@std@@V?$allocator@D@23@@__1@std@@PBVImpl@time_zone@cctz@time_internal@absl@@@__1@std@@@__1@std@@YAPBU?$pair@$$CBV?$basic_string@DU?$char_traits@D@__1@std@@V?$allocator@D@23@@__1@std@@PBVImpl@time_zone@cctz@time_internal@absl@@@01@ABU201@@Z
    ??$addressof@$$CBV?$allocator@UPayload@status_internal@absl@@@__1@std@@@__1@std@@YAPBV?$allocator@UPayload@status_internal@absl@@@01@ABV201@@Z
    ??$addressof@PBVImpl@time_zone@cctz@time_internal@absl@@@__1@std@@YAPAPBVImpl@time_zone@cctz@time_internal@absl@@AAPBV23456@@Z
    ??$addressof@QAUCordRep@cord_internal@absl@@@__1@std@@YAPBQAUCordRep@cord_internal@absl@@ABQAU234@@Z
    ??$addressof@U?$__hash_node_base@PAU?$__hash_node@U?$__hash_value_type@V?$basic_string@DU?$char_traits@D@__1@std@@V?$allocator@D@23@@__1@std@@PBVImpl@time_zone@cctz@time_internal@absl@@@__1@std@@PAX@__1@std@@@__1@std@@@__1@std@@YAPAU?$__hash_node_base@PAU?$__hash_node@U?$__hash_value_type@V?$basic_string@DU?$char_traits@D@__1@std@@V?$allocator@D@23@@__1@std@@PBVImpl@time_zone@cctz@time_internal@absl@@@__1@std@@PAX@__1@std@@@01@AAU201@@Z
    ??$addressof@U?$__hash_value_type@V?$basic_string@DU?$char_traits@D@__1@std@@V?$allocator@D@23@@__1@std@@PBVImpl@time_zone@cctz@time_internal@absl@@@__1@std@@@__1@std@@YAPAU?$__hash_value_type@V?$basic_string@DU?$char_traits@D@__1@std@@V?$allocator@D@23@@__1@std@@PBVImpl@time_zone@cctz@time_internal@absl@@@01@AAU201@@Z
    ??$addressof@U?$pair@$$CBV?$basic_string@DU?$char_traits@D@__1@std@@V?$allocator@D@23@@__1@std@@PBVImpl@time_zone@cctz@time_internal@absl@@@__1@std@@@__1@std@@YAPAU?$pair@$$CBV?$basic_string@DU?$char_traits@D@__1@std@@V?$allocator@D@23@@__1@std@@PBVImpl@time_zone@cctz@time_internal@absl@@@01@AAU201@@Z
    ??$addressof@V?$allocator@PAUCordRep@cord_internal@absl@@@__1@std@@@__1@std@@YAPAV?$allocator@PAUCordRep@cord_internal@absl@@@01@AAV201@@Z
    ??$addressof@V?$allocator@PBUCordRep@cord_internal@absl@@@__1@std@@@__1@std@@YAPAV?$allocator@PBUCordRep@cord_internal@absl@@@01@AAV201@@Z
    ??$addressof@V?$allocator@UPayload@status_internal@absl@@@__1@std@@@__1@std@@YAPAV?$allocator@UPayload@status_internal@absl@@@01@AAV201@@Z
    ??$addressof@V?$allocator@USubRange@absl@@@__1@std@@@__1@std@@YAPAV?$allocator@USubRange@absl@@@01@AAV201@@Z
    ??$advance@PBUTransition@cctz@time_internal@absl@@H@__1@std@@YAXAAPBUTransition@cctz@time_internal@absl@@H@Z
    ??$advance@PBVFormatArgImpl@str_format_internal@absl@@I@__1@std@@YAXAAPBVFormatArgImpl@str_format_internal@absl@@I@Z
    ??$assign@PBVFormatArgImpl@str_format_internal@absl@@@?$vector@VFormatArgImpl@str_format_internal@absl@@V?$allocator@VFormatArgImpl@str_format_internal@absl@@@__1@std@@@__1@std@@QAEXPBVFormatArgImpl@str_format_internal@absl@@0@Z
    ??$assign@V?$basic_string@DU?$char_traits@D@__1@std@@V?$allocator@D@23@@__1@std@@@?$optional_data_base@V?$basic_string@DU?$char_traits@D@__1@std@@V?$allocator@D@23@@__1@std@@@optional_internal@absl@@IAEX$$QAV?$basic_string@DU?$char_traits@D@__1@std@@V?$allocator@D@23@@__1@std@@@Z
    ??$bit_cast@_J_K$0A@@absl@@YA_JAB_K@Z
    ??$bit_cast@_K_J$0A@@absl@@YA_KAB_J@Z
    ??$bit_width@_K@absl@@YA_K_K@Z
    ??$construct@HABH@?$allocator_traits@V?$allocator@H@__1@std@@@absl@@SAXAAV?$allocator@H@__1@std@@PAHABH@Z
    ??$construct@HH@?$allocator_traits@V?$allocator@H@__1@std@@@absl@@SAXAAV?$allocator@H@__1@std@@PAH$$QAH@Z
    ??$construct@PAPBVImpl@time_zone@cctz@time_internal@absl@@ABQAPBV12345@@?$allocator@PAPBVImpl@time_zone@cctz@time_internal@absl@@@__1@std@@QAEXPAPAPBVImpl@time_zone@cctz@time_internal@absl@@ABQAPBV34567@@Z
    ??$construct@PAPBVImpl@time_zone@cctz@time_internal@absl@@ABQAPBV12345@X@?$allocator_traits@V?$allocator@PAPBVImpl@time_zone@cctz@time_internal@absl@@@__1@std@@@__1@std@@SAXAAV?$allocator@PAPBVImpl@time_zone@cctz@time_internal@absl@@@12@PAPAPBVImpl@time_zone@cctz@time_internal@absl@@ABQAPBV45678@@Z
    ??$construct@PAPBVImpl@time_zone@cctz@time_internal@absl@@PAPBV12345@@?$allocator@PAPBVImpl@time_zone@cctz@time_internal@absl@@@__1@std@@QAEXPAPAPBVImpl@time_zone@cctz@time_internal@absl@@$$QAPAPBV34567@@Z
    ??$construct@PAPBVImpl@time_zone@cctz@time_internal@absl@@PAPBV12345@X@?$allocator_traits@V?$allocator@PAPBVImpl@time_zone@cctz@time_internal@absl@@@__1@std@@@__1@std@@SAXAAV?$allocator@PAPBVImpl@time_zone@cctz@time_internal@absl@@@12@PAPAPBVImpl@time_zone@cctz@time_internal@absl@@$$QAPAPBV45678@@Z
    ??$construct@PAUCordRep@cord_internal@absl@@ABQAU123@@?$allocator@PAUCordRep@cord_internal@absl@@@__1@std@@QAEXPAPAUCordRep@cord_internal@absl@@ABQAU345@@Z
    ??$construct@PAUCordRep@cord_internal@absl@@ABQAU123@@?$allocator_traits@V?$allocator@PAUCordRep@cord_internal@absl@@@__1@std@@@absl@@SAXAAV?$allocator@PAUCordRep@cord_internal@absl@@@__1@std@@PAPAUCordRep@cord_internal@1@ABQAU561@@Z
    ??$construct@PAUCordRep@cord_internal@absl@@ABQAU123@X@?$allocator_traits@V?$allocator@PAUCordRep@cord_internal@absl@@@__1@std@@@__1@std@@SAXAAV?$allocator@PAUCordRep@cord_internal@absl@@@12@PAPAUCordRep@cord_internal@absl@@ABQAU456@@Z
    ??$construct@PAUCordRep@cord_internal@absl@@PAU123@@?$allocator@PAUCordRep@cord_internal@absl@@@__1@std@@QAEXPAPAUCordRep@cord_internal@absl@@$$QAPAU345@@Z
    ??$construct@PAUCordRep@cord_internal@absl@@PAU123@@?$allocator_traits@V?$allocator@PAUCordRep@cord_internal@absl@@@__1@std@@@absl@@SAXAAV?$allocator@PAUCordRep@cord_internal@absl@@@__1@std@@PAPAUCordRep@cord_internal@1@$$QAPAU561@@Z
    ??$construct@PAVCordzHandle@cord_internal@absl@@ABQAV123@@?$allocator@PAVCordzHandle@cord_internal@absl@@@__1@std@@QAEXPAPAVCordzHandle@cord_internal@absl@@ABQAV345@@Z
    ??$construct@PAVCordzHandle@cord_internal@absl@@ABQAV123@X@?$allocator_traits@V?$allocator@PAVCordzHandle@cord_internal@absl@@@__1@std@@@__1@std@@SAXAAV?$allocator@PAVCordzHandle@cord_internal@absl@@@12@PAPAVCordzHandle@cord_internal@absl@@ABQAV456@@Z
    ??$construct@PBUCordRep@cord_internal@absl@@ABQBU123@@?$allocator@PBUCordRep@cord_internal@absl@@@__1@std@@QAEXPAPBUCordRep@cord_internal@absl@@ABQBU345@@Z
    ??$construct@PBUCordRep@cord_internal@absl@@ABQBU123@@?$allocator_traits@V?$allocator@PBUCordRep@cord_internal@absl@@@__1@std@@@absl@@SAXAAV?$allocator@PBUCordRep@cord_internal@absl@@@__1@std@@PAPBUCordRep@cord_internal@1@ABQBU561@@Z
    ??$construct@PBUCordRep@cord_internal@absl@@PBU123@@?$allocator@PBUCordRep@cord_internal@absl@@@__1@std@@QAEXPAPBUCordRep@cord_internal@absl@@$$QAPBU345@@Z
    ??$construct@PBUCordRep@cord_internal@absl@@PBU123@@?$allocator_traits@V?$allocator@PBUCordRep@cord_internal@absl@@@__1@std@@@absl@@SAXAAV?$allocator@PBUCordRep@cord_internal@absl@@@__1@std@@PAPBUCordRep@cord_internal@1@$$QAPBU561@@Z
    ??$construct@PBVCordzHandle@cord_internal@absl@@ABQBV123@@?$allocator@PBVCordzHandle@cord_internal@absl@@@__1@std@@QAEXPAPBVCordzHandle@cord_internal@absl@@ABQBV345@@Z
    ??$construct@PBVCordzHandle@cord_internal@absl@@ABQBV123@X@?$allocator_traits@V?$allocator@PBVCordzHandle@cord_internal@absl@@@__1@std@@@__1@std@@SAXAAV?$allocator@PBVCordzHandle@cord_internal@absl@@@12@PAPBVCordzHandle@cord_internal@absl@@ABQBV456@@Z
    ??$construct@PBVImpl@time_zone@cctz@time_internal@absl@@ABQBV12345@@?$allocator@PBVImpl@time_zone@cctz@time_internal@absl@@@__1@std@@QAEXPAPBVImpl@time_zone@cctz@time_internal@absl@@ABQBV34567@@Z
    ??$construct@PBVImpl@time_zone@cctz@time_internal@absl@@ABQBV12345@X@?$allocator_traits@V?$allocator@PBVImpl@time_zone@cctz@time_internal@absl@@@__1@std@@@__1@std@@SAXAAV?$allocator@PBVImpl@time_zone@cctz@time_internal@absl@@@12@PAPBVImpl@time_zone@cctz@time_internal@absl@@ABQBV45678@@Z
    ??$construct@U?$pair@$$CBV?$basic_string@DU?$char_traits@D@__1@std@@V?$allocator@D@23@@__1@std@@PBVImpl@time_zone@cctz@time_internal@absl@@@__1@std@@ABUpiecewise_construct_t@23@V?$tuple@ABV?$basic_string@DU?$char_traits@D@__1@std@@V?$allocator@D@23@@__1@std@@@23@V?$tuple@$$V@23@@?$allocator@U?$__hash_node@U?$__hash_value_type@V?$basic_string@DU?$char_traits@D@__1@std@@V?$allocator@D@23@@__1@std@@PBVImpl@time_zone@cctz@time_internal@absl@@@__1@std@@PAX@__1@std@@@__1@std@@QAEXPAU?$pair@$$CBV?$basic_string@DU?$char_traits@D@__1@std@@V?$allocator@D@23@@__1@std@@PBVImpl@time_zone@cctz@time_internal@absl@@@12@ABUpiecewise_construct_t@12@$$QAV?$tuple@ABV?$basic_string@DU?$char_traits@D@__1@std@@V?$allocator@D@23@@__1@std@@@12@$$QAV?$tuple@$$V@12@@Z
    ??$construct@U?$pair@$$CBV?$basic_string@DU?$char_traits@D@__1@std@@V?$allocator@D@23@@__1@std@@PBVImpl@time_zone@cctz@time_internal@absl@@@__1@std@@ABUpiecewise_construct_t@23@V?$tuple@ABV?$basic_string@DU?$char_traits@D@__1@std@@V?$allocator@D@23@@__1@std@@@23@V?$tuple@$$V@23@X@?$allocator_traits@V?$allocator@U?$__hash_node@U?$__hash_value_type@V?$basic_string@DU?$char_traits@D@__1@std@@V?$allocator@D@23@@__1@std@@PBVImpl@time_zone@cctz@time_internal@absl@@@__1@std@@PAX@__1@std@@@__1@std@@@__1@std@@SAXAAV?$allocator@U?$__hash_node@U?$__hash_value_type@V?$basic_string@DU?$char_traits@D@__1@std@@V?$allocator@D@23@@__1@std@@PBVImpl@time_zone@cctz@time_internal@absl@@@__1@std@@PAX@__1@std@@@12@PAU?$pair@$$CBV?$basic_string@DU?$char_traits@D@__1@std@@V?$allocator@D@23@@__1@std@@PBVImpl@time_zone@cctz@time_internal@absl@@@12@ABUpiecewise_construct_t@12@$$QAV?$tuple@ABV?$basic_string@DU?$char_traits@D@__1@std@@V?$allocator@D@23@@__1@std@@@12@$$QAV?$tuple@$$V@12@@Z
    ??$construct@UConversionItem@ParsedFormatBase@str_format_internal@absl@@U1234@@?$allocator@UConversionItem@ParsedFormatBase@str_format_internal@absl@@@__1@std@@QAEXPAUConversionItem@ParsedFormatBase@str_format_internal@absl@@$$QAU3456@@Z
    ??$construct@UConversionItem@ParsedFormatBase@str_format_internal@absl@@U1234@X@?$allocator_traits@V?$allocator@UConversionItem@ParsedFormatBase@str_format_internal@absl@@@__1@std@@@__1@std@@SAXAAV?$allocator@UConversionItem@ParsedFormatBase@str_format_internal@absl@@@12@PAUConversionItem@ParsedFormatBase@str_format_internal@absl@@$$QAU4567@@Z
    ??$construct@UPayload@status_internal@absl@@ABU123@@?$allocator@UPayload@status_internal@absl@@@__1@std@@QAEXPAUPayload@status_internal@absl@@ABU345@@Z
    ??$construct@UPayload@status_internal@absl@@ABU123@@?$allocator_traits@V?$allocator@UPayload@status_internal@absl@@@__1@std@@@absl@@SAXAAV?$allocator@UPayload@status_internal@absl@@@__1@std@@PAUPayload@status_internal@1@ABU561@@Z
    ??$construct@UPayload@status_internal@absl@@U123@@?$allocator@UPayload@status_internal@absl@@@__1@std@@QAEXPAUPayload@status_internal@absl@@$$QAU345@@Z
    ??$construct@UPayload@status_internal@absl@@U123@@?$allocator_traits@V?$allocator@UPayload@status_internal@absl@@@__1@std@@@absl@@SAXAAV?$allocator@UPayload@status_internal@absl@@@__1@std@@PAUPayload@status_internal@1@$$QAU561@@Z
    ??$construct@USubRange@absl@@U12@@?$allocator@USubRange@absl@@@__1@std@@QAEXPAUSubRange@absl@@$$QAU34@@Z
    ??$construct@USubRange@absl@@U12@@?$allocator_traits@V?$allocator@USubRange@absl@@@__1@std@@@absl@@SAXAAV?$allocator@USubRange@absl@@@__1@std@@PAUSubRange@1@$$QAU51@@Z
    ??$construct@UTransition@cctz@time_internal@absl@@$$V@?$allocator@UTransition@cctz@time_internal@absl@@@__1@std@@QAEXPAUTransition@cctz@time_internal@absl@@@Z
    ??$construct@UTransition@cctz@time_internal@absl@@$$VX@?$allocator_traits@V?$allocator@UTransition@cctz@time_internal@absl@@@__1@std@@@__1@std@@SAXAAV?$allocator@UTransition@cctz@time_internal@absl@@@12@PAUTransition@cctz@time_internal@absl@@@Z
    ??$construct@UTransition@cctz@time_internal@absl@@ABU1234@@?$allocator@UTransition@cctz@time_internal@absl@@@__1@std@@QAEXPAUTransition@cctz@time_internal@absl@@ABU3456@@Z
    ??$construct@UTransition@cctz@time_internal@absl@@ABU1234@X@?$allocator_traits@V?$allocator@UTransition@cctz@time_internal@absl@@@__1@std@@@__1@std@@SAXAAV?$allocator@UTransition@cctz@time_internal@absl@@@12@PAUTransition@cctz@time_internal@absl@@ABU4567@@Z
    ??$construct@UTransition@cctz@time_internal@absl@@U1234@@?$allocator@UTransition@cctz@time_internal@absl@@@__1@std@@QAEXPAUTransition@cctz@time_internal@absl@@$$QAU3456@@Z
    ??$construct@UTransition@cctz@time_internal@absl@@U1234@X@?$allocator_traits@V?$allocator@UTransition@cctz@time_internal@absl@@@__1@std@@@__1@std@@SAXAAV?$allocator@UTransition@cctz@time_internal@absl@@@12@PAUTransition@cctz@time_internal@absl@@$$QAU4567@@Z
    ??$construct@UTransitionType@cctz@time_internal@absl@@$$V@?$allocator@UTransitionType@cctz@time_internal@absl@@@__1@std@@QAEXPAUTransitionType@cctz@time_internal@absl@@@Z
    ??$construct@UTransitionType@cctz@time_internal@absl@@$$VX@?$allocator_traits@V?$allocator@UTransitionType@cctz@time_internal@absl@@@__1@std@@@__1@std@@SAXAAV?$allocator@UTransitionType@cctz@time_internal@absl@@@12@PAUTransitionType@cctz@time_internal@absl@@@Z
    ??$construct@UTransitionType@cctz@time_internal@absl@@U1234@@?$allocator@UTransitionType@cctz@time_internal@absl@@@__1@std@@QAEXPAUTransitionType@cctz@time_internal@absl@@$$QAU3456@@Z
    ??$construct@UTransitionType@cctz@time_internal@absl@@U1234@X@?$allocator_traits@V?$allocator@UTransitionType@cctz@time_internal@absl@@@__1@std@@@__1@std@@SAXAAV?$allocator@UTransitionType@cctz@time_internal@absl@@@12@PAUTransitionType@cctz@time_internal@absl@@$$QAU4567@@Z
    ??$construct@UViableSubstitution@strings_internal@absl@@AAVstring_view@3@ABV43@AAI@?$allocator@UViableSubstitution@strings_internal@absl@@@__1@std@@QAEXPAUViableSubstitution@strings_internal@absl@@AAVstring_view@5@ABV65@AAI@Z
    ??$construct@UViableSubstitution@strings_internal@absl@@AAVstring_view@3@ABV43@AAIX@?$allocator_traits@V?$allocator@UViableSubstitution@strings_internal@absl@@@__1@std@@@__1@std@@SAXAAV?$allocator@UViableSubstitution@strings_internal@absl@@@12@PAUViableSubstitution@strings_internal@absl@@AAVstring_view@6@ABV76@AAI@Z
    ??$construct@V?$basic_string@DU?$char_traits@D@__1@std@@V?$allocator@D@23@@__1@std@@@?$optional_data_base@V?$basic_string@DU?$char_traits@D@__1@std@@V?$allocator@D@23@@__1@std@@@optional_internal@absl@@IAEX$$QAV?$basic_string@DU?$char_traits@D@__1@std@@V?$allocator@D@23@@__1@std@@@Z
    ??$construct_impl@V?$allocator@H@__1@std@@AAPAHABH@?$allocator_traits@V?$allocator@H@__1@std@@@absl@@CAXHAAV?$allocator@H@__1@std@@AAPAHABH@Z
    ??$construct_impl@V?$allocator@H@__1@std@@AAPAHH@?$allocator_traits@V?$allocator@H@__1@std@@@absl@@CAXHAAV?$allocator@H@__1@std@@AAPAH$$QAH@Z
    ??$construct_impl@V?$allocator@PAUCordRep@cord_internal@absl@@@__1@std@@AAPAPAUCordRep@cord_internal@absl@@ABQAU456@@?$allocator_traits@V?$allocator@PAUCordRep@cord_internal@absl@@@__1@std@@@absl@@CAXHAAV?$allocator@PAUCordRep@cord_internal@absl@@@__1@std@@AAPAPAUCordRep@cord_internal@1@ABQAU561@@Z
    ??$construct_impl@V?$allocator@PAUCordRep@cord_internal@absl@@@__1@std@@AAPAPAUCordRep@cord_internal@absl@@PAU456@@?$allocator_traits@V?$allocator@PAUCordRep@cord_internal@absl@@@__1@std@@@absl@@CAXHAAV?$allocator@PAUCordRep@cord_internal@absl@@@__1@std@@AAPAPAUCordRep@cord_internal@1@$$QAPAU561@@Z
    ??$construct_impl@V?$allocator@PBUCordRep@cord_internal@absl@@@__1@std@@AAPAPBUCordRep@cord_internal@absl@@ABQBU456@@?$allocator_traits@V?$allocator@PBUCordRep@cord_internal@absl@@@__1@std@@@absl@@CAXHAAV?$allocator@PBUCordRep@cord_internal@absl@@@__1@std@@AAPAPBUCordRep@cord_internal@1@ABQBU561@@Z
    ??$construct_impl@V?$allocator@PBUCordRep@cord_internal@absl@@@__1@std@@AAPAPBUCordRep@cord_internal@absl@@PBU456@@?$allocator_traits@V?$allocator@PBUCordRep@cord_internal@absl@@@__1@std@@@absl@@CAXHAAV?$allocator@PBUCordRep@cord_internal@absl@@@__1@std@@AAPAPBUCordRep@cord_internal@1@$$QAPBU561@@Z
    ??$construct_impl@V?$allocator@UPayload@status_internal@absl@@@__1@std@@AAPAUPayload@status_internal@absl@@ABU456@@?$allocator_traits@V?$allocator@UPayload@status_internal@absl@@@__1@std@@@absl@@CAXHAAV?$allocator@UPayload@status_internal@absl@@@__1@std@@AAPAUPayload@status_internal@1@ABU561@@Z
    ??$construct_impl@V?$allocator@UPayload@status_internal@absl@@@__1@std@@AAPAUPayload@status_internal@absl@@U456@@?$allocator_traits@V?$allocator@UPayload@status_internal@absl@@@__1@std@@@absl@@CAXHAAV?$allocator@UPayload@status_internal@absl@@@__1@std@@AAPAUPayload@status_internal@1@$$QAU561@@Z
    ??$construct_impl@V?$allocator@USubRange@absl@@@__1@std@@AAPAUSubRange@absl@@U45@@?$allocator_traits@V?$allocator@USubRange@absl@@@__1@std@@@absl@@CAXHAAV?$allocator@USubRange@absl@@@__1@std@@AAPAUSubRange@1@$$QAU51@@Z
    ??$copy@PBVFormatArgImpl@str_format_internal@absl@@PAV123@@__1@std@@YAPAVFormatArgImpl@str_format_internal@absl@@PBV234@0PAV234@@Z
    ??$countl_zero@_K@absl@@YAH_K@Z
    ??$destroy@H@?$allocator_traits@V?$allocator@H@__1@std@@@absl@@SAXAAV?$allocator@H@__1@std@@PAH@Z
    ??$destroy@PAPBVImpl@time_zone@cctz@time_internal@absl@@X@?$allocator_traits@V?$allocator@PAPBVImpl@time_zone@cctz@time_internal@absl@@@__1@std@@@__1@std@@SAXAAV?$allocator@PAPBVImpl@time_zone@cctz@time_internal@absl@@@12@PAPAPBVImpl@time_zone@cctz@time_internal@absl@@@Z
    ??$destroy@PAUCordRep@cord_internal@absl@@@?$allocator_traits@V?$allocator@PAUCordRep@cord_internal@absl@@@__1@std@@@absl@@SAXAAV?$allocator@PAUCordRep@cord_internal@absl@@@__1@std@@PAPAUCordRep@cord_internal@1@@Z
    ??$destroy@PAUCordRep@cord_internal@absl@@X@?$allocator_traits@V?$allocator@PAUCordRep@cord_internal@absl@@@__1@std@@@__1@std@@SAXAAV?$allocator@PAUCordRep@cord_internal@absl@@@12@PAPAUCordRep@cord_internal@absl@@@Z
    ??$destroy@PAVCordzHandle@cord_internal@absl@@X@?$allocator_traits@V?$allocator@PAVCordzHandle@cord_internal@absl@@@__1@std@@@__1@std@@SAXAAV?$allocator@PAVCordzHandle@cord_internal@absl@@@12@PAPAVCordzHandle@cord_internal@absl@@@Z
    ??$destroy@PBUCordRep@cord_internal@absl@@@?$allocator_traits@V?$allocator@PBUCordRep@cord_internal@absl@@@__1@std@@@absl@@SAXAAV?$allocator@PBUCordRep@cord_internal@absl@@@__1@std@@PAPBUCordRep@cord_internal@1@@Z
    ??$destroy@PBVCordzHandle@cord_internal@absl@@X@?$allocator_traits@V?$allocator@PBVCordzHandle@cord_internal@absl@@@__1@std@@@__1@std@@SAXAAV?$allocator@PBVCordzHandle@cord_internal@absl@@@12@PAPBVCordzHandle@cord_internal@absl@@@Z
    ??$destroy@U?$pair@$$CBV?$basic_string@DU?$char_traits@D@__1@std@@V?$allocator@D@23@@__1@std@@PBVImpl@time_zone@cctz@time_internal@absl@@@__1@std@@XX@?$allocator_traits@V?$allocator@U?$__hash_node@U?$__hash_value_type@V?$basic_string@DU?$char_traits@D@__1@std@@V?$allocator@D@23@@__1@std@@PBVImpl@time_zone@cctz@time_internal@absl@@@__1@std@@PAX@__1@std@@@__1@std@@@__1@std@@SAXAAV?$allocator@U?$__hash_node@U?$__hash_value_type@V?$basic_string@DU?$char_traits@D@__1@std@@V?$allocator@D@23@@__1@std@@PBVImpl@time_zone@cctz@time_internal@absl@@@__1@std@@PAX@__1@std@@@12@PAU?$pair@$$CBV?$basic_string@DU?$char_traits@D@__1@std@@V?$allocator@D@23@@__1@std@@PBVImpl@time_zone@cctz@time_internal@absl@@@12@@Z
    ??$destroy@UConversionItem@ParsedFormatBase@str_format_internal@absl@@X@?$allocator_traits@V?$allocator@UConversionItem@ParsedFormatBase@str_format_internal@absl@@@__1@std@@@__1@std@@SAXAAV?$allocator@UConversionItem@ParsedFormatBase@str_format_internal@absl@@@12@PAUConversionItem@ParsedFormatBase@str_format_internal@absl@@@Z
    ??$destroy@UPayload@status_internal@absl@@@?$allocator_traits@V?$allocator@UPayload@status_internal@absl@@@__1@std@@@absl@@SAXAAV?$allocator@UPayload@status_internal@absl@@@__1@std@@PAUPayload@status_internal@1@@Z
    ??$destroy@USubRange@absl@@@?$allocator_traits@V?$allocator@USubRange@absl@@@__1@std@@@absl@@SAXAAV?$allocator@USubRange@absl@@@__1@std@@PAUSubRange@1@@Z
    ??$destroy@UTransition@cctz@time_internal@absl@@X@?$allocator_traits@V?$allocator@UTransition@cctz@time_internal@absl@@@__1@std@@@__1@std@@SAXAAV?$allocator@UTransition@cctz@time_internal@absl@@@12@PAUTransition@cctz@time_internal@absl@@@Z
    ??$destroy@UTransitionType@cctz@time_internal@absl@@X@?$allocator_traits@V?$allocator@UTransitionType@cctz@time_internal@absl@@@__1@std@@@__1@std@@SAXAAV?$allocator@UTransitionType@cctz@time_internal@absl@@@12@PAUTransitionType@cctz@time_internal@absl@@@Z
    ??$destroy@UViableSubstitution@strings_internal@absl@@X@?$allocator_traits@V?$allocator@UViableSubstitution@strings_internal@absl@@@__1@std@@@__1@std@@SAXAAV?$allocator@UViableSubstitution@strings_internal@absl@@@12@PAUViableSubstitution@strings_internal@absl@@@Z
    ??$destroy@VFormatArgImpl@str_format_internal@absl@@X@?$allocator_traits@V?$allocator@VFormatArgImpl@str_format_internal@absl@@@__1@std@@@__1@std@@SAXAAV?$allocator@VFormatArgImpl@str_format_internal@absl@@@12@PAVFormatArgImpl@str_format_internal@absl@@@Z
    ??$destroy_impl@V?$allocator@H@__1@std@@H@?$allocator_traits@V?$allocator@H@__1@std@@@absl@@CAXHAAV?$allocator@H@__1@std@@PAH@Z
    ??$destroy_impl@V?$allocator@PAUCordRep@cord_internal@absl@@@__1@std@@PAUCordRep@cord_internal@absl@@@?$allocator_traits@V?$allocator@PAUCordRep@cord_internal@absl@@@__1@std@@@absl@@CAXHAAV?$allocator@PAUCordRep@cord_internal@absl@@@__1@std@@PAPAUCordRep@cord_internal@1@@Z
    ??$destroy_impl@V?$allocator@PBUCordRep@cord_internal@absl@@@__1@std@@PBUCordRep@cord_internal@absl@@@?$allocator_traits@V?$allocator@PBUCordRep@cord_internal@absl@@@__1@std@@@absl@@CAXHAAV?$allocator@PBUCordRep@cord_internal@absl@@@__1@std@@PAPBUCordRep@cord_internal@1@@Z
    ??$destroy_impl@V?$allocator@UPayload@status_internal@absl@@@__1@std@@UPayload@status_internal@absl@@@?$allocator_traits@V?$allocator@UPayload@status_internal@absl@@@__1@std@@@absl@@CAXHAAV?$allocator@UPayload@status_internal@absl@@@__1@std@@PAUPayload@status_internal@1@@Z
    ??$destroy_impl@V?$allocator@USubRange@absl@@@__1@std@@USubRange@absl@@@?$allocator_traits@V?$allocator@USubRange@absl@@@__1@std@@@absl@@CAXHAAV?$allocator@USubRange@absl@@@__1@std@@PAUSubRange@1@@Z
    ??$distance@PBUPayload@status_internal@absl@@@__1@std@@YAHPBUPayload@status_internal@absl@@0@Z
    ??$distance@PBUTransition@cctz@time_internal@absl@@@__1@std@@YAHPBUTransition@cctz@time_internal@absl@@0@Z
    ??$distance@PBVFormatArgImpl@str_format_internal@absl@@@__1@std@@YAHPBVFormatArgImpl@str_format_internal@absl@@0@Z
    ??$distance@V?$move_iterator@PAPAPBVImpl@time_zone@cctz@time_internal@absl@@@__1@std@@@__1@std@@YAHV?$move_iterator@PAPAPBVImpl@time_zone@cctz@time_internal@absl@@@01@0@Z
    ??$distance@V?$move_iterator@PAUTransition@cctz@time_internal@absl@@@__1@std@@@__1@std@@YAHV?$move_iterator@PAUTransition@cctz@time_internal@absl@@@01@0@Z
    ??$distance@V?$move_iterator@PAUTransitionType@cctz@time_internal@absl@@@__1@std@@@__1@std@@YAHV?$move_iterator@PAUTransitionType@cctz@time_internal@absl@@@01@0@Z
    ??$emplace@$$V@?$vector@UTransition@cctz@time_internal@absl@@V?$allocator@UTransition@cctz@time_internal@absl@@@__1@std@@@__1@std@@QAE?AV?$__wrap_iter@PAUTransition@cctz@time_internal@absl@@@12@V?$__wrap_iter@PBUTransition@cctz@time_internal@absl@@@12@@Z
    ??$emplace@$$V@?$vector@UTransitionType@cctz@time_internal@absl@@V?$allocator@UTransitionType@cctz@time_internal@absl@@@__1@std@@@__1@std@@QAE?AV?$__wrap_iter@PAUTransitionType@cctz@time_internal@absl@@@12@V?$__wrap_iter@PBUTransitionType@cctz@time_internal@absl@@@12@@Z
    ??$emplace_back@$$V@?$__split_buffer@UTransition@cctz@time_internal@absl@@AAV?$allocator@UTransition@cctz@time_internal@absl@@@__1@std@@@__1@std@@QAEXXZ
    ??$emplace_back@$$V@?$__split_buffer@UTransitionType@cctz@time_internal@absl@@AAV?$allocator@UTransitionType@cctz@time_internal@absl@@@__1@std@@@__1@std@@QAEXXZ
    ??$emplace_back@AAVstring_view@absl@@ABV12@AAI@?$vector@UViableSubstitution@strings_internal@absl@@V?$allocator@UViableSubstitution@strings_internal@absl@@@__1@std@@@__1@std@@QAEXAAVstring_view@absl@@ABV34@AAI@Z
    ??$emplace_back@ABH@?$InlinedVector@H$0CP@V?$allocator@H@__1@std@@@absl@@QAEAAHABH@Z
    ??$emplace_back@ABQAUCordRep@cord_internal@absl@@@?$InlinedVector@PAUCordRep@cord_internal@absl@@$01V?$allocator@PAUCordRep@cord_internal@absl@@@__1@std@@@absl@@QAEAAPAUCordRep@cord_internal@1@ABQAU231@@Z
    ??$emplace_back@ABQAUCordRep@cord_internal@absl@@@?$InlinedVector@PAUCordRep@cord_internal@absl@@$0CP@V?$allocator@PAUCordRep@cord_internal@absl@@@__1@std@@@absl@@QAEAAPAUCordRep@cord_internal@1@ABQAU231@@Z
    ??$emplace_back@ABQBUCordRep@cord_internal@absl@@@?$InlinedVector@PBUCordRep@cord_internal@absl@@$0CP@V?$allocator@PBUCordRep@cord_internal@absl@@@__1@std@@@absl@@QAEAAPBUCordRep@cord_internal@1@ABQBU231@@Z
    ??$emplace_back@PAUCordRep@cord_internal@absl@@@?$InlinedVector@PAUCordRep@cord_internal@absl@@$0CP@V?$allocator@PAUCordRep@cord_internal@absl@@@__1@std@@@absl@@QAEAAPAUCordRep@cord_internal@1@$$QAPAU231@@Z
    ??$emplace_back@UPayload@status_internal@absl@@@?$InlinedVector@UPayload@status_internal@absl@@$00V?$allocator@UPayload@status_internal@absl@@@__1@std@@@absl@@QAEAAUPayload@status_internal@1@$$QAU231@@Z
    ??$emplace_back@USubRange@absl@@@?$InlinedVector@USubRange@absl@@$0CP@V?$allocator@USubRange@absl@@@__1@std@@@absl@@QAEAAUSubRange@1@$$QAU21@@Z
    ??$find@V?$basic_string@DU?$char_traits@D@__1@std@@V?$allocator@D@23@@__1@std@@@?$__hash_table@U?$__hash_value_type@V?$basic_string@DU?$char_traits@D@__1@std@@V?$allocator@D@23@@__1@std@@PBVImpl@time_zone@cctz@time_internal@absl@@@__1@std@@V?$__unordered_map_hasher@V?$basic_string@DU?$char_traits@D@__1@std@@V?$allocator@D@23@@__1@std@@U?$__hash_value_type@V?$basic_string@DU?$char_traits@D@__1@std@@V?$allocator@D@23@@__1@std@@PBVImpl@time_zone@cctz@time_internal@absl@@@23@U?$hash@V?$basic_string@DU?$char_traits@D@__1@std@@V?$allocator@D@23@@__1@std@@@23@U?$equal_to@V?$basic_string@DU?$char_traits@D@__1@std@@V?$allocator@D@23@@__1@std@@@23@$00@23@V?$__unordered_map_equal@V?$basic_string@DU?$char_traits@D@__1@std@@V?$allocator@D@23@@__1@std@@U?$__hash_value_type@V?$basic_string@DU?$char_traits@D@__1@std@@V?$allocator@D@23@@__1@std@@PBVImpl@time_zone@cctz@time_internal@absl@@@23@U?$equal_to@V?$basic_string@DU?$char_traits@D@__1@std@@V?$allocator@D@23@@__1@std@@@23@U?$hash@V?$basic_string@DU?$char_traits@D@__1@std@@V?$allocator@D@23@@__1@std@@@23@$00@23@V?$allocator@U?$__hash_value_type@V?$basic_string@DU?$char_traits@D@__1@std@@V?$allocator@D@23@@__1@std@@PBVImpl@time_zone@cctz@time_internal@absl@@@__1@std@@@23@@__1@std@@QAE?AV?$__hash_iterator@PAU?$__hash_node@U?$__hash_value_type@V?$basic_string@DU?$char_traits@D@__1@std@@V?$allocator@D@23@@__1@std@@PBVImpl@time_zone@cctz@time_internal@absl@@@__1@std@@PAX@__1@std@@@12@ABV?$basic_string@DU?$char_traits@D@__1@std@@V?$allocator@D@23@@12@@Z
    ??$forward@$$T@absl@@YA$$QA$$TAA$$T@Z
    ??$forward@AAI@absl@@YAAAIAAI@Z
    ??$forward@AAPAPAUCordRep@cord_internal@absl@@@__1@std@@YAAAPAPAUCordRep@cord_internal@absl@@AAPAPAU234@@Z
    ??$forward@AAPAPBUCordRep@cord_internal@absl@@@__1@std@@YAAAPAPBUCordRep@cord_internal@absl@@AAPAPBU234@@Z
    ??$forward@AAPAPBVImpl@time_zone@cctz@time_internal@absl@@@__1@std@@YAAAPAPBVImpl@time_zone@cctz@time_internal@absl@@AAPAPBV23456@@Z
    ??$forward@AAPAU?$__hash_node@U?$__hash_value_type@V?$basic_string@DU?$char_traits@D@__1@std@@V?$allocator@D@23@@__1@std@@PBVImpl@time_zone@cctz@time_internal@absl@@@__1@std@@PAX@__1@std@@@__1@std@@YAAAPAU?$__hash_node@U?$__hash_value_type@V?$basic_string@DU?$char_traits@D@__1@std@@V?$allocator@D@23@@__1@std@@PBVImpl@time_zone@cctz@time_internal@absl@@@__1@std@@PAX@01@AAPAU201@@Z
    ??$forward@AAPAUPayload@status_internal@absl@@@__1@std@@YAAAPAUPayload@status_internal@absl@@AAPAU234@@Z
    ??$forward@AAPAUSubRange@absl@@@__1@std@@YAAAPAUSubRange@absl@@AAPAU23@@Z
    ??$forward@AAPAUThreadIdentity@base_internal@absl@@@__1@std@@YAAAPAUThreadIdentity@base_internal@absl@@AAPAU234@@Z
    ??$forward@AAPAV?$InlinedVector@UPayload@status_internal@absl@@$00V?$allocator@UPayload@status_internal@absl@@@__1@std@@@absl@@@__1@std@@YAAAPAV?$InlinedVector@UPayload@status_internal@absl@@$00V?$allocator@UPayload@status_internal@absl@@@__1@std@@@absl@@AAPAV23@@Z
    ??$forward@AAPAVTimeZoneIf@cctz@time_internal@absl@@@__1@std@@YAAAPAVTimeZoneIf@cctz@time_internal@absl@@AAPAV2345@@Z
    ??$forward@AAPAVTimeZoneInfo@cctz@time_internal@absl@@@__1@std@@YAAAPAVTimeZoneInfo@cctz@time_internal@absl@@AAPAV2345@@Z
    ??$forward@AAPAVZoneInfoSource@cctz@time_internal@absl@@@__1@std@@YAAAPAVZoneInfoSource@cctz@time_internal@absl@@AAPAV2345@@Z
    ??$forward@AAPBVImpl@time_zone@cctz@time_internal@absl@@@__1@std@@YAAAPBVImpl@time_zone@cctz@time_internal@absl@@AAPBV23456@@Z
    ??$forward@AAV?$InlinedVector@UPayload@status_internal@absl@@$00V?$allocator@UPayload@status_internal@absl@@@__1@std@@@absl@@@__1@std@@YAAAV?$InlinedVector@UPayload@status_internal@absl@@$00V?$allocator@UPayload@status_internal@absl@@@__1@std@@@absl@@AAV23@@Z
    ??$forward@AAV?$allocator@H@__1@std@@@absl@@YAAAV?$allocator@H@__1@std@@AAV123@@Z
    ??$forward@AAV?$allocator@PAPBVImpl@time_zone@cctz@time_internal@absl@@@__1@std@@@__1@std@@YAAAV?$allocator@PAPBVImpl@time_zone@cctz@time_internal@absl@@@01@AAV201@@Z
    ??$forward@AAV?$allocator@PAUCordRep@cord_internal@absl@@@__1@std@@@__1@std@@YAAAV?$allocator@PAUCordRep@cord_internal@absl@@@01@AAV201@@Z
    ??$forward@AAV?$allocator@PAUCordRep@cord_internal@absl@@@__1@std@@@absl@@YAAAV?$allocator@PAUCordRep@cord_internal@absl@@@__1@std@@AAV123@@Z
    ??$forward@AAV?$allocator@PAVCordzHandle@cord_internal@absl@@@__1@std@@@__1@std@@YAAAV?$allocator@PAVCordzHandle@cord_internal@absl@@@01@AAV201@@Z
    ??$forward@AAV?$allocator@PBUCordRep@cord_internal@absl@@@__1@std@@@absl@@YAAAV?$allocator@PBUCordRep@cord_internal@absl@@@__1@std@@AAV123@@Z
    ??$forward@AAV?$allocator@PBVCordzHandle@cord_internal@absl@@@__1@std@@@__1@std@@YAAAV?$allocator@PBVCordzHandle@cord_internal@absl@@@01@AAV201@@Z
    ??$forward@AAV?$allocator@UConversionItem@ParsedFormatBase@str_format_internal@absl@@@__1@std@@@__1@std@@YAAAV?$allocator@UConversionItem@ParsedFormatBase@str_format_internal@absl@@@01@AAV201@@Z
    ??$forward@AAV?$allocator@UPayload@status_internal@absl@@@__1@std@@@absl@@YAAAV?$allocator@UPayload@status_internal@absl@@@__1@std@@AAV123@@Z
    ??$forward@AAV?$allocator@USubRange@absl@@@__1@std@@@absl@@YAAAV?$allocator@USubRange@absl@@@__1@std@@AAV123@@Z
    ??$forward@AAV?$allocator@UTransition@cctz@time_internal@absl@@@__1@std@@@__1@std@@YAAAV?$allocator@UTransition@cctz@time_internal@absl@@@01@AAV201@@Z
    ??$forward@AAV?$allocator@UTransitionType@cctz@time_internal@absl@@@__1@std@@@__1@std@@YAAAV?$allocator@UTransitionType@cctz@time_internal@absl@@@01@AAV201@@Z
    ??$forward@AAV?$allocator@UViableSubstitution@strings_internal@absl@@@__1@std@@@__1@std@@YAAAV?$allocator@UViableSubstitution@strings_internal@absl@@@01@AAV201@@Z
    ??$forward@AAVstring_view@absl@@@__1@std@@YAAAVstring_view@absl@@AAV23@@Z
    ??$forward@ABQAPBVImpl@time_zone@cctz@time_internal@absl@@@__1@std@@YAABQAPBVImpl@time_zone@cctz@time_internal@absl@@ABQAPBV23456@@Z
    ??$forward@ABQAUCordRep@cord_internal@absl@@@__1@std@@YAABQAUCordRep@cord_internal@absl@@ABQAU234@@Z
    ??$forward@ABQAVCordzHandle@cord_internal@absl@@@__1@std@@YAABQAVCordzHandle@cord_internal@absl@@ABQAV234@@Z
    ??$forward@ABQBUCordRep@cord_internal@absl@@@__1@std@@YAABQBUCordRep@cord_internal@absl@@ABQBU234@@Z
    ??$forward@ABQBVCordzHandle@cord_internal@absl@@@__1@std@@YAABQBVCordzHandle@cord_internal@absl@@ABQBV234@@Z
    ??$forward@ABQBVImpl@time_zone@cctz@time_internal@absl@@@__1@std@@YAABQBVImpl@time_zone@cctz@time_internal@absl@@ABQBV23456@@Z
    ??$forward@ABUHashtablezInfo@container_internal@absl@@@__1@std@@YAABUHashtablezInfo@container_internal@absl@@ABU234@@Z
    ??$forward@ABUPayload@status_internal@absl@@@__1@std@@YAABUPayload@status_internal@absl@@ABU234@@Z
    ??$forward@ABUTransition@cctz@time_internal@absl@@@__1@std@@YAABUTransition@cctz@time_internal@absl@@ABU2345@@Z
    ??$forward@ABV?$allocator@PAUCordRep@cord_internal@absl@@@__1@std@@@absl@@YAABV?$allocator@PAUCordRep@cord_internal@absl@@@__1@std@@ABV123@@Z
    ??$forward@ABV?$allocator@UPayload@status_internal@absl@@@__1@std@@@absl@@YAABV?$allocator@UPayload@status_internal@absl@@@__1@std@@ABV123@@Z
    ??$forward@ABVCord@absl@@@__1@std@@YAABVCord@absl@@ABV23@@Z
    ??$forward@ABVCord@absl@@@absl@@YAABVCord@0@ABV10@@Z
    ??$forward@ABVstring_view@absl@@@__1@std@@YAABVstring_view@absl@@ABV23@@Z
    ??$forward@H@absl@@YA$$QAHAAH@Z
    ??$forward@I@absl@@YA$$QAIAAI@Z
    ??$forward@PAPAU?$__hash_node_base@PAU?$__hash_node@U?$__hash_value_type@V?$basic_string@DU?$char_traits@D@__1@std@@V?$allocator@D@23@@__1@std@@PBVImpl@time_zone@cctz@time_internal@absl@@@__1@std@@PAX@__1@std@@@__1@std@@@__1@std@@YA$$QAPAPAU?$__hash_node_base@PAU?$__hash_node@U?$__hash_value_type@V?$basic_string@DU?$char_traits@D@__1@std@@V?$allocator@D@23@@__1@std@@PBVImpl@time_zone@cctz@time_internal@absl@@@__1@std@@PAX@__1@std@@@01@AAPAPAU201@@Z
    ??$forward@PAPBVImpl@time_zone@cctz@time_internal@absl@@@__1@std@@YA$$QAPAPBVImpl@time_zone@cctz@time_internal@absl@@AAPAPBV23456@@Z
    ??$forward@PAUCordRep@cord_internal@absl@@@__1@std@@YA$$QAPAUCordRep@cord_internal@absl@@AAPAU234@@Z
    ??$forward@PAV?$InlinedVector@UPayload@status_internal@absl@@$00V?$allocator@UPayload@status_internal@absl@@@__1@std@@@absl@@@__1@std@@YA$$QAPAV?$InlinedVector@UPayload@status_internal@absl@@$00V?$allocator@UPayload@status_internal@absl@@@__1@std@@@absl@@AAPAV23@@Z
    ??$forward@PAVCondVar@absl@@@__1@std@@YA$$QAPAVCondVar@absl@@AAPAV23@@Z
    ??$forward@PAVMutex@absl@@@__1@std@@YA$$QAPAVMutex@absl@@AAPAV23@@Z
    ??$forward@PAVSpinLock@base_internal@absl@@@__1@std@@YA$$QAPAVSpinLock@base_internal@absl@@AAPAV234@@Z
    ??$forward@PAVZoneInfoSource@cctz@time_internal@absl@@@__1@std@@YA$$QAPAVZoneInfoSource@cctz@time_internal@absl@@AAPAV2345@@Z
    ??$forward@PBUCordRep@cord_internal@absl@@@__1@std@@YA$$QAPBUCordRep@cord_internal@absl@@AAPBU234@@Z
    ??$forward@U?$default_delete@V?$InlinedVector@UPayload@status_internal@absl@@$00V?$allocator@UPayload@status_internal@absl@@@__1@std@@@absl@@@__1@std@@@__1@std@@YA$$QAU?$default_delete@V?$InlinedVector@UPayload@status_internal@absl@@$00V?$allocator@UPayload@status_internal@absl@@@__1@std@@@absl@@@01@AAU201@@Z
    ??$forward@UConversionItem@ParsedFormatBase@str_format_internal@absl@@@__1@std@@YA$$QAUConversionItem@ParsedFormatBase@str_format_internal@absl@@AAU2345@@Z
    ??$forward@UPayload@status_internal@absl@@@__1@std@@YA$$QAUPayload@status_internal@absl@@AAU234@@Z
    ??$forward@USubRange@absl@@@__1@std@@YA$$QAUSubRange@absl@@AAU23@@Z
    ??$forward@UTransition@cctz@time_internal@absl@@@__1@std@@YA$$QAUTransition@cctz@time_internal@absl@@AAU2345@@Z
    ??$forward@UTransitionType@cctz@time_internal@absl@@@__1@std@@YA$$QAUTransitionType@cctz@time_internal@absl@@AAU2345@@Z
    ??$forward@V?$Span@I@absl@@@__1@std@@YA$$QAV?$Span@I@absl@@AAV23@@Z
    ??$forward@V?$__allocator_destructor@V?$allocator@PBVImpl@time_zone@cctz@time_internal@absl@@@__1@std@@@__1@std@@@__1@std@@YA$$QAV?$__allocator_destructor@V?$allocator@PBVImpl@time_zone@cctz@time_internal@absl@@@__1@std@@@01@AAV201@@Z
    ??$forward@V?$__hash_iterator@PAU?$__hash_node@U?$__hash_value_type@V?$basic_string@DU?$char_traits@D@__1@std@@V?$allocator@D@23@@__1@std@@PBVImpl@time_zone@cctz@time_internal@absl@@@__1@std@@PAX@__1@std@@@__1@std@@@__1@std@@YA$$QAV?$__hash_iterator@PAU?$__hash_node@U?$__hash_value_type@V?$basic_string@DU?$char_traits@D@__1@std@@V?$allocator@D@23@@__1@std@@PBVImpl@time_zone@cctz@time_internal@absl@@@__1@std@@PAX@__1@std@@@01@AAV201@@Z
    ??$forward@V?$__hash_node_destructor@V?$allocator@U?$__hash_node@U?$__hash_value_type@V?$basic_string@DU?$char_traits@D@__1@std@@V?$allocator@D@23@@__1@std@@PBVImpl@time_zone@cctz@time_internal@absl@@@__1@std@@PAX@__1@std@@@__1@std@@@__1@std@@@__1@std@@YA$$QAV?$__hash_node_destructor@V?$allocator@U?$__hash_node@U?$__hash_value_type@V?$basic_string@DU?$char_traits@D@__1@std@@V?$allocator@D@23@@__1@std@@PBVImpl@time_zone@cctz@time_internal@absl@@@__1@std@@PAX@__1@std@@@__1@std@@@01@AAV201@@Z
    ??$forward@V?$allocator@H@__1@std@@@absl@@YA$$QAV?$allocator@H@__1@std@@AAV123@@Z
    ??$forward@V?$allocator@PAUCordRep@cord_internal@absl@@@__1@std@@@absl@@YA$$QAV?$allocator@PAUCordRep@cord_internal@absl@@@__1@std@@AAV123@@Z
    ??$forward@V?$allocator@PBUCordRep@cord_internal@absl@@@__1@std@@@absl@@YA$$QAV?$allocator@PBUCordRep@cord_internal@absl@@@__1@std@@AAV123@@Z
    ??$forward@V?$allocator@UPayload@status_internal@absl@@@__1@std@@@absl@@YA$$QAV?$allocator@UPayload@status_internal@absl@@@__1@std@@AAV123@@Z
    ??$forward@V?$allocator@USubRange@absl@@@__1@std@@@absl@@YA$$QAV?$allocator@USubRange@absl@@@__1@std@@AAV123@@Z
    ??$forward@VCord@absl@@@__1@std@@YA$$QAVCord@absl@@AAV23@@Z
    ??$forward@Vstring_view@absl@@@__1@std@@YA$$QAVstring_view@absl@@AAV23@@Z
    ??$forward@W4LogSeverity@absl@@@__1@std@@YA$$QAW4LogSeverity@absl@@AAW423@@Z
    ??$get@$00@?$CompressedTuple@IV?$allocator@PAUCordRep@cord_internal@absl@@@__1@std@@@container_internal@absl@@QGAEAAV?$allocator@PAUCordRep@cord_internal@absl@@@__1@std@@XZ
    ??$get@$00@?$CompressedTuple@V?$allocator@H@__1@std@@I@container_internal@absl@@QGAEAAIXZ
    ??$get@$00@?$CompressedTuple@V?$allocator@H@__1@std@@I@container_internal@absl@@QGBEABIXZ
    ??$get@$00@?$CompressedTuple@V?$allocator@H@__1@std@@PAH@container_internal@absl@@QGAEAAPAHXZ
    ??$get@$00@?$CompressedTuple@V?$allocator@PAUCordRep@cord_internal@absl@@@__1@std@@I@container_internal@absl@@QGAEAAIXZ
    ??$get@$00@?$CompressedTuple@V?$allocator@PAUCordRep@cord_internal@absl@@@__1@std@@I@container_internal@absl@@QGBEABIXZ
    ??$get@$00@?$CompressedTuple@V?$allocator@PAUCordRep@cord_internal@absl@@@__1@std@@PAPAUCordRep@cord_internal@absl@@@container_internal@absl@@QGAEAAPAPAUCordRep@cord_internal@2@XZ
    ??$get@$00@?$CompressedTuple@V?$allocator@PBUCordRep@cord_internal@absl@@@__1@std@@I@container_internal@absl@@QGAEAAIXZ
    ??$get@$00@?$CompressedTuple@V?$allocator@PBUCordRep@cord_internal@absl@@@__1@std@@I@container_internal@absl@@QGBEABIXZ
    ??$get@$00@?$CompressedTuple@V?$allocator@PBUCordRep@cord_internal@absl@@@__1@std@@PAPBUCordRep@cord_internal@absl@@@container_internal@absl@@QGAEAAPAPBUCordRep@cord_internal@2@XZ
    ??$get@$00@?$CompressedTuple@V?$allocator@UPayload@status_internal@absl@@@__1@std@@I@container_internal@absl@@QGAEAAIXZ
    ??$get@$00@?$CompressedTuple@V?$allocator@UPayload@status_internal@absl@@@__1@std@@I@container_internal@absl@@QGBEABIXZ
    ??$get@$00@?$CompressedTuple@V?$allocator@UPayload@status_internal@absl@@@__1@std@@PAUPayload@status_internal@absl@@@container_internal@absl@@QGAEAAPAUPayload@status_internal@2@XZ
    ??$get@$00@?$CompressedTuple@V?$allocator@USubRange@absl@@@__1@std@@I@container_internal@absl@@QGAEAAIXZ
    ??$get@$00@?$CompressedTuple@V?$allocator@USubRange@absl@@@__1@std@@I@container_internal@absl@@QGBEABIXZ
    ??$get@$00@?$CompressedTuple@V?$allocator@USubRange@absl@@@__1@std@@PAUSubRange@absl@@@container_internal@absl@@QGAEAAPAUSubRange@2@XZ
    ??$get@$00Vstring_view@absl@@V12@@__1@std@@YAABVstring_view@absl@@ABU?$pair@Vstring_view@absl@@V12@@01@@Z
    ??$get@$0A@@?$CompressedTuple@IV?$allocator@PAUCordRep@cord_internal@absl@@@__1@std@@@container_internal@absl@@QGBEABIXZ
    ??$get@$0A@@?$CompressedTuple@V?$allocator@H@__1@std@@I@container_internal@absl@@QGAEAAV?$allocator@H@__1@std@@XZ
    ??$get@$0A@@?$CompressedTuple@V?$allocator@H@__1@std@@PAH@container_internal@absl@@QGAEAAV?$allocator@H@__1@std@@XZ
    ??$get@$0A@@?$CompressedTuple@V?$allocator@PAUCordRep@cord_internal@absl@@@__1@std@@I@container_internal@absl@@QGAEAAV?$allocator@PAUCordRep@cord_internal@absl@@@__1@std@@XZ
    ??$get@$0A@@?$CompressedTuple@V?$allocator@PAUCordRep@cord_internal@absl@@@__1@std@@PAPAUCordRep@cord_internal@absl@@@container_internal@absl@@QGAEAAV?$allocator@PAUCordRep@cord_internal@absl@@@__1@std@@XZ
    ??$get@$0A@@?$CompressedTuple@V?$allocator@PBUCordRep@cord_internal@absl@@@__1@std@@I@container_internal@absl@@QGAEAAV?$allocator@PBUCordRep@cord_internal@absl@@@__1@std@@XZ
    ??$get@$0A@@?$CompressedTuple@V?$allocator@PBUCordRep@cord_internal@absl@@@__1@std@@PAPBUCordRep@cord_internal@absl@@@container_internal@absl@@QGAEAAV?$allocator@PBUCordRep@cord_internal@absl@@@__1@std@@XZ
    ??$get@$0A@@?$CompressedTuple@V?$allocator@UPayload@status_internal@absl@@@__1@std@@I@container_internal@absl@@QGAEAAV?$allocator@UPayload@status_internal@absl@@@__1@std@@XZ
    ??$get@$0A@@?$CompressedTuple@V?$allocator@UPayload@status_internal@absl@@@__1@std@@I@container_internal@absl@@QGBEABV?$allocator@UPayload@status_internal@absl@@@__1@std@@XZ
    ??$get@$0A@@?$CompressedTuple@V?$allocator@UPayload@status_internal@absl@@@__1@std@@PAUPayload@status_internal@absl@@@container_internal@absl@@QGAEAAV?$allocator@UPayload@status_internal@absl@@@__1@std@@XZ
    ??$get@$0A@@?$CompressedTuple@V?$allocator@USubRange@absl@@@__1@std@@I@container_internal@absl@@QGAEAAV?$allocator@USubRange@absl@@@__1@std@@XZ
    ??$get@$0A@@?$CompressedTuple@V?$allocator@USubRange@absl@@@__1@std@@PAUSubRange@absl@@@container_internal@absl@@QGAEAAV?$allocator@USubRange@absl@@@__1@std@@XZ
    ??$get@$0A@Vstring_view@absl@@V12@@__1@std@@YAABVstring_view@absl@@ABU?$pair@Vstring_view@absl@@V12@@01@@Z
    ??$get@Vstring_view@absl@@V12@@?$__get_pair@$00@__1@std@@SAABVstring_view@absl@@ABU?$pair@Vstring_view@absl@@V12@@12@@Z
    ??$get@Vstring_view@absl@@V12@@?$__get_pair@$0A@@__1@std@@SAABVstring_view@absl@@ABU?$pair@Vstring_view@absl@@V12@@12@@Z
    ??$invoke@A6AXXZ$$V@base_internal@absl@@YAXA6AXXZ@Z
    ??$lower_bound@PBUTransition@cctz@time_internal@absl@@U1234@UByUnixTime@1234@@__1@std@@YAPBUTransition@cctz@time_internal@absl@@PBU2345@0ABU2345@UByUnixTime@2345@@Z
    ??$make_unique@V?$InlinedVector@UPayload@status_internal@absl@@$00V?$allocator@UPayload@status_internal@absl@@@__1@std@@@absl@@$$V@__1@std@@YA?AV?$unique_ptr@V?$InlinedVector@UPayload@status_internal@absl@@$00V?$allocator@UPayload@status_internal@absl@@@__1@std@@@absl@@U?$default_delete@V?$InlinedVector@UPayload@status_internal@absl@@$00V?$allocator@UPayload@status_internal@absl@@@__1@std@@@absl@@@__1@std@@@01@XZ
    ??$make_unique@V?$InlinedVector@UPayload@status_internal@absl@@$00V?$allocator@UPayload@status_internal@absl@@@__1@std@@@absl@@AAV12@@__1@std@@YA?AV?$unique_ptr@V?$InlinedVector@UPayload@status_internal@absl@@$00V?$allocator@UPayload@status_internal@absl@@@__1@std@@@absl@@U?$default_delete@V?$InlinedVector@UPayload@status_internal@absl@@$00V?$allocator@UPayload@status_internal@absl@@@__1@std@@@absl@@@__1@std@@@01@AAV?$InlinedVector@UPayload@status_internal@absl@@$00V?$allocator@UPayload@status_internal@absl@@@__1@std@@@absl@@@Z
    ??$max_size@V?$allocator@PAPBVImpl@time_zone@cctz@time_internal@absl@@@__1@std@@X@?$allocator_traits@V?$allocator@PAPBVImpl@time_zone@cctz@time_internal@absl@@@__1@std@@@__1@std@@SAIABV?$allocator@PAPBVImpl@time_zone@cctz@time_internal@absl@@@12@@Z
    ??$max_size@V?$allocator@PAU?$__hash_node_base@PAU?$__hash_node@U?$__hash_value_type@V?$basic_string@DU?$char_traits@D@__1@std@@V?$allocator@D@23@@__1@std@@PBVImpl@time_zone@cctz@time_internal@absl@@@__1@std@@PAX@__1@std@@@__1@std@@@__1@std@@X@?$allocator_traits@V?$allocator@PAU?$__hash_node_base@PAU?$__hash_node@U?$__hash_value_type@V?$basic_string@DU?$char_traits@D@__1@std@@V?$allocator@D@23@@__1@std@@PBVImpl@time_zone@cctz@time_internal@absl@@@__1@std@@PAX@__1@std@@@__1@std@@@__1@std@@@__1@std@@SAIABV?$allocator@PAU?$__hash_node_base@PAU?$__hash_node@U?$__hash_value_type@V?$basic_string@DU?$char_traits@D@__1@std@@V?$allocator@D@23@@__1@std@@PBVImpl@time_zone@cctz@time_internal@absl@@@__1@std@@PAX@__1@std@@@__1@std@@@12@@Z
    ??$max_size@V?$allocator@PAUCordRep@cord_internal@absl@@@__1@std@@X@?$allocator_traits@V?$allocator@PAUCordRep@cord_internal@absl@@@__1@std@@@__1@std@@SAIABV?$allocator@PAUCordRep@cord_internal@absl@@@12@@Z
    ??$max_size@V?$allocator@PAVCordzHandle@cord_internal@absl@@@__1@std@@X@?$allocator_traits@V?$allocator@PAVCordzHandle@cord_internal@absl@@@__1@std@@@__1@std@@SAIABV?$allocator@PAVCordzHandle@cord_internal@absl@@@12@@Z
    ??$max_size@V?$allocator@PBUCordRep@cord_internal@absl@@@__1@std@@X@?$allocator_traits@V?$allocator@PBUCordRep@cord_internal@absl@@@__1@std@@@__1@std@@SAIABV?$allocator@PBUCordRep@cord_internal@absl@@@12@@Z
    ??$max_size@V?$allocator@PBVCordzHandle@cord_internal@absl@@@__1@std@@X@?$allocator_traits@V?$allocator@PBVCordzHandle@cord_internal@absl@@@__1@std@@@__1@std@@SAIABV?$allocator@PBVCordzHandle@cord_internal@absl@@@12@@Z
    ??$max_size@V?$allocator@PBVImpl@time_zone@cctz@time_internal@absl@@@__1@std@@X@?$allocator_traits@V?$allocator@PBVImpl@time_zone@cctz@time_internal@absl@@@__1@std@@@__1@std@@SAIABV?$allocator@PBVImpl@time_zone@cctz@time_internal@absl@@@12@@Z
    ??$max_size@V?$allocator@U?$__hash_node@U?$__hash_value_type@V?$basic_string@DU?$char_traits@D@__1@std@@V?$allocator@D@23@@__1@std@@PBVImpl@time_zone@cctz@time_internal@absl@@@__1@std@@PAX@__1@std@@@__1@std@@X@?$allocator_traits@V?$allocator@U?$__hash_node@U?$__hash_value_type@V?$basic_string@DU?$char_traits@D@__1@std@@V?$allocator@D@23@@__1@std@@PBVImpl@time_zone@cctz@time_internal@absl@@@__1@std@@PAX@__1@std@@@__1@std@@@__1@std@@SAIABV?$allocator@U?$__hash_node@U?$__hash_value_type@V?$basic_string@DU?$char_traits@D@__1@std@@V?$allocator@D@23@@__1@std@@PBVImpl@time_zone@cctz@time_internal@absl@@@__1@std@@PAX@__1@std@@@12@@Z
    ??$max_size@V?$allocator@UConversionItem@ParsedFormatBase@str_format_internal@absl@@@__1@std@@X@?$allocator_traits@V?$allocator@UConversionItem@ParsedFormatBase@str_format_internal@absl@@@__1@std@@@__1@std@@SAIABV?$allocator@UConversionItem@ParsedFormatBase@str_format_internal@absl@@@12@@Z
    ??$max_size@V?$allocator@UPayload@status_internal@absl@@@__1@std@@X@?$allocator_traits@V?$allocator@UPayload@status_internal@absl@@@__1@std@@@__1@std@@SAIABV?$allocator@UPayload@status_internal@absl@@@12@@Z
    ??$max_size@V?$allocator@USubRange@absl@@@__1@std@@X@?$allocator_traits@V?$allocator@USubRange@absl@@@__1@std@@@__1@std@@SAIABV?$allocator@USubRange@absl@@@12@@Z
    ??$max_size@V?$allocator@UTransition@cctz@time_internal@absl@@@__1@std@@X@?$allocator_traits@V?$allocator@UTransition@cctz@time_internal@absl@@@__1@std@@@__1@std@@SAIABV?$allocator@UTransition@cctz@time_internal@absl@@@12@@Z
    ??$max_size@V?$allocator@UTransitionType@cctz@time_internal@absl@@@__1@std@@X@?$allocator_traits@V?$allocator@UTransitionType@cctz@time_internal@absl@@@__1@std@@@__1@std@@SAIABV?$allocator@UTransitionType@cctz@time_internal@absl@@@12@@Z
    ??$max_size@V?$allocator@UViableSubstitution@strings_internal@absl@@@__1@std@@X@?$allocator_traits@V?$allocator@UViableSubstitution@strings_internal@absl@@@__1@std@@@__1@std@@SAIABV?$allocator@UViableSubstitution@strings_internal@absl@@@12@@Z
    ??$max_size@V?$allocator@VFormatArgImpl@str_format_internal@absl@@@__1@std@@X@?$allocator_traits@V?$allocator@VFormatArgImpl@str_format_internal@absl@@@__1@std@@@__1@std@@SAIABV?$allocator@VFormatArgImpl@str_format_internal@absl@@@12@@Z
    ??$min@VDuration@absl@@@__1@std@@YAABVDuration@absl@@ABV23@0@Z
    ??$min@VDuration@absl@@U?$__less@VDuration@absl@@V12@@__1@std@@@__1@std@@YAABVDuration@absl@@ABV23@0U?$__less@VDuration@absl@@V12@@01@@Z
    ??$move@AAPAPAPBVImpl@time_zone@cctz@time_internal@absl@@@__1@std@@YA$$QAPAPAPBVImpl@time_zone@cctz@time_internal@absl@@AAPAPAPBV23456@@Z
    ??$move@AAPAPAUCordRep@cord_internal@absl@@@__1@std@@YA$$QAPAPAUCordRep@cord_internal@absl@@AAPAPAU234@@Z
    ??$move@AAPAPAVCordzHandle@cord_internal@absl@@@__1@std@@YA$$QAPAPAVCordzHandle@cord_internal@absl@@AAPAPAV234@@Z
    ??$move@AAPAPBVCordzHandle@cord_internal@absl@@@__1@std@@YA$$QAPAPBVCordzHandle@cord_internal@absl@@AAPAPBV234@@Z
    ??$move@AAPAPBVImpl@time_zone@cctz@time_internal@absl@@@__1@std@@YA$$QAPAPBVImpl@time_zone@cctz@time_internal@absl@@AAPAPBV23456@@Z
    ??$move@AAPAUConversionItem@ParsedFormatBase@str_format_internal@absl@@@__1@std@@YA$$QAPAUConversionItem@ParsedFormatBase@str_format_internal@absl@@AAPAU2345@@Z
    ??$move@AAPAUCordRep@cord_internal@absl@@@__1@std@@YA$$QAPAUCordRep@cord_internal@absl@@AAPAU234@@Z
    ??$move@AAPAUTransition@cctz@time_internal@absl@@@__1@std@@YA$$QAPAUTransition@cctz@time_internal@absl@@AAPAU2345@@Z
    ??$move@AAPAUTransitionType@cctz@time_internal@absl@@@__1@std@@YA$$QAPAUTransitionType@cctz@time_internal@absl@@AAPAU2345@@Z
    ??$move@AAPAUViableSubstitution@strings_internal@absl@@@__1@std@@YA$$QAPAUViableSubstitution@strings_internal@absl@@AAPAU234@@Z
    ??$move@AAPBV?$InlinedVector@UPayload@status_internal@absl@@$00V?$allocator@UPayload@status_internal@absl@@@__1@std@@@absl@@@__1@std@@YA$$QAPBV?$InlinedVector@UPayload@status_internal@absl@@$00V?$allocator@UPayload@status_internal@absl@@@__1@std@@@absl@@AAPBV23@@Z
    ??$move@AAUConversionItem@ParsedFormatBase@str_format_internal@absl@@@__1@std@@YA$$QAUConversionItem@ParsedFormatBase@str_format_internal@absl@@AAU2345@@Z
    ??$move@AAUPayload@status_internal@absl@@@__1@std@@YA$$QAUPayload@status_internal@absl@@AAU234@@Z
    ??$move@AAUSubRange@absl@@@__1@std@@YA$$QAUSubRange@absl@@AAU23@@Z
    ??$move@AAUTransition@cctz@time_internal@absl@@@__1@std@@YA$$QAUTransition@cctz@time_internal@absl@@AAU2345@@Z
    ??$move@AAUTransitionType@cctz@time_internal@absl@@@__1@std@@YA$$QAUTransitionType@cctz@time_internal@absl@@AAU2345@@Z
    ??$move@AAUViableSubstitution@strings_internal@absl@@@__1@std@@YA$$QAUViableSubstitution@strings_internal@absl@@AAU234@@Z
    ??$move@AAV?$FunctionRef@$$A6AXPAUCordRep@cord_internal@absl@@II@Z@absl@@@__1@std@@YA$$QAV?$FunctionRef@$$A6AXPAUCordRep@cord_internal@absl@@II@Z@absl@@AAV23@@Z
    ??$move@AAV?$__allocator_destructor@V?$allocator@PBVImpl@time_zone@cctz@time_internal@absl@@@__1@std@@@__1@std@@@__1@std@@YA$$QAV?$__allocator_destructor@V?$allocator@PBVImpl@time_zone@cctz@time_internal@absl@@@__1@std@@@01@AAV201@@Z
    ??$move@AAV?$__hash_node_destructor@V?$allocator@U?$__hash_node@U?$__hash_value_type@V?$basic_string@DU?$char_traits@D@__1@std@@V?$allocator@D@23@@__1@std@@PBVImpl@time_zone@cctz@time_internal@absl@@@__1@std@@PAX@__1@std@@@__1@std@@@__1@std@@@__1@std@@YA$$QAV?$__hash_node_destructor@V?$allocator@U?$__hash_node@U?$__hash_value_type@V?$basic_string@DU?$char_traits@D@__1@std@@V?$allocator@D@23@@__1@std@@PBVImpl@time_zone@cctz@time_internal@absl@@@__1@std@@PAX@__1@std@@@__1@std@@@01@AAV201@@Z
    ??$move@AAV?$unique_ptr@V?$InlinedVector@UPayload@status_internal@absl@@$00V?$allocator@UPayload@status_internal@absl@@@__1@std@@@absl@@U?$default_delete@V?$InlinedVector@UPayload@status_internal@absl@@$00V?$allocator@UPayload@status_internal@absl@@@__1@std@@@absl@@@__1@std@@@__1@std@@@__1@std@@YA$$QAV?$unique_ptr@V?$InlinedVector@UPayload@status_internal@absl@@$00V?$allocator@UPayload@status_internal@absl@@@__1@std@@@absl@@U?$default_delete@V?$InlinedVector@UPayload@status_internal@absl@@$00V?$allocator@UPayload@status_internal@absl@@@__1@std@@@absl@@@__1@std@@@01@AAV201@@Z
    ??$move@AAVCord@absl@@@__1@std@@YA$$QAVCord@absl@@AAV23@@Z
    ??$move@AAVInlineRep@Cord@absl@@@__1@std@@YA$$QAVInlineRep@Cord@absl@@AAV234@@Z
    ??$move@AAVStatus@absl@@@__1@std@@YA$$QAVStatus@absl@@AAV23@@Z
    ??$move@PAPAPBVImpl@time_zone@cctz@time_internal@absl@@PAPAPBV12345@@__1@std@@YAPAPAPBVImpl@time_zone@cctz@time_internal@absl@@PAPAPBV23456@00@Z
    ??$move@PAUTransition@cctz@time_internal@absl@@PAU1234@@__1@std@@YAPAUTransition@cctz@time_internal@absl@@PAU2345@00@Z
    ??$move@PAUTransitionType@cctz@time_internal@absl@@PAU1234@@__1@std@@YAPAUTransitionType@cctz@time_internal@absl@@PAU2345@00@Z
    ??$move_backward@PAPAPBVImpl@time_zone@cctz@time_internal@absl@@PAPAPBV12345@@__1@std@@YAPAPAPBVImpl@time_zone@cctz@time_internal@absl@@PAPAPBV23456@00@Z
    ??$move_backward@PAUTransition@cctz@time_internal@absl@@PAU1234@@__1@std@@YAPAUTransition@cctz@time_internal@absl@@PAU2345@00@Z
    ??$move_backward@PAUTransitionType@cctz@time_internal@absl@@PAU1234@@__1@std@@YAPAUTransitionType@cctz@time_internal@absl@@PAU2345@00@Z
    ??$reset@PAPAU?$__hash_node_base@PAU?$__hash_node@U?$__hash_value_type@V?$basic_string@DU?$char_traits@D@__1@std@@V?$allocator@D@23@@__1@std@@PBVImpl@time_zone@cctz@time_internal@absl@@@__1@std@@PAX@__1@std@@@__1@std@@@?$unique_ptr@$$BY0A@PAU?$__hash_node_base@PAU?$__hash_node@U?$__hash_value_type@V?$basic_string@DU?$char_traits@D@__1@std@@V?$allocator@D@23@@__1@std@@PBVImpl@time_zone@cctz@time_internal@absl@@@__1@std@@PAX@__1@std@@@__1@std@@V?$__bucket_list_deallocator@V?$allocator@PAU?$__hash_node_base@PAU?$__hash_node@U?$__hash_value_type@V?$basic_string@DU?$char_traits@D@__1@std@@V?$allocator@D@23@@__1@std@@PBVImpl@time_zone@cctz@time_internal@absl@@@__1@std@@PAX@__1@std@@@__1@std@@@__1@std@@@23@@__1@std@@QAEXPAPAU?$__hash_node_base@PAU?$__hash_node@U?$__hash_value_type@V?$basic_string@DU?$char_traits@D@__1@std@@V?$allocator@D@23@@__1@std@@PBVImpl@time_zone@cctz@time_internal@absl@@@__1@std@@PAX@__1@std@@@12@@Z
    ??$swap@PAPAPBVImpl@time_zone@cctz@time_internal@absl@@@__1@std@@YAXAAPAPAPBVImpl@time_zone@cctz@time_internal@absl@@0@Z
    ??$swap@PAPAUCordRep@cord_internal@absl@@@__1@std@@YAXAAPAPAUCordRep@cord_internal@absl@@0@Z
    ??$swap@PAPAVCordzHandle@cord_internal@absl@@@__1@std@@YAXAAPAPAVCordzHandle@cord_internal@absl@@0@Z
    ??$swap@PAPBVCordzHandle@cord_internal@absl@@@__1@std@@YAXAAPAPBVCordzHandle@cord_internal@absl@@0@Z
    ??$swap@PAUConversionItem@ParsedFormatBase@str_format_internal@absl@@@__1@std@@YAXAAPAUConversionItem@ParsedFormatBase@str_format_internal@absl@@0@Z
    ??$swap@PAUTransition@cctz@time_internal@absl@@@__1@std@@YAXAAPAUTransition@cctz@time_internal@absl@@0@Z
    ??$swap@PAUTransitionType@cctz@time_internal@absl@@@__1@std@@YAXAAPAUTransitionType@cctz@time_internal@absl@@0@Z
    ??$swap@PAUViableSubstitution@strings_internal@absl@@@__1@std@@YAXAAPAUViableSubstitution@strings_internal@absl@@0@Z
    ??$swap@PBV?$InlinedVector@UPayload@status_internal@absl@@$00V?$allocator@UPayload@status_internal@absl@@@__1@std@@@absl@@@__1@std@@YAXAAPBV?$InlinedVector@UPayload@status_internal@absl@@$00V?$allocator@UPayload@status_internal@absl@@@__1@std@@@absl@@0@Z
    ??$swap@UViableSubstitution@strings_internal@absl@@@__1@std@@YAXAAUViableSubstitution@strings_internal@absl@@0@Z
    ??$upper_bound@PBUTransition@cctz@time_internal@absl@@U1234@UByCivilTime@1234@@__1@std@@YAPBUTransition@cctz@time_internal@absl@@PBU2345@0ABU2345@UByCivilTime@2345@@Z
    ??$upper_bound@PBUTransition@cctz@time_internal@absl@@U1234@UByUnixTime@1234@@__1@std@@YAPBUTransition@cctz@time_internal@absl@@PBU2345@0ABU2345@UByUnixTime@2345@@Z
    ??0?$AllocationTransaction@V?$allocator@H@__1@std@@@inlined_vector_internal@absl@@QAE@PAV?$allocator@H@__1@std@@@Z
    ??0?$AllocationTransaction@V?$allocator@PAUCordRep@cord_internal@absl@@@__1@std@@@inlined_vector_internal@absl@@QAE@PAV?$allocator@PAUCordRep@cord_internal@absl@@@__1@std@@@Z
    ??0?$AllocationTransaction@V?$allocator@PBUCordRep@cord_internal@absl@@@__1@std@@@inlined_vector_internal@absl@@QAE@PAV?$allocator@PBUCordRep@cord_internal@absl@@@__1@std@@@Z
    ??0?$AllocationTransaction@V?$allocator@UPayload@status_internal@absl@@@__1@std@@@inlined_vector_internal@absl@@QAE@PAV?$allocator@UPayload@status_internal@absl@@@__1@std@@@Z
    ??0?$AllocationTransaction@V?$allocator@USubRange@absl@@@__1@std@@@inlined_vector_internal@absl@@QAE@PAV?$allocator@USubRange@absl@@@__1@std@@@Z
    ??0?$BigUnsigned@$03@strings_internal@absl@@QAE@Vstring_view@2@@Z
    ??0?$BigUnsigned@$03@strings_internal@absl@@QAE@XZ
    ??0?$BigUnsigned@$03@strings_internal@absl@@QAE@_K@Z
    ??0?$BigUnsigned@$0FE@@strings_internal@absl@@QAE@Vstring_view@2@@Z
    ??0?$BigUnsigned@$0FE@@strings_internal@absl@@QAE@XZ
    ??0?$BigUnsigned@$0FE@@strings_internal@absl@@QAE@_K@Z
    ??0?$CopyValueAdapter@V?$allocator@PAUCordRep@cord_internal@absl@@@__1@std@@@inlined_vector_internal@absl@@QAE@ABQAUCordRep@cord_internal@2@@Z
    ??0?$FixedArray@PAUCordRep@cord_internal@absl@@$0PPPPPPPP@V?$allocator@PAUCordRep@cord_internal@absl@@@__1@std@@@absl@@QAE@IABV?$allocator@PAUCordRep@cord_internal@absl@@@__1@std@@@Z
    ??0?$InlinedVector@H$0CP@V?$allocator@H@__1@std@@@absl@@QAE@XZ
    ??0?$InlinedVector@PAUCordRep@cord_internal@absl@@$01V?$allocator@PAUCordRep@cord_internal@absl@@@__1@std@@@absl@@QAE@XZ
    ??0?$InlinedVector@PAUCordRep@cord_internal@absl@@$0CP@V?$allocator@PAUCordRep@cord_internal@absl@@@__1@std@@@absl@@QAE@IABQAUCordRep@cord_internal@1@ABV?$allocator@PAUCordRep@cord_internal@absl@@@__1@std@@@Z
    ??0?$InlinedVector@PAUCordRep@cord_internal@absl@@$0CP@V?$allocator@PAUCordRep@cord_internal@absl@@@__1@std@@@absl@@QAE@XZ
    ??0?$InlinedVector@PBUCordRep@cord_internal@absl@@$0CP@V?$allocator@PBUCordRep@cord_internal@absl@@@__1@std@@@absl@@QAE@XZ
    ??0?$InlinedVector@UPayload@status_internal@absl@@$00V?$allocator@UPayload@status_internal@absl@@@__1@std@@@absl@@QAE@ABV01@@Z
    ??0?$InlinedVector@UPayload@status_internal@absl@@$00V?$allocator@UPayload@status_internal@absl@@@__1@std@@@absl@@QAE@ABV01@ABV?$allocator@UPayload@status_internal@absl@@@__1@std@@@Z
    ??0?$InlinedVector@UPayload@status_internal@absl@@$00V?$allocator@UPayload@status_internal@absl@@@__1@std@@@absl@@QAE@XZ
    ??0?$InlinedVector@USubRange@absl@@$0CP@V?$allocator@USubRange@absl@@@__1@std@@@absl@@QAE@XZ
    ??0?$IteratorValueAdapter@V?$allocator@H@__1@std@@V?$move_iterator@PAH@23@@inlined_vector_internal@absl@@QAE@ABV?$move_iterator@PAH@__1@std@@@Z
    ??0?$IteratorValueAdapter@V?$allocator@PAUCordRep@cord_internal@absl@@@__1@std@@V?$move_iterator@PAPAUCordRep@cord_internal@absl@@@23@@inlined_vector_internal@absl@@QAE@ABV?$move_iterator@PAPAUCordRep@cord_internal@absl@@@__1@std@@@Z
    ??0?$IteratorValueAdapter@V?$allocator@PBUCordRep@cord_internal@absl@@@__1@std@@V?$move_iterator@PAPBUCordRep@cord_internal@absl@@@23@@inlined_vector_internal@absl@@QAE@ABV?$move_iterator@PAPBUCordRep@cord_internal@absl@@@__1@std@@@Z
    ??0?$IteratorValueAdapter@V?$allocator@UPayload@status_internal@absl@@@__1@std@@PBUPayload@status_internal@absl@@@inlined_vector_internal@absl@@QAE@ABQBUPayload@status_internal@2@@Z
    ??0?$IteratorValueAdapter@V?$allocator@UPayload@status_internal@absl@@@__1@std@@V?$move_iterator@PAUPayload@status_internal@absl@@@23@@inlined_vector_internal@absl@@QAE@ABV?$move_iterator@PAUPayload@status_internal@absl@@@__1@std@@@Z
    ??0?$IteratorValueAdapter@V?$allocator@USubRange@absl@@@__1@std@@V?$move_iterator@PAUSubRange@absl@@@23@@inlined_vector_internal@absl@@QAE@ABV?$move_iterator@PAUSubRange@absl@@@__1@std@@@Z
    ??0?$Layout@IPAUCordRep@cord_internal@absl@@I@container_internal@absl@@QAE@III@Z
    ??0?$LayoutImpl@V?$tuple@IPAUCordRep@cord_internal@absl@@I@__1@std@@U?$integer_sequence@I$0A@$00$01@absl@@U45@@internal_layout@container_internal@absl@@QAE@III@Z
    ??0?$LayoutImpl@V?$tuple@IPAUCordRep@cord_internal@absl@@I@__1@std@@U?$integer_sequence@I$0A@$00@absl@@U?$integer_sequence@I$0A@$00$01@5@@internal_layout@container_internal@absl@@QAE@II@Z
    ??0?$LayoutImpl@V?$tuple@IPAUCordRep@cord_internal@absl@@I@__1@std@@U?$integer_sequence@I$0A@@absl@@U?$integer_sequence@I$0A@$00@5@@internal_layout@container_internal@absl@@QAE@I@Z
    ??0?$LayoutImpl@V?$tuple@IPAUCordRep@cord_internal@absl@@I@__1@std@@U?$integer_sequence@I$S@absl@@U?$integer_sequence@I$0A@@5@@internal_layout@container_internal@absl@@QAE@XZ
    ??0?$Span@$$CBVFormatArgImpl@str_format_internal@absl@@@absl@@QAE@PBVFormatArgImpl@str_format_internal@1@I@Z
    ??0?$Span@$$CBVFormatArgImpl@str_format_internal@absl@@@absl@@QAE@XZ
    ??0?$Span@D@absl@@QAE@PADI@Z
    ??0?$Span@D@absl@@QAE@XZ
    ??0?$Span@I@absl@@QAE@PAII@Z
    ??0?$Span@QAUCordRep@cord_internal@absl@@@absl@@QAE@PBQAUCordRep@cord_internal@1@I@Z
    ??0?$Span@QAX@absl@@QAE@PBQAXI@Z
    ??0?$Span@VFormatArgImpl@str_format_internal@absl@@@absl@@QAE@PAVFormatArgImpl@str_format_internal@1@I@Z
    ??0?$Storage@H$0CP@V?$allocator@H@__1@std@@@inlined_vector_internal@absl@@QAE@XZ
    ??0?$Storage@PAUCordRep@cord_internal@absl@@$01V?$allocator@PAUCordRep@cord_internal@absl@@@__1@std@@@inlined_vector_internal@absl@@QAE@XZ
    ??0?$Storage@PAUCordRep@cord_internal@absl@@$0CP@V?$allocator@PAUCordRep@cord_internal@absl@@@__1@std@@@inlined_vector_internal@absl@@QAE@ABV?$allocator@PAUCordRep@cord_internal@absl@@@__1@std@@@Z
    ??0?$Storage@PAUCordRep@cord_internal@absl@@$0CP@V?$allocator@PAUCordRep@cord_internal@absl@@@__1@std@@@inlined_vector_internal@absl@@QAE@XZ
    ??0?$Storage@PBUCordRep@cord_internal@absl@@$0CP@V?$allocator@PBUCordRep@cord_internal@absl@@@__1@std@@@inlined_vector_internal@absl@@QAE@XZ
    ??0?$Storage@UPayload@status_internal@absl@@$00V?$allocator@UPayload@status_internal@absl@@@__1@std@@@inlined_vector_internal@absl@@QAE@ABV?$allocator@UPayload@status_internal@absl@@@__1@std@@@Z
    ??0?$Storage@UPayload@status_internal@absl@@$00V?$allocator@UPayload@status_internal@absl@@@__1@std@@@inlined_vector_internal@absl@@QAE@XZ
    ??0?$Storage@USubRange@absl@@$0CP@V?$allocator@USubRange@absl@@@__1@std@@@inlined_vector_internal@absl@@QAE@XZ
    ??0?$__allocator_destructor@V?$allocator@PBVImpl@time_zone@cctz@time_internal@absl@@@__1@std@@@__1@std@@QAE@AAV?$allocator@PBVImpl@time_zone@cctz@time_internal@absl@@@12@I@Z
    ??0?$__atomic_base@P6AXABUHashtablezInfo@container_internal@absl@@@Z$0A@@__1@std@@QAE@P6AXABUHashtablezInfo@container_internal@absl@@@Z@Z
    ??0?$__atomic_base@PAUHashtablezInfo@container_internal@absl@@$0A@@__1@std@@QAE@PAUHashtablezInfo@container_internal@absl@@@Z
    ??0?$__atomic_base@PAVCordzInfo@cord_internal@absl@@$0A@@__1@std@@QAE@PAVCordzInfo@cord_internal@absl@@@Z
    ??0?$__bucket_list_deallocator@V?$allocator@PAU?$__hash_node_base@PAU?$__hash_node@U?$__hash_value_type@V?$basic_string@DU?$char_traits@D@__1@std@@V?$allocator@D@23@@__1@std@@PBVImpl@time_zone@cctz@time_internal@absl@@@__1@std@@PAX@__1@std@@@__1@std@@@__1@std@@@__1@std@@QAE@XZ
    ??0?$__compressed_pair_elem@U?$__hash_node_base@PAU?$__hash_node@U?$__hash_value_type@V?$basic_string@DU?$char_traits@D@__1@std@@V?$allocator@D@23@@__1@std@@PBVImpl@time_zone@cctz@time_internal@absl@@@__1@std@@PAX@__1@std@@@__1@std@@$0A@$0A@@__1@std@@QAE@U__value_init_tag@12@@Z
    ??0?$__compressed_pair_elem@U?$default_delete@$$CBVImpl@time_zone@cctz@time_internal@absl@@@__1@std@@$00$00@__1@std@@QAE@U__default_init_tag@12@@Z
    ??0?$__compressed_pair_elem@U?$default_delete@V?$InlinedVector@UPayload@status_internal@absl@@$00V?$allocator@UPayload@status_internal@absl@@@__1@std@@@absl@@@__1@std@@$00$00@__1@std@@QAE@U__default_init_tag@12@@Z
    ??0?$__compressed_pair_elem@U?$default_delete@VTimeZoneIf@cctz@time_internal@absl@@@__1@std@@$00$00@__1@std@@QAE@U__default_init_tag@12@@Z
    ??0?$__compressed_pair_elem@U?$default_delete@VTimeZoneInfo@cctz@time_internal@absl@@@__1@std@@$00$00@__1@std@@QAE@U__default_init_tag@12@@Z
    ??0?$__compressed_pair_elem@U?$default_delete@VZoneInfoSource@cctz@time_internal@absl@@@__1@std@@$00$00@__1@std@@QAE@U__default_init_tag@12@@Z
    ??0?$__compressed_pair_elem@V?$__bucket_list_deallocator@V?$allocator@PAU?$__hash_node_base@PAU?$__hash_node@U?$__hash_value_type@V?$basic_string@DU?$char_traits@D@__1@std@@V?$allocator@D@23@@__1@std@@PBVImpl@time_zone@cctz@time_internal@absl@@@__1@std@@PAX@__1@std@@@__1@std@@@__1@std@@@__1@std@@$00$0A@@__1@std@@QAE@U__default_init_tag@12@@Z
    ??0?$__compressed_pair_elem@V?$__unordered_map_equal@V?$basic_string@DU?$char_traits@D@__1@std@@V?$allocator@D@23@@__1@std@@U?$__hash_value_type@V?$basic_string@DU?$char_traits@D@__1@std@@V?$allocator@D@23@@__1@std@@PBVImpl@time_zone@cctz@time_internal@absl@@@23@U?$equal_to@V?$basic_string@DU?$char_traits@D@__1@std@@V?$allocator@D@23@@__1@std@@@23@U?$hash@V?$basic_string@DU?$char_traits@D@__1@std@@V?$allocator@D@23@@__1@std@@@23@$00@__1@std@@$00$00@__1@std@@QAE@U__default_init_tag@12@@Z
    ??0?$__compressed_pair_elem@V?$__unordered_map_hasher@V?$basic_string@DU?$char_traits@D@__1@std@@V?$allocator@D@23@@__1@std@@U?$__hash_value_type@V?$basic_string@DU?$char_traits@D@__1@std@@V?$allocator@D@23@@__1@std@@PBVImpl@time_zone@cctz@time_internal@absl@@@23@U?$hash@V?$basic_string@DU?$char_traits@D@__1@std@@V?$allocator@D@23@@__1@std@@@23@U?$equal_to@V?$basic_string@DU?$char_traits@D@__1@std@@V?$allocator@D@23@@__1@std@@@23@$00@__1@std@@$00$00@__1@std@@QAE@U__default_init_tag@12@@Z
    ??0?$__compressed_pair_elem@V?$allocator@PAPBVImpl@time_zone@cctz@time_internal@absl@@@__1@std@@$00$00@__1@std@@QAE@U__default_init_tag@12@@Z
    ??0?$__compressed_pair_elem@V?$allocator@PAU?$__hash_node_base@PAU?$__hash_node@U?$__hash_value_type@V?$basic_string@DU?$char_traits@D@__1@std@@V?$allocator@D@23@@__1@std@@PBVImpl@time_zone@cctz@time_internal@absl@@@__1@std@@PAX@__1@std@@@__1@std@@@__1@std@@$00$00@__1@std@@QAE@U__default_init_tag@12@@Z
    ??0?$__compressed_pair_elem@V?$allocator@PAUCordRep@cord_internal@absl@@@__1@std@@$00$00@__1@std@@QAE@U__default_init_tag@12@@Z
    ??0?$__compressed_pair_elem@V?$allocator@PAVCordzHandle@cord_internal@absl@@@__1@std@@$00$00@__1@std@@QAE@U__default_init_tag@12@@Z
    ??0?$__compressed_pair_elem@V?$allocator@PBVCordzHandle@cord_internal@absl@@@__1@std@@$00$00@__1@std@@QAE@U__default_init_tag@12@@Z
    ??0?$__compressed_pair_elem@V?$allocator@PBVImpl@time_zone@cctz@time_internal@absl@@@__1@std@@$00$00@__1@std@@QAE@U__default_init_tag@12@@Z
    ??0?$__compressed_pair_elem@V?$allocator@U?$__hash_node@U?$__hash_value_type@V?$basic_string@DU?$char_traits@D@__1@std@@V?$allocator@D@23@@__1@std@@PBVImpl@time_zone@cctz@time_internal@absl@@@__1@std@@PAX@__1@std@@@__1@std@@$00$00@__1@std@@QAE@U__value_init_tag@12@@Z
    ??0?$__compressed_pair_elem@V?$allocator@UConversionItem@ParsedFormatBase@str_format_internal@absl@@@__1@std@@$00$00@__1@std@@QAE@U__default_init_tag@12@@Z
    ??0?$__compressed_pair_elem@V?$allocator@UTransition@cctz@time_internal@absl@@@__1@std@@$00$00@__1@std@@QAE@U__default_init_tag@12@@Z
    ??0?$__compressed_pair_elem@V?$allocator@UTransitionType@cctz@time_internal@absl@@@__1@std@@$00$00@__1@std@@QAE@U__default_init_tag@12@@Z
    ??0?$__compressed_pair_elem@V?$allocator@UViableSubstitution@strings_internal@absl@@@__1@std@@$00$00@__1@std@@QAE@U__default_init_tag@12@@Z
    ??0?$__compressed_pair_elem@V?$allocator@VFormatArgImpl@str_format_internal@absl@@@__1@std@@$00$00@__1@std@@QAE@U__default_init_tag@12@@Z
    ??0?$__cxx_atomic_base_impl@P6AXABUHashtablezInfo@container_internal@absl@@@Z@__1@std@@QAE@P6AXABUHashtablezInfo@container_internal@absl@@@Z@Z
    ??0?$__cxx_atomic_base_impl@PAUHashtablezInfo@container_internal@absl@@@__1@std@@QAE@PAUHashtablezInfo@container_internal@absl@@@Z
    ??0?$__cxx_atomic_base_impl@PAVCordzInfo@cord_internal@absl@@@__1@std@@QAE@PAVCordzInfo@cord_internal@absl@@@Z
    ??0?$__cxx_atomic_impl@P6AXABUHashtablezInfo@container_internal@absl@@@ZU?$__cxx_atomic_base_impl@P6AXABUHashtablezInfo@container_internal@absl@@@Z@__1@std@@@__1@std@@QAE@P6AXABUHashtablezInfo@container_internal@absl@@@Z@Z
    ??0?$__cxx_atomic_impl@PAUHashtablezInfo@container_internal@absl@@U?$__cxx_atomic_base_impl@PAUHashtablezInfo@container_internal@absl@@@__1@std@@@__1@std@@QAE@PAUHashtablezInfo@container_internal@absl@@@Z
    ??0?$__cxx_atomic_impl@PAVCordzInfo@cord_internal@absl@@U?$__cxx_atomic_base_impl@PAVCordzInfo@cord_internal@absl@@@__1@std@@@__1@std@@QAE@PAVCordzInfo@cord_internal@absl@@@Z
    ??0?$__deque_base@PBVImpl@time_zone@cctz@time_internal@absl@@V?$allocator@PBVImpl@time_zone@cctz@time_internal@absl@@@__1@std@@@__1@std@@IAE@XZ
    ??0?$__deque_iterator@PBVImpl@time_zone@cctz@time_internal@absl@@PAPBV12345@AAPBV12345@PAPAPBV12345@H$0A@@__1@std@@AAE@PAPAPBVImpl@time_zone@cctz@time_internal@absl@@PAPBV34567@@Z
    ??0?$__hash_const_iterator@PAU?$__hash_node@U?$__hash_value_type@V?$basic_string@DU?$char_traits@D@__1@std@@V?$allocator@D@23@@__1@std@@PBVImpl@time_zone@cctz@time_internal@absl@@@__1@std@@PAX@__1@std@@@__1@std@@QAE@ABV?$__hash_iterator@PAU?$__hash_node@U?$__hash_value_type@V?$basic_string@DU?$char_traits@D@__1@std@@V?$allocator@D@23@@__1@std@@PBVImpl@time_zone@cctz@time_internal@absl@@@__1@std@@PAX@__1@std@@@12@@Z
    ??0?$__hash_iterator@PAU?$__hash_node@U?$__hash_value_type@V?$basic_string@DU?$char_traits@D@__1@std@@V?$allocator@D@23@@__1@std@@PBVImpl@time_zone@cctz@time_internal@absl@@@__1@std@@PAX@__1@std@@@__1@std@@AAE@PAU?$__hash_node_base@PAU?$__hash_node@U?$__hash_value_type@V?$basic_string@DU?$char_traits@D@__1@std@@V?$allocator@D@23@@__1@std@@PBVImpl@time_zone@cctz@time_internal@absl@@@__1@std@@PAX@__1@std@@@12@@Z
    ??0?$__hash_map_const_iterator@V?$__hash_const_iterator@PAU?$__hash_node@U?$__hash_value_type@V?$basic_string@DU?$char_traits@D@__1@std@@V?$allocator@D@23@@__1@std@@PBVImpl@time_zone@cctz@time_internal@absl@@@__1@std@@PAX@__1@std@@@__1@std@@@__1@std@@QAE@V?$__hash_map_iterator@V?$__hash_iterator@PAU?$__hash_node@U?$__hash_value_type@V?$basic_string@DU?$char_traits@D@__1@std@@V?$allocator@D@23@@__1@std@@PBVImpl@time_zone@cctz@time_internal@absl@@@__1@std@@PAX@__1@std@@@__1@std@@@12@@Z
    ??0?$__hash_map_iterator@V?$__hash_iterator@PAU?$__hash_node@U?$__hash_value_type@V?$basic_string@DU?$char_traits@D@__1@std@@V?$allocator@D@23@@__1@std@@PBVImpl@time_zone@cctz@time_internal@absl@@@__1@std@@PAX@__1@std@@@__1@std@@@__1@std@@QAE@V?$__hash_iterator@PAU?$__hash_node@U?$__hash_value_type@V?$basic_string@DU?$char_traits@D@__1@std@@V?$allocator@D@23@@__1@std@@PBVImpl@time_zone@cctz@time_internal@absl@@@__1@std@@PAX@__1@std@@@12@@Z
    ??0?$__hash_node_base@PAU?$__hash_node@U?$__hash_value_type@V?$basic_string@DU?$char_traits@D@__1@std@@V?$allocator@D@23@@__1@std@@PBVImpl@time_zone@cctz@time_internal@absl@@@__1@std@@PAX@__1@std@@@__1@std@@QAE@XZ
    ??0?$__hash_node_destructor@V?$allocator@U?$__hash_node@U?$__hash_value_type@V?$basic_string@DU?$char_traits@D@__1@std@@V?$allocator@D@23@@__1@std@@PBVImpl@time_zone@cctz@time_internal@absl@@@__1@std@@PAX@__1@std@@@__1@std@@@__1@std@@QAE@AAV?$allocator@U?$__hash_node@U?$__hash_value_type@V?$basic_string@DU?$char_traits@D@__1@std@@V?$allocator@D@23@@__1@std@@PBVImpl@time_zone@cctz@time_internal@absl@@@__1@std@@PAX@__1@std@@@12@_N@Z
    ??0?$__hash_table@U?$__hash_value_type@V?$basic_string@DU?$char_traits@D@__1@std@@V?$allocator@D@23@@__1@std@@PBVImpl@time_zone@cctz@time_internal@absl@@@__1@std@@V?$__unordered_map_hasher@V?$basic_string@DU?$char_traits@D@__1@std@@V?$allocator@D@23@@__1@std@@U?$__hash_value_type@V?$basic_string@DU?$char_traits@D@__1@std@@V?$allocator@D@23@@__1@std@@PBVImpl@time_zone@cctz@time_internal@absl@@@23@U?$hash@V?$basic_string@DU?$char_traits@D@__1@std@@V?$allocator@D@23@@__1@std@@@23@U?$equal_to@V?$basic_string@DU?$char_traits@D@__1@std@@V?$allocator@D@23@@__1@std@@@23@$00@23@V?$__unordered_map_equal@V?$basic_string@DU?$char_traits@D@__1@std@@V?$allocator@D@23@@__1@std@@U?$__hash_value_type@V?$basic_string@DU?$char_traits@D@__1@std@@V?$allocator@D@23@@__1@std@@PBVImpl@time_zone@cctz@time_internal@absl@@@23@U?$equal_to@V?$basic_string@DU?$char_traits@D@__1@std@@V?$allocator@D@23@@__1@std@@@23@U?$hash@V?$basic_string@DU?$char_traits@D@__1@std@@V?$allocator@D@23@@__1@std@@@23@$00@23@V?$allocator@U?$__hash_value_type@V?$basic_string@DU?$char_traits@D@__1@std@@V?$allocator@D@23@@__1@std@@PBVImpl@time_zone@cctz@time_internal@absl@@@__1@std@@@23@@__1@std@@QAE@XZ
    ??0?$__policy_invoker@$$A6A?AV?$unique_ptr@VZoneInfoSource@cctz@time_internal@absl@@U?$default_delete@VZoneInfoSource@cctz@time_internal@absl@@@__1@std@@@__1@std@@ABV?$basic_string@DU?$char_traits@D@__1@std@@V?$allocator@D@23@@23@@Z@__function@__1@std@@AAE@P6A?AV?$unique_ptr@VZoneInfoSource@cctz@time_internal@absl@@U?$default_delete@VZoneInfoSource@cctz@time_internal@absl@@@__1@std@@@23@PBT__policy_storage@123@ABV?$basic_string@DU?$char_traits@D@__1@std@@V?$allocator@D@23@@23@@Z@Z
    ??0?$__policy_invoker@$$A6A?AV?$unique_ptr@VZoneInfoSource@cctz@time_internal@absl@@U?$default_delete@VZoneInfoSource@cctz@time_internal@absl@@@__1@std@@@__1@std@@ABV?$basic_string@DU?$char_traits@D@__1@std@@V?$allocator@D@23@@23@@Z@__function@__1@std@@QAE@XZ
    ??0?$__policy_invoker@$$A6AXVstring_view@absl@@ABVCord@2@@Z@__function@__1@std@@AAE@P6AXPBT__policy_storage@123@$$QAVstring_view@absl@@ABVCord@6@@Z@Z
    ??0?$__policy_invoker@$$A6AXVstring_view@absl@@ABVCord@2@@Z@__function@__1@std@@QAE@XZ
    ??0?$__split_buffer@PAPBVImpl@time_zone@cctz@time_internal@absl@@AAV?$allocator@PAPBVImpl@time_zone@cctz@time_internal@absl@@@__1@std@@@__1@std@@QAE@IIAAV?$allocator@PAPBVImpl@time_zone@cctz@time_internal@absl@@@12@@Z
    ??0?$__split_buffer@PAPBVImpl@time_zone@cctz@time_internal@absl@@V?$allocator@PAPBVImpl@time_zone@cctz@time_internal@absl@@@__1@std@@@__1@std@@QAE@XZ
    ??0?$__split_buffer@PAUCordRep@cord_internal@absl@@AAV?$allocator@PAUCordRep@cord_internal@absl@@@__1@std@@@__1@std@@QAE@IIAAV?$allocator@PAUCordRep@cord_internal@absl@@@12@@Z
    ??0?$__split_buffer@PAVCordzHandle@cord_internal@absl@@AAV?$allocator@PAVCordzHandle@cord_internal@absl@@@__1@std@@@__1@std@@QAE@IIAAV?$allocator@PAVCordzHandle@cord_internal@absl@@@12@@Z
    ??0?$__split_buffer@PBVCordzHandle@cord_internal@absl@@AAV?$allocator@PBVCordzHandle@cord_internal@absl@@@__1@std@@@__1@std@@QAE@IIAAV?$allocator@PBVCordzHandle@cord_internal@absl@@@12@@Z
    ??0?$__split_buffer@UConversionItem@ParsedFormatBase@str_format_internal@absl@@AAV?$allocator@UConversionItem@ParsedFormatBase@str_format_internal@absl@@@__1@std@@@__1@std@@QAE@IIAAV?$allocator@UConversionItem@ParsedFormatBase@str_format_internal@absl@@@12@@Z
    ??0?$__split_buffer@UTransition@cctz@time_internal@absl@@AAV?$allocator@UTransition@cctz@time_internal@absl@@@__1@std@@@__1@std@@QAE@IIAAV?$allocator@UTransition@cctz@time_internal@absl@@@12@@Z
    ??0?$__split_buffer@UTransitionType@cctz@time_internal@absl@@AAV?$allocator@UTransitionType@cctz@time_internal@absl@@@__1@std@@@__1@std@@QAE@IIAAV?$allocator@UTransitionType@cctz@time_internal@absl@@@12@@Z
    ??0?$__split_buffer@UViableSubstitution@strings_internal@absl@@AAV?$allocator@UViableSubstitution@strings_internal@absl@@@__1@std@@@__1@std@@QAE@IIAAV?$allocator@UViableSubstitution@strings_internal@absl@@@12@@Z
    ??0?$__unordered_map_equal@V?$basic_string@DU?$char_traits@D@__1@std@@V?$allocator@D@23@@__1@std@@U?$__hash_value_type@V?$basic_string@DU?$char_traits@D@__1@std@@V?$allocator@D@23@@__1@std@@PBVImpl@time_zone@cctz@time_internal@absl@@@23@U?$equal_to@V?$basic_string@DU?$char_traits@D@__1@std@@V?$allocator@D@23@@__1@std@@@23@U?$hash@V?$basic_string@DU?$char_traits@D@__1@std@@V?$allocator@D@23@@__1@std@@@23@$00@__1@std@@QAE@XZ
    ??0?$__unordered_map_hasher@V?$basic_string@DU?$char_traits@D@__1@std@@V?$allocator@D@23@@__1@std@@U?$__hash_value_type@V?$basic_string@DU?$char_traits@D@__1@std@@V?$allocator@D@23@@__1@std@@PBVImpl@time_zone@cctz@time_internal@absl@@@23@U?$hash@V?$basic_string@DU?$char_traits@D@__1@std@@V?$allocator@D@23@@__1@std@@@23@U?$equal_to@V?$basic_string@DU?$char_traits@D@__1@std@@V?$allocator@D@23@@__1@std@@@23@$00@__1@std@@QAE@XZ
    ??0?$__vector_base@PAUCordRep@cord_internal@absl@@V?$allocator@PAUCordRep@cord_internal@absl@@@__1@std@@@__1@std@@IAE@XZ
    ??0?$__vector_base@PAVCordzHandle@cord_internal@absl@@V?$allocator@PAVCordzHandle@cord_internal@absl@@@__1@std@@@__1@std@@IAE@XZ
    ??0?$__vector_base@PBVCordzHandle@cord_internal@absl@@V?$allocator@PBVCordzHandle@cord_internal@absl@@@__1@std@@@__1@std@@IAE@XZ
    ??0?$__vector_base@UConversionItem@ParsedFormatBase@str_format_internal@absl@@V?$allocator@UConversionItem@ParsedFormatBase@str_format_internal@absl@@@__1@std@@@__1@std@@IAE@XZ
    ??0?$__vector_base@UTransition@cctz@time_internal@absl@@V?$allocator@UTransition@cctz@time_internal@absl@@@__1@std@@@__1@std@@IAE@XZ
    ??0?$__vector_base@UTransitionType@cctz@time_internal@absl@@V?$allocator@UTransitionType@cctz@time_internal@absl@@@__1@std@@@__1@std@@IAE@XZ
    ??0?$__vector_base@UViableSubstitution@strings_internal@absl@@V?$allocator@UViableSubstitution@strings_internal@absl@@@__1@std@@@__1@std@@IAE@XZ
    ??0?$__vector_base@VFormatArgImpl@str_format_internal@absl@@V?$allocator@VFormatArgImpl@str_format_internal@absl@@@__1@std@@@__1@std@@IAE@XZ
    ??0?$__wrap_iter@PAPAVCordzHandle@cord_internal@absl@@@__1@std@@AAE@PAPAVCordzHandle@cord_internal@absl@@@Z
    ??0?$__wrap_iter@PAUTransition@cctz@time_internal@absl@@@__1@std@@AAE@PAUTransition@cctz@time_internal@absl@@@Z
    ??0?$__wrap_iter@PAUTransitionType@cctz@time_internal@absl@@@__1@std@@AAE@PAUTransitionType@cctz@time_internal@absl@@@Z
    ??0?$__wrap_iter@PBUConversionItem@ParsedFormatBase@str_format_internal@absl@@@__1@std@@AAE@PBUConversionItem@ParsedFormatBase@str_format_internal@absl@@@Z
    ??0?$allocator@PAPBVImpl@time_zone@cctz@time_internal@absl@@@__1@std@@QAE@XZ
    ??0?$allocator@PAU?$__hash_node_base@PAU?$__hash_node@U?$__hash_value_type@V?$basic_string@DU?$char_traits@D@__1@std@@V?$allocator@D@23@@__1@std@@PBVImpl@time_zone@cctz@time_internal@absl@@@__1@std@@PAX@__1@std@@@__1@std@@@__1@std@@QAE@XZ
    ??0?$allocator@PAUCordRep@cord_internal@absl@@@__1@std@@QAE@XZ
    ??0?$allocator@PAVCordzHandle@cord_internal@absl@@@__1@std@@QAE@XZ
    ??0?$allocator@PBUCordRep@cord_internal@absl@@@__1@std@@QAE@XZ
    ??0?$allocator@PBVCordzHandle@cord_internal@absl@@@__1@std@@QAE@XZ
    ??0?$allocator@PBVImpl@time_zone@cctz@time_internal@absl@@@__1@std@@QAE@XZ
    ??0?$allocator@U?$__hash_node@U?$__hash_value_type@V?$basic_string@DU?$char_traits@D@__1@std@@V?$allocator@D@23@@__1@std@@PBVImpl@time_zone@cctz@time_internal@absl@@@__1@std@@PAX@__1@std@@@__1@std@@QAE@XZ
    ??0?$allocator@UConversionItem@ParsedFormatBase@str_format_internal@absl@@@__1@std@@QAE@XZ
    ??0?$allocator@UPayload@status_internal@absl@@@__1@std@@QAE@XZ
    ??0?$allocator@USubRange@absl@@@__1@std@@QAE@XZ
    ??0?$allocator@UTransition@cctz@time_internal@absl@@@__1@std@@QAE@XZ
    ??0?$allocator@UTransitionType@cctz@time_internal@absl@@@__1@std@@QAE@XZ
    ??0?$allocator@UViableSubstitution@strings_internal@absl@@@__1@std@@QAE@XZ
    ??0?$allocator@VFormatArgImpl@str_format_internal@absl@@@__1@std@@QAE@XZ
    ??0?$atomic@P6AXABUHashtablezInfo@container_internal@absl@@@Z@__1@std@@QAE@P6AXABUHashtablezInfo@container_internal@absl@@@Z@Z
    ??0?$atomic@PAUHashtablezInfo@container_internal@absl@@@__1@std@@QAE@PAUHashtablezInfo@container_internal@absl@@@Z
    ??0?$atomic@PAVCordzInfo@cord_internal@absl@@@__1@std@@QAE@PAVCordzInfo@cord_internal@absl@@@Z
    ??0?$civil_time@Uday_tag@detail@cctz@time_internal@absl@@@detail@cctz@time_internal@absl@@AAE@Ufields@1234@@Z
    ??0?$civil_time@Uday_tag@detail@cctz@time_internal@absl@@@detail@cctz@time_internal@absl@@QAE@_J00000@Z
    ??0?$civil_time@Uday_tag@time_internal@absl@@@detail@cctz@time_internal@absl@@AAE@Ufields@1234@@Z
    ??0?$civil_time@Uday_tag@time_internal@absl@@@detail@cctz@time_internal@absl@@QAE@XZ
    ??0?$civil_time@Uday_tag@time_internal@absl@@@detail@cctz@time_internal@absl@@QAE@_J00000@Z
    ??0?$civil_time@Uhour_tag@detail@cctz@time_internal@absl@@@detail@cctz@time_internal@absl@@AAE@Ufields@1234@@Z
    ??0?$civil_time@Uhour_tag@time_internal@absl@@@detail@cctz@time_internal@absl@@AAE@Ufields@1234@@Z
    ??0?$civil_time@Uhour_tag@time_internal@absl@@@detail@cctz@time_internal@absl@@QAE@XZ
    ??0?$civil_time@Uhour_tag@time_internal@absl@@@detail@cctz@time_internal@absl@@QAE@_J00000@Z
    ??0?$civil_time@Uminute_tag@detail@cctz@time_internal@absl@@@detail@cctz@time_internal@absl@@AAE@Ufields@1234@@Z
    ??0?$civil_time@Uminute_tag@time_internal@absl@@@detail@cctz@time_internal@absl@@AAE@Ufields@1234@@Z
    ??0?$civil_time@Uminute_tag@time_internal@absl@@@detail@cctz@time_internal@absl@@QAE@XZ
    ??0?$civil_time@Uminute_tag@time_internal@absl@@@detail@cctz@time_internal@absl@@QAE@_J00000@Z
    ??0?$civil_time@Umonth_tag@detail@cctz@time_internal@absl@@@detail@cctz@time_internal@absl@@AAE@Ufields@1234@@Z
    ??0?$civil_time@Umonth_tag@time_internal@absl@@@detail@cctz@time_internal@absl@@AAE@Ufields@1234@@Z
    ??0?$civil_time@Umonth_tag@time_internal@absl@@@detail@cctz@time_internal@absl@@QAE@XZ
    ??0?$civil_time@Umonth_tag@time_internal@absl@@@detail@cctz@time_internal@absl@@QAE@_J00000@Z
    ??0?$civil_time@Usecond_tag@detail@cctz@time_internal@absl@@@detail@cctz@time_internal@absl@@AAE@Ufields@1234@@Z
    ??0?$civil_time@Usecond_tag@detail@cctz@time_internal@absl@@@detail@cctz@time_internal@absl@@QAE@XZ
    ??0?$civil_time@Usecond_tag@detail@cctz@time_internal@absl@@@detail@cctz@time_internal@absl@@QAE@_J00000@Z
    ??0?$civil_time@Usecond_tag@time_internal@absl@@@detail@cctz@time_internal@absl@@AAE@Ufields@1234@@Z
    ??0?$civil_time@Usecond_tag@time_internal@absl@@@detail@cctz@time_internal@absl@@QAE@XZ
    ??0?$civil_time@Usecond_tag@time_internal@absl@@@detail@cctz@time_internal@absl@@QAE@_J00000@Z
    ??0?$civil_time@Uyear_tag@detail@cctz@time_internal@absl@@@detail@cctz@time_internal@absl@@AAE@Ufields@1234@@Z
    ??0?$civil_time@Uyear_tag@detail@cctz@time_internal@absl@@@detail@cctz@time_internal@absl@@QAE@_J00000@Z
    ??0?$civil_time@Uyear_tag@time_internal@absl@@@detail@cctz@time_internal@absl@@AAE@Ufields@1234@@Z
    ??0?$civil_time@Uyear_tag@time_internal@absl@@@detail@cctz@time_internal@absl@@QAE@XZ
    ??0?$civil_time@Uyear_tag@time_internal@absl@@@detail@cctz@time_internal@absl@@QAE@_J00000@Z
    ??0?$deque@PBVImpl@time_zone@cctz@time_internal@absl@@V?$allocator@PBVImpl@time_zone@cctz@time_internal@absl@@@__1@std@@@__1@std@@QAE@XZ
    ??0?$move_iterator@PAPAPBVImpl@time_zone@cctz@time_internal@absl@@@__1@std@@QAE@PAPAPBVImpl@time_zone@cctz@time_internal@absl@@@Z
    ??0?$move_iterator@PAPAUCordRep@cord_internal@absl@@@__1@std@@QAE@PAPAUCordRep@cord_internal@absl@@@Z
    ??0?$move_iterator@PAPBUCordRep@cord_internal@absl@@@__1@std@@QAE@PAPBUCordRep@cord_internal@absl@@@Z
    ??0?$move_iterator@PAUPayload@status_internal@absl@@@__1@std@@QAE@PAUPayload@status_internal@absl@@@Z
    ??0?$move_iterator@PAUSubRange@absl@@@__1@std@@QAE@PAUSubRange@absl@@@Z
    ??0?$move_iterator@PAUTransition@cctz@time_internal@absl@@@__1@std@@QAE@PAUTransition@cctz@time_internal@absl@@@Z
    ??0?$move_iterator@PAUTransitionType@cctz@time_internal@absl@@@__1@std@@QAE@PAUTransitionType@cctz@time_internal@absl@@@Z
    ??0?$optional@V?$basic_string@DU?$char_traits@D@__1@std@@V?$allocator@D@23@@__1@std@@@absl@@QAE@XZ
    ??0?$optional@VCord@absl@@@absl@@QAE@Unullopt_t@1@@Z
    ??0?$optional_data@V?$basic_string@DU?$char_traits@D@__1@std@@V?$allocator@D@23@@__1@std@@$0A@@optional_internal@absl@@IAE@XZ
    ??0?$optional_data@VCord@absl@@$0A@@optional_internal@absl@@IAE@XZ
    ??0?$optional_data_base@V?$basic_string@DU?$char_traits@D@__1@std@@V?$allocator@D@23@@__1@std@@@optional_internal@absl@@QAE@XZ
    ??0?$optional_data_base@VCord@absl@@@optional_internal@absl@@QAE@XZ
    ??0?$optional_data_dtor_base@V?$basic_string@DU?$char_traits@D@__1@std@@V?$allocator@D@23@@__1@std@@$0A@@optional_internal@absl@@IAE@XZ
    ??0?$optional_data_dtor_base@VCord@absl@@$0A@@optional_internal@absl@@IAE@XZ
    ??0?$unique_ptr@V?$InlinedVector@UPayload@status_internal@absl@@$00V?$allocator@UPayload@status_internal@absl@@@__1@std@@@absl@@U?$default_delete@V?$InlinedVector@UPayload@status_internal@absl@@$00V?$allocator@UPayload@status_internal@absl@@@__1@std@@@absl@@@__1@std@@@__1@std@@QAE@$$QAV012@@Z
    ??0?$unordered_map@V?$basic_string@DU?$char_traits@D@__1@std@@V?$allocator@D@23@@__1@std@@PBVImpl@time_zone@cctz@time_internal@absl@@U?$hash@V?$basic_string@DU?$char_traits@D@__1@std@@V?$allocator@D@23@@__1@std@@@23@U?$equal_to@V?$basic_string@DU?$char_traits@D@__1@std@@V?$allocator@D@23@@__1@std@@@23@V?$allocator@U?$pair@$$CBV?$basic_string@DU?$char_traits@D@__1@std@@V?$allocator@D@23@@__1@std@@PBVImpl@time_zone@cctz@time_internal@absl@@@__1@std@@@23@@__1@std@@QAE@XZ
    ??0?$vector@PAUCordRep@cord_internal@absl@@V?$allocator@PAUCordRep@cord_internal@absl@@@__1@std@@@__1@std@@QAE@V?$initializer_list@PAUCordRep@cord_internal@absl@@@2@@Z
    ??0?$vector@PAVCordzHandle@cord_internal@absl@@V?$allocator@PAVCordzHandle@cord_internal@absl@@@__1@std@@@__1@std@@QAE@XZ
    ??0?$vector@PBVCordzHandle@cord_internal@absl@@V?$allocator@PBVCordzHandle@cord_internal@absl@@@__1@std@@@__1@std@@QAE@XZ
    ??0?$vector@UConversionItem@ParsedFormatBase@str_format_internal@absl@@V?$allocator@UConversionItem@ParsedFormatBase@str_format_internal@absl@@@__1@std@@@__1@std@@QAE@XZ
    ??0?$vector@UTransition@cctz@time_internal@absl@@V?$allocator@UTransition@cctz@time_internal@absl@@@__1@std@@@__1@std@@QAE@XZ
    ??0?$vector@UTransitionType@cctz@time_internal@absl@@V?$allocator@UTransitionType@cctz@time_internal@absl@@@__1@std@@@__1@std@@QAE@XZ
    ??0?$vector@UViableSubstitution@strings_internal@absl@@V?$allocator@UViableSubstitution@strings_internal@absl@@@__1@std@@@__1@std@@QAE@XZ
    ??0?$vector@VFormatArgImpl@str_format_internal@absl@@V?$allocator@VFormatArgImpl@str_format_internal@absl@@@__1@std@@@__1@std@@QAE@XZ
    ??0AlphaNum@absl@@QAE@H@Z
    ??0AlphaNum@absl@@QAE@I@Z
    ??0AlphaNum@absl@@QAE@PBD@Z
    ??0AlphaNum@absl@@QAE@UDec@1@@Z
    ??0AlphaNum@absl@@QAE@UHex@1@@Z
    ??0AlphaNum@absl@@QAE@Vstring_view@1@@Z
    ??0AlphaNum@absl@@QAE@_J@Z
    ??0Arena@LowLevelAlloc@base_internal@absl@@QAE@I@Z
    ??0Arg@substitute_internal@absl@@QAE@PBX@Z
    ??0Arg@substitute_internal@absl@@QAE@UDec@2@@Z
    ??0Arg@substitute_internal@absl@@QAE@UHex@2@@Z
    ??0BadStatusOrAccess@absl@@QAE@$$QAV01@@Z
    ??0BadStatusOrAccess@absl@@QAE@ABV01@@Z
    ??0BadStatusOrAccess@absl@@QAE@VStatus@1@@Z
    ??0BlockingCounter@absl@@QAE@H@Z
    ??0BoundConversion@str_format_internal@absl@@QAE@XZ
    ??0Breakdown@Time@absl@@QAE@XZ
    ??0BufferRawSink@str_format_internal@absl@@QAE@PADI@Z
    ??0ByAnyChar@absl@@QAE@Vstring_view@1@@Z
    ??0ByLength@absl@@QAE@H@Z
    ??0ByString@absl@@QAE@Vstring_view@1@@Z
    ??0ChunkIterator@Cord@absl@@AAE@PAUCordRep@cord_internal@2@@Z
    ??0ChunkIterator@Cord@absl@@AAE@PBV12@@Z
    ??0ChunkIterator@Cord@absl@@QAE@XZ
    ??0ChunkRange@Cord@absl@@QAE@PBV12@@Z
    ??0CivilInfo@TimeZone@absl@@QAE@XZ
    ??0Condition@absl@@AAE@XZ
    ??0Condition@absl@@QAE@P6A_NPAX@Z0@Z
    ??0Condition@absl@@QAE@PB_N@Z
    ??0Cord@absl@@AAE@Vstring_view@1@W4MethodIdentifier@CordzUpdateTracker@cord_internal@1@@Z
    ??0Cord@absl@@QAE@$$QAV01@@Z
    ??0Cord@absl@@QAE@ABV01@@Z
    ??0Cord@absl@@QAE@XZ
    ??0CordForest@absl@@QAE@I@Z
    ??0CordRep@cord_internal@absl@@QAE@XZ
    ??0CordRepBtree@cord_internal@absl@@AAE@XZ
    ??0CordRepBtreeNavigator@cord_internal@absl@@QAE@XZ
    ??0CordRepBtreeReader@cord_internal@absl@@QAE@XZ
    ??0CordRepConcat@cord_internal@absl@@QAE@XZ
    ??0CordRepExternal@cord_internal@absl@@QAE@XZ
    ??0CordRepFlat@cord_internal@absl@@QAE@XZ
    ??0CordRepRing@cord_internal@absl@@AAE@I@Z
    ??0CordRepSubstring@cord_internal@absl@@QAE@XZ
    ??0CordzHandle@cord_internal@absl@@IAE@_N@Z
    ??0CordzHandle@cord_internal@absl@@QAE@XZ
    ??0CordzInfo@cord_internal@absl@@AAE@PAUCordRep@12@PBV012@W4MethodIdentifier@CordzUpdateTracker@12@@Z
    ??0CordzStatistics@cord_internal@absl@@QAE@XZ
    ??0CordzUpdateScope@cord_internal@absl@@QAE@PAVCordzInfo@12@W4MethodIdentifier@CordzUpdateTracker@12@@Z
    ??0CordzUpdateTracker@cord_internal@absl@@QAE@XZ
    ??0Counter@CordzUpdateTracker@cord_internal@absl@@QAE@XZ
    ??0Duration@absl@@AAE@_JI@Z
    ??0Duration@absl@@QAE@XZ
    ??0ErrnoSaver@base_internal@absl@@QAE@XZ
    ??0FILERawSink@str_format_internal@absl@@QAE@PAU_iobuf@@@Z
    ??0Filler@CordRepRing@cord_internal@absl@@QAE@PAV123@I@Z
    ??0FormatConversionSpecImpl@str_format_internal@absl@@QAE@XZ
    ??0FormatSinkImpl@str_format_internal@absl@@QAE@VFormatRawSinkImpl@12@@Z
    ??0GraphCycles@synchronization_internal@absl@@QAE@XZ
    ??0GroupSse2Impl@container_internal@absl@@QAE@PBW4ctrl_t@12@@Z
    ??0HashtablezInfo@container_internal@absl@@QAE@XZ
    ??0HashtablezSampler@container_internal@absl@@QAE@XZ
    ??0Hex@absl@@AAE@W4PadSpec@1@_K@Z
    ??0Impl@time_zone@cctz@time_internal@absl@@AAE@ABV?$basic_string@DU?$char_traits@D@__1@std@@V?$allocator@D@23@@__1@std@@@Z
    ??0InlineData@cord_internal@absl@@QAE@W4DefaultInitType@012@@Z
    ??0InlineData@cord_internal@absl@@QAE@XZ
    ??0InlineRep@Cord@absl@@QAE@$$QAV012@@Z
    ??0InlineRep@Cord@absl@@QAE@ABV012@@Z
    ??0InlineRep@Cord@absl@@QAE@W4DefaultInitType@InlineData@cord_internal@2@@Z
    ??0InlineRep@Cord@absl@@QAE@XZ
    ??0InputValue@UnboundConversion@str_format_internal@absl@@QAE@XZ
    ??0KernelTimeout@synchronization_internal@absl@@QAE@VTime@2@@Z
    ??0KernelTimeout@synchronization_internal@absl@@QAE@XZ
    ??0LockHolder@synchronization_internal@absl@@QAE@PAU_RTL_SRWLOCK@@@Z
    ??0Mutex@absl@@QAE@XZ
    ??0MutexLock@absl@@QAE@PAVMutex@1@@Z
    ??0NodeCounts@CordzStatistics@cord_internal@absl@@QAE@XZ
    ??0ParsedFloat@strings_internal@absl@@QAE@XZ
    ??0ParsedFormatBase@str_format_internal@absl@@QAE@Vstring_view@2@_NV?$initializer_list@W4FormatConversionCharSet@absl@@@std@@@Z
    ??0ParsedFormatConsumer@ParsedFormatBase@str_format_internal@absl@@QAE@PAV123@@Z
    ??0Payload@status_internal@absl@@QAE@$$QAU012@@Z
    ??0Payload@status_internal@absl@@QAE@ABU012@@Z
    ??0PosixTimeZone@cctz@time_internal@absl@@QAE@XZ
    ??0Refcount@cord_internal@absl@@QAE@XZ
    ??0Rep@GraphCycles@synchronization_internal@absl@@QAE@XZ
    ??0SchedulingHelper@base_internal@absl@@QAE@W4SchedulingMode@12@@Z
    ??0ScopedDisable@SchedulingGuard@base_internal@absl@@QAE@XZ
    ??0ScopedEnable@SchedulingGuard@base_internal@absl@@QAE@XZ
    ??0SpinLock@base_internal@absl@@QAE@W4SchedulingMode@12@@Z
    ??0SpinLockHolder@base_internal@absl@@QAE@PAVSpinLock@12@@Z
    ??0Status@absl@@QAE@$$QAV01@@Z
    ??0Status@absl@@QAE@ABV01@@Z
    ??0Status@absl@@QAE@W4StatusCode@1@Vstring_view@1@@Z
    ??0StatusRep@status_internal@absl@@QAE@W4StatusCode@2@Vstring_view@2@V?$unique_ptr@V?$InlinedVector@UPayload@status_internal@absl@@$00V?$allocator@UPayload@status_internal@absl@@@__1@std@@@absl@@U?$default_delete@V?$InlinedVector@UPayload@status_internal@absl@@$00V?$allocator@UPayload@status_internal@absl@@@__1@std@@@absl@@@__1@std@@@__1@std@@@Z
    ??0Storage@?$FixedArray@PAUCordRep@cord_internal@absl@@$0PPPPPPPP@V?$allocator@PAUCordRep@cord_internal@absl@@@__1@std@@@absl@@QAE@IABV?$allocator@PAUCordRep@cord_internal@absl@@@__1@std@@@Z
    ??0Streamable@str_format_internal@absl@@QAE@ABVUntypedFormatSpecImpl@12@V?$Span@$$CBVFormatArgImpl@str_format_internal@absl@@@2@@Z
    ??0SubRange@absl@@QAE@PAUCordRep@cord_internal@1@II@Z
    ??0SynchWaitParams@absl@@QAE@PBUMuHowS@1@PBVCondition@1@VKernelTimeout@synchronization_internal@1@PAVMutex@1@PAUPerThreadSynch@base_internal@1@PAU?$atomic@H@__1@std@@@Z
    ??0Time@absl@@AAE@VDuration@1@@Z
    ??0Time@absl@@QAE@XZ
    ??0TimeConversion@absl@@QAE@XZ
    ??0TimeInfo@TimeZone@absl@@QAE@XZ
    ??0TimeSample@absl@@QAE@XZ
    ??0TimeZone@absl@@QAE@Vtime_zone@cctz@time_internal@1@@Z
    ??0TimeZoneIf@cctz@time_internal@absl@@IAE@XZ
    ??0TimeZoneInfo@cctz@time_internal@absl@@QAE@XZ
    ??0TimeZoneLibC@cctz@time_internal@absl@@QAE@ABV?$basic_string@DU?$char_traits@D@__1@std@@V?$allocator@D@23@@__1@std@@@Z
    ??0Transition@cctz@time_internal@absl@@QAE@XZ
    ??0TransitionType@cctz@time_internal@absl@@QAE@XZ
    ??0UnboundConversion@str_format_internal@absl@@QAE@XZ
    ??0UntypedFormatSpecImpl@str_format_internal@absl@@QAE@Vstring_view@2@@Z
    ??0ViableSubstitution@strings_internal@absl@@QAE@Vstring_view@2@0I@Z
    ??0Waiter@synchronization_internal@absl@@QAE@XZ
    ??0ZoneInfoSource@cctz@time_internal@absl@@QAE@XZ
    ??0_ConstructTransaction@?$__split_buffer@PAPBVImpl@time_zone@cctz@time_internal@absl@@AAV?$allocator@PAPBVImpl@time_zone@cctz@time_internal@absl@@@__1@std@@@__1@std@@QAE@PAPAPAPBVImpl@time_zone@cctz@time_internal@absl@@I@Z
    ??0_ConstructTransaction@?$__split_buffer@UTransition@cctz@time_internal@absl@@AAV?$allocator@UTransition@cctz@time_internal@absl@@@__1@std@@@__1@std@@QAE@PAPAUTransition@cctz@time_internal@absl@@I@Z
    ??0_ConstructTransaction@?$__split_buffer@UTransitionType@cctz@time_internal@absl@@AAV?$allocator@UTransitionType@cctz@time_internal@absl@@@__1@std@@@__1@std@@QAE@PAPAUTransitionType@cctz@time_internal@absl@@I@Z
    ??0_ConstructTransaction@?$vector@PAUCordRep@cord_internal@absl@@V?$allocator@PAUCordRep@cord_internal@absl@@@__1@std@@@__1@std@@QAE@AAV123@I@Z
    ??0_ConstructTransaction@?$vector@PAVCordzHandle@cord_internal@absl@@V?$allocator@PAVCordzHandle@cord_internal@absl@@@__1@std@@@__1@std@@QAE@AAV123@I@Z
    ??0_ConstructTransaction@?$vector@PBVCordzHandle@cord_internal@absl@@V?$allocator@PBVCordzHandle@cord_internal@absl@@@__1@std@@@__1@std@@QAE@AAV123@I@Z
    ??0_ConstructTransaction@?$vector@UConversionItem@ParsedFormatBase@str_format_internal@absl@@V?$allocator@UConversionItem@ParsedFormatBase@str_format_internal@absl@@@__1@std@@@__1@std@@QAE@AAV123@I@Z
    ??0_ConstructTransaction@?$vector@UTransition@cctz@time_internal@absl@@V?$allocator@UTransition@cctz@time_internal@absl@@@__1@std@@@__1@std@@QAE@AAV123@I@Z
    ??0_ConstructTransaction@?$vector@UTransitionType@cctz@time_internal@absl@@V?$allocator@UTransitionType@cctz@time_internal@absl@@@__1@std@@@__1@std@@QAE@AAV123@I@Z
    ??0_ConstructTransaction@?$vector@UViableSubstitution@strings_internal@absl@@V?$allocator@UViableSubstitution@strings_internal@absl@@@__1@std@@@__1@std@@QAE@AAV123@I@Z
    ??0_ConstructTransaction@?$vector@VFormatArgImpl@str_format_internal@absl@@V?$allocator@VFormatArgImpl@str_format_internal@absl@@@__1@std@@@__1@std@@QAE@AAV123@I@Z
    ??0absolute_lookup@time_zone@cctz@time_internal@absl@@QAE@XZ
    ??0civil_lookup@time_zone@cctz@time_internal@absl@@QAE@XZ
    ??0civil_transition@time_zone@cctz@time_internal@absl@@QAE@XZ
    ??0fields@detail@cctz@time_internal@absl@@QAE@_JCCCCC@Z
    ??0int128@absl@@AAE@_J_K@Z
    ??0int128@absl@@QAE@H@Z
    ??0int128@absl@@QAE@M@Z
    ??0int128@absl@@QAE@N@Z
    ??0int128@absl@@QAE@O@Z
    ??0once_flag@absl@@QAE@XZ
    ??0string_view@absl@@AAE@PBDIUSkipCheckLengthTag@01@@Z
    ??0string_view@absl@@QAE@PBD@Z
    ??0string_view@absl@@QAE@PBDI@Z
    ??0string_view@absl@@QAE@XZ
    ??0time_zone@cctz@time_internal@absl@@AAE@PBVImpl@0123@@Z
    ??0time_zone@cctz@time_internal@absl@@QAE@XZ
    ??0uint128@absl@@AAE@_K0@Z
    ??0uint128@absl@@QAE@H@Z
    ??0uint128@absl@@QAE@I@Z
    ??0uint128@absl@@QAE@M@Z
    ??0uint128@absl@@QAE@N@Z
    ??0uint128@absl@@QAE@O@Z
    ??0uint128@absl@@QAE@Vint128@1@@Z
    ??0uint128@absl@@QAE@_J@Z
    ??0uint128@absl@@QAE@_K@Z
    ??1?$AllocationTransaction@V?$allocator@H@__1@std@@@inlined_vector_internal@absl@@QAE@XZ
    ??1?$AllocationTransaction@V?$allocator@PAUCordRep@cord_internal@absl@@@__1@std@@@inlined_vector_internal@absl@@QAE@XZ
    ??1?$AllocationTransaction@V?$allocator@PBUCordRep@cord_internal@absl@@@__1@std@@@inlined_vector_internal@absl@@QAE@XZ
    ??1?$AllocationTransaction@V?$allocator@UPayload@status_internal@absl@@@__1@std@@@inlined_vector_internal@absl@@QAE@XZ
    ??1?$AllocationTransaction@V?$allocator@USubRange@absl@@@__1@std@@@inlined_vector_internal@absl@@QAE@XZ
    ??1?$FixedArray@PAUCordRep@cord_internal@absl@@$0PPPPPPPP@V?$allocator@PAUCordRep@cord_internal@absl@@@__1@std@@@absl@@QAE@XZ
    ??1?$InlinedVector@H$0CP@V?$allocator@H@__1@std@@@absl@@QAE@XZ
    ??1?$InlinedVector@PAUCordRep@cord_internal@absl@@$01V?$allocator@PAUCordRep@cord_internal@absl@@@__1@std@@@absl@@QAE@XZ
    ??1?$InlinedVector@PAUCordRep@cord_internal@absl@@$0CP@V?$allocator@PAUCordRep@cord_internal@absl@@@__1@std@@@absl@@QAE@XZ
    ??1?$InlinedVector@PBUCordRep@cord_internal@absl@@$0CP@V?$allocator@PBUCordRep@cord_internal@absl@@@__1@std@@@absl@@QAE@XZ
    ??1?$InlinedVector@UPayload@status_internal@absl@@$00V?$allocator@UPayload@status_internal@absl@@@__1@std@@@absl@@QAE@XZ
    ??1?$InlinedVector@USubRange@absl@@$0CP@V?$allocator@USubRange@absl@@@__1@std@@@absl@@QAE@XZ
    ??1?$Storage@H$0CP@V?$allocator@H@__1@std@@@inlined_vector_internal@absl@@QAE@XZ
    ??1?$Storage@PAUCordRep@cord_internal@absl@@$01V?$allocator@PAUCordRep@cord_internal@absl@@@__1@std@@@inlined_vector_internal@absl@@QAE@XZ
    ??1?$Storage@PAUCordRep@cord_internal@absl@@$0CP@V?$allocator@PAUCordRep@cord_internal@absl@@@__1@std@@@inlined_vector_internal@absl@@QAE@XZ
    ??1?$Storage@PBUCordRep@cord_internal@absl@@$0CP@V?$allocator@PBUCordRep@cord_internal@absl@@@__1@std@@@inlined_vector_internal@absl@@QAE@XZ
    ??1?$Storage@UPayload@status_internal@absl@@$00V?$allocator@UPayload@status_internal@absl@@@__1@std@@@inlined_vector_internal@absl@@QAE@XZ
    ??1?$Storage@USubRange@absl@@$0CP@V?$allocator@USubRange@absl@@@__1@std@@@inlined_vector_internal@absl@@QAE@XZ
    ??1?$__policy_func@$$A6A?AV?$unique_ptr@VZoneInfoSource@cctz@time_internal@absl@@U?$default_delete@VZoneInfoSource@cctz@time_internal@absl@@@__1@std@@@__1@std@@ABV?$basic_string@DU?$char_traits@D@__1@std@@V?$allocator@D@23@@23@@Z@__function@__1@std@@QAE@XZ
    ??1?$__policy_func@$$A6AXVstring_view@absl@@ABVCord@2@@Z@__function@__1@std@@QAE@XZ
    ??1?$__split_buffer@PAPBVImpl@time_zone@cctz@time_internal@absl@@AAV?$allocator@PAPBVImpl@time_zone@cctz@time_internal@absl@@@__1@std@@@__1@std@@QAE@XZ
    ??1?$__split_buffer@PAUCordRep@cord_internal@absl@@AAV?$allocator@PAUCordRep@cord_internal@absl@@@__1@std@@@__1@std@@QAE@XZ
    ??1?$__split_buffer@PAVCordzHandle@cord_internal@absl@@AAV?$allocator@PAVCordzHandle@cord_internal@absl@@@__1@std@@@__1@std@@QAE@XZ
    ??1?$__split_buffer@PBVCordzHandle@cord_internal@absl@@AAV?$allocator@PBVCordzHandle@cord_internal@absl@@@__1@std@@@__1@std@@QAE@XZ
    ??1?$__split_buffer@UConversionItem@ParsedFormatBase@str_format_internal@absl@@AAV?$allocator@UConversionItem@ParsedFormatBase@str_format_internal@absl@@@__1@std@@@__1@std@@QAE@XZ
    ??1?$__split_buffer@UTransition@cctz@time_internal@absl@@AAV?$allocator@UTransition@cctz@time_internal@absl@@@__1@std@@@__1@std@@QAE@XZ
    ??1?$__split_buffer@UTransitionType@cctz@time_internal@absl@@AAV?$allocator@UTransitionType@cctz@time_internal@absl@@@__1@std@@@__1@std@@QAE@XZ
    ??1?$__split_buffer@UViableSubstitution@strings_internal@absl@@AAV?$allocator@UViableSubstitution@strings_internal@absl@@@__1@std@@@__1@std@@QAE@XZ
    ??1?$__temp_value@UTransition@cctz@time_internal@absl@@V?$allocator@UTransition@cctz@time_internal@absl@@@__1@std@@@__1@std@@QAE@XZ
    ??1?$__temp_value@UTransitionType@cctz@time_internal@absl@@V?$allocator@UTransitionType@cctz@time_internal@absl@@@__1@std@@@__1@std@@QAE@XZ
    ??1?$__vector_base@PAUCordRep@cord_internal@absl@@V?$allocator@PAUCordRep@cord_internal@absl@@@__1@std@@@__1@std@@IAE@XZ
    ??1?$__vector_base@PAVCordzHandle@cord_internal@absl@@V?$allocator@PAVCordzHandle@cord_internal@absl@@@__1@std@@@__1@std@@IAE@XZ
    ??1?$__vector_base@PBVCordzHandle@cord_internal@absl@@V?$allocator@PBVCordzHandle@cord_internal@absl@@@__1@std@@@__1@std@@IAE@XZ
    ??1?$__vector_base@UTransition@cctz@time_internal@absl@@V?$allocator@UTransition@cctz@time_internal@absl@@@__1@std@@@__1@std@@IAE@XZ
    ??1?$__vector_base@UTransitionType@cctz@time_internal@absl@@V?$allocator@UTransitionType@cctz@time_internal@absl@@@__1@std@@@__1@std@@IAE@XZ
    ??1?$__vector_base@UViableSubstitution@strings_internal@absl@@V?$allocator@UViableSubstitution@strings_internal@absl@@@__1@std@@@__1@std@@IAE@XZ
    ??1?$__vector_base@VFormatArgImpl@str_format_internal@absl@@V?$allocator@VFormatArgImpl@str_format_internal@absl@@@__1@std@@@__1@std@@IAE@XZ
    ??1?$function@$$A6A?AV?$unique_ptr@VZoneInfoSource@cctz@time_internal@absl@@U?$default_delete@VZoneInfoSource@cctz@time_internal@absl@@@__1@std@@@__1@std@@ABV?$basic_string@DU?$char_traits@D@__1@std@@V?$allocator@D@23@@23@@Z@__1@std@@QAE@XZ
    ??1?$function@$$A6AXVstring_view@absl@@ABVCord@2@@Z@__1@std@@QAE@XZ
    ??1?$optional@V?$basic_string@DU?$char_traits@D@__1@std@@V?$allocator@D@23@@__1@std@@@absl@@QAE@XZ
    ??1?$optional_data@V?$basic_string@DU?$char_traits@D@__1@std@@V?$allocator@D@23@@__1@std@@$0A@@optional_internal@absl@@QAE@XZ
    ??1?$optional_data_base@V?$basic_string@DU?$char_traits@D@__1@std@@V?$allocator@D@23@@__1@std@@@optional_internal@absl@@QAE@XZ
    ??1?$optional_data_dtor_base@V?$basic_string@DU?$char_traits@D@__1@std@@V?$allocator@D@23@@__1@std@@$0A@@optional_internal@absl@@IAE@XZ
    ??1?$pair@$$CBV?$basic_string@DU?$char_traits@D@__1@std@@V?$allocator@D@23@@__1@std@@PBVImpl@time_zone@cctz@time_internal@absl@@@__1@std@@QAE@XZ
    ??1?$unique_ptr@$$CBVImpl@time_zone@cctz@time_internal@absl@@U?$default_delete@$$CBVImpl@time_zone@cctz@time_internal@absl@@@__1@std@@@__1@std@@QAE@XZ
    ??1?$unique_ptr@PAPBVImpl@time_zone@cctz@time_internal@absl@@V?$__allocator_destructor@V?$allocator@PBVImpl@time_zone@cctz@time_internal@absl@@@__1@std@@@__1@std@@@__1@std@@QAE@XZ
    ??1?$unique_ptr@U?$__hash_node@U?$__hash_value_type@V?$basic_string@DU?$char_traits@D@__1@std@@V?$allocator@D@23@@__1@std@@PBVImpl@time_zone@cctz@time_internal@absl@@@__1@std@@PAX@__1@std@@V?$__hash_node_destructor@V?$allocator@U?$__hash_node@U?$__hash_value_type@V?$basic_string@DU?$char_traits@D@__1@std@@V?$allocator@D@23@@__1@std@@PBVImpl@time_zone@cctz@time_internal@absl@@@__1@std@@PAX@__1@std@@@__1@std@@@23@@__1@std@@QAE@XZ
    ??1?$unique_ptr@UThreadIdentity@base_internal@absl@@P6AXPAX@Z@__1@std@@QAE@XZ
    ??1?$unique_ptr@V?$InlinedVector@UPayload@status_internal@absl@@$00V?$allocator@UPayload@status_internal@absl@@@__1@std@@@absl@@U?$default_delete@V?$InlinedVector@UPayload@status_internal@absl@@$00V?$allocator@UPayload@status_internal@absl@@@__1@std@@@absl@@@__1@std@@@__1@std@@QAE@XZ
    ??1?$unique_ptr@VTimeZoneIf@cctz@time_internal@absl@@U?$default_delete@VTimeZoneIf@cctz@time_internal@absl@@@__1@std@@@__1@std@@QAE@XZ
    ??1?$unique_ptr@VTimeZoneInfo@cctz@time_internal@absl@@U?$default_delete@VTimeZoneInfo@cctz@time_internal@absl@@@__1@std@@@__1@std@@QAE@XZ
    ??1?$unique_ptr@VZoneInfoSource@cctz@time_internal@absl@@U?$default_delete@VZoneInfoSource@cctz@time_internal@absl@@@__1@std@@@__1@std@@QAE@XZ
    ??1?$vector@PAUCordRep@cord_internal@absl@@V?$allocator@PAUCordRep@cord_internal@absl@@@__1@std@@@__1@std@@QAE@XZ
    ??1?$vector@PAVCordzHandle@cord_internal@absl@@V?$allocator@PAVCordzHandle@cord_internal@absl@@@__1@std@@@__1@std@@QAE@XZ
    ??1?$vector@PBVCordzHandle@cord_internal@absl@@V?$allocator@PBVCordzHandle@cord_internal@absl@@@__1@std@@@__1@std@@QAE@XZ
    ??1?$vector@UTransition@cctz@time_internal@absl@@V?$allocator@UTransition@cctz@time_internal@absl@@@__1@std@@@__1@std@@QAE@XZ
    ??1?$vector@UTransitionType@cctz@time_internal@absl@@V?$allocator@UTransitionType@cctz@time_internal@absl@@@__1@std@@@__1@std@@QAE@XZ
    ??1?$vector@UViableSubstitution@strings_internal@absl@@V?$allocator@UViableSubstitution@strings_internal@absl@@@__1@std@@@__1@std@@QAE@XZ
    ??1?$vector@VFormatArgImpl@str_format_internal@absl@@V?$allocator@VFormatArgImpl@str_format_internal@absl@@@__1@std@@@__1@std@@QAE@XZ
    ??1BadStatusOrAccess@absl@@UAE@XZ
    ??1ChunkIterator@Cord@absl@@QAE@XZ
    ??1CondVar@absl@@QAE@XZ
    ??1Cord@absl@@QAE@XZ
    ??1CordForest@absl@@QAE@XZ
    ??1CordzHandle@cord_internal@absl@@MAE@XZ
    ??1CordzInfo@cord_internal@absl@@EAE@XZ
    ??1CordzUpdateScope@cord_internal@absl@@QAE@XZ
    ??1ErrnoSaver@base_internal@absl@@QAE@XZ
    ??1FormatSinkImpl@str_format_internal@absl@@QAE@XZ
    ??1GraphCycles@synchronization_internal@absl@@QAE@XZ
    ??1HashtablezInfo@container_internal@absl@@QAE@XZ
    ??1HashtablezSampler@container_internal@absl@@QAE@XZ
    ??1Impl@time_zone@cctz@time_internal@absl@@QAE@XZ
    ??1LockHolder@synchronization_internal@absl@@QAE@XZ
    ??1Mutex@absl@@QAE@XZ
    ??1MutexLock@absl@@QAE@XZ
    ??1Notification@absl@@QAE@XZ
    ??1Payload@status_internal@absl@@QAE@XZ
    ??1PosixTimeZone@cctz@time_internal@absl@@QAE@XZ
    ??1Rep@GraphCycles@synchronization_internal@absl@@QAE@XZ
    ??1SchedulingHelper@base_internal@absl@@QAE@XZ
    ??1ScopedDisable@SchedulingGuard@base_internal@absl@@QAE@XZ
    ??1ScopedEnable@SchedulingGuard@base_internal@absl@@QAE@XZ
    ??1SpinLockHolder@base_internal@absl@@QAE@XZ
    ??1Status@absl@@QAE@XZ
    ??1StatusRep@status_internal@absl@@QAE@XZ
    ??1Storage@?$FixedArray@PAUCordRep@cord_internal@absl@@$0PPPPPPPP@V?$allocator@PAUCordRep@cord_internal@absl@@@__1@std@@@absl@@QAE@XZ
    ??1Streamable@str_format_internal@absl@@QAE@XZ
    ??1TimeZoneIf@cctz@time_internal@absl@@UAE@XZ
    ??1TimeZoneInfo@cctz@time_internal@absl@@UAE@XZ
    ??1TimeZoneLibC@cctz@time_internal@absl@@UAE@XZ
    ??1Waiter@synchronization_internal@absl@@QAE@XZ
    ??1ZoneInfoSource@cctz@time_internal@absl@@UAE@XZ
    ??1_ConstructTransaction@?$__split_buffer@PAPBVImpl@time_zone@cctz@time_internal@absl@@AAV?$allocator@PAPBVImpl@time_zone@cctz@time_internal@absl@@@__1@std@@@__1@std@@QAE@XZ
    ??1_ConstructTransaction@?$__split_buffer@UTransition@cctz@time_internal@absl@@AAV?$allocator@UTransition@cctz@time_internal@absl@@@__1@std@@@__1@std@@QAE@XZ
    ??1_ConstructTransaction@?$__split_buffer@UTransitionType@cctz@time_internal@absl@@AAV?$allocator@UTransitionType@cctz@time_internal@absl@@@__1@std@@@__1@std@@QAE@XZ
    ??1_ConstructTransaction@?$vector@PAUCordRep@cord_internal@absl@@V?$allocator@PAUCordRep@cord_internal@absl@@@__1@std@@@__1@std@@QAE@XZ
    ??1_ConstructTransaction@?$vector@PAVCordzHandle@cord_internal@absl@@V?$allocator@PAVCordzHandle@cord_internal@absl@@@__1@std@@@__1@std@@QAE@XZ
    ??1_ConstructTransaction@?$vector@PBVCordzHandle@cord_internal@absl@@V?$allocator@PBVCordzHandle@cord_internal@absl@@@__1@std@@@__1@std@@QAE@XZ
    ??1_ConstructTransaction@?$vector@UConversionItem@ParsedFormatBase@str_format_internal@absl@@V?$allocator@UConversionItem@ParsedFormatBase@str_format_internal@absl@@@__1@std@@@__1@std@@QAE@XZ
    ??1_ConstructTransaction@?$vector@UTransition@cctz@time_internal@absl@@V?$allocator@UTransition@cctz@time_internal@absl@@@__1@std@@@__1@std@@QAE@XZ
    ??1_ConstructTransaction@?$vector@UTransitionType@cctz@time_internal@absl@@V?$allocator@UTransitionType@cctz@time_internal@absl@@@__1@std@@@__1@std@@QAE@XZ
    ??1_ConstructTransaction@?$vector@UViableSubstitution@strings_internal@absl@@V?$allocator@UViableSubstitution@strings_internal@absl@@@__1@std@@@__1@std@@QAE@XZ
    ??1_ConstructTransaction@?$vector@VFormatArgImpl@str_format_internal@absl@@V?$allocator@VFormatArgImpl@str_format_internal@absl@@@__1@std@@@__1@std@@QAE@XZ
    ??1bad_optional_access@absl@@UAE@XZ
    ??1bad_variant_access@absl@@UAE@XZ
    ??4?$optional@V?$basic_string@DU?$char_traits@D@__1@std@@V?$allocator@D@23@@__1@std@@@absl@@QAEAAV01@$$QAV01@@Z
    ??4?$optional_data@V?$basic_string@DU?$char_traits@D@__1@std@@V?$allocator@D@23@@__1@std@@$0A@@optional_internal@absl@@IAEAAV012@$$QAV012@@Z
    ??4?$unique_ptr@V?$InlinedVector@UPayload@status_internal@absl@@$00V?$allocator@UPayload@status_internal@absl@@@__1@std@@@absl@@U?$default_delete@V?$InlinedVector@UPayload@status_internal@absl@@$00V?$allocator@UPayload@status_internal@absl@@@__1@std@@@absl@@@__1@std@@@__1@std@@QAEAAV012@$$QAV012@@Z
    ??4BadStatusOrAccess@absl@@QAEAAV01@$$QAV01@@Z
    ??4BadStatusOrAccess@absl@@QAEAAV01@ABV01@@Z
    ??4Cord@absl@@QAEAAV01@$$QAV01@@Z
    ??4Cord@absl@@QAEAAV01@Vstring_view@1@@Z
    ??4CordzUpdateTracker@cord_internal@absl@@QAEAAV012@ABV012@@Z
    ??4InlineRep@Cord@absl@@QAEAAV012@$$QAV012@@Z
    ??4Payload@status_internal@absl@@QAEAAU012@$$QAU012@@Z
    ??4Status@absl@@QAEAAV01@$$QAV01@@Z
    ??4Status@absl@@QAEAAV01@ABV01@@Z
    ??4int128@absl@@QAEAAV01@H@Z
    ??4uint128@absl@@QAEAAV01@H@Z
    ??4uint128@absl@@QAEAAV01@_J@Z
    ??4uint128@absl@@QAEAAV01@_K@Z
    ??5absl@@YA?AVuint128@0@V10@H@Z
    ??6absl@@YA?AVuint128@0@V10@H@Z
    ??6absl@@YAAAV?$basic_ostream@DU?$char_traits@D@__1@std@@@__1@std@@AAV123@ABVCord@0@@Z
    ??6absl@@YAAAV?$basic_ostream@DU?$char_traits@D@__1@std@@@__1@std@@AAV123@ABVStatus@0@@Z
    ??6absl@@YAAAV?$basic_ostream@DU?$char_traits@D@__1@std@@@__1@std@@AAV123@Vint128@0@@Z
    ??6absl@@YAAAV?$basic_ostream@DU?$char_traits@D@__1@std@@@__1@std@@AAV123@Vstring_view@0@@Z
    ??6absl@@YAAAV?$basic_ostream@DU?$char_traits@D@__1@std@@@__1@std@@AAV123@Vuint128@0@@Z
    ??6absl@@YAAAV?$basic_ostream@DU?$char_traits@D@__1@std@@@__1@std@@AAV123@W4LogSeverity@0@@Z
    ??6absl@@YAAAV?$basic_ostream@DU?$char_traits@D@__1@std@@@__1@std@@AAV123@W4StatusCode@0@@Z
    ??6cord_internal@absl@@YAAAV?$basic_ostream@DU?$char_traits@D@__1@std@@@__1@std@@AAV234@ABVCordRepRing@01@@Z
    ??6detail@cctz@time_internal@absl@@YAAAV?$basic_ostream@DU?$char_traits@D@__1@std@@@__1@std@@AAV456@ABV?$civil_time@Uday_tag@detail@cctz@time_internal@absl@@@0123@@Z
    ??6detail@cctz@time_internal@absl@@YAAAV?$basic_ostream@DU?$char_traits@D@__1@std@@@__1@std@@AAV456@ABV?$civil_time@Uhour_tag@detail@cctz@time_internal@absl@@@0123@@Z
    ??6detail@cctz@time_internal@absl@@YAAAV?$basic_ostream@DU?$char_traits@D@__1@std@@@__1@std@@AAV456@ABV?$civil_time@Uminute_tag@detail@cctz@time_internal@absl@@@0123@@Z
    ??6detail@cctz@time_internal@absl@@YAAAV?$basic_ostream@DU?$char_traits@D@__1@std@@@__1@std@@AAV456@ABV?$civil_time@Umonth_tag@detail@cctz@time_internal@absl@@@0123@@Z
    ??6detail@cctz@time_internal@absl@@YAAAV?$basic_ostream@DU?$char_traits@D@__1@std@@@__1@std@@AAV456@ABV?$civil_time@Usecond_tag@detail@cctz@time_internal@absl@@@0123@@Z
    ??6detail@cctz@time_internal@absl@@YAAAV?$basic_ostream@DU?$char_traits@D@__1@std@@@__1@std@@AAV456@ABV?$civil_time@Uyear_tag@detail@cctz@time_internal@absl@@@0123@@Z
    ??6detail@cctz@time_internal@absl@@YAAAV?$basic_ostream@DU?$char_traits@D@__1@std@@@__1@std@@AAV456@W4weekday@0123@@Z
    ??6str_format_internal@absl@@YAAAV?$basic_ostream@DU?$char_traits@D@__1@std@@@__1@std@@AAV234@ABVStreamable@01@@Z
    ??6str_format_internal@absl@@YAAAV?$basic_ostream@DU?$char_traits@D@__1@std@@@__1@std@@AAV234@W4FormatConversionChar@1@@Z
    ??6time_internal@absl@@YAAAV?$basic_ostream@DU?$char_traits@D@__1@std@@@__1@std@@AAV234@V?$civil_time@Uday_tag@time_internal@absl@@@detail@cctz@01@@Z
    ??6time_internal@absl@@YAAAV?$basic_ostream@DU?$char_traits@D@__1@std@@@__1@std@@AAV234@V?$civil_time@Uhour_tag@time_internal@absl@@@detail@cctz@01@@Z
    ??6time_internal@absl@@YAAAV?$basic_ostream@DU?$char_traits@D@__1@std@@@__1@std@@AAV234@V?$civil_time@Uminute_tag@time_internal@absl@@@detail@cctz@01@@Z
    ??6time_internal@absl@@YAAAV?$basic_ostream@DU?$char_traits@D@__1@std@@@__1@std@@AAV234@V?$civil_time@Umonth_tag@time_internal@absl@@@detail@cctz@01@@Z
    ??6time_internal@absl@@YAAAV?$basic_ostream@DU?$char_traits@D@__1@std@@@__1@std@@AAV234@V?$civil_time@Usecond_tag@time_internal@absl@@@detail@cctz@01@@Z
    ??6time_internal@absl@@YAAAV?$basic_ostream@DU?$char_traits@D@__1@std@@@__1@std@@AAV234@V?$civil_time@Uyear_tag@time_internal@absl@@@detail@cctz@01@@Z
    ??7absl@@YA_NVuint128@0@@Z
    ??8ChunkIterator@Cord@absl@@QBE_NABV012@@Z
    ??8GraphId@synchronization_internal@absl@@QBE_NABU012@@Z
    ??8__1@std@@YA_NABV?$__hash_const_iterator@PAU?$__hash_node@U?$__hash_value_type@V?$basic_string@DU?$char_traits@D@__1@std@@V?$allocator@D@23@@__1@std@@PBVImpl@time_zone@cctz@time_internal@absl@@@__1@std@@PAX@__1@std@@@01@0@Z
    ??8__1@std@@YA_NABV?$__hash_iterator@PAU?$__hash_node@U?$__hash_value_type@V?$basic_string@DU?$char_traits@D@__1@std@@V?$allocator@D@23@@__1@std@@PBVImpl@time_zone@cctz@time_internal@absl@@@__1@std@@PAX@__1@std@@@01@0@Z
    ??8absl@@YA_NABVCord@0@0@Z
    ??8absl@@YA_NVDuration@0@0@Z
    ??8absl@@YA_NVTime@0@0@Z
    ??8absl@@YA_NVint128@0@0@Z
    ??8absl@@YA_NVstring_view@0@0@Z
    ??8absl@@YA_NVuint128@0@0@Z
    ??9ChunkIterator@Cord@absl@@QBE_NABV012@@Z
    ??9GraphId@synchronization_internal@absl@@QBE_NABU012@@Z
    ??9__1@std@@YA_NABV?$__hash_const_iterator@PAU?$__hash_node@U?$__hash_value_type@V?$basic_string@DU?$char_traits@D@__1@std@@V?$allocator@D@23@@__1@std@@PBVImpl@time_zone@cctz@time_internal@absl@@@__1@std@@PAX@__1@std@@@01@0@Z
    ??9__1@std@@YA_NABV?$__hash_iterator@PAU?$__hash_node@U?$__hash_value_type@V?$basic_string@DU?$char_traits@D@__1@std@@V?$allocator@D@23@@__1@std@@PBVImpl@time_zone@cctz@time_internal@absl@@@__1@std@@PAX@__1@std@@@01@0@Z
    ??9__1@std@@YA_NABV?$__hash_map_const_iterator@V?$__hash_const_iterator@PAU?$__hash_node@U?$__hash_value_type@V?$basic_string@DU?$char_traits@D@__1@std@@V?$allocator@D@23@@__1@std@@PBVImpl@time_zone@cctz@time_internal@absl@@@__1@std@@PAX@__1@std@@@__1@std@@@01@0@Z
    ??9__1@std@@YA_NABV?$__hash_map_iterator@V?$__hash_iterator@PAU?$__hash_node@U?$__hash_value_type@V?$basic_string@DU?$char_traits@D@__1@std@@V?$allocator@D@23@@__1@std@@PBVImpl@time_zone@cctz@time_internal@absl@@@__1@std@@PAX@__1@std@@@__1@std@@@01@0@Z
    ??9absl@@YA_NABVCord@0@0@Z
    ??9absl@@YA_NVint128@0@0@Z
    ??9absl@@YA_NVstring_view@0@0@Z
    ??9absl@@YA_NVuint128@0@0@Z
    ??A?$FixedArray@PAUCordRep@cord_internal@absl@@$0PPPPPPPP@V?$allocator@PAUCordRep@cord_internal@absl@@@__1@std@@@absl@@QAEAAPAUCordRep@cord_internal@1@I@Z
    ??A?$InlinedVector@PAUCordRep@cord_internal@absl@@$0CP@V?$allocator@PAUCordRep@cord_internal@absl@@@__1@std@@@absl@@QAEAAPAUCordRep@cord_internal@1@I@Z
    ??A?$InlinedVector@UPayload@status_internal@absl@@$00V?$allocator@UPayload@status_internal@absl@@@__1@std@@@absl@@QAEAAUPayload@status_internal@1@I@Z
    ??A?$InlinedVector@UPayload@status_internal@absl@@$00V?$allocator@UPayload@status_internal@absl@@@__1@std@@@absl@@QBEABUPayload@status_internal@1@I@Z
    ??A?$Span@$$CBVFormatArgImpl@str_format_internal@absl@@@absl@@QBEABVFormatArgImpl@str_format_internal@1@I@Z
    ??A?$Span@I@absl@@QBEAAII@Z
    ??A?$array@PAUCordRep@cord_internal@absl@@$01@__1@std@@QAEAAPAUCordRep@cord_internal@absl@@I@Z
    ??A?$unique_ptr@$$BY0A@PAU?$__hash_node_base@PAU?$__hash_node@U?$__hash_value_type@V?$basic_string@DU?$char_traits@D@__1@std@@V?$allocator@D@23@@__1@std@@PBVImpl@time_zone@cctz@time_internal@absl@@@__1@std@@PAX@__1@std@@@__1@std@@V?$__bucket_list_deallocator@V?$allocator@PAU?$__hash_node_base@PAU?$__hash_node@U?$__hash_value_type@V?$basic_string@DU?$char_traits@D@__1@std@@V?$allocator@D@23@@__1@std@@PBVImpl@time_zone@cctz@time_internal@absl@@@__1@std@@PAX@__1@std@@@__1@std@@@__1@std@@@23@@__1@std@@QBEAAPAU?$__hash_node_base@PAU?$__hash_node@U?$__hash_value_type@V?$basic_string@DU?$char_traits@D@__1@std@@V?$allocator@D@23@@__1@std@@PBVImpl@time_zone@cctz@time_internal@absl@@@__1@std@@PAX@__1@std@@@12@I@Z
    ??A?$unordered_map@V?$basic_string@DU?$char_traits@D@__1@std@@V?$allocator@D@23@@__1@std@@PBVImpl@time_zone@cctz@time_internal@absl@@U?$hash@V?$basic_string@DU?$char_traits@D@__1@std@@V?$allocator@D@23@@__1@std@@@23@U?$equal_to@V?$basic_string@DU?$char_traits@D@__1@std@@V?$allocator@D@23@@__1@std@@@23@V?$allocator@U?$pair@$$CBV?$basic_string@DU?$char_traits@D@__1@std@@V?$allocator@D@23@@__1@std@@PBVImpl@time_zone@cctz@time_internal@absl@@@__1@std@@@23@@__1@std@@QAEAAPBVImpl@time_zone@cctz@time_internal@absl@@ABV?$basic_string@DU?$char_traits@D@__1@std@@V?$allocator@D@23@@12@@Z
    ??A?$vector@UTransition@cctz@time_internal@absl@@V?$allocator@UTransition@cctz@time_internal@absl@@@__1@std@@@__1@std@@QAEAAUTransition@cctz@time_internal@absl@@I@Z
    ??A?$vector@UTransition@cctz@time_internal@absl@@V?$allocator@UTransition@cctz@time_internal@absl@@@__1@std@@@__1@std@@QBEABUTransition@cctz@time_internal@absl@@I@Z
    ??A?$vector@UTransitionType@cctz@time_internal@absl@@V?$allocator@UTransitionType@cctz@time_internal@absl@@@__1@std@@@__1@std@@QAEAAUTransitionType@cctz@time_internal@absl@@I@Z
    ??A?$vector@UTransitionType@cctz@time_internal@absl@@V?$allocator@UTransitionType@cctz@time_internal@absl@@@__1@std@@@__1@std@@QBEABUTransitionType@cctz@time_internal@absl@@I@Z
    ??A?$vector@UViableSubstitution@strings_internal@absl@@V?$allocator@UViableSubstitution@strings_internal@absl@@@__1@std@@@__1@std@@QAEAAUViableSubstitution@strings_internal@absl@@I@Z
    ??ACord@absl@@QBEDI@Z
    ??Astring_view@absl@@QBEABDI@Z
    ??B?$__atomic_base@PAVCordzHandle@cord_internal@absl@@$0A@@__1@std@@QBEPAVCordzHandle@cord_internal@absl@@XZ
    ??B?$unique_ptr@V?$InlinedVector@UPayload@status_internal@absl@@$00V?$allocator@UPayload@status_internal@absl@@@__1@std@@@absl@@U?$default_delete@V?$InlinedVector@UPayload@status_internal@absl@@$00V?$allocator@UPayload@status_internal@absl@@@__1@std@@@absl@@@__1@std@@@__1@std@@QBE_NXZ
    ??B?$unique_ptr@VTimeZoneIf@cctz@time_internal@absl@@U?$default_delete@VTimeZoneIf@cctz@time_internal@absl@@@__1@std@@@__1@std@@QBE_NXZ
    ??B?$unique_ptr@VZoneInfoSource@cctz@time_internal@absl@@U?$default_delete@VZoneInfoSource@cctz@time_internal@absl@@@__1@std@@@__1@std@@QBE_NXZ
    ??BCord@absl@@QBE?AV?$basic_string@DU?$char_traits@D@__1@std@@V?$allocator@D@23@@__1@std@@XZ
    ??BCordRepBtreeReader@cord_internal@absl@@QBE_NXZ
    ??BTimeZone@absl@@QBE?AVtime_zone@cctz@time_internal@1@XZ
    ??Bint128@absl@@QBEEXZ
    ??Bint128@absl@@QBENXZ
    ??Buint128@absl@@QBEEXZ
    ??Buint128@absl@@QBEIXZ
    ??Buint128@absl@@QBENXZ
    ??Buint128@absl@@QBE_KXZ
    ??Buint128@absl@@QBE_NXZ
    ??C?$__hash_const_iterator@PAU?$__hash_node@U?$__hash_value_type@V?$basic_string@DU?$char_traits@D@__1@std@@V?$allocator@D@23@@__1@std@@PBVImpl@time_zone@cctz@time_internal@absl@@@__1@std@@PAX@__1@std@@@__1@std@@QBEPBU?$__hash_value_type@V?$basic_string@DU?$char_traits@D@__1@std@@V?$allocator@D@23@@__1@std@@PBVImpl@time_zone@cctz@time_internal@absl@@@12@XZ
    ??C?$__hash_iterator@PAU?$__hash_node@U?$__hash_value_type@V?$basic_string@DU?$char_traits@D@__1@std@@V?$allocator@D@23@@__1@std@@PBVImpl@time_zone@cctz@time_internal@absl@@@__1@std@@PAX@__1@std@@@__1@std@@QBEPAU?$__hash_value_type@V?$basic_string@DU?$char_traits@D@__1@std@@V?$allocator@D@23@@__1@std@@PBVImpl@time_zone@cctz@time_internal@absl@@@12@XZ
    ??C?$__hash_map_const_iterator@V?$__hash_const_iterator@PAU?$__hash_node@U?$__hash_value_type@V?$basic_string@DU?$char_traits@D@__1@std@@V?$allocator@D@23@@__1@std@@PBVImpl@time_zone@cctz@time_internal@absl@@@__1@std@@PAX@__1@std@@@__1@std@@@__1@std@@QBEPBU?$pair@$$CBV?$basic_string@DU?$char_traits@D@__1@std@@V?$allocator@D@23@@__1@std@@PBVImpl@time_zone@cctz@time_internal@absl@@@12@XZ
    ??C?$unique_ptr@$$CBVImpl@time_zone@cctz@time_internal@absl@@U?$default_delete@$$CBVImpl@time_zone@cctz@time_internal@absl@@@__1@std@@@__1@std@@QBEPBVImpl@time_zone@cctz@time_internal@absl@@XZ
    ??C?$unique_ptr@U?$__hash_node@U?$__hash_value_type@V?$basic_string@DU?$char_traits@D@__1@std@@V?$allocator@D@23@@__1@std@@PBVImpl@time_zone@cctz@time_internal@absl@@@__1@std@@PAX@__1@std@@V?$__hash_node_destructor@V?$allocator@U?$__hash_node@U?$__hash_value_type@V?$basic_string@DU?$char_traits@D@__1@std@@V?$allocator@D@23@@__1@std@@PBVImpl@time_zone@cctz@time_internal@absl@@@__1@std@@PAX@__1@std@@@__1@std@@@23@@__1@std@@QBEPAU?$__hash_node@U?$__hash_value_type@V?$basic_string@DU?$char_traits@D@__1@std@@V?$allocator@D@23@@__1@std@@PBVImpl@time_zone@cctz@time_internal@absl@@@__1@std@@PAX@12@XZ
    ??C?$unique_ptr@V?$InlinedVector@UPayload@status_internal@absl@@$00V?$allocator@UPayload@status_internal@absl@@@__1@std@@@absl@@U?$default_delete@V?$InlinedVector@UPayload@status_internal@absl@@$00V?$allocator@UPayload@status_internal@absl@@@__1@std@@@absl@@@__1@std@@@__1@std@@QBEPAV?$InlinedVector@UPayload@status_internal@absl@@$00V?$allocator@UPayload@status_internal@absl@@@__1@std@@@absl@@XZ
    ??C?$unique_ptr@VTimeZoneIf@cctz@time_internal@absl@@U?$default_delete@VTimeZoneIf@cctz@time_internal@absl@@@__1@std@@@__1@std@@QBEPAVTimeZoneIf@cctz@time_internal@absl@@XZ
    ??C?$unique_ptr@VTimeZoneInfo@cctz@time_internal@absl@@U?$default_delete@VTimeZoneInfo@cctz@time_internal@absl@@@__1@std@@@__1@std@@QBEPAVTimeZoneInfo@cctz@time_internal@absl@@XZ
    ??CChunkIterator@Cord@absl@@QBEPBVstring_view@2@XZ
    ??D?$__deque_iterator@PBVImpl@time_zone@cctz@time_internal@absl@@PAPBV12345@AAPBV12345@PAPAPBV12345@H$0A@@__1@std@@QBEAAPBVImpl@time_zone@cctz@time_internal@absl@@XZ
    ??D?$__hash_map_iterator@V?$__hash_iterator@PAU?$__hash_node@U?$__hash_value_type@V?$basic_string@DU?$char_traits@D@__1@std@@V?$allocator@D@23@@__1@std@@PBVImpl@time_zone@cctz@time_internal@absl@@@__1@std@@PAX@__1@std@@@__1@std@@@__1@std@@QBEAAU?$pair@$$CBV?$basic_string@DU?$char_traits@D@__1@std@@V?$allocator@D@23@@__1@std@@PBVImpl@time_zone@cctz@time_internal@absl@@@12@XZ
    ??D?$__wrap_iter@PAPAVCordzHandle@cord_internal@absl@@@__1@std@@QBEAAPAVCordzHandle@cord_internal@absl@@XZ
    ??D?$__wrap_iter@PAUTransition@cctz@time_internal@absl@@@__1@std@@QBEAAUTransition@cctz@time_internal@absl@@XZ
    ??D?$__wrap_iter@PAUTransitionType@cctz@time_internal@absl@@@__1@std@@QBEAAUTransitionType@cctz@time_internal@absl@@XZ
    ??D?$__wrap_iter@PBUConversionItem@ParsedFormatBase@str_format_internal@absl@@@__1@std@@QBEABUConversionItem@ParsedFormatBase@str_format_internal@absl@@XZ
    ??D?$move_iterator@PAPAPBVImpl@time_zone@cctz@time_internal@absl@@@__1@std@@QBE$$QAPAPBVImpl@time_zone@cctz@time_internal@absl@@XZ
    ??D?$move_iterator@PAPAUCordRep@cord_internal@absl@@@__1@std@@QBE$$QAPAUCordRep@cord_internal@absl@@XZ
    ??D?$move_iterator@PAPBUCordRep@cord_internal@absl@@@__1@std@@QBE$$QAPBUCordRep@cord_internal@absl@@XZ
    ??D?$move_iterator@PAUPayload@status_internal@absl@@@__1@std@@QBE$$QAUPayload@status_internal@absl@@XZ
    ??D?$move_iterator@PAUSubRange@absl@@@__1@std@@QBE$$QAUSubRange@absl@@XZ
    ??D?$move_iterator@PAUTransition@cctz@time_internal@absl@@@__1@std@@QBE$$QAUTransition@cctz@time_internal@absl@@XZ
    ??D?$move_iterator@PAUTransitionType@cctz@time_internal@absl@@@__1@std@@QBE$$QAUTransitionType@cctz@time_internal@absl@@XZ
    ??D?$optional@V?$basic_string@DU?$char_traits@D@__1@std@@V?$allocator@D@23@@__1@std@@@absl@@QGAEAAV?$basic_string@DU?$char_traits@D@__1@std@@V?$allocator@D@23@@__1@std@@XZ
    ??D?$unique_ptr@V?$InlinedVector@UPayload@status_internal@absl@@$00V?$allocator@UPayload@status_internal@absl@@@__1@std@@@absl@@U?$default_delete@V?$InlinedVector@UPayload@status_internal@absl@@$00V?$allocator@UPayload@status_internal@absl@@@__1@std@@@absl@@@__1@std@@@__1@std@@QBEAAV?$InlinedVector@UPayload@status_internal@absl@@$00V?$allocator@UPayload@status_internal@absl@@@__1@std@@@absl@@XZ
    ??DChunkIterator@Cord@absl@@QBE?AVstring_view@2@XZ
    ??Dabsl@@YA?AVint128@0@V10@0@Z
    ??Dabsl@@YA?AVuint128@0@V10@0@Z
    ??E?$__hash_iterator@PAU?$__hash_node@U?$__hash_value_type@V?$basic_string@DU?$char_traits@D@__1@std@@V?$allocator@D@23@@__1@std@@PBVImpl@time_zone@cctz@time_internal@absl@@@__1@std@@PAX@__1@std@@@__1@std@@QAEAAV012@XZ
    ??E?$__hash_map_iterator@V?$__hash_iterator@PAU?$__hash_node@U?$__hash_value_type@V?$basic_string@DU?$char_traits@D@__1@std@@V?$allocator@D@23@@__1@std@@PBVImpl@time_zone@cctz@time_internal@absl@@@__1@std@@PAX@__1@std@@@__1@std@@@__1@std@@QAEAAV012@XZ
    ??E?$__wrap_iter@PAPAVCordzHandle@cord_internal@absl@@@__1@std@@QAEAAV012@XZ
    ??E?$__wrap_iter@PAUTransitionType@cctz@time_internal@absl@@@__1@std@@QAEAAV012@XZ
    ??E?$__wrap_iter@PBUConversionItem@ParsedFormatBase@str_format_internal@absl@@@__1@std@@QAEAAV012@XZ
    ??E?$move_iterator@PAPAPBVImpl@time_zone@cctz@time_internal@absl@@@__1@std@@QAEAAV012@XZ
    ??E?$move_iterator@PAPAUCordRep@cord_internal@absl@@@__1@std@@QAEAAV012@XZ
    ??E?$move_iterator@PAPBUCordRep@cord_internal@absl@@@__1@std@@QAEAAV012@XZ
    ??E?$move_iterator@PAUPayload@status_internal@absl@@@__1@std@@QAEAAV012@XZ
    ??E?$move_iterator@PAUSubRange@absl@@@__1@std@@QAEAAV012@XZ
    ??E?$move_iterator@PAUTransition@cctz@time_internal@absl@@@__1@std@@QAEAAV012@XZ
    ??E?$move_iterator@PAUTransitionType@cctz@time_internal@absl@@@__1@std@@QAEAAV012@XZ
    ??EChunkIterator@Cord@absl@@QAEAAV012@XZ
    ??Euint128@absl@@QAEAAV01@XZ
    ??Gabsl@@YA?AVDuration@0@V10@0@Z
    ??Gabsl@@YA?AVDuration@0@V10@@Z
    ??Gabsl@@YA?AVDuration@0@VTime@0@0@Z
    ??Gabsl@@YA?AVint128@0@V10@0@Z
    ??Gabsl@@YA?AVint128@0@V10@@Z
    ??Gabsl@@YA?AVuint128@0@V10@0@Z
    ??Gabsl@@YA?AVuint128@0@V10@@Z
    ??Gdetail@cctz@time_internal@absl@@YA?AV?$civil_time@Uday_tag@detail@cctz@time_internal@absl@@@0123@V40123@_J@Z
    ??Gdetail@cctz@time_internal@absl@@YA?AV?$civil_time@Usecond_tag@detail@cctz@time_internal@absl@@@0123@V40123@_J@Z
    ??Gdetail@cctz@time_internal@absl@@YA_JV?$civil_time@Uday_tag@detail@cctz@time_internal@absl@@@0123@0@Z
    ??Gdetail@cctz@time_internal@absl@@YA_JV?$civil_time@Usecond_tag@detail@cctz@time_internal@absl@@@0123@0@Z
    ??Habsl@@YA?AVDuration@0@V10@0@Z
    ??Habsl@@YA?AVTime@0@V10@VDuration@0@@Z
    ??Habsl@@YA?AVint128@0@V10@0@Z
    ??Habsl@@YA?AVuint128@0@V10@0@Z
    ??Hdetail@cctz@time_internal@absl@@YA?AV?$civil_time@Uday_tag@detail@cctz@time_internal@absl@@@0123@V40123@_J@Z
    ??Hdetail@cctz@time_internal@absl@@YA?AV?$civil_time@Usecond_tag@detail@cctz@time_internal@absl@@@0123@V40123@_J@Z
    ??Iabsl@@YA?AVuint128@0@V10@0@Z
    ??Iabsl@@YA?AW4StatusToStringMode@0@W410@0@Z
    ??Iabsl@@YA?AW4chars_format@0@W410@0@Z
    ??Kabsl@@YA?AVint128@0@V10@0@Z
    ??Kabsl@@YA?AVuint128@0@V10@0@Z
    ??Kabsl@@YA_JVDuration@0@0@Z
    ??Labsl@@YA?AVDuration@0@V10@0@Z
    ??Labsl@@YA?AVint128@0@V10@0@Z
    ??Labsl@@YA?AVuint128@0@V10@0@Z
    ??Mabsl@@YA_NVDuration@0@0@Z
    ??Mabsl@@YA_NVint128@0@0@Z
    ??Mabsl@@YA_NVuint128@0@0@Z
    ??Nabsl@@YA_NVDuration@0@0@Z
    ??Nabsl@@YA_NVint128@0@0@Z
    ??Oabsl@@YA_NVDuration@0@0@Z
    ??Oabsl@@YA_NVint128@0@0@Z
    ??Oabsl@@YA_NVuint128@0@0@Z
    ??Pabsl@@YA_NVDuration@0@0@Z
    ??Pabsl@@YA_NVint128@0@0@Z
    ??Pabsl@@YA_NVuint128@0@0@Z
    ??R<lambda_1>@?0???$AddRing@$00@CordRepRing@cord_internal@absl@@CAPAV123@PAV123@0II@Z@QBE?A?<auto>@@I@Z
    ??R<lambda_1>@?0???$AddRing@$0A@@CordRepRing@cord_internal@absl@@CAPAV123@PAV123@0II@Z@QBE?A?<auto>@@I@Z
    ??R<lambda_1>@?0???$Fill@$00@CordRepRing@cord_internal@absl@@AAEXPBV123@II@Z@QBE?A?<auto>@@I@Z
    ??R<lambda_1>@?0???$Fill@$0A@@CordRepRing@cord_internal@absl@@AAEXPBV123@II@Z@QBE?A?<auto>@@I@Z
    ??R<lambda_1>@?0???A?$FixedArray@PAUCordRep@cord_internal@absl@@$0PPPPPPPP@V?$allocator@PAUCordRep@cord_internal@absl@@@__1@std@@@absl@@QAEAAPAUCordRep@cord_internal@2@I@Z@QBE?A?<auto>@@XZ
    ??R<lambda_1>@?0???A?$InlinedVector@PAUCordRep@cord_internal@absl@@$0CP@V?$allocator@PAUCordRep@cord_internal@absl@@@__1@std@@@absl@@QAEAAPAUCordRep@cord_internal@2@I@Z@QBE?A?<auto>@@XZ
    ??R<lambda_1>@?0???A?$InlinedVector@UPayload@status_internal@absl@@$00V?$allocator@UPayload@status_internal@absl@@@__1@std@@@absl@@QAEAAUPayload@status_internal@2@I@Z@QBE?A?<auto>@@XZ
    ??R<lambda_1>@?0???A?$InlinedVector@UPayload@status_internal@absl@@$00V?$allocator@UPayload@status_internal@absl@@@__1@std@@@absl@@QBEABUPayload@status_internal@2@I@Z@QBE?A?<auto>@@XZ
    ??R<lambda_1>@?0???A?$Span@$$CBVFormatArgImpl@str_format_internal@absl@@@absl@@QBEABVFormatArgImpl@str_format_internal@2@I@Z@QBE?A?<auto>@@XZ
    ??R<lambda_1>@?0???A?$Span@I@absl@@QBEAAII@Z@QBE?A?<auto>@@XZ
    ??R<lambda_1>@?0???Astring_view@absl@@QBEABDI@Z@QBE?A?<auto>@@XZ
    ??R<lambda_1>@?0???CChunkIterator@Cord@absl@@QBEPBVstring_view@3@XZ@QBE?A?<auto>@@XZ
    ??R<lambda_1>@?0???D?$optional@V?$basic_string@DU?$char_traits@D@__1@std@@V?$allocator@D@23@@__1@std@@@absl@@QGAEAAV?$basic_string@DU?$char_traits@D@__1@std@@V?$allocator@D@23@@__1@std@@XZ@QBE?A?<auto>@@XZ
    ??R<lambda_1>@?0???DChunkIterator@Cord@absl@@QBE?AVstring_view@3@XZ@QBE?A?<auto>@@XZ
    ??R<lambda_1>@?0???EChunkIterator@Cord@absl@@QAEAAV123@XZ@QBE?A?<auto>@@XZ
    ??R<lambda_1>@?0??Append@FormatSinkImpl@str_format_internal@absl@@QAEXID@Z@QBE?A?<auto>@@I@Z
    ??R<lambda_1>@?0??CheckLengthInternal@string_view@absl@@CAII@Z@QBE?A?<auto>@@XZ
    ??R<lambda_1>@?0??CompareSlowPath@Cord@absl@@ABEHABV23@II@Z@QBE?A?<auto>@@PAVChunkIterator@23@PAVstring_view@3@@Z
    ??R<lambda_1>@?0??CompareSlowPath@Cord@absl@@ABEHVstring_view@3@II@Z@QBE?A?<auto>@@PAVChunkIterator@23@PAV43@@Z
    ??R<lambda_1>@?0??back@?$InlinedVector@H$0CP@V?$allocator@H@__1@std@@@absl@@QAEAAHXZ@QBE?A?<auto>@@XZ
    ??R<lambda_1>@?0??back@?$InlinedVector@PAUCordRep@cord_internal@absl@@$01V?$allocator@PAUCordRep@cord_internal@absl@@@__1@std@@@absl@@QAEAAPAUCordRep@cord_internal@3@XZ@QBE?A?<auto>@@XZ
    ??R<lambda_1>@?0??back@?$InlinedVector@PAUCordRep@cord_internal@absl@@$0CP@V?$allocator@PAUCordRep@cord_internal@absl@@@__1@std@@@absl@@QAEAAPAUCordRep@cord_internal@3@XZ@QBE?A?<auto>@@XZ
    ??R<lambda_1>@?0??back@?$InlinedVector@PBUCordRep@cord_internal@absl@@$0CP@V?$allocator@PBUCordRep@cord_internal@absl@@@__1@std@@@absl@@QAEAAPBUCordRep@cord_internal@3@XZ@QBE?A?<auto>@@XZ
    ??R<lambda_1>@?0??back@?$InlinedVector@USubRange@absl@@$0CP@V?$allocator@USubRange@absl@@@__1@std@@@absl@@QAEAAUSubRange@3@XZ@QBE?A?<auto>@@XZ
    ??R<lambda_1>@?0??erase@?$InlinedVector@UPayload@status_internal@absl@@$00V?$allocator@UPayload@status_internal@absl@@@__1@std@@@absl@@QAEPAUPayload@status_internal@3@PBU453@@Z@QBE?A?<auto>@@XZ
    ??R<lambda_1>@?0??front@string_view@absl@@QBEABDXZ@QBE?A?<auto>@@XZ
    ??R<lambda_1>@?0??pop_back@?$InlinedVector@H$0CP@V?$allocator@H@__1@std@@@absl@@QAEXXZ@QBE?A?<auto>@@XZ
    ??R<lambda_1>@?0??pop_back@?$InlinedVector@PAUCordRep@cord_internal@absl@@$01V?$allocator@PAUCordRep@cord_internal@absl@@@__1@std@@@absl@@QAEXXZ@QBE?A?<auto>@@XZ
    ??R<lambda_1>@?0??pop_back@?$InlinedVector@PAUCordRep@cord_internal@absl@@$0CP@V?$allocator@PAUCordRep@cord_internal@absl@@@__1@std@@@absl@@QAEXXZ@QBE?A?<auto>@@XZ
    ??R<lambda_1>@?0??pop_back@?$InlinedVector@PBUCordRep@cord_internal@absl@@$0CP@V?$allocator@PBUCordRep@cord_internal@absl@@@__1@std@@@absl@@QAEXXZ@QBE?A?<auto>@@XZ
    ??R<lambda_1>@?0??pop_back@?$InlinedVector@USubRange@absl@@$0CP@V?$allocator@USubRange@absl@@@__1@std@@@absl@@QAEXXZ@QBE?A?<auto>@@XZ
    ??R<lambda_1>@?0??remove_prefix@string_view@absl@@QAEXI@Z@QBE?A?<auto>@@XZ
    ??R<lambda_1>@?0??remove_suffix@string_view@absl@@QAEXI@Z@QBE?A?<auto>@@XZ
    ??R<lambda_1>@?0??set_inline_size@InlineData@cord_internal@absl@@QAEXI@Z@QBE?A?<auto>@@XZ
    ??R<lambda_2>@?0???$AddRing@$00@CordRepRing@cord_internal@absl@@CAPAV123@PAV123@0II@Z@QBE?A?<auto>@@I@Z
    ??R<lambda_2>@?0???$AddRing@$0A@@CordRepRing@cord_internal@absl@@CAPAV123@PAV123@0II@Z@QBE?A?<auto>@@I@Z
    ??R<lambda_2>@?0??erase@?$InlinedVector@UPayload@status_internal@absl@@$00V?$allocator@UPayload@status_internal@absl@@@__1@std@@@absl@@QAEPAUPayload@status_internal@3@PBU453@@Z@QBE?A?<auto>@@XZ
    ??R?$FunctionRef@$$A6AXPAUCordRep@cord_internal@absl@@II@Z@absl@@QBEXPAUCordRep@cord_internal@1@II@Z
    ??R?$FunctionRef@$$A6AXV?$Span@I@absl@@@Z@absl@@QBEXV?$Span@I@1@@Z
    ??R?$FunctionRef@$$A6AXVstring_view@absl@@@Z@absl@@QBEXVstring_view@1@@Z
    ??R?$__allocator_destructor@V?$allocator@PBVImpl@time_zone@cctz@time_internal@absl@@@__1@std@@@__1@std@@QAEXPAPBVImpl@time_zone@cctz@time_internal@absl@@@Z
    ??R?$__bucket_list_deallocator@V?$allocator@PAU?$__hash_node_base@PAU?$__hash_node@U?$__hash_value_type@V?$basic_string@DU?$char_traits@D@__1@std@@V?$allocator@D@23@@__1@std@@PBVImpl@time_zone@cctz@time_internal@absl@@@__1@std@@PAX@__1@std@@@__1@std@@@__1@std@@@__1@std@@QAEXPAPAU?$__hash_node_base@PAU?$__hash_node@U?$__hash_value_type@V?$basic_string@DU?$char_traits@D@__1@std@@V?$allocator@D@23@@__1@std@@PBVImpl@time_zone@cctz@time_internal@absl@@@__1@std@@PAX@__1@std@@@12@@Z
    ??R?$__hash_node_destructor@V?$allocator@U?$__hash_node@U?$__hash_value_type@V?$basic_string@DU?$char_traits@D@__1@std@@V?$allocator@D@23@@__1@std@@PBVImpl@time_zone@cctz@time_internal@absl@@@__1@std@@PAX@__1@std@@@__1@std@@@__1@std@@QAEXPAU?$__hash_node@U?$__hash_value_type@V?$basic_string@DU?$char_traits@D@__1@std@@V?$allocator@D@23@@__1@std@@PBVImpl@time_zone@cctz@time_internal@absl@@@__1@std@@PAX@12@@Z
    ??R?$__less@VDuration@absl@@V12@@__1@std@@QBE_NABVDuration@absl@@0@Z
    ??R?$__policy_func@$$A6A?AV?$unique_ptr@VZoneInfoSource@cctz@time_internal@absl@@U?$default_delete@VZoneInfoSource@cctz@time_internal@absl@@@__1@std@@@__1@std@@ABV?$basic_string@DU?$char_traits@D@__1@std@@V?$allocator@D@23@@23@@Z@__function@__1@std@@QBE?AV?$unique_ptr@VZoneInfoSource@cctz@time_internal@absl@@U?$default_delete@VZoneInfoSource@cctz@time_internal@absl@@@__1@std@@@23@ABV?$basic_string@DU?$char_traits@D@__1@std@@V?$allocator@D@23@@23@@Z
    ??R?$__policy_func@$$A6AXABUHashtablezInfo@container_internal@absl@@@Z@__function@__1@std@@QBEXABUHashtablezInfo@container_internal@absl@@@Z
    ??R?$__policy_func@$$A6AXVstring_view@absl@@ABVCord@2@@Z@__function@__1@std@@QBEX$$QAVstring_view@absl@@ABVCord@5@@Z
    ??R?$__unordered_map_equal@V?$basic_string@DU?$char_traits@D@__1@std@@V?$allocator@D@23@@__1@std@@U?$__hash_value_type@V?$basic_string@DU?$char_traits@D@__1@std@@V?$allocator@D@23@@__1@std@@PBVImpl@time_zone@cctz@time_internal@absl@@@23@U?$equal_to@V?$basic_string@DU?$char_traits@D@__1@std@@V?$allocator@D@23@@__1@std@@@23@U?$hash@V?$basic_string@DU?$char_traits@D@__1@std@@V?$allocator@D@23@@__1@std@@@23@$00@__1@std@@QBE_NABU?$__hash_value_type@V?$basic_string@DU?$char_traits@D@__1@std@@V?$allocator@D@23@@__1@std@@PBVImpl@time_zone@cctz@time_internal@absl@@@12@0@Z
    ??R?$__unordered_map_equal@V?$basic_string@DU?$char_traits@D@__1@std@@V?$allocator@D@23@@__1@std@@U?$__hash_value_type@V?$basic_string@DU?$char_traits@D@__1@std@@V?$allocator@D@23@@__1@std@@PBVImpl@time_zone@cctz@time_internal@absl@@@23@U?$equal_to@V?$basic_string@DU?$char_traits@D@__1@std@@V?$allocator@D@23@@__1@std@@@23@U?$hash@V?$basic_string@DU?$char_traits@D@__1@std@@V?$allocator@D@23@@__1@std@@@23@$00@__1@std@@QBE_NABU?$__hash_value_type@V?$basic_string@DU?$char_traits@D@__1@std@@V?$allocator@D@23@@__1@std@@PBVImpl@time_zone@cctz@time_internal@absl@@@12@ABV?$basic_string@DU?$char_traits@D@__1@std@@V?$allocator@D@23@@12@@Z
    ??R?$__unordered_map_hasher@V?$basic_string@DU?$char_traits@D@__1@std@@V?$allocator@D@23@@__1@std@@U?$__hash_value_type@V?$basic_string@DU?$char_traits@D@__1@std@@V?$allocator@D@23@@__1@std@@PBVImpl@time_zone@cctz@time_internal@absl@@@23@U?$hash@V?$basic_string@DU?$char_traits@D@__1@std@@V?$allocator@D@23@@__1@std@@@23@U?$equal_to@V?$basic_string@DU?$char_traits@D@__1@std@@V?$allocator@D@23@@__1@std@@@23@$00@__1@std@@QBEIABV?$basic_string@DU?$char_traits@D@__1@std@@V?$allocator@D@23@@12@@Z
    ??R?$default_delete@$$CBVImpl@time_zone@cctz@time_internal@absl@@@__1@std@@QBEXPBVImpl@time_zone@cctz@time_internal@absl@@@Z
    ??R?$default_delete@V?$InlinedVector@UPayload@status_internal@absl@@$00V?$allocator@UPayload@status_internal@absl@@@__1@std@@@absl@@@__1@std@@QBEXPAV?$InlinedVector@UPayload@status_internal@absl@@$00V?$allocator@UPayload@status_internal@absl@@@__1@std@@@absl@@@Z
    ??R?$default_delete@VTimeZoneIf@cctz@time_internal@absl@@@__1@std@@QBEXPAVTimeZoneIf@cctz@time_internal@absl@@@Z
    ??R?$default_delete@VTimeZoneInfo@cctz@time_internal@absl@@@__1@std@@QBEXPAVTimeZoneInfo@cctz@time_internal@absl@@@Z
    ??R?$default_delete@VZoneInfoSource@cctz@time_internal@absl@@@__1@std@@QBEXPAVZoneInfoSource@cctz@time_internal@absl@@@Z
    ??R?$divides@Vuint128@absl@@@__1@std@@QBE?AVuint128@absl@@ABV34@0@Z
    ??R?$function@$$A6A?AV?$unique_ptr@VZoneInfoSource@cctz@time_internal@absl@@U?$default_delete@VZoneInfoSource@cctz@time_internal@absl@@@__1@std@@@__1@std@@ABV?$basic_string@DU?$char_traits@D@__1@std@@V?$allocator@D@23@@23@@Z@__1@std@@QBE?AV?$unique_ptr@VZoneInfoSource@cctz@time_internal@absl@@U?$default_delete@VZoneInfoSource@cctz@time_internal@absl@@@__1@std@@@12@ABV?$basic_string@DU?$char_traits@D@__1@std@@V?$allocator@D@23@@12@@Z
    ??R?$function@$$A6AXABUHashtablezInfo@container_internal@absl@@@Z@__1@std@@QBEXABUHashtablezInfo@container_internal@absl@@@Z
    ??R?$function@$$A6AXVstring_view@absl@@ABVCord@2@@Z@__1@std@@QBEXVstring_view@absl@@ABVCord@4@@Z
    ??RByCivilTime@Transition@cctz@time_internal@absl@@QBE_NABU1234@0@Z
    ??RByUnixTime@Transition@cctz@time_internal@absl@@QBE_NABU1234@0@Z
    ??Sabsl@@YA?AVuint128@0@V10@@Z
    ??Uabsl@@YA?AVuint128@0@V10@0@Z
    ??Ustr_format_internal@absl@@YA?AW4Flags@01@W4201@0@Z
    ??XDuration@absl@@QAEAAV01@N@Z
    ??XDuration@absl@@QAEAAV01@_J@Z
    ??Xint128@absl@@QAEAAV01@V01@@Z
    ??Xuint128@absl@@QAEAAV01@V01@@Z
    ??YDuration@absl@@QAEAAV01@V01@@Z
    ??YTime@absl@@QAEAAV01@VDuration@1@@Z
    ??Yint128@absl@@QAEAAV01@V01@@Z
    ??Yuint128@absl@@QAEAAV01@V01@@Z
    ??Z?$civil_time@Usecond_tag@detail@cctz@time_internal@absl@@@detail@cctz@time_internal@absl@@QAEAAV01234@_J@Z
    ??ZDuration@absl@@QAEAAV01@V01@@Z
    ??Zint128@absl@@QAEAAV01@V01@@Z
    ??Zuint128@absl@@QAEAAV01@V01@@Z
    ??_0Duration@absl@@QAEAAV01@N@Z
    ??_0Duration@absl@@QAEAAV01@_J@Z
    ??_0uint128@absl@@QAEAAV01@V01@@Z
    ??_1Duration@absl@@QAEAAV01@V01@@Z
    ??_2uint128@absl@@QAEAAV01@H@Z
    ??_3uint128@absl@@QAEAAV01@H@Z
    ??_4uint128@absl@@QAEAAV01@V01@@Z
    ??_5uint128@absl@@QAEAAV01@V01@@Z
    ?AbortedError@absl@@YA?AVStatus@1@Vstring_view@1@@Z
    ?AbsDuration@absl@@YA?AVDuration@1@V21@@Z
    ?AbslFormatFlush@str_format_internal@absl@@YAXPAV?$basic_ostream@DU?$char_traits@D@__1@std@@@__1@std@@Vstring_view@2@@Z
    ?AbslFormatFlush@str_format_internal@absl@@YAXPAV?$basic_string@DU?$char_traits@D@__1@std@@V?$allocator@D@23@@__1@std@@Vstring_view@2@@Z
    ?AbslFormatFlush@str_format_internal@absl@@YAXPAVBufferRawSink@12@Vstring_view@2@@Z
    ?AbslFormatFlush@str_format_internal@absl@@YAXPAVFILERawSink@12@Vstring_view@2@@Z
    ?AbslParseFlag@absl@@YA_NVstring_view@1@PAVDuration@1@PAV?$basic_string@DU?$char_traits@D@__1@std@@V?$allocator@D@23@@__1@std@@@Z
    ?AbslParseFlag@absl@@YA_NVstring_view@1@PAVTime@1@PAV?$basic_string@DU?$char_traits@D@__1@std@@V?$allocator@D@23@@__1@std@@@Z
    ?AbslUnparseFlag@absl@@YA?AV?$basic_string@DU?$char_traits@D@__1@std@@V?$allocator@D@23@@__1@std@@VDuration@1@@Z
    ?AbslUnparseFlag@absl@@YA?AV?$basic_string@DU?$char_traits@D@__1@std@@V?$allocator@D@23@@__1@std@@VTime@1@@Z
    ?AcquireAllocatedData@?$Storage@H$0CP@V?$allocator@H@__1@std@@@inlined_vector_internal@absl@@QAEXPAV?$AllocationTransaction@V?$allocator@H@__1@std@@@23@@Z
    ?AcquireAllocatedData@?$Storage@PAUCordRep@cord_internal@absl@@$01V?$allocator@PAUCordRep@cord_internal@absl@@@__1@std@@@inlined_vector_internal@absl@@QAEXPAV?$AllocationTransaction@V?$allocator@PAUCordRep@cord_internal@absl@@@__1@std@@@23@@Z
    ?AcquireAllocatedData@?$Storage@PAUCordRep@cord_internal@absl@@$0CP@V?$allocator@PAUCordRep@cord_internal@absl@@@__1@std@@@inlined_vector_internal@absl@@QAEXPAV?$AllocationTransaction@V?$allocator@PAUCordRep@cord_internal@absl@@@__1@std@@@23@@Z
    ?AcquireAllocatedData@?$Storage@PBUCordRep@cord_internal@absl@@$0CP@V?$allocator@PBUCordRep@cord_internal@absl@@@__1@std@@@inlined_vector_internal@absl@@QAEXPAV?$AllocationTransaction@V?$allocator@PBUCordRep@cord_internal@absl@@@__1@std@@@23@@Z
    ?AcquireAllocatedData@?$Storage@UPayload@status_internal@absl@@$00V?$allocator@UPayload@status_internal@absl@@@__1@std@@@inlined_vector_internal@absl@@QAEXPAV?$AllocationTransaction@V?$allocator@UPayload@status_internal@absl@@@__1@std@@@23@@Z
    ?AcquireAllocatedData@?$Storage@USubRange@absl@@$0CP@V?$allocator@USubRange@absl@@@__1@std@@@inlined_vector_internal@absl@@QAEXPAV?$AllocationTransaction@V?$allocator@USubRange@absl@@@__1@std@@@23@@Z
    ?Add@Filler@CordRepRing@cord_internal@absl@@QAEXPAUCordRep@34@II@Z
    ?AddDataOffset@CordRepRing@cord_internal@absl@@AAEXII@Z
    ?AddNode@CordForest@absl@@AAEXPAUCordRep@cord_internal@2@@Z
    ?AddSize@?$Storage@H$0CP@V?$allocator@H@__1@std@@@inlined_vector_internal@absl@@QAEXI@Z
    ?AddSize@?$Storage@PAUCordRep@cord_internal@absl@@$01V?$allocator@PAUCordRep@cord_internal@absl@@@__1@std@@@inlined_vector_internal@absl@@QAEXI@Z
    ?AddSize@?$Storage@PAUCordRep@cord_internal@absl@@$0CP@V?$allocator@PAUCordRep@cord_internal@absl@@@__1@std@@@inlined_vector_internal@absl@@QAEXI@Z
    ?AddSize@?$Storage@PBUCordRep@cord_internal@absl@@$0CP@V?$allocator@PBUCordRep@cord_internal@absl@@@__1@std@@@inlined_vector_internal@absl@@QAEXI@Z
    ?AddSize@?$Storage@UPayload@status_internal@absl@@$00V?$allocator@UPayload@status_internal@absl@@@__1@std@@@inlined_vector_internal@absl@@QAEXI@Z
    ?AddSize@?$Storage@USubRange@absl@@$0CP@V?$allocator@USubRange@absl@@@__1@std@@@inlined_vector_internal@absl@@QAEXI@Z
    ?AddWithCarry@?$BigUnsigned@$03@strings_internal@absl@@AAEXHI@Z
    ?AddWithCarry@?$BigUnsigned@$03@strings_internal@absl@@AAEXH_K@Z
    ?AddWithCarry@?$BigUnsigned@$0FE@@strings_internal@absl@@AAEXHI@Z
    ?AddWithCarry@?$BigUnsigned@$0FE@@strings_internal@absl@@AAEXH_K@Z
    ?AddressIsReadable@debugging_internal@absl@@YA_NPBX@Z
    ?AdvanceAndReadBytes@ChunkIterator@Cord@absl@@AAE?AV23@I@Z
    ?AdvanceBtree@ChunkIterator@Cord@absl@@AAEAAV123@XZ
    ?AdvanceBytes@ChunkIterator@Cord@absl@@AAEXI@Z
    ?AdvanceBytesBtree@ChunkIterator@Cord@absl@@AAEXI@Z
    ?AdvanceBytesSlowPath@ChunkIterator@Cord@absl@@AAEXI@Z
    ?AdvanceStack@ChunkIterator@Cord@absl@@AAEAAV123@XZ
    ?Align@adl_barrier@internal_layout@container_internal@absl@@YAIII@Z
    ?AlignBegin@CordRepBtree@cord_internal@absl@@AAEXXZ
    ?AlignEnd@CordRepBtree@cord_internal@absl@@AAEXXZ
    ?Alloc@LowLevelAlloc@base_internal@absl@@SAPAXI@Z
    ?AllocSize@?$LayoutImpl@V?$tuple@IPAUCordRep@cord_internal@absl@@I@__1@std@@U?$integer_sequence@I$0A@$00$01@absl@@U45@@internal_layout@container_internal@absl@@QBEIXZ
    ?AllocSize@CordRepRing@cord_internal@absl@@SAII@Z
    ?AllocWithArena@LowLevelAlloc@base_internal@absl@@SAPAXIPAUArena@123@@Z
    ?Allocate@?$AllocationTransaction@V?$allocator@H@__1@std@@@inlined_vector_internal@absl@@QAEPAHI@Z
    ?Allocate@?$AllocationTransaction@V?$allocator@PAUCordRep@cord_internal@absl@@@__1@std@@@inlined_vector_internal@absl@@QAEPAPAUCordRep@cord_internal@3@I@Z
    ?Allocate@?$AllocationTransaction@V?$allocator@PBUCordRep@cord_internal@absl@@@__1@std@@@inlined_vector_internal@absl@@QAEPAPBUCordRep@cord_internal@3@I@Z
    ?Allocate@?$AllocationTransaction@V?$allocator@UPayload@status_internal@absl@@@__1@std@@@inlined_vector_internal@absl@@QAEPAUPayload@status_internal@3@I@Z
    ?Allocate@?$AllocationTransaction@V?$allocator@USubRange@absl@@@__1@std@@@inlined_vector_internal@absl@@QAEPAUSubRange@3@I@Z
    ?AllocatedSize@CordRepFlat@cord_internal@absl@@QBEIXZ
    ?AllocatedSizeToTag@cord_internal@absl@@YAEI@Z
    ?AllocatedSizeToTagUnchecked@cord_internal@absl@@YAEI@Z
    ?AlreadyExistsError@absl@@YA?AVStatus@1@Vstring_view@1@@Z
    ?AnnotateConstruct@NonEmptyInlinedStorage@?$FixedArray@PAUCordRep@cord_internal@absl@@$0PPPPPPPP@V?$allocator@PAUCordRep@cord_internal@absl@@@__1@std@@@absl@@QAEXI@Z
    ?AnnotateDestruct@NonEmptyInlinedStorage@?$FixedArray@PAUCordRep@cord_internal@absl@@$0PPPPPPPP@V?$allocator@PAUCordRep@cord_internal@absl@@@__1@std@@@absl@@QAEXI@Z
    ?Append@Cord@absl@@QAEX$$QAV12@@Z
    ?Append@Cord@absl@@QAEXABV12@@Z
    ?Append@Cord@absl@@QAEXVstring_view@2@@Z
    ?Append@CordRepBtree@cord_internal@absl@@SAPAV123@PAV123@PAUCordRep@23@@Z
    ?Append@CordRepBtree@cord_internal@absl@@SAPAV123@PAV123@Vstring_view@3@I@Z
    ?Append@CordRepRing@cord_internal@absl@@SAPAV123@PAV123@PAUCordRep@23@@Z
    ?Append@CordRepRing@cord_internal@absl@@SAPAV123@PAV123@Vstring_view@3@I@Z
    ?Append@FormatSinkImpl@str_format_internal@absl@@QAEXID@Z
    ?Append@FormatSinkImpl@str_format_internal@absl@@QAEXVstring_view@3@@Z
    ?Append@ParsedFormatConsumer@ParsedFormatBase@str_format_internal@absl@@QAE_NVstring_view@4@@Z
    ?AppendArray@InlineRep@Cord@absl@@QAEXVstring_view@3@W4MethodIdentifier@CordzUpdateTracker@cord_internal@3@@Z
    ?AppendLeaf@CordRepRing@cord_internal@absl@@CAPAV123@PAV123@PAUCordRep@23@II@Z
    ?AppendNode@CordForest@absl@@AAEPAUCordRep@cord_internal@2@PAU342@0@Z
    ?AppendPack@str_format_internal@absl@@YAAAV?$basic_string@DU?$char_traits@D@__1@std@@V?$allocator@D@23@@__1@std@@PAV345@VUntypedFormatSpecImpl@12@V?$Span@$$CBVFormatArgImpl@str_format_internal@absl@@@2@@Z
    ?AppendPieces@strings_internal@absl@@YAXPAV?$basic_string@DU?$char_traits@D@__1@std@@V?$allocator@D@23@@__1@std@@V?$initializer_list@Vstring_view@absl@@@5@@Z
    ?AppendSlow@CordRepBtree@cord_internal@absl@@CAPAV123@PAV123@PAUCordRep@23@@Z
    ?AppendSlow@CordRepRing@cord_internal@absl@@CAPAV123@PAV123@PAUCordRep@23@@Z
    ?AppendText@ParsedFormatConsumer@ParsedFormatBase@str_format_internal@absl@@QAEIVstring_view@4@@Z
    ?AppendTree@InlineRep@Cord@absl@@QAEXPAUCordRep@cord_internal@3@W4MethodIdentifier@CordzUpdateTracker@53@@Z
    ?AppendTreeToInlined@InlineRep@Cord@absl@@QAEXPAUCordRep@cord_internal@3@W4MethodIdentifier@CordzUpdateTracker@53@@Z
    ?AppendTreeToTree@InlineRep@Cord@absl@@QAEXPAUCordRep@cord_internal@3@W4MethodIdentifier@CordzUpdateTracker@53@@Z
    ?ApplySubstitutions@strings_internal@absl@@YAHVstring_view@2@PAV?$vector@UViableSubstitution@strings_internal@absl@@V?$allocator@UViableSubstitution@strings_internal@absl@@@__1@std@@@__1@std@@PAV?$basic_string@DU?$char_traits@D@__1@std@@V?$allocator@D@23@@56@@Z
    ?AsValueType@?$FixedArray@PAUCordRep@cord_internal@absl@@$0PPPPPPPP@V?$allocator@PAUCordRep@cord_internal@absl@@@__1@std@@@absl@@CAPAPAUCordRep@cord_internal@2@PAPAU342@@Z
    ?AsciiStrToLower@absl@@YAXPAV?$basic_string@DU?$char_traits@D@__1@std@@V?$allocator@D@23@@__1@std@@@Z
    ?AsciiStrToUpper@absl@@YAXPAV?$basic_string@DU?$char_traits@D@__1@std@@V?$allocator@D@23@@__1@std@@@Z
    ?AssertHeld@CordzInfo@cord_internal@absl@@QAEXXZ
    ?AssertHeld@Mutex@absl@@QBEXXZ
    ?AssertNotHeld@Mutex@absl@@QBEXXZ
    ?AssertReaderHeld@Mutex@absl@@QBEXXZ
    ?AssertValid@CordRepBtree@cord_internal@absl@@SAPAV123@PAV123@_N@Z
    ?AssertValid@CordRepBtree@cord_internal@absl@@SAPBV123@PBV123@_N@Z
    ?AssignLargeString@Cord@absl@@AAEAAV12@$$QAV?$basic_string@DU?$char_traits@D@__1@std@@V?$allocator@D@23@@__1@std@@@Z
    ?AssignNext@?$IteratorValueAdapter@V?$allocator@UPayload@status_internal@absl@@@__1@std@@V?$move_iterator@PAUPayload@status_internal@absl@@@23@@inlined_vector_internal@absl@@QAEXPAUPayload@status_internal@3@@Z
    ?AssignSlow@InlineRep@Cord@absl@@AAEXABV123@@Z
    ?At@TimeZone@absl@@QBE?AUCivilInfo@12@VTime@2@@Z
    ?At@TimeZone@absl@@QBE?AUTimeInfo@12@V?$civil_time@Usecond_tag@time_internal@absl@@@detail@cctz@time_internal@2@@Z
    ?Avail@FormatSinkImpl@str_format_internal@absl@@ABEIXZ
    ?Await@Mutex@absl@@QAEXABVCondition@2@@Z
    ?AwaitCommon@Mutex@absl@@AAE_NABVCondition@2@VKernelTimeout@synchronization_internal@2@@Z
    ?AwaitWithDeadline@Mutex@absl@@QAE_NABVCondition@2@VTime@2@@Z
    ?AwaitWithTimeout@Mutex@absl@@QAE_NABVCondition@2@VDuration@2@@Z
    ?Base64Escape@absl@@YA?AV?$basic_string@DU?$char_traits@D@__1@std@@V?$allocator@D@23@@__1@std@@Vstring_view@1@@Z
    ?Base64Escape@absl@@YAXVstring_view@1@PAV?$basic_string@DU?$char_traits@D@__1@std@@V?$allocator@D@23@@__1@std@@@Z
    ?Base64EscapeInternal@strings_internal@absl@@YAIPBEIPADIPBD_N@Z
    ?Base64Unescape@absl@@YA_NVstring_view@1@PAV?$basic_string@DU?$char_traits@D@__1@std@@V?$allocator@D@23@@__1@std@@@Z
    ?BindWithPack@str_format_internal@absl@@YA_NPBUUnboundConversion@12@V?$Span@$$CBVFormatArgImpl@str_format_internal@absl@@@2@PAVBoundConversion@12@@Z
    ?BitCastToSigned@int128_internal@absl@@YA_J_K@Z
    ?Block@Barrier@absl@@QAE_NXZ
    ?Block@Mutex@absl@@AAEXPAUPerThreadSynch@base_internal@2@@Z
    ?BreakTime@Impl@time_zone@cctz@time_internal@absl@@QBE?AUabsolute_lookup@2345@ABV?$time_point@Vsystem_clock@chrono@__1@std@@V?$duration@_JV?$ratio@$00$00@__1@std@@@234@@chrono@__1@std@@@Z
    ?BreakTime@TimeZoneInfo@cctz@time_internal@absl@@UBE?AUabsolute_lookup@time_zone@234@ABV?$time_point@Vsystem_clock@chrono@__1@std@@V?$duration@_JV?$ratio@$00$00@__1@std@@@234@@chrono@__1@std@@@Z
    ?BreakTime@TimeZoneLibC@cctz@time_internal@absl@@UBE?AUabsolute_lookup@time_zone@234@ABV?$time_point@Vsystem_clock@chrono@__1@std@@V?$duration@_JV?$ratio@$00$00@__1@std@@@234@@chrono@__1@std@@@Z
    ?Build@CordForest@absl@@QAEXPAUCordRep@cord_internal@2@@Z
    ?Build@Header@TimeZoneInfo@cctz@time_internal@absl@@QAE_NABUtzhead@@@Z
    ?BytesToHexString@absl@@YA?AV?$basic_string@DU?$char_traits@D@__1@std@@V?$allocator@D@23@@__1@std@@Vstring_view@1@@Z
    ?CEscape@absl@@YA?AV?$basic_string@DU?$char_traits@D@__1@std@@V?$allocator@D@23@@__1@std@@Vstring_view@1@@Z
    ?CHexEscape@absl@@YA?AV?$basic_string@DU?$char_traits@D@__1@std@@V?$allocator@D@23@@__1@std@@Vstring_view@1@@Z
    ?CUnescape@absl@@YA_NVstring_view@1@PAV?$basic_string@DU?$char_traits@D@__1@std@@V?$allocator@D@23@@__1@std@@1@Z
    ?CalculateBase64EscapedLenInternal@strings_internal@absl@@YAII_N@Z
    ?CallVoidPtrFunction@Condition@absl@@CA_NPBV12@@Z
    ?CancelledError@absl@@YA?AVStatus@1@Vstring_view@1@@Z
    ?Capacity@CordRepFlat@cord_internal@absl@@QBEIXZ
    ?CatPieces@strings_internal@absl@@YA?AV?$basic_string@DU?$char_traits@D@__1@std@@V?$allocator@D@23@@__1@std@@V?$initializer_list@Vstring_view@absl@@@5@@Z
    ?Ceil@absl@@YA?AVDuration@1@V21@0@Z
    ?CheckInvariants@GraphCycles@synchronization_internal@absl@@QBE_NXZ
    ?CheckLengthInternal@string_view@absl@@CAII@Z
    ?CheckNode@CordForest@absl@@CAXPAUCordRep@cord_internal@2@@Z
    ?Chunks@Cord@absl@@QBE?AVChunkRange@12@XZ
    ?CityHash32@hash_internal@absl@@YAIPBDI@Z
    ?CityHash64@hash_internal@absl@@YA_KPBDI@Z
    ?CityHash64WithSeed@hash_internal@absl@@YA_KPBDI_K@Z
    ?CityHash64WithSeeds@hash_internal@absl@@YA_KPBDI_K1@Z
    ?Clear@Cord@absl@@QAEXXZ
    ?ClearCurrentThreadIdentity@base_internal@absl@@YAXXZ
    ?ClearTimeZoneMapTestOnly@Impl@time_zone@cctz@time_internal@absl@@SAXXZ
    ?CodeToInlinedRep@Status@absl@@CAIW4StatusCode@2@@Z
    ?CombineContiguousImpl@MixingHashState@hash_internal@absl@@CA_K_KPBEIU?$integral_constant@H$03@__1@std@@@Z
    ?CombineContiguousImpl@MixingHashState@hash_internal@absl@@CA_K_KPBEIU?$integral_constant@H$07@__1@std@@@Z
    ?CombineLargeContiguousImpl32@MixingHashState@hash_internal@absl@@CA_K_KPBEI@Z
    ?CombineLargeContiguousImpl64@MixingHashState@hash_internal@absl@@CA_K_KPBEI@Z
    ?CommitTree@InlineRep@Cord@absl@@QAEXPBUCordRep@cord_internal@3@PAU453@ABVCordzUpdateScope@53@W4MethodIdentifier@CordzUpdateTracker@53@@Z
    ?Compare@Cord@absl@@QBEHVstring_view@2@@Z
    ?CompareImpl@Cord@absl@@ABEHABV12@@Z
    ?CompareSlowPath@Cord@absl@@ABEHABV12@II@Z
    ?CompareSlowPath@Cord@absl@@ABEHVstring_view@2@II@Z
    ?ComputeCapacity@?$Storage@PAUCordRep@cord_internal@absl@@$0CP@V?$allocator@PAUCordRep@cord_internal@absl@@@__1@std@@@inlined_vector_internal@absl@@SAIII@Z
    ?ComputeCapacity@?$Storage@UPayload@status_internal@absl@@$00V?$allocator@UPayload@status_internal@absl@@@__1@std@@@inlined_vector_internal@absl@@SAIII@Z
    ?ConcatNodes@CordForest@absl@@QAEPAUCordRep@cord_internal@2@XZ
    ?ConstructNext@?$CopyValueAdapter@V?$allocator@PAUCordRep@cord_internal@absl@@@__1@std@@@inlined_vector_internal@absl@@QAEXPAV?$allocator@PAUCordRep@cord_internal@absl@@@__1@std@@PAPAUCordRep@cord_internal@3@@Z
    ?ConstructNext@?$IteratorValueAdapter@V?$allocator@H@__1@std@@V?$move_iterator@PAH@23@@inlined_vector_internal@absl@@QAEXPAV?$allocator@H@__1@std@@PAH@Z
    ?ConstructNext@?$IteratorValueAdapter@V?$allocator@PAUCordRep@cord_internal@absl@@@__1@std@@V?$move_iterator@PAPAUCordRep@cord_internal@absl@@@23@@inlined_vector_internal@absl@@QAEXPAV?$allocator@PAUCordRep@cord_internal@absl@@@__1@std@@PAPAUCordRep@cord_internal@3@@Z
    ?ConstructNext@?$IteratorValueAdapter@V?$allocator@PBUCordRep@cord_internal@absl@@@__1@std@@V?$move_iterator@PAPBUCordRep@cord_internal@absl@@@23@@inlined_vector_internal@absl@@QAEXPAV?$allocator@PBUCordRep@cord_internal@absl@@@__1@std@@PAPBUCordRep@cord_internal@3@@Z
    ?ConstructNext@?$IteratorValueAdapter@V?$allocator@UPayload@status_internal@absl@@@__1@std@@PBUPayload@status_internal@absl@@@inlined_vector_internal@absl@@QAEXPAV?$allocator@UPayload@status_internal@absl@@@__1@std@@PAUPayload@status_internal@3@@Z
    ?ConstructNext@?$IteratorValueAdapter@V?$allocator@UPayload@status_internal@absl@@@__1@std@@V?$move_iterator@PAUPayload@status_internal@absl@@@23@@inlined_vector_internal@absl@@QAEXPAV?$allocator@UPayload@status_internal@absl@@@__1@std@@PAUPayload@status_internal@3@@Z
    ?ConstructNext@?$IteratorValueAdapter@V?$allocator@USubRange@absl@@@__1@std@@V?$move_iterator@PAUSubRange@absl@@@23@@inlined_vector_internal@absl@@QAEXPAV?$allocator@USubRange@absl@@@__1@std@@PAUSubRange@3@@Z
    ?Consume@cord_internal@absl@@YAXPAUCordRep@12@V?$FunctionRef@$$A6AXPAUCordRep@cord_internal@absl@@II@Z@2@@Z
    ?ConsumePrefix@absl@@YA_NPAVstring_view@1@V21@@Z
    ?ConsumeUnboundConversion@str_format_internal@absl@@YAPBDPBD0PAUUnboundConversion@12@PAH@Z
    ?Contains@str_format_internal@absl@@YA_NW4FormatConversionCharSet@2@D@Z
    ?Contains@str_format_internal@absl@@YA_NW4FormatConversionCharSet@2@W4FormatConversionChar@2@@Z
    ?ControlWord@base_internal@absl@@YAPAU?$atomic@I@__1@std@@PAVonce_flag@2@@Z
    ?ConvertDateTime@absl@@YA?AUTimeConversion@1@_JHHHHHVTimeZone@1@@Z
    ?ConvertDeletedToEmptyAndFullToDeleted@container_internal@absl@@YAXPAW4ctrl_t@12@I@Z
    ?ConvertFloatImpl@str_format_internal@absl@@YA_NMABVFormatConversionSpecImpl@12@PAVFormatSinkImpl@12@@Z
    ?ConvertFloatImpl@str_format_internal@absl@@YA_NNABVFormatConversionSpecImpl@12@PAVFormatSinkImpl@12@@Z
    ?ConvertFloatImpl@str_format_internal@absl@@YA_NOABVFormatConversionSpecImpl@12@PAVFormatSinkImpl@12@@Z
    ?ConvertOne@ParsedFormatConsumer@ParsedFormatBase@str_format_internal@absl@@QAE_NABUUnboundConversion@34@Vstring_view@4@@Z
    ?ConvertSpecialToEmptyAndFullToDeleted@GroupSse2Impl@container_internal@absl@@QBEXPAW4ctrl_t@23@@Z
    ?Copy@CordRepBtree@cord_internal@absl@@ABEPAV123@XZ
    ?Copy@CordRepRing@cord_internal@absl@@CAPAV123@PAV123@III@Z
    ?CopyBeginTo@CordRepBtree@cord_internal@absl@@ABEPAV123@II@Z
    ?CopyCordToString@absl@@YAXABVCord@1@PAV?$basic_string@DU?$char_traits@D@__1@std@@V?$allocator@D@23@@__1@std@@@Z
    ?CopyPrefix@CordRepBtree@cord_internal@absl@@AAE?AUCopyResult@123@I@Z
    ?CopyRaw@CordRepBtree@cord_internal@absl@@ABEPAV123@XZ
    ?CopySuffix@CordRepBtree@cord_internal@absl@@AAE?AUCopyResult@123@I@Z
    ?CopyTo@InlineRep@Cord@absl@@QBEXPAV?$basic_string@DU?$char_traits@D@__1@std@@V?$allocator@D@23@@__1@std@@@Z
    ?CopyToArraySlowPath@Cord@absl@@ABEXPAD@Z
    ?CopyToEndFrom@CordRepBtree@cord_internal@absl@@ABEPAV123@II@Z
    ?Crash@Helper@internal_statusor@absl@@SAXABVStatus@3@@Z
    ?Create@CordRepBtree@cord_internal@absl@@SAPAV123@PAUCordRep@23@@Z
    ?Create@CordRepRing@cord_internal@absl@@SAPAV123@PAUCordRep@23@I@Z
    ?CreateFromLeaf@CordRepRing@cord_internal@absl@@CAPAV123@PAUCordRep@23@III@Z
    ?CreateSlow@CordRepBtree@cord_internal@absl@@CAPAV123@PAUCordRep@23@@Z
    ?CreateSlow@CordRepRing@cord_internal@absl@@CAPAV123@PAUCordRep@23@I@Z
    ?CreateThreadIdentity@synchronization_internal@absl@@YAPAUThreadIdentity@base_internal@2@XZ
    ?Current@CordRepBtreeNavigator@cord_internal@absl@@QBEPAUCordRep@23@XZ
    ?CurrentThreadIdentityIfPresent@base_internal@absl@@YAPAUThreadIdentity@12@XZ
    ?Data@CordRepBtree@cord_internal@absl@@QBE?AVstring_view@3@I@Z
    ?Data@CordRepFlat@cord_internal@absl@@QAEPADXZ
    ?Data@CordRepFlat@cord_internal@absl@@QBEPBDXZ
    ?DataLength@Header@TimeZoneInfo@cctz@time_internal@absl@@QBEII@Z
    ?DataLossError@absl@@YA?AVStatus@1@Vstring_view@1@@Z
    ?DeadlineExceededError@absl@@YA?AVStatus@1@Vstring_view@1@@Z
    ?DeallocateIfAllocated@?$Storage@H$0CP@V?$allocator@H@__1@std@@@inlined_vector_internal@absl@@QAEXXZ
    ?DeallocateIfAllocated@?$Storage@PAUCordRep@cord_internal@absl@@$01V?$allocator@PAUCordRep@cord_internal@absl@@@__1@std@@@inlined_vector_internal@absl@@QAEXXZ
    ?DeallocateIfAllocated@?$Storage@PAUCordRep@cord_internal@absl@@$0CP@V?$allocator@PAUCordRep@cord_internal@absl@@@__1@std@@@inlined_vector_internal@absl@@QAEXXZ
    ?DeallocateIfAllocated@?$Storage@PBUCordRep@cord_internal@absl@@$0CP@V?$allocator@PBUCordRep@cord_internal@absl@@@__1@std@@@inlined_vector_internal@absl@@QAEXXZ
    ?DeallocateIfAllocated@?$Storage@UPayload@status_internal@absl@@$00V?$allocator@UPayload@status_internal@absl@@@__1@std@@@inlined_vector_internal@absl@@QAEXXZ
    ?DeallocateIfAllocated@?$Storage@USubRange@absl@@$0CP@V?$allocator@USubRange@absl@@@__1@std@@@inlined_vector_internal@absl@@QAEXXZ
    ?DecodeWaitCycles@SpinLock@base_internal@absl@@KA_KI@Z
    ?Decrement@Refcount@cord_internal@absl@@QAE_NXZ
    ?DecrementCount@BlockingCounter@absl@@QAE_NXZ
    ?DecrementExpectHighRefcount@Refcount@cord_internal@absl@@QAE_NXZ
    ?DecrementSynchSem@Mutex@absl@@CA_NPAV12@PAUPerThreadSynch@base_internal@2@VKernelTimeout@synchronization_internal@2@@Z
    ?DefaultArena@LowLevelAlloc@base_internal@absl@@SAPAUArena@123@XZ
    ?DefaultStackUnwinder@absl@@YAHPAPAXPAHHHPBX1@Z
    ?Delete@CordRepBtree@cord_internal@absl@@CAXPAV123@@Z
    ?Delete@CordRepExternal@cord_internal@absl@@SAXPAUCordRep@23@@Z
    ?Delete@CordRepFlat@cord_internal@absl@@SAXPAUCordRep@23@@Z
    ?Delete@CordRepRing@cord_internal@absl@@CAXPAV123@@Z
    ?Delete@CordzHandle@cord_internal@absl@@SAXPAV123@@Z
    ?DeleteArena@LowLevelAlloc@base_internal@absl@@SA_NPAUArena@123@@Z
    ?Demangle@debugging_internal@absl@@YA_NPBDPADH@Z
    ?Description@Impl@time_zone@cctz@time_internal@absl@@QBE?AV?$basic_string@DU?$char_traits@D@__1@std@@V?$allocator@D@23@@__1@std@@XZ
    ?Description@TimeZoneInfo@cctz@time_internal@absl@@UBE?AV?$basic_string@DU?$char_traits@D@__1@std@@V?$allocator@D@23@@__1@std@@XZ
    ?Description@TimeZoneLibC@cctz@time_internal@absl@@UBE?AV?$basic_string@DU?$char_traits@D@__1@std@@V?$allocator@D@23@@__1@std@@XZ
    ?Destroy@CordRep@cord_internal@absl@@SAXPAU123@@Z
    ?Destroy@CordRepBtree@cord_internal@absl@@SAXPAV123@@Z
    ?Destroy@CordRepRing@cord_internal@absl@@CAXPAV123@@Z
    ?Destroy@PerThreadSem@synchronization_internal@absl@@CAXPAUThreadIdentity@base_internal@3@@Z
    ?DestroyContents@?$Storage@UPayload@status_internal@absl@@$00V?$allocator@UPayload@status_internal@absl@@@__1@std@@@inlined_vector_internal@absl@@AAEXXZ
    ?DestroyCordSlow@Cord@absl@@AAEXXZ
    ?DestroyLeaf@CordRepBtree@cord_internal@absl@@CAXPAV123@II@Z
    ?DestroyNonLeaf@CordRepBtree@cord_internal@absl@@CAXPAV123@II@Z
    ?DestroyTree@CordRepBtree@cord_internal@absl@@CAXPAV123@II@Z
    ?DiagnosticsGetDeleteQueue@CordzHandle@cord_internal@absl@@SA?AV?$vector@PBVCordzHandle@cord_internal@absl@@V?$allocator@PBVCordzHandle@cord_internal@absl@@@__1@std@@@__1@std@@XZ
    ?DiagnosticsGetSafeToInspectDeletedHandles@CordzHandle@cord_internal@absl@@QAE?AV?$vector@PBVCordzHandle@cord_internal@absl@@V?$allocator@PBVCordzHandle@cord_internal@absl@@@__1@std@@@__1@std@@XZ
    ?DiagnosticsHandleIsSafeToInspect@CordzHandle@cord_internal@absl@@QBE_NPBV123@@Z
    ?DidAllocate@?$AllocationTransaction@V?$allocator@H@__1@std@@@inlined_vector_internal@absl@@QAE_NXZ
    ?DidAllocate@?$AllocationTransaction@V?$allocator@PAUCordRep@cord_internal@absl@@@__1@std@@@inlined_vector_internal@absl@@QAE_NXZ
    ?DidAllocate@?$AllocationTransaction@V?$allocator@PBUCordRep@cord_internal@absl@@@__1@std@@@inlined_vector_internal@absl@@QAE_NXZ
    ?DidAllocate@?$AllocationTransaction@V?$allocator@UPayload@status_internal@absl@@@__1@std@@@inlined_vector_internal@absl@@QAE_NXZ
    ?DidAllocate@?$AllocationTransaction@V?$allocator@USubRange@absl@@@__1@std@@@inlined_vector_internal@absl@@QAE_NXZ
    ?Digits10@?$BigUnsigned@$03@strings_internal@absl@@SAHXZ
    ?Digits10@?$BigUnsigned@$0FE@@strings_internal@absl@@SAHXZ
    ?DisableRescheduling@SchedulingGuard@base_internal@absl@@CA_NXZ
    ?Distance@CordRepRing@cord_internal@absl@@SAIII@Z
    ?DivUp@cord_internal@absl@@YAIII@Z
    ?DoLoad@?$AtomicHook@P6A?AV?$optional@V?$basic_string@DU?$char_traits@D@__1@std@@V?$allocator@D@23@@__1@std@@@absl@@Vstring_view@2@ABVCord@2@@Z@base_internal@absl@@ABEP6A?AV?$optional@V?$basic_string@DU?$char_traits@D@__1@std@@V?$allocator@D@23@@__1@std@@@3@Vstring_view@3@ABVCord@3@@ZXZ
    ?DoLoad@?$AtomicHook@P6AXPBDH000@Z@base_internal@absl@@ABEP6AXPBDH000@ZXZ
    ?DoLoad@?$AtomicHook@P6AXPBDPBX@Z@base_internal@absl@@ABEP6AXPBDPBX@ZXZ
    ?DoLoad@?$AtomicHook@P6AXPBDPBX_J@Z@base_internal@absl@@ABEP6AXPBDPBX_J@ZXZ
    ?DoLoad@?$AtomicHook@P6AXPBX_J@Z@base_internal@absl@@ABEP6AXPBX_J@ZXZ
    ?DoLoad@?$AtomicHook@P6AXW4LogSeverity@absl@@PBDHABV?$basic_string@DU?$char_traits@D@__1@std@@V?$allocator@D@23@@__1@std@@@Z@base_internal@absl@@ABEP6AXW4LogSeverity@3@PBDHABV?$basic_string@DU?$char_traits@D@__1@std@@V?$allocator@D@23@@__1@std@@@ZXZ
    ?DoLoad@?$AtomicHook@P6AX_J@Z@base_internal@absl@@ABEP6AX_J@ZXZ
    ?DoLoad@?$AtomicHook@P6A_NPBXPADH@Z@base_internal@absl@@ABEP6A_NPBXPADH@ZXZ
    ?DoLoad@?$AtomicHook@P6A_NW4LogSeverity@absl@@PBDHPAPADPAH@Z@base_internal@absl@@ABEP6A_NW4LogSeverity@3@PBDHPAPADPAH@ZXZ
    ?DoStore@?$AtomicHook@P6A?AV?$optional@V?$basic_string@DU?$char_traits@D@__1@std@@V?$allocator@D@23@@__1@std@@@absl@@Vstring_view@2@ABVCord@2@@Z@base_internal@absl@@AAE_NP6A?AV?$optional@V?$basic_string@DU?$char_traits@D@__1@std@@V?$allocator@D@23@@__1@std@@@3@Vstring_view@3@ABVCord@3@@Z@Z
    ?DoStore@?$AtomicHook@P6AXPBDH000@Z@base_internal@absl@@AAE_NP6AXPBDH000@Z@Z
    ?DoStore@?$AtomicHook@P6AXPBDPBX@Z@base_internal@absl@@AAE_NP6AXPBDPBX@Z@Z
    ?DoStore@?$AtomicHook@P6AXPBDPBX_J@Z@base_internal@absl@@AAE_NP6AXPBDPBX_J@Z@Z
    ?DoStore@?$AtomicHook@P6AXPBX_J@Z@base_internal@absl@@AAE_NP6AXPBX_J@Z@Z
    ?DoStore@?$AtomicHook@P6AXW4LogSeverity@absl@@PBDHABV?$basic_string@DU?$char_traits@D@__1@std@@V?$allocator@D@23@@__1@std@@@Z@base_internal@absl@@AAE_NP6AXW4LogSeverity@3@PBDHABV?$basic_string@DU?$char_traits@D@__1@std@@V?$allocator@D@23@@__1@std@@@Z@Z
    ?DoStore@?$AtomicHook@P6AX_J@Z@base_internal@absl@@AAE_NP6AX_J@Z@Z
    ?DoStore@?$AtomicHook@P6A_NPBXPADH@Z@base_internal@absl@@AAE_NP6A_NPBXPADH@Z@Z
    ?DoStore@?$AtomicHook@P6A_NW4LogSeverity@absl@@PBDHPAPADPAH@Z@base_internal@absl@@AAE_NP6A_NW4LogSeverity@3@PBDHPAPADPAH@Z@Z
    ?DummyFunction@?$AtomicHook@P6A?AV?$optional@V?$basic_string@DU?$char_traits@D@__1@std@@V?$allocator@D@23@@__1@std@@@absl@@Vstring_view@2@ABVCord@2@@Z@base_internal@absl@@CA?AV?$optional@V?$basic_string@DU?$char_traits@D@__1@std@@V?$allocator@D@23@@__1@std@@@3@Vstring_view@3@ABVCord@3@@Z
    ?DummyFunction@?$AtomicHook@P6AXPBDH000@Z@base_internal@absl@@CAXPBDH000@Z
    ?DummyFunction@?$AtomicHook@P6AXPBDPBX@Z@base_internal@absl@@CAXPBDPBX@Z
    ?DummyFunction@?$AtomicHook@P6AXPBDPBX_J@Z@base_internal@absl@@CAXPBDPBX_J@Z
    ?DummyFunction@?$AtomicHook@P6AXPBX_J@Z@base_internal@absl@@CAXPBX_J@Z
    ?DummyFunction@?$AtomicHook@P6AX_J@Z@base_internal@absl@@CAX_J@Z
    ?DummyFunction@?$AtomicHook@P6A_NW4LogSeverity@absl@@PBDHPAPADPAH@Z@base_internal@absl@@CA_NW4LogSeverity@3@PBDHPAPADPAH@Z
    ?Dump@CordRepBtree@cord_internal@absl@@SAXPBUCordRep@23@AAV?$basic_ostream@DU?$char_traits@D@__1@std@@@__1@std@@@Z
    ?Dump@CordRepBtree@cord_internal@absl@@SAXPBUCordRep@23@Vstring_view@3@AAV?$basic_ostream@DU?$char_traits@D@__1@std@@@__1@std@@@Z
    ?Dump@CordRepBtree@cord_internal@absl@@SAXPBUCordRep@23@Vstring_view@3@_NAAV?$basic_ostream@DU?$char_traits@D@__1@std@@@__1@std@@@Z
    ?DumpPCAndFrameSizesAndStackTrace@debugging_internal@absl@@YAXPAXQBQAXQAHHH_NP6AXPBD0@Z0@Z
    ?DurationFromTimespec@absl@@YA?AVDuration@1@Utimespec@@@Z
    ?DurationFromTimeval@absl@@YA?AVDuration@1@Utimeval@@@Z
    ?Edge@CordRepBtree@cord_internal@absl@@QBEPAUCordRep@23@I@Z
    ?Edge@CordRepBtree@cord_internal@absl@@QBEPAUCordRep@23@W4EdgeType@123@@Z
    ?EdgeData@CordRepBtree@cord_internal@absl@@SA?AVstring_view@3@PBUCordRep@23@@Z
    ?EdgeDataPtr@CordRepBtree@cord_internal@absl@@SAPBDPBUCordRep@23@@Z
    ?Edges@CordRepBtree@cord_internal@absl@@QBE?AV?$Span@QAUCordRep@cord_internal@absl@@@3@II@Z
    ?Edges@CordRepBtree@cord_internal@absl@@QBE?AV?$Span@QAUCordRep@cord_internal@absl@@@3@XZ
    ?EmplaceTree@InlineRep@Cord@absl@@QAEXPAUCordRep@cord_internal@3@ABVInlineData@53@W4MethodIdentifier@CordzUpdateTracker@53@@Z
    ?EmplaceTree@InlineRep@Cord@absl@@QAEXPAUCordRep@cord_internal@3@W4MethodIdentifier@CordzUpdateTracker@53@@Z
    ?EmptyString@Status@absl@@CAPBV?$basic_string@DU?$char_traits@D@__1@std@@V?$allocator@D@23@@__1@std@@XZ
    ?EnableDebugLog@CondVar@absl@@QAEXPBD@Z
    ?EnableDebugLog@Mutex@absl@@QAEXPBD@Z
    ?EnableInvariantDebugging@Mutex@absl@@QAEXP6AXPAX@Z0@Z
    ?EnableMutexInvariantDebugging@absl@@YAX_N@Z
    ?EnableRescheduling@SchedulingGuard@base_internal@absl@@CAX_N@Z
    ?EncodeUTF8Char@strings_internal@absl@@YAIPAD_U@Z
    ?EncodeWaitCycles@SpinLock@base_internal@absl@@KAI_J0@Z
    ?EndsWith@Cord@absl@@QBE_NABV12@@Z
    ?EndsWith@Cord@absl@@QBE_NVstring_view@2@@Z
    ?EndsWithIgnoreCase@absl@@YA_NVstring_view@1@0@Z
    ?EqualsIgnoreCase@absl@@YA_NVstring_view@1@0@Z
    ?EqualsImpl@Cord@absl@@ABE_NABV12@I@Z
    ?EqualsImpl@Cord@absl@@ABE_NVstring_view@2@I@Z
    ?EqualsSlow@Status@absl@@CA_NABV12@0@Z
    ?EquivTransitions@TimeZoneInfo@cctz@time_internal@absl@@ABE_NEE@Z
    ?Erase@?$Storage@UPayload@status_internal@absl@@$00V?$allocator@UPayload@status_internal@absl@@@__1@std@@@inlined_vector_internal@absl@@QAEPAUPayload@status_internal@3@PBU453@0@Z
    ?ErasePayload@Status@absl@@QAE_NVstring_view@2@@Z
    ?Eval@Condition@absl@@QBE_NXZ
    ?Excess@str_format_internal@absl@@YAIII@Z
    ?ExtendTransitions@TimeZoneInfo@cctz@time_internal@absl@@AAE_NXZ
    ?FDivDuration@absl@@YANVDuration@1@0@Z
    ?FailedPreconditionError@absl@@YA?AVStatus@1@Vstring_view@1@@Z
    ?FailureSignalToString@debugging_internal@absl@@YAPBDH@Z
    ?FastHexToBufferZeroPad16@numbers_internal@absl@@YAI_KPAD@Z
    ?FastIntToBuffer@numbers_internal@absl@@YAPADHPAD@Z
    ?FastIntToBuffer@numbers_internal@absl@@YAPADIPAD@Z
    ?FastIntToBuffer@numbers_internal@absl@@YAPAD_JPAD@Z
    ?FastIntToBuffer@numbers_internal@absl@@YAPAD_KPAD@Z
    ?Fer@Mutex@absl@@AAEXPAUPerThreadSynch@base_internal@2@@Z
    ?FillParentStack@CordzInfo@cord_internal@absl@@CAHPBV123@PAPAX@Z
    ?Find@ByAnyChar@absl@@QBE?AVstring_view@2@V32@I@Z
    ?Find@ByChar@absl@@QBE?AVstring_view@2@V32@I@Z
    ?Find@ByLength@absl@@QBE?AVstring_view@2@V32@I@Z
    ?Find@ByString@absl@@QBE?AVstring_view@2@V32@I@Z
    ?Find@CordRepRing@cord_internal@absl@@QBE?AUPosition@123@I@Z
    ?FindFlatStartPiece@InlineRep@Cord@absl@@QBE?AVstring_view@3@XZ
    ?FindPath@GraphCycles@synchronization_internal@absl@@QBEHUGraphId@23@0HQAU423@@Z
    ?FindSlow@CordRepRing@cord_internal@absl@@ABE?AUPosition@123@II@Z
    ?FindTail@CordRepRing@cord_internal@absl@@QBE?AUPosition@123@I@Z
    ?FindTail@CordRepRing@cord_internal@absl@@QBE?AUPosition@123@II@Z
    ?FindTailSlow@CordRepRing@cord_internal@absl@@ABE?AUPosition@123@II@Z
    ?FiveToTheNth@?$BigUnsigned@$03@strings_internal@absl@@SA?AV123@H@Z
    ?FiveToTheNth@?$BigUnsigned@$0FE@@strings_internal@absl@@SA?AV123@H@Z
    ?FixedOffsetFromName@cctz@time_internal@absl@@YA_NABV?$basic_string@DU?$char_traits@D@__1@std@@V?$allocator@D@23@@__1@std@@PAV?$duration@_JV?$ratio@$00$00@__1@std@@@chrono@56@@Z
    ?FixedOffsetToAbbr@cctz@time_internal@absl@@YA?AV?$basic_string@DU?$char_traits@D@__1@std@@V?$allocator@D@23@@__1@std@@ABV?$duration@_JV?$ratio@$00$00@__1@std@@@chrono@56@@Z
    ?FixedOffsetToName@cctz@time_internal@absl@@YA?AV?$basic_string@DU?$char_traits@D@__1@std@@V?$allocator@D@23@@__1@std@@ABV?$duration@_JV?$ratio@$00$00@__1@std@@@chrono@56@@Z
    ?FlagsContains@str_format_internal@absl@@YA_NW4Flags@12@0@Z
    ?FlagsToString@FormatConversionSpecImplFriend@str_format_internal@absl@@SA?AV?$basic_string@DU?$char_traits@D@__1@std@@V?$allocator@D@23@@__1@std@@ABVFormatConversionSpecImpl@23@@Z
    ?FlagsToString@str_format_internal@absl@@YA?AV?$basic_string@DU?$char_traits@D@__1@std@@V?$allocator@D@23@@__1@std@@W4Flags@12@@Z
    ?FlatOverhead@CordTestAccess@strings_internal@absl@@SAIXZ
    ?FlatTagToLength@CordTestAccess@strings_internal@absl@@SAIE@Z
    ?FlattenSlowPath@Cord@absl@@AAE?AVstring_view@2@XZ
    ?Floor@absl@@YA?AVDuration@1@V21@0@Z
    ?Flush@FormatSinkImpl@str_format_internal@absl@@QAEXXZ
    ?ForEachChunkAux@Cord@absl@@CAXPAUCordRep@cord_internal@2@V?$FunctionRef@$$A6AXVstring_view@absl@@@Z@2@@Z
    ?ForEachPayload@Status@absl@@QBEXABV?$function@$$A6AXVstring_view@absl@@ABVCord@2@@Z@__1@std@@@Z
    ?ForgetDeadlockInfo@Mutex@absl@@QAEXXZ
    ?FormatCivilTime@absl@@YA?AV?$basic_string@DU?$char_traits@D@__1@std@@V?$allocator@D@23@@__1@std@@V?$civil_time@Uday_tag@time_internal@absl@@@detail@cctz@time_internal@1@@Z
    ?FormatCivilTime@absl@@YA?AV?$basic_string@DU?$char_traits@D@__1@std@@V?$allocator@D@23@@__1@std@@V?$civil_time@Uhour_tag@time_internal@absl@@@detail@cctz@time_internal@1@@Z
    ?FormatCivilTime@absl@@YA?AV?$basic_string@DU?$char_traits@D@__1@std@@V?$allocator@D@23@@__1@std@@V?$civil_time@Uminute_tag@time_internal@absl@@@detail@cctz@time_internal@1@@Z
    ?FormatCivilTime@absl@@YA?AV?$basic_string@DU?$char_traits@D@__1@std@@V?$allocator@D@23@@__1@std@@V?$civil_time@Umonth_tag@time_internal@absl@@@detail@cctz@time_internal@1@@Z
    ?FormatCivilTime@absl@@YA?AV?$basic_string@DU?$char_traits@D@__1@std@@V?$allocator@D@23@@__1@std@@V?$civil_time@Usecond_tag@time_internal@absl@@@detail@cctz@time_internal@1@@Z
    ?FormatCivilTime@absl@@YA?AV?$basic_string@DU?$char_traits@D@__1@std@@V?$allocator@D@23@@__1@std@@V?$civil_time@Uyear_tag@time_internal@absl@@@detail@cctz@time_internal@1@@Z
    ?FormatConversionCharIsFloat@str_format_internal@absl@@YA_NW4FormatConversionChar@2@@Z
    ?FormatConversionCharIsUpper@str_format_internal@absl@@YA_NW4FormatConversionChar@2@@Z
    ?FormatConversionCharToChar@str_format_internal@absl@@YADW4FormatConversionChar@2@@Z
    ?FormatConversionCharToConvInt@str_format_internal@absl@@YA_KD@Z
    ?FormatConversionCharToConvInt@str_format_internal@absl@@YA_KW4FormatConversionChar@2@@Z
    ?FormatConversionCharToConvValue@str_format_internal@absl@@YA?AW4FormatConversionCharSet@2@D@Z
    ?FormatConvertImpl@str_format_internal@absl@@YA?AU?$ArgConvertResult@$03@12@ABV?$basic_string@DU?$char_traits@D@__1@std@@V?$allocator@D@23@@__1@std@@VFormatConversionSpecImpl@12@PAVFormatSinkImpl@12@@Z
    ?FormatConvertImpl@str_format_internal@absl@@YA?AU?$ArgConvertResult@$03@12@Vstring_view@2@VFormatConversionSpecImpl@12@PAVFormatSinkImpl@12@@Z
    ?FormatConvertImpl@str_format_internal@absl@@YA?AU?$ArgConvertResult@$0BPOAA@@12@MVFormatConversionSpecImpl@12@PAVFormatSinkImpl@12@@Z
    ?FormatConvertImpl@str_format_internal@absl@@YA?AU?$ArgConvertResult@$0BPOAA@@12@NVFormatConversionSpecImpl@12@PAVFormatSinkImpl@12@@Z
    ?FormatConvertImpl@str_format_internal@absl@@YA?AU?$ArgConvertResult@$0BPOAA@@12@OVFormatConversionSpecImpl@12@PAVFormatSinkImpl@12@@Z
    ?FormatConvertImpl@str_format_internal@absl@@YA?AU?$ArgConvertResult@$0BPPPL@@12@CVFormatConversionSpecImpl@12@PAVFormatSinkImpl@12@@Z
    ?FormatConvertImpl@str_format_internal@absl@@YA?AU?$ArgConvertResult@$0BPPPL@@12@DVFormatConversionSpecImpl@12@PAVFormatSinkImpl@12@@Z
    ?FormatConvertImpl@str_format_internal@absl@@YA?AU?$ArgConvertResult@$0BPPPL@@12@EVFormatConversionSpecImpl@12@PAVFormatSinkImpl@12@@Z
    ?FormatConvertImpl@str_format_internal@absl@@YA?AU?$ArgConvertResult@$0BPPPL@@12@FVFormatConversionSpecImpl@12@PAVFormatSinkImpl@12@@Z
    ?FormatConvertImpl@str_format_internal@absl@@YA?AU?$ArgConvertResult@$0BPPPL@@12@GVFormatConversionSpecImpl@12@PAVFormatSinkImpl@12@@Z
    ?FormatConvertImpl@str_format_internal@absl@@YA?AU?$ArgConvertResult@$0BPPPL@@12@HVFormatConversionSpecImpl@12@PAVFormatSinkImpl@12@@Z
    ?FormatConvertImpl@str_format_internal@absl@@YA?AU?$ArgConvertResult@$0BPPPL@@12@IVFormatConversionSpecImpl@12@PAVFormatSinkImpl@12@@Z
    ?FormatConvertImpl@str_format_internal@absl@@YA?AU?$ArgConvertResult@$0BPPPL@@12@JVFormatConversionSpecImpl@12@PAVFormatSinkImpl@12@@Z
    ?FormatConvertImpl@str_format_internal@absl@@YA?AU?$ArgConvertResult@$0BPPPL@@12@KVFormatConversionSpecImpl@12@PAVFormatSinkImpl@12@@Z
    ?FormatConvertImpl@str_format_internal@absl@@YA?AU?$ArgConvertResult@$0BPPPL@@12@Vint128@2@VFormatConversionSpecImpl@12@PAVFormatSinkImpl@12@@Z
    ?FormatConvertImpl@str_format_internal@absl@@YA?AU?$ArgConvertResult@$0BPPPL@@12@Vuint128@2@VFormatConversionSpecImpl@12@PAVFormatSinkImpl@12@@Z
    ?FormatConvertImpl@str_format_internal@absl@@YA?AU?$ArgConvertResult@$0BPPPL@@12@_JVFormatConversionSpecImpl@12@PAVFormatSinkImpl@12@@Z
    ?FormatConvertImpl@str_format_internal@absl@@YA?AU?$ArgConvertResult@$0BPPPL@@12@_KVFormatConversionSpecImpl@12@PAVFormatSinkImpl@12@@Z
    ?FormatConvertImpl@str_format_internal@absl@@YA?AU?$ArgConvertResult@$0EAAAA@@12@UVoidPtr@12@VFormatConversionSpecImpl@12@PAVFormatSinkImpl@12@@Z
    ?FormatConvertImpl@str_format_internal@absl@@YA?AU?$ArgConvertResult@$0EAAAE@@12@PBDVFormatConversionSpecImpl@12@PAVFormatSinkImpl@12@@Z
    ?FormatDuration@absl@@YA?AV?$basic_string@DU?$char_traits@D@__1@std@@V?$allocator@D@23@@__1@std@@VDuration@1@@Z
    ?FormatPack@str_format_internal@absl@@YA?AV?$basic_string@DU?$char_traits@D@__1@std@@V?$allocator@D@23@@__1@std@@VUntypedFormatSpecImpl@12@V?$Span@$$CBVFormatArgImpl@str_format_internal@absl@@@2@@Z
    ?FormatTime@absl@@YA?AV?$basic_string@DU?$char_traits@D@__1@std@@V?$allocator@D@23@@__1@std@@VTime@1@@Z
    ?FormatTime@absl@@YA?AV?$basic_string@DU?$char_traits@D@__1@std@@V?$allocator@D@23@@__1@std@@VTime@1@VTimeZone@1@@Z
    ?FormatTime@absl@@YA?AV?$basic_string@DU?$char_traits@D@__1@std@@V?$allocator@D@23@@__1@std@@Vstring_view@1@VTime@1@VTimeZone@1@@Z
    ?FormatUntyped@str_format_internal@absl@@YA_NVFormatRawSinkImpl@12@VUntypedFormatSpecImpl@12@V?$Span@$$CBVFormatArgImpl@str_format_internal@absl@@@2@@Z
    ?FprintF@str_format_internal@absl@@YAHPAU_iobuf@@VUntypedFormatSpecImpl@12@V?$Span@$$CBVFormatArgImpl@str_format_internal@absl@@@2@@Z
    ?Free@LowLevelAlloc@base_internal@absl@@SAXPAX@Z
    ?Frequency@CycleClock@base_internal@absl@@SANXZ
    ?Frequency@UnscaledCycleClock@base_internal@absl@@CANXZ
    ?FromChrono@absl@@YA?AVDuration@1@ABV?$duration@_JV?$ratio@$00$0PECEA@@__1@std@@@chrono@__1@std@@@Z
    ?FromChrono@absl@@YA?AVTime@1@ABV?$time_point@Vsystem_clock@chrono@__1@std@@V?$duration@_JV?$ratio@$00$0PECEA@@__1@std@@@234@@chrono@__1@std@@@Z
    ?FromCivil@absl@@YA?AVTime@1@V?$civil_time@Usecond_tag@time_internal@absl@@@detail@cctz@time_internal@1@VTimeZone@1@@Z
    ?FromHost64@big_endian@absl@@YA_K_K@Z
    ?FromInt64@time_internal@absl@@YA?AVDuration@2@_JV?$ratio@$0DM@$00@__1@std@@@Z
    ?FromInt64@time_internal@absl@@YA?AVDuration@2@_JV?$ratio@$0OBA@$00@__1@std@@@Z
    ?FromTM@absl@@YA?AVTime@1@ABUtm@@VTimeZone@1@@Z
    ?FromUDate@absl@@YA?AVTime@1@N@Z
    ?FromUniversal@absl@@YA?AVTime@1@_J@Z
    ?FromUnixDuration@time_internal@absl@@YA?AVTime@2@VDuration@2@@Z
    ?FromUnixSeconds@cctz@time_internal@absl@@YA?AV?$time_point@Vsystem_clock@chrono@__1@std@@V?$duration@_JV?$ratio@$00$00@__1@std@@@234@@chrono@__1@std@@_J@Z
    ?Get@Refcount@cord_internal@absl@@QBEHXZ
    ?GetAllocPtr@?$Storage@H$0CP@V?$allocator@H@__1@std@@@inlined_vector_internal@absl@@QAEPAV?$allocator@H@__1@std@@XZ
    ?GetAllocPtr@?$Storage@PAUCordRep@cord_internal@absl@@$01V?$allocator@PAUCordRep@cord_internal@absl@@@__1@std@@@inlined_vector_internal@absl@@QAEPAV?$allocator@PAUCordRep@cord_internal@absl@@@__1@std@@XZ
    ?GetAllocPtr@?$Storage@PAUCordRep@cord_internal@absl@@$0CP@V?$allocator@PAUCordRep@cord_internal@absl@@@__1@std@@@inlined_vector_internal@absl@@QAEPAV?$allocator@PAUCordRep@cord_internal@absl@@@__1@std@@XZ
    ?GetAllocPtr@?$Storage@PBUCordRep@cord_internal@absl@@$0CP@V?$allocator@PBUCordRep@cord_internal@absl@@@__1@std@@@inlined_vector_internal@absl@@QAEPAV?$allocator@PBUCordRep@cord_internal@absl@@@__1@std@@XZ
    ?GetAllocPtr@?$Storage@UPayload@status_internal@absl@@$00V?$allocator@UPayload@status_internal@absl@@@__1@std@@@inlined_vector_internal@absl@@QAEPAV?$allocator@UPayload@status_internal@absl@@@__1@std@@XZ
    ?GetAllocPtr@?$Storage@UPayload@status_internal@absl@@$00V?$allocator@UPayload@status_internal@absl@@@__1@std@@@inlined_vector_internal@absl@@QBEPBV?$allocator@UPayload@status_internal@absl@@@__1@std@@XZ
    ?GetAllocPtr@?$Storage@USubRange@absl@@$0CP@V?$allocator@USubRange@absl@@@__1@std@@@inlined_vector_internal@absl@@QAEPAV?$allocator@USubRange@absl@@@__1@std@@XZ
    ?GetAllocatedCapacity@?$Storage@H$0CP@V?$allocator@H@__1@std@@@inlined_vector_internal@absl@@QBEIXZ
    ?GetAllocatedCapacity@?$Storage@PAUCordRep@cord_internal@absl@@$01V?$allocator@PAUCordRep@cord_internal@absl@@@__1@std@@@inlined_vector_internal@absl@@QBEIXZ
    ?GetAllocatedCapacity@?$Storage@PAUCordRep@cord_internal@absl@@$0CP@V?$allocator@PAUCordRep@cord_internal@absl@@@__1@std@@@inlined_vector_internal@absl@@QBEIXZ
    ?GetAllocatedCapacity@?$Storage@PBUCordRep@cord_internal@absl@@$0CP@V?$allocator@PBUCordRep@cord_internal@absl@@@__1@std@@@inlined_vector_internal@absl@@QBEIXZ
    ?GetAllocatedCapacity@?$Storage@UPayload@status_internal@absl@@$00V?$allocator@UPayload@status_internal@absl@@@__1@std@@@inlined_vector_internal@absl@@QBEIXZ
    ?GetAllocatedCapacity@?$Storage@USubRange@absl@@$0CP@V?$allocator@USubRange@absl@@@__1@std@@@inlined_vector_internal@absl@@QBEIXZ
    ?GetAllocatedData@?$Storage@H$0CP@V?$allocator@H@__1@std@@@inlined_vector_internal@absl@@QAEPAHXZ
    ?GetAllocatedData@?$Storage@PAUCordRep@cord_internal@absl@@$01V?$allocator@PAUCordRep@cord_internal@absl@@@__1@std@@@inlined_vector_internal@absl@@QAEPAPAUCordRep@cord_internal@3@XZ
    ?GetAllocatedData@?$Storage@PAUCordRep@cord_internal@absl@@$0CP@V?$allocator@PAUCordRep@cord_internal@absl@@@__1@std@@@inlined_vector_internal@absl@@QAEPAPAUCordRep@cord_internal@3@XZ
    ?GetAllocatedData@?$Storage@PBUCordRep@cord_internal@absl@@$0CP@V?$allocator@PBUCordRep@cord_internal@absl@@@__1@std@@@inlined_vector_internal@absl@@QAEPAPBUCordRep@cord_internal@3@XZ
    ?GetAllocatedData@?$Storage@UPayload@status_internal@absl@@$00V?$allocator@UPayload@status_internal@absl@@@__1@std@@@inlined_vector_internal@absl@@QAEPAUPayload@status_internal@3@XZ
    ?GetAllocatedData@?$Storage@UPayload@status_internal@absl@@$00V?$allocator@UPayload@status_internal@absl@@@__1@std@@@inlined_vector_internal@absl@@QBEPBUPayload@status_internal@3@XZ
    ?GetAllocatedData@?$Storage@USubRange@absl@@$0CP@V?$allocator@USubRange@absl@@@__1@std@@@inlined_vector_internal@absl@@QAEPAUSubRange@3@XZ
    ?GetAllocator@?$AllocationTransaction@V?$allocator@H@__1@std@@@inlined_vector_internal@absl@@QAEAAV?$allocator@H@__1@std@@XZ
    ?GetAllocator@?$AllocationTransaction@V?$allocator@PAUCordRep@cord_internal@absl@@@__1@std@@@inlined_vector_internal@absl@@QAEAAV?$allocator@PAUCordRep@cord_internal@absl@@@__1@std@@XZ
    ?GetAllocator@?$AllocationTransaction@V?$allocator@PBUCordRep@cord_internal@absl@@@__1@std@@@inlined_vector_internal@absl@@QAEAAV?$allocator@PBUCordRep@cord_internal@absl@@@__1@std@@XZ
    ?GetAllocator@?$AllocationTransaction@V?$allocator@UPayload@status_internal@absl@@@__1@std@@@inlined_vector_internal@absl@@QAEAAV?$allocator@UPayload@status_internal@absl@@@__1@std@@XZ
    ?GetAllocator@?$AllocationTransaction@V?$allocator@USubRange@absl@@@__1@std@@@inlined_vector_internal@absl@@QAEAAV?$allocator@USubRange@absl@@@__1@std@@XZ
    ?GetAppendBuffer@CordRepBtree@cord_internal@absl@@QAE?AV?$Span@D@3@I@Z
    ?GetAppendBuffer@CordRepRing@cord_internal@absl@@QAE?AV?$Span@D@3@I@Z
    ?GetAppendBufferSlow@CordRepBtree@cord_internal@absl@@AAE?AV?$Span@D@3@I@Z
    ?GetCachedTID@base_internal@absl@@YAIXZ
    ?GetCapacity@?$AllocationTransaction@V?$allocator@H@__1@std@@@inlined_vector_internal@absl@@QAEAAIXZ
    ?GetCapacity@?$AllocationTransaction@V?$allocator@PAUCordRep@cord_internal@absl@@@__1@std@@@inlined_vector_internal@absl@@QAEAAIXZ
    ?GetCapacity@?$AllocationTransaction@V?$allocator@PBUCordRep@cord_internal@absl@@@__1@std@@@inlined_vector_internal@absl@@QAEAAIXZ
    ?GetCapacity@?$AllocationTransaction@V?$allocator@UPayload@status_internal@absl@@@__1@std@@@inlined_vector_internal@absl@@QAEAAIXZ
    ?GetCapacity@?$AllocationTransaction@V?$allocator@USubRange@absl@@@__1@std@@@inlined_vector_internal@absl@@QAEAAIXZ
    ?GetCharacter@CordRepBtree@cord_internal@absl@@QBEDI@Z
    ?GetCharacter@CordRepRing@cord_internal@absl@@QBEDI@Z
    ?GetCond@WinHelper@Waiter@synchronization_internal@absl@@SAPAU_RTL_CONDITION_VARIABLE@@PAV234@@Z
    ?GetCordzStatistics@CordzInfo@cord_internal@absl@@QBE?AUCordzStatistics@23@XZ
    ?GetCurrentTimeNanos@absl@@YA_JXZ
    ?GetData@?$AllocationTransaction@V?$allocator@H@__1@std@@@inlined_vector_internal@absl@@QAEAAPAHXZ
    ?GetData@?$AllocationTransaction@V?$allocator@PAUCordRep@cord_internal@absl@@@__1@std@@@inlined_vector_internal@absl@@QAEAAPAPAUCordRep@cord_internal@3@XZ
    ?GetData@?$AllocationTransaction@V?$allocator@PBUCordRep@cord_internal@absl@@@__1@std@@@inlined_vector_internal@absl@@QAEAAPAPBUCordRep@cord_internal@3@XZ
    ?GetData@?$AllocationTransaction@V?$allocator@UPayload@status_internal@absl@@@__1@std@@@inlined_vector_internal@absl@@QAEAAPAUPayload@status_internal@3@XZ
    ?GetData@?$AllocationTransaction@V?$allocator@USubRange@absl@@@__1@std@@@inlined_vector_internal@absl@@QAEAAPAUSubRange@3@XZ
    ?GetFirstChunk@Cord@absl@@CA?AVstring_view@2@ABV12@@Z
    ?GetFirstChunk@Cord@absl@@CA?AVstring_view@2@V32@@Z
    ?GetFlatAux@Cord@absl@@CA_NPAUCordRep@cord_internal@2@PAVstring_view@2@@Z
    ?GetId@GraphCycles@synchronization_internal@absl@@QAE?AUGraphId@23@PAX@Z
    ?GetInlinedCapacity@?$Storage@H$0CP@V?$allocator@H@__1@std@@@inlined_vector_internal@absl@@QBEIXZ
    ?GetInlinedCapacity@?$Storage@PAUCordRep@cord_internal@absl@@$01V?$allocator@PAUCordRep@cord_internal@absl@@@__1@std@@@inlined_vector_internal@absl@@QBEIXZ
    ?GetInlinedCapacity@?$Storage@PAUCordRep@cord_internal@absl@@$0CP@V?$allocator@PAUCordRep@cord_internal@absl@@@__1@std@@@inlined_vector_internal@absl@@QBEIXZ
    ?GetInlinedCapacity@?$Storage@PBUCordRep@cord_internal@absl@@$0CP@V?$allocator@PBUCordRep@cord_internal@absl@@@__1@std@@@inlined_vector_internal@absl@@QBEIXZ
    ?GetInlinedCapacity@?$Storage@UPayload@status_internal@absl@@$00V?$allocator@UPayload@status_internal@absl@@@__1@std@@@inlined_vector_internal@absl@@QBEIXZ
    ?GetInlinedCapacity@?$Storage@USubRange@absl@@$0CP@V?$allocator@USubRange@absl@@@__1@std@@@inlined_vector_internal@absl@@QBEIXZ
    ?GetInlinedData@?$Storage@H$0CP@V?$allocator@H@__1@std@@@inlined_vector_internal@absl@@QAEPAHXZ
    ?GetInlinedData@?$Storage@PAUCordRep@cord_internal@absl@@$01V?$allocator@PAUCordRep@cord_internal@absl@@@__1@std@@@inlined_vector_internal@absl@@QAEPAPAUCordRep@cord_internal@3@XZ
    ?GetInlinedData@?$Storage@PAUCordRep@cord_internal@absl@@$0CP@V?$allocator@PAUCordRep@cord_internal@absl@@@__1@std@@@inlined_vector_internal@absl@@QAEPAPAUCordRep@cord_internal@3@XZ
    ?GetInlinedData@?$Storage@PBUCordRep@cord_internal@absl@@$0CP@V?$allocator@PBUCordRep@cord_internal@absl@@@__1@std@@@inlined_vector_internal@absl@@QAEPAPBUCordRep@cord_internal@3@XZ
    ?GetInlinedData@?$Storage@UPayload@status_internal@absl@@$00V?$allocator@UPayload@status_internal@absl@@@__1@std@@@inlined_vector_internal@absl@@QAEPAUPayload@status_internal@3@XZ
    ?GetInlinedData@?$Storage@UPayload@status_internal@absl@@$00V?$allocator@UPayload@status_internal@absl@@@__1@std@@@inlined_vector_internal@absl@@QBEPBUPayload@status_internal@3@XZ
    ?GetInlinedData@?$Storage@USubRange@absl@@$0CP@V?$allocator@USubRange@absl@@@__1@std@@@inlined_vector_internal@absl@@QAEPAUSubRange@3@XZ
    ?GetIsAllocated@?$Storage@H$0CP@V?$allocator@H@__1@std@@@inlined_vector_internal@absl@@QBE_NXZ
    ?GetIsAllocated@?$Storage@PAUCordRep@cord_internal@absl@@$01V?$allocator@PAUCordRep@cord_internal@absl@@@__1@std@@@inlined_vector_internal@absl@@QBE_NXZ
    ?GetIsAllocated@?$Storage@PAUCordRep@cord_internal@absl@@$0CP@V?$allocator@PAUCordRep@cord_internal@absl@@@__1@std@@@inlined_vector_internal@absl@@QBE_NXZ
    ?GetIsAllocated@?$Storage@PBUCordRep@cord_internal@absl@@$0CP@V?$allocator@PBUCordRep@cord_internal@absl@@@__1@std@@@inlined_vector_internal@absl@@QBE_NXZ
    ?GetIsAllocated@?$Storage@UPayload@status_internal@absl@@$00V?$allocator@UPayload@status_internal@absl@@@__1@std@@@inlined_vector_internal@absl@@QBE_NXZ
    ?GetIsAllocated@?$Storage@USubRange@absl@@$0CP@V?$allocator@USubRange@absl@@@__1@std@@@inlined_vector_internal@absl@@QBE_NXZ
    ?GetLeafData@CordRepRing@cord_internal@absl@@SAPBDPBUCordRep@23@@Z
    ?GetLock@WinHelper@Waiter@synchronization_internal@absl@@SAPAU_RTL_SRWLOCK@@PAV234@@Z
    ?GetOrCreateCurrentThreadIdentity@synchronization_internal@absl@@YAPAUThreadIdentity@base_internal@2@XZ
    ?GetParentMethod@CordzInfo@cord_internal@absl@@CA?AW4MethodIdentifier@CordzUpdateTracker@23@PBV123@@Z
    ?GetParentStack@CordzInfo@cord_internal@absl@@QBE?AV?$Span@QAX@3@XZ
    ?GetPayload@Status@absl@@QBE?AV?$optional@VCord@absl@@@2@Vstring_view@2@@Z
    ?GetPayloads@Status@absl@@AAEPAV?$InlinedVector@UPayload@status_internal@absl@@$00V?$allocator@UPayload@status_internal@absl@@@__1@std@@@2@XZ
    ?GetPayloads@Status@absl@@ABEPBV?$InlinedVector@UPayload@status_internal@absl@@$00V?$allocator@UPayload@status_internal@absl@@@__1@std@@@2@XZ
    ?GetPrependBuffer@CordRepRing@cord_internal@absl@@QAE?AV?$Span@D@3@I@Z
    ?GetProgramCounter@debugging_internal@absl@@YAPAXPAX@Z
    ?GetRepData@CordRepRing@cord_internal@absl@@SAPBDPBUCordRep@23@@Z
    ?GetRepHi@time_internal@absl@@YA_JVDuration@2@@Z
    ?GetRepLo@time_internal@absl@@YAIVDuration@2@@Z
    ?GetSize@?$Storage@H$0CP@V?$allocator@H@__1@std@@@inlined_vector_internal@absl@@QBEIXZ
    ?GetSize@?$Storage@PAUCordRep@cord_internal@absl@@$01V?$allocator@PAUCordRep@cord_internal@absl@@@__1@std@@@inlined_vector_internal@absl@@QBEIXZ
    ?GetSize@?$Storage@PAUCordRep@cord_internal@absl@@$0CP@V?$allocator@PAUCordRep@cord_internal@absl@@@__1@std@@@inlined_vector_internal@absl@@QBEIXZ
    ?GetSize@?$Storage@PBUCordRep@cord_internal@absl@@$0CP@V?$allocator@PBUCordRep@cord_internal@absl@@@__1@std@@@inlined_vector_internal@absl@@QBEIXZ
    ?GetSize@?$Storage@UPayload@status_internal@absl@@$00V?$allocator@UPayload@status_internal@absl@@@__1@std@@@inlined_vector_internal@absl@@QBEIXZ
    ?GetSize@?$Storage@USubRange@absl@@$0CP@V?$allocator@USubRange@absl@@@__1@std@@@inlined_vector_internal@absl@@QBEIXZ
    ?GetSizeAndIsAllocated@?$Storage@H$0CP@V?$allocator@H@__1@std@@@inlined_vector_internal@absl@@QAEAAIXZ
    ?GetSizeAndIsAllocated@?$Storage@H$0CP@V?$allocator@H@__1@std@@@inlined_vector_internal@absl@@QBEABIXZ
    ?GetSizeAndIsAllocated@?$Storage@PAUCordRep@cord_internal@absl@@$01V?$allocator@PAUCordRep@cord_internal@absl@@@__1@std@@@inlined_vector_internal@absl@@QAEAAIXZ
    ?GetSizeAndIsAllocated@?$Storage@PAUCordRep@cord_internal@absl@@$01V?$allocator@PAUCordRep@cord_internal@absl@@@__1@std@@@inlined_vector_internal@absl@@QBEABIXZ
    ?GetSizeAndIsAllocated@?$Storage@PAUCordRep@cord_internal@absl@@$0CP@V?$allocator@PAUCordRep@cord_internal@absl@@@__1@std@@@inlined_vector_internal@absl@@QAEAAIXZ
    ?GetSizeAndIsAllocated@?$Storage@PAUCordRep@cord_internal@absl@@$0CP@V?$allocator@PAUCordRep@cord_internal@absl@@@__1@std@@@inlined_vector_internal@absl@@QBEABIXZ
    ?GetSizeAndIsAllocated@?$Storage@PBUCordRep@cord_internal@absl@@$0CP@V?$allocator@PBUCordRep@cord_internal@absl@@@__1@std@@@inlined_vector_internal@absl@@QAEAAIXZ
    ?GetSizeAndIsAllocated@?$Storage@PBUCordRep@cord_internal@absl@@$0CP@V?$allocator@PBUCordRep@cord_internal@absl@@@__1@std@@@inlined_vector_internal@absl@@QBEABIXZ
    ?GetSizeAndIsAllocated@?$Storage@UPayload@status_internal@absl@@$00V?$allocator@UPayload@status_internal@absl@@@__1@std@@@inlined_vector_internal@absl@@QAEAAIXZ
    ?GetSizeAndIsAllocated@?$Storage@UPayload@status_internal@absl@@$00V?$allocator@UPayload@status_internal@absl@@@__1@std@@@inlined_vector_internal@absl@@QBEABIXZ
    ?GetSizeAndIsAllocated@?$Storage@USubRange@absl@@$0CP@V?$allocator@USubRange@absl@@@__1@std@@@inlined_vector_internal@absl@@QAEAAIXZ
    ?GetSizeAndIsAllocated@?$Storage@USubRange@absl@@$0CP@V?$allocator@USubRange@absl@@@__1@std@@@inlined_vector_internal@absl@@QBEABIXZ
    ?GetSkipCount@ExponentialBiased@base_internal@absl@@QAE_J_J@Z
    ?GetStack@CordzInfo@cord_internal@absl@@QBE?AV?$Span@QAX@3@XZ
    ?GetStackFrames@absl@@YAHPAPAXPAHHH@Z
    ?GetStackFramesWithContext@absl@@YAHPAPAXPAHHHPBX1@Z
    ?GetStackTrace@GraphCycles@synchronization_internal@absl@@QAEHUGraphId@23@PAPAPAX@Z
    ?GetStackTrace@absl@@YAHPAPAXHH@Z
    ?GetStackTraceWithContext@absl@@YAHPAPAXHHPBXPAH@Z
    ?GetStatusPayloadPrinter@status_internal@absl@@YAP6A?AV?$optional@V?$basic_string@DU?$char_traits@D@__1@std@@V?$allocator@D@23@@__1@std@@@2@Vstring_view@2@ABVCord@2@@ZXZ
    ?GetStride@ExponentialBiased@base_internal@absl@@QAE_J_J@Z
    ?GetTID@base_internal@absl@@YAIXZ
    ?GetTagForChar@str_format_internal@absl@@YA?AVConvTag@12@D@Z
    ?GetThreadBlockedCounter@PerThreadSem@synchronization_internal@absl@@SAPAU?$atomic@H@__1@std@@XZ
    ?GetTransitionType@TimeZoneInfo@cctz@time_internal@absl@@AAE_NH_NABV?$basic_string@DU?$char_traits@D@__1@std@@V?$allocator@D@23@@__1@std@@PAE@Z
    ?GetWaiter@Waiter@synchronization_internal@absl@@SAPAV123@PAUThreadIdentity@base_internal@3@@Z
    ?GetWeekday@absl@@YA?AW4weekday@detail@cctz@time_internal@1@V?$civil_time@Usecond_tag@time_internal@absl@@@3451@@Z
    ?GetWord@?$BigUnsigned@$03@strings_internal@absl@@QBEIH@Z
    ?GetWord@?$BigUnsigned@$0FE@@strings_internal@absl@@QBEIH@Z
    ?GetYearDay@absl@@YAHV?$civil_time@Usecond_tag@time_internal@absl@@@detail@cctz@time_internal@1@@Z
    ?Global@HashtablezSampler@container_internal@absl@@SAAAV123@XZ
    ?GuaranteedEqual@Condition@absl@@SA_NPBV12@0@Z
    ?H1@container_internal@absl@@YAIIPBW4ctrl_t@12@@Z
    ?HandleInvalidStatusCtorArg@Helper@internal_statusor@absl@@SAXPAVStatus@3@@Z
    ?HasBeenNotifiedInternal@Notification@absl@@CA_NPBU?$atomic@_N@__1@std@@@Z
    ?HasEdge@GraphCycles@synchronization_internal@absl@@QBE_NUGraphId@23@0@Z
    ?HasNode@GraphCycles@synchronization_internal@absl@@QAE_NUGraphId@23@@Z
    ?HashSeed@container_internal@absl@@YAIPBW4ctrl_t@12@@Z
    ?Head@CordzInfo@cord_internal@absl@@SAPAV123@ABVCordzSnapshot@23@@Z
    ?HexStringToBytes@absl@@YA?AV?$basic_string@DU?$char_traits@D@__1@std@@V?$allocator@D@23@@__1@std@@Vstring_view@1@@Z
    ?HideMask@base_internal@absl@@YAIXZ
    ?IDivDuration@absl@@YA_JVDuration@1@0PAV21@@Z
    ?IDivDuration@time_internal@absl@@YA_J_NVDuration@2@1PAV32@@Z
    ?In@Time@absl@@QBE?AUBreakdown@12@VTimeZone@2@@Z
    ?InMillisecondsFromNow@KernelTimeout@synchronization_internal@absl@@ABEKXZ
    ?Increment@Refcount@cord_internal@absl@@QAEXXZ
    ?IncrementSynchSem@Mutex@absl@@CAXPAV12@PAUPerThreadSynch@base_internal@2@@Z
    ?IndexBefore@CordRepBtree@cord_internal@absl@@ABE?AUPosition@123@U4123@I@Z
    ?IndexBeyond@CordRepBtree@cord_internal@absl@@ABE?AUPosition@123@I@Z
    ?IndexOf@CordRepBtree@cord_internal@absl@@ABE?AUPosition@123@I@Z
    ?InfiniteDuration@absl@@YA?AVDuration@1@XZ
    ?InfiniteFuture@absl@@YA?AVTime@1@XZ
    ?InfinitePast@absl@@YA?AVTime@1@XZ
    ?Init@CordRepBtreeReader@cord_internal@absl@@QAE?AVstring_view@3@PAVCordRepBtree@23@@Z
    ?Init@PerThreadSem@synchronization_internal@absl@@CAXPAUThreadIdentity@base_internal@3@@Z
    ?InitFirst@CordRepBtreeNavigator@cord_internal@absl@@QAEPAUCordRep@23@PAVCordRepBtree@23@@Z
    ?InitFrom@?$Storage@UPayload@status_internal@absl@@$00V?$allocator@UPayload@status_internal@absl@@@__1@std@@@inlined_vector_internal@absl@@QAEXABV123@@Z
    ?InitInstance@CordRepBtree@cord_internal@absl@@AAEXHII@Z
    ?InitTree@ChunkIterator@Cord@absl@@AAEXPAUCordRep@cord_internal@3@@Z
    ?InitWhat@BadStatusOrAccess@absl@@ABEXXZ
    ?Initialize@ExponentialBiased@base_internal@absl@@AAEXXZ
    ?InitializeCordRepExternal@cord_internal@absl@@YAXVstring_view@2@PAUCordRepExternal@12@@Z
    ?InitializeData@Storage@?$FixedArray@PAUCordRep@cord_internal@absl@@$0PPPPPPPP@V?$allocator@PAUCordRep@cord_internal@absl@@@__1@std@@@absl@@AAEPAPAUCordRep@cord_internal@3@XZ
    ?InitializeSymbolizer@absl@@YAXPBD@Z
    ?InlinedRepToCode@Status@absl@@CA?AW4StatusCode@2@I@Z
    ?InsertEdge@GraphCycles@synchronization_internal@absl@@QAE_NUGraphId@23@0@Z
    ?InstallFailureSignalHandler@absl@@YAXABUFailureSignalHandlerOptions@1@@Z
    ?Int128High64@absl@@YA_JVint128@1@@Z
    ?Int128Low64@absl@@YA_KVint128@1@@Z
    ?Int128Max@absl@@YA?AVint128@1@XZ
    ?Int128Min@absl@@YA?AVint128@1@XZ
    ?InternalAttemptToUseMutexInFatalSignalHandler@Mutex@absl@@SAXXZ
    ?InternalCondVarPoke@Waiter@synchronization_internal@absl@@AAEXXZ
    ?InternalError@absl@@YA?AVStatus@1@Vstring_view@1@@Z
    ?InvalidArgumentError@absl@@YA?AVStatus@1@Vstring_view@1@@Z
    ?InvalidGraphId@synchronization_internal@absl@@YA?AUGraphId@12@XZ
    ?IsAborted@absl@@YA_NABVStatus@1@@Z
    ?IsAlreadyExists@absl@@YA_NABVStatus@1@@Z
    ?IsBtree@CordRep@cord_internal@absl@@QBE_NXZ
    ?IsCancelled@absl@@YA_NABVStatus@1@@Z
    ?IsConcat@CordRep@cord_internal@absl@@QBE_NXZ
    ?IsCooperative@SpinLock@base_internal@absl@@CA_NW4SchedulingMode@23@@Z
    ?IsDataEdge@CordRepBtree@cord_internal@absl@@SA_NPBUCordRep@23@@Z
    ?IsDataLoss@absl@@YA_NABVStatus@1@@Z
    ?IsDeadlineExceeded@absl@@YA_NABVStatus@1@@Z
    ?IsEmpty@Queue@CordzHandle@cord_internal@absl@@QBE_NXZ
    ?IsExternal@CordRep@cord_internal@absl@@QBE_NXZ
    ?IsFailedPrecondition@absl@@YA_NABVStatus@1@@Z
    ?IsFlat@CordRep@cord_internal@absl@@QBE_NXZ
    ?IsFlat@CordRepBtree@cord_internal@absl@@QBE_NIIPAVstring_view@3@@Z
    ?IsFlat@CordRepBtree@cord_internal@absl@@QBE_NPAVstring_view@3@@Z
    ?IsImmortal@Refcount@cord_internal@absl@@QBE_NXZ
    ?IsInfiniteDuration@time_internal@absl@@YA_NVDuration@2@@Z
    ?IsInlined@Status@absl@@CA_NI@Z
    ?IsInternal@absl@@YA_NABVStatus@1@@Z
    ?IsInvalidArgument@absl@@YA_NABVStatus@1@@Z
    ?IsMovedFrom@Status@absl@@CA_NI@Z
    ?IsNotFound@absl@@YA_NABVStatus@1@@Z
    ?IsOne@Refcount@cord_internal@absl@@QAE_NXZ
    ?IsOutOfRange@absl@@YA_NABVStatus@1@@Z
    ?IsPermissionDenied@absl@@YA_NABVStatus@1@@Z
    ?IsReachable@GraphCycles@synchronization_internal@absl@@QBE_NUGraphId@23@0@Z
    ?IsResourceExhausted@absl@@YA_NABVStatus@1@@Z
    ?IsRing@CordRep@cord_internal@absl@@QBE_NXZ
    ?IsSame@InlineRep@Cord@absl@@QBE_NABV123@@Z
    ?IsSubstring@CordRep@cord_internal@absl@@QBE_NXZ
    ?IsUnauthenticated@absl@@YA_NABVStatus@1@@Z
    ?IsUnavailable@absl@@YA_NABVStatus@1@@Z
    ?IsUnimplemented@absl@@YA_NABVStatus@1@@Z
    ?IsUnknown@absl@@YA_NABVStatus@1@@Z
    ?IsValid@CordRepBtree@cord_internal@absl@@SA_NPBV123@_N@Z
    ?IsValid@CordRepRing@cord_internal@absl@@QBE_NAAV?$basic_ostream@DU?$char_traits@D@__1@std@@@__1@std@@@Z
    ?IsValidCapacity@container_internal@absl@@YA_NI@Z
    ?IsValidIndex@CordRepRing@cord_internal@absl@@ABE_NI@Z
    ?Iterate@HashtablezSampler@container_internal@absl@@QAE_JABV?$function@$$A6AXABUHashtablezInfo@container_internal@absl@@@Z@__1@std@@@Z
    ?LengthModToString@str_format_internal@absl@@YA?AV?$basic_string@DU?$char_traits@D@__1@std@@V?$allocator@D@23@@__1@std@@W4LengthMod@12@@Z
    ?LengthToTag@CordTestAccess@strings_internal@absl@@SAEI@Z
    ?Load16@big_endian@absl@@YAGPBX@Z
    ?Load32@big_endian@absl@@YAIPBX@Z
    ?Load@?$AtomicHook@P6A?AV?$optional@V?$basic_string@DU?$char_traits@D@__1@std@@V?$allocator@D@23@@__1@std@@@absl@@Vstring_view@2@ABVCord@2@@Z@base_internal@absl@@QBEP6A?AV?$optional@V?$basic_string@DU?$char_traits@D@__1@std@@V?$allocator@D@23@@__1@std@@@3@Vstring_view@3@ABVCord@3@@ZXZ
    ?Load@?$AtomicHook@P6A_NW4LogSeverity@absl@@PBDHPAPADPAH@Z@base_internal@absl@@QBEP6A_NW4LogSeverity@3@PBDHPAPADPAH@ZXZ
    ?Load@TimeZoneIf@cctz@time_internal@absl@@SA?AV?$unique_ptr@VTimeZoneIf@cctz@time_internal@absl@@U?$default_delete@VTimeZoneIf@cctz@time_internal@absl@@@__1@std@@@__1@std@@ABV?$basic_string@DU?$char_traits@D@__1@std@@V?$allocator@D@23@@67@@Z
    ?Load@TimeZoneInfo@cctz@time_internal@absl@@AAE_NPAVZoneInfoSource@234@@Z
    ?Load@TimeZoneInfo@cctz@time_internal@absl@@QAE_NABV?$basic_string@DU?$char_traits@D@__1@std@@V?$allocator@D@23@@__1@std@@@Z
    ?LoadTimeZone@Impl@time_zone@cctz@time_internal@absl@@SA_NABV?$basic_string@DU?$char_traits@D@__1@std@@V?$allocator@D@23@@__1@std@@PAV2345@@Z
    ?LocalTime@TimeZoneInfo@cctz@time_internal@absl@@ABE?AUabsolute_lookup@time_zone@234@_JABUTransition@234@@Z
    ?LocalTime@TimeZoneInfo@cctz@time_internal@absl@@ABE?AUabsolute_lookup@time_zone@234@_JABUTransitionType@234@@Z
    ?LocalTimeZone@absl@@YA?AVTimeZone@1@XZ
    ?Lock@CordzInfo@cord_internal@absl@@QAEXW4MethodIdentifier@CordzUpdateTracker@23@@Z
    ?Lock@Mutex@absl@@QAEXXZ
    ?Lock@SpinLock@base_internal@absl@@QAEXXZ
    ?LockSlow@Mutex@absl@@AAEXPBUMuHowS@2@PBVCondition@2@H@Z
    ?LockSlowLoop@Mutex@absl@@AAEXPAUSynchWaitParams@2@H@Z
    ?LockSlowWithDeadline@Mutex@absl@@AAE_NPBUMuHowS@2@PBVCondition@2@VKernelTimeout@synchronization_internal@2@H@Z
    ?LockWhen@Mutex@absl@@QAEXABVCondition@2@@Z
    ?LockWhenWithDeadline@Mutex@absl@@QAE_NABVCondition@2@VTime@2@@Z
    ?LockWhenWithTimeout@Mutex@absl@@QAE_NABVCondition@2@VDuration@2@@Z
    ?LogSeverityName@absl@@YAPBDW4LogSeverity@1@@Z
    ?LossyAdd@CordzUpdateTracker@cord_internal@absl@@QAEXABV123@@Z
    ?LossyAdd@CordzUpdateTracker@cord_internal@absl@@QAEXW4MethodIdentifier@123@_J@Z
    ?LowLevelHash@hash_internal@absl@@YA_KPBXI_KQB_K@Z
    ?LowLevelHashImpl@MixingHashState@hash_internal@absl@@CA_KPBEI@Z
    ?MakeConcat@CordForest@absl@@AAEPAUCordRep@cord_internal@2@PAU342@0@Z
    ?MakeDuration@time_internal@absl@@YA?AVDuration@2@_J0@Z
    ?MakeDuration@time_internal@absl@@YA?AVDuration@2@_JI@Z
    ?MakeFlatWithExtraCapacity@InlineRep@Cord@absl@@QAEPAUCordRepFlat@cord_internal@3@I@Z
    ?MakeInt128@absl@@YA?AVint128@1@_J_K@Z
    ?MakeNormalizedDuration@time_internal@absl@@YA?AVDuration@2@_J0@Z
    ?MakeNs@KernelTimeout@synchronization_internal@absl@@CA_JVTime@3@@Z
    ?MakeStorageView@?$Storage@H$0CP@V?$allocator@H@__1@std@@@inlined_vector_internal@absl@@QAE?AU?$StorageView@V?$allocator@H@__1@std@@@23@XZ
    ?MakeStorageView@?$Storage@PAUCordRep@cord_internal@absl@@$01V?$allocator@PAUCordRep@cord_internal@absl@@@__1@std@@@inlined_vector_internal@absl@@QAE?AU?$StorageView@V?$allocator@PAUCordRep@cord_internal@absl@@@__1@std@@@23@XZ
    ?MakeStorageView@?$Storage@PAUCordRep@cord_internal@absl@@$0CP@V?$allocator@PAUCordRep@cord_internal@absl@@@__1@std@@@inlined_vector_internal@absl@@QAE?AU?$StorageView@V?$allocator@PAUCordRep@cord_internal@absl@@@__1@std@@@23@XZ
    ?MakeStorageView@?$Storage@PBUCordRep@cord_internal@absl@@$0CP@V?$allocator@PBUCordRep@cord_internal@absl@@@__1@std@@@inlined_vector_internal@absl@@QAE?AU?$StorageView@V?$allocator@PBUCordRep@cord_internal@absl@@@__1@std@@@23@XZ
    ?MakeStorageView@?$Storage@UPayload@status_internal@absl@@$00V?$allocator@UPayload@status_internal@absl@@@__1@std@@@inlined_vector_internal@absl@@QAE?AU?$StorageView@V?$allocator@UPayload@status_internal@absl@@@__1@std@@@23@XZ
    ?MakeStorageView@?$Storage@USubRange@absl@@$0CP@V?$allocator@USubRange@absl@@@__1@std@@@inlined_vector_internal@absl@@QAE?AU?$StorageView@V?$allocator@USubRange@absl@@@__1@std@@@23@XZ
    ?MakeTime@Impl@time_zone@cctz@time_internal@absl@@QBE?AUcivil_lookup@2345@ABV?$civil_time@Usecond_tag@detail@cctz@time_internal@absl@@@detail@345@@Z
    ?MakeTime@TimeZoneInfo@cctz@time_internal@absl@@UBE?AUcivil_lookup@time_zone@234@ABV?$civil_time@Usecond_tag@detail@cctz@time_internal@absl@@@detail@234@@Z
    ?MakeTime@TimeZoneLibC@cctz@time_internal@absl@@UBE?AUcivil_lookup@time_zone@234@ABV?$civil_time@Usecond_tag@detail@cctz@time_internal@absl@@@detail@234@@Z
    ?MakeUint128@absl@@YA?AVuint128@1@_K0@Z
    ?MapToLocalCode@status_internal@absl@@YA?AW4StatusCode@2@H@Z
    ?MatchesConversions@ParsedFormatBase@str_format_internal@absl@@ABE_N_NV?$initializer_list@W4FormatConversionCharSet@absl@@@std@@@Z
    ?MaxFlatLength@CordTestAccess@strings_internal@absl@@SAIXZ
    ?MaybeTrackCordImpl@CordzInfo@cord_internal@absl@@CAXAAVInlineData@23@ABV423@W4MethodIdentifier@CordzUpdateTracker@23@@Z
    ?MemoryUsageAux@Cord@absl@@CAIPBUCordRep@cord_internal@2@@Z
    ?MergeTrees@CordRepBtree@cord_internal@absl@@CAPAV123@PAV123@0@Z
    ?Min@string_view@absl@@CAIII@Z
    ?MovedFromRep@Status@absl@@CAIXZ
    ?MovedFromString@Status@absl@@CAPBV?$basic_string@DU?$char_traits@D@__1@std@@V?$allocator@D@23@@__1@std@@XZ
    ?MultiplyBy@?$BigUnsigned@$03@strings_internal@absl@@AAEXHPBI@Z
    ?MultiplyBy@?$BigUnsigned@$03@strings_internal@absl@@QAEXI@Z
    ?MultiplyBy@?$BigUnsigned@$03@strings_internal@absl@@QAEX_K@Z
    ?MultiplyBy@?$BigUnsigned@$0FE@@strings_internal@absl@@AAEXHPBI@Z
    ?MultiplyBy@?$BigUnsigned@$0FE@@strings_internal@absl@@QAEXI@Z
    ?MultiplyBy@?$BigUnsigned@$0FE@@strings_internal@absl@@QAEX_K@Z
    ?MultiplyByFiveToTheNth@?$BigUnsigned@$03@strings_internal@absl@@QAEXH@Z
    ?MultiplyByFiveToTheNth@?$BigUnsigned@$0FE@@strings_internal@absl@@QAEXH@Z
    ?MultiplyByTenToTheNth@?$BigUnsigned@$03@strings_internal@absl@@QAEXH@Z
    ?MultiplyByTenToTheNth@?$BigUnsigned@$0FE@@strings_internal@absl@@QAEXH@Z
    ?MultiplyStep@?$BigUnsigned@$03@strings_internal@absl@@AAEXHPBIHH@Z
    ?MultiplyStep@?$BigUnsigned@$0FE@@strings_internal@absl@@AAEXHPBIHH@Z
    ?Mutable@CordRepRing@cord_internal@absl@@CAPAV123@PAV123@I@Z
    ?MutexDelay@synchronization_internal@absl@@YAHHH@Z
    ?Name@Impl@time_zone@cctz@time_internal@absl@@QBEABV?$basic_string@DU?$char_traits@D@__1@std@@V?$allocator@D@23@@__1@std@@XZ
    ?NegateAndSubtractOne@time_internal@absl@@YA_J_J@Z
    ?Never@KernelTimeout@synchronization_internal@absl@@SA?AV123@XZ
    ?New@CordRepBtree@cord_internal@absl@@SAPAV123@H@Z
    ?New@CordRepBtree@cord_internal@absl@@SAPAV123@PAUCordRep@23@@Z
    ?New@CordRepBtree@cord_internal@absl@@SAPAV123@PAV123@0@Z
    ?New@CordRepFlat@cord_internal@absl@@SAPAU123@I@Z
    ?New@CordRepRing@cord_internal@absl@@CAPAV123@II@Z
    ?NewArena@LowLevelAlloc@base_internal@absl@@SAPAUArena@123@H@Z
    ?Next@CordRepBtreeNavigator@cord_internal@absl@@QAEPAUCordRep@23@XZ
    ?Next@CordRepBtreeReader@cord_internal@absl@@QAE?AVstring_view@3@XZ
    ?Next@CordzInfo@cord_internal@absl@@QBEPAV123@ABVCordzSnapshot@23@@Z
    ?NextCapacity@?$Storage@H$0CP@V?$allocator@H@__1@std@@@inlined_vector_internal@absl@@SAII@Z
    ?NextCapacity@?$Storage@PAUCordRep@cord_internal@absl@@$01V?$allocator@PAUCordRep@cord_internal@absl@@@__1@std@@@inlined_vector_internal@absl@@SAII@Z
    ?NextCapacity@?$Storage@PAUCordRep@cord_internal@absl@@$0CP@V?$allocator@PAUCordRep@cord_internal@absl@@@__1@std@@@inlined_vector_internal@absl@@SAII@Z
    ?NextCapacity@?$Storage@PBUCordRep@cord_internal@absl@@$0CP@V?$allocator@PBUCordRep@cord_internal@absl@@@__1@std@@@inlined_vector_internal@absl@@SAII@Z
    ?NextCapacity@?$Storage@UPayload@status_internal@absl@@$00V?$allocator@UPayload@status_internal@absl@@@__1@std@@@inlined_vector_internal@absl@@SAII@Z
    ?NextCapacity@?$Storage@USubRange@absl@@$0CP@V?$allocator@USubRange@absl@@@__1@std@@@inlined_vector_internal@absl@@SAII@Z
    ?NextRandom@ExponentialBiased@base_internal@absl@@SA_K_K@Z
    ?NextTransition@Impl@time_zone@cctz@time_internal@absl@@QBE_NABV?$time_point@Vsystem_clock@chrono@__1@std@@V?$duration@_JV?$ratio@$00$00@__1@std@@@234@@chrono@__1@std@@PAUcivil_transition@2345@@Z
    ?NextTransition@TimeZone@absl@@QBE_NVTime@2@PAUCivilTransition@12@@Z
    ?NextTransition@TimeZoneInfo@cctz@time_internal@absl@@UBE_NABV?$time_point@Vsystem_clock@chrono@__1@std@@V?$duration@_JV?$ratio@$00$00@__1@std@@@234@@chrono@__1@std@@PAUcivil_transition@time_zone@234@@Z
    ?NextTransition@TimeZoneLibC@cctz@time_internal@absl@@UBE_NABV?$time_point@Vsystem_clock@chrono@__1@std@@V?$duration@_JV?$ratio@$00$00@__1@std@@@234@@chrono@__1@std@@PAUcivil_transition@time_zone@234@@Z
    ?NextUp@CordRepBtreeNavigator@cord_internal@absl@@AAEPAUCordRep@23@XZ
    ?NominalCPUFrequency@base_internal@absl@@YANXZ
    ?NormalizeLogSeverity@absl@@YA?AW4LogSeverity@1@W421@@Z
    ?NotFoundError@absl@@YA?AVStatus@1@Vstring_view@1@@Z
    ?Notify@Notification@absl@@QAEXXZ
    ?Now@CycleClock@base_internal@absl@@SA_JXZ
    ?Now@UnscaledCycleClock@base_internal@absl@@CA_JXZ
    ?Now@UnscaledCycleClockWrapperForGetCurrentTime@time_internal@absl@@SA_JXZ
    ?Now@absl@@YA?AVTime@1@XZ
    ?NumCPUs@base_internal@absl@@YAHXZ
    ?NumClonedBytes@container_internal@absl@@YAIXZ
    ?ODRCheck@CordzHandle@cord_internal@absl@@ABEXXZ
    ?ODRCheck@CordzInfo@cord_internal@absl@@ABEXXZ
    ?OccursBefore@ViableSubstitution@strings_internal@absl@@QBE_NABU123@@Z
    ?OppositeInfinity@time_internal@absl@@YA?AVDuration@2@V32@@Z
    ?OutOfRangeError@absl@@YA?AVStatus@1@Vstring_view@1@@Z
    ?ParseCivilTime@absl@@YA_NVstring_view@1@PAV?$civil_time@Uday_tag@time_internal@absl@@@detail@cctz@time_internal@1@@Z
    ?ParseCivilTime@absl@@YA_NVstring_view@1@PAV?$civil_time@Uhour_tag@time_internal@absl@@@detail@cctz@time_internal@1@@Z
    ?ParseCivilTime@absl@@YA_NVstring_view@1@PAV?$civil_time@Uminute_tag@time_internal@absl@@@detail@cctz@time_internal@1@@Z
    ?ParseCivilTime@absl@@YA_NVstring_view@1@PAV?$civil_time@Umonth_tag@time_internal@absl@@@detail@cctz@time_internal@1@@Z
    ?ParseCivilTime@absl@@YA_NVstring_view@1@PAV?$civil_time@Usecond_tag@time_internal@absl@@@detail@cctz@time_internal@1@@Z
    ?ParseCivilTime@absl@@YA_NVstring_view@1@PAV?$civil_time@Uyear_tag@time_internal@absl@@@detail@cctz@time_internal@1@@Z
    ?ParseDuration@absl@@YA_NVstring_view@1@PAVDuration@1@@Z
    ?ParseFlag@absl@@YA_NABV?$basic_string@DU?$char_traits@D@__1@std@@V?$allocator@D@23@@__1@std@@PAVDuration@1@PAV234@@Z
    ?ParseFlag@absl@@YA_NABV?$basic_string@DU?$char_traits@D@__1@std@@V?$allocator@D@23@@__1@std@@PAVTime@1@PAV234@@Z
    ?ParseLenientCivilTime@absl@@YA_NVstring_view@1@PAV?$civil_time@Uday_tag@time_internal@absl@@@detail@cctz@time_internal@1@@Z
    ?ParseLenientCivilTime@absl@@YA_NVstring_view@1@PAV?$civil_time@Uhour_tag@time_internal@absl@@@detail@cctz@time_internal@1@@Z
    ?ParseLenientCivilTime@absl@@YA_NVstring_view@1@PAV?$civil_time@Uminute_tag@time_internal@absl@@@detail@cctz@time_internal@1@@Z
    ?ParseLenientCivilTime@absl@@YA_NVstring_view@1@PAV?$civil_time@Umonth_tag@time_internal@absl@@@detail@cctz@time_internal@1@@Z
    ?ParseLenientCivilTime@absl@@YA_NVstring_view@1@PAV?$civil_time@Usecond_tag@time_internal@absl@@@detail@cctz@time_internal@1@@Z
    ?ParseLenientCivilTime@absl@@YA_NVstring_view@1@PAV?$civil_time@Uyear_tag@time_internal@absl@@@detail@cctz@time_internal@1@@Z
    ?ParsePosixSpec@cctz@time_internal@absl@@YA_NABV?$basic_string@DU?$char_traits@D@__1@std@@V?$allocator@D@23@@__1@std@@PAUPosixTimeZone@123@@Z
    ?ParseTime@absl@@YA_NVstring_view@1@0PAVTime@1@PAV?$basic_string@DU?$char_traits@D@__1@std@@V?$allocator@D@23@@__1@std@@@Z
    ?ParseTime@absl@@YA_NVstring_view@1@0VTimeZone@1@PAVTime@1@PAV?$basic_string@DU?$char_traits@D@__1@std@@V?$allocator@D@23@@__1@std@@@Z
    ?PermissionDeniedError@absl@@YA?AVStatus@1@Vstring_view@1@@Z
    ?Piece@AlphaNum@absl@@QBE?AVstring_view@2@XZ
    ?PiecewiseChunkSize@hash_internal@absl@@YAIXZ
    ?PointerToRep@Status@absl@@CAIPAUStatusRep@status_internal@2@@Z
    ?Poke@Waiter@synchronization_internal@absl@@QAEXXZ
    ?PopDead@HashtablezSampler@container_internal@absl@@AAEPAUHashtablezInfo@23@XZ
    ?Post@PerThreadSem@synchronization_internal@absl@@CAXPAUThreadIdentity@base_internal@3@@Z
    ?Post@Waiter@synchronization_internal@absl@@QAEXXZ
    ?PrepareForSampling@HashtablezInfo@container_internal@absl@@QAEXXZ
    ?PrepareToModify@Status@absl@@AAEXXZ
    ?Prepend@Cord@absl@@QAEXABV12@@Z
    ?Prepend@Cord@absl@@QAEXVstring_view@2@@Z
    ?Prepend@CordRepBtree@cord_internal@absl@@SAPAV123@PAV123@PAUCordRep@23@@Z
    ?Prepend@CordRepBtree@cord_internal@absl@@SAPAV123@PAV123@Vstring_view@3@I@Z
    ?Prepend@CordRepRing@cord_internal@absl@@SAPAV123@PAV123@PAUCordRep@23@@Z
    ?Prepend@CordRepRing@cord_internal@absl@@SAPAV123@PAV123@Vstring_view@3@I@Z
    ?PrependLeaf@CordRepRing@cord_internal@absl@@CAPAV123@PAV123@PAUCordRep@23@II@Z
    ?PrependNode@CordForest@absl@@AAEPAUCordRep@cord_internal@2@PAU342@0@Z
    ?PrependSlow@CordRepBtree@cord_internal@absl@@CAPAV123@PAV123@PAUCordRep@23@@Z
    ?PrependSlow@CordRepRing@cord_internal@absl@@CAPAV123@PAV123@PAUCordRep@23@@Z
    ?PrependTree@InlineRep@Cord@absl@@QAEXPAUCordRep@cord_internal@3@W4MethodIdentifier@CordzUpdateTracker@53@@Z
    ?PrependTreeToInlined@InlineRep@Cord@absl@@QAEXPAUCordRep@cord_internal@3@W4MethodIdentifier@CordzUpdateTracker@53@@Z
    ?PrependTreeToTree@InlineRep@Cord@absl@@QAEXPAUCordRep@cord_internal@3@W4MethodIdentifier@CordzUpdateTracker@53@@Z
    ?PrevTransition@Impl@time_zone@cctz@time_internal@absl@@QBE_NABV?$time_point@Vsystem_clock@chrono@__1@std@@V?$duration@_JV?$ratio@$00$00@__1@std@@@234@@chrono@__1@std@@PAUcivil_transition@2345@@Z
    ?PrevTransition@TimeZone@absl@@QBE_NVTime@2@PAUCivilTransition@12@@Z
    ?PrevTransition@TimeZoneInfo@cctz@time_internal@absl@@UBE_NABV?$time_point@Vsystem_clock@chrono@__1@std@@V?$duration@_JV?$ratio@$00$00@__1@std@@@234@@chrono@__1@std@@PAUcivil_transition@time_zone@234@@Z
    ?PrevTransition@TimeZoneLibC@cctz@time_internal@absl@@UBE_NABV?$time_point@Vsystem_clock@chrono@__1@std@@V?$duration@_JV?$ratio@$00$00@__1@std@@@234@@chrono@__1@std@@PAUcivil_transition@time_zone@234@@Z
    ?Print@Streamable@str_format_internal@absl@@QBEAAV?$basic_ostream@DU?$char_traits@D@__1@std@@@__1@std@@AAV456@@Z
    ?Ptr@GraphCycles@synchronization_internal@absl@@QAEPAXUGraphId@23@@Z
    ?PushDead@HashtablezSampler@container_internal@absl@@AAEXPAUHashtablezInfo@23@@Z
    ?PushNew@HashtablezSampler@container_internal@absl@@AAEXPAUHashtablezInfo@23@@Z
    ?PutPaddedString@FormatSinkImpl@str_format_internal@absl@@QAE_NVstring_view@3@HH_N@Z
    ?PutTwoDigits@numbers_internal@absl@@YAXIPAD@Z
    ?RandomSeed@container_internal@absl@@YAIXZ
    ?RawLog@raw_logging_internal@absl@@YAXW4LogSeverity@2@PBDH1ZZ
    ?RawLoggingFullySupported@raw_logging_internal@absl@@YA_NXZ
    ?Read1To3@MixingHashState@hash_internal@absl@@CAIPBEI@Z
    ?Read4To8@MixingHashState@hash_internal@absl@@CA_KPBEI@Z
    ?Read9To16@MixingHashState@hash_internal@absl@@CA?AU?$pair@_K_K@__1@std@@PBEI@Z
    ?Read@CordRepBtreeNavigator@cord_internal@absl@@QAE?AUReadResult@123@II@Z
    ?Read@CordRepBtreeReader@cord_internal@absl@@QAE?AVstring_view@3@IIAAPAUCordRep@23@@Z
    ?ReadDigits@?$BigUnsigned@$03@strings_internal@absl@@AAEHPBD0H@Z
    ?ReadDigits@?$BigUnsigned@$0FE@@strings_internal@absl@@AAEHPBD0H@Z
    ?ReadFloatMantissa@?$BigUnsigned@$03@strings_internal@absl@@QAEHABUParsedFloat@23@H@Z
    ?ReadFloatMantissa@?$BigUnsigned@$0FE@@strings_internal@absl@@QAEHABUParsedFloat@23@H@Z
    ?ReaderLock@Mutex@absl@@QAEXXZ
    ?ReaderLockWhen@Mutex@absl@@QAEXABVCondition@2@@Z
    ?ReaderLockWhenWithDeadline@Mutex@absl@@QAE_NABVCondition@2@VTime@2@@Z
    ?ReaderLockWhenWithTimeout@Mutex@absl@@QAE_NABVCondition@2@VDuration@2@@Z
    ?ReaderTryLock@Mutex@absl@@QAE_NXZ
    ?ReaderUnlock@Mutex@absl@@QAEXXZ
    ?ReclaimThreadIdentity@synchronization_internal@absl@@YAXPAX@Z
    ?RecordInsertSlow@container_internal@absl@@YAXPAUHashtablezInfo@12@II@Z
    ?Ref@CordRep@cord_internal@absl@@SAPAU123@PAU123@@Z
    ?Ref@Status@absl@@CAXI@Z
    ?RefCordRep@CordzInfo@cord_internal@absl@@QBEPAUCordRep@23@XZ
    ?Register@CycleClockSource@base_internal@absl@@CAXP6A_JXZ@Z
    ?Register@HashtablezSampler@container_internal@absl@@QAEPAUHashtablezInfo@23@XZ
    ?RegisterAbortHook@raw_logging_internal@absl@@YAXP6AXPBDH000@Z@Z
    ?RegisterCondVarTracer@absl@@YAXP6AXPBDPBX@Z@Z
    ?RegisterInternalLogFunction@raw_logging_internal@absl@@YAXP6AXW4LogSeverity@2@PBDHABV?$basic_string@DU?$char_traits@D@__1@std@@V?$allocator@D@23@@__1@std@@@Z@Z
    ?RegisterLogPrefixHook@raw_logging_internal@absl@@YAXP6A_NW4LogSeverity@2@PBDHPAPADPAH@Z@Z
    ?RegisterMutexProfiler@absl@@YAXP6AX_J@Z@Z
    ?RegisterMutexTracer@absl@@YAXP6AXPBDPBX_J@Z@Z
    ?RegisterSpinLockProfiler@base_internal@absl@@YAXP6AXPBX_J@Z@Z
    ?RegisterSymbolizer@absl@@YAXP6A_NPBXPADH@Z@Z
    ?Release@ReleasableMutexLock@absl@@QAEXXZ
    ?Remove@CondVar@absl@@AAEXPAUPerThreadSynch@base_internal@2@@Z
    ?RemoveChunkPrefix@ChunkIterator@Cord@absl@@AAEXI@Z
    ?RemoveEdge@GraphCycles@synchronization_internal@absl@@QAEXUGraphId@23@0@Z
    ?RemoveExtraAsciiWhitespace@absl@@YAXPAV?$basic_string@DU?$char_traits@D@__1@std@@V?$allocator@D@23@@__1@std@@@Z
    ?RemoveNode@GraphCycles@synchronization_internal@absl@@QAEXPAX@Z
    ?RemovePrefix@Cord@absl@@QAEXI@Z
    ?RemovePrefix@CordRepRing@cord_internal@absl@@SAPAV123@PAV123@II@Z
    ?RemoveSuffix@Cord@absl@@QAEXI@Z
    ?RemoveSuffix@CordRepRing@cord_internal@absl@@SAPAV123@PAV123@II@Z
    ?RepToPointer@Status@absl@@CAPAUStatusRep@status_internal@2@I@Z
    ?Reset@?$AllocationTransaction@V?$allocator@H@__1@std@@@inlined_vector_internal@absl@@QAEXXZ
    ?Reset@?$AllocationTransaction@V?$allocator@PAUCordRep@cord_internal@absl@@@__1@std@@@inlined_vector_internal@absl@@QAEXXZ
    ?Reset@?$AllocationTransaction@V?$allocator@PBUCordRep@cord_internal@absl@@@__1@std@@@inlined_vector_internal@absl@@QAEXXZ
    ?Reset@?$AllocationTransaction@V?$allocator@UPayload@status_internal@absl@@@__1@std@@@inlined_vector_internal@absl@@QAEXXZ
    ?Reset@?$AllocationTransaction@V?$allocator@USubRange@absl@@@__1@std@@@inlined_vector_internal@absl@@QAEXXZ
    ?ResetToBuiltinUTC@TimeZoneInfo@cctz@time_internal@absl@@AAE_NABV?$duration@_JV?$ratio@$00$00@__1@std@@@chrono@__1@std@@@Z
    ?ResetToEmpty@InlineRep@Cord@absl@@AAEXXZ
    ?Resize@?$ResizeUninitializedTraits@V?$basic_string@DU?$char_traits@D@__1@std@@V?$allocator@D@23@@__1@std@@X@strings_internal@absl@@SAXPAV?$basic_string@DU?$char_traits@D@__1@std@@V?$allocator@D@23@@__1@std@@I@Z
    ?ResourceExhaustedError@absl@@YA?AVStatus@1@Vstring_view@1@@Z
    ?Rethrow@variant_internal@absl@@YAXXZ
    ?ReverseConsume@cord_internal@absl@@YAXPAUCordRep@12@V?$FunctionRef@$$A6AXPAUCordRep@cord_internal@absl@@II@Z@2@@Z
    ?RoundUp@cord_internal@absl@@YAIII@Z
    ?RoundUpForTag@cord_internal@absl@@YAII@Z
    ?SafeToDelete@CordzHandle@cord_internal@absl@@QBE_NXZ
    ?SafeWriteToStderr@raw_logging_internal@absl@@YAXPBDI@Z
    ?SampleSlow@container_internal@absl@@YAPAUHashtablezInfo@12@PA_J@Z
    ?Seek@CordRepBtreeNavigator@cord_internal@absl@@QAE?AUPosition@123@I@Z
    ?Seek@CordRepBtreeReader@cord_internal@absl@@QAE?AVstring_view@3@I@Z
    ?SetAllocatedData@?$Storage@H$0CP@V?$allocator@H@__1@std@@@inlined_vector_internal@absl@@QAEXPAHI@Z
    ?SetAllocatedData@?$Storage@PAUCordRep@cord_internal@absl@@$01V?$allocator@PAUCordRep@cord_internal@absl@@@__1@std@@@inlined_vector_internal@absl@@QAEXPAPAUCordRep@cord_internal@3@I@Z
    ?SetAllocatedData@?$Storage@PAUCordRep@cord_internal@absl@@$0CP@V?$allocator@PAUCordRep@cord_internal@absl@@@__1@std@@@inlined_vector_internal@absl@@QAEXPAPAUCordRep@cord_internal@3@I@Z
    ?SetAllocatedData@?$Storage@PBUCordRep@cord_internal@absl@@$0CP@V?$allocator@PBUCordRep@cord_internal@absl@@@__1@std@@@inlined_vector_internal@absl@@QAEXPAPBUCordRep@cord_internal@3@I@Z
    ?SetAllocatedData@?$Storage@UPayload@status_internal@absl@@$00V?$allocator@UPayload@status_internal@absl@@@__1@std@@@inlined_vector_internal@absl@@QAEXPAUPayload@status_internal@3@I@Z
    ?SetAllocatedData@?$Storage@USubRange@absl@@$0CP@V?$allocator@USubRange@absl@@@__1@std@@@inlined_vector_internal@absl@@QAEXPAUSubRange@3@I@Z
    ?SetCapacityForTesting@CordRepRing@cord_internal@absl@@QAEXI@Z
    ?SetConversionChar@FormatConversionSpecImplFriend@str_format_internal@absl@@SAXW4FormatConversionChar@3@PAVFormatConversionSpecImpl@23@@Z
    ?SetCordRep@CordzInfo@cord_internal@absl@@QAEXPAUCordRep@23@@Z
    ?SetCordRep@CordzUpdateScope@cord_internal@absl@@QBEXPAUCordRep@23@@Z
    ?SetCurrentThreadIdentity@base_internal@absl@@YAXPAUThreadIdentity@12@P6AXPAX@Z@Z
    ?SetDisposeCallback@HashtablezSampler@container_internal@absl@@QAEP6AXABUHashtablezInfo@23@@ZP6AX0@Z@Z
    ?SetFlags@FormatConversionSpecImplFriend@str_format_internal@absl@@SAXW4Flags@23@PAVFormatConversionSpecImpl@23@@Z
    ?SetHashtablezEnabled@container_internal@absl@@YAX_N@Z
    ?SetHashtablezMaxSamples@container_internal@absl@@YAXH@Z
    ?SetHashtablezSampleParameter@container_internal@absl@@YAXH@Z
    ?SetIsAllocated@?$Storage@H$0CP@V?$allocator@H@__1@std@@@inlined_vector_internal@absl@@QAEXXZ
    ?SetIsAllocated@?$Storage@PAUCordRep@cord_internal@absl@@$01V?$allocator@PAUCordRep@cord_internal@absl@@@__1@std@@@inlined_vector_internal@absl@@QAEXXZ
    ?SetIsAllocated@?$Storage@PAUCordRep@cord_internal@absl@@$0CP@V?$allocator@PAUCordRep@cord_internal@absl@@@__1@std@@@inlined_vector_internal@absl@@QAEXXZ
    ?SetIsAllocated@?$Storage@PBUCordRep@cord_internal@absl@@$0CP@V?$allocator@PBUCordRep@cord_internal@absl@@@__1@std@@@inlined_vector_internal@absl@@QAEXXZ
    ?SetIsAllocated@?$Storage@UPayload@status_internal@absl@@$00V?$allocator@UPayload@status_internal@absl@@@__1@std@@@inlined_vector_internal@absl@@QAEXXZ
    ?SetIsAllocated@?$Storage@USubRange@absl@@$0CP@V?$allocator@USubRange@absl@@@__1@std@@@inlined_vector_internal@absl@@QAEXXZ
    ?SetMutexDeadlockDetectionMode@absl@@YAXW4OnDeadlockCycle@1@@Z
    ?SetPayload@Status@absl@@QAEXVstring_view@2@VCord@2@@Z
    ?SetPrecision@FormatConversionSpecImplFriend@str_format_internal@absl@@SAXHPAVFormatConversionSpecImpl@23@@Z
    ?SetStackUnwinder@absl@@YAXP6AHPAPAXPAHHHPBX1@Z@Z
    ?SetStatusPayloadPrinter@status_internal@absl@@YAXP6A?AV?$optional@V?$basic_string@DU?$char_traits@D@__1@std@@V?$allocator@D@23@@__1@std@@@2@Vstring_view@2@ABVCord@2@@Z@Z
    ?SetThreadBlockedCounter@PerThreadSem@synchronization_internal@absl@@SAXPAU?$atomic@H@__1@std@@@Z
    ?SetToZero@?$BigUnsigned@$03@strings_internal@absl@@QAEXXZ
    ?SetToZero@?$BigUnsigned@$0FE@@strings_internal@absl@@QAEXXZ
    ?SetTree@InlineRep@Cord@absl@@QAEXPAUCordRep@cord_internal@3@ABVCordzUpdateScope@53@@Z
    ?SetTreeOrEmpty@InlineRep@Cord@absl@@QAEXPAUCordRep@cord_internal@3@ABVCordzUpdateScope@53@@Z
    ?SetValue@?$Manager@H$01@FormatArgImpl@str_format_internal@absl@@SA?ATData@234@ABH@Z
    ?SetWidth@FormatConversionSpecImplFriend@str_format_internal@absl@@SAXHPAVFormatConversionSpecImpl@23@@Z
    ?ShiftLeft@?$BigUnsigned@$03@strings_internal@absl@@QAEXH@Z
    ?ShiftLeft@?$BigUnsigned@$0FE@@strings_internal@absl@@QAEXH@Z
    ?ShouldInsertBackwards@container_internal@absl@@YA_NIPBW4ctrl_t@12@@Z
    ?Signal@CondVar@absl@@QAEXXZ
    ?SignalAll@CondVar@absl@@QAEXXZ
    ?SimpleAtob@absl@@YA_NVstring_view@1@PA_N@Z
    ?SimpleAtod@absl@@YA_NVstring_view@1@PAN@Z
    ?SimpleAtof@absl@@YA_NVstring_view@1@PAM@Z
    ?SixDigitsToBuffer@numbers_internal@absl@@YAINPAD@Z
    ?SizeofCordRepConcat@CordTestAccess@strings_internal@absl@@SAIXZ
    ?SizeofCordRepExternal@CordTestAccess@strings_internal@absl@@SAIXZ
    ?SizeofCordRepSubstring@CordTestAccess@strings_internal@absl@@SAIXZ
    ?Skip@CordRepBtreeNavigator@cord_internal@absl@@QAE?AUPosition@123@I@Z
    ?SleepFor@absl@@YAXVDuration@1@@Z
    ?SlowLock@SpinLock@base_internal@absl@@AAEXXZ
    ?SlowUnlock@SpinLock@base_internal@absl@@AAEXI@Z
    ?SmallMemmove@cord_internal@absl@@YAXPADPBDI_N@Z
    ?SnprintF@str_format_internal@absl@@YAHPADIVUntypedFormatSpecImpl@12@V?$Span@$$CBVFormatArgImpl@str_format_internal@absl@@@2@@Z
    ?SpinLockDelay@base_internal@absl@@YAXPAU?$atomic@I@__1@std@@IHW4SchedulingMode@12@@Z
    ?SpinLockSuggestedDelayNS@base_internal@absl@@YAHH@Z
    ?SpinLockWait@base_internal@absl@@YAIPAU?$atomic@I@__1@std@@HQBUSpinLockWaitTransition@12@W4SchedulingMode@12@@Z
    ?SpinLockWake@base_internal@absl@@YAXPAU?$atomic@I@__1@std@@_N@Z
    ?SpinLoop@SpinLock@base_internal@absl@@AAEIXZ
    ?StackTraceWorksForTest@debugging_internal@absl@@YA_NXZ
    ?StartsWith@absl@@YA_NVstring_view@1@0@Z
    ?StartsWithIgnoreCase@absl@@YA_NVstring_view@1@0@Z
    ?StatusCodeToString@absl@@YA?AV?$basic_string@DU?$char_traits@D@__1@std@@V?$allocator@D@23@@__1@std@@W4StatusCode@1@@Z
    ?Store@?$AtomicHook@P6A?AV?$optional@V?$basic_string@DU?$char_traits@D@__1@std@@V?$allocator@D@23@@__1@std@@@absl@@Vstring_view@2@ABVCord@2@@Z@base_internal@absl@@QAEXP6A?AV?$optional@V?$basic_string@DU?$char_traits@D@__1@std@@V?$allocator@D@23@@__1@std@@@3@Vstring_view@3@ABVCord@3@@Z@Z
    ?Store@?$AtomicHook@P6AXPBDH000@Z@base_internal@absl@@QAEXP6AXPBDH000@Z@Z
    ?Store@?$AtomicHook@P6AXPBDPBX@Z@base_internal@absl@@QAEXP6AXPBDPBX@Z@Z
    ?Store@?$AtomicHook@P6AXPBDPBX_J@Z@base_internal@absl@@QAEXP6AXPBDPBX_J@Z@Z
    ?Store@?$AtomicHook@P6AXPBX_J@Z@base_internal@absl@@QAEXP6AXPBX_J@Z@Z
    ?Store@?$AtomicHook@P6AXW4LogSeverity@absl@@PBDHABV?$basic_string@DU?$char_traits@D@__1@std@@V?$allocator@D@23@@__1@std@@@Z@base_internal@absl@@QAEXP6AXW4LogSeverity@3@PBDHABV?$basic_string@DU?$char_traits@D@__1@std@@V?$allocator@D@23@@__1@std@@@Z@Z
    ?Store@?$AtomicHook@P6AX_J@Z@base_internal@absl@@QAEXP6AX_J@Z@Z
    ?Store@?$AtomicHook@P6A_NPBXPADH@Z@base_internal@absl@@QAEXP6A_NPBXPADH@Z@Z
    ?Store@?$AtomicHook@P6A_NW4LogSeverity@absl@@PBDHPAPADPAH@Z@base_internal@absl@@QAEXP6A_NW4LogSeverity@3@PBDHPAPADPAH@Z@Z
    ?StrAppend@absl@@YAXPAV?$basic_string@DU?$char_traits@D@__1@std@@V?$allocator@D@23@@__1@std@@ABVAlphaNum@1@111@Z
    ?StrAppend@absl@@YAXPAV?$basic_string@DU?$char_traits@D@__1@std@@V?$allocator@D@23@@__1@std@@ABVAlphaNum@1@11@Z
    ?StrAppend@absl@@YAXPAV?$basic_string@DU?$char_traits@D@__1@std@@V?$allocator@D@23@@__1@std@@ABVAlphaNum@1@1@Z
    ?StrAppend@absl@@YAXPAV?$basic_string@DU?$char_traits@D@__1@std@@V?$allocator@D@23@@__1@std@@ABVAlphaNum@1@@Z
    ?StrCat@absl@@YA?AV?$basic_string@DU?$char_traits@D@__1@std@@V?$allocator@D@23@@__1@std@@ABVAlphaNum@1@000@Z
    ?StrCat@absl@@YA?AV?$basic_string@DU?$char_traits@D@__1@std@@V?$allocator@D@23@@__1@std@@ABVAlphaNum@1@00@Z
    ?StrCat@absl@@YA?AV?$basic_string@DU?$char_traits@D@__1@std@@V?$allocator@D@23@@__1@std@@ABVAlphaNum@1@0@Z
    ?StrCat@absl@@YA?AV?$basic_string@DU?$char_traits@D@__1@std@@V?$allocator@D@23@@__1@std@@ABVAlphaNum@1@@Z
    ?StrReplaceAll@absl@@YA?AV?$basic_string@DU?$char_traits@D@__1@std@@V?$allocator@D@23@@__1@std@@Vstring_view@1@V?$initializer_list@U?$pair@Vstring_view@absl@@V12@@__1@std@@@4@@Z
    ?StrReplaceAll@absl@@YAHV?$initializer_list@U?$pair@Vstring_view@absl@@V12@@__1@std@@@std@@PAV?$basic_string@DU?$char_traits@D@__1@std@@V?$allocator@D@23@@__1@3@@Z
    ?StripAsciiWhitespace@absl@@YA?AVstring_view@1@V21@@Z
    ?StripLeadingAsciiWhitespace@absl@@YA?AVstring_view@1@V21@@Z
    ?StripTrailingAsciiWhitespace@absl@@YA?AVstring_view@1@V21@@Z
    ?StrlenInternal@string_view@absl@@CAIPBD@Z
    ?SubLength@CordRepRing@cord_internal@absl@@AAEXII@Z
    ?SubRing@CordRepRing@cord_internal@absl@@SAPAV123@PAV123@III@Z
    ?SubTree@CordRepBtree@cord_internal@absl@@QAEPAUCordRep@23@II@Z
    ?Subcord@Cord@absl@@QBE?AV12@II@Z
    ?SubstituteAndAppendArray@substitute_internal@absl@@YAXPAV?$basic_string@DU?$char_traits@D@__1@std@@V?$allocator@D@23@@__1@std@@Vstring_view@2@PBV62@I@Z
    ?SubtractSize@?$Storage@H$0CP@V?$allocator@H@__1@std@@@inlined_vector_internal@absl@@QAEXI@Z
    ?SubtractSize@?$Storage@PAUCordRep@cord_internal@absl@@$01V?$allocator@PAUCordRep@cord_internal@absl@@@__1@std@@@inlined_vector_internal@absl@@QAEXI@Z
    ?SubtractSize@?$Storage@PAUCordRep@cord_internal@absl@@$0CP@V?$allocator@PAUCordRep@cord_internal@absl@@@__1@std@@@inlined_vector_internal@absl@@QAEXI@Z
    ?SubtractSize@?$Storage@PBUCordRep@cord_internal@absl@@$0CP@V?$allocator@PBUCordRep@cord_internal@absl@@@__1@std@@@inlined_vector_internal@absl@@QAEXI@Z
    ?SubtractSize@?$Storage@UPayload@status_internal@absl@@$00V?$allocator@UPayload@status_internal@absl@@@__1@std@@@inlined_vector_internal@absl@@QAEXI@Z
    ?SubtractSize@?$Storage@USubRange@absl@@$0CP@V?$allocator@USubRange@absl@@@__1@std@@@inlined_vector_internal@absl@@QAEXI@Z
    ?Summarize@str_format_internal@absl@@YA?AV?$basic_string@DU?$char_traits@D@__1@std@@V?$allocator@D@23@@__1@std@@VUntypedFormatSpecImpl@12@V?$Span@$$CBVFormatArgImpl@str_format_internal@absl@@@2@@Z
    ?Symbolize@absl@@YA_NPBXPADH@Z
    ?TagToAllocatedSize@cord_internal@absl@@YAIE@Z
    ?TagToLength@cord_internal@absl@@YAIE@Z
    ?TakeRep@Cord@absl@@AGBEPAUCordRep@cord_internal@2@XZ
    ?TakeRep@Cord@absl@@AHAEPAUCordRep@cord_internal@2@XZ
    ?ThrowBadStatusOrAccess@internal_statusor@absl@@YAXVStatus@2@@Z
    ?ThrowBadVariantAccess@variant_internal@absl@@YAXXZ
    ?ThrowStdBadAlloc@base_internal@absl@@YAXXZ
    ?ThrowStdBadFunctionCall@base_internal@absl@@YAXXZ
    ?ThrowStdDomainError@base_internal@absl@@YAXABV?$basic_string@DU?$char_traits@D@__1@std@@V?$allocator@D@23@@__1@std@@@Z
    ?ThrowStdDomainError@base_internal@absl@@YAXPBD@Z
    ?ThrowStdInvalidArgument@base_internal@absl@@YAXABV?$basic_string@DU?$char_traits@D@__1@std@@V?$allocator@D@23@@__1@std@@@Z
    ?ThrowStdInvalidArgument@base_internal@absl@@YAXPBD@Z
    ?ThrowStdLengthError@base_internal@absl@@YAXABV?$basic_string@DU?$char_traits@D@__1@std@@V?$allocator@D@23@@__1@std@@@Z
    ?ThrowStdLengthError@base_internal@absl@@YAXPBD@Z
    ?ThrowStdLogicError@base_internal@absl@@YAXABV?$basic_string@DU?$char_traits@D@__1@std@@V?$allocator@D@23@@__1@std@@@Z
    ?ThrowStdLogicError@base_internal@absl@@YAXPBD@Z
    ?ThrowStdOutOfRange@base_internal@absl@@YAXABV?$basic_string@DU?$char_traits@D@__1@std@@V?$allocator@D@23@@__1@std@@@Z
    ?ThrowStdOutOfRange@base_internal@absl@@YAXPBD@Z
    ?ThrowStdOverflowError@base_internal@absl@@YAXABV?$basic_string@DU?$char_traits@D@__1@std@@V?$allocator@D@23@@__1@std@@@Z
    ?ThrowStdOverflowError@base_internal@absl@@YAXPBD@Z
    ?ThrowStdRangeError@base_internal@absl@@YAXABV?$basic_string@DU?$char_traits@D@__1@std@@V?$allocator@D@23@@__1@std@@@Z
    ?ThrowStdRangeError@base_internal@absl@@YAXPBD@Z
    ?ThrowStdRuntimeError@base_internal@absl@@YAXABV?$basic_string@DU?$char_traits@D@__1@std@@V?$allocator@D@23@@__1@std@@@Z
    ?ThrowStdRuntimeError@base_internal@absl@@YAXPBD@Z
    ?ThrowStdUnderflowError@base_internal@absl@@YAXABV?$basic_string@DU?$char_traits@D@__1@std@@V?$allocator@D@23@@__1@std@@@Z
    ?ThrowStdUnderflowError@base_internal@absl@@YAXPBD@Z
    ?Tick@PerThreadSem@synchronization_internal@absl@@SAXPAUThreadIdentity@base_internal@3@@Z
    ?TimeFromTimespec@absl@@YA?AVTime@1@Utimespec@@@Z
    ?TimeFromTimeval@absl@@YA?AVTime@1@Utimeval@@@Z
    ?TimeLocal@TimeZoneInfo@cctz@time_internal@absl@@ABE?AUcivil_lookup@time_zone@234@ABV?$civil_time@Usecond_tag@detail@cctz@time_internal@absl@@@detail@234@_J@Z
    ?ToChronoHours@absl@@YA?AV?$duration@JV?$ratio@$0OBA@$00@__1@std@@@chrono@__1@std@@VDuration@1@@Z
    ?ToChronoMicroseconds@absl@@YA?AV?$duration@_JV?$ratio@$00$0PECEA@@__1@std@@@chrono@__1@std@@VDuration@1@@Z
    ?ToChronoMilliseconds@absl@@YA?AV?$duration@_JV?$ratio@$00$0DOI@@__1@std@@@chrono@__1@std@@VDuration@1@@Z
    ?ToChronoMinutes@absl@@YA?AV?$duration@JV?$ratio@$0DM@$00@__1@std@@@chrono@__1@std@@VDuration@1@@Z
    ?ToChronoNanoseconds@absl@@YA?AV?$duration@_JV?$ratio@$00$0DLJKMKAA@@__1@std@@@chrono@__1@std@@VDuration@1@@Z
    ?ToChronoSeconds@absl@@YA?AV?$duration@_JV?$ratio@$00$00@__1@std@@@chrono@__1@std@@VDuration@1@@Z
    ?ToChronoTime@absl@@YA?AV?$time_point@Vsystem_clock@chrono@__1@std@@V?$duration@_JV?$ratio@$00$0PECEA@@__1@std@@@234@@chrono@__1@std@@VTime@1@@Z
    ?ToCivilSecond@absl@@YA?AV?$civil_time@Usecond_tag@time_internal@absl@@@detail@cctz@time_internal@1@VTime@1@VTimeZone@1@@Z
    ?ToDoubleHours@absl@@YANVDuration@1@@Z
    ?ToDoubleMicroseconds@absl@@YANVDuration@1@@Z
    ?ToDoubleMilliseconds@absl@@YANVDuration@1@@Z
    ?ToDoubleMinutes@absl@@YANVDuration@1@@Z
    ?ToDoubleNanoseconds@absl@@YANVDuration@1@@Z
    ?ToDoubleSeconds@absl@@YANVDuration@1@@Z
    ?ToHost16@big_endian@absl@@YAGG@Z
    ?ToHost32@big_endian@absl@@YAII@Z
    ?ToHost64@big_endian@absl@@YA_K_K@Z
    ?ToInt64@time_internal@absl@@YA_JVDuration@2@V?$ratio@$00$00@__1@std@@@Z
    ?ToInt64@time_internal@absl@@YA_JVDuration@2@V?$ratio@$00$0DLJKMKAA@@__1@std@@@Z
    ?ToInt64@time_internal@absl@@YA_JVDuration@2@V?$ratio@$00$0DOI@@__1@std@@@Z
    ?ToInt64@time_internal@absl@@YA_JVDuration@2@V?$ratio@$00$0PECEA@@__1@std@@@Z
    ?ToInt64@time_internal@absl@@YA_JVDuration@2@V?$ratio@$0DM@$00@__1@std@@@Z
    ?ToInt64@time_internal@absl@@YA_JVDuration@2@V?$ratio@$0OBA@$00@__1@std@@@Z
    ?ToInt64Hours@absl@@YA_JVDuration@1@@Z
    ?ToInt64Microseconds@absl@@YA_JVDuration@1@@Z
    ?ToInt64Milliseconds@absl@@YA_JVDuration@1@@Z
    ?ToInt64Minutes@absl@@YA_JVDuration@1@@Z
    ?ToInt64Nanoseconds@absl@@YA_JVDuration@1@@Z
    ?ToInt64Seconds@absl@@YA_JVDuration@1@@Z
    ?ToOpResult@CordRepBtree@cord_internal@absl@@AAE?AUOpResult@123@_N@Z
    ?ToString@?$BigUnsigned@$03@strings_internal@absl@@QBE?AV?$basic_string@DU?$char_traits@D@__1@std@@V?$allocator@D@23@@__1@std@@XZ
    ?ToString@?$BigUnsigned@$0FE@@strings_internal@absl@@QBE?AV?$basic_string@DU?$char_traits@D@__1@std@@V?$allocator@D@23@@__1@std@@XZ
    ?ToString@Status@absl@@QBE?AV?$basic_string@DU?$char_traits@D@__1@std@@V?$allocator@D@23@@__1@std@@W4StatusToStringMode@2@@Z
    ?ToStringSlow@Status@absl@@ABE?AV?$basic_string@DU?$char_traits@D@__1@std@@V?$allocator@D@23@@__1@std@@W4StatusToStringMode@2@@Z
    ?ToTM@absl@@YA?AUtm@@VTime@1@VTimeZone@1@@Z
    ?ToTimeT@absl@@YA_JVTime@1@@Z
    ?ToTimespec@absl@@YA?AUtimespec@@VDuration@1@@Z
    ?ToTimespec@absl@@YA?AUtimespec@@VTime@1@@Z
    ?ToTimeval@absl@@YA?AUtimeval@@VDuration@1@@Z
    ?ToTimeval@absl@@YA?AUtimeval@@VTime@1@@Z
    ?ToUDate@absl@@YANVTime@1@@Z
    ?ToUniversal@absl@@YA_JVTime@1@@Z
    ?ToUnixDuration@time_internal@absl@@YA?AVDuration@2@VTime@2@@Z
    ?ToUnixMicros@absl@@YA_JVTime@1@@Z
    ?ToUnixMillis@absl@@YA_JVTime@1@@Z
    ?ToUnixNanos@absl@@YA_JVTime@1@@Z
    ?ToUnixSeconds@absl@@YA_JVTime@1@@Z
    ?ToUnixSeconds@cctz@time_internal@absl@@YA_JABV?$time_point@Vsystem_clock@chrono@__1@std@@V?$duration@_JV?$ratio@$00$00@__1@std@@@234@@chrono@__1@std@@@Z
    ?Track@CordzInfo@cord_internal@absl@@AAEXXZ
    ?TrackCord@CordzInfo@cord_internal@absl@@SAXAAVInlineData@23@ABV423@W4MethodIdentifier@CordzUpdateTracker@23@@Z
    ?TrackCord@CordzInfo@cord_internal@absl@@SAXAAVInlineData@23@W4MethodIdentifier@CordzUpdateTracker@23@@Z
    ?Trans@Mutex@absl@@AAEXPBUMuHowS@2@@Z
    ?Trunc@absl@@YA?AVDuration@1@V21@0@Z
    ?TryLock@Mutex@absl@@QAE_NXZ
    ?TryLockImpl@SpinLock@base_internal@absl@@AAE_NXZ
    ?TryLockInternal@SpinLock@base_internal@absl@@AAEIII@Z
    ?TryRemove@Mutex@absl@@AAEXPAUPerThreadSynch@base_internal@2@@Z
    ?UTC@Impl@time_zone@cctz@time_internal@absl@@SA?AV2345@XZ
    ?UTCImpl@Impl@time_zone@cctz@time_internal@absl@@CAPBV12345@XZ
    ?UTCTimeZone@absl@@YA?AVTimeZone@1@XZ
    ?Uint128High64@absl@@YA_KVuint128@1@@Z
    ?Uint128Low64@absl@@YA_KVuint128@1@@Z
    ?Uint128Max@absl@@YA?AVuint128@1@XZ
    ?UnalignedLoad16@base_internal@absl@@YAGPBX@Z
    ?UnalignedLoad32@base_internal@absl@@YAIPBX@Z
    ?UnalignedLoad64@base_internal@absl@@YA_KPBX@Z
    ?UnauthenticatedError@absl@@YA?AVStatus@1@Vstring_view@1@@Z
    ?UnavailableError@absl@@YA?AVStatus@1@Vstring_view@1@@Z
    ?UnimplementedError@absl@@YA?AVStatus@1@Vstring_view@1@@Z
    ?UniversalEpoch@absl@@YA?AVTime@1@XZ
    ?UnknownError@absl@@YA?AVStatus@1@Vstring_view@1@@Z
    ?Unlock@CordzInfo@cord_internal@absl@@QAEXXZ
    ?Unlock@Mutex@absl@@QAEXXZ
    ?Unlock@SpinLock@base_internal@absl@@QAEXXZ
    ?UnlockSlow@Mutex@absl@@AAEXPAUSynchWaitParams@2@@Z
    ?UnparseFlag@absl@@YA?AV?$basic_string@DU?$char_traits@D@__1@std@@V?$allocator@D@23@@__1@std@@VDuration@1@@Z
    ?UnparseFlag@absl@@YA?AV?$basic_string@DU?$char_traits@D@__1@std@@V?$allocator@D@23@@__1@std@@VTime@1@@Z
    ?Unref@CordRep@cord_internal@absl@@SAXPAU123@@Z
    ?Unref@Status@absl@@CAXI@Z
    ?UnrefNonInlined@Status@absl@@CAXI@Z
    ?UnrefTree@InlineRep@Cord@absl@@AAEXXZ
    ?Unregister@HashtablezSampler@container_internal@absl@@QAEXPAUHashtablezInfo@23@@Z
    ?UnsafeSetCordRep@CordzInfo@cord_internal@absl@@AAEXPAUCordRep@23@@Z
    ?UnsampleSlow@container_internal@absl@@YAXPAUHashtablezInfo@12@@Z
    ?Untrack@CordzInfo@cord_internal@absl@@QAEXXZ
    ?UpdateStackTrace@GraphCycles@synchronization_internal@absl@@QAEXUGraphId@23@HP6AHPAPAXH@Z@Z
    ?UsingInlinedStorage@Storage@?$FixedArray@PAUCordRep@cord_internal@absl@@$0PPPPPPPP@V?$allocator@PAUCordRep@cord_internal@absl@@@__1@std@@@absl@@CA_NI@Z
    ?Utf8SafeCEscape@absl@@YA?AV?$basic_string@DU?$char_traits@D@__1@std@@V?$allocator@D@23@@__1@std@@Vstring_view@1@@Z
    ?Utf8SafeCHexEscape@absl@@YA?AV?$basic_string@DU?$char_traits@D@__1@std@@V?$allocator@D@23@@__1@std@@Vstring_view@1@@Z
    ?Validate@CordRepRing@cord_internal@absl@@CAPAV123@PAV123@PBDH@Z
    ?Value@?$Manager@C$01@FormatArgImpl@str_format_internal@absl@@SACTData@234@@Z
    ?Value@?$Manager@D$01@FormatArgImpl@str_format_internal@absl@@SADTData@234@@Z
    ?Value@?$Manager@E$01@FormatArgImpl@str_format_internal@absl@@SAETData@234@@Z
    ?Value@?$Manager@F$01@FormatArgImpl@str_format_internal@absl@@SAFTData@234@@Z
    ?Value@?$Manager@G$01@FormatArgImpl@str_format_internal@absl@@SAGTData@234@@Z
    ?Value@?$Manager@H$01@FormatArgImpl@str_format_internal@absl@@SAHTData@234@@Z
    ?Value@?$Manager@I$01@FormatArgImpl@str_format_internal@absl@@SAITData@234@@Z
    ?Value@?$Manager@J$01@FormatArgImpl@str_format_internal@absl@@SAJTData@234@@Z
    ?Value@?$Manager@K$01@FormatArgImpl@str_format_internal@absl@@SAKTData@234@@Z
    ?Value@?$Manager@M$01@FormatArgImpl@str_format_internal@absl@@SAMTData@234@@Z
    ?Value@?$Manager@N$01@FormatArgImpl@str_format_internal@absl@@SANTData@234@@Z
    ?Value@?$Manager@O$01@FormatArgImpl@str_format_internal@absl@@SAOTData@234@@Z
    ?Value@?$Manager@PBD$01@FormatArgImpl@str_format_internal@absl@@SAPBDTData@234@@Z
    ?Value@?$Manager@UVoidPtr@str_format_internal@absl@@$01@FormatArgImpl@str_format_internal@absl@@SA?AUVoidPtr@34@TData@234@@Z
    ?Value@?$Manager@V?$basic_string@DU?$char_traits@D@__1@std@@V?$allocator@D@23@@__1@std@@$0A@@FormatArgImpl@str_format_internal@absl@@SAABV?$basic_string@DU?$char_traits@D@__1@std@@V?$allocator@D@23@@__1@std@@TData@234@@Z
    ?Value@?$Manager@Vint128@absl@@$0A@@FormatArgImpl@str_format_internal@absl@@SAABVint128@4@TData@234@@Z
    ?Value@?$Manager@Vstring_view@absl@@$0A@@FormatArgImpl@str_format_internal@absl@@SAABVstring_view@4@TData@234@@Z
    ?Value@?$Manager@Vuint128@absl@@$0A@@FormatArgImpl@str_format_internal@absl@@SAABVuint128@4@TData@234@@Z
    ?Value@?$Manager@_J$01@FormatArgImpl@str_format_internal@absl@@SA_JTData@234@@Z
    ?Value@?$Manager@_K$01@FormatArgImpl@str_format_internal@absl@@SA_KTData@234@@Z
    ?Value@?$Manager@_N$01@FormatArgImpl@str_format_internal@absl@@SA_NTData@234@@Z
    ?Value@CordzUpdateTracker@cord_internal@absl@@QBE_JW4MethodIdentifier@123@@Z
    ?Version@Impl@time_zone@cctz@time_internal@absl@@QBE?AV?$basic_string@DU?$char_traits@D@__1@std@@V?$allocator@D@23@@__1@std@@XZ
    ?Version@TimeZoneInfo@cctz@time_internal@absl@@UBE?AV?$basic_string@DU?$char_traits@D@__1@std@@V?$allocator@D@23@@__1@std@@XZ
    ?Version@TimeZoneLibC@cctz@time_internal@absl@@UBE?AV?$basic_string@DU?$char_traits@D@__1@std@@V?$allocator@D@23@@__1@std@@XZ
    ?Version@ZoneInfoSource@cctz@time_internal@absl@@UBE?AV?$basic_string@DU?$char_traits@D@__1@std@@V?$allocator@D@23@@__1@std@@XZ
    ?Wait@BlockingCounter@absl@@QAEXXZ
    ?Wait@CondVar@absl@@QAEXPAVMutex@2@@Z
    ?Wait@PerThreadSem@synchronization_internal@absl@@CA_NVKernelTimeout@23@@Z
    ?Wait@Waiter@synchronization_internal@absl@@QAE_NVKernelTimeout@23@@Z
    ?WaitCommon@CondVar@absl@@AAE_NPAVMutex@2@VKernelTimeout@synchronization_internal@2@@Z
    ?WaitForNotification@Notification@absl@@QBEXXZ
    ?WaitForNotificationWithDeadline@Notification@absl@@QBE_NVTime@2@@Z
    ?WaitForNotificationWithTimeout@Notification@absl@@QBE_NVDuration@2@@Z
    ?WaitWithDeadline@CondVar@absl@@QAE_NPAVMutex@2@VTime@2@@Z
    ?WaitWithTimeout@CondVar@absl@@QAE_NPAVMutex@2@VDuration@2@@Z
    ?Wakeup@CondVar@absl@@AAEXPAUPerThreadSynch@base_internal@2@@Z
    ?Wakeup@Mutex@absl@@AAEPAUPerThreadSynch@base_internal@2@PAU342@@Z
    ?WebSafeBase64Escape@absl@@YA?AV?$basic_string@DU?$char_traits@D@__1@std@@V?$allocator@D@23@@__1@std@@Vstring_view@1@@Z
    ?WebSafeBase64Escape@absl@@YAXVstring_view@1@PAV?$basic_string@DU?$char_traits@D@__1@std@@V?$allocator@D@23@@__1@std@@@Z
    ?WebSafeBase64Unescape@absl@@YA_NVstring_view@1@PAV?$basic_string@DU?$char_traits@D@__1@std@@V?$allocator@D@23@@__1@std@@@Z
    ?Write@BufferRawSink@str_format_internal@absl@@QAEXVstring_view@3@@Z
    ?Write@FILERawSink@str_format_internal@absl@@QAEXVstring_view@3@@Z
    ?Write@FormatRawSinkImpl@str_format_internal@absl@@QAEXVstring_view@3@@Z
    ?ZeroDuration@absl@@YA?AVDuration@1@XZ
    ?__add_back_capacity@?$deque@PBVImpl@time_zone@cctz@time_internal@absl@@V?$allocator@PBVImpl@time_zone@cctz@time_internal@absl@@@__1@std@@@__1@std@@AAEXXZ
    ?__addr@?$__temp_value@UTransition@cctz@time_internal@absl@@V?$allocator@UTransition@cctz@time_internal@absl@@@__1@std@@@__1@std@@QAEPAUTransition@cctz@time_internal@absl@@XZ
    ?__addr@?$__temp_value@UTransitionType@cctz@time_internal@absl@@V?$allocator@UTransitionType@cctz@time_internal@absl@@@__1@std@@@__1@std@@QAEPAUTransitionType@cctz@time_internal@absl@@XZ
    ?__alloc@?$__bucket_list_deallocator@V?$allocator@PAU?$__hash_node_base@PAU?$__hash_node@U?$__hash_value_type@V?$basic_string@DU?$char_traits@D@__1@std@@V?$allocator@D@23@@__1@std@@PBVImpl@time_zone@cctz@time_internal@absl@@@__1@std@@PAX@__1@std@@@__1@std@@@__1@std@@@__1@std@@QAEAAV?$allocator@PAU?$__hash_node_base@PAU?$__hash_node@U?$__hash_value_type@V?$basic_string@DU?$char_traits@D@__1@std@@V?$allocator@D@23@@__1@std@@PBVImpl@time_zone@cctz@time_internal@absl@@@__1@std@@PAX@__1@std@@@__1@std@@@23@XZ
    ?__alloc@?$__deque_base@PBVImpl@time_zone@cctz@time_internal@absl@@V?$allocator@PBVImpl@time_zone@cctz@time_internal@absl@@@__1@std@@@__1@std@@IAEAAV?$allocator@PBVImpl@time_zone@cctz@time_internal@absl@@@23@XZ
    ?__alloc@?$__split_buffer@PAPBVImpl@time_zone@cctz@time_internal@absl@@AAV?$allocator@PAPBVImpl@time_zone@cctz@time_internal@absl@@@__1@std@@@__1@std@@QAEAAV?$allocator@PAPBVImpl@time_zone@cctz@time_internal@absl@@@23@XZ
    ?__alloc@?$__split_buffer@PAPBVImpl@time_zone@cctz@time_internal@absl@@V?$allocator@PAPBVImpl@time_zone@cctz@time_internal@absl@@@__1@std@@@__1@std@@QAEAAV?$allocator@PAPBVImpl@time_zone@cctz@time_internal@absl@@@23@XZ
    ?__alloc@?$__split_buffer@PAUCordRep@cord_internal@absl@@AAV?$allocator@PAUCordRep@cord_internal@absl@@@__1@std@@@__1@std@@QAEAAV?$allocator@PAUCordRep@cord_internal@absl@@@23@XZ
    ?__alloc@?$__split_buffer@PAVCordzHandle@cord_internal@absl@@AAV?$allocator@PAVCordzHandle@cord_internal@absl@@@__1@std@@@__1@std@@QAEAAV?$allocator@PAVCordzHandle@cord_internal@absl@@@23@XZ
    ?__alloc@?$__split_buffer@PBVCordzHandle@cord_internal@absl@@AAV?$allocator@PBVCordzHandle@cord_internal@absl@@@__1@std@@@__1@std@@QAEAAV?$allocator@PBVCordzHandle@cord_internal@absl@@@23@XZ
    ?__alloc@?$__split_buffer@UConversionItem@ParsedFormatBase@str_format_internal@absl@@AAV?$allocator@UConversionItem@ParsedFormatBase@str_format_internal@absl@@@__1@std@@@__1@std@@QAEAAV?$allocator@UConversionItem@ParsedFormatBase@str_format_internal@absl@@@23@XZ
    ?__alloc@?$__split_buffer@UTransition@cctz@time_internal@absl@@AAV?$allocator@UTransition@cctz@time_internal@absl@@@__1@std@@@__1@std@@QAEAAV?$allocator@UTransition@cctz@time_internal@absl@@@23@XZ
    ?__alloc@?$__split_buffer@UTransitionType@cctz@time_internal@absl@@AAV?$allocator@UTransitionType@cctz@time_internal@absl@@@__1@std@@@__1@std@@QAEAAV?$allocator@UTransitionType@cctz@time_internal@absl@@@23@XZ
    ?__alloc@?$__split_buffer@UViableSubstitution@strings_internal@absl@@AAV?$allocator@UViableSubstitution@strings_internal@absl@@@__1@std@@@__1@std@@QAEAAV?$allocator@UViableSubstitution@strings_internal@absl@@@23@XZ
    ?__alloc@?$__vector_base@PAUCordRep@cord_internal@absl@@V?$allocator@PAUCordRep@cord_internal@absl@@@__1@std@@@__1@std@@IAEAAV?$allocator@PAUCordRep@cord_internal@absl@@@23@XZ
    ?__alloc@?$__vector_base@PAUCordRep@cord_internal@absl@@V?$allocator@PAUCordRep@cord_internal@absl@@@__1@std@@@__1@std@@IBEABV?$allocator@PAUCordRep@cord_internal@absl@@@23@XZ
    ?__alloc@?$__vector_base@PAVCordzHandle@cord_internal@absl@@V?$allocator@PAVCordzHandle@cord_internal@absl@@@__1@std@@@__1@std@@IAEAAV?$allocator@PAVCordzHandle@cord_internal@absl@@@23@XZ
    ?__alloc@?$__vector_base@PAVCordzHandle@cord_internal@absl@@V?$allocator@PAVCordzHandle@cord_internal@absl@@@__1@std@@@__1@std@@IBEABV?$allocator@PAVCordzHandle@cord_internal@absl@@@23@XZ
    ?__alloc@?$__vector_base@PBVCordzHandle@cord_internal@absl@@V?$allocator@PBVCordzHandle@cord_internal@absl@@@__1@std@@@__1@std@@IAEAAV?$allocator@PBVCordzHandle@cord_internal@absl@@@23@XZ
    ?__alloc@?$__vector_base@PBVCordzHandle@cord_internal@absl@@V?$allocator@PBVCordzHandle@cord_internal@absl@@@__1@std@@@__1@std@@IBEABV?$allocator@PBVCordzHandle@cord_internal@absl@@@23@XZ
    ?__alloc@?$__vector_base@UConversionItem@ParsedFormatBase@str_format_internal@absl@@V?$allocator@UConversionItem@ParsedFormatBase@str_format_internal@absl@@@__1@std@@@__1@std@@IAEAAV?$allocator@UConversionItem@ParsedFormatBase@str_format_internal@absl@@@23@XZ
    ?__alloc@?$__vector_base@UConversionItem@ParsedFormatBase@str_format_internal@absl@@V?$allocator@UConversionItem@ParsedFormatBase@str_format_internal@absl@@@__1@std@@@__1@std@@IBEABV?$allocator@UConversionItem@ParsedFormatBase@str_format_internal@absl@@@23@XZ
    ?__alloc@?$__vector_base@UTransition@cctz@time_internal@absl@@V?$allocator@UTransition@cctz@time_internal@absl@@@__1@std@@@__1@std@@IAEAAV?$allocator@UTransition@cctz@time_internal@absl@@@23@XZ
    ?__alloc@?$__vector_base@UTransition@cctz@time_internal@absl@@V?$allocator@UTransition@cctz@time_internal@absl@@@__1@std@@@__1@std@@IBEABV?$allocator@UTransition@cctz@time_internal@absl@@@23@XZ
    ?__alloc@?$__vector_base@UTransitionType@cctz@time_internal@absl@@V?$allocator@UTransitionType@cctz@time_internal@absl@@@__1@std@@@__1@std@@IAEAAV?$allocator@UTransitionType@cctz@time_internal@absl@@@23@XZ
    ?__alloc@?$__vector_base@UTransitionType@cctz@time_internal@absl@@V?$allocator@UTransitionType@cctz@time_internal@absl@@@__1@std@@@__1@std@@IBEABV?$allocator@UTransitionType@cctz@time_internal@absl@@@23@XZ
    ?__alloc@?$__vector_base@UViableSubstitution@strings_internal@absl@@V?$allocator@UViableSubstitution@strings_internal@absl@@@__1@std@@@__1@std@@IAEAAV?$allocator@UViableSubstitution@strings_internal@absl@@@23@XZ
    ?__alloc@?$__vector_base@UViableSubstitution@strings_internal@absl@@V?$allocator@UViableSubstitution@strings_internal@absl@@@__1@std@@@__1@std@@IBEABV?$allocator@UViableSubstitution@strings_internal@absl@@@23@XZ
    ?__alloc@?$__vector_base@VFormatArgImpl@str_format_internal@absl@@V?$allocator@VFormatArgImpl@str_format_internal@absl@@@__1@std@@@__1@std@@IAEAAV?$allocator@VFormatArgImpl@str_format_internal@absl@@@23@XZ
    ?__alloc@?$__vector_base@VFormatArgImpl@str_format_internal@absl@@V?$allocator@VFormatArgImpl@str_format_internal@absl@@@__1@std@@@__1@std@@IBEABV?$allocator@VFormatArgImpl@str_format_internal@absl@@@23@XZ
    ?__annotate_contiguous_container@?$vector@PAUCordRep@cord_internal@absl@@V?$allocator@PAUCordRep@cord_internal@absl@@@__1@std@@@__1@std@@ABEXPBX000@Z
    ?__annotate_contiguous_container@?$vector@PAVCordzHandle@cord_internal@absl@@V?$allocator@PAVCordzHandle@cord_internal@absl@@@__1@std@@@__1@std@@ABEXPBX000@Z
    ?__annotate_contiguous_container@?$vector@PBVCordzHandle@cord_internal@absl@@V?$allocator@PBVCordzHandle@cord_internal@absl@@@__1@std@@@__1@std@@ABEXPBX000@Z
    ?__annotate_contiguous_container@?$vector@UConversionItem@ParsedFormatBase@str_format_internal@absl@@V?$allocator@UConversionItem@ParsedFormatBase@str_format_internal@absl@@@__1@std@@@__1@std@@ABEXPBX000@Z
    ?__annotate_contiguous_container@?$vector@UTransition@cctz@time_internal@absl@@V?$allocator@UTransition@cctz@time_internal@absl@@@__1@std@@@__1@std@@ABEXPBX000@Z
    ?__annotate_contiguous_container@?$vector@UTransitionType@cctz@time_internal@absl@@V?$allocator@UTransitionType@cctz@time_internal@absl@@@__1@std@@@__1@std@@ABEXPBX000@Z
    ?__annotate_contiguous_container@?$vector@UViableSubstitution@strings_internal@absl@@V?$allocator@UViableSubstitution@strings_internal@absl@@@__1@std@@@__1@std@@ABEXPBX000@Z
    ?__annotate_contiguous_container@?$vector@VFormatArgImpl@str_format_internal@absl@@V?$allocator@VFormatArgImpl@str_format_internal@absl@@@__1@std@@@__1@std@@ABEXPBX000@Z
    ?__annotate_delete@?$vector@PAUCordRep@cord_internal@absl@@V?$allocator@PAUCordRep@cord_internal@absl@@@__1@std@@@__1@std@@ABEXXZ
    ?__annotate_delete@?$vector@PAVCordzHandle@cord_internal@absl@@V?$allocator@PAVCordzHandle@cord_internal@absl@@@__1@std@@@__1@std@@ABEXXZ
    ?__annotate_delete@?$vector@PBVCordzHandle@cord_internal@absl@@V?$allocator@PBVCordzHandle@cord_internal@absl@@@__1@std@@@__1@std@@ABEXXZ
    ?__annotate_delete@?$vector@UConversionItem@ParsedFormatBase@str_format_internal@absl@@V?$allocator@UConversionItem@ParsedFormatBase@str_format_internal@absl@@@__1@std@@@__1@std@@ABEXXZ
    ?__annotate_delete@?$vector@UTransition@cctz@time_internal@absl@@V?$allocator@UTransition@cctz@time_internal@absl@@@__1@std@@@__1@std@@ABEXXZ
    ?__annotate_delete@?$vector@UTransitionType@cctz@time_internal@absl@@V?$allocator@UTransitionType@cctz@time_internal@absl@@@__1@std@@@__1@std@@ABEXXZ
    ?__annotate_delete@?$vector@UViableSubstitution@strings_internal@absl@@V?$allocator@UViableSubstitution@strings_internal@absl@@@__1@std@@@__1@std@@ABEXXZ
    ?__annotate_delete@?$vector@VFormatArgImpl@str_format_internal@absl@@V?$allocator@VFormatArgImpl@str_format_internal@absl@@@__1@std@@@__1@std@@ABEXXZ
    ?__annotate_new@?$vector@PAUCordRep@cord_internal@absl@@V?$allocator@PAUCordRep@cord_internal@absl@@@__1@std@@@__1@std@@ABEXI@Z
    ?__annotate_new@?$vector@PAVCordzHandle@cord_internal@absl@@V?$allocator@PAVCordzHandle@cord_internal@absl@@@__1@std@@@__1@std@@ABEXI@Z
    ?__annotate_new@?$vector@PBVCordzHandle@cord_internal@absl@@V?$allocator@PBVCordzHandle@cord_internal@absl@@@__1@std@@@__1@std@@ABEXI@Z
    ?__annotate_new@?$vector@UConversionItem@ParsedFormatBase@str_format_internal@absl@@V?$allocator@UConversionItem@ParsedFormatBase@str_format_internal@absl@@@__1@std@@@__1@std@@ABEXI@Z
    ?__annotate_new@?$vector@UTransition@cctz@time_internal@absl@@V?$allocator@UTransition@cctz@time_internal@absl@@@__1@std@@@__1@std@@ABEXI@Z
    ?__annotate_new@?$vector@UTransitionType@cctz@time_internal@absl@@V?$allocator@UTransitionType@cctz@time_internal@absl@@@__1@std@@@__1@std@@ABEXI@Z
    ?__annotate_new@?$vector@UViableSubstitution@strings_internal@absl@@V?$allocator@UViableSubstitution@strings_internal@absl@@@__1@std@@@__1@std@@ABEXI@Z
    ?__annotate_new@?$vector@VFormatArgImpl@str_format_internal@absl@@V?$allocator@VFormatArgImpl@str_format_internal@absl@@@__1@std@@@__1@std@@ABEXI@Z
    ?__annotate_shrink@?$vector@PAUCordRep@cord_internal@absl@@V?$allocator@PAUCordRep@cord_internal@absl@@@__1@std@@@__1@std@@ABEXI@Z
    ?__annotate_shrink@?$vector@UTransition@cctz@time_internal@absl@@V?$allocator@UTransition@cctz@time_internal@absl@@@__1@std@@@__1@std@@ABEXI@Z
    ?__annotate_shrink@?$vector@UTransitionType@cctz@time_internal@absl@@V?$allocator@UTransitionType@cctz@time_internal@absl@@@__1@std@@@__1@std@@ABEXI@Z
    ?__annotate_shrink@?$vector@UViableSubstitution@strings_internal@absl@@V?$allocator@UViableSubstitution@strings_internal@absl@@@__1@std@@@__1@std@@ABEXI@Z
    ?__annotate_shrink@?$vector@VFormatArgImpl@str_format_internal@absl@@V?$allocator@VFormatArgImpl@str_format_internal@absl@@@__1@std@@@__1@std@@ABEXI@Z
    ?__append@?$vector@UTransition@cctz@time_internal@absl@@V?$allocator@UTransition@cctz@time_internal@absl@@@__1@std@@@__1@std@@AAEXI@Z
    ?__append@?$vector@UTransitionType@cctz@time_internal@absl@@V?$allocator@UTransitionType@cctz@time_internal@absl@@@__1@std@@@__1@std@@AAEXI@Z
    ?__apply@?$__unwrap_iter_impl@PAPAPBVImpl@time_zone@cctz@time_internal@absl@@$00@__1@std@@SAPAPAPBVImpl@time_zone@cctz@time_internal@absl@@PAPAPBV45678@@Z
    ?__apply@?$__unwrap_iter_impl@PAUTransition@cctz@time_internal@absl@@$00@__1@std@@SAPAUTransition@cctz@time_internal@absl@@PAU4567@@Z
    ?__apply@?$__unwrap_iter_impl@PAUTransitionType@cctz@time_internal@absl@@$00@__1@std@@SAPAUTransitionType@cctz@time_internal@absl@@PAU4567@@Z
    ?__apply@?$__unwrap_iter_impl@PAVFormatArgImpl@str_format_internal@absl@@$00@__1@std@@SAPAVFormatArgImpl@str_format_internal@absl@@PAV456@@Z
    ?__apply@?$__unwrap_iter_impl@PBVFormatArgImpl@str_format_internal@absl@@$00@__1@std@@SAPBVFormatArgImpl@str_format_internal@absl@@PBV456@@Z
    ?__back_spare@?$__split_buffer@PAPBVImpl@time_zone@cctz@time_internal@absl@@V?$allocator@PAPBVImpl@time_zone@cctz@time_internal@absl@@@__1@std@@@__1@std@@QBEIXZ
    ?__back_spare@?$deque@PBVImpl@time_zone@cctz@time_internal@absl@@V?$allocator@PBVImpl@time_zone@cctz@time_internal@absl@@@__1@std@@@__1@std@@QBEIXZ
    ?__call_empty@?$__policy_invoker@$$A6A?AV?$unique_ptr@VZoneInfoSource@cctz@time_internal@absl@@U?$default_delete@VZoneInfoSource@cctz@time_internal@absl@@@__1@std@@@__1@std@@ABV?$basic_string@DU?$char_traits@D@__1@std@@V?$allocator@D@23@@23@@Z@__function@__1@std@@CA?AV?$unique_ptr@VZoneInfoSource@cctz@time_internal@absl@@U?$default_delete@VZoneInfoSource@cctz@time_internal@absl@@@__1@std@@@34@PBT__policy_storage@234@ABV?$basic_string@DU?$char_traits@D@__1@std@@V?$allocator@D@23@@34@@Z
    ?__call_empty@?$__policy_invoker@$$A6AXVstring_view@absl@@ABVCord@2@@Z@__function@__1@std@@CAXPBT__policy_storage@234@$$QAVstring_view@absl@@ABVCord@7@@Z
    ?__capacity@?$deque@PBVImpl@time_zone@cctz@time_internal@absl@@V?$allocator@PBVImpl@time_zone@cctz@time_internal@absl@@@__1@std@@@__1@std@@QBEIXZ
    ?__construct_at_end@?$__split_buffer@UTransition@cctz@time_internal@absl@@AAV?$allocator@UTransition@cctz@time_internal@absl@@@__1@std@@@__1@std@@QAEXI@Z
    ?__construct_at_end@?$__split_buffer@UTransitionType@cctz@time_internal@absl@@AAV?$allocator@UTransitionType@cctz@time_internal@absl@@@__1@std@@@__1@std@@QAEXI@Z
    ?__construct_at_end@?$vector@UTransition@cctz@time_internal@absl@@V?$allocator@UTransition@cctz@time_internal@absl@@@__1@std@@@__1@std@@AAEXI@Z
    ?__construct_at_end@?$vector@UTransitionType@cctz@time_internal@absl@@V?$allocator@UTransitionType@cctz@time_internal@absl@@@__1@std@@@__1@std@@AAEXI@Z
    ?__deallocate_node@?$__hash_table@U?$__hash_value_type@V?$basic_string@DU?$char_traits@D@__1@std@@V?$allocator@D@23@@__1@std@@PBVImpl@time_zone@cctz@time_internal@absl@@@__1@std@@V?$__unordered_map_hasher@V?$basic_string@DU?$char_traits@D@__1@std@@V?$allocator@D@23@@__1@std@@U?$__hash_value_type@V?$basic_string@DU?$char_traits@D@__1@std@@V?$allocator@D@23@@__1@std@@PBVImpl@time_zone@cctz@time_internal@absl@@@23@U?$hash@V?$basic_string@DU?$char_traits@D@__1@std@@V?$allocator@D@23@@__1@std@@@23@U?$equal_to@V?$basic_string@DU?$char_traits@D@__1@std@@V?$allocator@D@23@@__1@std@@@23@$00@23@V?$__unordered_map_equal@V?$basic_string@DU?$char_traits@D@__1@std@@V?$allocator@D@23@@__1@std@@U?$__hash_value_type@V?$basic_string@DU?$char_traits@D@__1@std@@V?$allocator@D@23@@__1@std@@PBVImpl@time_zone@cctz@time_internal@absl@@@23@U?$equal_to@V?$basic_string@DU?$char_traits@D@__1@std@@V?$allocator@D@23@@__1@std@@@23@U?$hash@V?$basic_string@DU?$char_traits@D@__1@std@@V?$allocator@D@23@@__1@std@@@23@$00@23@V?$allocator@U?$__hash_value_type@V?$basic_string@DU?$char_traits@D@__1@std@@V?$allocator@D@23@@__1@std@@PBVImpl@time_zone@cctz@time_internal@absl@@@__1@std@@@23@@__1@std@@AAEXPAU?$__hash_node_base@PAU?$__hash_node@U?$__hash_value_type@V?$basic_string@DU?$char_traits@D@__1@std@@V?$allocator@D@23@@__1@std@@PBVImpl@time_zone@cctz@time_internal@absl@@@__1@std@@PAX@__1@std@@@23@@Z
    ?__destruct_at_begin@?$__split_buffer@PAPBVImpl@time_zone@cctz@time_internal@absl@@V?$allocator@PAPBVImpl@time_zone@cctz@time_internal@absl@@@__1@std@@@__1@std@@QAEXPAPAPBVImpl@time_zone@cctz@time_internal@absl@@@Z
    ?__destruct_at_begin@?$__split_buffer@PAPBVImpl@time_zone@cctz@time_internal@absl@@V?$allocator@PAPBVImpl@time_zone@cctz@time_internal@absl@@@__1@std@@@__1@std@@QAEXPAPAPBVImpl@time_zone@cctz@time_internal@absl@@U?$integral_constant@_N$00@23@@Z
    ?__destruct_at_end@?$__split_buffer@PAPBVImpl@time_zone@cctz@time_internal@absl@@AAV?$allocator@PAPBVImpl@time_zone@cctz@time_internal@absl@@@__1@std@@@__1@std@@QAEXPAPAPBVImpl@time_zone@cctz@time_internal@absl@@@Z
    ?__destruct_at_end@?$__split_buffer@PAPBVImpl@time_zone@cctz@time_internal@absl@@AAV?$allocator@PAPBVImpl@time_zone@cctz@time_internal@absl@@@__1@std@@@__1@std@@QAEXPAPAPBVImpl@time_zone@cctz@time_internal@absl@@U?$integral_constant@_N$0A@@23@@Z
    ?__destruct_at_end@?$__split_buffer@PAUCordRep@cord_internal@absl@@AAV?$allocator@PAUCordRep@cord_internal@absl@@@__1@std@@@__1@std@@QAEXPAPAUCordRep@cord_internal@absl@@@Z
    ?__destruct_at_end@?$__split_buffer@PAUCordRep@cord_internal@absl@@AAV?$allocator@PAUCordRep@cord_internal@absl@@@__1@std@@@__1@std@@QAEXPAPAUCordRep@cord_internal@absl@@U?$integral_constant@_N$0A@@23@@Z
    ?__destruct_at_end@?$__split_buffer@PAVCordzHandle@cord_internal@absl@@AAV?$allocator@PAVCordzHandle@cord_internal@absl@@@__1@std@@@__1@std@@QAEXPAPAVCordzHandle@cord_internal@absl@@@Z
    ?__destruct_at_end@?$__split_buffer@PAVCordzHandle@cord_internal@absl@@AAV?$allocator@PAVCordzHandle@cord_internal@absl@@@__1@std@@@__1@std@@QAEXPAPAVCordzHandle@cord_internal@absl@@U?$integral_constant@_N$0A@@23@@Z
    ?__destruct_at_end@?$__split_buffer@PBVCordzHandle@cord_internal@absl@@AAV?$allocator@PBVCordzHandle@cord_internal@absl@@@__1@std@@@__1@std@@QAEXPAPBVCordzHandle@cord_internal@absl@@@Z
    ?__destruct_at_end@?$__split_buffer@PBVCordzHandle@cord_internal@absl@@AAV?$allocator@PBVCordzHandle@cord_internal@absl@@@__1@std@@@__1@std@@QAEXPAPBVCordzHandle@cord_internal@absl@@U?$integral_constant@_N$0A@@23@@Z
    ?__destruct_at_end@?$__split_buffer@UConversionItem@ParsedFormatBase@str_format_internal@absl@@AAV?$allocator@UConversionItem@ParsedFormatBase@str_format_internal@absl@@@__1@std@@@__1@std@@QAEXPAUConversionItem@ParsedFormatBase@str_format_internal@absl@@@Z
    ?__destruct_at_end@?$__split_buffer@UConversionItem@ParsedFormatBase@str_format_internal@absl@@AAV?$allocator@UConversionItem@ParsedFormatBase@str_format_internal@absl@@@__1@std@@@__1@std@@QAEXPAUConversionItem@ParsedFormatBase@str_format_internal@absl@@U?$integral_constant@_N$0A@@23@@Z
    ?__destruct_at_end@?$__split_buffer@UTransition@cctz@time_internal@absl@@AAV?$allocator@UTransition@cctz@time_internal@absl@@@__1@std@@@__1@std@@QAEXPAUTransition@cctz@time_internal@absl@@@Z
    ?__destruct_at_end@?$__split_buffer@UTransition@cctz@time_internal@absl@@AAV?$allocator@UTransition@cctz@time_internal@absl@@@__1@std@@@__1@std@@QAEXPAUTransition@cctz@time_internal@absl@@U?$integral_constant@_N$0A@@23@@Z
    ?__destruct_at_end@?$__split_buffer@UTransitionType@cctz@time_internal@absl@@AAV?$allocator@UTransitionType@cctz@time_internal@absl@@@__1@std@@@__1@std@@QAEXPAUTransitionType@cctz@time_internal@absl@@@Z
    ?__destruct_at_end@?$__split_buffer@UTransitionType@cctz@time_internal@absl@@AAV?$allocator@UTransitionType@cctz@time_internal@absl@@@__1@std@@@__1@std@@QAEXPAUTransitionType@cctz@time_internal@absl@@U?$integral_constant@_N$0A@@23@@Z
    ?__destruct_at_end@?$__split_buffer@UViableSubstitution@strings_internal@absl@@AAV?$allocator@UViableSubstitution@strings_internal@absl@@@__1@std@@@__1@std@@QAEXPAUViableSubstitution@strings_internal@absl@@@Z
    ?__destruct_at_end@?$__split_buffer@UViableSubstitution@strings_internal@absl@@AAV?$allocator@UViableSubstitution@strings_internal@absl@@@__1@std@@@__1@std@@QAEXPAUViableSubstitution@strings_internal@absl@@U?$integral_constant@_N$0A@@23@@Z
    ?__destruct_at_end@?$__vector_base@PAUCordRep@cord_internal@absl@@V?$allocator@PAUCordRep@cord_internal@absl@@@__1@std@@@__1@std@@IAEXPAPAUCordRep@cord_internal@absl@@@Z
    ?__destruct_at_end@?$__vector_base@PAVCordzHandle@cord_internal@absl@@V?$allocator@PAVCordzHandle@cord_internal@absl@@@__1@std@@@__1@std@@IAEXPAPAVCordzHandle@cord_internal@absl@@@Z
    ?__destruct_at_end@?$__vector_base@PBVCordzHandle@cord_internal@absl@@V?$allocator@PBVCordzHandle@cord_internal@absl@@@__1@std@@@__1@std@@IAEXPAPBVCordzHandle@cord_internal@absl@@@Z
    ?__destruct_at_end@?$__vector_base@UTransition@cctz@time_internal@absl@@V?$allocator@UTransition@cctz@time_internal@absl@@@__1@std@@@__1@std@@IAEXPAUTransition@cctz@time_internal@absl@@@Z
    ?__destruct_at_end@?$__vector_base@UTransitionType@cctz@time_internal@absl@@V?$allocator@UTransitionType@cctz@time_internal@absl@@@__1@std@@@__1@std@@IAEXPAUTransitionType@cctz@time_internal@absl@@@Z
    ?__destruct_at_end@?$__vector_base@UViableSubstitution@strings_internal@absl@@V?$allocator@UViableSubstitution@strings_internal@absl@@@__1@std@@@__1@std@@IAEXPAUViableSubstitution@strings_internal@absl@@@Z
    ?__destruct_at_end@?$__vector_base@VFormatArgImpl@str_format_internal@absl@@V?$allocator@VFormatArgImpl@str_format_internal@absl@@@__1@std@@@__1@std@@IAEXPAVFormatArgImpl@str_format_internal@absl@@@Z
    ?__destruct_at_end@?$vector@PAUCordRep@cord_internal@absl@@V?$allocator@PAUCordRep@cord_internal@absl@@@__1@std@@@__1@std@@AAEXPAPAUCordRep@cord_internal@absl@@@Z
    ?__destruct_at_end@?$vector@UTransition@cctz@time_internal@absl@@V?$allocator@UTransition@cctz@time_internal@absl@@@__1@std@@@__1@std@@AAEXPAUTransition@cctz@time_internal@absl@@@Z
    ?__destruct_at_end@?$vector@UTransitionType@cctz@time_internal@absl@@V?$allocator@UTransitionType@cctz@time_internal@absl@@@__1@std@@@__1@std@@AAEXPAUTransitionType@cctz@time_internal@absl@@@Z
    ?__destruct_at_end@?$vector@UViableSubstitution@strings_internal@absl@@V?$allocator@UViableSubstitution@strings_internal@absl@@@__1@std@@@__1@std@@AAEXPAUViableSubstitution@strings_internal@absl@@@Z
    ?__destruct_at_end@?$vector@VFormatArgImpl@str_format_internal@absl@@V?$allocator@VFormatArgImpl@str_format_internal@absl@@@__1@std@@@__1@std@@AAEXPAVFormatArgImpl@str_format_internal@absl@@@Z
    ?__end_cap@?$__split_buffer@PAPBVImpl@time_zone@cctz@time_internal@absl@@AAV?$allocator@PAPBVImpl@time_zone@cctz@time_internal@absl@@@__1@std@@@__1@std@@QAEAAPAPAPBVImpl@time_zone@cctz@time_internal@absl@@XZ
    ?__end_cap@?$__split_buffer@PAPBVImpl@time_zone@cctz@time_internal@absl@@AAV?$allocator@PAPBVImpl@time_zone@cctz@time_internal@absl@@@__1@std@@@__1@std@@QBEABQAPAPBVImpl@time_zone@cctz@time_internal@absl@@XZ
    ?__end_cap@?$__split_buffer@PAPBVImpl@time_zone@cctz@time_internal@absl@@V?$allocator@PAPBVImpl@time_zone@cctz@time_internal@absl@@@__1@std@@@__1@std@@QAEAAPAPAPBVImpl@time_zone@cctz@time_internal@absl@@XZ
    ?__end_cap@?$__split_buffer@PAPBVImpl@time_zone@cctz@time_internal@absl@@V?$allocator@PAPBVImpl@time_zone@cctz@time_internal@absl@@@__1@std@@@__1@std@@QBEABQAPAPBVImpl@time_zone@cctz@time_internal@absl@@XZ
    ?__end_cap@?$__split_buffer@PAUCordRep@cord_internal@absl@@AAV?$allocator@PAUCordRep@cord_internal@absl@@@__1@std@@@__1@std@@QAEAAPAPAUCordRep@cord_internal@absl@@XZ
    ?__end_cap@?$__split_buffer@PAUCordRep@cord_internal@absl@@AAV?$allocator@PAUCordRep@cord_internal@absl@@@__1@std@@@__1@std@@QBEABQAPAUCordRep@cord_internal@absl@@XZ
    ?__end_cap@?$__split_buffer@PAVCordzHandle@cord_internal@absl@@AAV?$allocator@PAVCordzHandle@cord_internal@absl@@@__1@std@@@__1@std@@QAEAAPAPAVCordzHandle@cord_internal@absl@@XZ
    ?__end_cap@?$__split_buffer@PAVCordzHandle@cord_internal@absl@@AAV?$allocator@PAVCordzHandle@cord_internal@absl@@@__1@std@@@__1@std@@QBEABQAPAVCordzHandle@cord_internal@absl@@XZ
    ?__end_cap@?$__split_buffer@PBVCordzHandle@cord_internal@absl@@AAV?$allocator@PBVCordzHandle@cord_internal@absl@@@__1@std@@@__1@std@@QAEAAPAPBVCordzHandle@cord_internal@absl@@XZ
    ?__end_cap@?$__split_buffer@PBVCordzHandle@cord_internal@absl@@AAV?$allocator@PBVCordzHandle@cord_internal@absl@@@__1@std@@@__1@std@@QBEABQAPBVCordzHandle@cord_internal@absl@@XZ
    ?__end_cap@?$__split_buffer@UConversionItem@ParsedFormatBase@str_format_internal@absl@@AAV?$allocator@UConversionItem@ParsedFormatBase@str_format_internal@absl@@@__1@std@@@__1@std@@QAEAAPAUConversionItem@ParsedFormatBase@str_format_internal@absl@@XZ
    ?__end_cap@?$__split_buffer@UConversionItem@ParsedFormatBase@str_format_internal@absl@@AAV?$allocator@UConversionItem@ParsedFormatBase@str_format_internal@absl@@@__1@std@@@__1@std@@QBEABQAUConversionItem@ParsedFormatBase@str_format_internal@absl@@XZ
    ?__end_cap@?$__split_buffer@UTransition@cctz@time_internal@absl@@AAV?$allocator@UTransition@cctz@time_internal@absl@@@__1@std@@@__1@std@@QAEAAPAUTransition@cctz@time_internal@absl@@XZ
    ?__end_cap@?$__split_buffer@UTransition@cctz@time_internal@absl@@AAV?$allocator@UTransition@cctz@time_internal@absl@@@__1@std@@@__1@std@@QBEABQAUTransition@cctz@time_internal@absl@@XZ
    ?__end_cap@?$__split_buffer@UTransitionType@cctz@time_internal@absl@@AAV?$allocator@UTransitionType@cctz@time_internal@absl@@@__1@std@@@__1@std@@QAEAAPAUTransitionType@cctz@time_internal@absl@@XZ
    ?__end_cap@?$__split_buffer@UTransitionType@cctz@time_internal@absl@@AAV?$allocator@UTransitionType@cctz@time_internal@absl@@@__1@std@@@__1@std@@QBEABQAUTransitionType@cctz@time_internal@absl@@XZ
    ?__end_cap@?$__split_buffer@UViableSubstitution@strings_internal@absl@@AAV?$allocator@UViableSubstitution@strings_internal@absl@@@__1@std@@@__1@std@@QAEAAPAUViableSubstitution@strings_internal@absl@@XZ
    ?__end_cap@?$__split_buffer@UViableSubstitution@strings_internal@absl@@AAV?$allocator@UViableSubstitution@strings_internal@absl@@@__1@std@@@__1@std@@QBEABQAUViableSubstitution@strings_internal@absl@@XZ
    ?__end_cap@?$__vector_base@PAUCordRep@cord_internal@absl@@V?$allocator@PAUCordRep@cord_internal@absl@@@__1@std@@@__1@std@@IAEAAPAPAUCordRep@cord_internal@absl@@XZ
    ?__end_cap@?$__vector_base@PAUCordRep@cord_internal@absl@@V?$allocator@PAUCordRep@cord_internal@absl@@@__1@std@@@__1@std@@IBEABQAPAUCordRep@cord_internal@absl@@XZ
    ?__end_cap@?$__vector_base@PAVCordzHandle@cord_internal@absl@@V?$allocator@PAVCordzHandle@cord_internal@absl@@@__1@std@@@__1@std@@IAEAAPAPAVCordzHandle@cord_internal@absl@@XZ
    ?__end_cap@?$__vector_base@PAVCordzHandle@cord_internal@absl@@V?$allocator@PAVCordzHandle@cord_internal@absl@@@__1@std@@@__1@std@@IBEABQAPAVCordzHandle@cord_internal@absl@@XZ
    ?__end_cap@?$__vector_base@PBVCordzHandle@cord_internal@absl@@V?$allocator@PBVCordzHandle@cord_internal@absl@@@__1@std@@@__1@std@@IAEAAPAPBVCordzHandle@cord_internal@absl@@XZ
    ?__end_cap@?$__vector_base@PBVCordzHandle@cord_internal@absl@@V?$allocator@PBVCordzHandle@cord_internal@absl@@@__1@std@@@__1@std@@IBEABQAPBVCordzHandle@cord_internal@absl@@XZ
    ?__end_cap@?$__vector_base@UConversionItem@ParsedFormatBase@str_format_internal@absl@@V?$allocator@UConversionItem@ParsedFormatBase@str_format_internal@absl@@@__1@std@@@__1@std@@IAEAAPAUConversionItem@ParsedFormatBase@str_format_internal@absl@@XZ
    ?__end_cap@?$__vector_base@UConversionItem@ParsedFormatBase@str_format_internal@absl@@V?$allocator@UConversionItem@ParsedFormatBase@str_format_internal@absl@@@__1@std@@@__1@std@@IBEABQAUConversionItem@ParsedFormatBase@str_format_internal@absl@@XZ
    ?__end_cap@?$__vector_base@UTransition@cctz@time_internal@absl@@V?$allocator@UTransition@cctz@time_internal@absl@@@__1@std@@@__1@std@@IAEAAPAUTransition@cctz@time_internal@absl@@XZ
    ?__end_cap@?$__vector_base@UTransition@cctz@time_internal@absl@@V?$allocator@UTransition@cctz@time_internal@absl@@@__1@std@@@__1@std@@IBEABQAUTransition@cctz@time_internal@absl@@XZ
    ?__end_cap@?$__vector_base@UTransitionType@cctz@time_internal@absl@@V?$allocator@UTransitionType@cctz@time_internal@absl@@@__1@std@@@__1@std@@IAEAAPAUTransitionType@cctz@time_internal@absl@@XZ
    ?__end_cap@?$__vector_base@UTransitionType@cctz@time_internal@absl@@V?$allocator@UTransitionType@cctz@time_internal@absl@@@__1@std@@@__1@std@@IBEABQAUTransitionType@cctz@time_internal@absl@@XZ
    ?__end_cap@?$__vector_base@UViableSubstitution@strings_internal@absl@@V?$allocator@UViableSubstitution@strings_internal@absl@@@__1@std@@@__1@std@@IAEAAPAUViableSubstitution@strings_internal@absl@@XZ
    ?__end_cap@?$__vector_base@UViableSubstitution@strings_internal@absl@@V?$allocator@UViableSubstitution@strings_internal@absl@@@__1@std@@@__1@std@@IBEABQAUViableSubstitution@strings_internal@absl@@XZ
    ?__end_cap@?$__vector_base@VFormatArgImpl@str_format_internal@absl@@V?$allocator@VFormatArgImpl@str_format_internal@absl@@@__1@std@@@__1@std@@IAEAAPAVFormatArgImpl@str_format_internal@absl@@XZ
    ?__end_cap@?$__vector_base@VFormatArgImpl@str_format_internal@absl@@V?$allocator@VFormatArgImpl@str_format_internal@absl@@@__1@std@@@__1@std@@IBEABQAVFormatArgImpl@str_format_internal@absl@@XZ
    ?__front_spare@?$deque@PBVImpl@time_zone@cctz@time_internal@absl@@V?$allocator@PBVImpl@time_zone@cctz@time_internal@absl@@@__1@std@@@__1@std@@QBEIXZ
    ?__get@?$__compressed_pair_elem@AAV?$allocator@PAPBVImpl@time_zone@cctz@time_internal@absl@@@__1@std@@$00$0A@@__1@std@@QAEAAV?$allocator@PAPBVImpl@time_zone@cctz@time_internal@absl@@@23@XZ
    ?__get@?$__compressed_pair_elem@AAV?$allocator@PAUCordRep@cord_internal@absl@@@__1@std@@$00$0A@@__1@std@@QAEAAV?$allocator@PAUCordRep@cord_internal@absl@@@23@XZ
    ?__get@?$__compressed_pair_elem@AAV?$allocator@PAVCordzHandle@cord_internal@absl@@@__1@std@@$00$0A@@__1@std@@QAEAAV?$allocator@PAVCordzHandle@cord_internal@absl@@@23@XZ
    ?__get@?$__compressed_pair_elem@AAV?$allocator@PBVCordzHandle@cord_internal@absl@@@__1@std@@$00$0A@@__1@std@@QAEAAV?$allocator@PBVCordzHandle@cord_internal@absl@@@23@XZ
    ?__get@?$__compressed_pair_elem@AAV?$allocator@UConversionItem@ParsedFormatBase@str_format_internal@absl@@@__1@std@@$00$0A@@__1@std@@QAEAAV?$allocator@UConversionItem@ParsedFormatBase@str_format_internal@absl@@@23@XZ
    ?__get@?$__compressed_pair_elem@AAV?$allocator@UTransition@cctz@time_internal@absl@@@__1@std@@$00$0A@@__1@std@@QAEAAV?$allocator@UTransition@cctz@time_internal@absl@@@23@XZ
    ?__get@?$__compressed_pair_elem@AAV?$allocator@UTransitionType@cctz@time_internal@absl@@@__1@std@@$00$0A@@__1@std@@QAEAAV?$allocator@UTransitionType@cctz@time_internal@absl@@@23@XZ
    ?__get@?$__compressed_pair_elem@AAV?$allocator@UViableSubstitution@strings_internal@absl@@@__1@std@@$00$0A@@__1@std@@QAEAAV?$allocator@UViableSubstitution@strings_internal@absl@@@23@XZ
    ?__get@?$__compressed_pair_elem@PAPAPBVImpl@time_zone@cctz@time_internal@absl@@$0A@$0A@@__1@std@@QAEAAPAPAPBVImpl@time_zone@cctz@time_internal@absl@@XZ
    ?__get@?$__compressed_pair_elem@PAPAPBVImpl@time_zone@cctz@time_internal@absl@@$0A@$0A@@__1@std@@QBEABQAPAPBVImpl@time_zone@cctz@time_internal@absl@@XZ
    ?__get@?$__compressed_pair_elem@PAPAU?$__hash_node_base@PAU?$__hash_node@U?$__hash_value_type@V?$basic_string@DU?$char_traits@D@__1@std@@V?$allocator@D@23@@__1@std@@PBVImpl@time_zone@cctz@time_internal@absl@@@__1@std@@PAX@__1@std@@@__1@std@@$0A@$0A@@__1@std@@QAEAAPAPAU?$__hash_node_base@PAU?$__hash_node@U?$__hash_value_type@V?$basic_string@DU?$char_traits@D@__1@std@@V?$allocator@D@23@@__1@std@@PBVImpl@time_zone@cctz@time_internal@absl@@@__1@std@@PAX@__1@std@@@23@XZ
    ?__get@?$__compressed_pair_elem@PAPAU?$__hash_node_base@PAU?$__hash_node@U?$__hash_value_type@V?$basic_string@DU?$char_traits@D@__1@std@@V?$allocator@D@23@@__1@std@@PBVImpl@time_zone@cctz@time_internal@absl@@@__1@std@@PAX@__1@std@@@__1@std@@$0A@$0A@@__1@std@@QBEABQAPAU?$__hash_node_base@PAU?$__hash_node@U?$__hash_value_type@V?$basic_string@DU?$char_traits@D@__1@std@@V?$allocator@D@23@@__1@std@@PBVImpl@time_zone@cctz@time_internal@absl@@@__1@std@@PAX@__1@std@@@23@XZ
    ?__get@?$__compressed_pair_elem@PAPAUCordRep@cord_internal@absl@@$0A@$0A@@__1@std@@QAEAAPAPAUCordRep@cord_internal@absl@@XZ
    ?__get@?$__compressed_pair_elem@PAPAUCordRep@cord_internal@absl@@$0A@$0A@@__1@std@@QBEABQAPAUCordRep@cord_internal@absl@@XZ
    ?__get@?$__compressed_pair_elem@PAPAVCordzHandle@cord_internal@absl@@$0A@$0A@@__1@std@@QAEAAPAPAVCordzHandle@cord_internal@absl@@XZ
    ?__get@?$__compressed_pair_elem@PAPAVCordzHandle@cord_internal@absl@@$0A@$0A@@__1@std@@QBEABQAPAVCordzHandle@cord_internal@absl@@XZ
    ?__get@?$__compressed_pair_elem@PAPBVCordzHandle@cord_internal@absl@@$0A@$0A@@__1@std@@QAEAAPAPBVCordzHandle@cord_internal@absl@@XZ
    ?__get@?$__compressed_pair_elem@PAPBVCordzHandle@cord_internal@absl@@$0A@$0A@@__1@std@@QBEABQAPBVCordzHandle@cord_internal@absl@@XZ
    ?__get@?$__compressed_pair_elem@PAPBVImpl@time_zone@cctz@time_internal@absl@@$0A@$0A@@__1@std@@QAEAAPAPBVImpl@time_zone@cctz@time_internal@absl@@XZ
    ?__get@?$__compressed_pair_elem@PAPBVImpl@time_zone@cctz@time_internal@absl@@$0A@$0A@@__1@std@@QBEABQAPBVImpl@time_zone@cctz@time_internal@absl@@XZ
    ?__get@?$__compressed_pair_elem@PAU?$__hash_node@U?$__hash_value_type@V?$basic_string@DU?$char_traits@D@__1@std@@V?$allocator@D@23@@__1@std@@PBVImpl@time_zone@cctz@time_internal@absl@@@__1@std@@PAX@__1@std@@$0A@$0A@@__1@std@@QAEAAPAU?$__hash_node@U?$__hash_value_type@V?$basic_string@DU?$char_traits@D@__1@std@@V?$allocator@D@23@@__1@std@@PBVImpl@time_zone@cctz@time_internal@absl@@@__1@std@@PAX@23@XZ
    ?__get@?$__compressed_pair_elem@PAU?$__hash_node@U?$__hash_value_type@V?$basic_string@DU?$char_traits@D@__1@std@@V?$allocator@D@23@@__1@std@@PBVImpl@time_zone@cctz@time_internal@absl@@@__1@std@@PAX@__1@std@@$0A@$0A@@__1@std@@QBEABQAU?$__hash_node@U?$__hash_value_type@V?$basic_string@DU?$char_traits@D@__1@std@@V?$allocator@D@23@@__1@std@@PBVImpl@time_zone@cctz@time_internal@absl@@@__1@std@@PAX@23@XZ
    ?__get@?$__compressed_pair_elem@PAUConversionItem@ParsedFormatBase@str_format_internal@absl@@$0A@$0A@@__1@std@@QAEAAPAUConversionItem@ParsedFormatBase@str_format_internal@absl@@XZ
    ?__get@?$__compressed_pair_elem@PAUConversionItem@ParsedFormatBase@str_format_internal@absl@@$0A@$0A@@__1@std@@QBEABQAUConversionItem@ParsedFormatBase@str_format_internal@absl@@XZ
    ?__get@?$__compressed_pair_elem@PAUThreadIdentity@base_internal@absl@@$0A@$0A@@__1@std@@QAEAAPAUThreadIdentity@base_internal@absl@@XZ
    ?__get@?$__compressed_pair_elem@PAUTransition@cctz@time_internal@absl@@$0A@$0A@@__1@std@@QAEAAPAUTransition@cctz@time_internal@absl@@XZ
    ?__get@?$__compressed_pair_elem@PAUTransition@cctz@time_internal@absl@@$0A@$0A@@__1@std@@QBEABQAUTransition@cctz@time_internal@absl@@XZ
    ?__get@?$__compressed_pair_elem@PAUTransitionType@cctz@time_internal@absl@@$0A@$0A@@__1@std@@QAEAAPAUTransitionType@cctz@time_internal@absl@@XZ
    ?__get@?$__compressed_pair_elem@PAUTransitionType@cctz@time_internal@absl@@$0A@$0A@@__1@std@@QBEABQAUTransitionType@cctz@time_internal@absl@@XZ
    ?__get@?$__compressed_pair_elem@PAUViableSubstitution@strings_internal@absl@@$0A@$0A@@__1@std@@QAEAAPAUViableSubstitution@strings_internal@absl@@XZ
    ?__get@?$__compressed_pair_elem@PAUViableSubstitution@strings_internal@absl@@$0A@$0A@@__1@std@@QBEABQAUViableSubstitution@strings_internal@absl@@XZ
    ?__get@?$__compressed_pair_elem@PAV?$InlinedVector@UPayload@status_internal@absl@@$00V?$allocator@UPayload@status_internal@absl@@@__1@std@@@absl@@$0A@$0A@@__1@std@@QAEAAPAV?$InlinedVector@UPayload@status_internal@absl@@$00V?$allocator@UPayload@status_internal@absl@@@__1@std@@@absl@@XZ
    ?__get@?$__compressed_pair_elem@PAV?$InlinedVector@UPayload@status_internal@absl@@$00V?$allocator@UPayload@status_internal@absl@@@__1@std@@@absl@@$0A@$0A@@__1@std@@QBEABQAV?$InlinedVector@UPayload@status_internal@absl@@$00V?$allocator@UPayload@status_internal@absl@@@__1@std@@@absl@@XZ
    ?__get@?$__compressed_pair_elem@PAVFormatArgImpl@str_format_internal@absl@@$0A@$0A@@__1@std@@QAEAAPAVFormatArgImpl@str_format_internal@absl@@XZ
    ?__get@?$__compressed_pair_elem@PAVFormatArgImpl@str_format_internal@absl@@$0A@$0A@@__1@std@@QBEABQAVFormatArgImpl@str_format_internal@absl@@XZ
    ?__get@?$__compressed_pair_elem@PAVTimeZoneIf@cctz@time_internal@absl@@$0A@$0A@@__1@std@@QAEAAPAVTimeZoneIf@cctz@time_internal@absl@@XZ
    ?__get@?$__compressed_pair_elem@PAVTimeZoneIf@cctz@time_internal@absl@@$0A@$0A@@__1@std@@QBEABQAVTimeZoneIf@cctz@time_internal@absl@@XZ
    ?__get@?$__compressed_pair_elem@PAVTimeZoneInfo@cctz@time_internal@absl@@$0A@$0A@@__1@std@@QAEAAPAVTimeZoneInfo@cctz@time_internal@absl@@XZ
    ?__get@?$__compressed_pair_elem@PAVTimeZoneInfo@cctz@time_internal@absl@@$0A@$0A@@__1@std@@QBEABQAVTimeZoneInfo@cctz@time_internal@absl@@XZ
    ?__get@?$__compressed_pair_elem@PAVZoneInfoSource@cctz@time_internal@absl@@$0A@$0A@@__1@std@@QAEAAPAVZoneInfoSource@cctz@time_internal@absl@@XZ
    ?__get@?$__compressed_pair_elem@PAVZoneInfoSource@cctz@time_internal@absl@@$0A@$0A@@__1@std@@QBEABQAVZoneInfoSource@cctz@time_internal@absl@@XZ
    ?__get@?$__compressed_pair_elem@PBVImpl@time_zone@cctz@time_internal@absl@@$0A@$0A@@__1@std@@QAEAAPBVImpl@time_zone@cctz@time_internal@absl@@XZ
    ?__get@?$__compressed_pair_elem@PBVImpl@time_zone@cctz@time_internal@absl@@$0A@$0A@@__1@std@@QBEABQBVImpl@time_zone@cctz@time_internal@absl@@XZ
    ?__get@?$__compressed_pair_elem@U?$__hash_node_base@PAU?$__hash_node@U?$__hash_value_type@V?$basic_string@DU?$char_traits@D@__1@std@@V?$allocator@D@23@@__1@std@@PBVImpl@time_zone@cctz@time_internal@absl@@@__1@std@@PAX@__1@std@@@__1@std@@$0A@$0A@@__1@std@@QAEAAU?$__hash_node_base@PAU?$__hash_node@U?$__hash_value_type@V?$basic_string@DU?$char_traits@D@__1@std@@V?$allocator@D@23@@__1@std@@PBVImpl@time_zone@cctz@time_internal@absl@@@__1@std@@PAX@__1@std@@@23@XZ
    ?__get@?$__compressed_pair_elem@U?$default_delete@$$CBVImpl@time_zone@cctz@time_internal@absl@@@__1@std@@$00$00@__1@std@@QAEAAU?$default_delete@$$CBVImpl@time_zone@cctz@time_internal@absl@@@23@XZ
    ?__get@?$__compressed_pair_elem@U?$default_delete@V?$InlinedVector@UPayload@status_internal@absl@@$00V?$allocator@UPayload@status_internal@absl@@@__1@std@@@absl@@@__1@std@@$00$00@__1@std@@QAEAAU?$default_delete@V?$InlinedVector@UPayload@status_internal@absl@@$00V?$allocator@UPayload@status_internal@absl@@@__1@std@@@absl@@@23@XZ
    ?__get@?$__compressed_pair_elem@U?$default_delete@VTimeZoneIf@cctz@time_internal@absl@@@__1@std@@$00$00@__1@std@@QAEAAU?$default_delete@VTimeZoneIf@cctz@time_internal@absl@@@23@XZ
    ?__get@?$__compressed_pair_elem@U?$default_delete@VTimeZoneInfo@cctz@time_internal@absl@@@__1@std@@$00$00@__1@std@@QAEAAU?$default_delete@VTimeZoneInfo@cctz@time_internal@absl@@@23@XZ
    ?__get@?$__compressed_pair_elem@U?$default_delete@VZoneInfoSource@cctz@time_internal@absl@@@__1@std@@$00$00@__1@std@@QAEAAU?$default_delete@VZoneInfoSource@cctz@time_internal@absl@@@23@XZ
    ?__get@?$__compressed_pair_elem@V?$__allocator_destructor@V?$allocator@PBVImpl@time_zone@cctz@time_internal@absl@@@__1@std@@@__1@std@@$00$0A@@__1@std@@QAEAAV?$__allocator_destructor@V?$allocator@PBVImpl@time_zone@cctz@time_internal@absl@@@__1@std@@@23@XZ
    ?__get@?$__compressed_pair_elem@V?$__bucket_list_deallocator@V?$allocator@PAU?$__hash_node_base@PAU?$__hash_node@U?$__hash_value_type@V?$basic_string@DU?$char_traits@D@__1@std@@V?$allocator@D@23@@__1@std@@PBVImpl@time_zone@cctz@time_internal@absl@@@__1@std@@PAX@__1@std@@@__1@std@@@__1@std@@@__1@std@@$00$0A@@__1@std@@QAEAAV?$__bucket_list_deallocator@V?$allocator@PAU?$__hash_node_base@PAU?$__hash_node@U?$__hash_value_type@V?$basic_string@DU?$char_traits@D@__1@std@@V?$allocator@D@23@@__1@std@@PBVImpl@time_zone@cctz@time_internal@absl@@@__1@std@@PAX@__1@std@@@__1@std@@@__1@std@@@23@XZ
    ?__get@?$__compressed_pair_elem@V?$__bucket_list_deallocator@V?$allocator@PAU?$__hash_node_base@PAU?$__hash_node@U?$__hash_value_type@V?$basic_string@DU?$char_traits@D@__1@std@@V?$allocator@D@23@@__1@std@@PBVImpl@time_zone@cctz@time_internal@absl@@@__1@std@@PAX@__1@std@@@__1@std@@@__1@std@@@__1@std@@$00$0A@@__1@std@@QBEABV?$__bucket_list_deallocator@V?$allocator@PAU?$__hash_node_base@PAU?$__hash_node@U?$__hash_value_type@V?$basic_string@DU?$char_traits@D@__1@std@@V?$allocator@D@23@@__1@std@@PBVImpl@time_zone@cctz@time_internal@absl@@@__1@std@@PAX@__1@std@@@__1@std@@@__1@std@@@23@XZ
    ?__get@?$__compressed_pair_elem@V?$__hash_node_destructor@V?$allocator@U?$__hash_node@U?$__hash_value_type@V?$basic_string@DU?$char_traits@D@__1@std@@V?$allocator@D@23@@__1@std@@PBVImpl@time_zone@cctz@time_internal@absl@@@__1@std@@PAX@__1@std@@@__1@std@@@__1@std@@$00$0A@@__1@std@@QAEAAV?$__hash_node_destructor@V?$allocator@U?$__hash_node@U?$__hash_value_type@V?$basic_string@DU?$char_traits@D@__1@std@@V?$allocator@D@23@@__1@std@@PBVImpl@time_zone@cctz@time_internal@absl@@@__1@std@@PAX@__1@std@@@__1@std@@@23@XZ
    ?__get@?$__compressed_pair_elem@V?$__unordered_map_equal@V?$basic_string@DU?$char_traits@D@__1@std@@V?$allocator@D@23@@__1@std@@U?$__hash_value_type@V?$basic_string@DU?$char_traits@D@__1@std@@V?$allocator@D@23@@__1@std@@PBVImpl@time_zone@cctz@time_internal@absl@@@23@U?$equal_to@V?$basic_string@DU?$char_traits@D@__1@std@@V?$allocator@D@23@@__1@std@@@23@U?$hash@V?$basic_string@DU?$char_traits@D@__1@std@@V?$allocator@D@23@@__1@std@@@23@$00@__1@std@@$00$00@__1@std@@QAEAAV?$__unordered_map_equal@V?$basic_string@DU?$char_traits@D@__1@std@@V?$allocator@D@23@@__1@std@@U?$__hash_value_type@V?$basic_string@DU?$char_traits@D@__1@std@@V?$allocator@D@23@@__1@std@@PBVImpl@time_zone@cctz@time_internal@absl@@@23@U?$equal_to@V?$basic_string@DU?$char_traits@D@__1@std@@V?$allocator@D@23@@__1@std@@@23@U?$hash@V?$basic_string@DU?$char_traits@D@__1@std@@V?$allocator@D@23@@__1@std@@@23@$00@23@XZ
    ?__get@?$__compressed_pair_elem@V?$__unordered_map_hasher@V?$basic_string@DU?$char_traits@D@__1@std@@V?$allocator@D@23@@__1@std@@U?$__hash_value_type@V?$basic_string@DU?$char_traits@D@__1@std@@V?$allocator@D@23@@__1@std@@PBVImpl@time_zone@cctz@time_internal@absl@@@23@U?$hash@V?$basic_string@DU?$char_traits@D@__1@std@@V?$allocator@D@23@@__1@std@@@23@U?$equal_to@V?$basic_string@DU?$char_traits@D@__1@std@@V?$allocator@D@23@@__1@std@@@23@$00@__1@std@@$00$00@__1@std@@QAEAAV?$__unordered_map_hasher@V?$basic_string@DU?$char_traits@D@__1@std@@V?$allocator@D@23@@__1@std@@U?$__hash_value_type@V?$basic_string@DU?$char_traits@D@__1@std@@V?$allocator@D@23@@__1@std@@PBVImpl@time_zone@cctz@time_internal@absl@@@23@U?$hash@V?$basic_string@DU?$char_traits@D@__1@std@@V?$allocator@D@23@@__1@std@@@23@U?$equal_to@V?$basic_string@DU?$char_traits@D@__1@std@@V?$allocator@D@23@@__1@std@@@23@$00@23@XZ
    ?__get@?$__compressed_pair_elem@V?$allocator@PAPBVImpl@time_zone@cctz@time_internal@absl@@@__1@std@@$00$00@__1@std@@QAEAAV?$allocator@PAPBVImpl@time_zone@cctz@time_internal@absl@@@23@XZ
    ?__get@?$__compressed_pair_elem@V?$allocator@PAU?$__hash_node_base@PAU?$__hash_node@U?$__hash_value_type@V?$basic_string@DU?$char_traits@D@__1@std@@V?$allocator@D@23@@__1@std@@PBVImpl@time_zone@cctz@time_internal@absl@@@__1@std@@PAX@__1@std@@@__1@std@@@__1@std@@$00$00@__1@std@@QAEAAV?$allocator@PAU?$__hash_node_base@PAU?$__hash_node@U?$__hash_value_type@V?$basic_string@DU?$char_traits@D@__1@std@@V?$allocator@D@23@@__1@std@@PBVImpl@time_zone@cctz@time_internal@absl@@@__1@std@@PAX@__1@std@@@__1@std@@@23@XZ
    ?__get@?$__compressed_pair_elem@V?$allocator@PAUCordRep@cord_internal@absl@@@__1@std@@$00$00@__1@std@@QAEAAV?$allocator@PAUCordRep@cord_internal@absl@@@23@XZ
    ?__get@?$__compressed_pair_elem@V?$allocator@PAUCordRep@cord_internal@absl@@@__1@std@@$00$00@__1@std@@QBEABV?$allocator@PAUCordRep@cord_internal@absl@@@23@XZ
    ?__get@?$__compressed_pair_elem@V?$allocator@PAVCordzHandle@cord_internal@absl@@@__1@std@@$00$00@__1@std@@QAEAAV?$allocator@PAVCordzHandle@cord_internal@absl@@@23@XZ
    ?__get@?$__compressed_pair_elem@V?$allocator@PAVCordzHandle@cord_internal@absl@@@__1@std@@$00$00@__1@std@@QBEABV?$allocator@PAVCordzHandle@cord_internal@absl@@@23@XZ
    ?__get@?$__compressed_pair_elem@V?$allocator@PBVCordzHandle@cord_internal@absl@@@__1@std@@$00$00@__1@std@@QAEAAV?$allocator@PBVCordzHandle@cord_internal@absl@@@23@XZ
    ?__get@?$__compressed_pair_elem@V?$allocator@PBVCordzHandle@cord_internal@absl@@@__1@std@@$00$00@__1@std@@QBEABV?$allocator@PBVCordzHandle@cord_internal@absl@@@23@XZ
    ?__get@?$__compressed_pair_elem@V?$allocator@PBVImpl@time_zone@cctz@time_internal@absl@@@__1@std@@$00$00@__1@std@@QAEAAV?$allocator@PBVImpl@time_zone@cctz@time_internal@absl@@@23@XZ
    ?__get@?$__compressed_pair_elem@V?$allocator@U?$__hash_node@U?$__hash_value_type@V?$basic_string@DU?$char_traits@D@__1@std@@V?$allocator@D@23@@__1@std@@PBVImpl@time_zone@cctz@time_internal@absl@@@__1@std@@PAX@__1@std@@@__1@std@@$00$00@__1@std@@QAEAAV?$allocator@U?$__hash_node@U?$__hash_value_type@V?$basic_string@DU?$char_traits@D@__1@std@@V?$allocator@D@23@@__1@std@@PBVImpl@time_zone@cctz@time_internal@absl@@@__1@std@@PAX@__1@std@@@23@XZ
    ?__get@?$__compressed_pair_elem@V?$allocator@UConversionItem@ParsedFormatBase@str_format_internal@absl@@@__1@std@@$00$00@__1@std@@QAEAAV?$allocator@UConversionItem@ParsedFormatBase@str_format_internal@absl@@@23@XZ
    ?__get@?$__compressed_pair_elem@V?$allocator@UConversionItem@ParsedFormatBase@str_format_internal@absl@@@__1@std@@$00$00@__1@std@@QBEABV?$allocator@UConversionItem@ParsedFormatBase@str_format_internal@absl@@@23@XZ
    ?__get@?$__compressed_pair_elem@V?$allocator@UTransition@cctz@time_internal@absl@@@__1@std@@$00$00@__1@std@@QAEAAV?$allocator@UTransition@cctz@time_internal@absl@@@23@XZ
    ?__get@?$__compressed_pair_elem@V?$allocator@UTransition@cctz@time_internal@absl@@@__1@std@@$00$00@__1@std@@QBEABV?$allocator@UTransition@cctz@time_internal@absl@@@23@XZ
    ?__get@?$__compressed_pair_elem@V?$allocator@UTransitionType@cctz@time_internal@absl@@@__1@std@@$00$00@__1@std@@QAEAAV?$allocator@UTransitionType@cctz@time_internal@absl@@@23@XZ
    ?__get@?$__compressed_pair_elem@V?$allocator@UTransitionType@cctz@time_internal@absl@@@__1@std@@$00$00@__1@std@@QBEABV?$allocator@UTransitionType@cctz@time_internal@absl@@@23@XZ
    ?__get@?$__compressed_pair_elem@V?$allocator@UViableSubstitution@strings_internal@absl@@@__1@std@@$00$00@__1@std@@QAEAAV?$allocator@UViableSubstitution@strings_internal@absl@@@23@XZ
    ?__get@?$__compressed_pair_elem@V?$allocator@UViableSubstitution@strings_internal@absl@@@__1@std@@$00$00@__1@std@@QBEABV?$allocator@UViableSubstitution@strings_internal@absl@@@23@XZ
    ?__get@?$__compressed_pair_elem@V?$allocator@VFormatArgImpl@str_format_internal@absl@@@__1@std@@$00$00@__1@std@@QAEAAV?$allocator@VFormatArgImpl@str_format_internal@absl@@@23@XZ
    ?__get@?$__compressed_pair_elem@V?$allocator@VFormatArgImpl@str_format_internal@absl@@@__1@std@@$00$00@__1@std@@QBEABV?$allocator@VFormatArgImpl@str_format_internal@absl@@@23@XZ
    ?__get_ptr@?$__hash_key_value_types@U?$__hash_value_type@V?$basic_string@DU?$char_traits@D@__1@std@@V?$allocator@D@23@@__1@std@@PBVImpl@time_zone@cctz@time_internal@absl@@@__1@std@@@__1@std@@SAPAU?$pair@$$CBV?$basic_string@DU?$char_traits@D@__1@std@@V?$allocator@D@23@@__1@std@@PBVImpl@time_zone@cctz@time_internal@absl@@@23@AAU?$__hash_value_type@V?$basic_string@DU?$char_traits@D@__1@std@@V?$allocator@D@23@@__1@std@@PBVImpl@time_zone@cctz@time_internal@absl@@@23@@Z
    ?__get_value@?$__hash_value_type@V?$basic_string@DU?$char_traits@D@__1@std@@V?$allocator@D@23@@__1@std@@PBVImpl@time_zone@cctz@time_internal@absl@@@__1@std@@QAEAAU?$pair@$$CBV?$basic_string@DU?$char_traits@D@__1@std@@V?$allocator@D@23@@__1@std@@PBVImpl@time_zone@cctz@time_internal@absl@@@23@XZ
    ?__get_value@?$__hash_value_type@V?$basic_string@DU?$char_traits@D@__1@std@@V?$allocator@D@23@@__1@std@@PBVImpl@time_zone@cctz@time_internal@absl@@@__1@std@@QBEABU?$pair@$$CBV?$basic_string@DU?$char_traits@D@__1@std@@V?$allocator@D@23@@__1@std@@PBVImpl@time_zone@cctz@time_internal@absl@@@23@XZ
    ?__hash@?$__hash_node_base@PAU?$__hash_node@U?$__hash_value_type@V?$basic_string@DU?$char_traits@D@__1@std@@V?$allocator@D@23@@__1@std@@PBVImpl@time_zone@cctz@time_internal@absl@@@__1@std@@PAX@__1@std@@@__1@std@@QBEIXZ
    ?__invalidate_all_iterators@?$vector@PAUCordRep@cord_internal@absl@@V?$allocator@PAUCordRep@cord_internal@absl@@@__1@std@@@__1@std@@AAEXXZ
    ?__invalidate_all_iterators@?$vector@PAVCordzHandle@cord_internal@absl@@V?$allocator@PAVCordzHandle@cord_internal@absl@@@__1@std@@@__1@std@@AAEXXZ
    ?__invalidate_all_iterators@?$vector@PBVCordzHandle@cord_internal@absl@@V?$allocator@PBVCordzHandle@cord_internal@absl@@@__1@std@@@__1@std@@AAEXXZ
    ?__invalidate_all_iterators@?$vector@UConversionItem@ParsedFormatBase@str_format_internal@absl@@V?$allocator@UConversionItem@ParsedFormatBase@str_format_internal@absl@@@__1@std@@@__1@std@@AAEXXZ
    ?__invalidate_all_iterators@?$vector@UTransition@cctz@time_internal@absl@@V?$allocator@UTransition@cctz@time_internal@absl@@@__1@std@@@__1@std@@AAEXXZ
    ?__invalidate_all_iterators@?$vector@UTransitionType@cctz@time_internal@absl@@V?$allocator@UTransitionType@cctz@time_internal@absl@@@__1@std@@@__1@std@@AAEXXZ
    ?__invalidate_all_iterators@?$vector@UViableSubstitution@strings_internal@absl@@V?$allocator@UViableSubstitution@strings_internal@absl@@@__1@std@@@__1@std@@AAEXXZ
    ?__invalidate_all_iterators@?$vector@VFormatArgImpl@str_format_internal@absl@@V?$allocator@VFormatArgImpl@str_format_internal@absl@@@__1@std@@@__1@std@@AAEXXZ
    ?__invalidate_iterators_past@?$vector@PAUCordRep@cord_internal@absl@@V?$allocator@PAUCordRep@cord_internal@absl@@@__1@std@@@__1@std@@AAEXPAPAUCordRep@cord_internal@absl@@@Z
    ?__invalidate_iterators_past@?$vector@UTransition@cctz@time_internal@absl@@V?$allocator@UTransition@cctz@time_internal@absl@@@__1@std@@@__1@std@@AAEXPAUTransition@cctz@time_internal@absl@@@Z
    ?__invalidate_iterators_past@?$vector@UTransitionType@cctz@time_internal@absl@@V?$allocator@UTransitionType@cctz@time_internal@absl@@@__1@std@@@__1@std@@AAEXPAUTransitionType@cctz@time_internal@absl@@@Z
    ?__invalidate_iterators_past@?$vector@UViableSubstitution@strings_internal@absl@@V?$allocator@UViableSubstitution@strings_internal@absl@@@__1@std@@@__1@std@@AAEXPAUViableSubstitution@strings_internal@absl@@@Z
    ?__invalidate_iterators_past@?$vector@VFormatArgImpl@str_format_internal@absl@@V?$allocator@VFormatArgImpl@str_format_internal@absl@@@__1@std@@@__1@std@@AAEXPAVFormatArgImpl@str_format_internal@absl@@@Z
    ?__make_iter@?$vector@PAVCordzHandle@cord_internal@absl@@V?$allocator@PAVCordzHandle@cord_internal@absl@@@__1@std@@@__1@std@@AAE?AV?$__wrap_iter@PAPAVCordzHandle@cord_internal@absl@@@23@PAPAVCordzHandle@cord_internal@absl@@@Z
    ?__make_iter@?$vector@UConversionItem@ParsedFormatBase@str_format_internal@absl@@V?$allocator@UConversionItem@ParsedFormatBase@str_format_internal@absl@@@__1@std@@@__1@std@@ABE?AV?$__wrap_iter@PBUConversionItem@ParsedFormatBase@str_format_internal@absl@@@23@PBUConversionItem@ParsedFormatBase@str_format_internal@absl@@@Z
    ?__make_iter@?$vector@UTransition@cctz@time_internal@absl@@V?$allocator@UTransition@cctz@time_internal@absl@@@__1@std@@@__1@std@@AAE?AV?$__wrap_iter@PAUTransition@cctz@time_internal@absl@@@23@PAUTransition@cctz@time_internal@absl@@@Z
    ?__make_iter@?$vector@UTransitionType@cctz@time_internal@absl@@V?$allocator@UTransitionType@cctz@time_internal@absl@@@__1@std@@@__1@std@@AAE?AV?$__wrap_iter@PAUTransitionType@cctz@time_internal@absl@@@23@PAUTransitionType@cctz@time_internal@absl@@@Z
    ?__move_range@?$vector@UTransition@cctz@time_internal@absl@@V?$allocator@UTransition@cctz@time_internal@absl@@@__1@std@@@__1@std@@AAEXPAUTransition@cctz@time_internal@absl@@00@Z
    ?__move_range@?$vector@UTransitionType@cctz@time_internal@absl@@V?$allocator@UTransitionType@cctz@time_internal@absl@@@__1@std@@@__1@std@@AAEXPAUTransitionType@cctz@time_internal@absl@@00@Z
    ?__node_alloc@?$__hash_table@U?$__hash_value_type@V?$basic_string@DU?$char_traits@D@__1@std@@V?$allocator@D@23@@__1@std@@PBVImpl@time_zone@cctz@time_internal@absl@@@__1@std@@V?$__unordered_map_hasher@V?$basic_string@DU?$char_traits@D@__1@std@@V?$allocator@D@23@@__1@std@@U?$__hash_value_type@V?$basic_string@DU?$char_traits@D@__1@std@@V?$allocator@D@23@@__1@std@@PBVImpl@time_zone@cctz@time_internal@absl@@@23@U?$hash@V?$basic_string@DU?$char_traits@D@__1@std@@V?$allocator@D@23@@__1@std@@@23@U?$equal_to@V?$basic_string@DU?$char_traits@D@__1@std@@V?$allocator@D@23@@__1@std@@@23@$00@23@V?$__unordered_map_equal@V?$basic_string@DU?$char_traits@D@__1@std@@V?$allocator@D@23@@__1@std@@U?$__hash_value_type@V?$basic_string@DU?$char_traits@D@__1@std@@V?$allocator@D@23@@__1@std@@PBVImpl@time_zone@cctz@time_internal@absl@@@23@U?$equal_to@V?$basic_string@DU?$char_traits@D@__1@std@@V?$allocator@D@23@@__1@std@@@23@U?$hash@V?$basic_string@DU?$char_traits@D@__1@std@@V?$allocator@D@23@@__1@std@@@23@$00@23@V?$allocator@U?$__hash_value_type@V?$basic_string@DU?$char_traits@D@__1@std@@V?$allocator@D@23@@__1@std@@PBVImpl@time_zone@cctz@time_internal@absl@@@__1@std@@@23@@__1@std@@QAEAAV?$allocator@U?$__hash_node@U?$__hash_value_type@V?$basic_string@DU?$char_traits@D@__1@std@@V?$allocator@D@23@@__1@std@@PBVImpl@time_zone@cctz@time_internal@absl@@@__1@std@@PAX@__1@std@@@23@XZ
    ?__ptr@?$__hash_node_base@PAU?$__hash_node@U?$__hash_value_type@V?$basic_string@DU?$char_traits@D@__1@std@@V?$allocator@D@23@@__1@std@@PBVImpl@time_zone@cctz@time_internal@absl@@@__1@std@@PAX@__1@std@@@__1@std@@QAEPAU123@XZ
    ?__recommend@?$vector@PAUCordRep@cord_internal@absl@@V?$allocator@PAUCordRep@cord_internal@absl@@@__1@std@@@__1@std@@ABEII@Z
    ?__recommend@?$vector@PAVCordzHandle@cord_internal@absl@@V?$allocator@PAVCordzHandle@cord_internal@absl@@@__1@std@@@__1@std@@ABEII@Z
    ?__recommend@?$vector@PBVCordzHandle@cord_internal@absl@@V?$allocator@PBVCordzHandle@cord_internal@absl@@@__1@std@@@__1@std@@ABEII@Z
    ?__recommend@?$vector@UConversionItem@ParsedFormatBase@str_format_internal@absl@@V?$allocator@UConversionItem@ParsedFormatBase@str_format_internal@absl@@@__1@std@@@__1@std@@ABEII@Z
    ?__recommend@?$vector@UTransition@cctz@time_internal@absl@@V?$allocator@UTransition@cctz@time_internal@absl@@@__1@std@@@__1@std@@ABEII@Z
    ?__recommend@?$vector@UTransitionType@cctz@time_internal@absl@@V?$allocator@UTransitionType@cctz@time_internal@absl@@@__1@std@@@__1@std@@ABEII@Z
    ?__recommend@?$vector@UViableSubstitution@strings_internal@absl@@V?$allocator@UViableSubstitution@strings_internal@absl@@@__1@std@@@__1@std@@ABEII@Z
    ?__recommend@?$vector@VFormatArgImpl@str_format_internal@absl@@V?$allocator@VFormatArgImpl@str_format_internal@absl@@@__1@std@@@__1@std@@ABEII@Z
    ?__rehash@?$__hash_table@U?$__hash_value_type@V?$basic_string@DU?$char_traits@D@__1@std@@V?$allocator@D@23@@__1@std@@PBVImpl@time_zone@cctz@time_internal@absl@@@__1@std@@V?$__unordered_map_hasher@V?$basic_string@DU?$char_traits@D@__1@std@@V?$allocator@D@23@@__1@std@@U?$__hash_value_type@V?$basic_string@DU?$char_traits@D@__1@std@@V?$allocator@D@23@@__1@std@@PBVImpl@time_zone@cctz@time_internal@absl@@@23@U?$hash@V?$basic_string@DU?$char_traits@D@__1@std@@V?$allocator@D@23@@__1@std@@@23@U?$equal_to@V?$basic_string@DU?$char_traits@D@__1@std@@V?$allocator@D@23@@__1@std@@@23@$00@23@V?$__unordered_map_equal@V?$basic_string@DU?$char_traits@D@__1@std@@V?$allocator@D@23@@__1@std@@U?$__hash_value_type@V?$basic_string@DU?$char_traits@D@__1@std@@V?$allocator@D@23@@__1@std@@PBVImpl@time_zone@cctz@time_internal@absl@@@23@U?$equal_to@V?$basic_string@DU?$char_traits@D@__1@std@@V?$allocator@D@23@@__1@std@@@23@U?$hash@V?$basic_string@DU?$char_traits@D@__1@std@@V?$allocator@D@23@@__1@std@@@23@$00@23@V?$allocator@U?$__hash_value_type@V?$basic_string@DU?$char_traits@D@__1@std@@V?$allocator@D@23@@__1@std@@PBVImpl@time_zone@cctz@time_internal@absl@@@__1@std@@@23@@__1@std@@AAEXI@Z
    ?__swap_out_circular_buffer@?$vector@PAUCordRep@cord_internal@absl@@V?$allocator@PAUCordRep@cord_internal@absl@@@__1@std@@@__1@std@@AAEXAAU?$__split_buffer@PAUCordRep@cord_internal@absl@@AAV?$allocator@PAUCordRep@cord_internal@absl@@@__1@std@@@23@@Z
    ?__swap_out_circular_buffer@?$vector@PAVCordzHandle@cord_internal@absl@@V?$allocator@PAVCordzHandle@cord_internal@absl@@@__1@std@@@__1@std@@AAEXAAU?$__split_buffer@PAVCordzHandle@cord_internal@absl@@AAV?$allocator@PAVCordzHandle@cord_internal@absl@@@__1@std@@@23@@Z
    ?__swap_out_circular_buffer@?$vector@PBVCordzHandle@cord_internal@absl@@V?$allocator@PBVCordzHandle@cord_internal@absl@@@__1@std@@@__1@std@@AAEXAAU?$__split_buffer@PBVCordzHandle@cord_internal@absl@@AAV?$allocator@PBVCordzHandle@cord_internal@absl@@@__1@std@@@23@@Z
    ?__swap_out_circular_buffer@?$vector@UConversionItem@ParsedFormatBase@str_format_internal@absl@@V?$allocator@UConversionItem@ParsedFormatBase@str_format_internal@absl@@@__1@std@@@__1@std@@AAEXAAU?$__split_buffer@UConversionItem@ParsedFormatBase@str_format_internal@absl@@AAV?$allocator@UConversionItem@ParsedFormatBase@str_format_internal@absl@@@__1@std@@@23@@Z
    ?__swap_out_circular_buffer@?$vector@UTransition@cctz@time_internal@absl@@V?$allocator@UTransition@cctz@time_internal@absl@@@__1@std@@@__1@std@@AAEPAUTransition@cctz@time_internal@absl@@AAU?$__split_buffer@UTransition@cctz@time_internal@absl@@AAV?$allocator@UTransition@cctz@time_internal@absl@@@__1@std@@@23@PAU4567@@Z
    ?__swap_out_circular_buffer@?$vector@UTransition@cctz@time_internal@absl@@V?$allocator@UTransition@cctz@time_internal@absl@@@__1@std@@@__1@std@@AAEXAAU?$__split_buffer@UTransition@cctz@time_internal@absl@@AAV?$allocator@UTransition@cctz@time_internal@absl@@@__1@std@@@23@@Z
    ?__swap_out_circular_buffer@?$vector@UTransitionType@cctz@time_internal@absl@@V?$allocator@UTransitionType@cctz@time_internal@absl@@@__1@std@@@__1@std@@AAEPAUTransitionType@cctz@time_internal@absl@@AAU?$__split_buffer@UTransitionType@cctz@time_internal@absl@@AAV?$allocator@UTransitionType@cctz@time_internal@absl@@@__1@std@@@23@PAU4567@@Z
    ?__swap_out_circular_buffer@?$vector@UTransitionType@cctz@time_internal@absl@@V?$allocator@UTransitionType@cctz@time_internal@absl@@@__1@std@@@__1@std@@AAEXAAU?$__split_buffer@UTransitionType@cctz@time_internal@absl@@AAV?$allocator@UTransitionType@cctz@time_internal@absl@@@__1@std@@@23@@Z
    ?__swap_out_circular_buffer@?$vector@UViableSubstitution@strings_internal@absl@@V?$allocator@UViableSubstitution@strings_internal@absl@@@__1@std@@@__1@std@@AAEXAAU?$__split_buffer@UViableSubstitution@strings_internal@absl@@AAV?$allocator@UViableSubstitution@strings_internal@absl@@@__1@std@@@23@@Z
    ?__upcast@?$__hash_node_base@PAU?$__hash_node@U?$__hash_value_type@V?$basic_string@DU?$char_traits@D@__1@std@@V?$allocator@D@23@@__1@std@@PBVImpl@time_zone@cctz@time_internal@absl@@@__1@std@@PAX@__1@std@@@__1@std@@QAEPAU?$__hash_node@U?$__hash_value_type@V?$basic_string@DU?$char_traits@D@__1@std@@V?$allocator@D@23@@__1@std@@PBVImpl@time_zone@cctz@time_internal@absl@@@__1@std@@PAX@23@XZ
    ?__vallocate@?$vector@PAUCordRep@cord_internal@absl@@V?$allocator@PAUCordRep@cord_internal@absl@@@__1@std@@@__1@std@@AAEXI@Z
    ?__vallocate@?$vector@VFormatArgImpl@str_format_internal@absl@@V?$allocator@VFormatArgImpl@str_format_internal@absl@@@__1@std@@@__1@std@@AAEXI@Z
    ?__vdeallocate@?$vector@VFormatArgImpl@str_format_internal@absl@@V?$allocator@VFormatArgImpl@str_format_internal@absl@@@__1@std@@@__1@std@@AAEXXZ
    ?_mm_cmpgt_epi8_fixed@container_internal@absl@@YA?AT__m128i@@T3@0@Z
    ?advance@CordRepRing@cord_internal@absl@@QBEII@Z
    ?advance@CordRepRing@cord_internal@absl@@QBEIII@Z
    ?align@detail@cctz@time_internal@absl@@YA?AUfields@1234@Uday_tag@1234@U51234@@Z
    ?align@detail@cctz@time_internal@absl@@YA?AUfields@1234@Uhour_tag@1234@U51234@@Z
    ?align@detail@cctz@time_internal@absl@@YA?AUfields@1234@Uminute_tag@1234@U51234@@Z
    ?align@detail@cctz@time_internal@absl@@YA?AUfields@1234@Umonth_tag@1234@U51234@@Z
    ?align@detail@cctz@time_internal@absl@@YA?AUfields@1234@Usecond_tag@1234@U51234@@Z
    ?align@detail@cctz@time_internal@absl@@YA?AUfields@1234@Uyear_tag@1234@U51234@@Z
    ?alloc@Storage@?$FixedArray@PAUCordRep@cord_internal@absl@@$0PPPPPPPP@V?$allocator@PAUCordRep@cord_internal@absl@@@__1@std@@@absl@@QAEAAV?$allocator@PAUCordRep@cord_internal@absl@@@__1@std@@XZ
    ?allocate@?$allocator@PAPBVImpl@time_zone@cctz@time_internal@absl@@@__1@std@@QAEPAPAPBVImpl@time_zone@cctz@time_internal@absl@@I@Z
    ?allocate@?$allocator@PAU?$__hash_node_base@PAU?$__hash_node@U?$__hash_value_type@V?$basic_string@DU?$char_traits@D@__1@std@@V?$allocator@D@23@@__1@std@@PBVImpl@time_zone@cctz@time_internal@absl@@@__1@std@@PAX@__1@std@@@__1@std@@@__1@std@@QAEPAPAU?$__hash_node_base@PAU?$__hash_node@U?$__hash_value_type@V?$basic_string@DU?$char_traits@D@__1@std@@V?$allocator@D@23@@__1@std@@PBVImpl@time_zone@cctz@time_internal@absl@@@__1@std@@PAX@__1@std@@@23@I@Z
    ?allocate@?$allocator@PAUCordRep@cord_internal@absl@@@__1@std@@QAEPAPAUCordRep@cord_internal@absl@@I@Z
    ?allocate@?$allocator@PAVCordzHandle@cord_internal@absl@@@__1@std@@QAEPAPAVCordzHandle@cord_internal@absl@@I@Z
    ?allocate@?$allocator@PBUCordRep@cord_internal@absl@@@__1@std@@QAEPAPBUCordRep@cord_internal@absl@@I@Z
    ?allocate@?$allocator@PBVCordzHandle@cord_internal@absl@@@__1@std@@QAEPAPBVCordzHandle@cord_internal@absl@@I@Z
    ?allocate@?$allocator@PBVImpl@time_zone@cctz@time_internal@absl@@@__1@std@@QAEPAPBVImpl@time_zone@cctz@time_internal@absl@@I@Z
    ?allocate@?$allocator@U?$__hash_node@U?$__hash_value_type@V?$basic_string@DU?$char_traits@D@__1@std@@V?$allocator@D@23@@__1@std@@PBVImpl@time_zone@cctz@time_internal@absl@@@__1@std@@PAX@__1@std@@@__1@std@@QAEPAU?$__hash_node@U?$__hash_value_type@V?$basic_string@DU?$char_traits@D@__1@std@@V?$allocator@D@23@@__1@std@@PBVImpl@time_zone@cctz@time_internal@absl@@@__1@std@@PAX@23@I@Z
    ?allocate@?$allocator@UConversionItem@ParsedFormatBase@str_format_internal@absl@@@__1@std@@QAEPAUConversionItem@ParsedFormatBase@str_format_internal@absl@@I@Z
    ?allocate@?$allocator@UPayload@status_internal@absl@@@__1@std@@QAEPAUPayload@status_internal@absl@@I@Z
    ?allocate@?$allocator@USubRange@absl@@@__1@std@@QAEPAUSubRange@absl@@I@Z
    ?allocate@?$allocator@UTransition@cctz@time_internal@absl@@@__1@std@@QAEPAUTransition@cctz@time_internal@absl@@I@Z
    ?allocate@?$allocator@UTransitionType@cctz@time_internal@absl@@@__1@std@@QAEPAUTransitionType@cctz@time_internal@absl@@I@Z
    ?allocate@?$allocator@UViableSubstitution@strings_internal@absl@@@__1@std@@QAEPAUViableSubstitution@strings_internal@absl@@I@Z
    ?allocate@?$allocator@VFormatArgImpl@str_format_internal@absl@@@__1@std@@QAEPAVFormatArgImpl@str_format_internal@absl@@I@Z
    ?allocate@?$allocator_traits@V?$allocator@H@__1@std@@@absl@@SAPAHAAV?$allocator@H@__1@std@@I@Z
    ?allocate@?$allocator_traits@V?$allocator@PAPBVImpl@time_zone@cctz@time_internal@absl@@@__1@std@@@__1@std@@SAPAPAPBVImpl@time_zone@cctz@time_internal@absl@@AAV?$allocator@PAPBVImpl@time_zone@cctz@time_internal@absl@@@23@I@Z
    ?allocate@?$allocator_traits@V?$allocator@PAU?$__hash_node_base@PAU?$__hash_node@U?$__hash_value_type@V?$basic_string@DU?$char_traits@D@__1@std@@V?$allocator@D@23@@__1@std@@PBVImpl@time_zone@cctz@time_internal@absl@@@__1@std@@PAX@__1@std@@@__1@std@@@__1@std@@@__1@std@@SAPAPAU?$__hash_node_base@PAU?$__hash_node@U?$__hash_value_type@V?$basic_string@DU?$char_traits@D@__1@std@@V?$allocator@D@23@@__1@std@@PBVImpl@time_zone@cctz@time_internal@absl@@@__1@std@@PAX@__1@std@@@23@AAV?$allocator@PAU?$__hash_node_base@PAU?$__hash_node@U?$__hash_value_type@V?$basic_string@DU?$char_traits@D@__1@std@@V?$allocator@D@23@@__1@std@@PBVImpl@time_zone@cctz@time_internal@absl@@@__1@std@@PAX@__1@std@@@__1@std@@@23@I@Z
    ?allocate@?$allocator_traits@V?$allocator@PAUCordRep@cord_internal@absl@@@__1@std@@@__1@std@@SAPAPAUCordRep@cord_internal@absl@@AAV?$allocator@PAUCordRep@cord_internal@absl@@@23@I@Z
    ?allocate@?$allocator_traits@V?$allocator@PAUCordRep@cord_internal@absl@@@__1@std@@@absl@@SAPAPAUCordRep@cord_internal@2@AAV?$allocator@PAUCordRep@cord_internal@absl@@@__1@std@@I@Z
    ?allocate@?$allocator_traits@V?$allocator@PAVCordzHandle@cord_internal@absl@@@__1@std@@@__1@std@@SAPAPAVCordzHandle@cord_internal@absl@@AAV?$allocator@PAVCordzHandle@cord_internal@absl@@@23@I@Z
    ?allocate@?$allocator_traits@V?$allocator@PBUCordRep@cord_internal@absl@@@__1@std@@@absl@@SAPAPBUCordRep@cord_internal@2@AAV?$allocator@PBUCordRep@cord_internal@absl@@@__1@std@@I@Z
    ?allocate@?$allocator_traits@V?$allocator@PBVCordzHandle@cord_internal@absl@@@__1@std@@@__1@std@@SAPAPBVCordzHandle@cord_internal@absl@@AAV?$allocator@PBVCordzHandle@cord_internal@absl@@@23@I@Z
    ?allocate@?$allocator_traits@V?$allocator@PBVImpl@time_zone@cctz@time_internal@absl@@@__1@std@@@__1@std@@SAPAPBVImpl@time_zone@cctz@time_internal@absl@@AAV?$allocator@PBVImpl@time_zone@cctz@time_internal@absl@@@23@I@Z
    ?allocate@?$allocator_traits@V?$allocator@U?$__hash_node@U?$__hash_value_type@V?$basic_string@DU?$char_traits@D@__1@std@@V?$allocator@D@23@@__1@std@@PBVImpl@time_zone@cctz@time_internal@absl@@@__1@std@@PAX@__1@std@@@__1@std@@@__1@std@@SAPAU?$__hash_node@U?$__hash_value_type@V?$basic_string@DU?$char_traits@D@__1@std@@V?$allocator@D@23@@__1@std@@PBVImpl@time_zone@cctz@time_internal@absl@@@__1@std@@PAX@23@AAV?$allocator@U?$__hash_node@U?$__hash_value_type@V?$basic_string@DU?$char_traits@D@__1@std@@V?$allocator@D@23@@__1@std@@PBVImpl@time_zone@cctz@time_internal@absl@@@__1@std@@PAX@__1@std@@@23@I@Z
    ?allocate@?$allocator_traits@V?$allocator@UConversionItem@ParsedFormatBase@str_format_internal@absl@@@__1@std@@@__1@std@@SAPAUConversionItem@ParsedFormatBase@str_format_internal@absl@@AAV?$allocator@UConversionItem@ParsedFormatBase@str_format_internal@absl@@@23@I@Z
    ?allocate@?$allocator_traits@V?$allocator@UPayload@status_internal@absl@@@__1@std@@@absl@@SAPAUPayload@status_internal@2@AAV?$allocator@UPayload@status_internal@absl@@@__1@std@@I@Z
    ?allocate@?$allocator_traits@V?$allocator@USubRange@absl@@@__1@std@@@absl@@SAPAUSubRange@2@AAV?$allocator@USubRange@absl@@@__1@std@@I@Z
    ?allocate@?$allocator_traits@V?$allocator@UTransition@cctz@time_internal@absl@@@__1@std@@@__1@std@@SAPAUTransition@cctz@time_internal@absl@@AAV?$allocator@UTransition@cctz@time_internal@absl@@@23@I@Z
    ?allocate@?$allocator_traits@V?$allocator@UTransitionType@cctz@time_internal@absl@@@__1@std@@@__1@std@@SAPAUTransitionType@cctz@time_internal@absl@@AAV?$allocator@UTransitionType@cctz@time_internal@absl@@@23@I@Z
    ?allocate@?$allocator_traits@V?$allocator@UViableSubstitution@strings_internal@absl@@@__1@std@@@__1@std@@SAPAUViableSubstitution@strings_internal@absl@@AAV?$allocator@UViableSubstitution@strings_internal@absl@@@23@I@Z
    ?allocate@?$allocator_traits@V?$allocator@VFormatArgImpl@str_format_internal@absl@@@__1@std@@@__1@std@@SAPAVFormatArgImpl@str_format_internal@absl@@AAV?$allocator@VFormatArgImpl@str_format_internal@absl@@@23@I@Z
    ?arg@BoundConversion@str_format_internal@absl@@QBEPBVFormatArgImpl@23@XZ
    ?as_chars@InlineData@cord_internal@absl@@QAEPADXZ
    ?as_chars@InlineData@cord_internal@absl@@QBEPBDXZ
    ?as_conv@ConvTag@str_format_internal@absl@@QBE?AW4FormatConversionChar@3@XZ
    ?as_flags@ConvTag@str_format_internal@absl@@QBE?AW4Flags@23@XZ
    ?as_length@ConvTag@str_format_internal@absl@@QBE?AW4LengthMod@23@XZ
    ?as_tree@InlineData@cord_internal@absl@@QBEPAUCordRep@23@XZ
    ?as_tree@InlineRep@Cord@absl@@QBEPAUCordRep@cord_internal@3@XZ
    ?ascii_isdigit@absl@@YA_NE@Z
    ?ascii_isprint@absl@@YA_NE@Z
    ?ascii_isspace@absl@@YA_NE@Z
    ?ascii_isxdigit@absl@@YA_NE@Z
    ?ascii_tolower@absl@@YADE@Z
    ?ascii_toupper@absl@@YADE@Z
    ?back@?$InlinedVector@H$0CP@V?$allocator@H@__1@std@@@absl@@QAEAAHXZ
    ?back@?$InlinedVector@PAUCordRep@cord_internal@absl@@$01V?$allocator@PAUCordRep@cord_internal@absl@@@__1@std@@@absl@@QAEAAPAUCordRep@cord_internal@2@XZ
    ?back@?$InlinedVector@PAUCordRep@cord_internal@absl@@$0CP@V?$allocator@PAUCordRep@cord_internal@absl@@@__1@std@@@absl@@QAEAAPAUCordRep@cord_internal@2@XZ
    ?back@?$InlinedVector@PBUCordRep@cord_internal@absl@@$0CP@V?$allocator@PBUCordRep@cord_internal@absl@@@__1@std@@@absl@@QAEAAPBUCordRep@cord_internal@2@XZ
    ?back@?$InlinedVector@USubRange@absl@@$0CP@V?$allocator@USubRange@absl@@@__1@std@@@absl@@QAEAAUSubRange@2@XZ
    ?back@?$vector@PAUCordRep@cord_internal@absl@@V?$allocator@PAUCordRep@cord_internal@absl@@@__1@std@@@__1@std@@QAEAAPAUCordRep@cord_internal@absl@@XZ
    ?back@?$vector@UConversionItem@ParsedFormatBase@str_format_internal@absl@@V?$allocator@UConversionItem@ParsedFormatBase@str_format_internal@absl@@@__1@std@@@__1@std@@QAEAAUConversionItem@ParsedFormatBase@str_format_internal@absl@@XZ
    ?back@?$vector@UTransition@cctz@time_internal@absl@@V?$allocator@UTransition@cctz@time_internal@absl@@@__1@std@@@__1@std@@QAEAAUTransition@cctz@time_internal@absl@@XZ
    ?back@?$vector@UTransitionType@cctz@time_internal@absl@@V?$allocator@UTransitionType@cctz@time_internal@absl@@@__1@std@@@__1@std@@QAEAAUTransitionType@cctz@time_internal@absl@@XZ
    ?back@?$vector@UViableSubstitution@strings_internal@absl@@V?$allocator@UViableSubstitution@strings_internal@absl@@@__1@std@@@__1@std@@QAEAAUViableSubstitution@strings_internal@absl@@XZ
    ?back@CordRepBtree@cord_internal@absl@@QBEIXZ
    ?base@?$__wrap_iter@PAPAVCordzHandle@cord_internal@absl@@@__1@std@@QBEPAPAVCordzHandle@cord_internal@absl@@XZ
    ?base@?$__wrap_iter@PAUTransition@cctz@time_internal@absl@@@__1@std@@QBEPAUTransition@cctz@time_internal@absl@@XZ
    ?base@?$__wrap_iter@PAUTransitionType@cctz@time_internal@absl@@@__1@std@@QBEPAUTransitionType@cctz@time_internal@absl@@XZ
    ?base@?$__wrap_iter@PBUConversionItem@ParsedFormatBase@str_format_internal@absl@@@__1@std@@QBEPBUConversionItem@ParsedFormatBase@str_format_internal@absl@@XZ
    ?base@?$__wrap_iter@PBUTransition@cctz@time_internal@absl@@@__1@std@@QBEPBUTransition@cctz@time_internal@absl@@XZ
    ?base@?$__wrap_iter@PBUTransitionType@cctz@time_internal@absl@@@__1@std@@QBEPBUTransitionType@cctz@time_internal@absl@@XZ
    ?base@?$move_iterator@PAPAPBVImpl@time_zone@cctz@time_internal@absl@@@__1@std@@QBEPAPAPBVImpl@time_zone@cctz@time_internal@absl@@XZ
    ?base@?$move_iterator@PAUTransition@cctz@time_internal@absl@@@__1@std@@QBEPAUTransition@cctz@time_internal@absl@@XZ
    ?base@?$move_iterator@PAUTransitionType@cctz@time_internal@absl@@@__1@std@@QBEPAUTransitionType@cctz@time_internal@absl@@XZ
    ?begin@?$InlinedVector@PAUCordRep@cord_internal@absl@@$0CP@V?$allocator@PAUCordRep@cord_internal@absl@@@__1@std@@@absl@@QAEPAPAUCordRep@cord_internal@2@XZ
    ?begin@?$InlinedVector@UPayload@status_internal@absl@@$00V?$allocator@UPayload@status_internal@absl@@@__1@std@@@absl@@QAEPAUPayload@status_internal@2@XZ
    ?begin@?$InlinedVector@UPayload@status_internal@absl@@$00V?$allocator@UPayload@status_internal@absl@@@__1@std@@@absl@@QBEPBUPayload@status_internal@2@XZ
    ?begin@?$Span@$$CBVFormatArgImpl@str_format_internal@absl@@@absl@@QBEPBVFormatArgImpl@str_format_internal@2@XZ
    ?begin@?$Span@QAUCordRep@cord_internal@absl@@@absl@@QBEPBQAUCordRep@cord_internal@2@XZ
    ?begin@?$__hash_table@U?$__hash_value_type@V?$basic_string@DU?$char_traits@D@__1@std@@V?$allocator@D@23@@__1@std@@PBVImpl@time_zone@cctz@time_internal@absl@@@__1@std@@V?$__unordered_map_hasher@V?$basic_string@DU?$char_traits@D@__1@std@@V?$allocator@D@23@@__1@std@@U?$__hash_value_type@V?$basic_string@DU?$char_traits@D@__1@std@@V?$allocator@D@23@@__1@std@@PBVImpl@time_zone@cctz@time_internal@absl@@@23@U?$hash@V?$basic_string@DU?$char_traits@D@__1@std@@V?$allocator@D@23@@__1@std@@@23@U?$equal_to@V?$basic_string@DU?$char_traits@D@__1@std@@V?$allocator@D@23@@__1@std@@@23@$00@23@V?$__unordered_map_equal@V?$basic_string@DU?$char_traits@D@__1@std@@V?$allocator@D@23@@__1@std@@U?$__hash_value_type@V?$basic_string@DU?$char_traits@D@__1@std@@V?$allocator@D@23@@__1@std@@PBVImpl@time_zone@cctz@time_internal@absl@@@23@U?$equal_to@V?$basic_string@DU?$char_traits@D@__1@std@@V?$allocator@D@23@@__1@std@@@23@U?$hash@V?$basic_string@DU?$char_traits@D@__1@std@@V?$allocator@D@23@@__1@std@@@23@$00@23@V?$allocator@U?$__hash_value_type@V?$basic_string@DU?$char_traits@D@__1@std@@V?$allocator@D@23@@__1@std@@PBVImpl@time_zone@cctz@time_internal@absl@@@__1@std@@@23@@__1@std@@QAE?AV?$__hash_iterator@PAU?$__hash_node@U?$__hash_value_type@V?$basic_string@DU?$char_traits@D@__1@std@@V?$allocator@D@23@@__1@std@@PBVImpl@time_zone@cctz@time_internal@absl@@@__1@std@@PAX@__1@std@@@23@XZ
    ?begin@?$__split_buffer@PAPBVImpl@time_zone@cctz@time_internal@absl@@V?$allocator@PAPBVImpl@time_zone@cctz@time_internal@absl@@@__1@std@@@__1@std@@QAEPAPAPBVImpl@time_zone@cctz@time_internal@absl@@XZ
    ?begin@?$initializer_list@PAUCordRep@cord_internal@absl@@@std@@QBEPBQAUCordRep@cord_internal@absl@@XZ
    ?begin@?$initializer_list@U?$pair@Vstring_view@absl@@V12@@__1@std@@@std@@QBEPBU?$pair@Vstring_view@absl@@V12@@__1@2@XZ
    ?begin@?$initializer_list@VFormatArgImpl@str_format_internal@absl@@@std@@QBEPBVFormatArgImpl@str_format_internal@absl@@XZ
    ?begin@?$initializer_list@Vstring_view@absl@@@std@@QBEPBVstring_view@absl@@XZ
    ?begin@?$initializer_list@W4FormatConversionCharSet@absl@@@std@@QBEPBW4FormatConversionCharSet@absl@@XZ
    ?begin@?$unordered_map@V?$basic_string@DU?$char_traits@D@__1@std@@V?$allocator@D@23@@__1@std@@PBVImpl@time_zone@cctz@time_internal@absl@@U?$hash@V?$basic_string@DU?$char_traits@D@__1@std@@V?$allocator@D@23@@__1@std@@@23@U?$equal_to@V?$basic_string@DU?$char_traits@D@__1@std@@V?$allocator@D@23@@__1@std@@@23@V?$allocator@U?$pair@$$CBV?$basic_string@DU?$char_traits@D@__1@std@@V?$allocator@D@23@@__1@std@@PBVImpl@time_zone@cctz@time_internal@absl@@@__1@std@@@23@@__1@std@@QAE?AV?$__hash_map_iterator@V?$__hash_iterator@PAU?$__hash_node@U?$__hash_value_type@V?$basic_string@DU?$char_traits@D@__1@std@@V?$allocator@D@23@@__1@std@@PBVImpl@time_zone@cctz@time_internal@absl@@@__1@std@@PAX@__1@std@@@__1@std@@@23@XZ
    ?begin@?$vector@PAVCordzHandle@cord_internal@absl@@V?$allocator@PAVCordzHandle@cord_internal@absl@@@__1@std@@@__1@std@@QAE?AV?$__wrap_iter@PAPAVCordzHandle@cord_internal@absl@@@23@XZ
    ?begin@?$vector@UConversionItem@ParsedFormatBase@str_format_internal@absl@@V?$allocator@UConversionItem@ParsedFormatBase@str_format_internal@absl@@@__1@std@@@__1@std@@QBE?AV?$__wrap_iter@PBUConversionItem@ParsedFormatBase@str_format_internal@absl@@@23@XZ
    ?begin@?$vector@UTransition@cctz@time_internal@absl@@V?$allocator@UTransition@cctz@time_internal@absl@@@__1@std@@@__1@std@@QAE?AV?$__wrap_iter@PAUTransition@cctz@time_internal@absl@@@23@XZ
    ?begin@?$vector@UTransitionType@cctz@time_internal@absl@@V?$allocator@UTransitionType@cctz@time_internal@absl@@@__1@std@@@__1@std@@QAE?AV?$__wrap_iter@PAUTransitionType@cctz@time_internal@absl@@@23@XZ
    ?begin@ChunkRange@Cord@absl@@QBE?AVChunkIterator@23@XZ
    ?begin@CordRepBtree@cord_internal@absl@@QBEIXZ
    ?begin@Storage@?$FixedArray@PAUCordRep@cord_internal@absl@@$0PPPPPPPP@V?$allocator@PAUCordRep@cord_internal@absl@@@__1@std@@@absl@@QBEPAPAUCordRep@cord_internal@3@XZ
    ?begin@string_view@absl@@QBEPBDXZ
    ?btree@CordRep@cord_internal@absl@@QAEPAVCordRepBtree@23@XZ
    ?btree@CordRep@cord_internal@absl@@QBEPBVCordRepBtree@23@XZ
    ?btree@CordRepBtreeNavigator@cord_internal@absl@@QBEPAVCordRepBtree@23@XZ
    ?btree@CordRepBtreeReader@cord_internal@absl@@QBEPAVCordRepBtree@23@XZ
    ?bucket_count@?$__hash_table@U?$__hash_value_type@V?$basic_string@DU?$char_traits@D@__1@std@@V?$allocator@D@23@@__1@std@@PBVImpl@time_zone@cctz@time_internal@absl@@@__1@std@@V?$__unordered_map_hasher@V?$basic_string@DU?$char_traits@D@__1@std@@V?$allocator@D@23@@__1@std@@U?$__hash_value_type@V?$basic_string@DU?$char_traits@D@__1@std@@V?$allocator@D@23@@__1@std@@PBVImpl@time_zone@cctz@time_internal@absl@@@23@U?$hash@V?$basic_string@DU?$char_traits@D@__1@std@@V?$allocator@D@23@@__1@std@@@23@U?$equal_to@V?$basic_string@DU?$char_traits@D@__1@std@@V?$allocator@D@23@@__1@std@@@23@$00@23@V?$__unordered_map_equal@V?$basic_string@DU?$char_traits@D@__1@std@@V?$allocator@D@23@@__1@std@@U?$__hash_value_type@V?$basic_string@DU?$char_traits@D@__1@std@@V?$allocator@D@23@@__1@std@@PBVImpl@time_zone@cctz@time_internal@absl@@@23@U?$equal_to@V?$basic_string@DU?$char_traits@D@__1@std@@V?$allocator@D@23@@__1@std@@@23@U?$hash@V?$basic_string@DU?$char_traits@D@__1@std@@V?$allocator@D@23@@__1@std@@@23@$00@23@V?$allocator@U?$__hash_value_type@V?$basic_string@DU?$char_traits@D@__1@std@@V?$allocator@D@23@@__1@std@@PBVImpl@time_zone@cctz@time_internal@absl@@@__1@std@@@23@@__1@std@@QBEIXZ
    ?capacity@?$__split_buffer@PAPBVImpl@time_zone@cctz@time_internal@absl@@AAV?$allocator@PAPBVImpl@time_zone@cctz@time_internal@absl@@@__1@std@@@__1@std@@QBEIXZ
    ?capacity@?$__split_buffer@PAPBVImpl@time_zone@cctz@time_internal@absl@@V?$allocator@PAPBVImpl@time_zone@cctz@time_internal@absl@@@__1@std@@@__1@std@@QBEIXZ
    ?capacity@?$__split_buffer@PAUCordRep@cord_internal@absl@@AAV?$allocator@PAUCordRep@cord_internal@absl@@@__1@std@@@__1@std@@QBEIXZ
    ?capacity@?$__split_buffer@PAVCordzHandle@cord_internal@absl@@AAV?$allocator@PAVCordzHandle@cord_internal@absl@@@__1@std@@@__1@std@@QBEIXZ
    ?capacity@?$__split_buffer@PBVCordzHandle@cord_internal@absl@@AAV?$allocator@PBVCordzHandle@cord_internal@absl@@@__1@std@@@__1@std@@QBEIXZ
    ?capacity@?$__split_buffer@UConversionItem@ParsedFormatBase@str_format_internal@absl@@AAV?$allocator@UConversionItem@ParsedFormatBase@str_format_internal@absl@@@__1@std@@@__1@std@@QBEIXZ
    ?capacity@?$__split_buffer@UTransition@cctz@time_internal@absl@@AAV?$allocator@UTransition@cctz@time_internal@absl@@@__1@std@@@__1@std@@QBEIXZ
    ?capacity@?$__split_buffer@UTransitionType@cctz@time_internal@absl@@AAV?$allocator@UTransitionType@cctz@time_internal@absl@@@__1@std@@@__1@std@@QBEIXZ
    ?capacity@?$__split_buffer@UViableSubstitution@strings_internal@absl@@AAV?$allocator@UViableSubstitution@strings_internal@absl@@@__1@std@@@__1@std@@QBEIXZ
    ?capacity@?$__vector_base@PAUCordRep@cord_internal@absl@@V?$allocator@PAUCordRep@cord_internal@absl@@@__1@std@@@__1@std@@IBEIXZ
    ?capacity@?$__vector_base@PAVCordzHandle@cord_internal@absl@@V?$allocator@PAVCordzHandle@cord_internal@absl@@@__1@std@@@__1@std@@IBEIXZ
    ?capacity@?$__vector_base@PBVCordzHandle@cord_internal@absl@@V?$allocator@PBVCordzHandle@cord_internal@absl@@@__1@std@@@__1@std@@IBEIXZ
    ?capacity@?$__vector_base@UConversionItem@ParsedFormatBase@str_format_internal@absl@@V?$allocator@UConversionItem@ParsedFormatBase@str_format_internal@absl@@@__1@std@@@__1@std@@IBEIXZ
    ?capacity@?$__vector_base@UTransition@cctz@time_internal@absl@@V?$allocator@UTransition@cctz@time_internal@absl@@@__1@std@@@__1@std@@IBEIXZ
    ?capacity@?$__vector_base@UTransitionType@cctz@time_internal@absl@@V?$allocator@UTransitionType@cctz@time_internal@absl@@@__1@std@@@__1@std@@IBEIXZ
    ?capacity@?$__vector_base@UViableSubstitution@strings_internal@absl@@V?$allocator@UViableSubstitution@strings_internal@absl@@@__1@std@@@__1@std@@IBEIXZ
    ?capacity@?$__vector_base@VFormatArgImpl@str_format_internal@absl@@V?$allocator@VFormatArgImpl@str_format_internal@absl@@@__1@std@@@__1@std@@IBEIXZ
    ?capacity@?$vector@PAUCordRep@cord_internal@absl@@V?$allocator@PAUCordRep@cord_internal@absl@@@__1@std@@@__1@std@@QBEIXZ
    ?capacity@?$vector@PAVCordzHandle@cord_internal@absl@@V?$allocator@PAVCordzHandle@cord_internal@absl@@@__1@std@@@__1@std@@QBEIXZ
    ?capacity@?$vector@PBVCordzHandle@cord_internal@absl@@V?$allocator@PBVCordzHandle@cord_internal@absl@@@__1@std@@@__1@std@@QBEIXZ
    ?capacity@?$vector@UConversionItem@ParsedFormatBase@str_format_internal@absl@@V?$allocator@UConversionItem@ParsedFormatBase@str_format_internal@absl@@@__1@std@@@__1@std@@QBEIXZ
    ?capacity@?$vector@UTransition@cctz@time_internal@absl@@V?$allocator@UTransition@cctz@time_internal@absl@@@__1@std@@@__1@std@@QBEIXZ
    ?capacity@?$vector@UTransitionType@cctz@time_internal@absl@@V?$allocator@UTransitionType@cctz@time_internal@absl@@@__1@std@@@__1@std@@QBEIXZ
    ?capacity@?$vector@UViableSubstitution@strings_internal@absl@@V?$allocator@UViableSubstitution@strings_internal@absl@@@__1@std@@@__1@std@@QBEIXZ
    ?capacity@?$vector@VFormatArgImpl@str_format_internal@absl@@V?$allocator@VFormatArgImpl@str_format_internal@absl@@@__1@std@@@__1@std@@QBEIXZ
    ?capacity@CordRepBtree@cord_internal@absl@@QBEIXZ
    ?capacity@CordRepRing@cord_internal@absl@@QBEIXZ
    ?chunk_begin@Cord@absl@@QBE?AVChunkIterator@12@XZ
    ?chunk_end@Cord@absl@@QBE?AVChunkIterator@12@XZ
    ?clear@?$__hash_table@U?$__hash_value_type@V?$basic_string@DU?$char_traits@D@__1@std@@V?$allocator@D@23@@__1@std@@PBVImpl@time_zone@cctz@time_internal@absl@@@__1@std@@V?$__unordered_map_hasher@V?$basic_string@DU?$char_traits@D@__1@std@@V?$allocator@D@23@@__1@std@@U?$__hash_value_type@V?$basic_string@DU?$char_traits@D@__1@std@@V?$allocator@D@23@@__1@std@@PBVImpl@time_zone@cctz@time_internal@absl@@@23@U?$hash@V?$basic_string@DU?$char_traits@D@__1@std@@V?$allocator@D@23@@__1@std@@@23@U?$equal_to@V?$basic_string@DU?$char_traits@D@__1@std@@V?$allocator@D@23@@__1@std@@@23@$00@23@V?$__unordered_map_equal@V?$basic_string@DU?$char_traits@D@__1@std@@V?$allocator@D@23@@__1@std@@U?$__hash_value_type@V?$basic_string@DU?$char_traits@D@__1@std@@V?$allocator@D@23@@__1@std@@PBVImpl@time_zone@cctz@time_internal@absl@@@23@U?$equal_to@V?$basic_string@DU?$char_traits@D@__1@std@@V?$allocator@D@23@@__1@std@@@23@U?$hash@V?$basic_string@DU?$char_traits@D@__1@std@@V?$allocator@D@23@@__1@std@@@23@$00@23@V?$allocator@U?$__hash_value_type@V?$basic_string@DU?$char_traits@D@__1@std@@V?$allocator@D@23@@__1@std@@PBVImpl@time_zone@cctz@time_internal@absl@@@__1@std@@@23@@__1@std@@QAEXXZ
    ?clear@?$__split_buffer@PAPBVImpl@time_zone@cctz@time_internal@absl@@AAV?$allocator@PAPBVImpl@time_zone@cctz@time_internal@absl@@@__1@std@@@__1@std@@QAEXXZ
    ?clear@?$__split_buffer@PAUCordRep@cord_internal@absl@@AAV?$allocator@PAUCordRep@cord_internal@absl@@@__1@std@@@__1@std@@QAEXXZ
    ?clear@?$__split_buffer@PAVCordzHandle@cord_internal@absl@@AAV?$allocator@PAVCordzHandle@cord_internal@absl@@@__1@std@@@__1@std@@QAEXXZ
    ?clear@?$__split_buffer@PBVCordzHandle@cord_internal@absl@@AAV?$allocator@PBVCordzHandle@cord_internal@absl@@@__1@std@@@__1@std@@QAEXXZ
    ?clear@?$__split_buffer@UConversionItem@ParsedFormatBase@str_format_internal@absl@@AAV?$allocator@UConversionItem@ParsedFormatBase@str_format_internal@absl@@@__1@std@@@__1@std@@QAEXXZ
    ?clear@?$__split_buffer@UTransition@cctz@time_internal@absl@@AAV?$allocator@UTransition@cctz@time_internal@absl@@@__1@std@@@__1@std@@QAEXXZ
    ?clear@?$__split_buffer@UTransitionType@cctz@time_internal@absl@@AAV?$allocator@UTransitionType@cctz@time_internal@absl@@@__1@std@@@__1@std@@QAEXXZ
    ?clear@?$__split_buffer@UViableSubstitution@strings_internal@absl@@AAV?$allocator@UViableSubstitution@strings_internal@absl@@@__1@std@@@__1@std@@QAEXXZ
    ?clear@?$__vector_base@PAUCordRep@cord_internal@absl@@V?$allocator@PAUCordRep@cord_internal@absl@@@__1@std@@@__1@std@@IAEXXZ
    ?clear@?$__vector_base@PAVCordzHandle@cord_internal@absl@@V?$allocator@PAVCordzHandle@cord_internal@absl@@@__1@std@@@__1@std@@IAEXXZ
    ?clear@?$__vector_base@PBVCordzHandle@cord_internal@absl@@V?$allocator@PBVCordzHandle@cord_internal@absl@@@__1@std@@@__1@std@@IAEXXZ
    ?clear@?$__vector_base@UTransition@cctz@time_internal@absl@@V?$allocator@UTransition@cctz@time_internal@absl@@@__1@std@@@__1@std@@IAEXXZ
    ?clear@?$__vector_base@UTransitionType@cctz@time_internal@absl@@V?$allocator@UTransitionType@cctz@time_internal@absl@@@__1@std@@@__1@std@@IAEXXZ
    ?clear@?$__vector_base@UViableSubstitution@strings_internal@absl@@V?$allocator@UViableSubstitution@strings_internal@absl@@@__1@std@@@__1@std@@IAEXXZ
    ?clear@?$__vector_base@VFormatArgImpl@str_format_internal@absl@@V?$allocator@VFormatArgImpl@str_format_internal@absl@@@__1@std@@@__1@std@@IAEXXZ
    ?clear@?$unordered_map@V?$basic_string@DU?$char_traits@D@__1@std@@V?$allocator@D@23@@__1@std@@PBVImpl@time_zone@cctz@time_internal@absl@@U?$hash@V?$basic_string@DU?$char_traits@D@__1@std@@V?$allocator@D@23@@__1@std@@@23@U?$equal_to@V?$basic_string@DU?$char_traits@D@__1@std@@V?$allocator@D@23@@__1@std@@@23@V?$allocator@U?$pair@$$CBV?$basic_string@DU?$char_traits@D@__1@std@@V?$allocator@D@23@@__1@std@@PBVImpl@time_zone@cctz@time_internal@absl@@@__1@std@@@23@@__1@std@@QAEXXZ
    ?clear@?$vector@UTransition@cctz@time_internal@absl@@V?$allocator@UTransition@cctz@time_internal@absl@@@__1@std@@@__1@std@@QAEXXZ
    ?clear@?$vector@VFormatArgImpl@str_format_internal@absl@@V?$allocator@VFormatArgImpl@str_format_internal@absl@@@__1@std@@@__1@std@@QAEXXZ
    ?clear@InlineRep@Cord@absl@@QAEPAUCordRep@cord_internal@3@XZ
    ?clear_cordz_info@InlineData@cord_internal@absl@@QAEXXZ
    ?code@Status@absl@@QBE?AW4StatusCode@2@XZ
    ?compare_exchange_weak@?$__atomic_base@PAUHashtablezInfo@container_internal@absl@@$0A@@__1@std@@QAE_NAAPAUHashtablezInfo@container_internal@absl@@PAU456@W4memory_order@23@2@Z
    ?concat@CordRep@cord_internal@absl@@QAEPAUCordRepConcat@23@XZ
    ?concat@CordRep@cord_internal@absl@@QBEPBUCordRepConcat@23@XZ
    ?consumed@CordRepBtreeReader@cord_internal@absl@@QBEIXZ
    ?conversion_char@FormatConversionSpecImpl@str_format_internal@absl@@QBE?AW4FormatConversionChar@3@XZ
    ?cord_btree_enabled@cord_internal@absl@@3U?$atomic@_N@__1@std@@A
    ?cordz_info@InlineData@cord_internal@absl@@QBEPAVCordzInfo@23@XZ
    ?cordz_info@InlineRep@Cord@absl@@QBEPAVCordzInfo@cord_internal@3@XZ
    ?cordz_should_profile@cord_internal@absl@@YA_NXZ
    ?count@FILERawSink@str_format_internal@absl@@QBEIXZ
    ?data@?$FixedArray@PAUCordRep@cord_internal@absl@@$0PPPPPPPP@V?$allocator@PAUCordRep@cord_internal@absl@@@__1@std@@@absl@@QAEPAPAUCordRep@cord_internal@2@XZ
    ?data@?$InlinedVector@H$0CP@V?$allocator@H@__1@std@@@absl@@QAEPAHXZ
    ?data@?$InlinedVector@PAUCordRep@cord_internal@absl@@$01V?$allocator@PAUCordRep@cord_internal@absl@@@__1@std@@@absl@@QAEPAPAUCordRep@cord_internal@2@XZ
    ?data@?$InlinedVector@PAUCordRep@cord_internal@absl@@$0CP@V?$allocator@PAUCordRep@cord_internal@absl@@@__1@std@@@absl@@QAEPAPAUCordRep@cord_internal@2@XZ
    ?data@?$InlinedVector@PBUCordRep@cord_internal@absl@@$0CP@V?$allocator@PBUCordRep@cord_internal@absl@@@__1@std@@@absl@@QAEPAPBUCordRep@cord_internal@2@XZ
    ?data@?$InlinedVector@UPayload@status_internal@absl@@$00V?$allocator@UPayload@status_internal@absl@@@__1@std@@@absl@@QAEPAUPayload@status_internal@2@XZ
    ?data@?$InlinedVector@UPayload@status_internal@absl@@$00V?$allocator@UPayload@status_internal@absl@@@__1@std@@@absl@@QBEPBUPayload@status_internal@2@XZ
    ?data@?$InlinedVector@USubRange@absl@@$0CP@V?$allocator@USubRange@absl@@@__1@std@@@absl@@QAEPAUSubRange@2@XZ
    ?data@?$Span@$$CBVFormatArgImpl@str_format_internal@absl@@@absl@@QBEPBVFormatArgImpl@str_format_internal@2@XZ
    ?data@?$Span@D@absl@@QBEPADXZ
    ?data@?$Span@I@absl@@QBEPAIXZ
    ?data@?$Span@QAUCordRep@cord_internal@absl@@@absl@@QBEPBQAUCordRep@cord_internal@2@XZ
    ?data@?$Span@VFormatArgImpl@str_format_internal@absl@@@absl@@QBEPAVFormatArgImpl@str_format_internal@2@XZ
    ?data@?$vector@PAUCordRep@cord_internal@absl@@V?$allocator@PAUCordRep@cord_internal@absl@@@__1@std@@@__1@std@@QBEPBQAUCordRep@cord_internal@absl@@XZ
    ?data@?$vector@PAVCordzHandle@cord_internal@absl@@V?$allocator@PAVCordzHandle@cord_internal@absl@@@__1@std@@@__1@std@@QBEPBQAVCordzHandle@cord_internal@absl@@XZ
    ?data@?$vector@PBVCordzHandle@cord_internal@absl@@V?$allocator@PBVCordzHandle@cord_internal@absl@@@__1@std@@@__1@std@@QBEPBQBVCordzHandle@cord_internal@absl@@XZ
    ?data@?$vector@UConversionItem@ParsedFormatBase@str_format_internal@absl@@V?$allocator@UConversionItem@ParsedFormatBase@str_format_internal@absl@@@__1@std@@@__1@std@@QBEPBUConversionItem@ParsedFormatBase@str_format_internal@absl@@XZ
    ?data@?$vector@UTransition@cctz@time_internal@absl@@V?$allocator@UTransition@cctz@time_internal@absl@@@__1@std@@@__1@std@@QBEPBUTransition@cctz@time_internal@absl@@XZ
    ?data@?$vector@UTransitionType@cctz@time_internal@absl@@V?$allocator@UTransitionType@cctz@time_internal@absl@@@__1@std@@@__1@std@@QBEPBUTransitionType@cctz@time_internal@absl@@XZ
    ?data@?$vector@UViableSubstitution@strings_internal@absl@@V?$allocator@UViableSubstitution@strings_internal@absl@@@__1@std@@@__1@std@@QBEPBUViableSubstitution@strings_internal@absl@@XZ
    ?data@?$vector@VFormatArgImpl@str_format_internal@absl@@V?$allocator@VFormatArgImpl@str_format_internal@absl@@@__1@std@@@__1@std@@QBEPBVFormatArgImpl@str_format_internal@absl@@XZ
    ?data@AlphaNum@absl@@QBEPBDXZ
    ?data@InlineRep@Cord@absl@@QBEPBDXZ
    ?data@NonEmptyInlinedStorage@?$FixedArray@PAUCordRep@cord_internal@absl@@$0PPPPPPPP@V?$allocator@PAUCordRep@cord_internal@absl@@@__1@std@@@absl@@QAEPAPAUCordRep@cord_internal@3@XZ
    ?data@string_view@absl@@QBEPBDXZ
    ?day@?$civil_time@Uday_tag@detail@cctz@time_internal@absl@@@detail@cctz@time_internal@absl@@QBEHXZ
    ?day@?$civil_time@Usecond_tag@detail@cctz@time_internal@absl@@@detail@cctz@time_internal@absl@@QBEHXZ
    ?day@?$civil_time@Usecond_tag@time_internal@absl@@@detail@cctz@time_internal@absl@@QBEHXZ
    ?day_difference@impl@detail@cctz@time_internal@absl@@YA_J_JCC0CC@Z
    ?days_per_4years@impl@detail@cctz@time_internal@absl@@YAH_JC@Z
    ?days_per_century@impl@detail@cctz@time_internal@absl@@YAH_JC@Z
    ?days_per_month@impl@detail@cctz@time_internal@absl@@YAH_JC@Z
    ?days_per_year@impl@detail@cctz@time_internal@absl@@YAH_JC@Z
    ?deallocate@?$allocator@PAPBVImpl@time_zone@cctz@time_internal@absl@@@__1@std@@QAEXPAPAPBVImpl@time_zone@cctz@time_internal@absl@@I@Z
    ?deallocate@?$allocator@PAU?$__hash_node_base@PAU?$__hash_node@U?$__hash_value_type@V?$basic_string@DU?$char_traits@D@__1@std@@V?$allocator@D@23@@__1@std@@PBVImpl@time_zone@cctz@time_internal@absl@@@__1@std@@PAX@__1@std@@@__1@std@@@__1@std@@QAEXPAPAU?$__hash_node_base@PAU?$__hash_node@U?$__hash_value_type@V?$basic_string@DU?$char_traits@D@__1@std@@V?$allocator@D@23@@__1@std@@PBVImpl@time_zone@cctz@time_internal@absl@@@__1@std@@PAX@__1@std@@@23@I@Z
    ?deallocate@?$allocator@PAUCordRep@cord_internal@absl@@@__1@std@@QAEXPAPAUCordRep@cord_internal@absl@@I@Z
    ?deallocate@?$allocator@PAVCordzHandle@cord_internal@absl@@@__1@std@@QAEXPAPAVCordzHandle@cord_internal@absl@@I@Z
    ?deallocate@?$allocator@PBUCordRep@cord_internal@absl@@@__1@std@@QAEXPAPBUCordRep@cord_internal@absl@@I@Z
    ?deallocate@?$allocator@PBVCordzHandle@cord_internal@absl@@@__1@std@@QAEXPAPBVCordzHandle@cord_internal@absl@@I@Z
    ?deallocate@?$allocator@PBVImpl@time_zone@cctz@time_internal@absl@@@__1@std@@QAEXPAPBVImpl@time_zone@cctz@time_internal@absl@@I@Z
    ?deallocate@?$allocator@U?$__hash_node@U?$__hash_value_type@V?$basic_string@DU?$char_traits@D@__1@std@@V?$allocator@D@23@@__1@std@@PBVImpl@time_zone@cctz@time_internal@absl@@@__1@std@@PAX@__1@std@@@__1@std@@QAEXPAU?$__hash_node@U?$__hash_value_type@V?$basic_string@DU?$char_traits@D@__1@std@@V?$allocator@D@23@@__1@std@@PBVImpl@time_zone@cctz@time_internal@absl@@@__1@std@@PAX@23@I@Z
    ?deallocate@?$allocator@UConversionItem@ParsedFormatBase@str_format_internal@absl@@@__1@std@@QAEXPAUConversionItem@ParsedFormatBase@str_format_internal@absl@@I@Z
    ?deallocate@?$allocator@UPayload@status_internal@absl@@@__1@std@@QAEXPAUPayload@status_internal@absl@@I@Z
    ?deallocate@?$allocator@USubRange@absl@@@__1@std@@QAEXPAUSubRange@absl@@I@Z
    ?deallocate@?$allocator@UTransition@cctz@time_internal@absl@@@__1@std@@QAEXPAUTransition@cctz@time_internal@absl@@I@Z
    ?deallocate@?$allocator@UTransitionType@cctz@time_internal@absl@@@__1@std@@QAEXPAUTransitionType@cctz@time_internal@absl@@I@Z
    ?deallocate@?$allocator@UViableSubstitution@strings_internal@absl@@@__1@std@@QAEXPAUViableSubstitution@strings_internal@absl@@I@Z
    ?deallocate@?$allocator@VFormatArgImpl@str_format_internal@absl@@@__1@std@@QAEXPAVFormatArgImpl@str_format_internal@absl@@I@Z
    ?deallocate@?$allocator_traits@V?$allocator@H@__1@std@@@absl@@SAXAAV?$allocator@H@__1@std@@PAHI@Z
    ?deallocate@?$allocator_traits@V?$allocator@PAPBVImpl@time_zone@cctz@time_internal@absl@@@__1@std@@@__1@std@@SAXAAV?$allocator@PAPBVImpl@time_zone@cctz@time_internal@absl@@@23@PAPAPBVImpl@time_zone@cctz@time_internal@absl@@I@Z
    ?deallocate@?$allocator_traits@V?$allocator@PAU?$__hash_node_base@PAU?$__hash_node@U?$__hash_value_type@V?$basic_string@DU?$char_traits@D@__1@std@@V?$allocator@D@23@@__1@std@@PBVImpl@time_zone@cctz@time_internal@absl@@@__1@std@@PAX@__1@std@@@__1@std@@@__1@std@@@__1@std@@SAXAAV?$allocator@PAU?$__hash_node_base@PAU?$__hash_node@U?$__hash_value_type@V?$basic_string@DU?$char_traits@D@__1@std@@V?$allocator@D@23@@__1@std@@PBVImpl@time_zone@cctz@time_internal@absl@@@__1@std@@PAX@__1@std@@@__1@std@@@23@PAPAU?$__hash_node_base@PAU?$__hash_node@U?$__hash_value_type@V?$basic_string@DU?$char_traits@D@__1@std@@V?$allocator@D@23@@__1@std@@PBVImpl@time_zone@cctz@time_internal@absl@@@__1@std@@PAX@__1@std@@@23@I@Z
    ?deallocate@?$allocator_traits@V?$allocator@PAUCordRep@cord_internal@absl@@@__1@std@@@__1@std@@SAXAAV?$allocator@PAUCordRep@cord_internal@absl@@@23@PAPAUCordRep@cord_internal@absl@@I@Z
    ?deallocate@?$allocator_traits@V?$allocator@PAUCordRep@cord_internal@absl@@@__1@std@@@absl@@SAXAAV?$allocator@PAUCordRep@cord_internal@absl@@@__1@std@@PAPAUCordRep@cord_internal@2@I@Z
    ?deallocate@?$allocator_traits@V?$allocator@PAVCordzHandle@cord_internal@absl@@@__1@std@@@__1@std@@SAXAAV?$allocator@PAVCordzHandle@cord_internal@absl@@@23@PAPAVCordzHandle@cord_internal@absl@@I@Z
    ?deallocate@?$allocator_traits@V?$allocator@PBUCordRep@cord_internal@absl@@@__1@std@@@absl@@SAXAAV?$allocator@PBUCordRep@cord_internal@absl@@@__1@std@@PAPBUCordRep@cord_internal@2@I@Z
    ?deallocate@?$allocator_traits@V?$allocator@PBVCordzHandle@cord_internal@absl@@@__1@std@@@__1@std@@SAXAAV?$allocator@PBVCordzHandle@cord_internal@absl@@@23@PAPBVCordzHandle@cord_internal@absl@@I@Z
    ?deallocate@?$allocator_traits@V?$allocator@PBVImpl@time_zone@cctz@time_internal@absl@@@__1@std@@@__1@std@@SAXAAV?$allocator@PBVImpl@time_zone@cctz@time_internal@absl@@@23@PAPBVImpl@time_zone@cctz@time_internal@absl@@I@Z
    ?deallocate@?$allocator_traits@V?$allocator@U?$__hash_node@U?$__hash_value_type@V?$basic_string@DU?$char_traits@D@__1@std@@V?$allocator@D@23@@__1@std@@PBVImpl@time_zone@cctz@time_internal@absl@@@__1@std@@PAX@__1@std@@@__1@std@@@__1@std@@SAXAAV?$allocator@U?$__hash_node@U?$__hash_value_type@V?$basic_string@DU?$char_traits@D@__1@std@@V?$allocator@D@23@@__1@std@@PBVImpl@time_zone@cctz@time_internal@absl@@@__1@std@@PAX@__1@std@@@23@PAU?$__hash_node@U?$__hash_value_type@V?$basic_string@DU?$char_traits@D@__1@std@@V?$allocator@D@23@@__1@std@@PBVImpl@time_zone@cctz@time_internal@absl@@@__1@std@@PAX@23@I@Z
    ?deallocate@?$allocator_traits@V?$allocator@UConversionItem@ParsedFormatBase@str_format_internal@absl@@@__1@std@@@__1@std@@SAXAAV?$allocator@UConversionItem@ParsedFormatBase@str_format_internal@absl@@@23@PAUConversionItem@ParsedFormatBase@str_format_internal@absl@@I@Z
    ?deallocate@?$allocator_traits@V?$allocator@UPayload@status_internal@absl@@@__1@std@@@absl@@SAXAAV?$allocator@UPayload@status_internal@absl@@@__1@std@@PAUPayload@status_internal@2@I@Z
    ?deallocate@?$allocator_traits@V?$allocator@USubRange@absl@@@__1@std@@@absl@@SAXAAV?$allocator@USubRange@absl@@@__1@std@@PAUSubRange@2@I@Z
    ?deallocate@?$allocator_traits@V?$allocator@UTransition@cctz@time_internal@absl@@@__1@std@@@__1@std@@SAXAAV?$allocator@UTransition@cctz@time_internal@absl@@@23@PAUTransition@cctz@time_internal@absl@@I@Z
    ?deallocate@?$allocator_traits@V?$allocator@UTransitionType@cctz@time_internal@absl@@@__1@std@@@__1@std@@SAXAAV?$allocator@UTransitionType@cctz@time_internal@absl@@@23@PAUTransitionType@cctz@time_internal@absl@@I@Z
    ?deallocate@?$allocator_traits@V?$allocator@UViableSubstitution@strings_internal@absl@@@__1@std@@@__1@std@@SAXAAV?$allocator@UViableSubstitution@strings_internal@absl@@@23@PAUViableSubstitution@strings_internal@absl@@I@Z
    ?deallocate@?$allocator_traits@V?$allocator@VFormatArgImpl@str_format_internal@absl@@@__1@std@@@__1@std@@SAXAAV?$allocator@VFormatArgImpl@str_format_internal@absl@@@23@PAVFormatArgImpl@str_format_internal@absl@@I@Z
    ?depth@CordRepConcat@cord_internal@absl@@QBEEXZ
    ?description@time_zone@cctz@time_internal@absl@@QBE?AV?$basic_string@DU?$char_traits@D@__1@std@@V?$allocator@D@23@@__1@std@@XZ
    ?destroy@?$allocator@PAPBVImpl@time_zone@cctz@time_internal@absl@@@__1@std@@QAEXPAPAPBVImpl@time_zone@cctz@time_internal@absl@@@Z
    ?destroy@?$allocator@PAUCordRep@cord_internal@absl@@@__1@std@@QAEXPAPAUCordRep@cord_internal@absl@@@Z
    ?destroy@?$allocator@PAVCordzHandle@cord_internal@absl@@@__1@std@@QAEXPAPAVCordzHandle@cord_internal@absl@@@Z
    ?destroy@?$allocator@PBUCordRep@cord_internal@absl@@@__1@std@@QAEXPAPBUCordRep@cord_internal@absl@@@Z
    ?destroy@?$allocator@PBVCordzHandle@cord_internal@absl@@@__1@std@@QAEXPAPBVCordzHandle@cord_internal@absl@@@Z
    ?destroy@?$allocator@UConversionItem@ParsedFormatBase@str_format_internal@absl@@@__1@std@@QAEXPAUConversionItem@ParsedFormatBase@str_format_internal@absl@@@Z
    ?destroy@?$allocator@UPayload@status_internal@absl@@@__1@std@@QAEXPAUPayload@status_internal@absl@@@Z
    ?destroy@?$allocator@USubRange@absl@@@__1@std@@QAEXPAUSubRange@absl@@@Z
    ?destroy@?$allocator@UTransition@cctz@time_internal@absl@@@__1@std@@QAEXPAUTransition@cctz@time_internal@absl@@@Z
    ?destroy@?$allocator@UTransitionType@cctz@time_internal@absl@@@__1@std@@QAEXPAUTransitionType@cctz@time_internal@absl@@@Z
    ?destroy@?$allocator@UViableSubstitution@strings_internal@absl@@@__1@std@@QAEXPAUViableSubstitution@strings_internal@absl@@@Z
    ?destroy@?$allocator@VFormatArgImpl@str_format_internal@absl@@@__1@std@@QAEXPAVFormatArgImpl@str_format_internal@absl@@@Z
    ?destruct@?$optional_data_dtor_base@V?$basic_string@DU?$char_traits@D@__1@std@@V?$allocator@D@23@@__1@std@@$0A@@optional_internal@absl@@IAEXXZ
    ?difference@detail@cctz@time_internal@absl@@YA_JUday_tag@1234@Ufields@1234@1@Z
    ?difference@detail@cctz@time_internal@absl@@YA_JUhour_tag@1234@Ufields@1234@1@Z
    ?difference@detail@cctz@time_internal@absl@@YA_JUminute_tag@1234@Ufields@1234@1@Z
    ?difference@detail@cctz@time_internal@absl@@YA_JUsecond_tag@1234@Ufields@1234@1@Z
    ?effective_impl@time_zone@cctz@time_internal@absl@@ABEABVImpl@1234@XZ
    ?empty@?$InlinedVector@H$0CP@V?$allocator@H@__1@std@@@absl@@QBE_NXZ
    ?empty@?$InlinedVector@PAUCordRep@cord_internal@absl@@$01V?$allocator@PAUCordRep@cord_internal@absl@@@__1@std@@@absl@@QBE_NXZ
    ?empty@?$InlinedVector@PAUCordRep@cord_internal@absl@@$0CP@V?$allocator@PAUCordRep@cord_internal@absl@@@__1@std@@@absl@@QBE_NXZ
    ?empty@?$InlinedVector@PBUCordRep@cord_internal@absl@@$0CP@V?$allocator@PBUCordRep@cord_internal@absl@@@__1@std@@@absl@@QBE_NXZ
    ?empty@?$InlinedVector@UPayload@status_internal@absl@@$00V?$allocator@UPayload@status_internal@absl@@@__1@std@@@absl@@QBE_NXZ
    ?empty@?$InlinedVector@USubRange@absl@@$0CP@V?$allocator@USubRange@absl@@@__1@std@@@absl@@QBE_NXZ
    ?empty@?$Span@D@absl@@QBE_NXZ
    ?empty@?$__split_buffer@PAPBVImpl@time_zone@cctz@time_internal@absl@@V?$allocator@PAPBVImpl@time_zone@cctz@time_internal@absl@@@__1@std@@@__1@std@@QBE_NXZ
    ?empty@?$vector@PAUCordRep@cord_internal@absl@@V?$allocator@PAUCordRep@cord_internal@absl@@@__1@std@@@__1@std@@QBE_NXZ
    ?empty@?$vector@UConversionItem@ParsedFormatBase@str_format_internal@absl@@V?$allocator@UConversionItem@ParsedFormatBase@str_format_internal@absl@@@__1@std@@@__1@std@@QBE_NXZ
    ?empty@?$vector@UTransition@cctz@time_internal@absl@@V?$allocator@UTransition@cctz@time_internal@absl@@@__1@std@@@__1@std@@QBE_NXZ
    ?empty@?$vector@UViableSubstitution@strings_internal@absl@@V?$allocator@UViableSubstitution@strings_internal@absl@@@__1@std@@@__1@std@@QBE_NXZ
    ?empty@Cord@absl@@QBE_NXZ
    ?empty@InlineRep@Cord@absl@@QBE_NXZ
    ?empty@string_view@absl@@QBE_NXZ
    ?end@?$InlinedVector@PAUCordRep@cord_internal@absl@@$0CP@V?$allocator@PAUCordRep@cord_internal@absl@@@__1@std@@@absl@@QAEPAPAUCordRep@cord_internal@2@XZ
    ?end@?$InlinedVector@UPayload@status_internal@absl@@$00V?$allocator@UPayload@status_internal@absl@@@__1@std@@@absl@@QAEPAUPayload@status_internal@2@XZ
    ?end@?$InlinedVector@UPayload@status_internal@absl@@$00V?$allocator@UPayload@status_internal@absl@@@__1@std@@@absl@@QBEPBUPayload@status_internal@2@XZ
    ?end@?$Span@$$CBVFormatArgImpl@str_format_internal@absl@@@absl@@QBEPBVFormatArgImpl@str_format_internal@2@XZ
    ?end@?$Span@QAUCordRep@cord_internal@absl@@@absl@@QBEPBQAUCordRep@cord_internal@2@XZ
    ?end@?$__deque_base@PBVImpl@time_zone@cctz@time_internal@absl@@V?$allocator@PBVImpl@time_zone@cctz@time_internal@absl@@@__1@std@@@__1@std@@IAE?AV?$__deque_iterator@PBVImpl@time_zone@cctz@time_internal@absl@@PAPBV12345@AAPBV12345@PAPAPBV12345@H$0A@@23@XZ
    ?end@?$__hash_table@U?$__hash_value_type@V?$basic_string@DU?$char_traits@D@__1@std@@V?$allocator@D@23@@__1@std@@PBVImpl@time_zone@cctz@time_internal@absl@@@__1@std@@V?$__unordered_map_hasher@V?$basic_string@DU?$char_traits@D@__1@std@@V?$allocator@D@23@@__1@std@@U?$__hash_value_type@V?$basic_string@DU?$char_traits@D@__1@std@@V?$allocator@D@23@@__1@std@@PBVImpl@time_zone@cctz@time_internal@absl@@@23@U?$hash@V?$basic_string@DU?$char_traits@D@__1@std@@V?$allocator@D@23@@__1@std@@@23@U?$equal_to@V?$basic_string@DU?$char_traits@D@__1@std@@V?$allocator@D@23@@__1@std@@@23@$00@23@V?$__unordered_map_equal@V?$basic_string@DU?$char_traits@D@__1@std@@V?$allocator@D@23@@__1@std@@U?$__hash_value_type@V?$basic_string@DU?$char_traits@D@__1@std@@V?$allocator@D@23@@__1@std@@PBVImpl@time_zone@cctz@time_internal@absl@@@23@U?$equal_to@V?$basic_string@DU?$char_traits@D@__1@std@@V?$allocator@D@23@@__1@std@@@23@U?$hash@V?$basic_string@DU?$char_traits@D@__1@std@@V?$allocator@D@23@@__1@std@@@23@$00@23@V?$allocator@U?$__hash_value_type@V?$basic_string@DU?$char_traits@D@__1@std@@V?$allocator@D@23@@__1@std@@PBVImpl@time_zone@cctz@time_internal@absl@@@__1@std@@@23@@__1@std@@QAE?AV?$__hash_iterator@PAU?$__hash_node@U?$__hash_value_type@V?$basic_string@DU?$char_traits@D@__1@std@@V?$allocator@D@23@@__1@std@@PBVImpl@time_zone@cctz@time_internal@absl@@@__1@std@@PAX@__1@std@@@23@XZ
    ?end@?$__split_buffer@PAPBVImpl@time_zone@cctz@time_internal@absl@@V?$allocator@PAPBVImpl@time_zone@cctz@time_internal@absl@@@__1@std@@@__1@std@@QAEPAPAPBVImpl@time_zone@cctz@time_internal@absl@@XZ
    ?end@?$initializer_list@PAUCordRep@cord_internal@absl@@@std@@QBEPBQAUCordRep@cord_internal@absl@@XZ
    ?end@?$initializer_list@U?$pair@Vstring_view@absl@@V12@@__1@std@@@std@@QBEPBU?$pair@Vstring_view@absl@@V12@@__1@2@XZ
    ?end@?$initializer_list@Vstring_view@absl@@@std@@QBEPBVstring_view@absl@@XZ
    ?end@?$unordered_map@V?$basic_string@DU?$char_traits@D@__1@std@@V?$allocator@D@23@@__1@std@@PBVImpl@time_zone@cctz@time_internal@absl@@U?$hash@V?$basic_string@DU?$char_traits@D@__1@std@@V?$allocator@D@23@@__1@std@@@23@U?$equal_to@V?$basic_string@DU?$char_traits@D@__1@std@@V?$allocator@D@23@@__1@std@@@23@V?$allocator@U?$pair@$$CBV?$basic_string@DU?$char_traits@D@__1@std@@V?$allocator@D@23@@__1@std@@PBVImpl@time_zone@cctz@time_internal@absl@@@__1@std@@@23@@__1@std@@QAE?AV?$__hash_map_iterator@V?$__hash_iterator@PAU?$__hash_node@U?$__hash_value_type@V?$basic_string@DU?$char_traits@D@__1@std@@V?$allocator@D@23@@__1@std@@PBVImpl@time_zone@cctz@time_internal@absl@@@__1@std@@PAX@__1@std@@@__1@std@@@23@XZ
    ?end@?$vector@PAVCordzHandle@cord_internal@absl@@V?$allocator@PAVCordzHandle@cord_internal@absl@@@__1@std@@@__1@std@@QAE?AV?$__wrap_iter@PAPAVCordzHandle@cord_internal@absl@@@23@XZ
    ?end@?$vector@UConversionItem@ParsedFormatBase@str_format_internal@absl@@V?$allocator@UConversionItem@ParsedFormatBase@str_format_internal@absl@@@__1@std@@@__1@std@@QBE?AV?$__wrap_iter@PBUConversionItem@ParsedFormatBase@str_format_internal@absl@@@23@XZ
    ?end@?$vector@UTransition@cctz@time_internal@absl@@V?$allocator@UTransition@cctz@time_internal@absl@@@__1@std@@@__1@std@@QAE?AV?$__wrap_iter@PAUTransition@cctz@time_internal@absl@@@23@XZ
    ?end@?$vector@UTransitionType@cctz@time_internal@absl@@V?$allocator@UTransitionType@cctz@time_internal@absl@@@__1@std@@@__1@std@@QAE?AV?$__wrap_iter@PAUTransitionType@cctz@time_internal@absl@@@23@XZ
    ?end@ChunkRange@Cord@absl@@QBE?AVChunkIterator@23@XZ
    ?end@CordRepBtree@cord_internal@absl@@QBEIXZ
    ?end@Storage@?$FixedArray@PAUCordRep@cord_internal@absl@@$0PPPPPPPP@V?$allocator@PAUCordRep@cord_internal@absl@@@__1@std@@@absl@@QBEPAPAUCordRep@cord_internal@3@XZ
    ?end@string_view@absl@@QBEPBDXZ
    ?entries@CordRepRing@cord_internal@absl@@QBEIII@Z
    ?entries@CordRepRing@cord_internal@absl@@QBEIXZ
    ?entry_begin_pos@CordRepRing@cord_internal@absl@@QBEABII@Z
    ?entry_child@CordRepRing@cord_internal@absl@@AAEPAPAUCordRep@23@XZ
    ?entry_child@CordRepRing@cord_internal@absl@@QBEABQAUCordRep@23@I@Z
    ?entry_data_offset@CordRepRing@cord_internal@absl@@AAEPAIXZ
    ?entry_data_offset@CordRepRing@cord_internal@absl@@QBEABII@Z
    ?entry_end_offset@CordRepRing@cord_internal@absl@@QBEII@Z
    ?entry_end_pos@CordRepRing@cord_internal@absl@@AAEPAIXZ
    ?entry_end_pos@CordRepRing@cord_internal@absl@@QBEABII@Z
    ?entry_length@CordRepRing@cord_internal@absl@@QBEII@Z
    ?entry_start_offset@CordRepRing@cord_internal@absl@@QBEII@Z
    ?erase@?$InlinedVector@UPayload@status_internal@absl@@$00V?$allocator@UPayload@status_internal@absl@@@__1@std@@@absl@@QAEPAUPayload@status_internal@2@PBU342@@Z
    ?error@FILERawSink@str_format_internal@absl@@QBEHXZ
    ?exchange@?$__atomic_base@P6AXABUHashtablezInfo@container_internal@absl@@@Z$0A@@__1@std@@QAEP6AXABUHashtablezInfo@container_internal@absl@@@ZP6AX0@ZW4memory_order@23@@Z
    ?external@CordRep@cord_internal@absl@@QAEPAUCordRepExternal@23@XZ
    ?external@CordRep@cord_internal@absl@@QBEPBUCordRepExternal@23@XZ
    ?fetch_add_end@CordRepBtree@cord_internal@absl@@AAEII@Z
    ?find@?$unordered_map@V?$basic_string@DU?$char_traits@D@__1@std@@V?$allocator@D@23@@__1@std@@PBVImpl@time_zone@cctz@time_internal@absl@@U?$hash@V?$basic_string@DU?$char_traits@D@__1@std@@V?$allocator@D@23@@__1@std@@@23@U?$equal_to@V?$basic_string@DU?$char_traits@D@__1@std@@V?$allocator@D@23@@__1@std@@@23@V?$allocator@U?$pair@$$CBV?$basic_string@DU?$char_traits@D@__1@std@@V?$allocator@D@23@@__1@std@@PBVImpl@time_zone@cctz@time_internal@absl@@@__1@std@@@23@@__1@std@@QAE?AV?$__hash_map_iterator@V?$__hash_iterator@PAU?$__hash_node@U?$__hash_value_type@V?$basic_string@DU?$char_traits@D@__1@std@@V?$allocator@D@23@@__1@std@@PBVImpl@time_zone@cctz@time_internal@absl@@@__1@std@@PAX@__1@std@@@__1@std@@@23@ABV?$basic_string@DU?$char_traits@D@__1@std@@V?$allocator@D@23@@23@@Z
    ?find@string_view@absl@@QBEIDI@Z
    ?find@string_view@absl@@QBEIV12@I@Z
    ?find_first_not_of@string_view@absl@@QBEIDI@Z
    ?find_first_not_of@string_view@absl@@QBEIV12@I@Z
    ?find_first_of@string_view@absl@@QBEIDI@Z
    ?find_first_of@string_view@absl@@QBEIV12@I@Z
    ?find_last_not_of@string_view@absl@@QBEIDI@Z
    ?find_last_not_of@string_view@absl@@QBEIV12@I@Z
    ?find_last_of@string_view@absl@@QBEIDI@Z
    ?find_last_of@string_view@absl@@QBEIV12@I@Z
    ?first@?$__compressed_pair@IV?$__unordered_map_hasher@V?$basic_string@DU?$char_traits@D@__1@std@@V?$allocator@D@23@@__1@std@@U?$__hash_value_type@V?$basic_string@DU?$char_traits@D@__1@std@@V?$allocator@D@23@@__1@std@@PBVImpl@time_zone@cctz@time_internal@absl@@@23@U?$hash@V?$basic_string@DU?$char_traits@D@__1@std@@V?$allocator@D@23@@__1@std@@@23@U?$equal_to@V?$basic_string@DU?$char_traits@D@__1@std@@V?$allocator@D@23@@__1@std@@@23@$00@__1@std@@@__1@std@@QAEAAIXZ
    ?first@?$__compressed_pair@IV?$allocator@PAU?$__hash_node_base@PAU?$__hash_node@U?$__hash_value_type@V?$basic_string@DU?$char_traits@D@__1@std@@V?$allocator@D@23@@__1@std@@PBVImpl@time_zone@cctz@time_internal@absl@@@__1@std@@PAX@__1@std@@@__1@std@@@__1@std@@@__1@std@@QAEAAIXZ
    ?first@?$__compressed_pair@IV?$allocator@PAU?$__hash_node_base@PAU?$__hash_node@U?$__hash_value_type@V?$basic_string@DU?$char_traits@D@__1@std@@V?$allocator@D@23@@__1@std@@PBVImpl@time_zone@cctz@time_internal@absl@@@__1@std@@PAX@__1@std@@@__1@std@@@__1@std@@@__1@std@@QBEABIXZ
    ?first@?$__compressed_pair@IV?$allocator@PBVImpl@time_zone@cctz@time_internal@absl@@@__1@std@@@__1@std@@QAEAAIXZ
    ?first@?$__compressed_pair@IV?$allocator@PBVImpl@time_zone@cctz@time_internal@absl@@@__1@std@@@__1@std@@QBEABIXZ
    ?first@?$__compressed_pair@MV?$__unordered_map_equal@V?$basic_string@DU?$char_traits@D@__1@std@@V?$allocator@D@23@@__1@std@@U?$__hash_value_type@V?$basic_string@DU?$char_traits@D@__1@std@@V?$allocator@D@23@@__1@std@@PBVImpl@time_zone@cctz@time_internal@absl@@@23@U?$equal_to@V?$basic_string@DU?$char_traits@D@__1@std@@V?$allocator@D@23@@__1@std@@@23@U?$hash@V?$basic_string@DU?$char_traits@D@__1@std@@V?$allocator@D@23@@__1@std@@@23@$00@__1@std@@@__1@std@@QAEAAMXZ
    ?first@?$__compressed_pair@PAPAPBVImpl@time_zone@cctz@time_internal@absl@@AAV?$allocator@PAPBVImpl@time_zone@cctz@time_internal@absl@@@__1@std@@@__1@std@@QAEAAPAPAPBVImpl@time_zone@cctz@time_internal@absl@@XZ
    ?first@?$__compressed_pair@PAPAPBVImpl@time_zone@cctz@time_internal@absl@@AAV?$allocator@PAPBVImpl@time_zone@cctz@time_internal@absl@@@__1@std@@@__1@std@@QBEABQAPAPBVImpl@time_zone@cctz@time_internal@absl@@XZ
    ?first@?$__compressed_pair@PAPAPBVImpl@time_zone@cctz@time_internal@absl@@V?$allocator@PAPBVImpl@time_zone@cctz@time_internal@absl@@@__1@std@@@__1@std@@QAEAAPAPAPBVImpl@time_zone@cctz@time_internal@absl@@XZ
    ?first@?$__compressed_pair@PAPAPBVImpl@time_zone@cctz@time_internal@absl@@V?$allocator@PAPBVImpl@time_zone@cctz@time_internal@absl@@@__1@std@@@__1@std@@QBEABQAPAPBVImpl@time_zone@cctz@time_internal@absl@@XZ
    ?first@?$__compressed_pair@PAPAU?$__hash_node_base@PAU?$__hash_node@U?$__hash_value_type@V?$basic_string@DU?$char_traits@D@__1@std@@V?$allocator@D@23@@__1@std@@PBVImpl@time_zone@cctz@time_internal@absl@@@__1@std@@PAX@__1@std@@@__1@std@@V?$__bucket_list_deallocator@V?$allocator@PAU?$__hash_node_base@PAU?$__hash_node@U?$__hash_value_type@V?$basic_string@DU?$char_traits@D@__1@std@@V?$allocator@D@23@@__1@std@@PBVImpl@time_zone@cctz@time_internal@absl@@@__1@std@@PAX@__1@std@@@__1@std@@@__1@std@@@23@@__1@std@@QAEAAPAPAU?$__hash_node_base@PAU?$__hash_node@U?$__hash_value_type@V?$basic_string@DU?$char_traits@D@__1@std@@V?$allocator@D@23@@__1@std@@PBVImpl@time_zone@cctz@time_internal@absl@@@__1@std@@PAX@__1@std@@@23@XZ
    ?first@?$__compressed_pair@PAPAU?$__hash_node_base@PAU?$__hash_node@U?$__hash_value_type@V?$basic_string@DU?$char_traits@D@__1@std@@V?$allocator@D@23@@__1@std@@PBVImpl@time_zone@cctz@time_internal@absl@@@__1@std@@PAX@__1@std@@@__1@std@@V?$__bucket_list_deallocator@V?$allocator@PAU?$__hash_node_base@PAU?$__hash_node@U?$__hash_value_type@V?$basic_string@DU?$char_traits@D@__1@std@@V?$allocator@D@23@@__1@std@@PBVImpl@time_zone@cctz@time_internal@absl@@@__1@std@@PAX@__1@std@@@__1@std@@@__1@std@@@23@@__1@std@@QBEABQAPAU?$__hash_node_base@PAU?$__hash_node@U?$__hash_value_type@V?$basic_string@DU?$char_traits@D@__1@std@@V?$allocator@D@23@@__1@std@@PBVImpl@time_zone@cctz@time_internal@absl@@@__1@std@@PAX@__1@std@@@23@XZ
    ?first@?$__compressed_pair@PAPAUCordRep@cord_internal@absl@@AAV?$allocator@PAUCordRep@cord_internal@absl@@@__1@std@@@__1@std@@QAEAAPAPAUCordRep@cord_internal@absl@@XZ
    ?first@?$__compressed_pair@PAPAUCordRep@cord_internal@absl@@AAV?$allocator@PAUCordRep@cord_internal@absl@@@__1@std@@@__1@std@@QBEABQAPAUCordRep@cord_internal@absl@@XZ
    ?first@?$__compressed_pair@PAPAUCordRep@cord_internal@absl@@V?$allocator@PAUCordRep@cord_internal@absl@@@__1@std@@@__1@std@@QAEAAPAPAUCordRep@cord_internal@absl@@XZ
    ?first@?$__compressed_pair@PAPAUCordRep@cord_internal@absl@@V?$allocator@PAUCordRep@cord_internal@absl@@@__1@std@@@__1@std@@QBEABQAPAUCordRep@cord_internal@absl@@XZ
    ?first@?$__compressed_pair@PAPAVCordzHandle@cord_internal@absl@@AAV?$allocator@PAVCordzHandle@cord_internal@absl@@@__1@std@@@__1@std@@QAEAAPAPAVCordzHandle@cord_internal@absl@@XZ
    ?first@?$__compressed_pair@PAPAVCordzHandle@cord_internal@absl@@AAV?$allocator@PAVCordzHandle@cord_internal@absl@@@__1@std@@@__1@std@@QBEABQAPAVCordzHandle@cord_internal@absl@@XZ
    ?first@?$__compressed_pair@PAPAVCordzHandle@cord_internal@absl@@V?$allocator@PAVCordzHandle@cord_internal@absl@@@__1@std@@@__1@std@@QAEAAPAPAVCordzHandle@cord_internal@absl@@XZ
    ?first@?$__compressed_pair@PAPAVCordzHandle@cord_internal@absl@@V?$allocator@PAVCordzHandle@cord_internal@absl@@@__1@std@@@__1@std@@QBEABQAPAVCordzHandle@cord_internal@absl@@XZ
    ?first@?$__compressed_pair@PAPBVCordzHandle@cord_internal@absl@@AAV?$allocator@PBVCordzHandle@cord_internal@absl@@@__1@std@@@__1@std@@QAEAAPAPBVCordzHandle@cord_internal@absl@@XZ
    ?first@?$__compressed_pair@PAPBVCordzHandle@cord_internal@absl@@AAV?$allocator@PBVCordzHandle@cord_internal@absl@@@__1@std@@@__1@std@@QBEABQAPBVCordzHandle@cord_internal@absl@@XZ
    ?first@?$__compressed_pair@PAPBVCordzHandle@cord_internal@absl@@V?$allocator@PBVCordzHandle@cord_internal@absl@@@__1@std@@@__1@std@@QAEAAPAPBVCordzHandle@cord_internal@absl@@XZ
    ?first@?$__compressed_pair@PAPBVCordzHandle@cord_internal@absl@@V?$allocator@PBVCordzHandle@cord_internal@absl@@@__1@std@@@__1@std@@QBEABQAPBVCordzHandle@cord_internal@absl@@XZ
    ?first@?$__compressed_pair@PAPBVImpl@time_zone@cctz@time_internal@absl@@V?$__allocator_destructor@V?$allocator@PBVImpl@time_zone@cctz@time_internal@absl@@@__1@std@@@__1@std@@@__1@std@@QAEAAPAPBVImpl@time_zone@cctz@time_internal@absl@@XZ
    ?first@?$__compressed_pair@PAPBVImpl@time_zone@cctz@time_internal@absl@@V?$__allocator_destructor@V?$allocator@PBVImpl@time_zone@cctz@time_internal@absl@@@__1@std@@@__1@std@@@__1@std@@QBEABQAPBVImpl@time_zone@cctz@time_internal@absl@@XZ
    ?first@?$__compressed_pair@PAU?$__hash_node@U?$__hash_value_type@V?$basic_string@DU?$char_traits@D@__1@std@@V?$allocator@D@23@@__1@std@@PBVImpl@time_zone@cctz@time_internal@absl@@@__1@std@@PAX@__1@std@@V?$__hash_node_destructor@V?$allocator@U?$__hash_node@U?$__hash_value_type@V?$basic_string@DU?$char_traits@D@__1@std@@V?$allocator@D@23@@__1@std@@PBVImpl@time_zone@cctz@time_internal@absl@@@__1@std@@PAX@__1@std@@@__1@std@@@23@@__1@std@@QAEAAPAU?$__hash_node@U?$__hash_value_type@V?$basic_string@DU?$char_traits@D@__1@std@@V?$allocator@D@23@@__1@std@@PBVImpl@time_zone@cctz@time_internal@absl@@@__1@std@@PAX@23@XZ
    ?first@?$__compressed_pair@PAU?$__hash_node@U?$__hash_value_type@V?$basic_string@DU?$char_traits@D@__1@std@@V?$allocator@D@23@@__1@std@@PBVImpl@time_zone@cctz@time_internal@absl@@@__1@std@@PAX@__1@std@@V?$__hash_node_destructor@V?$allocator@U?$__hash_node@U?$__hash_value_type@V?$basic_string@DU?$char_traits@D@__1@std@@V?$allocator@D@23@@__1@std@@PBVImpl@time_zone@cctz@time_internal@absl@@@__1@std@@PAX@__1@std@@@__1@std@@@23@@__1@std@@QBEABQAU?$__hash_node@U?$__hash_value_type@V?$basic_string@DU?$char_traits@D@__1@std@@V?$allocator@D@23@@__1@std@@PBVImpl@time_zone@cctz@time_internal@absl@@@__1@std@@PAX@23@XZ
    ?first@?$__compressed_pair@PAUConversionItem@ParsedFormatBase@str_format_internal@absl@@AAV?$allocator@UConversionItem@ParsedFormatBase@str_format_internal@absl@@@__1@std@@@__1@std@@QAEAAPAUConversionItem@ParsedFormatBase@str_format_internal@absl@@XZ
    ?first@?$__compressed_pair@PAUConversionItem@ParsedFormatBase@str_format_internal@absl@@AAV?$allocator@UConversionItem@ParsedFormatBase@str_format_internal@absl@@@__1@std@@@__1@std@@QBEABQAUConversionItem@ParsedFormatBase@str_format_internal@absl@@XZ
    ?first@?$__compressed_pair@PAUConversionItem@ParsedFormatBase@str_format_internal@absl@@V?$allocator@UConversionItem@ParsedFormatBase@str_format_internal@absl@@@__1@std@@@__1@std@@QAEAAPAUConversionItem@ParsedFormatBase@str_format_internal@absl@@XZ
    ?first@?$__compressed_pair@PAUConversionItem@ParsedFormatBase@str_format_internal@absl@@V?$allocator@UConversionItem@ParsedFormatBase@str_format_internal@absl@@@__1@std@@@__1@std@@QBEABQAUConversionItem@ParsedFormatBase@str_format_internal@absl@@XZ
    ?first@?$__compressed_pair@PAUThreadIdentity@base_internal@absl@@P6AXPAX@Z@__1@std@@QAEAAPAUThreadIdentity@base_internal@absl@@XZ
    ?first@?$__compressed_pair@PAUTransition@cctz@time_internal@absl@@AAV?$allocator@UTransition@cctz@time_internal@absl@@@__1@std@@@__1@std@@QAEAAPAUTransition@cctz@time_internal@absl@@XZ
    ?first@?$__compressed_pair@PAUTransition@cctz@time_internal@absl@@AAV?$allocator@UTransition@cctz@time_internal@absl@@@__1@std@@@__1@std@@QBEABQAUTransition@cctz@time_internal@absl@@XZ
    ?first@?$__compressed_pair@PAUTransition@cctz@time_internal@absl@@V?$allocator@UTransition@cctz@time_internal@absl@@@__1@std@@@__1@std@@QAEAAPAUTransition@cctz@time_internal@absl@@XZ
    ?first@?$__compressed_pair@PAUTransition@cctz@time_internal@absl@@V?$allocator@UTransition@cctz@time_internal@absl@@@__1@std@@@__1@std@@QBEABQAUTransition@cctz@time_internal@absl@@XZ
    ?first@?$__compressed_pair@PAUTransitionType@cctz@time_internal@absl@@AAV?$allocator@UTransitionType@cctz@time_internal@absl@@@__1@std@@@__1@std@@QAEAAPAUTransitionType@cctz@time_internal@absl@@XZ
    ?first@?$__compressed_pair@PAUTransitionType@cctz@time_internal@absl@@AAV?$allocator@UTransitionType@cctz@time_internal@absl@@@__1@std@@@__1@std@@QBEABQAUTransitionType@cctz@time_internal@absl@@XZ
    ?first@?$__compressed_pair@PAUTransitionType@cctz@time_internal@absl@@V?$allocator@UTransitionType@cctz@time_internal@absl@@@__1@std@@@__1@std@@QAEAAPAUTransitionType@cctz@time_internal@absl@@XZ
    ?first@?$__compressed_pair@PAUTransitionType@cctz@time_internal@absl@@V?$allocator@UTransitionType@cctz@time_internal@absl@@@__1@std@@@__1@std@@QBEABQAUTransitionType@cctz@time_internal@absl@@XZ
    ?first@?$__compressed_pair@PAUViableSubstitution@strings_internal@absl@@AAV?$allocator@UViableSubstitution@strings_internal@absl@@@__1@std@@@__1@std@@QAEAAPAUViableSubstitution@strings_internal@absl@@XZ
    ?first@?$__compressed_pair@PAUViableSubstitution@strings_internal@absl@@AAV?$allocator@UViableSubstitution@strings_internal@absl@@@__1@std@@@__1@std@@QBEABQAUViableSubstitution@strings_internal@absl@@XZ
    ?first@?$__compressed_pair@PAUViableSubstitution@strings_internal@absl@@V?$allocator@UViableSubstitution@strings_internal@absl@@@__1@std@@@__1@std@@QAEAAPAUViableSubstitution@strings_internal@absl@@XZ
    ?first@?$__compressed_pair@PAUViableSubstitution@strings_internal@absl@@V?$allocator@UViableSubstitution@strings_internal@absl@@@__1@std@@@__1@std@@QBEABQAUViableSubstitution@strings_internal@absl@@XZ
    ?first@?$__compressed_pair@PAV?$InlinedVector@UPayload@status_internal@absl@@$00V?$allocator@UPayload@status_internal@absl@@@__1@std@@@absl@@U?$default_delete@V?$InlinedVector@UPayload@status_internal@absl@@$00V?$allocator@UPayload@status_internal@absl@@@__1@std@@@absl@@@__1@std@@@__1@std@@QAEAAPAV?$InlinedVector@UPayload@status_internal@absl@@$00V?$allocator@UPayload@status_internal@absl@@@__1@std@@@absl@@XZ
    ?first@?$__compressed_pair@PAV?$InlinedVector@UPayload@status_internal@absl@@$00V?$allocator@UPayload@status_internal@absl@@@__1@std@@@absl@@U?$default_delete@V?$InlinedVector@UPayload@status_internal@absl@@$00V?$allocator@UPayload@status_internal@absl@@@__1@std@@@absl@@@__1@std@@@__1@std@@QBEABQAV?$InlinedVector@UPayload@status_internal@absl@@$00V?$allocator@UPayload@status_internal@absl@@@__1@std@@@absl@@XZ
    ?first@?$__compressed_pair@PAVFormatArgImpl@str_format_internal@absl@@V?$allocator@VFormatArgImpl@str_format_internal@absl@@@__1@std@@@__1@std@@QAEAAPAVFormatArgImpl@str_format_internal@absl@@XZ
    ?first@?$__compressed_pair@PAVFormatArgImpl@str_format_internal@absl@@V?$allocator@VFormatArgImpl@str_format_internal@absl@@@__1@std@@@__1@std@@QBEABQAVFormatArgImpl@str_format_internal@absl@@XZ
    ?first@?$__compressed_pair@PAVTimeZoneIf@cctz@time_internal@absl@@U?$default_delete@VTimeZoneIf@cctz@time_internal@absl@@@__1@std@@@__1@std@@QAEAAPAVTimeZoneIf@cctz@time_internal@absl@@XZ
    ?first@?$__compressed_pair@PAVTimeZoneIf@cctz@time_internal@absl@@U?$default_delete@VTimeZoneIf@cctz@time_internal@absl@@@__1@std@@@__1@std@@QBEABQAVTimeZoneIf@cctz@time_internal@absl@@XZ
    ?first@?$__compressed_pair@PAVTimeZoneInfo@cctz@time_internal@absl@@U?$default_delete@VTimeZoneInfo@cctz@time_internal@absl@@@__1@std@@@__1@std@@QAEAAPAVTimeZoneInfo@cctz@time_internal@absl@@XZ
    ?first@?$__compressed_pair@PAVTimeZoneInfo@cctz@time_internal@absl@@U?$default_delete@VTimeZoneInfo@cctz@time_internal@absl@@@__1@std@@@__1@std@@QBEABQAVTimeZoneInfo@cctz@time_internal@absl@@XZ
    ?first@?$__compressed_pair@PAVZoneInfoSource@cctz@time_internal@absl@@U?$default_delete@VZoneInfoSource@cctz@time_internal@absl@@@__1@std@@@__1@std@@QAEAAPAVZoneInfoSource@cctz@time_internal@absl@@XZ
    ?first@?$__compressed_pair@PAVZoneInfoSource@cctz@time_internal@absl@@U?$default_delete@VZoneInfoSource@cctz@time_internal@absl@@@__1@std@@@__1@std@@QBEABQAVZoneInfoSource@cctz@time_internal@absl@@XZ
    ?first@?$__compressed_pair@PBVImpl@time_zone@cctz@time_internal@absl@@U?$default_delete@$$CBVImpl@time_zone@cctz@time_internal@absl@@@__1@std@@@__1@std@@QAEAAPBVImpl@time_zone@cctz@time_internal@absl@@XZ
    ?first@?$__compressed_pair@PBVImpl@time_zone@cctz@time_internal@absl@@U?$default_delete@$$CBVImpl@time_zone@cctz@time_internal@absl@@@__1@std@@@__1@std@@QBEABQBVImpl@time_zone@cctz@time_internal@absl@@XZ
    ?first@?$__compressed_pair@U?$__hash_node_base@PAU?$__hash_node@U?$__hash_value_type@V?$basic_string@DU?$char_traits@D@__1@std@@V?$allocator@D@23@@__1@std@@PBVImpl@time_zone@cctz@time_internal@absl@@@__1@std@@PAX@__1@std@@@__1@std@@V?$allocator@U?$__hash_node@U?$__hash_value_type@V?$basic_string@DU?$char_traits@D@__1@std@@V?$allocator@D@23@@__1@std@@PBVImpl@time_zone@cctz@time_internal@absl@@@__1@std@@PAX@__1@std@@@23@@__1@std@@QAEAAU?$__hash_node_base@PAU?$__hash_node@U?$__hash_value_type@V?$basic_string@DU?$char_traits@D@__1@std@@V?$allocator@D@23@@__1@std@@PBVImpl@time_zone@cctz@time_internal@absl@@@__1@std@@PAX@__1@std@@@23@XZ
    ?fixed_time_zone@cctz@time_internal@absl@@YA?AVtime_zone@123@ABV?$duration@_JV?$ratio@$00$00@__1@std@@@chrono@__1@std@@@Z
    ?flat@CordRep@cord_internal@absl@@QAEPAUCordRepFlat@23@XZ
    ?flat@CordRep@cord_internal@absl@@QBEPBUCordRepFlat@23@XZ
    ?format@detail@cctz@time_internal@absl@@YA?AV?$basic_string@DU?$char_traits@D@__1@std@@V?$allocator@D@23@@__1@std@@ABV567@ABV?$time_point@Vsystem_clock@chrono@__1@std@@V?$duration@_JV?$ratio@$00$00@__1@std@@@234@@chrono@67@ABV?$duration@_JV?$ratio@$00$0DINHOKEMGIAAA@@__1@std@@@967@ABVtime_zone@234@@Z
    ?from_chars@absl@@YA?AUfrom_chars_result@1@PBD0AAMW4chars_format@1@@Z
    ?from_chars@absl@@YA?AUfrom_chars_result@1@PBD0AANW4chars_format@1@@Z
    ?front@?$__split_buffer@PAPBVImpl@time_zone@cctz@time_internal@absl@@V?$allocator@PAPBVImpl@time_zone@cctz@time_internal@absl@@@__1@std@@@__1@std@@QAEAAPAPBVImpl@time_zone@cctz@time_internal@absl@@XZ
    ?front@?$vector@UTransition@cctz@time_internal@absl@@V?$allocator@UTransition@cctz@time_internal@absl@@@__1@std@@@__1@std@@QAEAAUTransition@cctz@time_internal@absl@@XZ
    ?front@string_view@absl@@QBEABDXZ
    ?gbswap_16@absl@@YAGG@Z
    ?gbswap_32@absl@@YAII@Z
    ?gbswap_64@absl@@YA_K_K@Z
    ?get@?$Storage@I$00$0A@@internal_compressed_tuple@container_internal@absl@@QGAEAAIXZ
    ?get@?$Storage@I$00$0A@@internal_compressed_tuple@container_internal@absl@@QGBEABIXZ
    ?get@?$Storage@I$0A@$0A@@internal_compressed_tuple@container_internal@absl@@QGBEABIXZ
    ?get@?$Storage@PAH$00$0A@@internal_compressed_tuple@container_internal@absl@@QGAEAAPAHXZ
    ?get@?$Storage@PAPAUCordRep@cord_internal@absl@@$00$0A@@internal_compressed_tuple@container_internal@absl@@QGAEAAPAPAUCordRep@cord_internal@4@XZ
    ?get@?$Storage@PAPBUCordRep@cord_internal@absl@@$00$0A@@internal_compressed_tuple@container_internal@absl@@QGAEAAPAPBUCordRep@cord_internal@4@XZ
    ?get@?$Storage@PAUPayload@status_internal@absl@@$00$0A@@internal_compressed_tuple@container_internal@absl@@QGAEAAPAUPayload@status_internal@4@XZ
    ?get@?$Storage@PAUSubRange@absl@@$00$0A@@internal_compressed_tuple@container_internal@absl@@QGAEAAPAUSubRange@4@XZ
    ?get@?$Storage@V?$allocator@H@__1@std@@$0A@$00@internal_compressed_tuple@container_internal@absl@@QGAEAAV?$allocator@H@__1@std@@XZ
    ?get@?$Storage@V?$allocator@PAUCordRep@cord_internal@absl@@@__1@std@@$00$00@internal_compressed_tuple@container_internal@absl@@QGAEAAV?$allocator@PAUCordRep@cord_internal@absl@@@__1@std@@XZ
    ?get@?$Storage@V?$allocator@PAUCordRep@cord_internal@absl@@@__1@std@@$0A@$00@internal_compressed_tuple@container_internal@absl@@QGAEAAV?$allocator@PAUCordRep@cord_internal@absl@@@__1@std@@XZ
    ?get@?$Storage@V?$allocator@PBUCordRep@cord_internal@absl@@@__1@std@@$0A@$00@internal_compressed_tuple@container_internal@absl@@QGAEAAV?$allocator@PBUCordRep@cord_internal@absl@@@__1@std@@XZ
    ?get@?$Storage@V?$allocator@UPayload@status_internal@absl@@@__1@std@@$0A@$00@internal_compressed_tuple@container_internal@absl@@QGAEAAV?$allocator@UPayload@status_internal@absl@@@__1@std@@XZ
    ?get@?$Storage@V?$allocator@UPayload@status_internal@absl@@@__1@std@@$0A@$00@internal_compressed_tuple@container_internal@absl@@QGBEABV?$allocator@UPayload@status_internal@absl@@@__1@std@@XZ
    ?get@?$Storage@V?$allocator@USubRange@absl@@@__1@std@@$0A@$00@internal_compressed_tuple@container_internal@absl@@QGAEAAV?$allocator@USubRange@absl@@@__1@std@@XZ
    ?get@?$__temp_value@UTransition@cctz@time_internal@absl@@V?$allocator@UTransition@cctz@time_internal@absl@@@__1@std@@@__1@std@@QAEAAUTransition@cctz@time_internal@absl@@XZ
    ?get@?$__temp_value@UTransitionType@cctz@time_internal@absl@@V?$allocator@UTransitionType@cctz@time_internal@absl@@@__1@std@@@__1@std@@QAEAAUTransitionType@cctz@time_internal@absl@@XZ
    ?get@?$unique_ptr@PAPBVImpl@time_zone@cctz@time_internal@absl@@V?$__allocator_destructor@V?$allocator@PBVImpl@time_zone@cctz@time_internal@absl@@@__1@std@@@__1@std@@@__1@std@@QBEPAPBVImpl@time_zone@cctz@time_internal@absl@@XZ
    ?get@?$unique_ptr@U?$__hash_node@U?$__hash_value_type@V?$basic_string@DU?$char_traits@D@__1@std@@V?$allocator@D@23@@__1@std@@PBVImpl@time_zone@cctz@time_internal@absl@@@__1@std@@PAX@__1@std@@V?$__hash_node_destructor@V?$allocator@U?$__hash_node@U?$__hash_value_type@V?$basic_string@DU?$char_traits@D@__1@std@@V?$allocator@D@23@@__1@std@@PBVImpl@time_zone@cctz@time_internal@absl@@@__1@std@@PAX@__1@std@@@__1@std@@@23@@__1@std@@QBEPAU?$__hash_node@U?$__hash_value_type@V?$basic_string@DU?$char_traits@D@__1@std@@V?$allocator@D@23@@__1@std@@PBVImpl@time_zone@cctz@time_internal@absl@@@__1@std@@PAX@23@XZ
    ?get@?$unique_ptr@V?$InlinedVector@UPayload@status_internal@absl@@$00V?$allocator@UPayload@status_internal@absl@@@__1@std@@@absl@@U?$default_delete@V?$InlinedVector@UPayload@status_internal@absl@@$00V?$allocator@UPayload@status_internal@absl@@@__1@std@@@absl@@@__1@std@@@__1@std@@QBEPAV?$InlinedVector@UPayload@status_internal@absl@@$00V?$allocator@UPayload@status_internal@absl@@@__1@std@@@absl@@XZ
    ?get@?$unique_ptr@VZoneInfoSource@cctz@time_internal@absl@@U?$default_delete@VZoneInfoSource@cctz@time_internal@absl@@@__1@std@@@__1@std@@QBEPAVZoneInfoSource@cctz@time_internal@absl@@XZ
    ?get_cordz_mean_interval@cord_internal@absl@@YAHXZ
    ?get_deleter@?$unique_ptr@$$BY0A@PAU?$__hash_node_base@PAU?$__hash_node@U?$__hash_value_type@V?$basic_string@DU?$char_traits@D@__1@std@@V?$allocator@D@23@@__1@std@@PBVImpl@time_zone@cctz@time_internal@absl@@@__1@std@@PAX@__1@std@@@__1@std@@V?$__bucket_list_deallocator@V?$allocator@PAU?$__hash_node_base@PAU?$__hash_node@U?$__hash_value_type@V?$basic_string@DU?$char_traits@D@__1@std@@V?$allocator@D@23@@__1@std@@PBVImpl@time_zone@cctz@time_internal@absl@@@__1@std@@PAX@__1@std@@@__1@std@@@__1@std@@@23@@__1@std@@QAEAAV?$__bucket_list_deallocator@V?$allocator@PAU?$__hash_node_base@PAU?$__hash_node@U?$__hash_value_type@V?$basic_string@DU?$char_traits@D@__1@std@@V?$allocator@D@23@@__1@std@@PBVImpl@time_zone@cctz@time_internal@absl@@@__1@std@@PAX@__1@std@@@__1@std@@@__1@std@@@23@XZ
    ?get_deleter@?$unique_ptr@$$BY0A@PAU?$__hash_node_base@PAU?$__hash_node@U?$__hash_value_type@V?$basic_string@DU?$char_traits@D@__1@std@@V?$allocator@D@23@@__1@std@@PBVImpl@time_zone@cctz@time_internal@absl@@@__1@std@@PAX@__1@std@@@__1@std@@V?$__bucket_list_deallocator@V?$allocator@PAU?$__hash_node_base@PAU?$__hash_node@U?$__hash_value_type@V?$basic_string@DU?$char_traits@D@__1@std@@V?$allocator@D@23@@__1@std@@PBVImpl@time_zone@cctz@time_internal@absl@@@__1@std@@PAX@__1@std@@@__1@std@@@__1@std@@@23@@__1@std@@QBEABV?$__bucket_list_deallocator@V?$allocator@PAU?$__hash_node_base@PAU?$__hash_node@U?$__hash_value_type@V?$basic_string@DU?$char_traits@D@__1@std@@V?$allocator@D@23@@__1@std@@PBVImpl@time_zone@cctz@time_internal@absl@@@__1@std@@PAX@__1@std@@@__1@std@@@__1@std@@@23@XZ
    ?get_deleter@?$unique_ptr@U?$__hash_node@U?$__hash_value_type@V?$basic_string@DU?$char_traits@D@__1@std@@V?$allocator@D@23@@__1@std@@PBVImpl@time_zone@cctz@time_internal@absl@@@__1@std@@PAX@__1@std@@V?$__hash_node_destructor@V?$allocator@U?$__hash_node@U?$__hash_value_type@V?$basic_string@DU?$char_traits@D@__1@std@@V?$allocator@D@23@@__1@std@@PBVImpl@time_zone@cctz@time_internal@absl@@@__1@std@@PAX@__1@std@@@__1@std@@@23@@__1@std@@QAEAAV?$__hash_node_destructor@V?$allocator@U?$__hash_node@U?$__hash_value_type@V?$basic_string@DU?$char_traits@D@__1@std@@V?$allocator@D@23@@__1@std@@PBVImpl@time_zone@cctz@time_internal@absl@@@__1@std@@PAX@__1@std@@@__1@std@@@23@XZ
    ?get_deleter@?$unique_ptr@V?$InlinedVector@UPayload@status_internal@absl@@$00V?$allocator@UPayload@status_internal@absl@@@__1@std@@@absl@@U?$default_delete@V?$InlinedVector@UPayload@status_internal@absl@@$00V?$allocator@UPayload@status_internal@absl@@@__1@std@@@absl@@@__1@std@@@__1@std@@QAEAAU?$default_delete@V?$InlinedVector@UPayload@status_internal@absl@@$00V?$allocator@UPayload@status_internal@absl@@@__1@std@@@absl@@@23@XZ
    ?get_from_arg@InputValue@UnboundConversion@str_format_internal@absl@@QBEHXZ
    ?get_weekday@detail@cctz@time_internal@absl@@YA?AW4weekday@1234@ABV?$civil_time@Usecond_tag@detail@cctz@time_internal@absl@@@1234@@Z
    ?get_yearday@detail@cctz@time_internal@absl@@YAHABV?$civil_time@Usecond_tag@detail@cctz@time_internal@absl@@@1234@@Z
    ?has_alt_flag@FormatConversionSpecImpl@str_format_internal@absl@@QBE_NXZ
    ?has_left_flag@FormatConversionSpecImpl@str_format_internal@absl@@QBE_NXZ
    ?has_parsed_conversion@UntypedFormatSpecImpl@str_format_internal@absl@@QBE_NXZ
    ?has_show_pos_flag@FormatConversionSpecImpl@str_format_internal@absl@@QBE_NXZ
    ?has_sign_col_flag@FormatConversionSpecImpl@str_format_internal@absl@@QBE_NXZ
    ?has_timeout@KernelTimeout@synchronization_internal@absl@@QBE_NXZ
    ?has_value@?$optional@V?$basic_string@DU?$char_traits@D@__1@std@@V?$allocator@D@23@@__1@std@@@absl@@QBE_NXZ
    ?has_zero_flag@FormatConversionSpecImpl@str_format_internal@absl@@QBE_NXZ
    ?hash_function@?$__hash_table@U?$__hash_value_type@V?$basic_string@DU?$char_traits@D@__1@std@@V?$allocator@D@23@@__1@std@@PBVImpl@time_zone@cctz@time_internal@absl@@@__1@std@@V?$__unordered_map_hasher@V?$basic_string@DU?$char_traits@D@__1@std@@V?$allocator@D@23@@__1@std@@U?$__hash_value_type@V?$basic_string@DU?$char_traits@D@__1@std@@V?$allocator@D@23@@__1@std@@PBVImpl@time_zone@cctz@time_internal@absl@@@23@U?$hash@V?$basic_string@DU?$char_traits@D@__1@std@@V?$allocator@D@23@@__1@std@@@23@U?$equal_to@V?$basic_string@DU?$char_traits@D@__1@std@@V?$allocator@D@23@@__1@std@@@23@$00@23@V?$__unordered_map_equal@V?$basic_string@DU?$char_traits@D@__1@std@@V?$allocator@D@23@@__1@std@@U?$__hash_value_type@V?$basic_string@DU?$char_traits@D@__1@std@@V?$allocator@D@23@@__1@std@@PBVImpl@time_zone@cctz@time_internal@absl@@@23@U?$equal_to@V?$basic_string@DU?$char_traits@D@__1@std@@V?$allocator@D@23@@__1@std@@@23@U?$hash@V?$basic_string@DU?$char_traits@D@__1@std@@V?$allocator@D@23@@__1@std@@@23@$00@23@V?$allocator@U?$__hash_value_type@V?$basic_string@DU?$char_traits@D@__1@std@@V?$allocator@D@23@@__1@std@@PBVImpl@time_zone@cctz@time_internal@absl@@@__1@std@@@23@@__1@std@@QAEAAV?$__unordered_map_hasher@V?$basic_string@DU?$char_traits@D@__1@std@@V?$allocator@D@23@@__1@std@@U?$__hash_value_type@V?$basic_string@DU?$char_traits@D@__1@std@@V?$allocator@D@23@@__1@std@@PBVImpl@time_zone@cctz@time_internal@absl@@@23@U?$hash@V?$basic_string@DU?$char_traits@D@__1@std@@V?$allocator@D@23@@__1@std@@@23@U?$equal_to@V?$basic_string@DU?$char_traits@D@__1@std@@V?$allocator@D@23@@__1@std@@@23@$00@23@XZ
    ?head@CordRepRing@cord_internal@absl@@QBEIXZ
    ?head@Filler@CordRepRing@cord_internal@absl@@QBEIXZ
    ?height@CordRepBtree@cord_internal@absl@@QBEHXZ
    ?hour@?$civil_time@Uhour_tag@detail@cctz@time_internal@absl@@@detail@cctz@time_internal@absl@@QBEHXZ
    ?hour@?$civil_time@Usecond_tag@detail@cctz@time_internal@absl@@@detail@cctz@time_internal@absl@@QBEHXZ
    ?hour@?$civil_time@Usecond_tag@time_internal@absl@@@detail@cctz@time_internal@absl@@QBEHXZ
    ?index@CordRepBtree@cord_internal@absl@@QBEIW4EdgeType@123@@Z
    ?inline_size@InlineData@cord_internal@absl@@QBEIXZ
    ?inline_size@InlineRep@Cord@absl@@ABEIXZ
    ?is_basic@FormatConversionSpecImpl@str_format_internal@absl@@QBE_NXZ
    ?is_conv@ConvTag@str_format_internal@absl@@QBE_NXZ
    ?is_either_profiled@InlineData@cord_internal@absl@@SA_NABV123@0@Z
    ?is_empty@InlineData@cord_internal@absl@@QBE_NXZ
    ?is_flags@ConvTag@str_format_internal@absl@@QBE_NXZ
    ?is_from_arg@InputValue@UnboundConversion@str_format_internal@absl@@QBE_NXZ
    ?is_leap_year@impl@detail@cctz@time_internal@absl@@YA_N_J@Z
    ?is_length@ConvTag@str_format_internal@absl@@QBE_NXZ
    ?is_profiled@InlineData@cord_internal@absl@@QBE_NXZ
    ?is_snapshot@CordzHandle@cord_internal@absl@@QBE_NXZ
    ?is_tree@InlineData@cord_internal@absl@@QBE_NXZ
    ?is_tree@InlineRep@Cord@absl@@QBE_NXZ
    ?key_eq@?$__hash_table@U?$__hash_value_type@V?$basic_string@DU?$char_traits@D@__1@std@@V?$allocator@D@23@@__1@std@@PBVImpl@time_zone@cctz@time_internal@absl@@@__1@std@@V?$__unordered_map_hasher@V?$basic_string@DU?$char_traits@D@__1@std@@V?$allocator@D@23@@__1@std@@U?$__hash_value_type@V?$basic_string@DU?$char_traits@D@__1@std@@V?$allocator@D@23@@__1@std@@PBVImpl@time_zone@cctz@time_internal@absl@@@23@U?$hash@V?$basic_string@DU?$char_traits@D@__1@std@@V?$allocator@D@23@@__1@std@@@23@U?$equal_to@V?$basic_string@DU?$char_traits@D@__1@std@@V?$allocator@D@23@@__1@std@@@23@$00@23@V?$__unordered_map_equal@V?$basic_string@DU?$char_traits@D@__1@std@@V?$allocator@D@23@@__1@std@@U?$__hash_value_type@V?$basic_string@DU?$char_traits@D@__1@std@@V?$allocator@D@23@@__1@std@@PBVImpl@time_zone@cctz@time_internal@absl@@@23@U?$equal_to@V?$basic_string@DU?$char_traits@D@__1@std@@V?$allocator@D@23@@__1@std@@@23@U?$hash@V?$basic_string@DU?$char_traits@D@__1@std@@V?$allocator@D@23@@__1@std@@@23@$00@23@V?$allocator@U?$__hash_value_type@V?$basic_string@DU?$char_traits@D@__1@std@@V?$allocator@D@23@@__1@std@@PBVImpl@time_zone@cctz@time_internal@absl@@@__1@std@@@23@@__1@std@@QAEAAV?$__unordered_map_equal@V?$basic_string@DU?$char_traits@D@__1@std@@V?$allocator@D@23@@__1@std@@U?$__hash_value_type@V?$basic_string@DU?$char_traits@D@__1@std@@V?$allocator@D@23@@__1@std@@PBVImpl@time_zone@cctz@time_internal@absl@@@23@U?$equal_to@V?$basic_string@DU?$char_traits@D@__1@std@@V?$allocator@D@23@@__1@std@@@23@U?$hash@V?$basic_string@DU?$char_traits@D@__1@std@@V?$allocator@D@23@@__1@std@@@23@$00@23@XZ
    ?length@?$Span@D@absl@@QBEIXZ
    ?length@CordRepBtreeReader@cord_internal@absl@@QBEIXZ
    ?length@string_view@absl@@QBEIXZ
    ?load@?$__atomic_base@P6AXABUHashtablezInfo@container_internal@absl@@@Z$0A@@__1@std@@QBEP6AXABUHashtablezInfo@container_internal@absl@@@ZW4memory_order@23@@Z
    ?load@?$__atomic_base@PAUHashtablezInfo@container_internal@absl@@$0A@@__1@std@@QBEPAUHashtablezInfo@container_internal@absl@@W4memory_order@23@@Z
    ?load@?$__atomic_base@PAVCordzHandle@cord_internal@absl@@$0A@@__1@std@@QBEPAVCordzHandle@cord_internal@absl@@W4memory_order@23@@Z
    ?load@?$__atomic_base@PAVCordzInfo@cord_internal@absl@@$0A@@__1@std@@QBEPAVCordzInfo@cord_internal@absl@@W4memory_order@23@@Z
    ?load@?$__atomic_base@W4OnDeadlockCycle@absl@@$0A@@__1@std@@QBE?AW4OnDeadlockCycle@absl@@W4memory_order@23@@Z
    ?load@?$__atomic_base@W4State@PerThreadSynch@base_internal@absl@@$0A@@__1@std@@QBE?AW4State@PerThreadSynch@base_internal@absl@@W4memory_order@23@@Z
    ?load_time_zone@cctz@time_internal@absl@@YA_NABV?$basic_string@DU?$char_traits@D@__1@std@@V?$allocator@D@23@@__1@std@@PAVtime_zone@123@@Z
    ?local_time_zone@cctz@time_internal@absl@@YA?AVtime_zone@123@XZ
    ?lookup@time_zone@cctz@time_internal@absl@@QBE?AUabsolute_lookup@1234@ABV?$time_point@Vsystem_clock@chrono@__1@std@@V?$duration@_JV?$ratio@$00$00@__1@std@@@234@@chrono@__1@std@@@Z
    ?lookup@time_zone@cctz@time_internal@absl@@QBE?AUcivil_lookup@1234@ABV?$civil_time@Usecond_tag@detail@cctz@time_internal@absl@@@detail@234@@Z
    ?make_tree@InlineData@cord_internal@absl@@QAEXPAUCordRep@23@@Z
    ?max@?$civil_time@Usecond_tag@detail@cctz@time_internal@absl@@@detail@cctz@time_internal@absl@@SA?AV12345@XZ
    ?max@?$civil_time@Usecond_tag@time_internal@absl@@@detail@cctz@time_internal@absl@@SA?AV12345@XZ
    ?max@?$numeric_limits@Vint128@absl@@@__1@std@@SA?AVint128@absl@@XZ
    ?max@?$numeric_limits@Vuint128@absl@@@__1@std@@SA?AVuint128@absl@@XZ
    ?max_load_factor@?$__hash_table@U?$__hash_value_type@V?$basic_string@DU?$char_traits@D@__1@std@@V?$allocator@D@23@@__1@std@@PBVImpl@time_zone@cctz@time_internal@absl@@@__1@std@@V?$__unordered_map_hasher@V?$basic_string@DU?$char_traits@D@__1@std@@V?$allocator@D@23@@__1@std@@U?$__hash_value_type@V?$basic_string@DU?$char_traits@D@__1@std@@V?$allocator@D@23@@__1@std@@PBVImpl@time_zone@cctz@time_internal@absl@@@23@U?$hash@V?$basic_string@DU?$char_traits@D@__1@std@@V?$allocator@D@23@@__1@std@@@23@U?$equal_to@V?$basic_string@DU?$char_traits@D@__1@std@@V?$allocator@D@23@@__1@std@@@23@$00@23@V?$__unordered_map_equal@V?$basic_string@DU?$char_traits@D@__1@std@@V?$allocator@D@23@@__1@std@@U?$__hash_value_type@V?$basic_string@DU?$char_traits@D@__1@std@@V?$allocator@D@23@@__1@std@@PBVImpl@time_zone@cctz@time_internal@absl@@@23@U?$equal_to@V?$basic_string@DU?$char_traits@D@__1@std@@V?$allocator@D@23@@__1@std@@@23@U?$hash@V?$basic_string@DU?$char_traits@D@__1@std@@V?$allocator@D@23@@__1@std@@@23@$00@23@V?$allocator@U?$__hash_value_type@V?$basic_string@DU?$char_traits@D@__1@std@@V?$allocator@D@23@@__1@std@@PBVImpl@time_zone@cctz@time_internal@absl@@@__1@std@@@23@@__1@std@@QAEAAMXZ
    ?max_size@?$allocator@PAPBVImpl@time_zone@cctz@time_internal@absl@@@__1@std@@QBEIXZ
    ?max_size@?$allocator@PAU?$__hash_node_base@PAU?$__hash_node@U?$__hash_value_type@V?$basic_string@DU?$char_traits@D@__1@std@@V?$allocator@D@23@@__1@std@@PBVImpl@time_zone@cctz@time_internal@absl@@@__1@std@@PAX@__1@std@@@__1@std@@@__1@std@@QBEIXZ
    ?max_size@?$allocator@PAUCordRep@cord_internal@absl@@@__1@std@@QBEIXZ
    ?max_size@?$allocator@PAVCordzHandle@cord_internal@absl@@@__1@std@@QBEIXZ
    ?max_size@?$allocator@PBUCordRep@cord_internal@absl@@@__1@std@@QBEIXZ
    ?max_size@?$allocator@PBVCordzHandle@cord_internal@absl@@@__1@std@@QBEIXZ
    ?max_size@?$allocator@PBVImpl@time_zone@cctz@time_internal@absl@@@__1@std@@QBEIXZ
    ?max_size@?$allocator@U?$__hash_node@U?$__hash_value_type@V?$basic_string@DU?$char_traits@D@__1@std@@V?$allocator@D@23@@__1@std@@PBVImpl@time_zone@cctz@time_internal@absl@@@__1@std@@PAX@__1@std@@@__1@std@@QBEIXZ
    ?max_size@?$allocator@UConversionItem@ParsedFormatBase@str_format_internal@absl@@@__1@std@@QBEIXZ
    ?max_size@?$allocator@UPayload@status_internal@absl@@@__1@std@@QBEIXZ
    ?max_size@?$allocator@USubRange@absl@@@__1@std@@QBEIXZ
    ?max_size@?$allocator@UTransition@cctz@time_internal@absl@@@__1@std@@QBEIXZ
    ?max_size@?$allocator@UTransitionType@cctz@time_internal@absl@@@__1@std@@QBEIXZ
    ?max_size@?$allocator@UViableSubstitution@strings_internal@absl@@@__1@std@@QBEIXZ
    ?max_size@?$allocator@VFormatArgImpl@str_format_internal@absl@@@__1@std@@QBEIXZ
    ?max_size@?$vector@PAUCordRep@cord_internal@absl@@V?$allocator@PAUCordRep@cord_internal@absl@@@__1@std@@@__1@std@@QBEIXZ
    ?max_size@?$vector@PAVCordzHandle@cord_internal@absl@@V?$allocator@PAVCordzHandle@cord_internal@absl@@@__1@std@@@__1@std@@QBEIXZ
    ?max_size@?$vector@PBVCordzHandle@cord_internal@absl@@V?$allocator@PBVCordzHandle@cord_internal@absl@@@__1@std@@@__1@std@@QBEIXZ
    ?max_size@?$vector@UConversionItem@ParsedFormatBase@str_format_internal@absl@@V?$allocator@UConversionItem@ParsedFormatBase@str_format_internal@absl@@@__1@std@@@__1@std@@QBEIXZ
    ?max_size@?$vector@UTransition@cctz@time_internal@absl@@V?$allocator@UTransition@cctz@time_internal@absl@@@__1@std@@@__1@std@@QBEIXZ
    ?max_size@?$vector@UTransitionType@cctz@time_internal@absl@@V?$allocator@UTransitionType@cctz@time_internal@absl@@@__1@std@@@__1@std@@QBEIXZ
    ?max_size@?$vector@UViableSubstitution@strings_internal@absl@@V?$allocator@UViableSubstitution@strings_internal@absl@@@__1@std@@@__1@std@@QBEIXZ
    ?max_size@?$vector@VFormatArgImpl@str_format_internal@absl@@V?$allocator@VFormatArgImpl@str_format_internal@absl@@@__1@std@@@__1@std@@QBEIXZ
    ?memcasecmp@strings_internal@absl@@YAHPBD0I@Z
    ?memcspn@strings_internal@absl@@YAIPBDI0@Z
    ?memdup@strings_internal@absl@@YAPADPBDI@Z
    ?memmatch@strings_internal@absl@@YAPBDPBDI0I@Z
    ?mempbrk@strings_internal@absl@@YAPADPBDI0@Z
    ?memrchr@strings_internal@absl@@YAPADPBDHI@Z
    ?memspn@strings_internal@absl@@YAIPBDI0@Z
    ?message@Status@absl@@QBE?AVstring_view@2@XZ
    ?min@?$civil_time@Usecond_tag@detail@cctz@time_internal@absl@@@detail@cctz@time_internal@absl@@SA?AV12345@XZ
    ?min@?$civil_time@Usecond_tag@time_internal@absl@@@detail@cctz@time_internal@absl@@SA?AV12345@XZ
    ?min@?$numeric_limits@Vint128@absl@@@__1@std@@SA?AVint128@absl@@XZ
    ?minute@?$civil_time@Uminute_tag@detail@cctz@time_internal@absl@@@detail@cctz@time_internal@absl@@QBEHXZ
    ?minute@?$civil_time@Usecond_tag@detail@cctz@time_internal@absl@@@detail@cctz@time_internal@absl@@QBEHXZ
    ?minute@?$civil_time@Usecond_tag@time_internal@absl@@@detail@cctz@time_internal@absl@@QBEHXZ
    ?month@?$civil_time@Uday_tag@detail@cctz@time_internal@absl@@@detail@cctz@time_internal@absl@@QBEHXZ
    ?month@?$civil_time@Umonth_tag@detail@cctz@time_internal@absl@@@detail@cctz@time_internal@absl@@QBEHXZ
    ?month@?$civil_time@Usecond_tag@detail@cctz@time_internal@absl@@@detail@cctz@time_internal@absl@@QBEHXZ
    ?month@?$civil_time@Usecond_tag@time_internal@absl@@@detail@cctz@time_internal@absl@@QBEHXZ
    ?n_day@impl@detail@cctz@time_internal@absl@@YA?AUfields@2345@_JC00CCC@Z
    ?n_hour@impl@detail@cctz@time_internal@absl@@YA?AUfields@2345@_J0000CC@Z
    ?n_min@impl@detail@cctz@time_internal@absl@@YA?AUfields@2345@_J00000C@Z
    ?n_mon@impl@detail@cctz@time_internal@absl@@YA?AUfields@2345@_J000CCC@Z
    ?n_sec@impl@detail@cctz@time_internal@absl@@YA?AUfields@2345@_J00000@Z
    ?name@time_zone@cctz@time_internal@absl@@QBE?AV?$basic_string@DU?$char_traits@D@__1@std@@V?$allocator@D@23@@__1@std@@XZ
    ?next_transition@time_zone@cctz@time_internal@absl@@QBE_NABV?$time_point@Vsystem_clock@chrono@__1@std@@V?$duration@_JV?$ratio@$00$00@__1@std@@@234@@chrono@__1@std@@PAUcivil_transition@1234@@Z
    ?next_weekday@detail@cctz@time_internal@absl@@YA?AV?$civil_time@Uday_tag@detail@cctz@time_internal@absl@@@1234@V51234@W4weekday@1234@@Z
    ?ok@Status@absl@@QBE_NXZ
    ?overflow@OStringStream@strings_internal@absl@@EAEHH@Z
    ?parse@detail@cctz@time_internal@absl@@YA_NABV?$basic_string@DU?$char_traits@D@__1@std@@V?$allocator@D@23@@__1@std@@0ABVtime_zone@234@PAV?$time_point@Vsystem_clock@chrono@__1@std@@V?$duration@_JV?$ratio@$00$00@__1@std@@@234@@chrono@67@PAV?$duration@_JV?$ratio@$00$0DINHOKEMGIAAA@@__1@std@@@chrono@67@PAV567@@Z
    ?parsed_conversion@UntypedFormatSpecImpl@str_format_internal@absl@@QBEPBVParsedFormatBase@23@XZ
    ?pointer_to@?$pointer_traits@PAU?$__hash_node_base@PAU?$__hash_node@U?$__hash_value_type@V?$basic_string@DU?$char_traits@D@__1@std@@V?$allocator@D@23@@__1@std@@PBVImpl@time_zone@cctz@time_internal@absl@@@__1@std@@PAX@__1@std@@@__1@std@@@__1@std@@SAPAU?$__hash_node_base@PAU?$__hash_node@U?$__hash_value_type@V?$basic_string@DU?$char_traits@D@__1@std@@V?$allocator@D@23@@__1@std@@PBVImpl@time_zone@cctz@time_internal@absl@@@__1@std@@PAX@__1@std@@@23@AAU423@@Z
    ?pointer_to@?$pointer_traits@PAU?$__hash_value_type@V?$basic_string@DU?$char_traits@D@__1@std@@V?$allocator@D@23@@__1@std@@PBVImpl@time_zone@cctz@time_internal@absl@@@__1@std@@@__1@std@@SAPAU?$__hash_value_type@V?$basic_string@DU?$char_traits@D@__1@std@@V?$allocator@D@23@@__1@std@@PBVImpl@time_zone@cctz@time_internal@absl@@@23@AAU423@@Z
    ?pointer_to@?$pointer_traits@PBU?$__hash_value_type@V?$basic_string@DU?$char_traits@D@__1@std@@V?$allocator@D@23@@__1@std@@PBVImpl@time_zone@cctz@time_internal@absl@@@__1@std@@@__1@std@@SAPBU?$__hash_value_type@V?$basic_string@DU?$char_traits@D@__1@std@@V?$allocator@D@23@@__1@std@@PBVImpl@time_zone@cctz@time_internal@absl@@@23@ABU423@@Z
    ?pointer_to@?$pointer_traits@PBU?$pair@$$CBV?$basic_string@DU?$char_traits@D@__1@std@@V?$allocator@D@23@@__1@std@@PBVImpl@time_zone@cctz@time_internal@absl@@@__1@std@@@__1@std@@SAPBU?$pair@$$CBV?$basic_string@DU?$char_traits@D@__1@std@@V?$allocator@D@23@@__1@std@@PBVImpl@time_zone@cctz@time_internal@absl@@@23@ABU423@@Z
    ?pop_back@?$InlinedVector@H$0CP@V?$allocator@H@__1@std@@@absl@@QAEXXZ
    ?pop_back@?$InlinedVector@PAUCordRep@cord_internal@absl@@$01V?$allocator@PAUCordRep@cord_internal@absl@@@__1@std@@@absl@@QAEXXZ
    ?pop_back@?$InlinedVector@PAUCordRep@cord_internal@absl@@$0CP@V?$allocator@PAUCordRep@cord_internal@absl@@@__1@std@@@absl@@QAEXXZ
    ?pop_back@?$InlinedVector@PBUCordRep@cord_internal@absl@@$0CP@V?$allocator@PBUCordRep@cord_internal@absl@@@__1@std@@@absl@@QAEXXZ
    ?pop_back@?$InlinedVector@USubRange@absl@@$0CP@V?$allocator@USubRange@absl@@@__1@std@@@absl@@QAEXXZ
    ?pop_back@?$vector@PAUCordRep@cord_internal@absl@@V?$allocator@PAUCordRep@cord_internal@absl@@@__1@std@@@__1@std@@QAEXXZ
    ?pop_back@?$vector@UViableSubstitution@strings_internal@absl@@V?$allocator@UViableSubstitution@strings_internal@absl@@@__1@std@@@__1@std@@QAEXXZ
    ?pop_front@?$__split_buffer@PAPBVImpl@time_zone@cctz@time_internal@absl@@V?$allocator@PAPBVImpl@time_zone@cctz@time_internal@absl@@@__1@std@@@__1@std@@QAEXXZ
    ?pos@Filler@CordRepRing@cord_internal@absl@@QBEIXZ
    ?precision@FormatConversionSpecImpl@str_format_internal@absl@@QBEHXZ
    ?prev_transition@time_zone@cctz@time_internal@absl@@QBE_NABV?$time_point@Vsystem_clock@chrono@__1@std@@V?$duration@_JV?$ratio@$00$00@__1@std@@@234@@chrono@__1@std@@PAUcivil_transition@1234@@Z
    ?prev_weekday@detail@cctz@time_internal@absl@@YA?AV?$civil_time@Uday_tag@detail@cctz@time_internal@absl@@@1234@V51234@W4weekday@1234@@Z
    ?push_back@?$InlinedVector@H$0CP@V?$allocator@H@__1@std@@@absl@@QAEXABH@Z
    ?push_back@?$InlinedVector@PAUCordRep@cord_internal@absl@@$01V?$allocator@PAUCordRep@cord_internal@absl@@@__1@std@@@absl@@QAEXABQAUCordRep@cord_internal@2@@Z
    ?push_back@?$InlinedVector@PAUCordRep@cord_internal@absl@@$0CP@V?$allocator@PAUCordRep@cord_internal@absl@@@__1@std@@@absl@@QAEX$$QAPAUCordRep@cord_internal@2@@Z
    ?push_back@?$InlinedVector@PAUCordRep@cord_internal@absl@@$0CP@V?$allocator@PAUCordRep@cord_internal@absl@@@__1@std@@@absl@@QAEXABQAUCordRep@cord_internal@2@@Z
    ?push_back@?$InlinedVector@PBUCordRep@cord_internal@absl@@$0CP@V?$allocator@PBUCordRep@cord_internal@absl@@@__1@std@@@absl@@QAEXABQBUCordRep@cord_internal@2@@Z
    ?push_back@?$InlinedVector@UPayload@status_internal@absl@@$00V?$allocator@UPayload@status_internal@absl@@@__1@std@@@absl@@QAEX$$QAUPayload@status_internal@2@@Z
    ?push_back@?$InlinedVector@USubRange@absl@@$0CP@V?$allocator@USubRange@absl@@@__1@std@@@absl@@QAEX$$QAUSubRange@2@@Z
    ?push_back@?$__split_buffer@PAPBVImpl@time_zone@cctz@time_internal@absl@@AAV?$allocator@PAPBVImpl@time_zone@cctz@time_internal@absl@@@__1@std@@@__1@std@@QAEX$$QAPAPBVImpl@time_zone@cctz@time_internal@absl@@@Z
    ?push_back@?$__split_buffer@PAPBVImpl@time_zone@cctz@time_internal@absl@@V?$allocator@PAPBVImpl@time_zone@cctz@time_internal@absl@@@__1@std@@@__1@std@@QAEX$$QAPAPBVImpl@time_zone@cctz@time_internal@absl@@@Z
    ?push_back@?$__split_buffer@PAPBVImpl@time_zone@cctz@time_internal@absl@@V?$allocator@PAPBVImpl@time_zone@cctz@time_internal@absl@@@__1@std@@@__1@std@@QAEXABQAPBVImpl@time_zone@cctz@time_internal@absl@@@Z
    ?push_back@?$deque@PBVImpl@time_zone@cctz@time_internal@absl@@V?$allocator@PBVImpl@time_zone@cctz@time_internal@absl@@@__1@std@@@__1@std@@QAEXABQBVImpl@time_zone@cctz@time_internal@absl@@@Z
    ?push_back@?$vector@PAUCordRep@cord_internal@absl@@V?$allocator@PAUCordRep@cord_internal@absl@@@__1@std@@@__1@std@@QAEXABQAUCordRep@cord_internal@absl@@@Z
    ?push_back@?$vector@PAVCordzHandle@cord_internal@absl@@V?$allocator@PAVCordzHandle@cord_internal@absl@@@__1@std@@@__1@std@@QAEXABQAVCordzHandle@cord_internal@absl@@@Z
    ?push_back@?$vector@PBVCordzHandle@cord_internal@absl@@V?$allocator@PBVCordzHandle@cord_internal@absl@@@__1@std@@@__1@std@@QAEXABQBVCordzHandle@cord_internal@absl@@@Z
    ?push_back@?$vector@UConversionItem@ParsedFormatBase@str_format_internal@absl@@V?$allocator@UConversionItem@ParsedFormatBase@str_format_internal@absl@@@__1@std@@@__1@std@@QAEX$$QAUConversionItem@ParsedFormatBase@str_format_internal@absl@@@Z
    ?push_back@?$vector@UTransition@cctz@time_internal@absl@@V?$allocator@UTransition@cctz@time_internal@absl@@@__1@std@@@__1@std@@QAEXABUTransition@cctz@time_internal@absl@@@Z
    ?push_front@?$__split_buffer@PAPBVImpl@time_zone@cctz@time_internal@absl@@AAV?$allocator@PAPBVImpl@time_zone@cctz@time_internal@absl@@@__1@std@@@__1@std@@QAEXABQAPBVImpl@time_zone@cctz@time_internal@absl@@@Z
    ?push_front@?$__split_buffer@PAPBVImpl@time_zone@cctz@time_internal@absl@@V?$allocator@PAPBVImpl@time_zone@cctz@time_internal@absl@@@__1@std@@@__1@std@@QAEX$$QAPAPBVImpl@time_zone@cctz@time_internal@absl@@@Z
    ?raw_code@Status@absl@@QBEHXZ
    ?rbegin@string_view@absl@@QBE?AV?$reverse_iterator@PBD@__1@std@@XZ
    ?reduce_size@InlineRep@Cord@absl@@QAEXI@Z
    ?reference@?$optional@V?$basic_string@DU?$char_traits@D@__1@std@@V?$allocator@D@23@@__1@std@@@absl@@AAEAAV?$basic_string@DU?$char_traits@D@__1@std@@V?$allocator@D@23@@__1@std@@XZ
    ?rehash@?$__hash_table@U?$__hash_value_type@V?$basic_string@DU?$char_traits@D@__1@std@@V?$allocator@D@23@@__1@std@@PBVImpl@time_zone@cctz@time_internal@absl@@@__1@std@@V?$__unordered_map_hasher@V?$basic_string@DU?$char_traits@D@__1@std@@V?$allocator@D@23@@__1@std@@U?$__hash_value_type@V?$basic_string@DU?$char_traits@D@__1@std@@V?$allocator@D@23@@__1@std@@PBVImpl@time_zone@cctz@time_internal@absl@@@23@U?$hash@V?$basic_string@DU?$char_traits@D@__1@std@@V?$allocator@D@23@@__1@std@@@23@U?$equal_to@V?$basic_string@DU?$char_traits@D@__1@std@@V?$allocator@D@23@@__1@std@@@23@$00@23@V?$__unordered_map_equal@V?$basic_string@DU?$char_traits@D@__1@std@@V?$allocator@D@23@@__1@std@@U?$__hash_value_type@V?$basic_string@DU?$char_traits@D@__1@std@@V?$allocator@D@23@@__1@std@@PBVImpl@time_zone@cctz@time_internal@absl@@@23@U?$equal_to@V?$basic_string@DU?$char_traits@D@__1@std@@V?$allocator@D@23@@__1@std@@@23@U?$hash@V?$basic_string@DU?$char_traits@D@__1@std@@V?$allocator@D@23@@__1@std@@@23@$00@23@V?$allocator@U?$__hash_value_type@V?$basic_string@DU?$char_traits@D@__1@std@@V?$allocator@D@23@@__1@std@@PBVImpl@time_zone@cctz@time_internal@absl@@@__1@std@@@23@@__1@std@@QAEXI@Z
    ?release@?$unique_ptr@$$CBVImpl@time_zone@cctz@time_internal@absl@@U?$default_delete@$$CBVImpl@time_zone@cctz@time_internal@absl@@@__1@std@@@__1@std@@QAEPBVImpl@time_zone@cctz@time_internal@absl@@XZ
    ?release@?$unique_ptr@PAPBVImpl@time_zone@cctz@time_internal@absl@@V?$__allocator_destructor@V?$allocator@PBVImpl@time_zone@cctz@time_internal@absl@@@__1@std@@@__1@std@@@__1@std@@QAEPAPBVImpl@time_zone@cctz@time_internal@absl@@XZ
    ?release@?$unique_ptr@U?$__hash_node@U?$__hash_value_type@V?$basic_string@DU?$char_traits@D@__1@std@@V?$allocator@D@23@@__1@std@@PBVImpl@time_zone@cctz@time_internal@absl@@@__1@std@@PAX@__1@std@@V?$__hash_node_destructor@V?$allocator@U?$__hash_node@U?$__hash_value_type@V?$basic_string@DU?$char_traits@D@__1@std@@V?$allocator@D@23@@__1@std@@PBVImpl@time_zone@cctz@time_internal@absl@@@__1@std@@PAX@__1@std@@@__1@std@@@23@@__1@std@@QAEPAU?$__hash_node@U?$__hash_value_type@V?$basic_string@DU?$char_traits@D@__1@std@@V?$allocator@D@23@@__1@std@@PBVImpl@time_zone@cctz@time_internal@absl@@@__1@std@@PAX@23@XZ
    ?release@?$unique_ptr@V?$InlinedVector@UPayload@status_internal@absl@@$00V?$allocator@UPayload@status_internal@absl@@@__1@std@@@absl@@U?$default_delete@V?$InlinedVector@UPayload@status_internal@absl@@$00V?$allocator@UPayload@status_internal@absl@@@__1@std@@@absl@@@__1@std@@@__1@std@@QAEPAV?$InlinedVector@UPayload@status_internal@absl@@$00V?$allocator@UPayload@status_internal@absl@@@__1@std@@@absl@@XZ
    ?release@?$unique_ptr@VTimeZoneInfo@cctz@time_internal@absl@@U?$default_delete@VTimeZoneInfo@cctz@time_internal@absl@@@__1@std@@@__1@std@@QAEPAVTimeZoneInfo@cctz@time_internal@absl@@XZ
    ?remove_prefix@InlineRep@Cord@absl@@QAEXI@Z
    ?remove_prefix@string_view@absl@@QAEXI@Z
    ?remove_suffix@string_view@absl@@QAEXI@Z
    ?rend@string_view@absl@@QBE?AV?$reverse_iterator@PBD@__1@std@@XZ
    ?reserve@?$vector@UTransition@cctz@time_internal@absl@@V?$allocator@UTransition@cctz@time_internal@absl@@@__1@std@@@__1@std@@QAEXI@Z
    ?reserve@?$vector@UTransitionType@cctz@time_internal@absl@@V?$allocator@UTransitionType@cctz@time_internal@absl@@@__1@std@@@__1@std@@QAEXI@Z
    ?reserve@?$vector@UViableSubstitution@strings_internal@absl@@V?$allocator@UViableSubstitution@strings_internal@absl@@@__1@std@@@__1@std@@QAEXI@Z
    ?reset@?$unique_ptr@$$CBVImpl@time_zone@cctz@time_internal@absl@@U?$default_delete@$$CBVImpl@time_zone@cctz@time_internal@absl@@@__1@std@@@__1@std@@QAEXPBVImpl@time_zone@cctz@time_internal@absl@@@Z
    ?reset@?$unique_ptr@PAPBVImpl@time_zone@cctz@time_internal@absl@@V?$__allocator_destructor@V?$allocator@PBVImpl@time_zone@cctz@time_internal@absl@@@__1@std@@@__1@std@@@__1@std@@QAEXPAPBVImpl@time_zone@cctz@time_internal@absl@@@Z
    ?reset@?$unique_ptr@U?$__hash_node@U?$__hash_value_type@V?$basic_string@DU?$char_traits@D@__1@std@@V?$allocator@D@23@@__1@std@@PBVImpl@time_zone@cctz@time_internal@absl@@@__1@std@@PAX@__1@std@@V?$__hash_node_destructor@V?$allocator@U?$__hash_node@U?$__hash_value_type@V?$basic_string@DU?$char_traits@D@__1@std@@V?$allocator@D@23@@__1@std@@PBVImpl@time_zone@cctz@time_internal@absl@@@__1@std@@PAX@__1@std@@@__1@std@@@23@@__1@std@@QAEXPAU?$__hash_node@U?$__hash_value_type@V?$basic_string@DU?$char_traits@D@__1@std@@V?$allocator@D@23@@__1@std@@PBVImpl@time_zone@cctz@time_internal@absl@@@__1@std@@PAX@23@@Z
    ?reset@?$unique_ptr@UThreadIdentity@base_internal@absl@@P6AXPAX@Z@__1@std@@QAEXPAUThreadIdentity@base_internal@absl@@@Z
    ?reset@?$unique_ptr@V?$InlinedVector@UPayload@status_internal@absl@@$00V?$allocator@UPayload@status_internal@absl@@@__1@std@@@absl@@U?$default_delete@V?$InlinedVector@UPayload@status_internal@absl@@$00V?$allocator@UPayload@status_internal@absl@@@__1@std@@@absl@@@__1@std@@@__1@std@@QAEXPAV?$InlinedVector@UPayload@status_internal@absl@@$00V?$allocator@UPayload@status_internal@absl@@@__1@std@@@absl@@@Z
    ?reset@?$unique_ptr@VTimeZoneIf@cctz@time_internal@absl@@U?$default_delete@VTimeZoneIf@cctz@time_internal@absl@@@__1@std@@@__1@std@@QAEXPAVTimeZoneIf@cctz@time_internal@absl@@@Z
    ?reset@?$unique_ptr@VTimeZoneInfo@cctz@time_internal@absl@@U?$default_delete@VTimeZoneInfo@cctz@time_internal@absl@@@__1@std@@@__1@std@@QAEXPAVTimeZoneInfo@cctz@time_internal@absl@@@Z
    ?reset@?$unique_ptr@VZoneInfoSource@cctz@time_internal@absl@@U?$default_delete@VZoneInfoSource@cctz@time_internal@absl@@@__1@std@@@__1@std@@QAEXPAVZoneInfoSource@cctz@time_internal@absl@@@Z
    ?resize@?$vector@UTransition@cctz@time_internal@absl@@V?$allocator@UTransition@cctz@time_internal@absl@@@__1@std@@@__1@std@@QAEXI@Z
    ?resize@?$vector@UTransitionType@cctz@time_internal@absl@@V?$allocator@UTransitionType@cctz@time_internal@absl@@@__1@std@@@__1@std@@QAEXI@Z
    ?retreat@CordRepRing@cord_internal@absl@@QBEII@Z
    ?retreat@CordRepRing@cord_internal@absl@@QBEIII@Z
    ?rfind@string_view@absl@@QBEIDI@Z
    ?rfind@string_view@absl@@QBEIV12@I@Z
    ?ring@CordRep@cord_internal@absl@@QAEPAVCordRepRing@23@XZ
    ?ring@CordRep@cord_internal@absl@@QBEPBVCordRepRing@23@XZ
    ?safe_strto128_base@numbers_internal@absl@@YA_NVstring_view@2@PAVint128@2@H@Z
    ?safe_strto32_base@numbers_internal@absl@@YA_NVstring_view@2@PAHH@Z
    ?safe_strto64_base@numbers_internal@absl@@YA_NVstring_view@2@PA_JH@Z
    ?safe_strtou128_base@numbers_internal@absl@@YA_NVstring_view@2@PAVuint128@2@H@Z
    ?safe_strtou32_base@numbers_internal@absl@@YA_NVstring_view@2@PAIH@Z
    ?safe_strtou64_base@numbers_internal@absl@@YA_NVstring_view@2@PA_KH@Z
    ?scale_add@impl@detail@cctz@time_internal@absl@@YA_J_J00@Z
