EXPORTS
    ?$TSS0@?1??CrcAndCopy@CrcMemcpy@crc_internal@absl@@SA?AVcrc32c_t@3@PEIAXPEIBX_KV43@_N@Z@4HA
    ??$?0$$CBD$0A@@VoidPtr@str_format_internal@absl@@QEAA@PEBD@Z
    ??$?0$$CBU?$atomic@_N@__Cr@std@@@Condition@absl@@QEAA@P6A_NPEBU?$atomic@_N@__Cr@std@@@Z0@Z
    ??$?0$$CBUCordRep@cord_internal@absl@@@Hex@absl@@QEAA@PEBUCordRep@cord_internal@1@W4PadSpec@1@@Z
    ??$?0$$CBVFormatArgImpl@str_format_internal@absl@@$$CBV012@@?$Span@$$CBVFormatArgImpl@str_format_internal@absl@@@absl@@QEAA@V?$initializer_list@VFormatArgImpl@str_format_internal@absl@@@std@@@Z
    ??$?0$$CB_W$0A@@VoidPtr@str_format_internal@absl@@QEAA@PEB_W@Z
    ??$?0$$QEAV?$basic_string@DU?$char_traits@D@__Cr@std@@V?$allocator@D@23@@__Cr@std@@$$Z$$V$$Z$0A@$$Z$S@?$pair@$$CBV?$basic_string@DU?$char_traits@D@__Cr@std@@V?$allocator@D@23@@__Cr@std@@V?$map@V?$basic_string@DU?$char_traits@D@__Cr@std@@V?$allocator@D@23@@__Cr@std@@V?$vector@PEBVCommandLineFlag@absl@@V?$allocator@PEBVCommandLineFlag@absl@@@__Cr@std@@@23@U?$less@V?$basic_string@DU?$char_traits@D@__Cr@std@@V?$allocator@D@23@@__Cr@std@@@23@V?$allocator@U?$pair@$$CBV?$basic_string@DU?$char_traits@D@__Cr@std@@V?$allocator@D@23@@__Cr@std@@V?$vector@PEBVCommandLineFlag@absl@@V?$allocator@PEBVCommandLineFlag@absl@@@__Cr@std@@@23@@__Cr@std@@@23@@23@@__Cr@std@@AEAA@Upiecewise_construct_t@12@AEAV?$tuple@$$QEAV?$basic_string@DU?$char_traits@D@__Cr@std@@V?$allocator@D@23@@__Cr@std@@@12@AEAV?$tuple@$$V@12@U?$__tuple_indices@$0A@@12@U?$__tuple_indices@$S@12@@Z
    ??$?0$$QEAV?$basic_string@DU?$char_traits@D@__Cr@std@@V?$allocator@D@23@@__Cr@std@@$$Z$$V@?$pair@$$CBV?$basic_string@DU?$char_traits@D@__Cr@std@@V?$allocator@D@23@@__Cr@std@@V?$map@V?$basic_string@DU?$char_traits@D@__Cr@std@@V?$allocator@D@23@@__Cr@std@@V?$vector@PEBVCommandLineFlag@absl@@V?$allocator@PEBVCommandLineFlag@absl@@@__Cr@std@@@23@U?$less@V?$basic_string@DU?$char_traits@D@__Cr@std@@V?$allocator@D@23@@__Cr@std@@@23@V?$allocator@U?$pair@$$CBV?$basic_string@DU?$char_traits@D@__Cr@std@@V?$allocator@D@23@@__Cr@std@@V?$vector@PEBVCommandLineFlag@absl@@V?$allocator@PEBVCommandLineFlag@absl@@@__Cr@std@@@23@@__Cr@std@@@23@@23@@__Cr@std@@QEAA@Upiecewise_construct_t@12@V?$tuple@$$QEAV?$basic_string@DU?$char_traits@D@__Cr@std@@V?$allocator@D@23@@__Cr@std@@@12@V?$tuple@$$V@12@@Z
    ??$?0$$QEAV?$basic_string_view@DU?$char_traits@D@__Cr@std@@@__Cr@std@@$$Z$$QEAPEAVCommandLineFlag@absl@@$$Z$0A@$$Z$0A@@?$pair@V?$basic_string_view@DU?$char_traits@D@__Cr@std@@@__Cr@std@@PEAVCommandLineFlag@absl@@@__Cr@std@@AEAA@Upiecewise_construct_t@12@AEAV?$tuple@$$QEAV?$basic_string_view@DU?$char_traits@D@__Cr@std@@@__Cr@std@@@12@AEAV?$tuple@$$QEAPEAVCommandLineFlag@absl@@@12@U?$__tuple_indices@$0A@@12@3@Z
    ??$?0$$QEAV?$basic_string_view@DU?$char_traits@D@__Cr@std@@@__Cr@std@@$$Z$$QEAPEAVCommandLineFlag@absl@@$$Z$0A@$$Z$0A@@?$pair@V?$tuple@$$QEAV?$basic_string_view@DU?$char_traits@D@__Cr@std@@@__Cr@std@@@__Cr@std@@V?$tuple@$$QEAPEAVCommandLineFlag@absl@@@23@@__Cr@std@@AEAA@Upiecewise_construct_t@12@AEAV?$tuple@$$QEAV?$basic_string_view@DU?$char_traits@D@__Cr@std@@@__Cr@std@@@12@AEAV?$tuple@$$QEAPEAVCommandLineFlag@absl@@@12@U?$__tuple_indices@$0A@@12@3@Z
    ??$?0$$QEAV?$basic_string_view@DU?$char_traits@D@__Cr@std@@@__Cr@std@@$$Z$$QEAPEAVCommandLineFlag@absl@@@?$pair@V?$basic_string_view@DU?$char_traits@D@__Cr@std@@@__Cr@std@@PEAVCommandLineFlag@absl@@@__Cr@std@@QEAA@Upiecewise_construct_t@12@V?$tuple@$$QEAV?$basic_string_view@DU?$char_traits@D@__Cr@std@@@__Cr@std@@@12@V?$tuple@$$QEAPEAVCommandLineFlag@absl@@@12@@Z
    ??$?0$$QEAV?$basic_string_view@DU?$char_traits@D@__Cr@std@@@__Cr@std@@$$Z$$QEAPEAVCommandLineFlag@absl@@@?$pair@V?$tuple@$$QEAV?$basic_string_view@DU?$char_traits@D@__Cr@std@@@__Cr@std@@@__Cr@std@@V?$tuple@$$QEAPEAVCommandLineFlag@absl@@@23@@__Cr@std@@QEAA@Upiecewise_construct_t@12@V?$tuple@$$QEAV?$basic_string_view@DU?$char_traits@D@__Cr@std@@@__Cr@std@@@12@V?$tuple@$$QEAPEAVCommandLineFlag@absl@@@12@@Z
    ??$?0$$QEBV?$basic_string_view@DU?$char_traits@D@__Cr@std@@@__Cr@std@@$$Z$$QEAPEAVCommandLineFlag@absl@@$$Z$0A@$$Z$0A@@?$pair@V?$basic_string_view@DU?$char_traits@D@__Cr@std@@@__Cr@std@@PEAVCommandLineFlag@absl@@@__Cr@std@@AEAA@Upiecewise_construct_t@12@AEAV?$tuple@$$QEBV?$basic_string_view@DU?$char_traits@D@__Cr@std@@@__Cr@std@@@12@AEAV?$tuple@$$QEAPEAVCommandLineFlag@absl@@@12@U?$__tuple_indices@$0A@@12@3@Z
    ??$?0$$QEBV?$basic_string_view@DU?$char_traits@D@__Cr@std@@@__Cr@std@@$$Z$$QEAPEAVCommandLineFlag@absl@@$$Z$0A@$$Z$0A@@?$pair@V?$tuple@$$QEBV?$basic_string_view@DU?$char_traits@D@__Cr@std@@@__Cr@std@@@__Cr@std@@V?$tuple@$$QEAPEAVCommandLineFlag@absl@@@23@@__Cr@std@@AEAA@Upiecewise_construct_t@12@AEAV?$tuple@$$QEBV?$basic_string_view@DU?$char_traits@D@__Cr@std@@@__Cr@std@@@12@AEAV?$tuple@$$QEAPEAVCommandLineFlag@absl@@@12@U?$__tuple_indices@$0A@@12@3@Z
    ??$?0$$QEBV?$basic_string_view@DU?$char_traits@D@__Cr@std@@@__Cr@std@@$$Z$$QEAPEAVCommandLineFlag@absl@@@?$pair@V?$basic_string_view@DU?$char_traits@D@__Cr@std@@@__Cr@std@@PEAVCommandLineFlag@absl@@@__Cr@std@@QEAA@Upiecewise_construct_t@12@V?$tuple@$$QEBV?$basic_string_view@DU?$char_traits@D@__Cr@std@@@__Cr@std@@@12@V?$tuple@$$QEAPEAVCommandLineFlag@absl@@@12@@Z
    ??$?0$$QEBV?$basic_string_view@DU?$char_traits@D@__Cr@std@@@__Cr@std@@$$Z$$QEAPEAVCommandLineFlag@absl@@@?$pair@V?$tuple@$$QEBV?$basic_string_view@DU?$char_traits@D@__Cr@std@@@__Cr@std@@@__Cr@std@@V?$tuple@$$QEAPEAVCommandLineFlag@absl@@@23@@__Cr@std@@QEAA@Upiecewise_construct_t@12@V?$tuple@$$QEBV?$basic_string_view@DU?$char_traits@D@__Cr@std@@@__Cr@std@@@12@V?$tuple@$$QEAPEAVCommandLineFlag@absl@@@12@@Z
    ??$?0$$T$0A@@?$__compressed_pair_elem@PEAPEAPEBVImpl@time_zone@cctz@time_internal@absl@@$0A@$0A@@__Cr@std@@QEAA@$$QEA$$T@Z
    ??$?0$$T$0A@@?$__compressed_pair_elem@PEAPEAUPrefixCrc@CrcCordState@crc_internal@absl@@$0A@$0A@@__Cr@std@@QEAA@$$QEA$$T@Z
    ??$?0$$T$0A@@?$__compressed_pair_elem@PEAPEAVCommandLineFlag@absl@@$0A@$0A@@__Cr@std@@QEAA@$$QEA$$T@Z
    ??$?0$$T$0A@@?$__compressed_pair_elem@PEAPEAVCordzHandle@cord_internal@absl@@$0A@$0A@@__Cr@std@@QEAA@$$QEA$$T@Z
    ??$?0$$T$0A@@?$__compressed_pair_elem@PEAPEAVLogSink@absl@@$0A@$0A@@__Cr@std@@QEAA@$$QEA$$T@Z
    ??$?0$$T$0A@@?$__compressed_pair_elem@PEAPEBVCommandLineFlag@absl@@$0A@$0A@@__Cr@std@@QEAA@$$QEA$$T@Z
    ??$?0$$T$0A@@?$__compressed_pair_elem@PEAPEBVCordzHandle@cord_internal@absl@@$0A@$0A@@__Cr@std@@QEAA@$$QEA$$T@Z
    ??$?0$$T$0A@@?$__compressed_pair_elem@PEAUConversionItem@ParsedFormatBase@str_format_internal@absl@@$0A@$0A@@__Cr@std@@QEAA@$$QEA$$T@Z
    ??$?0$$T$0A@@?$__compressed_pair_elem@PEAUTransition@cctz@time_internal@absl@@$0A@$0A@@__Cr@std@@QEAA@$$QEA$$T@Z
    ??$?0$$T$0A@@?$__compressed_pair_elem@PEAUTransitionType@cctz@time_internal@absl@@$0A@$0A@@__Cr@std@@QEAA@$$QEA$$T@Z
    ??$?0$$T$0A@@?$__compressed_pair_elem@PEAUUnrecognizedFlag@absl@@$0A@$0A@@__Cr@std@@QEAA@$$QEA$$T@Z
    ??$?0$$T$0A@@?$__compressed_pair_elem@PEAUViableSubstitution@strings_internal@absl@@$0A@$0A@@__Cr@std@@QEAA@$$QEA$$T@Z
    ??$?0$$T$0A@@?$__compressed_pair_elem@PEAV?$unique_ptr@VCRCImpl@crc_internal@absl@@U?$default_delete@VCRCImpl@crc_internal@absl@@@__Cr@std@@@__Cr@std@@$0A@$0A@@__Cr@std@@QEAA@$$QEA$$T@Z
    ??$?0$$T$0A@@?$__compressed_pair_elem@PEAV?$unique_ptr@VFlagStateInterface@flags_internal@absl@@U?$default_delete@VFlagStateInterface@flags_internal@absl@@@__Cr@std@@@__Cr@std@@$0A@$0A@@__Cr@std@@QEAA@$$QEA$$T@Z
    ??$?0$$T@?$Storage@PEAPEAUCordRep@cord_internal@absl@@$00$0A@@internal_compressed_tuple@container_internal@absl@@QEAA@Uin_place_t@__Cr@std@@$$QEA$$T@Z
    ??$?0$$T@?$Storage@PEAPEAVLogSink@absl@@$00$0A@@internal_compressed_tuple@container_internal@absl@@QEAA@Uin_place_t@__Cr@std@@$$QEA$$T@Z
    ??$?0$$T@?$Storage@PEAUPayload@status_internal@absl@@$00$0A@@internal_compressed_tuple@container_internal@absl@@QEAA@Uin_place_t@__Cr@std@@$$QEA$$T@Z
    ??$?0$$TAEAV?$allocator@PEAPEBVImpl@time_zone@cctz@time_internal@absl@@@__Cr@std@@@?$__compressed_pair@PEAPEAPEBVImpl@time_zone@cctz@time_internal@absl@@AEAV?$allocator@PEAPEBVImpl@time_zone@cctz@time_internal@absl@@@__Cr@std@@@__Cr@std@@QEAA@$$QEA$$TAEAV?$allocator@PEAPEBVImpl@time_zone@cctz@time_internal@absl@@@12@@Z
    ??$?0$$TAEAV?$allocator@PEAUPrefixCrc@CrcCordState@crc_internal@absl@@@__Cr@std@@@?$__compressed_pair@PEAPEAUPrefixCrc@CrcCordState@crc_internal@absl@@AEAV?$allocator@PEAUPrefixCrc@CrcCordState@crc_internal@absl@@@__Cr@std@@@__Cr@std@@QEAA@$$QEA$$TAEAV?$allocator@PEAUPrefixCrc@CrcCordState@crc_internal@absl@@@12@@Z
    ??$?0$$TAEAV?$allocator@PEAVCommandLineFlag@absl@@@__Cr@std@@@?$__compressed_pair@PEAPEAVCommandLineFlag@absl@@AEAV?$allocator@PEAVCommandLineFlag@absl@@@__Cr@std@@@__Cr@std@@QEAA@$$QEA$$TAEAV?$allocator@PEAVCommandLineFlag@absl@@@12@@Z
    ??$?0$$TAEAV?$allocator@PEAVCordzHandle@cord_internal@absl@@@__Cr@std@@@?$__compressed_pair@PEAPEAVCordzHandle@cord_internal@absl@@AEAV?$allocator@PEAVCordzHandle@cord_internal@absl@@@__Cr@std@@@__Cr@std@@QEAA@$$QEA$$TAEAV?$allocator@PEAVCordzHandle@cord_internal@absl@@@12@@Z
    ??$?0$$TAEAV?$allocator@PEAVLogSink@absl@@@__Cr@std@@@?$__compressed_pair@PEAPEAVLogSink@absl@@AEAV?$allocator@PEAVLogSink@absl@@@__Cr@std@@@__Cr@std@@QEAA@$$QEA$$TAEAV?$allocator@PEAVLogSink@absl@@@12@@Z
    ??$?0$$TAEAV?$allocator@PEBVCommandLineFlag@absl@@@__Cr@std@@@?$__compressed_pair@PEAPEBVCommandLineFlag@absl@@AEAV?$allocator@PEBVCommandLineFlag@absl@@@__Cr@std@@@__Cr@std@@QEAA@$$QEA$$TAEAV?$allocator@PEBVCommandLineFlag@absl@@@12@@Z
    ??$?0$$TAEAV?$allocator@PEBVCordzHandle@cord_internal@absl@@@__Cr@std@@@?$__compressed_pair@PEAPEBVCordzHandle@cord_internal@absl@@AEAV?$allocator@PEBVCordzHandle@cord_internal@absl@@@__Cr@std@@@__Cr@std@@QEAA@$$QEA$$TAEAV?$allocator@PEBVCordzHandle@cord_internal@absl@@@12@@Z
    ??$?0$$TAEAV?$allocator@UConversionItem@ParsedFormatBase@str_format_internal@absl@@@__Cr@std@@@?$__compressed_pair@PEAUConversionItem@ParsedFormatBase@str_format_internal@absl@@AEAV?$allocator@UConversionItem@ParsedFormatBase@str_format_internal@absl@@@__Cr@std@@@__Cr@std@@QEAA@$$QEA$$TAEAV?$allocator@UConversionItem@ParsedFormatBase@str_format_internal@absl@@@12@@Z
    ??$?0$$TAEAV?$allocator@UTransition@cctz@time_internal@absl@@@__Cr@std@@@?$__compressed_pair@PEAUTransition@cctz@time_internal@absl@@AEAV?$allocator@UTransition@cctz@time_internal@absl@@@__Cr@std@@@__Cr@std@@QEAA@$$QEA$$TAEAV?$allocator@UTransition@cctz@time_internal@absl@@@12@@Z
    ??$?0$$TAEAV?$allocator@UTransitionType@cctz@time_internal@absl@@@__Cr@std@@@?$__compressed_pair@PEAUTransitionType@cctz@time_internal@absl@@AEAV?$allocator@UTransitionType@cctz@time_internal@absl@@@__Cr@std@@@__Cr@std@@QEAA@$$QEA$$TAEAV?$allocator@UTransitionType@cctz@time_internal@absl@@@12@@Z
    ??$?0$$TAEAV?$allocator@UUnrecognizedFlag@absl@@@__Cr@std@@@?$__compressed_pair@PEAUUnrecognizedFlag@absl@@AEAV?$allocator@UUnrecognizedFlag@absl@@@__Cr@std@@@__Cr@std@@QEAA@$$QEA$$TAEAV?$allocator@UUnrecognizedFlag@absl@@@12@@Z
    ??$?0$$TAEAV?$allocator@UViableSubstitution@strings_internal@absl@@@__Cr@std@@@?$__compressed_pair@PEAUViableSubstitution@strings_internal@absl@@AEAV?$allocator@UViableSubstitution@strings_internal@absl@@@__Cr@std@@@__Cr@std@@QEAA@$$QEA$$TAEAV?$allocator@UViableSubstitution@strings_internal@absl@@@12@@Z
    ??$?0$$TAEAV?$allocator@V?$unique_ptr@VFlagStateInterface@flags_internal@absl@@U?$default_delete@VFlagStateInterface@flags_internal@absl@@@__Cr@std@@@__Cr@std@@@__Cr@std@@@?$__compressed_pair@PEAV?$unique_ptr@VFlagStateInterface@flags_internal@absl@@U?$default_delete@VFlagStateInterface@flags_internal@absl@@@__Cr@std@@@__Cr@std@@AEAV?$allocator@V?$unique_ptr@VFlagStateInterface@flags_internal@absl@@U?$default_delete@VFlagStateInterface@flags_internal@absl@@@__Cr@std@@@__Cr@std@@@23@@__Cr@std@@QEAA@$$QEA$$TAEAV?$allocator@V?$unique_ptr@VFlagStateInterface@flags_internal@absl@@U?$default_delete@VFlagStateInterface@flags_internal@absl@@@__Cr@std@@@__Cr@std@@@12@@Z
    ??$?0$$TU__default_init_tag@__Cr@std@@@?$__compressed_pair@PEAPEAPEBVImpl@time_zone@cctz@time_internal@absl@@V?$allocator@PEAPEBVImpl@time_zone@cctz@time_internal@absl@@@__Cr@std@@@__Cr@std@@QEAA@$$QEA$$T$$QEAU__default_init_tag@12@@Z
    ??$?0$$TU__default_init_tag@__Cr@std@@@?$__compressed_pair@PEAPEAUPrefixCrc@CrcCordState@crc_internal@absl@@V?$allocator@PEAUPrefixCrc@CrcCordState@crc_internal@absl@@@__Cr@std@@@__Cr@std@@QEAA@$$QEA$$T$$QEAU__default_init_tag@12@@Z
    ??$?0$$TU__default_init_tag@__Cr@std@@@?$__compressed_pair@PEAPEAVCommandLineFlag@absl@@V?$allocator@PEAVCommandLineFlag@absl@@@__Cr@std@@@__Cr@std@@QEAA@$$QEA$$T$$QEAU__default_init_tag@12@@Z
    ??$?0$$TU__default_init_tag@__Cr@std@@@?$__compressed_pair@PEAPEAVCordzHandle@cord_internal@absl@@V?$allocator@PEAVCordzHandle@cord_internal@absl@@@__Cr@std@@@__Cr@std@@QEAA@$$QEA$$T$$QEAU__default_init_tag@12@@Z
    ??$?0$$TU__default_init_tag@__Cr@std@@@?$__compressed_pair@PEAPEAVLogSink@absl@@V?$allocator@PEAVLogSink@absl@@@__Cr@std@@@__Cr@std@@QEAA@$$QEA$$T$$QEAU__default_init_tag@12@@Z
    ??$?0$$TU__default_init_tag@__Cr@std@@@?$__compressed_pair@PEAPEBVCommandLineFlag@absl@@V?$allocator@PEBVCommandLineFlag@absl@@@__Cr@std@@@__Cr@std@@QEAA@$$QEA$$T$$QEAU__default_init_tag@12@@Z
    ??$?0$$TU__default_init_tag@__Cr@std@@@?$__compressed_pair@PEAPEBVCordzHandle@cord_internal@absl@@V?$allocator@PEBVCordzHandle@cord_internal@absl@@@__Cr@std@@@__Cr@std@@QEAA@$$QEA$$T$$QEAU__default_init_tag@12@@Z
    ??$?0$$TU__default_init_tag@__Cr@std@@@?$__compressed_pair@PEAUConversionItem@ParsedFormatBase@str_format_internal@absl@@V?$allocator@UConversionItem@ParsedFormatBase@str_format_internal@absl@@@__Cr@std@@@__Cr@std@@QEAA@$$QEA$$T$$QEAU__default_init_tag@12@@Z
    ??$?0$$TU__default_init_tag@__Cr@std@@@?$__compressed_pair@PEAUTransition@cctz@time_internal@absl@@V?$allocator@UTransition@cctz@time_internal@absl@@@__Cr@std@@@__Cr@std@@QEAA@$$QEA$$T$$QEAU__default_init_tag@12@@Z
    ??$?0$$TU__default_init_tag@__Cr@std@@@?$__compressed_pair@PEAUTransitionType@cctz@time_internal@absl@@V?$allocator@UTransitionType@cctz@time_internal@absl@@@__Cr@std@@@__Cr@std@@QEAA@$$QEA$$T$$QEAU__default_init_tag@12@@Z
    ??$?0$$TU__default_init_tag@__Cr@std@@@?$__compressed_pair@PEAUUnrecognizedFlag@absl@@V?$allocator@UUnrecognizedFlag@absl@@@__Cr@std@@@__Cr@std@@QEAA@$$QEA$$T$$QEAU__default_init_tag@12@@Z
    ??$?0$$TU__default_init_tag@__Cr@std@@@?$__compressed_pair@PEAUViableSubstitution@strings_internal@absl@@V?$allocator@UViableSubstitution@strings_internal@absl@@@__Cr@std@@@__Cr@std@@QEAA@$$QEA$$T$$QEAU__default_init_tag@12@@Z
    ??$?0$$TU__default_init_tag@__Cr@std@@@?$__compressed_pair@PEAV?$unique_ptr@VCRCImpl@crc_internal@absl@@U?$default_delete@VCRCImpl@crc_internal@absl@@@__Cr@std@@@__Cr@std@@V?$allocator@V?$unique_ptr@VCRCImpl@crc_internal@absl@@U?$default_delete@VCRCImpl@crc_internal@absl@@@__Cr@std@@@__Cr@std@@@23@@__Cr@std@@QEAA@$$QEA$$T$$QEAU__default_init_tag@12@@Z
    ??$?0$$TU__default_init_tag@__Cr@std@@@?$__compressed_pair@PEAV?$unique_ptr@VFlagStateInterface@flags_internal@absl@@U?$default_delete@VFlagStateInterface@flags_internal@absl@@@__Cr@std@@@__Cr@std@@V?$allocator@V?$unique_ptr@VFlagStateInterface@flags_internal@absl@@U?$default_delete@VFlagStateInterface@flags_internal@absl@@@__Cr@std@@@__Cr@std@@@23@@__Cr@std@@QEAA@$$QEA$$T$$QEAU__default_init_tag@12@@Z
    ??$?0$$V$0A@@?$NoDestructor@URefcountedRep@CrcCordState@crc_internal@absl@@@absl@@QEAA@XZ
    ??$?0$$V$0A@@?$NoDestructor@V?$SampleRecorder@UHashtablezInfo@container_internal@absl@@@profiling_internal@absl@@@absl@@QEAA@XZ
    ??$?0$$V$0A@@?$NoDestructor@V?$basic_string@DU?$char_traits@D@__Cr@std@@V?$allocator@D@23@@__Cr@std@@@absl@@QEAA@XZ
    ??$?0$$V$0A@@?$NoDestructor@VFlagRegistry@flags_internal@absl@@@absl@@QEAA@XZ
    ??$?0$$V$0A@@?$NoDestructor@VMutex@absl@@@absl@@QEAA@XZ
    ??$?0$$V@?$__temp_value@UTransition@cctz@time_internal@absl@@V?$allocator@UTransition@cctz@time_internal@absl@@@__Cr@std@@@__Cr@std@@QEAA@AEAV?$allocator@UTransition@cctz@time_internal@absl@@@12@@Z
    ??$?0$$V@?$__temp_value@UTransitionType@cctz@time_internal@absl@@V?$allocator@UTransitionType@cctz@time_internal@absl@@@__Cr@std@@@__Cr@std@@QEAA@AEAV?$allocator@UTransitionType@cctz@time_internal@absl@@@12@@Z
    ??$?0$$V@PlacementImpl@?$NoDestructor@URefcountedRep@CrcCordState@crc_internal@absl@@@absl@@QEAA@XZ
    ??$?0$$V@PlacementImpl@?$NoDestructor@V?$SampleRecorder@UHashtablezInfo@container_internal@absl@@@profiling_internal@absl@@@absl@@QEAA@XZ
    ??$?0$$V@PlacementImpl@?$NoDestructor@V?$basic_string@DU?$char_traits@D@__Cr@std@@V?$allocator@D@23@@__Cr@std@@@absl@@QEAA@XZ
    ??$?0$$V@PlacementImpl@?$NoDestructor@VFlagRegistry@flags_internal@absl@@@absl@@QEAA@XZ
    ??$?0$$V@PlacementImpl@?$NoDestructor@VMutex@absl@@@absl@@QEAA@XZ
    ??$?0$$Y_And@__Cr@std@@$0A@@?$tuple@AEAPEAVCommandLineFlag@absl@@AEA_N@__Cr@std@@QEAA@AEAPEAVCommandLineFlag@absl@@AEA_N@Z
    ??$?0$$Y_And@__Cr@std@@$0A@@?$tuple@AEBQEAVCommandLineFlag@absl@@@__Cr@std@@QEAA@AEBQEAVCommandLineFlag@absl@@@Z
    ??$?0$00$0A@@?$__compressed_pair@U?$__hash_node_base@PEAU?$__hash_node@PEBUCordRep@cord_internal@absl@@PEAX@__Cr@std@@@__Cr@std@@V?$allocator@U?$__hash_node@PEBUCordRep@cord_internal@absl@@PEAX@__Cr@std@@@23@@__Cr@std@@QEAA@XZ
    ??$?0$00$0A@@?$__compressed_pair@U?$__hash_node_base@PEAU?$__hash_node@U?$__hash_value_type@V?$basic_string@DU?$char_traits@D@__Cr@std@@V?$allocator@D@23@@__Cr@std@@PEBVImpl@time_zone@cctz@time_internal@absl@@@__Cr@std@@PEAX@__Cr@std@@@__Cr@std@@V?$allocator@U?$__hash_node@U?$__hash_value_type@V?$basic_string@DU?$char_traits@D@__Cr@std@@V?$allocator@D@23@@__Cr@std@@PEBVImpl@time_zone@cctz@time_internal@absl@@@__Cr@std@@PEAX@__Cr@std@@@23@@__Cr@std@@QEAA@XZ
    ??$?0$00$0A@@?$__compressed_pair@V?$__tree_end_node@PEAV?$__tree_node_base@PEAX@__Cr@std@@@__Cr@std@@V?$allocator@V?$__tree_node@U?$__value_type@V?$basic_string@DU?$char_traits@D@__Cr@std@@V?$allocator@D@23@@__Cr@std@@V?$map@V?$basic_string@DU?$char_traits@D@__Cr@std@@V?$allocator@D@23@@__Cr@std@@V?$vector@PEBVCommandLineFlag@absl@@V?$allocator@PEBVCommandLineFlag@absl@@@__Cr@std@@@23@U?$less@V?$basic_string@DU?$char_traits@D@__Cr@std@@V?$allocator@D@23@@__Cr@std@@@23@V?$allocator@U?$pair@$$CBV?$basic_string@DU?$char_traits@D@__Cr@std@@V?$allocator@D@23@@__Cr@std@@V?$vector@PEBVCommandLineFlag@absl@@V?$allocator@PEBVCommandLineFlag@absl@@@__Cr@std@@@23@@__Cr@std@@@23@@23@@__Cr@std@@PEAX@__Cr@std@@@23@@__Cr@std@@QEAA@XZ
    ??$?0$00$0A@@?$__compressed_pair@V?$__tree_end_node@PEAV?$__tree_node_base@PEAX@__Cr@std@@@__Cr@std@@V?$allocator@V?$__tree_node@U?$__value_type@V?$basic_string@DU?$char_traits@D@__Cr@std@@V?$allocator@D@23@@__Cr@std@@V?$vector@PEBVCommandLineFlag@absl@@V?$allocator@PEBVCommandLineFlag@absl@@@__Cr@std@@@23@@__Cr@std@@PEAX@__Cr@std@@@23@@__Cr@std@@QEAA@XZ
    ??$?0$00X@?$unique_ptr@$$BY0A@PEAU?$__hash_node_base@PEAU?$__hash_node@PEBUCordRep@cord_internal@absl@@PEAX@__Cr@std@@@__Cr@std@@V?$__bucket_list_deallocator@V?$allocator@PEAU?$__hash_node_base@PEAU?$__hash_node@PEBUCordRep@cord_internal@absl@@PEAX@__Cr@std@@@__Cr@std@@@__Cr@std@@@23@@__Cr@std@@QEAA@XZ
    ??$?0$00X@?$unique_ptr@$$BY0A@PEAU?$__hash_node_base@PEAU?$__hash_node@U?$__hash_value_type@V?$basic_string@DU?$char_traits@D@__Cr@std@@V?$allocator@D@23@@__Cr@std@@PEBVImpl@time_zone@cctz@time_internal@absl@@@__Cr@std@@PEAX@__Cr@std@@@__Cr@std@@V?$__bucket_list_deallocator@V?$allocator@PEAU?$__hash_node_base@PEAU?$__hash_node@U?$__hash_value_type@V?$basic_string@DU?$char_traits@D@__Cr@std@@V?$allocator@D@23@@__Cr@std@@PEBVImpl@time_zone@cctz@time_internal@absl@@@__Cr@std@@PEAX@__Cr@std@@@__Cr@std@@@__Cr@std@@@23@@__Cr@std@@QEAA@XZ
    ??$?0$00X@?$unique_ptr@$$CBVImpl@time_zone@cctz@time_internal@absl@@U?$default_delete@$$CBVImpl@time_zone@cctz@time_internal@absl@@@__Cr@std@@@__Cr@std@@QEAA@PEBVImpl@time_zone@cctz@time_internal@absl@@@Z
    ??$?0$00X@?$unique_ptr@PEAPEBVImpl@time_zone@cctz@time_internal@absl@@V?$__allocator_destructor@V?$allocator@PEBVImpl@time_zone@cctz@time_internal@absl@@@__Cr@std@@@__Cr@std@@@__Cr@std@@QEAA@PEAPEBVImpl@time_zone@cctz@time_internal@absl@@$$QEAV?$__allocator_destructor@V?$allocator@PEBVImpl@time_zone@cctz@time_internal@absl@@@__Cr@std@@@12@@Z
    ??$?0$00X@?$unique_ptr@PEAUPrefixCrc@CrcCordState@crc_internal@absl@@V?$__allocator_destructor@V?$allocator@UPrefixCrc@CrcCordState@crc_internal@absl@@@__Cr@std@@@__Cr@std@@@__Cr@std@@QEAA@PEAUPrefixCrc@CrcCordState@crc_internal@absl@@$$QEAV?$__allocator_destructor@V?$allocator@UPrefixCrc@CrcCordState@crc_internal@absl@@@__Cr@std@@@12@@Z
    ??$?0$00X@?$unique_ptr@U?$__hash_node@PEBUCordRep@cord_internal@absl@@PEAX@__Cr@std@@V?$__hash_node_destructor@V?$allocator@U?$__hash_node@PEBUCordRep@cord_internal@absl@@PEAX@__Cr@std@@@__Cr@std@@@23@@__Cr@std@@QEAA@PEAU?$__hash_node@PEBUCordRep@cord_internal@absl@@PEAX@12@$$QEAV?$__hash_node_destructor@V?$allocator@U?$__hash_node@PEBUCordRep@cord_internal@absl@@PEAX@__Cr@std@@@__Cr@std@@@12@@Z
    ??$?0$00X@?$unique_ptr@U?$__hash_node@U?$__hash_value_type@V?$basic_string@DU?$char_traits@D@__Cr@std@@V?$allocator@D@23@@__Cr@std@@PEBVImpl@time_zone@cctz@time_internal@absl@@@__Cr@std@@PEAX@__Cr@std@@V?$__hash_node_destructor@V?$allocator@U?$__hash_node@U?$__hash_value_type@V?$basic_string@DU?$char_traits@D@__Cr@std@@V?$allocator@D@23@@__Cr@std@@PEBVImpl@time_zone@cctz@time_internal@absl@@@__Cr@std@@PEAX@__Cr@std@@@__Cr@std@@@23@@__Cr@std@@QEAA@PEAU?$__hash_node@U?$__hash_value_type@V?$basic_string@DU?$char_traits@D@__Cr@std@@V?$allocator@D@23@@__Cr@std@@PEBVImpl@time_zone@cctz@time_internal@absl@@@__Cr@std@@PEAX@12@$$QEAV?$__hash_node_destructor@V?$allocator@U?$__hash_node@U?$__hash_value_type@V?$basic_string@DU?$char_traits@D@__Cr@std@@V?$allocator@D@23@@__Cr@std@@PEBVImpl@time_zone@cctz@time_internal@absl@@@__Cr@std@@PEAX@__Cr@std@@@__Cr@std@@@12@@Z
    ??$?0$00X@?$unique_ptr@ULogMessageData@LogMessage@log_internal@absl@@U?$default_delete@ULogMessageData@LogMessage@log_internal@absl@@@__Cr@std@@@__Cr@std@@QEAA@PEAULogMessageData@LogMessage@log_internal@absl@@@Z
    ??$?0$00X@?$unique_ptr@UThreadIdentity@base_internal@absl@@P6AXPEAX@Z@__Cr@std@@QEAA@PEAUThreadIdentity@base_internal@absl@@AEBQ6AXPEAX@Z@Z
    ??$?0$00X@?$unique_ptr@V?$InlinedVector@UPayload@status_internal@absl@@$00V?$allocator@UPayload@status_internal@absl@@@__Cr@std@@@absl@@U?$default_delete@V?$InlinedVector@UPayload@status_internal@absl@@$00V?$allocator@UPayload@status_internal@absl@@@__Cr@std@@@absl@@@__Cr@std@@@__Cr@std@@QEAA@$$T@Z
    ??$?0$00X@?$unique_ptr@V?$InlinedVector@UPayload@status_internal@absl@@$00V?$allocator@UPayload@status_internal@absl@@@__Cr@std@@@absl@@U?$default_delete@V?$InlinedVector@UPayload@status_internal@absl@@$00V?$allocator@UPayload@status_internal@absl@@@__Cr@std@@@absl@@@__Cr@std@@@__Cr@std@@QEAA@PEAV?$InlinedVector@UPayload@status_internal@absl@@$00V?$allocator@UPayload@status_internal@absl@@@__Cr@std@@@absl@@@Z
    ??$?0$00X@?$unique_ptr@V?$InlinedVector@UPayload@status_internal@absl@@$00V?$allocator@UPayload@status_internal@absl@@@__Cr@std@@@absl@@U?$default_delete@V?$InlinedVector@UPayload@status_internal@absl@@$00V?$allocator@UPayload@status_internal@absl@@@__Cr@std@@@absl@@@__Cr@std@@@__Cr@std@@QEAA@XZ
    ??$?0$00X@?$unique_ptr@V?$__tree_node@U?$__value_type@V?$basic_string@DU?$char_traits@D@__Cr@std@@V?$allocator@D@23@@__Cr@std@@V?$map@V?$basic_string@DU?$char_traits@D@__Cr@std@@V?$allocator@D@23@@__Cr@std@@V?$vector@PEBVCommandLineFlag@absl@@V?$allocator@PEBVCommandLineFlag@absl@@@__Cr@std@@@23@U?$less@V?$basic_string@DU?$char_traits@D@__Cr@std@@V?$allocator@D@23@@__Cr@std@@@23@V?$allocator@U?$pair@$$CBV?$basic_string@DU?$char_traits@D@__Cr@std@@V?$allocator@D@23@@__Cr@std@@V?$vector@PEBVCommandLineFlag@absl@@V?$allocator@PEBVCommandLineFlag@absl@@@__Cr@std@@@23@@__Cr@std@@@23@@23@@__Cr@std@@PEAX@__Cr@std@@V?$__tree_node_destructor@V?$allocator@V?$__tree_node@U?$__value_type@V?$basic_string@DU?$char_traits@D@__Cr@std@@V?$allocator@D@23@@__Cr@std@@V?$map@V?$basic_string@DU?$char_traits@D@__Cr@std@@V?$allocator@D@23@@__Cr@std@@V?$vector@PEBVCommandLineFlag@absl@@V?$allocator@PEBVCommandLineFlag@absl@@@__Cr@std@@@23@U?$less@V?$basic_string@DU?$char_traits@D@__Cr@std@@V?$allocator@D@23@@__Cr@std@@@23@V?$allocator@U?$pair@$$CBV?$basic_string@DU?$char_traits@D@__Cr@std@@V?$allocator@D@23@@__Cr@std@@V?$vector@PEBVCommandLineFlag@absl@@V?$allocator@PEBVCommandLineFlag@absl@@@__Cr@std@@@23@@__Cr@std@@@23@@23@@__Cr@std@@PEAX@__Cr@std@@@__Cr@std@@@23@@__Cr@std@@QEAA@PEAV?$__tree_node@U?$__value_type@V?$basic_string@DU?$char_traits@D@__Cr@std@@V?$allocator@D@23@@__Cr@std@@V?$map@V?$basic_string@DU?$char_traits@D@__Cr@std@@V?$allocator@D@23@@__Cr@std@@V?$vector@PEBVCommandLineFlag@absl@@V?$allocator@PEBVCommandLineFlag@absl@@@__Cr@std@@@23@U?$less@V?$basic_string@DU?$char_traits@D@__Cr@std@@V?$allocator@D@23@@__Cr@std@@@23@V?$allocator@U?$pair@$$CBV?$basic_string@DU?$char_traits@D@__Cr@std@@V?$allocator@D@23@@__Cr@std@@V?$vector@PEBVCommandLineFlag@absl@@V?$allocator@PEBVCommandLineFlag@absl@@@__Cr@std@@@23@@__Cr@std@@@23@@23@@__Cr@std@@PEAX@12@$$QEAV?$__tree_node_destructor@V?$allocator@V?$__tree_node@U?$__value_type@V?$basic_string@DU?$char_traits@D@__Cr@std@@V?$allocator@D@23@@__Cr@std@@V?$map@V?$basic_string@DU?$char_traits@D@__Cr@std@@V?$allocator@D@23@@__Cr@std@@V?$vector@PEBVCommandLineFlag@absl@@V?$allocator@PEBVCommandLineFlag@absl@@@__Cr@std@@@23@U?$less@V?$basic_string@DU?$char_traits@D@__Cr@std@@V?$allocator@D@23@@__Cr@std@@@23@V?$allocator@U?$pair@$$CBV?$basic_string@DU?$char_traits@D@__Cr@std@@V?$allocator@D@23@@__Cr@std@@V?$vector@PEBVCommandLineFlag@absl@@V?$allocator@PEBVCommandLineFlag@absl@@@__Cr@std@@@23@@__Cr@std@@@23@@23@@__Cr@std@@PEAX@__Cr@std@@@__Cr@std@@@12@@Z
    ??$?0$00X@?$unique_ptr@V?$__tree_node@U?$__value_type@V?$basic_string@DU?$char_traits@D@__Cr@std@@V?$allocator@D@23@@__Cr@std@@V?$vector@PEBVCommandLineFlag@absl@@V?$allocator@PEBVCommandLineFlag@absl@@@__Cr@std@@@23@@__Cr@std@@PEAX@__Cr@std@@V?$__tree_node_destructor@V?$allocator@V?$__tree_node@U?$__value_type@V?$basic_string@DU?$char_traits@D@__Cr@std@@V?$allocator@D@23@@__Cr@std@@V?$vector@PEBVCommandLineFlag@absl@@V?$allocator@PEBVCommandLineFlag@absl@@@__Cr@std@@@23@@__Cr@std@@PEAX@__Cr@std@@@__Cr@std@@@23@@__Cr@std@@QEAA@PEAV?$__tree_node@U?$__value_type@V?$basic_string@DU?$char_traits@D@__Cr@std@@V?$allocator@D@23@@__Cr@std@@V?$vector@PEBVCommandLineFlag@absl@@V?$allocator@PEBVCommandLineFlag@absl@@@__Cr@std@@@23@@__Cr@std@@PEAX@12@$$QEAV?$__tree_node_destructor@V?$allocator@V?$__tree_node@U?$__value_type@V?$basic_string@DU?$char_traits@D@__Cr@std@@V?$allocator@D@23@@__Cr@std@@V?$vector@PEBVCommandLineFlag@absl@@V?$allocator@PEBVCommandLineFlag@absl@@@__Cr@std@@@23@@__Cr@std@@PEAX@__Cr@std@@@__Cr@std@@@12@@Z
    ??$?0$00X@?$unique_ptr@VFallbackCrcMemcpyEngine@crc_internal@absl@@U?$default_delete@VFallbackCrcMemcpyEngine@crc_internal@absl@@@__Cr@std@@@__Cr@std@@QEAA@PEAVFallbackCrcMemcpyEngine@crc_internal@absl@@@Z
    ??$?0$00X@?$unique_ptr@VFlagState@flags_internal@absl@@U?$default_delete@VFlagState@flags_internal@absl@@@__Cr@std@@@__Cr@std@@QEAA@PEAVFlagState@flags_internal@absl@@@Z
    ??$?0$00X@?$unique_ptr@VFlagStateInterface@flags_internal@absl@@U?$default_delete@VFlagStateInterface@flags_internal@absl@@@__Cr@std@@@__Cr@std@@QEAA@$$T@Z
    ??$?0$00X@?$unique_ptr@VTimeZoneInfo@cctz@time_internal@absl@@U?$default_delete@VTimeZoneInfo@cctz@time_internal@absl@@@__Cr@std@@@__Cr@std@@QEAA@PEAVTimeZoneInfo@cctz@time_internal@absl@@@Z
    ??$?0$00X@?$unique_ptr@VTimeZoneLibC@cctz@time_internal@absl@@U?$default_delete@VTimeZoneLibC@cctz@time_internal@absl@@@__Cr@std@@@__Cr@std@@QEAA@PEAVTimeZoneLibC@cctz@time_internal@absl@@@Z
    ??$?0$00X@?$unique_ptr@VZoneInfoSource@cctz@time_internal@absl@@U?$default_delete@VZoneInfoSource@cctz@time_internal@absl@@@__Cr@std@@@__Cr@std@@QEAA@$$T@Z
    ??$?0$00X@?$unique_ptr@VZoneInfoSource@cctz@time_internal@absl@@U?$default_delete@VZoneInfoSource@cctz@time_internal@absl@@@__Cr@std@@@__Cr@std@@QEAA@PEAVZoneInfoSource@cctz@time_internal@absl@@@Z
    ??$?0$00X@?$unique_ptr@XUDynValueDeleter@flags_internal@absl@@@__Cr@std@@QEAA@$$T@Z
    ??$?0$00X@?$unique_ptr@XUDynValueDeleter@flags_internal@absl@@@__Cr@std@@QEAA@PEAX$$QEAUDynValueDeleter@flags_internal@absl@@@Z
    ??$?0$0A@$$Z$$QEAPEAVCommandLineFlag@absl@@$$Z$S$$Z$$V$$ZPEAV01@@?$__tuple_impl@U?$__tuple_indices@$0A@@__Cr@std@@$$QEAPEAVCommandLineFlag@absl@@@__Cr@std@@QEAA@U?$__tuple_indices@$0A@@12@U?$__tuple_types@$$QEAPEAVCommandLineFlag@absl@@@12@U?$__tuple_indices@$S@12@U?$__tuple_types@$$V@12@$$QEAPEAVCommandLineFlag@absl@@@Z
    ??$?0$0A@$$ZAEBQEAVCommandLineFlag@absl@@$$Z$S$$Z$$V$$ZAEBQEAV01@@?$__tuple_impl@U?$__tuple_indices@$0A@@__Cr@std@@AEBQEAVCommandLineFlag@absl@@@__Cr@std@@QEAA@U?$__tuple_indices@$0A@@12@U?$__tuple_types@AEBQEAVCommandLineFlag@absl@@@12@U?$__tuple_indices@$S@12@U?$__tuple_types@$$V@12@AEBQEAVCommandLineFlag@absl@@@Z
    ??$?0$0A@$00$$ZAEAPEAVCommandLineFlag@absl@@AEA_N$$Z$S$$Z$$V$$ZAEAPEAV01@AEA_N@?$__tuple_impl@U?$__tuple_indices@$0A@$00@__Cr@std@@AEAPEAVCommandLineFlag@absl@@AEA_N@__Cr@std@@QEAA@U?$__tuple_indices@$0A@$00@12@U?$__tuple_types@AEAPEAVCommandLineFlag@absl@@AEA_N@12@U?$__tuple_indices@$S@12@U?$__tuple_types@$$V@12@AEAPEAVCommandLineFlag@absl@@AEA_N@Z
    ??$?0$0A@$00$$ZPEAVCommandLineFlag@absl@@_N$$Z$S$$Z$$V$$ZAEAPEAV01@AEA_N@?$__tuple_impl@U?$__tuple_indices@$0A@$00@__Cr@std@@PEAVCommandLineFlag@absl@@_N@__Cr@std@@QEAA@U?$__tuple_indices@$0A@$00@12@U?$__tuple_types@PEAVCommandLineFlag@absl@@_N@12@U?$__tuple_indices@$S@12@U?$__tuple_types@$$V@12@AEAPEAVCommandLineFlag@absl@@AEA_N@Z
    ??$?0AEAPEAPEAPEBVImpl@time_zone@cctz@time_internal@absl@@AEAPEAPEAPEBV01234@$0A@@?$pair@PEAPEAPEBVImpl@time_zone@cctz@time_internal@absl@@PEAPEAPEBV12345@@__Cr@std@@QEAA@AEAPEAPEAPEBVImpl@time_zone@cctz@time_internal@absl@@0@Z
    ??$?0AEAPEAPEAPEBVImpl@time_zone@cctz@time_internal@absl@@PEAPEAPEBV01234@$0A@@?$pair@PEAPEAPEBVImpl@time_zone@cctz@time_internal@absl@@PEAPEAPEBV12345@@__Cr@std@@QEAA@AEAPEAPEAPEBVImpl@time_zone@cctz@time_internal@absl@@$$QEAPEAPEAPEBV34567@@Z
    ??$?0AEAPEAPEAUPrefixCrc@CrcCordState@crc_internal@absl@@AEAPEAPEAU0123@$0A@@?$pair@PEAPEAUPrefixCrc@CrcCordState@crc_internal@absl@@PEAPEAU1234@@__Cr@std@@QEAA@AEAPEAPEAUPrefixCrc@CrcCordState@crc_internal@absl@@0@Z
    ??$?0AEAPEAPEAUPrefixCrc@CrcCordState@crc_internal@absl@@PEAPEAU0123@$0A@@?$pair@PEAPEAUPrefixCrc@CrcCordState@crc_internal@absl@@PEAPEAU1234@@__Cr@std@@QEAA@AEAPEAPEAUPrefixCrc@CrcCordState@crc_internal@absl@@$$QEAPEAPEAU3456@@Z
    ??$?0AEAPEAPEAVCommandLineFlag@absl@@AEA_N$0A@@?$pair@PEAPEAVCommandLineFlag@absl@@_N@__Cr@std@@QEAA@AEAPEAPEAVCommandLineFlag@absl@@AEA_N@Z
    ??$?0AEAPEAPEAVLogSink@absl@@PEAPEAV01@$0A@@?$pair@PEAPEAVLogSink@absl@@PEAPEAV12@@__Cr@std@@QEAA@AEAPEAPEAVLogSink@absl@@$$QEAPEAPEAV34@@Z
    ??$?0AEAPEAPEBVCommandLineFlag@absl@@AEA_N$0A@@?$pair@PEAPEBVCommandLineFlag@absl@@_N@__Cr@std@@QEAA@AEAPEAPEBVCommandLineFlag@absl@@AEA_N@Z
    ??$?0AEAPEAPEBVImpl@time_zone@cctz@time_internal@absl@@$0A@@?$__compressed_pair_elem@PEAPEBVImpl@time_zone@cctz@time_internal@absl@@$0A@$0A@@__Cr@std@@QEAA@AEAPEAPEBVImpl@time_zone@cctz@time_internal@absl@@@Z
    ??$?0AEAPEAPEBVImpl@time_zone@cctz@time_internal@absl@@V?$__allocator_destructor@V?$allocator@PEBVImpl@time_zone@cctz@time_internal@absl@@@__Cr@std@@@__Cr@std@@@?$__compressed_pair@PEAPEBVImpl@time_zone@cctz@time_internal@absl@@V?$__allocator_destructor@V?$allocator@PEBVImpl@time_zone@cctz@time_internal@absl@@@__Cr@std@@@__Cr@std@@@__Cr@std@@QEAA@AEAPEAPEBVImpl@time_zone@cctz@time_internal@absl@@$$QEAV?$__allocator_destructor@V?$allocator@PEBVImpl@time_zone@cctz@time_internal@absl@@@__Cr@std@@@12@@Z
    ??$?0AEAPEAU?$__hash_node@PEBUCordRep@cord_internal@absl@@PEAX@__Cr@std@@$0A@@?$__compressed_pair_elem@PEAU?$__hash_node@PEBUCordRep@cord_internal@absl@@PEAX@__Cr@std@@$0A@$0A@@__Cr@std@@QEAA@AEAPEAU?$__hash_node@PEBUCordRep@cord_internal@absl@@PEAX@12@@Z
    ??$?0AEAPEAU?$__hash_node@PEBUCordRep@cord_internal@absl@@PEAX@__Cr@std@@V?$__hash_node_destructor@V?$allocator@U?$__hash_node@PEBUCordRep@cord_internal@absl@@PEAX@__Cr@std@@@__Cr@std@@@12@@?$__compressed_pair@PEAU?$__hash_node@PEBUCordRep@cord_internal@absl@@PEAX@__Cr@std@@V?$__hash_node_destructor@V?$allocator@U?$__hash_node@PEBUCordRep@cord_internal@absl@@PEAX@__Cr@std@@@__Cr@std@@@23@@__Cr@std@@QEAA@AEAPEAU?$__hash_node@PEBUCordRep@cord_internal@absl@@PEAX@12@$$QEAV?$__hash_node_destructor@V?$allocator@U?$__hash_node@PEBUCordRep@cord_internal@absl@@PEAX@__Cr@std@@@__Cr@std@@@12@@Z
    ??$?0AEAPEAU?$__hash_node@U?$__hash_value_type@V?$basic_string@DU?$char_traits@D@__Cr@std@@V?$allocator@D@23@@__Cr@std@@PEBVImpl@time_zone@cctz@time_internal@absl@@@__Cr@std@@PEAX@__Cr@std@@$0A@@?$__compressed_pair_elem@PEAU?$__hash_node@U?$__hash_value_type@V?$basic_string@DU?$char_traits@D@__Cr@std@@V?$allocator@D@23@@__Cr@std@@PEBVImpl@time_zone@cctz@time_internal@absl@@@__Cr@std@@PEAX@__Cr@std@@$0A@$0A@@__Cr@std@@QEAA@AEAPEAU?$__hash_node@U?$__hash_value_type@V?$basic_string@DU?$char_traits@D@__Cr@std@@V?$allocator@D@23@@__Cr@std@@PEBVImpl@time_zone@cctz@time_internal@absl@@@__Cr@std@@PEAX@12@@Z
    ??$?0AEAPEAU?$__hash_node@U?$__hash_value_type@V?$basic_string@DU?$char_traits@D@__Cr@std@@V?$allocator@D@23@@__Cr@std@@PEBVImpl@time_zone@cctz@time_internal@absl@@@__Cr@std@@PEAX@__Cr@std@@V?$__hash_node_destructor@V?$allocator@U?$__hash_node@U?$__hash_value_type@V?$basic_string@DU?$char_traits@D@__Cr@std@@V?$allocator@D@23@@__Cr@std@@PEBVImpl@time_zone@cctz@time_internal@absl@@@__Cr@std@@PEAX@__Cr@std@@@__Cr@std@@@12@@?$__compressed_pair@PEAU?$__hash_node@U?$__hash_value_type@V?$basic_string@DU?$char_traits@D@__Cr@std@@V?$allocator@D@23@@__Cr@std@@PEBVImpl@time_zone@cctz@time_internal@absl@@@__Cr@std@@PEAX@__Cr@std@@V?$__hash_node_destructor@V?$allocator@U?$__hash_node@U?$__hash_value_type@V?$basic_string@DU?$char_traits@D@__Cr@std@@V?$allocator@D@23@@__Cr@std@@PEBVImpl@time_zone@cctz@time_internal@absl@@@__Cr@std@@PEAX@__Cr@std@@@__Cr@std@@@23@@__Cr@std@@QEAA@AEAPEAU?$__hash_node@U?$__hash_value_type@V?$basic_string@DU?$char_traits@D@__Cr@std@@V?$allocator@D@23@@__Cr@std@@PEBVImpl@time_zone@cctz@time_internal@absl@@@__Cr@std@@PEAX@12@$$QEAV?$__hash_node_destructor@V?$allocator@U?$__hash_node@U?$__hash_value_type@V?$basic_string@DU?$char_traits@D@__Cr@std@@V?$allocator@D@23@@__Cr@std@@PEBVImpl@time_zone@cctz@time_internal@absl@@@__Cr@std@@PEAX@__Cr@std@@@__Cr@std@@@12@@Z
    ??$?0AEAPEAULogMessageData@LogMessage@log_internal@absl@@$0A@@?$__compressed_pair_elem@PEAULogMessageData@LogMessage@log_internal@absl@@$0A@$0A@@__Cr@std@@QEAA@AEAPEAULogMessageData@LogMessage@log_internal@absl@@@Z
    ??$?0AEAPEAULogMessageData@LogMessage@log_internal@absl@@U__value_init_tag@__Cr@std@@@?$__compressed_pair@PEAULogMessageData@LogMessage@log_internal@absl@@U?$default_delete@ULogMessageData@LogMessage@log_internal@absl@@@__Cr@std@@@__Cr@std@@QEAA@AEAPEAULogMessageData@LogMessage@log_internal@absl@@$$QEAU__value_init_tag@12@@Z
    ??$?0AEAPEAUPrefixCrc@CrcCordState@crc_internal@absl@@$0A@@?$__compressed_pair_elem@PEAUPrefixCrc@CrcCordState@crc_internal@absl@@$0A@$0A@@__Cr@std@@QEAA@AEAPEAUPrefixCrc@CrcCordState@crc_internal@absl@@@Z
    ??$?0AEAPEAUPrefixCrc@CrcCordState@crc_internal@absl@@V?$__allocator_destructor@V?$allocator@UPrefixCrc@CrcCordState@crc_internal@absl@@@__Cr@std@@@__Cr@std@@@?$__compressed_pair@PEAUPrefixCrc@CrcCordState@crc_internal@absl@@V?$__allocator_destructor@V?$allocator@UPrefixCrc@CrcCordState@crc_internal@absl@@@__Cr@std@@@__Cr@std@@@__Cr@std@@QEAA@AEAPEAUPrefixCrc@CrcCordState@crc_internal@absl@@$$QEAV?$__allocator_destructor@V?$allocator@UPrefixCrc@CrcCordState@crc_internal@absl@@@__Cr@std@@@12@@Z
    ??$?0AEAPEAUThreadIdentity@base_internal@absl@@$0A@@?$__compressed_pair_elem@PEAUThreadIdentity@base_internal@absl@@$0A@$0A@@__Cr@std@@QEAA@AEAPEAUThreadIdentity@base_internal@absl@@@Z
    ??$?0AEAPEAUThreadIdentity@base_internal@absl@@AEBQ6AXPEAX@Z@?$__compressed_pair@PEAUThreadIdentity@base_internal@absl@@P6AXPEAX@Z@__Cr@std@@QEAA@AEAPEAUThreadIdentity@base_internal@absl@@AEBQ6AXPEAX@Z@Z
    ??$?0AEAPEAUTransition@cctz@time_internal@absl@@AEAPEAU0123@$0A@@?$pair@PEAUTransition@cctz@time_internal@absl@@PEAU1234@@__Cr@std@@QEAA@AEAPEAUTransition@cctz@time_internal@absl@@0@Z
    ??$?0AEAPEAUTransition@cctz@time_internal@absl@@PEAU0123@$0A@@?$pair@PEAUTransition@cctz@time_internal@absl@@PEAU1234@@__Cr@std@@QEAA@AEAPEAUTransition@cctz@time_internal@absl@@$$QEAPEAU3456@@Z
    ??$?0AEAPEAUTransitionType@cctz@time_internal@absl@@AEAPEAU0123@$0A@@?$pair@PEAUTransitionType@cctz@time_internal@absl@@PEAU1234@@__Cr@std@@QEAA@AEAPEAUTransitionType@cctz@time_internal@absl@@0@Z
    ??$?0AEAPEAUTransitionType@cctz@time_internal@absl@@PEAU0123@$0A@@?$pair@PEAUTransitionType@cctz@time_internal@absl@@PEAU1234@@__Cr@std@@QEAA@AEAPEAUTransitionType@cctz@time_internal@absl@@$$QEAPEAU3456@@Z
    ??$?0AEAPEAV?$InlinedVector@UPayload@status_internal@absl@@$00V?$allocator@UPayload@status_internal@absl@@@__Cr@std@@@absl@@$0A@@?$__compressed_pair_elem@PEAV?$InlinedVector@UPayload@status_internal@absl@@$00V?$allocator@UPayload@status_internal@absl@@@__Cr@std@@@absl@@$0A@$0A@@__Cr@std@@QEAA@AEAPEAV?$InlinedVector@UPayload@status_internal@absl@@$00V?$allocator@UPayload@status_internal@absl@@@__Cr@std@@@absl@@@Z
    ??$?0AEAPEAV?$InlinedVector@UPayload@status_internal@absl@@$00V?$allocator@UPayload@status_internal@absl@@@__Cr@std@@@absl@@U__value_init_tag@__Cr@std@@@?$__compressed_pair@PEAV?$InlinedVector@UPayload@status_internal@absl@@$00V?$allocator@UPayload@status_internal@absl@@@__Cr@std@@@absl@@U?$default_delete@V?$InlinedVector@UPayload@status_internal@absl@@$00V?$allocator@UPayload@status_internal@absl@@@__Cr@std@@@absl@@@__Cr@std@@@__Cr@std@@QEAA@AEAPEAV?$InlinedVector@UPayload@status_internal@absl@@$00V?$allocator@UPayload@status_internal@absl@@@__Cr@std@@@absl@@$$QEAU__value_init_tag@12@@Z
    ??$?0AEAPEAV?$__tree_node@U?$__value_type@V?$basic_string@DU?$char_traits@D@__Cr@std@@V?$allocator@D@23@@__Cr@std@@V?$map@V?$basic_string@DU?$char_traits@D@__Cr@std@@V?$allocator@D@23@@__Cr@std@@V?$vector@PEBVCommandLineFlag@absl@@V?$allocator@PEBVCommandLineFlag@absl@@@__Cr@std@@@23@U?$less@V?$basic_string@DU?$char_traits@D@__Cr@std@@V?$allocator@D@23@@__Cr@std@@@23@V?$allocator@U?$pair@$$CBV?$basic_string@DU?$char_traits@D@__Cr@std@@V?$allocator@D@23@@__Cr@std@@V?$vector@PEBVCommandLineFlag@absl@@V?$allocator@PEBVCommandLineFlag@absl@@@__Cr@std@@@23@@__Cr@std@@@23@@23@@__Cr@std@@PEAX@__Cr@std@@$0A@@?$__compressed_pair_elem@PEAV?$__tree_node@U?$__value_type@V?$basic_string@DU?$char_traits@D@__Cr@std@@V?$allocator@D@23@@__Cr@std@@V?$map@V?$basic_string@DU?$char_traits@D@__Cr@std@@V?$allocator@D@23@@__Cr@std@@V?$vector@PEBVCommandLineFlag@absl@@V?$allocator@PEBVCommandLineFlag@absl@@@__Cr@std@@@23@U?$less@V?$basic_string@DU?$char_traits@D@__Cr@std@@V?$allocator@D@23@@__Cr@std@@@23@V?$allocator@U?$pair@$$CBV?$basic_string@DU?$char_traits@D@__Cr@std@@V?$allocator@D@23@@__Cr@std@@V?$vector@PEBVCommandLineFlag@absl@@V?$allocator@PEBVCommandLineFlag@absl@@@__Cr@std@@@23@@__Cr@std@@@23@@23@@__Cr@std@@PEAX@__Cr@std@@$0A@$0A@@__Cr@std@@QEAA@AEAPEAV?$__tree_node@U?$__value_type@V?$basic_string@DU?$char_traits@D@__Cr@std@@V?$allocator@D@23@@__Cr@std@@V?$map@V?$basic_string@DU?$char_traits@D@__Cr@std@@V?$allocator@D@23@@__Cr@std@@V?$vector@PEBVCommandLineFlag@absl@@V?$allocator@PEBVCommandLineFlag@absl@@@__Cr@std@@@23@U?$less@V?$basic_string@DU?$char_traits@D@__Cr@std@@V?$allocator@D@23@@__Cr@std@@@23@V?$allocator@U?$pair@$$CBV?$basic_string@DU?$char_traits@D@__Cr@std@@V?$allocator@D@23@@__Cr@std@@V?$vector@PEBVCommandLineFlag@absl@@V?$allocator@PEBVCommandLineFlag@absl@@@__Cr@std@@@23@@__Cr@std@@@23@@23@@__Cr@std@@PEAX@12@@Z
    ??$?0AEAPEAV?$__tree_node@U?$__value_type@V?$basic_string@DU?$char_traits@D@__Cr@std@@V?$allocator@D@23@@__Cr@std@@V?$map@V?$basic_string@DU?$char_traits@D@__Cr@std@@V?$allocator@D@23@@__Cr@std@@V?$vector@PEBVCommandLineFlag@absl@@V?$allocator@PEBVCommandLineFlag@absl@@@__Cr@std@@@23@U?$less@V?$basic_string@DU?$char_traits@D@__Cr@std@@V?$allocator@D@23@@__Cr@std@@@23@V?$allocator@U?$pair@$$CBV?$basic_string@DU?$char_traits@D@__Cr@std@@V?$allocator@D@23@@__Cr@std@@V?$vector@PEBVCommandLineFlag@absl@@V?$allocator@PEBVCommandLineFlag@absl@@@__Cr@std@@@23@@__Cr@std@@@23@@23@@__Cr@std@@PEAX@__Cr@std@@V?$__tree_node_destructor@V?$allocator@V?$__tree_node@U?$__value_type@V?$basic_string@DU?$char_traits@D@__Cr@std@@V?$allocator@D@23@@__Cr@std@@V?$map@V?$basic_string@DU?$char_traits@D@__Cr@std@@V?$allocator@D@23@@__Cr@std@@V?$vector@PEBVCommandLineFlag@absl@@V?$allocator@PEBVCommandLineFlag@absl@@@__Cr@std@@@23@U?$less@V?$basic_string@DU?$char_traits@D@__Cr@std@@V?$allocator@D@23@@__Cr@std@@@23@V?$allocator@U?$pair@$$CBV?$basic_string@DU?$char_traits@D@__Cr@std@@V?$allocator@D@23@@__Cr@std@@V?$vector@PEBVCommandLineFlag@absl@@V?$allocator@PEBVCommandLineFlag@absl@@@__Cr@std@@@23@@__Cr@std@@@23@@23@@__Cr@std@@PEAX@__Cr@std@@@__Cr@std@@@12@@?$__compressed_pair@PEAV?$__tree_node@U?$__value_type@V?$basic_string@DU?$char_traits@D@__Cr@std@@V?$allocator@D@23@@__Cr@std@@V?$map@V?$basic_string@DU?$char_traits@D@__Cr@std@@V?$allocator@D@23@@__Cr@std@@V?$vector@PEBVCommandLineFlag@absl@@V?$allocator@PEBVCommandLineFlag@absl@@@__Cr@std@@@23@U?$less@V?$basic_string@DU?$char_traits@D@__Cr@std@@V?$allocator@D@23@@__Cr@std@@@23@V?$allocator@U?$pair@$$CBV?$basic_string@DU?$char_traits@D@__Cr@std@@V?$allocator@D@23@@__Cr@std@@V?$vector@PEBVCommandLineFlag@absl@@V?$allocator@PEBVCommandLineFlag@absl@@@__Cr@std@@@23@@__Cr@std@@@23@@23@@__Cr@std@@PEAX@__Cr@std@@V?$__tree_node_destructor@V?$allocator@V?$__tree_node@U?$__value_type@V?$basic_string@DU?$char_traits@D@__Cr@std@@V?$allocator@D@23@@__Cr@std@@V?$map@V?$basic_string@DU?$char_traits@D@__Cr@std@@V?$allocator@D@23@@__Cr@std@@V?$vector@PEBVCommandLineFlag@absl@@V?$allocator@PEBVCommandLineFlag@absl@@@__Cr@std@@@23@U?$less@V?$basic_string@DU?$char_traits@D@__Cr@std@@V?$allocator@D@23@@__Cr@std@@@23@V?$allocator@U?$pair@$$CBV?$basic_string@DU?$char_traits@D@__Cr@std@@V?$allocator@D@23@@__Cr@std@@V?$vector@PEBVCommandLineFlag@absl@@V?$allocator@PEBVCommandLineFlag@absl@@@__Cr@std@@@23@@__Cr@std@@@23@@23@@__Cr@std@@PEAX@__Cr@std@@@__Cr@std@@@23@@__Cr@std@@QEAA@AEAPEAV?$__tree_node@U?$__value_type@V?$basic_string@DU?$char_traits@D@__Cr@std@@V?$allocator@D@23@@__Cr@std@@V?$map@V?$basic_string@DU?$char_traits@D@__Cr@std@@V?$allocator@D@23@@__Cr@std@@V?$vector@PEBVCommandLineFlag@absl@@V?$allocator@PEBVCommandLineFlag@absl@@@__Cr@std@@@23@U?$less@V?$basic_string@DU?$char_traits@D@__Cr@std@@V?$allocator@D@23@@__Cr@std@@@23@V?$allocator@U?$pair@$$CBV?$basic_string@DU?$char_traits@D@__Cr@std@@V?$allocator@D@23@@__Cr@std@@V?$vector@PEBVCommandLineFlag@absl@@V?$allocator@PEBVCommandLineFlag@absl@@@__Cr@std@@@23@@__Cr@std@@@23@@23@@__Cr@std@@PEAX@12@$$QEAV?$__tree_node_destructor@V?$allocator@V?$__tree_node@U?$__value_type@V?$basic_string@DU?$char_traits@D@__Cr@std@@V?$allocator@D@23@@__Cr@std@@V?$map@V?$basic_string@DU?$char_traits@D@__Cr@std@@V?$allocator@D@23@@__Cr@std@@V?$vector@PEBVCommandLineFlag@absl@@V?$allocator@PEBVCommandLineFlag@absl@@@__Cr@std@@@23@U?$less@V?$basic_string@DU?$char_traits@D@__Cr@std@@V?$allocator@D@23@@__Cr@std@@@23@V?$allocator@U?$pair@$$CBV?$basic_string@DU?$char_traits@D@__Cr@std@@V?$allocator@D@23@@__Cr@std@@V?$vector@PEBVCommandLineFlag@absl@@V?$allocator@PEBVCommandLineFlag@absl@@@__Cr@std@@@23@@__Cr@std@@@23@@23@@__Cr@std@@PEAX@__Cr@std@@@__Cr@std@@@12@@Z
    ??$?0AEAPEAV?$__tree_node@U?$__value_type@V?$basic_string@DU?$char_traits@D@__Cr@std@@V?$allocator@D@23@@__Cr@std@@V?$vector@PEBVCommandLineFlag@absl@@V?$allocator@PEBVCommandLineFlag@absl@@@__Cr@std@@@23@@__Cr@std@@PEAX@__Cr@std@@$0A@@?$__compressed_pair_elem@PEAV?$__tree_node@U?$__value_type@V?$basic_string@DU?$char_traits@D@__Cr@std@@V?$allocator@D@23@@__Cr@std@@V?$vector@PEBVCommandLineFlag@absl@@V?$allocator@PEBVCommandLineFlag@absl@@@__Cr@std@@@23@@__Cr@std@@PEAX@__Cr@std@@$0A@$0A@@__Cr@std@@QEAA@AEAPEAV?$__tree_node@U?$__value_type@V?$basic_string@DU?$char_traits@D@__Cr@std@@V?$allocator@D@23@@__Cr@std@@V?$vector@PEBVCommandLineFlag@absl@@V?$allocator@PEBVCommandLineFlag@absl@@@__Cr@std@@@23@@__Cr@std@@PEAX@12@@Z
    ??$?0AEAPEAV?$__tree_node@U?$__value_type@V?$basic_string@DU?$char_traits@D@__Cr@std@@V?$allocator@D@23@@__Cr@std@@V?$vector@PEBVCommandLineFlag@absl@@V?$allocator@PEBVCommandLineFlag@absl@@@__Cr@std@@@23@@__Cr@std@@PEAX@__Cr@std@@V?$__tree_node_destructor@V?$allocator@V?$__tree_node@U?$__value_type@V?$basic_string@DU?$char_traits@D@__Cr@std@@V?$allocator@D@23@@__Cr@std@@V?$vector@PEBVCommandLineFlag@absl@@V?$allocator@PEBVCommandLineFlag@absl@@@__Cr@std@@@23@@__Cr@std@@PEAX@__Cr@std@@@__Cr@std@@@12@@?$__compressed_pair@PEAV?$__tree_node@U?$__value_type@V?$basic_string@DU?$char_traits@D@__Cr@std@@V?$allocator@D@23@@__Cr@std@@V?$vector@PEBVCommandLineFlag@absl@@V?$allocator@PEBVCommandLineFlag@absl@@@__Cr@std@@@23@@__Cr@std@@PEAX@__Cr@std@@V?$__tree_node_destructor@V?$allocator@V?$__tree_node@U?$__value_type@V?$basic_string@DU?$char_traits@D@__Cr@std@@V?$allocator@D@23@@__Cr@std@@V?$vector@PEBVCommandLineFlag@absl@@V?$allocator@PEBVCommandLineFlag@absl@@@__Cr@std@@@23@@__Cr@std@@PEAX@__Cr@std@@@__Cr@std@@@23@@__Cr@std@@QEAA@AEAPEAV?$__tree_node@U?$__value_type@V?$basic_string@DU?$char_traits@D@__Cr@std@@V?$allocator@D@23@@__Cr@std@@V?$vector@PEBVCommandLineFlag@absl@@V?$allocator@PEBVCommandLineFlag@absl@@@__Cr@std@@@23@@__Cr@std@@PEAX@12@$$QEAV?$__tree_node_destructor@V?$allocator@V?$__tree_node@U?$__value_type@V?$basic_string@DU?$char_traits@D@__Cr@std@@V?$allocator@D@23@@__Cr@std@@V?$vector@PEBVCommandLineFlag@absl@@V?$allocator@PEBVCommandLineFlag@absl@@@__Cr@std@@@23@@__Cr@std@@PEAX@__Cr@std@@@__Cr@std@@@12@@Z
    ??$?0AEAPEAVCommandLineFlag@absl@@$0A@@?$__tuple_leaf@$0A@AEAPEAVCommandLineFlag@absl@@$0A@@__Cr@std@@QEAA@AEAPEAVCommandLineFlag@absl@@@Z
    ??$?0AEAPEAVCommandLineFlag@absl@@$0A@@?$__tuple_leaf@$0A@PEAVCommandLineFlag@absl@@$0A@@__Cr@std@@QEAA@AEAPEAVCommandLineFlag@absl@@@Z
    ??$?0AEAPEAVCommandLineFlag@absl@@AEA_N$0A@@?$tuple@PEAVCommandLineFlag@absl@@_N@__Cr@std@@QEAA@AEAPEAVCommandLineFlag@absl@@AEA_N@Z
    ??$?0AEAPEAVFallbackCrcMemcpyEngine@crc_internal@absl@@$0A@@?$__compressed_pair_elem@PEAVFallbackCrcMemcpyEngine@crc_internal@absl@@$0A@$0A@@__Cr@std@@QEAA@AEAPEAVFallbackCrcMemcpyEngine@crc_internal@absl@@@Z
    ??$?0AEAPEAVFallbackCrcMemcpyEngine@crc_internal@absl@@U__value_init_tag@__Cr@std@@@?$__compressed_pair@PEAVFallbackCrcMemcpyEngine@crc_internal@absl@@U?$default_delete@VFallbackCrcMemcpyEngine@crc_internal@absl@@@__Cr@std@@@__Cr@std@@QEAA@AEAPEAVFallbackCrcMemcpyEngine@crc_internal@absl@@$$QEAU__value_init_tag@12@@Z
    ??$?0AEAPEAVFlagState@flags_internal@absl@@$0A@@?$__compressed_pair_elem@PEAVFlagState@flags_internal@absl@@$0A@$0A@@__Cr@std@@QEAA@AEAPEAVFlagState@flags_internal@absl@@@Z
    ??$?0AEAPEAVFlagState@flags_internal@absl@@U__value_init_tag@__Cr@std@@@?$__compressed_pair@PEAVFlagState@flags_internal@absl@@U?$default_delete@VFlagState@flags_internal@absl@@@__Cr@std@@@__Cr@std@@QEAA@AEAPEAVFlagState@flags_internal@absl@@$$QEAU__value_init_tag@12@@Z
    ??$?0AEAPEAVTimeZoneInfo@cctz@time_internal@absl@@$0A@@?$__compressed_pair_elem@PEAVTimeZoneInfo@cctz@time_internal@absl@@$0A@$0A@@__Cr@std@@QEAA@AEAPEAVTimeZoneInfo@cctz@time_internal@absl@@@Z
    ??$?0AEAPEAVTimeZoneInfo@cctz@time_internal@absl@@U__value_init_tag@__Cr@std@@@?$__compressed_pair@PEAVTimeZoneInfo@cctz@time_internal@absl@@U?$default_delete@VTimeZoneInfo@cctz@time_internal@absl@@@__Cr@std@@@__Cr@std@@QEAA@AEAPEAVTimeZoneInfo@cctz@time_internal@absl@@$$QEAU__value_init_tag@12@@Z
    ??$?0AEAPEAVTimeZoneLibC@cctz@time_internal@absl@@$0A@@?$__compressed_pair_elem@PEAVTimeZoneLibC@cctz@time_internal@absl@@$0A@$0A@@__Cr@std@@QEAA@AEAPEAVTimeZoneLibC@cctz@time_internal@absl@@@Z
    ??$?0AEAPEAVTimeZoneLibC@cctz@time_internal@absl@@U__value_init_tag@__Cr@std@@@?$__compressed_pair@PEAVTimeZoneLibC@cctz@time_internal@absl@@U?$default_delete@VTimeZoneLibC@cctz@time_internal@absl@@@__Cr@std@@@__Cr@std@@QEAA@AEAPEAVTimeZoneLibC@cctz@time_internal@absl@@$$QEAU__value_init_tag@12@@Z
    ??$?0AEAPEAVZoneInfoSource@cctz@time_internal@absl@@$0A@@?$__compressed_pair_elem@PEAVZoneInfoSource@cctz@time_internal@absl@@$0A@$0A@@__Cr@std@@QEAA@AEAPEAVZoneInfoSource@cctz@time_internal@absl@@@Z
    ??$?0AEAPEAVZoneInfoSource@cctz@time_internal@absl@@U__value_init_tag@__Cr@std@@@?$__compressed_pair@PEAVZoneInfoSource@cctz@time_internal@absl@@U?$default_delete@VZoneInfoSource@cctz@time_internal@absl@@@__Cr@std@@@__Cr@std@@QEAA@AEAPEAVZoneInfoSource@cctz@time_internal@absl@@$$QEAU__value_init_tag@12@@Z
    ??$?0AEAPEAXUDynValueDeleter@flags_internal@absl@@@?$__compressed_pair@PEAXUDynValueDeleter@flags_internal@absl@@@__Cr@std@@QEAA@AEAPEAX$$QEAUDynValueDeleter@flags_internal@absl@@@Z
    ??$?0AEAPEBUPrefixCrc@CrcCordState@crc_internal@absl@@PEAU0123@$0A@@?$pair@PEBUPrefixCrc@CrcCordState@crc_internal@absl@@PEAU1234@@__Cr@std@@QEAA@AEAPEBUPrefixCrc@CrcCordState@crc_internal@absl@@$$QEAPEAU3456@@Z
    ??$?0AEAPEBVImpl@time_zone@cctz@time_internal@absl@@$0A@@?$__compressed_pair_elem@PEBVImpl@time_zone@cctz@time_internal@absl@@$0A@$0A@@__Cr@std@@QEAA@AEAPEBVImpl@time_zone@cctz@time_internal@absl@@@Z
    ??$?0AEAPEBVImpl@time_zone@cctz@time_internal@absl@@U__value_init_tag@__Cr@std@@@?$__compressed_pair@PEBVImpl@time_zone@cctz@time_internal@absl@@U?$default_delete@$$CBVImpl@time_zone@cctz@time_internal@absl@@@__Cr@std@@@__Cr@std@@QEAA@AEAPEBVImpl@time_zone@cctz@time_internal@absl@@$$QEAU__value_init_tag@12@@Z
    ??$?0AEAU?$Hash@C@hash_internal@absl@@@?$Storage@U?$Hash@C@hash_internal@absl@@$00$00@internal_compressed_tuple@container_internal@absl@@QEAA@Uin_place_t@__Cr@std@@AEAU?$Hash@C@hash_internal@3@@Z
    ??$?0AEAU?$Hash@E@hash_internal@absl@@@?$Storage@U?$Hash@E@hash_internal@absl@@$00$00@internal_compressed_tuple@container_internal@absl@@QEAA@Uin_place_t@__Cr@std@@AEAU?$Hash@E@hash_internal@3@@Z
    ??$?0AEAU?$Hash@F@hash_internal@absl@@@?$Storage@U?$Hash@F@hash_internal@absl@@$00$00@internal_compressed_tuple@container_internal@absl@@QEAA@Uin_place_t@__Cr@std@@AEAU?$Hash@F@hash_internal@3@@Z
    ??$?0AEAU?$Hash@G@hash_internal@absl@@@?$Storage@U?$Hash@G@hash_internal@absl@@$00$00@internal_compressed_tuple@container_internal@absl@@QEAA@Uin_place_t@__Cr@std@@AEAU?$Hash@G@hash_internal@3@@Z
    ??$?0AEAU?$Hash@H@hash_internal@absl@@@?$Storage@U?$Hash@H@hash_internal@absl@@$00$00@internal_compressed_tuple@container_internal@absl@@QEAA@Uin_place_t@__Cr@std@@AEAU?$Hash@H@hash_internal@3@@Z
    ??$?0AEAU?$Hash@I@hash_internal@absl@@@?$Storage@U?$Hash@I@hash_internal@absl@@$00$00@internal_compressed_tuple@container_internal@absl@@QEAA@Uin_place_t@__Cr@std@@AEAU?$Hash@I@hash_internal@3@@Z
    ??$?0AEAU?$Hash@_J@hash_internal@absl@@@?$Storage@U?$Hash@_J@hash_internal@absl@@$00$00@internal_compressed_tuple@container_internal@absl@@QEAA@Uin_place_t@__Cr@std@@AEAU?$Hash@_J@hash_internal@3@@Z
    ??$?0AEAU?$Hash@_K@hash_internal@absl@@@?$Storage@U?$Hash@_K@hash_internal@absl@@$00$00@internal_compressed_tuple@container_internal@absl@@QEAA@Uin_place_t@__Cr@std@@AEAU?$Hash@_K@hash_internal@3@@Z
    ??$?0AEAU?$equal_to@C@__Cr@std@@@?$Storage@U?$equal_to@C@__Cr@std@@$01$00@internal_compressed_tuple@container_internal@absl@@QEAA@Uin_place_t@__Cr@std@@AEAU?$equal_to@C@56@@Z
    ??$?0AEAU?$equal_to@E@__Cr@std@@@?$Storage@U?$equal_to@E@__Cr@std@@$01$00@internal_compressed_tuple@container_internal@absl@@QEAA@Uin_place_t@__Cr@std@@AEAU?$equal_to@E@56@@Z
    ??$?0AEAU?$equal_to@F@__Cr@std@@@?$Storage@U?$equal_to@F@__Cr@std@@$01$00@internal_compressed_tuple@container_internal@absl@@QEAA@Uin_place_t@__Cr@std@@AEAU?$equal_to@F@56@@Z
    ??$?0AEAU?$equal_to@G@__Cr@std@@@?$Storage@U?$equal_to@G@__Cr@std@@$01$00@internal_compressed_tuple@container_internal@absl@@QEAA@Uin_place_t@__Cr@std@@AEAU?$equal_to@G@56@@Z
    ??$?0AEAU?$equal_to@H@__Cr@std@@@?$Storage@U?$equal_to@H@__Cr@std@@$01$00@internal_compressed_tuple@container_internal@absl@@QEAA@Uin_place_t@__Cr@std@@AEAU?$equal_to@H@56@@Z
    ??$?0AEAU?$equal_to@I@__Cr@std@@@?$Storage@U?$equal_to@I@__Cr@std@@$01$00@internal_compressed_tuple@container_internal@absl@@QEAA@Uin_place_t@__Cr@std@@AEAU?$equal_to@I@56@@Z
    ??$?0AEAU?$equal_to@_J@__Cr@std@@@?$Storage@U?$equal_to@_J@__Cr@std@@$01$00@internal_compressed_tuple@container_internal@absl@@QEAA@Uin_place_t@__Cr@std@@AEAU?$equal_to@_J@56@@Z
    ??$?0AEAU?$equal_to@_K@__Cr@std@@@?$Storage@U?$equal_to@_K@__Cr@std@@$01$00@internal_compressed_tuple@container_internal@absl@@QEAA@Uin_place_t@__Cr@std@@AEAU?$equal_to@_K@56@@Z
    ??$?0AEAUStringEq@container_internal@absl@@@?$Storage@UStringEq@container_internal@absl@@$01$00@internal_compressed_tuple@container_internal@absl@@QEAA@Uin_place_t@__Cr@std@@AEAUStringEq@23@@Z
    ??$?0AEAUStringHash@container_internal@absl@@@?$Storage@UStringHash@container_internal@absl@@$00$00@internal_compressed_tuple@container_internal@absl@@QEAA@Uin_place_t@__Cr@std@@AEAUStringHash@23@@Z
    ??$?0AEAV?$__deque_iterator@UPrefixCrc@CrcCordState@crc_internal@absl@@PEBU1234@AEBU1234@PEBQEBU1234@_J$0A@@__Cr@std@@V?$__deque_iterator@UPrefixCrc@CrcCordState@crc_internal@absl@@PEAU1234@AEAU1234@PEAPEAU1234@_J$0A@@12@$0A@@?$pair@V?$__deque_iterator@UPrefixCrc@CrcCordState@crc_internal@absl@@PEBU1234@AEBU1234@PEBQEBU1234@_J$0A@@__Cr@std@@V?$__deque_iterator@UPrefixCrc@CrcCordState@crc_internal@absl@@PEAU1234@AEAU1234@PEAPEAU1234@_J$0A@@23@@__Cr@std@@QEAA@AEAV?$__deque_iterator@UPrefixCrc@CrcCordState@crc_internal@absl@@PEBU1234@AEBU1234@PEBQEBU1234@_J$0A@@12@$$QEAV?$__deque_iterator@UPrefixCrc@CrcCordState@crc_internal@absl@@PEAU1234@AEAU1234@PEAPEAU1234@_J$0A@@12@@Z
    ??$?0AEAV?$allocator@C@__Cr@std@@@?$Storage@V?$allocator@C@__Cr@std@@$02$00@internal_compressed_tuple@container_internal@absl@@QEAA@Uin_place_t@__Cr@std@@AEAV?$allocator@C@56@@Z
    ??$?0AEAV?$allocator@E@__Cr@std@@@?$Storage@V?$allocator@E@__Cr@std@@$02$00@internal_compressed_tuple@container_internal@absl@@QEAA@Uin_place_t@__Cr@std@@AEAV?$allocator@E@56@@Z
    ??$?0AEAV?$allocator@F@__Cr@std@@@?$Storage@V?$allocator@F@__Cr@std@@$02$00@internal_compressed_tuple@container_internal@absl@@QEAA@Uin_place_t@__Cr@std@@AEAV?$allocator@F@56@@Z
    ??$?0AEAV?$allocator@G@__Cr@std@@@?$Storage@V?$allocator@G@__Cr@std@@$02$00@internal_compressed_tuple@container_internal@absl@@QEAA@Uin_place_t@__Cr@std@@AEAV?$allocator@G@56@@Z
    ??$?0AEAV?$allocator@H@__Cr@std@@@?$Storage@V?$allocator@H@__Cr@std@@$02$00@internal_compressed_tuple@container_internal@absl@@QEAA@Uin_place_t@__Cr@std@@AEAV?$allocator@H@56@@Z
    ??$?0AEAV?$allocator@I@__Cr@std@@@?$Storage@V?$allocator@I@__Cr@std@@$02$00@internal_compressed_tuple@container_internal@absl@@QEAA@Uin_place_t@__Cr@std@@AEAV?$allocator@I@56@@Z
    ??$?0AEAV?$allocator@PEAPEBVImpl@time_zone@cctz@time_internal@absl@@@__Cr@std@@$0A@@?$__compressed_pair_elem@AEAV?$allocator@PEAPEBVImpl@time_zone@cctz@time_internal@absl@@@__Cr@std@@$00$0A@@__Cr@std@@QEAA@AEAV?$allocator@PEAPEBVImpl@time_zone@cctz@time_internal@absl@@@12@@Z
    ??$?0AEAV?$allocator@PEAUCordRep@cord_internal@absl@@@__Cr@std@@$$T$00@?$CompressedTuple@V?$allocator@PEAUCordRep@cord_internal@absl@@@__Cr@std@@PEAPEAUCordRep@cord_internal@absl@@@container_internal@absl@@QEAA@AEAV?$allocator@PEAUCordRep@cord_internal@absl@@@__Cr@std@@$$QEA$$T@Z
    ??$?0AEAV?$allocator@PEAUCordRep@cord_internal@absl@@@__Cr@std@@$$T@?$CompressedTupleImpl@V?$CompressedTuple@V?$allocator@PEAUCordRep@cord_internal@absl@@@__Cr@std@@PEAPEAUCordRep@cord_internal@absl@@@container_internal@absl@@U?$integer_sequence@_K$0A@$00@__Cr@std@@$00@internal_compressed_tuple@container_internal@absl@@QEAA@Uin_place_t@__Cr@std@@AEAV?$allocator@PEAUCordRep@cord_internal@absl@@@56@$$QEA$$T@Z
    ??$?0AEAV?$allocator@PEAUCordRep@cord_internal@absl@@@__Cr@std@@@?$Storage@V?$allocator@PEAUCordRep@cord_internal@absl@@@__Cr@std@@$0A@$00@internal_compressed_tuple@container_internal@absl@@QEAA@Uin_place_t@__Cr@std@@AEAV?$allocator@PEAUCordRep@cord_internal@absl@@@56@@Z
    ??$?0AEAV?$allocator@PEAUPrefixCrc@CrcCordState@crc_internal@absl@@@__Cr@std@@$0A@@?$__compressed_pair_elem@AEAV?$allocator@PEAUPrefixCrc@CrcCordState@crc_internal@absl@@@__Cr@std@@$00$0A@@__Cr@std@@QEAA@AEAV?$allocator@PEAUPrefixCrc@CrcCordState@crc_internal@absl@@@12@@Z
    ??$?0AEAV?$allocator@PEAVCommandLineFlag@absl@@@__Cr@std@@$0A@@?$__compressed_pair_elem@AEAV?$allocator@PEAVCommandLineFlag@absl@@@__Cr@std@@$00$0A@@__Cr@std@@QEAA@AEAV?$allocator@PEAVCommandLineFlag@absl@@@12@@Z
    ??$?0AEAV?$allocator@PEAVCordzHandle@cord_internal@absl@@@__Cr@std@@$0A@@?$__compressed_pair_elem@AEAV?$allocator@PEAVCordzHandle@cord_internal@absl@@@__Cr@std@@$00$0A@@__Cr@std@@QEAA@AEAV?$allocator@PEAVCordzHandle@cord_internal@absl@@@12@@Z
    ??$?0AEAV?$allocator@PEAVLogSink@absl@@@__Cr@std@@$$T$00@?$CompressedTuple@V?$allocator@PEAVLogSink@absl@@@__Cr@std@@PEAPEAVLogSink@absl@@@container_internal@absl@@QEAA@AEAV?$allocator@PEAVLogSink@absl@@@__Cr@std@@$$QEA$$T@Z
    ??$?0AEAV?$allocator@PEAVLogSink@absl@@@__Cr@std@@$$T@?$CompressedTupleImpl@V?$CompressedTuple@V?$allocator@PEAVLogSink@absl@@@__Cr@std@@PEAPEAVLogSink@absl@@@container_internal@absl@@U?$integer_sequence@_K$0A@$00@__Cr@std@@$00@internal_compressed_tuple@container_internal@absl@@QEAA@Uin_place_t@__Cr@std@@AEAV?$allocator@PEAVLogSink@absl@@@56@$$QEA$$T@Z
    ??$?0AEAV?$allocator@PEAVLogSink@absl@@@__Cr@std@@$0A@@?$__compressed_pair_elem@AEAV?$allocator@PEAVLogSink@absl@@@__Cr@std@@$00$0A@@__Cr@std@@QEAA@AEAV?$allocator@PEAVLogSink@absl@@@12@@Z
    ??$?0AEAV?$allocator@PEAVLogSink@absl@@@__Cr@std@@@?$Storage@V?$allocator@PEAVLogSink@absl@@@__Cr@std@@$0A@$00@internal_compressed_tuple@container_internal@absl@@QEAA@Uin_place_t@__Cr@std@@AEAV?$allocator@PEAVLogSink@absl@@@56@@Z
    ??$?0AEAV?$allocator@PEBVCommandLineFlag@absl@@@__Cr@std@@$0A@@?$__compressed_pair_elem@AEAV?$allocator@PEBVCommandLineFlag@absl@@@__Cr@std@@$00$0A@@__Cr@std@@QEAA@AEAV?$allocator@PEBVCommandLineFlag@absl@@@12@@Z
    ??$?0AEAV?$allocator@PEBVCordzHandle@cord_internal@absl@@@__Cr@std@@$0A@@?$__compressed_pair_elem@AEAV?$allocator@PEBVCordzHandle@cord_internal@absl@@@__Cr@std@@$00$0A@@__Cr@std@@QEAA@AEAV?$allocator@PEBVCordzHandle@cord_internal@absl@@@12@@Z
    ??$?0AEAV?$allocator@U?$pair@$$CBHH@__Cr@std@@@__Cr@std@@@?$Storage@V?$allocator@U?$pair@$$CBHH@__Cr@std@@@__Cr@std@@$02$00@internal_compressed_tuple@container_internal@absl@@QEAA@Uin_place_t@__Cr@std@@AEAV?$allocator@U?$pair@$$CBHH@__Cr@std@@@56@@Z
    ??$?0AEAV?$allocator@U?$pair@$$CBHV?$basic_string@DU?$char_traits@D@__Cr@std@@V?$allocator@D@23@@__Cr@std@@@__Cr@std@@@__Cr@std@@@?$Storage@V?$allocator@U?$pair@$$CBHV?$basic_string@DU?$char_traits@D@__Cr@std@@V?$allocator@D@23@@__Cr@std@@@__Cr@std@@@__Cr@std@@$02$00@internal_compressed_tuple@container_internal@absl@@QEAA@Uin_place_t@__Cr@std@@AEAV?$allocator@U?$pair@$$CBHV?$basic_string@DU?$char_traits@D@__Cr@std@@V?$allocator@D@23@@__Cr@std@@@__Cr@std@@@56@@Z
    ??$?0AEAV?$allocator@U?$pair@$$CBII@__Cr@std@@@__Cr@std@@@?$Storage@V?$allocator@U?$pair@$$CBII@__Cr@std@@@__Cr@std@@$02$00@internal_compressed_tuple@container_internal@absl@@QEAA@Uin_place_t@__Cr@std@@AEAV?$allocator@U?$pair@$$CBII@__Cr@std@@@56@@Z
    ??$?0AEAV?$allocator@U?$pair@$$CBIV?$basic_string@DU?$char_traits@D@__Cr@std@@V?$allocator@D@23@@__Cr@std@@@__Cr@std@@@__Cr@std@@@?$Storage@V?$allocator@U?$pair@$$CBIV?$basic_string@DU?$char_traits@D@__Cr@std@@V?$allocator@D@23@@__Cr@std@@@__Cr@std@@@__Cr@std@@$02$00@internal_compressed_tuple@container_internal@absl@@QEAA@Uin_place_t@__Cr@std@@AEAV?$allocator@U?$pair@$$CBIV?$basic_string@DU?$char_traits@D@__Cr@std@@V?$allocator@D@23@@__Cr@std@@@__Cr@std@@@56@@Z
    ??$?0AEAV?$allocator@U?$pair@$$CBV?$basic_string@DU?$char_traits@D@__Cr@std@@V?$allocator@D@23@@__Cr@std@@H@__Cr@std@@@__Cr@std@@@?$Storage@V?$allocator@U?$pair@$$CBV?$basic_string@DU?$char_traits@D@__Cr@std@@V?$allocator@D@23@@__Cr@std@@H@__Cr@std@@@__Cr@std@@$02$00@internal_compressed_tuple@container_internal@absl@@QEAA@Uin_place_t@__Cr@std@@AEAV?$allocator@U?$pair@$$CBV?$basic_string@DU?$char_traits@D@__Cr@std@@V?$allocator@D@23@@__Cr@std@@H@__Cr@std@@@56@@Z
    ??$?0AEAV?$allocator@U?$pair@$$CBV?$basic_string@DU?$char_traits@D@__Cr@std@@V?$allocator@D@23@@__Cr@std@@I@__Cr@std@@@__Cr@std@@@?$Storage@V?$allocator@U?$pair@$$CBV?$basic_string@DU?$char_traits@D@__Cr@std@@V?$allocator@D@23@@__Cr@std@@I@__Cr@std@@@__Cr@std@@$02$00@internal_compressed_tuple@container_internal@absl@@QEAA@Uin_place_t@__Cr@std@@AEAV?$allocator@U?$pair@$$CBV?$basic_string@DU?$char_traits@D@__Cr@std@@V?$allocator@D@23@@__Cr@std@@I@__Cr@std@@@56@@Z
    ??$?0AEAV?$allocator@U?$pair@$$CBV?$basic_string@DU?$char_traits@D@__Cr@std@@V?$allocator@D@23@@__Cr@std@@V123@@__Cr@std@@@__Cr@std@@@?$Storage@V?$allocator@U?$pair@$$CBV?$basic_string@DU?$char_traits@D@__Cr@std@@V?$allocator@D@23@@__Cr@std@@V123@@__Cr@std@@@__Cr@std@@$02$00@internal_compressed_tuple@container_internal@absl@@QEAA@Uin_place_t@__Cr@std@@AEAV?$allocator@U?$pair@$$CBV?$basic_string@DU?$char_traits@D@__Cr@std@@V?$allocator@D@23@@__Cr@std@@V123@@__Cr@std@@@56@@Z
    ??$?0AEAV?$allocator@U?$pair@$$CBV?$basic_string@DU?$char_traits@D@__Cr@std@@V?$allocator@D@23@@__Cr@std@@_J@__Cr@std@@@__Cr@std@@@?$Storage@V?$allocator@U?$pair@$$CBV?$basic_string@DU?$char_traits@D@__Cr@std@@V?$allocator@D@23@@__Cr@std@@_J@__Cr@std@@@__Cr@std@@$02$00@internal_compressed_tuple@container_internal@absl@@QEAA@Uin_place_t@__Cr@std@@AEAV?$allocator@U?$pair@$$CBV?$basic_string@DU?$char_traits@D@__Cr@std@@V?$allocator@D@23@@__Cr@std@@_J@__Cr@std@@@56@@Z
    ??$?0AEAV?$allocator@U?$pair@$$CBV?$basic_string@DU?$char_traits@D@__Cr@std@@V?$allocator@D@23@@__Cr@std@@_K@__Cr@std@@@__Cr@std@@@?$Storage@V?$allocator@U?$pair@$$CBV?$basic_string@DU?$char_traits@D@__Cr@std@@V?$allocator@D@23@@__Cr@std@@_K@__Cr@std@@@__Cr@std@@$02$00@internal_compressed_tuple@container_internal@absl@@QEAA@Uin_place_t@__Cr@std@@AEAV?$allocator@U?$pair@$$CBV?$basic_string@DU?$char_traits@D@__Cr@std@@V?$allocator@D@23@@__Cr@std@@_K@__Cr@std@@@56@@Z
    ??$?0AEAV?$allocator@U?$pair@$$CB_JV?$basic_string@DU?$char_traits@D@__Cr@std@@V?$allocator@D@23@@__Cr@std@@@__Cr@std@@@__Cr@std@@@?$Storage@V?$allocator@U?$pair@$$CB_JV?$basic_string@DU?$char_traits@D@__Cr@std@@V?$allocator@D@23@@__Cr@std@@@__Cr@std@@@__Cr@std@@$02$00@internal_compressed_tuple@container_internal@absl@@QEAA@Uin_place_t@__Cr@std@@AEAV?$allocator@U?$pair@$$CB_JV?$basic_string@DU?$char_traits@D@__Cr@std@@V?$allocator@D@23@@__Cr@std@@@__Cr@std@@@56@@Z
    ??$?0AEAV?$allocator@U?$pair@$$CB_J_J@__Cr@std@@@__Cr@std@@@?$Storage@V?$allocator@U?$pair@$$CB_J_J@__Cr@std@@@__Cr@std@@$02$00@internal_compressed_tuple@container_internal@absl@@QEAA@Uin_place_t@__Cr@std@@AEAV?$allocator@U?$pair@$$CB_J_J@__Cr@std@@@56@@Z
    ??$?0AEAV?$allocator@U?$pair@$$CB_KV?$basic_string@DU?$char_traits@D@__Cr@std@@V?$allocator@D@23@@__Cr@std@@@__Cr@std@@@__Cr@std@@@?$Storage@V?$allocator@U?$pair@$$CB_KV?$basic_string@DU?$char_traits@D@__Cr@std@@V?$allocator@D@23@@__Cr@std@@@__Cr@std@@@__Cr@std@@$02$00@internal_compressed_tuple@container_internal@absl@@QEAA@Uin_place_t@__Cr@std@@AEAV?$allocator@U?$pair@$$CB_KV?$basic_string@DU?$char_traits@D@__Cr@std@@V?$allocator@D@23@@__Cr@std@@@__Cr@std@@@56@@Z
    ??$?0AEAV?$allocator@U?$pair@$$CB_K_K@__Cr@std@@@__Cr@std@@@?$Storage@V?$allocator@U?$pair@$$CB_K_K@__Cr@std@@@__Cr@std@@$02$00@internal_compressed_tuple@container_internal@absl@@QEAA@Uin_place_t@__Cr@std@@AEAV?$allocator@U?$pair@$$CB_K_K@__Cr@std@@@56@@Z
    ??$?0AEAV?$allocator@UConversionItem@ParsedFormatBase@str_format_internal@absl@@@__Cr@std@@$0A@@?$__compressed_pair_elem@AEAV?$allocator@UConversionItem@ParsedFormatBase@str_format_internal@absl@@@__Cr@std@@$00$0A@@__Cr@std@@QEAA@AEAV?$allocator@UConversionItem@ParsedFormatBase@str_format_internal@absl@@@12@@Z
    ??$?0AEAV?$allocator@UPayload@status_internal@absl@@@__Cr@std@@$$T$00@?$CompressedTuple@V?$allocator@UPayload@status_internal@absl@@@__Cr@std@@PEAUPayload@status_internal@absl@@@container_internal@absl@@QEAA@AEAV?$allocator@UPayload@status_internal@absl@@@__Cr@std@@$$QEA$$T@Z
    ??$?0AEAV?$allocator@UPayload@status_internal@absl@@@__Cr@std@@$$T@?$CompressedTupleImpl@V?$CompressedTuple@V?$allocator@UPayload@status_internal@absl@@@__Cr@std@@PEAUPayload@status_internal@absl@@@container_internal@absl@@U?$integer_sequence@_K$0A@$00@__Cr@std@@$00@internal_compressed_tuple@container_internal@absl@@QEAA@Uin_place_t@__Cr@std@@AEAV?$allocator@UPayload@status_internal@absl@@@56@$$QEA$$T@Z
    ??$?0AEAV?$allocator@UPayload@status_internal@absl@@@__Cr@std@@@?$Storage@V?$allocator@UPayload@status_internal@absl@@@__Cr@std@@$0A@$00@internal_compressed_tuple@container_internal@absl@@QEAA@Uin_place_t@__Cr@std@@AEAV?$allocator@UPayload@status_internal@absl@@@56@@Z
    ??$?0AEAV?$allocator@UTransition@cctz@time_internal@absl@@@__Cr@std@@$0A@@?$__compressed_pair_elem@AEAV?$allocator@UTransition@cctz@time_internal@absl@@@__Cr@std@@$00$0A@@__Cr@std@@QEAA@AEAV?$allocator@UTransition@cctz@time_internal@absl@@@12@@Z
    ??$?0AEAV?$allocator@UTransitionType@cctz@time_internal@absl@@@__Cr@std@@$0A@@?$__compressed_pair_elem@AEAV?$allocator@UTransitionType@cctz@time_internal@absl@@@__Cr@std@@$00$0A@@__Cr@std@@QEAA@AEAV?$allocator@UTransitionType@cctz@time_internal@absl@@@12@@Z
    ??$?0AEAV?$allocator@UUnrecognizedFlag@absl@@@__Cr@std@@$0A@@?$__compressed_pair_elem@AEAV?$allocator@UUnrecognizedFlag@absl@@@__Cr@std@@$00$0A@@__Cr@std@@QEAA@AEAV?$allocator@UUnrecognizedFlag@absl@@@12@@Z
    ??$?0AEAV?$allocator@UViableSubstitution@strings_internal@absl@@@__Cr@std@@$0A@@?$__compressed_pair_elem@AEAV?$allocator@UViableSubstitution@strings_internal@absl@@@__Cr@std@@$00$0A@@__Cr@std@@QEAA@AEAV?$allocator@UViableSubstitution@strings_internal@absl@@@12@@Z
    ??$?0AEAV?$allocator@V?$basic_string@DU?$char_traits@D@__Cr@std@@V?$allocator@D@23@@__Cr@std@@@__Cr@std@@@?$Storage@V?$allocator@V?$basic_string@DU?$char_traits@D@__Cr@std@@V?$allocator@D@23@@__Cr@std@@@__Cr@std@@$02$00@internal_compressed_tuple@container_internal@absl@@QEAA@Uin_place_t@__Cr@std@@AEAV?$allocator@V?$basic_string@DU?$char_traits@D@__Cr@std@@V?$allocator@D@23@@__Cr@std@@@56@@Z
    ??$?0AEAV?$allocator@V?$unique_ptr@VFlagStateInterface@flags_internal@absl@@U?$default_delete@VFlagStateInterface@flags_internal@absl@@@__Cr@std@@@__Cr@std@@@__Cr@std@@$0A@@?$__compressed_pair_elem@AEAV?$allocator@V?$unique_ptr@VFlagStateInterface@flags_internal@absl@@U?$default_delete@VFlagStateInterface@flags_internal@absl@@@__Cr@std@@@__Cr@std@@@__Cr@std@@$00$0A@@__Cr@std@@QEAA@AEAV?$allocator@V?$unique_ptr@VFlagStateInterface@flags_internal@absl@@U?$default_delete@VFlagStateInterface@flags_internal@absl@@@__Cr@std@@@__Cr@std@@@12@@Z
    ??$?0AEAV?$allocator@_J@__Cr@std@@@?$Storage@V?$allocator@_J@__Cr@std@@$02$00@internal_compressed_tuple@container_internal@absl@@QEAA@Uin_place_t@__Cr@std@@AEAV?$allocator@_J@56@@Z
    ??$?0AEAV?$allocator@_K@__Cr@std@@@?$Storage@V?$allocator@_K@__Cr@std@@$02$00@internal_compressed_tuple@container_internal@absl@@QEAA@Uin_place_t@__Cr@std@@AEAV?$allocator@_K@56@@Z
    ??$?0AEAVCord@absl@@$0A@@?$optional@VCord@absl@@@__Cr@std@@QEAA@AEAVCord@absl@@@Z
    ??$?0AEAVCord@absl@@@?$__optional_destruct_base@VCord@absl@@$0A@@__Cr@std@@QEAA@Uin_place_t@12@AEAVCord@absl@@@Z
    ??$?0AEAY0BM@$$CBD$0A@@?$NoDestructor@V?$basic_string@DU?$char_traits@D@__Cr@std@@V?$allocator@D@23@@__Cr@std@@@absl@@QEAA@AEAY0BM@$$CBD@Z
    ??$?0AEAY0BM@$$CBD@PlacementImpl@?$NoDestructor@V?$basic_string@DU?$char_traits@D@__Cr@std@@V?$allocator@D@23@@__Cr@std@@@absl@@QEAA@AEAY0BM@$$CBD@Z
    ??$?0AEA_K@?$Storage@_K$0A@$0A@@internal_compressed_tuple@container_internal@absl@@QEAA@Uin_place_t@__Cr@std@@AEA_K@Z
    ??$?0AEA_KAEBV?$allocator@D@__Cr@std@@$00@?$CompressedTuple@_KV?$allocator@D@__Cr@std@@@container_internal@absl@@QEAA@AEA_KAEBV?$allocator@D@__Cr@std@@@Z
    ??$?0AEA_KAEBV?$allocator@D@__Cr@std@@@?$CompressedTupleImpl@V?$CompressedTuple@_KV?$allocator@D@__Cr@std@@@container_internal@absl@@U?$integer_sequence@_K$0A@$00@__Cr@std@@$00@internal_compressed_tuple@container_internal@absl@@QEAA@Uin_place_t@__Cr@std@@AEA_KAEBV?$allocator@D@56@@Z
    ??$?0AEBQEAVCommandLineFlag@absl@@$0A@@?$__tuple_leaf@$0A@AEBQEAVCommandLineFlag@absl@@$0A@@__Cr@std@@QEAA@AEBQEAVCommandLineFlag@absl@@@Z
    ??$?0AEBU?$Hash@C@hash_internal@absl@@@?$Storage@U?$Hash@C@hash_internal@absl@@$00$00@internal_compressed_tuple@container_internal@absl@@QEAA@Uin_place_t@__Cr@std@@AEBU?$Hash@C@hash_internal@3@@Z
    ??$?0AEBU?$Hash@E@hash_internal@absl@@@?$Storage@U?$Hash@E@hash_internal@absl@@$00$00@internal_compressed_tuple@container_internal@absl@@QEAA@Uin_place_t@__Cr@std@@AEBU?$Hash@E@hash_internal@3@@Z
    ??$?0AEBU?$Hash@F@hash_internal@absl@@@?$Storage@U?$Hash@F@hash_internal@absl@@$00$00@internal_compressed_tuple@container_internal@absl@@QEAA@Uin_place_t@__Cr@std@@AEBU?$Hash@F@hash_internal@3@@Z
    ??$?0AEBU?$Hash@G@hash_internal@absl@@@?$Storage@U?$Hash@G@hash_internal@absl@@$00$00@internal_compressed_tuple@container_internal@absl@@QEAA@Uin_place_t@__Cr@std@@AEBU?$Hash@G@hash_internal@3@@Z
    ??$?0AEBU?$Hash@H@hash_internal@absl@@@?$Storage@U?$Hash@H@hash_internal@absl@@$00$00@internal_compressed_tuple@container_internal@absl@@QEAA@Uin_place_t@__Cr@std@@AEBU?$Hash@H@hash_internal@3@@Z
    ??$?0AEBU?$Hash@I@hash_internal@absl@@@?$Storage@U?$Hash@I@hash_internal@absl@@$00$00@internal_compressed_tuple@container_internal@absl@@QEAA@Uin_place_t@__Cr@std@@AEBU?$Hash@I@hash_internal@3@@Z
    ??$?0AEBU?$Hash@_J@hash_internal@absl@@@?$Storage@U?$Hash@_J@hash_internal@absl@@$00$00@internal_compressed_tuple@container_internal@absl@@QEAA@Uin_place_t@__Cr@std@@AEBU?$Hash@_J@hash_internal@3@@Z
    ??$?0AEBU?$Hash@_K@hash_internal@absl@@@?$Storage@U?$Hash@_K@hash_internal@absl@@$00$00@internal_compressed_tuple@container_internal@absl@@QEAA@Uin_place_t@__Cr@std@@AEBU?$Hash@_K@hash_internal@3@@Z
    ??$?0AEBU?$equal_to@C@__Cr@std@@@?$Storage@U?$equal_to@C@__Cr@std@@$01$00@internal_compressed_tuple@container_internal@absl@@QEAA@Uin_place_t@__Cr@std@@AEBU?$equal_to@C@56@@Z
    ??$?0AEBU?$equal_to@E@__Cr@std@@@?$Storage@U?$equal_to@E@__Cr@std@@$01$00@internal_compressed_tuple@container_internal@absl@@QEAA@Uin_place_t@__Cr@std@@AEBU?$equal_to@E@56@@Z
    ??$?0AEBU?$equal_to@F@__Cr@std@@@?$Storage@U?$equal_to@F@__Cr@std@@$01$00@internal_compressed_tuple@container_internal@absl@@QEAA@Uin_place_t@__Cr@std@@AEBU?$equal_to@F@56@@Z
    ??$?0AEBU?$equal_to@G@__Cr@std@@@?$Storage@U?$equal_to@G@__Cr@std@@$01$00@internal_compressed_tuple@container_internal@absl@@QEAA@Uin_place_t@__Cr@std@@AEBU?$equal_to@G@56@@Z
    ??$?0AEBU?$equal_to@H@__Cr@std@@@?$Storage@U?$equal_to@H@__Cr@std@@$01$00@internal_compressed_tuple@container_internal@absl@@QEAA@Uin_place_t@__Cr@std@@AEBU?$equal_to@H@56@@Z
    ??$?0AEBU?$equal_to@I@__Cr@std@@@?$Storage@U?$equal_to@I@__Cr@std@@$01$00@internal_compressed_tuple@container_internal@absl@@QEAA@Uin_place_t@__Cr@std@@AEBU?$equal_to@I@56@@Z
    ??$?0AEBU?$equal_to@_J@__Cr@std@@@?$Storage@U?$equal_to@_J@__Cr@std@@$01$00@internal_compressed_tuple@container_internal@absl@@QEAA@Uin_place_t@__Cr@std@@AEBU?$equal_to@_J@56@@Z
    ??$?0AEBU?$equal_to@_K@__Cr@std@@@?$Storage@U?$equal_to@_K@__Cr@std@@$01$00@internal_compressed_tuple@container_internal@absl@@QEAA@Uin_place_t@__Cr@std@@AEBU?$equal_to@_K@56@@Z
    ??$?0AEBUStringEq@container_internal@absl@@@?$Storage@UStringEq@container_internal@absl@@$01$00@internal_compressed_tuple@container_internal@absl@@QEAA@Uin_place_t@__Cr@std@@AEBUStringEq@23@@Z
    ??$?0AEBUStringHash@container_internal@absl@@@?$Storage@UStringHash@container_internal@absl@@$00$00@internal_compressed_tuple@container_internal@absl@@QEAA@Uin_place_t@__Cr@std@@AEBUStringHash@23@@Z
    ??$?0AEBV?$__map_value_compare@V?$basic_string@DU?$char_traits@D@__Cr@std@@V?$allocator@D@23@@__Cr@std@@U?$__value_type@V?$basic_string@DU?$char_traits@D@__Cr@std@@V?$allocator@D@23@@__Cr@std@@V?$map@V?$basic_string@DU?$char_traits@D@__Cr@std@@V?$allocator@D@23@@__Cr@std@@V?$vector@PEBVCommandLineFlag@absl@@V?$allocator@PEBVCommandLineFlag@absl@@@__Cr@std@@@23@U?$less@V?$basic_string@DU?$char_traits@D@__Cr@std@@V?$allocator@D@23@@__Cr@std@@@23@V?$allocator@U?$pair@$$CBV?$basic_string@DU?$char_traits@D@__Cr@std@@V?$allocator@D@23@@__Cr@std@@V?$vector@PEBVCommandLineFlag@absl@@V?$allocator@PEBVCommandLineFlag@absl@@@__Cr@std@@@23@@__Cr@std@@@23@@23@@23@U?$less@V?$basic_string@DU?$char_traits@D@__Cr@std@@V?$allocator@D@23@@__Cr@std@@@23@$00@__Cr@std@@$0A@@?$__compressed_pair_elem@V?$__map_value_compare@V?$basic_string@DU?$char_traits@D@__Cr@std@@V?$allocator@D@23@@__Cr@std@@U?$__value_type@V?$basic_string@DU?$char_traits@D@__Cr@std@@V?$allocator@D@23@@__Cr@std@@V?$map@V?$basic_string@DU?$char_traits@D@__Cr@std@@V?$allocator@D@23@@__Cr@std@@V?$vector@PEBVCommandLineFlag@absl@@V?$allocator@PEBVCommandLineFlag@absl@@@__Cr@std@@@23@U?$less@V?$basic_string@DU?$char_traits@D@__Cr@std@@V?$allocator@D@23@@__Cr@std@@@23@V?$allocator@U?$pair@$$CBV?$basic_string@DU?$char_traits@D@__Cr@std@@V?$allocator@D@23@@__Cr@std@@V?$vector@PEBVCommandLineFlag@absl@@V?$allocator@PEBVCommandLineFlag@absl@@@__Cr@std@@@23@@__Cr@std@@@23@@23@@23@U?$less@V?$basic_string@DU?$char_traits@D@__Cr@std@@V?$allocator@D@23@@__Cr@std@@@23@$00@__Cr@std@@$00$00@__Cr@std@@QEAA@AEBV?$__map_value_compare@V?$basic_string@DU?$char_traits@D@__Cr@std@@V?$allocator@D@23@@__Cr@std@@U?$__value_type@V?$basic_string@DU?$char_traits@D@__Cr@std@@V?$allocator@D@23@@__Cr@std@@V?$map@V?$basic_string@DU?$char_traits@D@__Cr@std@@V?$allocator@D@23@@__Cr@std@@V?$vector@PEBVCommandLineFlag@absl@@V?$allocator@PEBVCommandLineFlag@absl@@@__Cr@std@@@23@U?$less@V?$basic_string@DU?$char_traits@D@__Cr@std@@V?$allocator@D@23@@__Cr@std@@@23@V?$allocator@U?$pair@$$CBV?$basic_string@DU?$char_traits@D@__Cr@std@@V?$allocator@D@23@@__Cr@std@@V?$vector@PEBVCommandLineFlag@absl@@V?$allocator@PEBVCommandLineFlag@absl@@@__Cr@std@@@23@@__Cr@std@@@23@@23@@23@U?$less@V?$basic_string@DU?$char_traits@D@__Cr@std@@V?$allocator@D@23@@__Cr@std@@@23@$00@12@@Z
    ??$?0AEBV?$__map_value_compare@V?$basic_string@DU?$char_traits@D@__Cr@std@@V?$allocator@D@23@@__Cr@std@@U?$__value_type@V?$basic_string@DU?$char_traits@D@__Cr@std@@V?$allocator@D@23@@__Cr@std@@V?$vector@PEBVCommandLineFlag@absl@@V?$allocator@PEBVCommandLineFlag@absl@@@__Cr@std@@@23@@23@U?$less@V?$basic_string@DU?$char_traits@D@__Cr@std@@V?$allocator@D@23@@__Cr@std@@@23@$00@__Cr@std@@$0A@@?$__compressed_pair_elem@V?$__map_value_compare@V?$basic_string@DU?$char_traits@D@__Cr@std@@V?$allocator@D@23@@__Cr@std@@U?$__value_type@V?$basic_string@DU?$char_traits@D@__Cr@std@@V?$allocator@D@23@@__Cr@std@@V?$vector@PEBVCommandLineFlag@absl@@V?$allocator@PEBVCommandLineFlag@absl@@@__Cr@std@@@23@@23@U?$less@V?$basic_string@DU?$char_traits@D@__Cr@std@@V?$allocator@D@23@@__Cr@std@@@23@$00@__Cr@std@@$00$00@__Cr@std@@QEAA@AEBV?$__map_value_compare@V?$basic_string@DU?$char_traits@D@__Cr@std@@V?$allocator@D@23@@__Cr@std@@U?$__value_type@V?$basic_string@DU?$char_traits@D@__Cr@std@@V?$allocator@D@23@@__Cr@std@@V?$vector@PEBVCommandLineFlag@absl@@V?$allocator@PEBVCommandLineFlag@absl@@@__Cr@std@@@23@@23@U?$less@V?$basic_string@DU?$char_traits@D@__Cr@std@@V?$allocator@D@23@@__Cr@std@@@23@$00@12@@Z
    ??$?0AEBV?$allocator@C@__Cr@std@@@?$Storage@V?$allocator@C@__Cr@std@@$02$00@internal_compressed_tuple@container_internal@absl@@QEAA@Uin_place_t@__Cr@std@@AEBV?$allocator@C@56@@Z
    ??$?0AEBV?$allocator@D@__Cr@std@@@?$Storage@V?$allocator@D@__Cr@std@@$00$00@internal_compressed_tuple@container_internal@absl@@QEAA@Uin_place_t@__Cr@std@@AEBV?$allocator@D@56@@Z
    ??$?0AEBV?$allocator@E@__Cr@std@@@?$Storage@V?$allocator@E@__Cr@std@@$02$00@internal_compressed_tuple@container_internal@absl@@QEAA@Uin_place_t@__Cr@std@@AEBV?$allocator@E@56@@Z
    ??$?0AEBV?$allocator@F@__Cr@std@@@?$Storage@V?$allocator@F@__Cr@std@@$02$00@internal_compressed_tuple@container_internal@absl@@QEAA@Uin_place_t@__Cr@std@@AEBV?$allocator@F@56@@Z
    ??$?0AEBV?$allocator@G@__Cr@std@@@?$Storage@V?$allocator@G@__Cr@std@@$02$00@internal_compressed_tuple@container_internal@absl@@QEAA@Uin_place_t@__Cr@std@@AEBV?$allocator@G@56@@Z
    ??$?0AEBV?$allocator@H@__Cr@std@@@?$Storage@V?$allocator@H@__Cr@std@@$02$00@internal_compressed_tuple@container_internal@absl@@QEAA@Uin_place_t@__Cr@std@@AEBV?$allocator@H@56@@Z
    ??$?0AEBV?$allocator@I@__Cr@std@@@?$Storage@V?$allocator@I@__Cr@std@@$02$00@internal_compressed_tuple@container_internal@absl@@QEAA@Uin_place_t@__Cr@std@@AEBV?$allocator@I@56@@Z
    ??$?0AEBV?$allocator@U?$pair@$$CBHH@__Cr@std@@@__Cr@std@@@?$Storage@V?$allocator@U?$pair@$$CBHH@__Cr@std@@@__Cr@std@@$02$00@internal_compressed_tuple@container_internal@absl@@QEAA@Uin_place_t@__Cr@std@@AEBV?$allocator@U?$pair@$$CBHH@__Cr@std@@@56@@Z
    ??$?0AEBV?$allocator@U?$pair@$$CBHV?$basic_string@DU?$char_traits@D@__Cr@std@@V?$allocator@D@23@@__Cr@std@@@__Cr@std@@@__Cr@std@@@?$Storage@V?$allocator@U?$pair@$$CBHV?$basic_string@DU?$char_traits@D@__Cr@std@@V?$allocator@D@23@@__Cr@std@@@__Cr@std@@@__Cr@std@@$02$00@internal_compressed_tuple@container_internal@absl@@QEAA@Uin_place_t@__Cr@std@@AEBV?$allocator@U?$pair@$$CBHV?$basic_string@DU?$char_traits@D@__Cr@std@@V?$allocator@D@23@@__Cr@std@@@__Cr@std@@@56@@Z
    ??$?0AEBV?$allocator@U?$pair@$$CBII@__Cr@std@@@__Cr@std@@@?$Storage@V?$allocator@U?$pair@$$CBII@__Cr@std@@@__Cr@std@@$02$00@internal_compressed_tuple@container_internal@absl@@QEAA@Uin_place_t@__Cr@std@@AEBV?$allocator@U?$pair@$$CBII@__Cr@std@@@56@@Z
    ??$?0AEBV?$allocator@U?$pair@$$CBIV?$basic_string@DU?$char_traits@D@__Cr@std@@V?$allocator@D@23@@__Cr@std@@@__Cr@std@@@__Cr@std@@@?$Storage@V?$allocator@U?$pair@$$CBIV?$basic_string@DU?$char_traits@D@__Cr@std@@V?$allocator@D@23@@__Cr@std@@@__Cr@std@@@__Cr@std@@$02$00@internal_compressed_tuple@container_internal@absl@@QEAA@Uin_place_t@__Cr@std@@AEBV?$allocator@U?$pair@$$CBIV?$basic_string@DU?$char_traits@D@__Cr@std@@V?$allocator@D@23@@__Cr@std@@@__Cr@std@@@56@@Z
    ??$?0AEBV?$allocator@U?$pair@$$CBV?$basic_string@DU?$char_traits@D@__Cr@std@@V?$allocator@D@23@@__Cr@std@@H@__Cr@std@@@__Cr@std@@@?$Storage@V?$allocator@U?$pair@$$CBV?$basic_string@DU?$char_traits@D@__Cr@std@@V?$allocator@D@23@@__Cr@std@@H@__Cr@std@@@__Cr@std@@$02$00@internal_compressed_tuple@container_internal@absl@@QEAA@Uin_place_t@__Cr@std@@AEBV?$allocator@U?$pair@$$CBV?$basic_string@DU?$char_traits@D@__Cr@std@@V?$allocator@D@23@@__Cr@std@@H@__Cr@std@@@56@@Z
    ??$?0AEBV?$allocator@U?$pair@$$CBV?$basic_string@DU?$char_traits@D@__Cr@std@@V?$allocator@D@23@@__Cr@std@@I@__Cr@std@@@__Cr@std@@@?$Storage@V?$allocator@U?$pair@$$CBV?$basic_string@DU?$char_traits@D@__Cr@std@@V?$allocator@D@23@@__Cr@std@@I@__Cr@std@@@__Cr@std@@$02$00@internal_compressed_tuple@container_internal@absl@@QEAA@Uin_place_t@__Cr@std@@AEBV?$allocator@U?$pair@$$CBV?$basic_string@DU?$char_traits@D@__Cr@std@@V?$allocator@D@23@@__Cr@std@@I@__Cr@std@@@56@@Z
    ??$?0AEBV?$allocator@U?$pair@$$CBV?$basic_string@DU?$char_traits@D@__Cr@std@@V?$allocator@D@23@@__Cr@std@@V123@@__Cr@std@@@__Cr@std@@@?$Storage@V?$allocator@U?$pair@$$CBV?$basic_string@DU?$char_traits@D@__Cr@std@@V?$allocator@D@23@@__Cr@std@@V123@@__Cr@std@@@__Cr@std@@$02$00@internal_compressed_tuple@container_internal@absl@@QEAA@Uin_place_t@__Cr@std@@AEBV?$allocator@U?$pair@$$CBV?$basic_string@DU?$char_traits@D@__Cr@std@@V?$allocator@D@23@@__Cr@std@@V123@@__Cr@std@@@56@@Z
    ??$?0AEBV?$allocator@U?$pair@$$CBV?$basic_string@DU?$char_traits@D@__Cr@std@@V?$allocator@D@23@@__Cr@std@@_J@__Cr@std@@@__Cr@std@@@?$Storage@V?$allocator@U?$pair@$$CBV?$basic_string@DU?$char_traits@D@__Cr@std@@V?$allocator@D@23@@__Cr@std@@_J@__Cr@std@@@__Cr@std@@$02$00@internal_compressed_tuple@container_internal@absl@@QEAA@Uin_place_t@__Cr@std@@AEBV?$allocator@U?$pair@$$CBV?$basic_string@DU?$char_traits@D@__Cr@std@@V?$allocator@D@23@@__Cr@std@@_J@__Cr@std@@@56@@Z
    ??$?0AEBV?$allocator@U?$pair@$$CBV?$basic_string@DU?$char_traits@D@__Cr@std@@V?$allocator@D@23@@__Cr@std@@_K@__Cr@std@@@__Cr@std@@@?$Storage@V?$allocator@U?$pair@$$CBV?$basic_string@DU?$char_traits@D@__Cr@std@@V?$allocator@D@23@@__Cr@std@@_K@__Cr@std@@@__Cr@std@@$02$00@internal_compressed_tuple@container_internal@absl@@QEAA@Uin_place_t@__Cr@std@@AEBV?$allocator@U?$pair@$$CBV?$basic_string@DU?$char_traits@D@__Cr@std@@V?$allocator@D@23@@__Cr@std@@_K@__Cr@std@@@56@@Z
    ??$?0AEBV?$allocator@U?$pair@$$CB_JV?$basic_string@DU?$char_traits@D@__Cr@std@@V?$allocator@D@23@@__Cr@std@@@__Cr@std@@@__Cr@std@@@?$Storage@V?$allocator@U?$pair@$$CB_JV?$basic_string@DU?$char_traits@D@__Cr@std@@V?$allocator@D@23@@__Cr@std@@@__Cr@std@@@__Cr@std@@$02$00@internal_compressed_tuple@container_internal@absl@@QEAA@Uin_place_t@__Cr@std@@AEBV?$allocator@U?$pair@$$CB_JV?$basic_string@DU?$char_traits@D@__Cr@std@@V?$allocator@D@23@@__Cr@std@@@__Cr@std@@@56@@Z
    ??$?0AEBV?$allocator@U?$pair@$$CB_J_J@__Cr@std@@@__Cr@std@@@?$Storage@V?$allocator@U?$pair@$$CB_J_J@__Cr@std@@@__Cr@std@@$02$00@internal_compressed_tuple@container_internal@absl@@QEAA@Uin_place_t@__Cr@std@@AEBV?$allocator@U?$pair@$$CB_J_J@__Cr@std@@@56@@Z
    ??$?0AEBV?$allocator@U?$pair@$$CB_KV?$basic_string@DU?$char_traits@D@__Cr@std@@V?$allocator@D@23@@__Cr@std@@@__Cr@std@@@__Cr@std@@@?$Storage@V?$allocator@U?$pair@$$CB_KV?$basic_string@DU?$char_traits@D@__Cr@std@@V?$allocator@D@23@@__Cr@std@@@__Cr@std@@@__Cr@std@@$02$00@internal_compressed_tuple@container_internal@absl@@QEAA@Uin_place_t@__Cr@std@@AEBV?$allocator@U?$pair@$$CB_KV?$basic_string@DU?$char_traits@D@__Cr@std@@V?$allocator@D@23@@__Cr@std@@@__Cr@std@@@56@@Z
    ??$?0AEBV?$allocator@U?$pair@$$CB_K_K@__Cr@std@@@__Cr@std@@@?$Storage@V?$allocator@U?$pair@$$CB_K_K@__Cr@std@@@__Cr@std@@$02$00@internal_compressed_tuple@container_internal@absl@@QEAA@Uin_place_t@__Cr@std@@AEBV?$allocator@U?$pair@$$CB_K_K@__Cr@std@@@56@@Z
    ??$?0AEBV?$allocator@UPayload@status_internal@absl@@@__Cr@std@@@?$Storage@V?$allocator@UPayload@status_internal@absl@@@__Cr@std@@$0A@$00@internal_compressed_tuple@container_internal@absl@@QEAA@Uin_place_t@__Cr@std@@AEBV?$allocator@UPayload@status_internal@absl@@@56@@Z
    ??$?0AEBV?$allocator@UPayload@status_internal@absl@@@__Cr@std@@I$00@?$CompressedTuple@V?$allocator@UPayload@status_internal@absl@@@__Cr@std@@_K@container_internal@absl@@QEAA@AEBV?$allocator@UPayload@status_internal@absl@@@__Cr@std@@$$QEAI@Z
    ??$?0AEBV?$allocator@UPayload@status_internal@absl@@@__Cr@std@@I@?$CompressedTupleImpl@V?$CompressedTuple@V?$allocator@UPayload@status_internal@absl@@@__Cr@std@@_K@container_internal@absl@@U?$integer_sequence@_K$0A@$00@__Cr@std@@$00@internal_compressed_tuple@container_internal@absl@@QEAA@Uin_place_t@__Cr@std@@AEBV?$allocator@UPayload@status_internal@absl@@@56@$$QEAI@Z
    ??$?0AEBV?$allocator@V?$basic_string@DU?$char_traits@D@__Cr@std@@V?$allocator@D@23@@__Cr@std@@@__Cr@std@@@?$Storage@V?$allocator@V?$basic_string@DU?$char_traits@D@__Cr@std@@V?$allocator@D@23@@__Cr@std@@@__Cr@std@@$02$00@internal_compressed_tuple@container_internal@absl@@QEAA@Uin_place_t@__Cr@std@@AEBV?$allocator@V?$basic_string@DU?$char_traits@D@__Cr@std@@V?$allocator@D@23@@__Cr@std@@@56@@Z
    ??$?0AEBV?$allocator@VFormatArgImpl@str_format_internal@absl@@@__Cr@std@@@?$Storage@V?$allocator@VFormatArgImpl@str_format_internal@absl@@@__Cr@std@@$0A@$00@internal_compressed_tuple@container_internal@absl@@QEAA@Uin_place_t@__Cr@std@@AEBV?$allocator@VFormatArgImpl@str_format_internal@absl@@@56@@Z
    ??$?0AEBV?$allocator@VFormatArgImpl@str_format_internal@absl@@@__Cr@std@@I$00@?$CompressedTuple@V?$allocator@VFormatArgImpl@str_format_internal@absl@@@__Cr@std@@_K@container_internal@absl@@QEAA@AEBV?$allocator@VFormatArgImpl@str_format_internal@absl@@@__Cr@std@@$$QEAI@Z
    ??$?0AEBV?$allocator@VFormatArgImpl@str_format_internal@absl@@@__Cr@std@@I@?$CompressedTupleImpl@V?$CompressedTuple@V?$allocator@VFormatArgImpl@str_format_internal@absl@@@__Cr@std@@_K@container_internal@absl@@U?$integer_sequence@_K$0A@$00@__Cr@std@@$00@internal_compressed_tuple@container_internal@absl@@QEAA@Uin_place_t@__Cr@std@@AEBV?$allocator@VFormatArgImpl@str_format_internal@absl@@@56@$$QEAI@Z
    ??$?0AEBV?$allocator@_J@__Cr@std@@@?$Storage@V?$allocator@_J@__Cr@std@@$02$00@internal_compressed_tuple@container_internal@absl@@QEAA@Uin_place_t@__Cr@std@@AEBV?$allocator@_J@56@@Z
    ??$?0AEBV?$allocator@_K@__Cr@std@@@?$Storage@V?$allocator@_K@__Cr@std@@$02$00@internal_compressed_tuple@container_internal@absl@@QEAA@Uin_place_t@__Cr@std@@AEBV?$allocator@_K@56@@Z
    ??$?0AEBV?$basic_string@DU?$char_traits@D@__Cr@std@@V?$allocator@D@23@@__Cr@std@@$$Z$$V$$Z$0A@$$Z$S@?$pair@$$CBV?$basic_string@DU?$char_traits@D@__Cr@std@@V?$allocator@D@23@@__Cr@std@@PEBVImpl@time_zone@cctz@time_internal@absl@@@__Cr@std@@AEAA@Upiecewise_construct_t@12@AEAV?$tuple@AEBV?$basic_string@DU?$char_traits@D@__Cr@std@@V?$allocator@D@23@@__Cr@std@@@12@AEAV?$tuple@$$V@12@U?$__tuple_indices@$0A@@12@U?$__tuple_indices@$S@12@@Z
    ??$?0AEBV?$basic_string@DU?$char_traits@D@__Cr@std@@V?$allocator@D@23@@__Cr@std@@$$Z$$V$$Z$0A@$$Z$S@?$pair@$$CBV?$basic_string@DU?$char_traits@D@__Cr@std@@V?$allocator@D@23@@__Cr@std@@V?$vector@PEBVCommandLineFlag@absl@@V?$allocator@PEBVCommandLineFlag@absl@@@__Cr@std@@@23@@__Cr@std@@AEAA@Upiecewise_construct_t@12@AEAV?$tuple@AEBV?$basic_string@DU?$char_traits@D@__Cr@std@@V?$allocator@D@23@@__Cr@std@@@12@AEAV?$tuple@$$V@12@U?$__tuple_indices@$0A@@12@U?$__tuple_indices@$S@12@@Z
    ??$?0AEBV?$basic_string@DU?$char_traits@D@__Cr@std@@V?$allocator@D@23@@__Cr@std@@$$Z$$V@?$pair@$$CBV?$basic_string@DU?$char_traits@D@__Cr@std@@V?$allocator@D@23@@__Cr@std@@PEBVImpl@time_zone@cctz@time_internal@absl@@@__Cr@std@@QEAA@Upiecewise_construct_t@12@V?$tuple@AEBV?$basic_string@DU?$char_traits@D@__Cr@std@@V?$allocator@D@23@@__Cr@std@@@12@V?$tuple@$$V@12@@Z
    ??$?0AEBV?$basic_string@DU?$char_traits@D@__Cr@std@@V?$allocator@D@23@@__Cr@std@@$$Z$$V@?$pair@$$CBV?$basic_string@DU?$char_traits@D@__Cr@std@@V?$allocator@D@23@@__Cr@std@@V?$vector@PEBVCommandLineFlag@absl@@V?$allocator@PEBVCommandLineFlag@absl@@@__Cr@std@@@23@@__Cr@std@@QEAA@Upiecewise_construct_t@12@V?$tuple@AEBV?$basic_string@DU?$char_traits@D@__Cr@std@@V?$allocator@D@23@@__Cr@std@@@12@V?$tuple@$$V@12@@Z
    ??$?0AEBV?$basic_string_view@DU?$char_traits@D@__Cr@std@@@__Cr@std@@$$ZAEBQEAVCommandLineFlag@absl@@$$Z$0A@$$Z$0A@@?$pair@V?$tuple@AEBV?$basic_string_view@DU?$char_traits@D@__Cr@std@@@__Cr@std@@@__Cr@std@@V?$tuple@AEBQEAVCommandLineFlag@absl@@@23@@__Cr@std@@AEAA@Upiecewise_construct_t@12@AEAV?$tuple@AEBV?$basic_string_view@DU?$char_traits@D@__Cr@std@@@__Cr@std@@@12@AEAV?$tuple@AEBQEAVCommandLineFlag@absl@@@12@U?$__tuple_indices@$0A@@12@3@Z
    ??$?0AEBV?$basic_string_view@DU?$char_traits@D@__Cr@std@@@__Cr@std@@$$ZAEBQEAVCommandLineFlag@absl@@@?$pair@V?$tuple@AEBV?$basic_string_view@DU?$char_traits@D@__Cr@std@@@__Cr@std@@@__Cr@std@@V?$tuple@AEBQEAVCommandLineFlag@absl@@@23@@__Cr@std@@QEAA@Upiecewise_construct_t@12@V?$tuple@AEBV?$basic_string_view@DU?$char_traits@D@__Cr@std@@@__Cr@std@@@12@V?$tuple@AEBQEAVCommandLineFlag@absl@@@12@@Z
    ??$?0C@?$allocator@U?$AlignedType@$07@container_internal@absl@@@__Cr@std@@QEAA@AEBV?$allocator@C@12@@Z
    ??$?0D@?$allocator@U?$AlignedType@$07@container_internal@absl@@@__Cr@std@@QEAA@AEBV?$allocator@D@12@@Z
    ??$?0D@FormatArgImpl@str_format_internal@absl@@QEAA@AEBD@Z
    ??$?0E@?$allocator@U?$AlignedType@$07@container_internal@absl@@@__Cr@std@@QEAA@AEBV?$allocator@E@12@@Z
    ??$?0F@?$allocator@U?$AlignedType@$07@container_internal@absl@@@__Cr@std@@QEAA@AEBV?$allocator@F@12@@Z
    ??$?0G@?$allocator@U?$AlignedType@$07@container_internal@absl@@@__Cr@std@@QEAA@AEBV?$allocator@G@12@@Z
    ??$?0H@?$allocator@U?$AlignedType@$07@container_internal@absl@@@__Cr@std@@QEAA@AEBV?$allocator@H@12@@Z
    ??$?0H@FormatArgImpl@str_format_internal@absl@@QEAA@AEBH@Z
    ??$?0HAEBV?$__map_value_compare@V?$basic_string@DU?$char_traits@D@__Cr@std@@V?$allocator@D@23@@__Cr@std@@U?$__value_type@V?$basic_string@DU?$char_traits@D@__Cr@std@@V?$allocator@D@23@@__Cr@std@@V?$map@V?$basic_string@DU?$char_traits@D@__Cr@std@@V?$allocator@D@23@@__Cr@std@@V?$vector@PEBVCommandLineFlag@absl@@V?$allocator@PEBVCommandLineFlag@absl@@@__Cr@std@@@23@U?$less@V?$basic_string@DU?$char_traits@D@__Cr@std@@V?$allocator@D@23@@__Cr@std@@@23@V?$allocator@U?$pair@$$CBV?$basic_string@DU?$char_traits@D@__Cr@std@@V?$allocator@D@23@@__Cr@std@@V?$vector@PEBVCommandLineFlag@absl@@V?$allocator@PEBVCommandLineFlag@absl@@@__Cr@std@@@23@@__Cr@std@@@23@@23@@23@U?$less@V?$basic_string@DU?$char_traits@D@__Cr@std@@V?$allocator@D@23@@__Cr@std@@@23@$00@__Cr@std@@@?$__compressed_pair@_KV?$__map_value_compare@V?$basic_string@DU?$char_traits@D@__Cr@std@@V?$allocator@D@23@@__Cr@std@@U?$__value_type@V?$basic_string@DU?$char_traits@D@__Cr@std@@V?$allocator@D@23@@__Cr@std@@V?$map@V?$basic_string@DU?$char_traits@D@__Cr@std@@V?$allocator@D@23@@__Cr@std@@V?$vector@PEBVCommandLineFlag@absl@@V?$allocator@PEBVCommandLineFlag@absl@@@__Cr@std@@@23@U?$less@V?$basic_string@DU?$char_traits@D@__Cr@std@@V?$allocator@D@23@@__Cr@std@@@23@V?$allocator@U?$pair@$$CBV?$basic_string@DU?$char_traits@D@__Cr@std@@V?$allocator@D@23@@__Cr@std@@V?$vector@PEBVCommandLineFlag@absl@@V?$allocator@PEBVCommandLineFlag@absl@@@__Cr@std@@@23@@__Cr@std@@@23@@23@@23@U?$less@V?$basic_string@DU?$char_traits@D@__Cr@std@@V?$allocator@D@23@@__Cr@std@@@23@$00@__Cr@std@@@__Cr@std@@QEAA@$$QEAHAEBV?$__map_value_compare@V?$basic_string@DU?$char_traits@D@__Cr@std@@V?$allocator@D@23@@__Cr@std@@U?$__value_type@V?$basic_string@DU?$char_traits@D@__Cr@std@@V?$allocator@D@23@@__Cr@std@@V?$map@V?$basic_string@DU?$char_traits@D@__Cr@std@@V?$allocator@D@23@@__Cr@std@@V?$vector@PEBVCommandLineFlag@absl@@V?$allocator@PEBVCommandLineFlag@absl@@@__Cr@std@@@23@U?$less@V?$basic_string@DU?$char_traits@D@__Cr@std@@V?$allocator@D@23@@__Cr@std@@@23@V?$allocator@U?$pair@$$CBV?$basic_string@DU?$char_traits@D@__Cr@std@@V?$allocator@D@23@@__Cr@std@@V?$vector@PEBVCommandLineFlag@absl@@V?$allocator@PEBVCommandLineFlag@absl@@@__Cr@std@@@23@@__Cr@std@@@23@@23@@23@U?$less@V?$basic_string@DU?$char_traits@D@__Cr@std@@V?$allocator@D@23@@__Cr@std@@@23@$00@12@@Z
    ??$?0HAEBV?$__map_value_compare@V?$basic_string@DU?$char_traits@D@__Cr@std@@V?$allocator@D@23@@__Cr@std@@U?$__value_type@V?$basic_string@DU?$char_traits@D@__Cr@std@@V?$allocator@D@23@@__Cr@std@@V?$vector@PEBVCommandLineFlag@absl@@V?$allocator@PEBVCommandLineFlag@absl@@@__Cr@std@@@23@@23@U?$less@V?$basic_string@DU?$char_traits@D@__Cr@std@@V?$allocator@D@23@@__Cr@std@@@23@$00@__Cr@std@@@?$__compressed_pair@_KV?$__map_value_compare@V?$basic_string@DU?$char_traits@D@__Cr@std@@V?$allocator@D@23@@__Cr@std@@U?$__value_type@V?$basic_string@DU?$char_traits@D@__Cr@std@@V?$allocator@D@23@@__Cr@std@@V?$vector@PEBVCommandLineFlag@absl@@V?$allocator@PEBVCommandLineFlag@absl@@@__Cr@std@@@23@@23@U?$less@V?$basic_string@DU?$char_traits@D@__Cr@std@@V?$allocator@D@23@@__Cr@std@@@23@$00@__Cr@std@@@__Cr@std@@QEAA@$$QEAHAEBV?$__map_value_compare@V?$basic_string@DU?$char_traits@D@__Cr@std@@V?$allocator@D@23@@__Cr@std@@U?$__value_type@V?$basic_string@DU?$char_traits@D@__Cr@std@@V?$allocator@D@23@@__Cr@std@@V?$vector@PEBVCommandLineFlag@absl@@V?$allocator@PEBVCommandLineFlag@absl@@@__Cr@std@@@23@@23@U?$less@V?$basic_string@DU?$char_traits@D@__Cr@std@@V?$allocator@D@23@@__Cr@std@@@23@$00@12@@Z
    ??$?0HU__default_init_tag@__Cr@std@@@?$__compressed_pair@_KU?$hash@PEBUCordRep@cord_internal@absl@@@__Cr@std@@@__Cr@std@@QEAA@$$QEAH$$QEAU__default_init_tag@12@@Z
    ??$?0HU__default_init_tag@__Cr@std@@@?$__compressed_pair@_KV?$__unordered_map_hasher@V?$basic_string@DU?$char_traits@D@__Cr@std@@V?$allocator@D@23@@__Cr@std@@U?$__hash_value_type@V?$basic_string@DU?$char_traits@D@__Cr@std@@V?$allocator@D@23@@__Cr@std@@PEBVImpl@time_zone@cctz@time_internal@absl@@@23@U?$hash@V?$basic_string@DU?$char_traits@D@__Cr@std@@V?$allocator@D@23@@__Cr@std@@@23@U?$equal_to@V?$basic_string@DU?$char_traits@D@__Cr@std@@V?$allocator@D@23@@__Cr@std@@@23@$00@__Cr@std@@@__Cr@std@@QEAA@$$QEAH$$QEAU__default_init_tag@12@@Z
    ??$?0HU__default_init_tag@__Cr@std@@@?$__compressed_pair@_KV?$allocator@PEAU?$__hash_node_base@PEAU?$__hash_node@PEBUCordRep@cord_internal@absl@@PEAX@__Cr@std@@@__Cr@std@@@__Cr@std@@@__Cr@std@@QEAA@$$QEAH$$QEAU__default_init_tag@12@@Z
    ??$?0HU__default_init_tag@__Cr@std@@@?$__compressed_pair@_KV?$allocator@PEAU?$__hash_node_base@PEAU?$__hash_node@U?$__hash_value_type@V?$basic_string@DU?$char_traits@D@__Cr@std@@V?$allocator@D@23@@__Cr@std@@PEBVImpl@time_zone@cctz@time_internal@absl@@@__Cr@std@@PEAX@__Cr@std@@@__Cr@std@@@__Cr@std@@@__Cr@std@@QEAA@$$QEAH$$QEAU__default_init_tag@12@@Z
    ??$?0HU__default_init_tag@__Cr@std@@@?$__compressed_pair@_KV?$allocator@PEBVImpl@time_zone@cctz@time_internal@absl@@@__Cr@std@@@__Cr@std@@QEAA@$$QEAH$$QEAU__default_init_tag@12@@Z
    ??$?0HU__default_init_tag@__Cr@std@@@?$__compressed_pair@_KV?$allocator@UPrefixCrc@CrcCordState@crc_internal@absl@@@__Cr@std@@@__Cr@std@@QEAA@$$QEAH$$QEAU__default_init_tag@12@@Z
    ??$?0I@?$Storage@_K$00$0A@@internal_compressed_tuple@container_internal@absl@@QEAA@Uin_place_t@__Cr@std@@$$QEAI@Z
    ??$?0I@?$allocator@U?$AlignedType@$07@container_internal@absl@@@__Cr@std@@QEAA@AEBV?$allocator@I@12@@Z
    ??$?0I@FormatArgImpl@str_format_internal@absl@@QEAA@AEBI@Z
    ??$?0M@FormatArgImpl@str_format_internal@absl@@QEAA@AEBM@Z
    ??$?0MU__default_init_tag@__Cr@std@@@?$__compressed_pair@MU?$equal_to@PEBUCordRep@cord_internal@absl@@@__Cr@std@@@__Cr@std@@QEAA@$$QEAM$$QEAU__default_init_tag@12@@Z
    ??$?0MU__default_init_tag@__Cr@std@@@?$__compressed_pair@MV?$__unordered_map_equal@V?$basic_string@DU?$char_traits@D@__Cr@std@@V?$allocator@D@23@@__Cr@std@@U?$__hash_value_type@V?$basic_string@DU?$char_traits@D@__Cr@std@@V?$allocator@D@23@@__Cr@std@@PEBVImpl@time_zone@cctz@time_internal@absl@@@23@U?$equal_to@V?$basic_string@DU?$char_traits@D@__Cr@std@@V?$allocator@D@23@@__Cr@std@@@23@U?$hash@V?$basic_string@DU?$char_traits@D@__Cr@std@@V?$allocator@D@23@@__Cr@std@@@23@$00@__Cr@std@@@__Cr@std@@QEAA@$$QEAM$$QEAU__default_init_tag@12@@Z
    ??$?0N@FormatArgImpl@str_format_internal@absl@@QEAA@AEBN@Z
    ??$?0PEAI@?$SaltedSeedSeq@Vseed_seq@__Cr@std@@@random_internal@absl@@QEAA@PEAI0@Z
    ??$?0PEAPEAPEBVImpl@time_zone@cctz@time_internal@absl@@PEAPEAPEBV01234@$0A@@?$pair@PEAPEAPEBVImpl@time_zone@cctz@time_internal@absl@@PEAPEAPEBV12345@@__Cr@std@@QEAA@$$QEAPEAPEAPEBVImpl@time_zone@cctz@time_internal@absl@@0@Z
    ??$?0PEAPEAUPrefixCrc@CrcCordState@crc_internal@absl@@PEAPEAU0123@$0A@@?$pair@PEAPEAUPrefixCrc@CrcCordState@crc_internal@absl@@PEAPEAU1234@@__Cr@std@@QEAA@$$QEAPEAPEAUPrefixCrc@CrcCordState@crc_internal@absl@@0@Z
    ??$?0PEAPEAVLogSink@absl@@$0A@@?$__wrap_iter@PEBQEAVLogSink@absl@@@__Cr@std@@QEAA@AEBV?$__wrap_iter@PEAPEAVLogSink@absl@@@12@@Z
    ??$?0PEAPEAVLogSink@absl@@PEAPEAV01@$0A@@?$pair@PEAPEAVLogSink@absl@@PEAPEAV12@@__Cr@std@@QEAA@$$QEAPEAPEAVLogSink@absl@@0@Z
    ??$?0PEAUPrefixCrc@CrcCordState@crc_internal@absl@@AEAU0123@PEAPEAU0123@$0A@@?$__deque_iterator@UPrefixCrc@CrcCordState@crc_internal@absl@@PEBU1234@AEBU1234@PEBQEBU1234@_J$0A@@__Cr@std@@QEAA@AEBV?$__deque_iterator@UPrefixCrc@CrcCordState@crc_internal@absl@@PEAU1234@AEAU1234@PEAPEAU1234@_J$0A@@12@@Z
    ??$?0PEAUTransition@cctz@time_internal@absl@@$0A@@?$__wrap_iter@PEBUTransition@cctz@time_internal@absl@@@__Cr@std@@QEAA@AEBV?$__wrap_iter@PEAUTransition@cctz@time_internal@absl@@@12@@Z
    ??$?0PEAUTransition@cctz@time_internal@absl@@PEAU0123@$0A@@?$pair@PEAUTransition@cctz@time_internal@absl@@PEAU1234@@__Cr@std@@QEAA@$$QEAPEAUTransition@cctz@time_internal@absl@@0@Z
    ??$?0PEAUTransitionType@cctz@time_internal@absl@@$0A@@?$__wrap_iter@PEBUTransitionType@cctz@time_internal@absl@@@__Cr@std@@QEAA@AEBV?$__wrap_iter@PEAUTransitionType@cctz@time_internal@absl@@@12@@Z
    ??$?0PEAUTransitionType@cctz@time_internal@absl@@PEAU0123@$0A@@?$pair@PEAUTransitionType@cctz@time_internal@absl@@PEAU1234@@__Cr@std@@QEAA@$$QEAPEAUTransitionType@cctz@time_internal@absl@@0@Z
    ??$?0PEAUraw_view@?1???R?$ConvertToContainer@V?$vector@V?$basic_string_view@DU?$char_traits@D@__Cr@std@@@__Cr@std@@V?$allocator@V?$basic_string_view@DU?$char_traits@D@__Cr@std@@@__Cr@std@@@23@@__Cr@std@@V?$basic_string_view@DU?$char_traits@D@__Cr@std@@@23@$0A@@?$Splitter@VByChar@absl@@UAllowEmpty@2@V?$basic_string_view@DU?$char_traits@D@__Cr@std@@@__Cr@std@@@strings_internal@absl@@QEBA?AV?$vector@V?$basic_string_view@DU?$char_traits@D@__Cr@std@@@__Cr@std@@V?$allocator@V?$basic_string_view@DU?$char_traits@D@__Cr@std@@@__Cr@std@@@23@@__Cr@std@@AEBV234@@Z@PEAU0?1???R1234@QEBA?AV567@0@Z@$0A@@?$pair@PEAUraw_view@?1???R?$ConvertToContainer@V?$vector@V?$basic_string_view@DU?$char_traits@D@__Cr@std@@@__Cr@std@@V?$allocator@V?$basic_string_view@DU?$char_traits@D@__Cr@std@@@__Cr@std@@@23@@__Cr@std@@V?$basic_string_view@DU?$char_traits@D@__Cr@std@@@23@$0A@@?$Splitter@VByChar@absl@@UAllowEmpty@2@V?$basic_string_view@DU?$char_traits@D@__Cr@std@@@__Cr@std@@@strings_internal@absl@@QEBA?AV?$vector@V?$basic_string_view@DU?$char_traits@D@__Cr@std@@@__Cr@std@@V?$allocator@V?$basic_string_view@DU?$char_traits@D@__Cr@std@@@__Cr@std@@@23@@__Cr@std@@AEBV345@@Z@PEAU1?1???R2345@QEBA?AV678@0@Z@@__Cr@std@@QEAA@$$QEAPEAUraw_view@?1???R?$ConvertToContainer@V?$vector@V?$basic_string_view@DU?$char_traits@D@__Cr@std@@@__Cr@std@@V?$allocator@V?$basic_string_view@DU?$char_traits@D@__Cr@std@@@__Cr@std@@@23@@__Cr@std@@V?$basic_string_view@DU?$char_traits@D@__Cr@std@@@23@$0A@@?$Splitter@VByChar@absl@@UAllowEmpty@2@V?$basic_string_view@DU?$char_traits@D@__Cr@std@@@__Cr@std@@@strings_internal@absl@@QEBA?AV?$vector@V?$basic_string_view@DU?$char_traits@D@__Cr@std@@@__Cr@std@@V?$allocator@V?$basic_string_view@DU?$char_traits@D@__Cr@std@@@__Cr@std@@@23@@12@AEBV567@@Z@1@Z
    ??$?0PEAUraw_view@?1???R?$ConvertToContainer@V?$vector@V?$basic_string_view@DU?$char_traits@D@__Cr@std@@@__Cr@std@@V?$allocator@V?$basic_string_view@DU?$char_traits@D@__Cr@std@@@__Cr@std@@@23@@__Cr@std@@V?$basic_string_view@DU?$char_traits@D@__Cr@std@@@23@$0A@@?$Splitter@VByChar@absl@@UAllowEmpty@2@V?$basic_string_view@DU?$char_traits@D@__Cr@std@@@__Cr@std@@@strings_internal@absl@@QEBA?AV?$vector@V?$basic_string_view@DU?$char_traits@D@__Cr@std@@@__Cr@std@@V?$allocator@V?$basic_string_view@DU?$char_traits@D@__Cr@std@@@__Cr@std@@@23@@__Cr@std@@AEBV234@@Z@PEAV?$basic_string_view@DU?$char_traits@D@__Cr@std@@@67@$0A@@?$pair@PEAUraw_view@?1???R?$ConvertToContainer@V?$vector@V?$basic_string_view@DU?$char_traits@D@__Cr@std@@@__Cr@std@@V?$allocator@V?$basic_string_view@DU?$char_traits@D@__Cr@std@@@__Cr@std@@@23@@__Cr@std@@V?$basic_string_view@DU?$char_traits@D@__Cr@std@@@23@$0A@@?$Splitter@VByChar@absl@@UAllowEmpty@2@V?$basic_string_view@DU?$char_traits@D@__Cr@std@@@__Cr@std@@@strings_internal@absl@@QEBA?AV?$vector@V?$basic_string_view@DU?$char_traits@D@__Cr@std@@@__Cr@std@@V?$allocator@V?$basic_string_view@DU?$char_traits@D@__Cr@std@@@__Cr@std@@@23@@__Cr@std@@AEBV345@@Z@PEAV?$basic_string_view@DU?$char_traits@D@__Cr@std@@@78@@__Cr@std@@QEAA@$$QEAPEAUraw_view@?1???R?$ConvertToContainer@V?$vector@V?$basic_string_view@DU?$char_traits@D@__Cr@std@@@__Cr@std@@V?$allocator@V?$basic_string_view@DU?$char_traits@D@__Cr@std@@@__Cr@std@@@23@@__Cr@std@@V?$basic_string_view@DU?$char_traits@D@__Cr@std@@@23@$0A@@?$Splitter@VByChar@absl@@UAllowEmpty@2@V?$basic_string_view@DU?$char_traits@D@__Cr@std@@@__Cr@std@@@strings_internal@absl@@QEBA?AV?$vector@V?$basic_string_view@DU?$char_traits@D@__Cr@std@@@__Cr@std@@V?$allocator@V?$basic_string_view@DU?$char_traits@D@__Cr@std@@@__Cr@std@@@23@@12@AEBV567@@Z@$$QEAPEAV?$basic_string_view@DU?$char_traits@D@__Cr@std@@@12@@Z
    ??$?0PEAV?$InlinedVector@UPayload@status_internal@absl@@$00V?$allocator@UPayload@status_internal@absl@@@__Cr@std@@@absl@@$0A@@?$__compressed_pair_elem@PEAV?$InlinedVector@UPayload@status_internal@absl@@$00V?$allocator@UPayload@status_internal@absl@@@__Cr@std@@@absl@@$0A@$0A@@__Cr@std@@QEAA@$$QEAPEAV?$InlinedVector@UPayload@status_internal@absl@@$00V?$allocator@UPayload@status_internal@absl@@@__Cr@std@@@absl@@@Z
    ??$?0PEAV?$InlinedVector@UPayload@status_internal@absl@@$00V?$allocator@UPayload@status_internal@absl@@@__Cr@std@@@absl@@U?$default_delete@V?$InlinedVector@UPayload@status_internal@absl@@$00V?$allocator@UPayload@status_internal@absl@@@__Cr@std@@@absl@@@__Cr@std@@@?$__compressed_pair@PEAV?$InlinedVector@UPayload@status_internal@absl@@$00V?$allocator@UPayload@status_internal@absl@@@__Cr@std@@@absl@@U?$default_delete@V?$InlinedVector@UPayload@status_internal@absl@@$00V?$allocator@UPayload@status_internal@absl@@@__Cr@std@@@absl@@@__Cr@std@@@__Cr@std@@QEAA@$$QEAPEAV?$InlinedVector@UPayload@status_internal@absl@@$00V?$allocator@UPayload@status_internal@absl@@@__Cr@std@@@absl@@$$QEAU?$default_delete@V?$InlinedVector@UPayload@status_internal@absl@@$00V?$allocator@UPayload@status_internal@absl@@@__Cr@std@@@absl@@@12@@Z
    ??$?0PEAVCommandLineFlag@absl@@$0A@@?$__tuple_leaf@$0A@$$QEAPEAVCommandLineFlag@absl@@$0A@@__Cr@std@@QEAA@$$QEAPEAVCommandLineFlag@absl@@@Z
    ??$?0PEAVCommandLineFlag@absl@@$0A@@?$tuple@$$QEAPEAVCommandLineFlag@absl@@@__Cr@std@@QEAA@$$QEAPEAVCommandLineFlag@absl@@@Z
    ??$?0PEAVFallbackCrcMemcpyEngine@crc_internal@absl@@$0A@@?$__compressed_pair_elem@PEAVCrcMemcpyEngine@crc_internal@absl@@$0A@$0A@@__Cr@std@@QEAA@$$QEAPEAVFallbackCrcMemcpyEngine@crc_internal@absl@@@Z
    ??$?0PEAVFallbackCrcMemcpyEngine@crc_internal@absl@@U?$default_delete@VFallbackCrcMemcpyEngine@crc_internal@absl@@@__Cr@std@@@?$__compressed_pair@PEAVCrcMemcpyEngine@crc_internal@absl@@U?$default_delete@VCrcMemcpyEngine@crc_internal@absl@@@__Cr@std@@@__Cr@std@@QEAA@$$QEAPEAVFallbackCrcMemcpyEngine@crc_internal@absl@@$$QEAU?$default_delete@VFallbackCrcMemcpyEngine@crc_internal@absl@@@12@@Z
    ??$?0PEAVFlagState@flags_internal@absl@@$0A@@?$__compressed_pair_elem@PEAVFlagStateInterface@flags_internal@absl@@$0A@$0A@@__Cr@std@@QEAA@$$QEAPEAVFlagState@flags_internal@absl@@@Z
    ??$?0PEAVFlagState@flags_internal@absl@@U?$default_delete@VFlagState@flags_internal@absl@@@__Cr@std@@@?$__compressed_pair@PEAVFlagStateInterface@flags_internal@absl@@U?$default_delete@VFlagStateInterface@flags_internal@absl@@@__Cr@std@@@__Cr@std@@QEAA@$$QEAPEAVFlagState@flags_internal@absl@@$$QEAU?$default_delete@VFlagState@flags_internal@absl@@@12@@Z
    ??$?0PEAVFlagStateInterface@flags_internal@absl@@$0A@@?$__compressed_pair_elem@PEAVFlagStateInterface@flags_internal@absl@@$0A@$0A@@__Cr@std@@QEAA@$$QEAPEAVFlagStateInterface@flags_internal@absl@@@Z
    ??$?0PEAVFlagStateInterface@flags_internal@absl@@U?$default_delete@VFlagStateInterface@flags_internal@absl@@@__Cr@std@@@?$__compressed_pair@PEAVFlagStateInterface@flags_internal@absl@@U?$default_delete@VFlagStateInterface@flags_internal@absl@@@__Cr@std@@@__Cr@std@@QEAA@$$QEAPEAVFlagStateInterface@flags_internal@absl@@$$QEAU?$default_delete@VFlagStateInterface@flags_internal@absl@@@12@@Z
    ??$?0PEAVTimeZoneInfo@cctz@time_internal@absl@@$0A@@?$__compressed_pair_elem@PEAVTimeZoneIf@cctz@time_internal@absl@@$0A@$0A@@__Cr@std@@QEAA@$$QEAPEAVTimeZoneInfo@cctz@time_internal@absl@@@Z
    ??$?0PEAVTimeZoneInfo@cctz@time_internal@absl@@U?$default_delete@VTimeZoneInfo@cctz@time_internal@absl@@@__Cr@std@@@?$__compressed_pair@PEAVTimeZoneIf@cctz@time_internal@absl@@U?$default_delete@VTimeZoneIf@cctz@time_internal@absl@@@__Cr@std@@@__Cr@std@@QEAA@$$QEAPEAVTimeZoneInfo@cctz@time_internal@absl@@$$QEAU?$default_delete@VTimeZoneInfo@cctz@time_internal@absl@@@12@@Z
    ??$?0PEAVTimeZoneLibC@cctz@time_internal@absl@@$0A@@?$__compressed_pair_elem@PEAVTimeZoneIf@cctz@time_internal@absl@@$0A@$0A@@__Cr@std@@QEAA@$$QEAPEAVTimeZoneLibC@cctz@time_internal@absl@@@Z
    ??$?0PEAVTimeZoneLibC@cctz@time_internal@absl@@U?$default_delete@VTimeZoneLibC@cctz@time_internal@absl@@@__Cr@std@@@?$__compressed_pair@PEAVTimeZoneIf@cctz@time_internal@absl@@U?$default_delete@VTimeZoneIf@cctz@time_internal@absl@@@__Cr@std@@@__Cr@std@@QEAA@$$QEAPEAVTimeZoneLibC@cctz@time_internal@absl@@$$QEAU?$default_delete@VTimeZoneLibC@cctz@time_internal@absl@@@12@@Z
    ??$?0PEAX@FlagState@flags_internal@absl@@QEAA@AEAVFlagImpl@12@AEBQEAX_N2_J@Z
    ??$?0PEAXUDynValueDeleter@flags_internal@absl@@@?$__compressed_pair@PEAXUDynValueDeleter@flags_internal@absl@@@__Cr@std@@QEAA@$$QEAPEAX$$QEAUDynValueDeleter@flags_internal@absl@@@Z
    ??$?0PEBC@?$raw_hash_set@U?$FlatHashSetPolicy@C@container_internal@absl@@U?$Hash@C@hash_internal@3@U?$equal_to@C@__Cr@std@@V?$allocator@C@78@@container_internal@absl@@QEAA@PEBC0_KAEBU?$Hash@C@hash_internal@2@AEBU?$equal_to@C@__Cr@std@@AEBV?$allocator@C@67@@Z
    ??$?0PEBC@?$raw_hash_set@U?$NodeHashSetPolicy@C@container_internal@absl@@U?$Hash@C@hash_internal@3@U?$equal_to@C@__Cr@std@@V?$allocator@C@78@@container_internal@absl@@QEAA@PEBC0_KAEBU?$Hash@C@hash_internal@2@AEBU?$equal_to@C@__Cr@std@@AEBV?$allocator@C@67@@Z
    ??$?0PEBD@FormatArgImpl@str_format_internal@absl@@QEAA@AEBQEBD@Z
    ??$?0PEBE@?$raw_hash_set@U?$FlatHashSetPolicy@E@container_internal@absl@@U?$Hash@E@hash_internal@3@U?$equal_to@E@__Cr@std@@V?$allocator@E@78@@container_internal@absl@@QEAA@PEBE0_KAEBU?$Hash@E@hash_internal@2@AEBU?$equal_to@E@__Cr@std@@AEBV?$allocator@E@67@@Z
    ??$?0PEBE@?$raw_hash_set@U?$NodeHashSetPolicy@E@container_internal@absl@@U?$Hash@E@hash_internal@3@U?$equal_to@E@__Cr@std@@V?$allocator@E@78@@container_internal@absl@@QEAA@PEBE0_KAEBU?$Hash@E@hash_internal@2@AEBU?$equal_to@E@__Cr@std@@AEBV?$allocator@E@67@@Z
    ??$?0PEBF@?$raw_hash_set@U?$FlatHashSetPolicy@F@container_internal@absl@@U?$Hash@F@hash_internal@3@U?$equal_to@F@__Cr@std@@V?$allocator@F@78@@container_internal@absl@@QEAA@PEBF0_KAEBU?$Hash@F@hash_internal@2@AEBU?$equal_to@F@__Cr@std@@AEBV?$allocator@F@67@@Z
    ??$?0PEBF@?$raw_hash_set@U?$NodeHashSetPolicy@F@container_internal@absl@@U?$Hash@F@hash_internal@3@U?$equal_to@F@__Cr@std@@V?$allocator@F@78@@container_internal@absl@@QEAA@PEBF0_KAEBU?$Hash@F@hash_internal@2@AEBU?$equal_to@F@__Cr@std@@AEBV?$allocator@F@67@@Z
    ??$?0PEBG@?$raw_hash_set@U?$FlatHashSetPolicy@G@container_internal@absl@@U?$Hash@G@hash_internal@3@U?$equal_to@G@__Cr@std@@V?$allocator@G@78@@container_internal@absl@@QEAA@PEBG0_KAEBU?$Hash@G@hash_internal@2@AEBU?$equal_to@G@__Cr@std@@AEBV?$allocator@G@67@@Z
    ??$?0PEBG@?$raw_hash_set@U?$NodeHashSetPolicy@G@container_internal@absl@@U?$Hash@G@hash_internal@3@U?$equal_to@G@__Cr@std@@V?$allocator@G@78@@container_internal@absl@@QEAA@PEBG0_KAEBU?$Hash@G@hash_internal@2@AEBU?$equal_to@G@__Cr@std@@AEBV?$allocator@G@67@@Z
    ??$?0PEBH@?$raw_hash_set@U?$FlatHashSetPolicy@H@container_internal@absl@@U?$Hash@H@hash_internal@3@U?$equal_to@H@__Cr@std@@V?$allocator@H@78@@container_internal@absl@@QEAA@PEBH0_KAEBU?$Hash@H@hash_internal@2@AEBU?$equal_to@H@__Cr@std@@AEBV?$allocator@H@67@@Z
    ??$?0PEBH@?$raw_hash_set@U?$NodeHashSetPolicy@H@container_internal@absl@@U?$Hash@H@hash_internal@3@U?$equal_to@H@__Cr@std@@V?$allocator@H@78@@container_internal@absl@@QEAA@PEBH0_KAEBU?$Hash@H@hash_internal@2@AEBU?$equal_to@H@__Cr@std@@AEBV?$allocator@H@67@@Z
    ??$?0PEBI@?$raw_hash_set@U?$FlatHashSetPolicy@I@container_internal@absl@@U?$Hash@I@hash_internal@3@U?$equal_to@I@__Cr@std@@V?$allocator@I@78@@container_internal@absl@@QEAA@PEBI0_KAEBU?$Hash@I@hash_internal@2@AEBU?$equal_to@I@__Cr@std@@AEBV?$allocator@I@67@@Z
    ??$?0PEBI@?$raw_hash_set@U?$NodeHashSetPolicy@I@container_internal@absl@@U?$Hash@I@hash_internal@3@U?$equal_to@I@__Cr@std@@V?$allocator@I@78@@container_internal@absl@@QEAA@PEBI0_KAEBU?$Hash@I@hash_internal@2@AEBU?$equal_to@I@__Cr@std@@AEBV?$allocator@I@67@@Z
    ??$?0PEBU?$pair@HH@__Cr@std@@@?$raw_hash_set@U?$FlatHashMapPolicy@HH@container_internal@absl@@U?$Hash@H@hash_internal@3@U?$equal_to@H@__Cr@std@@V?$allocator@U?$pair@$$CBHH@__Cr@std@@@78@@container_internal@absl@@QEAA@PEBU?$pair@HH@__Cr@std@@0_KAEBU?$Hash@H@hash_internal@2@AEBU?$equal_to@H@45@AEBV?$allocator@U?$pair@$$CBHH@__Cr@std@@@45@@Z
    ??$?0PEBU?$pair@HH@__Cr@std@@@?$raw_hash_set@V?$NodeHashMapPolicy@HH@container_internal@absl@@U?$Hash@H@hash_internal@3@U?$equal_to@H@__Cr@std@@V?$allocator@U?$pair@$$CBHH@__Cr@std@@@78@@container_internal@absl@@QEAA@PEBU?$pair@HH@__Cr@std@@0_KAEBU?$Hash@H@hash_internal@2@AEBU?$equal_to@H@45@AEBV?$allocator@U?$pair@$$CBHH@__Cr@std@@@45@@Z
    ??$?0PEBU?$pair@HV?$basic_string@DU?$char_traits@D@__Cr@std@@V?$allocator@D@23@@__Cr@std@@@__Cr@std@@@?$raw_hash_set@U?$FlatHashMapPolicy@HV?$basic_string@DU?$char_traits@D@__Cr@std@@V?$allocator@D@23@@__Cr@std@@@container_internal@absl@@U?$Hash@H@hash_internal@3@U?$equal_to@H@__Cr@std@@V?$allocator@U?$pair@$$CBHV?$basic_string@DU?$char_traits@D@__Cr@std@@V?$allocator@D@23@@__Cr@std@@@__Cr@std@@@78@@container_internal@absl@@QEAA@PEBU?$pair@HV?$basic_string@DU?$char_traits@D@__Cr@std@@V?$allocator@D@23@@__Cr@std@@@__Cr@std@@0_KAEBU?$Hash@H@hash_internal@2@AEBU?$equal_to@H@45@AEBV?$allocator@U?$pair@$$CBHV?$basic_string@DU?$char_traits@D@__Cr@std@@V?$allocator@D@23@@__Cr@std@@@__Cr@std@@@45@@Z
    ??$?0PEBU?$pair@HV?$basic_string@DU?$char_traits@D@__Cr@std@@V?$allocator@D@23@@__Cr@std@@@__Cr@std@@@?$raw_hash_set@V?$NodeHashMapPolicy@HV?$basic_string@DU?$char_traits@D@__Cr@std@@V?$allocator@D@23@@__Cr@std@@@container_internal@absl@@U?$Hash@H@hash_internal@3@U?$equal_to@H@__Cr@std@@V?$allocator@U?$pair@$$CBHV?$basic_string@DU?$char_traits@D@__Cr@std@@V?$allocator@D@23@@__Cr@std@@@__Cr@std@@@78@@container_internal@absl@@QEAA@PEBU?$pair@HV?$basic_string@DU?$char_traits@D@__Cr@std@@V?$allocator@D@23@@__Cr@std@@@__Cr@std@@0_KAEBU?$Hash@H@hash_internal@2@AEBU?$equal_to@H@45@AEBV?$allocator@U?$pair@$$CBHV?$basic_string@DU?$char_traits@D@__Cr@std@@V?$allocator@D@23@@__Cr@std@@@__Cr@std@@@45@@Z
    ??$?0PEBU?$pair@II@__Cr@std@@@?$raw_hash_set@U?$FlatHashMapPolicy@II@container_internal@absl@@U?$Hash@I@hash_internal@3@U?$equal_to@I@__Cr@std@@V?$allocator@U?$pair@$$CBII@__Cr@std@@@78@@container_internal@absl@@QEAA@PEBU?$pair@II@__Cr@std@@0_KAEBU?$Hash@I@hash_internal@2@AEBU?$equal_to@I@45@AEBV?$allocator@U?$pair@$$CBII@__Cr@std@@@45@@Z
    ??$?0PEBU?$pair@II@__Cr@std@@@?$raw_hash_set@V?$NodeHashMapPolicy@II@container_internal@absl@@U?$Hash@I@hash_internal@3@U?$equal_to@I@__Cr@std@@V?$allocator@U?$pair@$$CBII@__Cr@std@@@78@@container_internal@absl@@QEAA@PEBU?$pair@II@__Cr@std@@0_KAEBU?$Hash@I@hash_internal@2@AEBU?$equal_to@I@45@AEBV?$allocator@U?$pair@$$CBII@__Cr@std@@@45@@Z
    ??$?0PEBU?$pair@IV?$basic_string@DU?$char_traits@D@__Cr@std@@V?$allocator@D@23@@__Cr@std@@@__Cr@std@@@?$raw_hash_set@U?$FlatHashMapPolicy@IV?$basic_string@DU?$char_traits@D@__Cr@std@@V?$allocator@D@23@@__Cr@std@@@container_internal@absl@@U?$Hash@I@hash_internal@3@U?$equal_to@I@__Cr@std@@V?$allocator@U?$pair@$$CBIV?$basic_string@DU?$char_traits@D@__Cr@std@@V?$allocator@D@23@@__Cr@std@@@__Cr@std@@@78@@container_internal@absl@@QEAA@PEBU?$pair@IV?$basic_string@DU?$char_traits@D@__Cr@std@@V?$allocator@D@23@@__Cr@std@@@__Cr@std@@0_KAEBU?$Hash@I@hash_internal@2@AEBU?$equal_to@I@45@AEBV?$allocator@U?$pair@$$CBIV?$basic_string@DU?$char_traits@D@__Cr@std@@V?$allocator@D@23@@__Cr@std@@@__Cr@std@@@45@@Z
    ??$?0PEBU?$pair@IV?$basic_string@DU?$char_traits@D@__Cr@std@@V?$allocator@D@23@@__Cr@std@@@__Cr@std@@@?$raw_hash_set@V?$NodeHashMapPolicy@IV?$basic_string@DU?$char_traits@D@__Cr@std@@V?$allocator@D@23@@__Cr@std@@@container_internal@absl@@U?$Hash@I@hash_internal@3@U?$equal_to@I@__Cr@std@@V?$allocator@U?$pair@$$CBIV?$basic_string@DU?$char_traits@D@__Cr@std@@V?$allocator@D@23@@__Cr@std@@@__Cr@std@@@78@@container_internal@absl@@QEAA@PEBU?$pair@IV?$basic_string@DU?$char_traits@D@__Cr@std@@V?$allocator@D@23@@__Cr@std@@@__Cr@std@@0_KAEBU?$Hash@I@hash_internal@2@AEBU?$equal_to@I@45@AEBV?$allocator@U?$pair@$$CBIV?$basic_string@DU?$char_traits@D@__Cr@std@@V?$allocator@D@23@@__Cr@std@@@__Cr@std@@@45@@Z
    ??$?0PEBU?$pair@V?$basic_string@DU?$char_traits@D@__Cr@std@@V?$allocator@D@23@@__Cr@std@@H@__Cr@std@@@?$raw_hash_set@U?$FlatHashMapPolicy@V?$basic_string@DU?$char_traits@D@__Cr@std@@V?$allocator@D@23@@__Cr@std@@H@container_internal@absl@@UStringHash@23@UStringEq@23@V?$allocator@U?$pair@$$CBV?$basic_string@DU?$char_traits@D@__Cr@std@@V?$allocator@D@23@@__Cr@std@@H@__Cr@std@@@__Cr@std@@@container_internal@absl@@QEAA@PEBU?$pair@V?$basic_string@DU?$char_traits@D@__Cr@std@@V?$allocator@D@23@@__Cr@std@@H@__Cr@std@@0_KAEBUStringHash@12@AEBUStringEq@12@AEBV?$allocator@U?$pair@$$CBV?$basic_string@DU?$char_traits@D@__Cr@std@@V?$allocator@D@23@@__Cr@std@@H@__Cr@std@@@45@@Z
    ??$?0PEBU?$pair@V?$basic_string@DU?$char_traits@D@__Cr@std@@V?$allocator@D@23@@__Cr@std@@H@__Cr@std@@@?$raw_hash_set@V?$NodeHashMapPolicy@V?$basic_string@DU?$char_traits@D@__Cr@std@@V?$allocator@D@23@@__Cr@std@@H@container_internal@absl@@UStringHash@23@UStringEq@23@V?$allocator@U?$pair@$$CBV?$basic_string@DU?$char_traits@D@__Cr@std@@V?$allocator@D@23@@__Cr@std@@H@__Cr@std@@@__Cr@std@@@container_internal@absl@@QEAA@PEBU?$pair@V?$basic_string@DU?$char_traits@D@__Cr@std@@V?$allocator@D@23@@__Cr@std@@H@__Cr@std@@0_KAEBUStringHash@12@AEBUStringEq@12@AEBV?$allocator@U?$pair@$$CBV?$basic_string@DU?$char_traits@D@__Cr@std@@V?$allocator@D@23@@__Cr@std@@H@__Cr@std@@@45@@Z
    ??$?0PEBU?$pair@V?$basic_string@DU?$char_traits@D@__Cr@std@@V?$allocator@D@23@@__Cr@std@@I@__Cr@std@@@?$raw_hash_set@U?$FlatHashMapPolicy@V?$basic_string@DU?$char_traits@D@__Cr@std@@V?$allocator@D@23@@__Cr@std@@I@container_internal@absl@@UStringHash@23@UStringEq@23@V?$allocator@U?$pair@$$CBV?$basic_string@DU?$char_traits@D@__Cr@std@@V?$allocator@D@23@@__Cr@std@@I@__Cr@std@@@__Cr@std@@@container_internal@absl@@QEAA@PEBU?$pair@V?$basic_string@DU?$char_traits@D@__Cr@std@@V?$allocator@D@23@@__Cr@std@@I@__Cr@std@@0_KAEBUStringHash@12@AEBUStringEq@12@AEBV?$allocator@U?$pair@$$CBV?$basic_string@DU?$char_traits@D@__Cr@std@@V?$allocator@D@23@@__Cr@std@@I@__Cr@std@@@45@@Z
    ??$?0PEBU?$pair@V?$basic_string@DU?$char_traits@D@__Cr@std@@V?$allocator@D@23@@__Cr@std@@I@__Cr@std@@@?$raw_hash_set@V?$NodeHashMapPolicy@V?$basic_string@DU?$char_traits@D@__Cr@std@@V?$allocator@D@23@@__Cr@std@@I@container_internal@absl@@UStringHash@23@UStringEq@23@V?$allocator@U?$pair@$$CBV?$basic_string@DU?$char_traits@D@__Cr@std@@V?$allocator@D@23@@__Cr@std@@I@__Cr@std@@@__Cr@std@@@container_internal@absl@@QEAA@PEBU?$pair@V?$basic_string@DU?$char_traits@D@__Cr@std@@V?$allocator@D@23@@__Cr@std@@I@__Cr@std@@0_KAEBUStringHash@12@AEBUStringEq@12@AEBV?$allocator@U?$pair@$$CBV?$basic_string@DU?$char_traits@D@__Cr@std@@V?$allocator@D@23@@__Cr@std@@I@__Cr@std@@@45@@Z
    ??$?0PEBU?$pair@V?$basic_string@DU?$char_traits@D@__Cr@std@@V?$allocator@D@23@@__Cr@std@@V123@@__Cr@std@@@?$raw_hash_set@U?$FlatHashMapPolicy@V?$basic_string@DU?$char_traits@D@__Cr@std@@V?$allocator@D@23@@__Cr@std@@V123@@container_internal@absl@@UStringHash@23@UStringEq@23@V?$allocator@U?$pair@$$CBV?$basic_string@DU?$char_traits@D@__Cr@std@@V?$allocator@D@23@@__Cr@std@@V123@@__Cr@std@@@__Cr@std@@@container_internal@absl@@QEAA@PEBU?$pair@V?$basic_string@DU?$char_traits@D@__Cr@std@@V?$allocator@D@23@@__Cr@std@@V123@@__Cr@std@@0_KAEBUStringHash@12@AEBUStringEq@12@AEBV?$allocator@U?$pair@$$CBV?$basic_string@DU?$char_traits@D@__Cr@std@@V?$allocator@D@23@@__Cr@std@@V123@@__Cr@std@@@45@@Z
    ??$?0PEBU?$pair@V?$basic_string@DU?$char_traits@D@__Cr@std@@V?$allocator@D@23@@__Cr@std@@V123@@__Cr@std@@@?$raw_hash_set@V?$NodeHashMapPolicy@V?$basic_string@DU?$char_traits@D@__Cr@std@@V?$allocator@D@23@@__Cr@std@@V123@@container_internal@absl@@UStringHash@23@UStringEq@23@V?$allocator@U?$pair@$$CBV?$basic_string@DU?$char_traits@D@__Cr@std@@V?$allocator@D@23@@__Cr@std@@V123@@__Cr@std@@@__Cr@std@@@container_internal@absl@@QEAA@PEBU?$pair@V?$basic_string@DU?$char_traits@D@__Cr@std@@V?$allocator@D@23@@__Cr@std@@V123@@__Cr@std@@0_KAEBUStringHash@12@AEBUStringEq@12@AEBV?$allocator@U?$pair@$$CBV?$basic_string@DU?$char_traits@D@__Cr@std@@V?$allocator@D@23@@__Cr@std@@V123@@__Cr@std@@@45@@Z
    ??$?0PEBU?$pair@V?$basic_string@DU?$char_traits@D@__Cr@std@@V?$allocator@D@23@@__Cr@std@@_J@__Cr@std@@@?$raw_hash_set@U?$FlatHashMapPolicy@V?$basic_string@DU?$char_traits@D@__Cr@std@@V?$allocator@D@23@@__Cr@std@@_J@container_internal@absl@@UStringHash@23@UStringEq@23@V?$allocator@U?$pair@$$CBV?$basic_string@DU?$char_traits@D@__Cr@std@@V?$allocator@D@23@@__Cr@std@@_J@__Cr@std@@@__Cr@std@@@container_internal@absl@@QEAA@PEBU?$pair@V?$basic_string@DU?$char_traits@D@__Cr@std@@V?$allocator@D@23@@__Cr@std@@_J@__Cr@std@@0_KAEBUStringHash@12@AEBUStringEq@12@AEBV?$allocator@U?$pair@$$CBV?$basic_string@DU?$char_traits@D@__Cr@std@@V?$allocator@D@23@@__Cr@std@@_J@__Cr@std@@@45@@Z
    ??$?0PEBU?$pair@V?$basic_string@DU?$char_traits@D@__Cr@std@@V?$allocator@D@23@@__Cr@std@@_J@__Cr@std@@@?$raw_hash_set@V?$NodeHashMapPolicy@V?$basic_string@DU?$char_traits@D@__Cr@std@@V?$allocator@D@23@@__Cr@std@@_J@container_internal@absl@@UStringHash@23@UStringEq@23@V?$allocator@U?$pair@$$CBV?$basic_string@DU?$char_traits@D@__Cr@std@@V?$allocator@D@23@@__Cr@std@@_J@__Cr@std@@@__Cr@std@@@container_internal@absl@@QEAA@PEBU?$pair@V?$basic_string@DU?$char_traits@D@__Cr@std@@V?$allocator@D@23@@__Cr@std@@_J@__Cr@std@@0_KAEBUStringHash@12@AEBUStringEq@12@AEBV?$allocator@U?$pair@$$CBV?$basic_string@DU?$char_traits@D@__Cr@std@@V?$allocator@D@23@@__Cr@std@@_J@__Cr@std@@@45@@Z
    ??$?0PEBU?$pair@V?$basic_string@DU?$char_traits@D@__Cr@std@@V?$allocator@D@23@@__Cr@std@@_K@__Cr@std@@@?$raw_hash_set@U?$FlatHashMapPolicy@V?$basic_string@DU?$char_traits@D@__Cr@std@@V?$allocator@D@23@@__Cr@std@@_K@container_internal@absl@@UStringHash@23@UStringEq@23@V?$allocator@U?$pair@$$CBV?$basic_string@DU?$char_traits@D@__Cr@std@@V?$allocator@D@23@@__Cr@std@@_K@__Cr@std@@@__Cr@std@@@container_internal@absl@@QEAA@PEBU?$pair@V?$basic_string@DU?$char_traits@D@__Cr@std@@V?$allocator@D@23@@__Cr@std@@_K@__Cr@std@@0_KAEBUStringHash@12@AEBUStringEq@12@AEBV?$allocator@U?$pair@$$CBV?$basic_string@DU?$char_traits@D@__Cr@std@@V?$allocator@D@23@@__Cr@std@@_K@__Cr@std@@@45@@Z
    ??$?0PEBU?$pair@V?$basic_string@DU?$char_traits@D@__Cr@std@@V?$allocator@D@23@@__Cr@std@@_K@__Cr@std@@@?$raw_hash_set@V?$NodeHashMapPolicy@V?$basic_string@DU?$char_traits@D@__Cr@std@@V?$allocator@D@23@@__Cr@std@@_K@container_internal@absl@@UStringHash@23@UStringEq@23@V?$allocator@U?$pair@$$CBV?$basic_string@DU?$char_traits@D@__Cr@std@@V?$allocator@D@23@@__Cr@std@@_K@__Cr@std@@@__Cr@std@@@container_internal@absl@@QEAA@PEBU?$pair@V?$basic_string@DU?$char_traits@D@__Cr@std@@V?$allocator@D@23@@__Cr@std@@_K@__Cr@std@@0_KAEBUStringHash@12@AEBUStringEq@12@AEBV?$allocator@U?$pair@$$CBV?$basic_string@DU?$char_traits@D@__Cr@std@@V?$allocator@D@23@@__Cr@std@@_K@__Cr@std@@@45@@Z
    ??$?0PEBU?$pair@_JV?$basic_string@DU?$char_traits@D@__Cr@std@@V?$allocator@D@23@@__Cr@std@@@__Cr@std@@@?$raw_hash_set@U?$FlatHashMapPolicy@_JV?$basic_string@DU?$char_traits@D@__Cr@std@@V?$allocator@D@23@@__Cr@std@@@container_internal@absl@@U?$Hash@_J@hash_internal@3@U?$equal_to@_J@__Cr@std@@V?$allocator@U?$pair@$$CB_JV?$basic_string@DU?$char_traits@D@__Cr@std@@V?$allocator@D@23@@__Cr@std@@@__Cr@std@@@78@@container_internal@absl@@QEAA@PEBU?$pair@_JV?$basic_string@DU?$char_traits@D@__Cr@std@@V?$allocator@D@23@@__Cr@std@@@__Cr@std@@0_KAEBU?$Hash@_J@hash_internal@2@AEBU?$equal_to@_J@45@AEBV?$allocator@U?$pair@$$CB_JV?$basic_string@DU?$char_traits@D@__Cr@std@@V?$allocator@D@23@@__Cr@std@@@__Cr@std@@@45@@Z
    ??$?0PEBU?$pair@_JV?$basic_string@DU?$char_traits@D@__Cr@std@@V?$allocator@D@23@@__Cr@std@@@__Cr@std@@@?$raw_hash_set@V?$NodeHashMapPolicy@_JV?$basic_string@DU?$char_traits@D@__Cr@std@@V?$allocator@D@23@@__Cr@std@@@container_internal@absl@@U?$Hash@_J@hash_internal@3@U?$equal_to@_J@__Cr@std@@V?$allocator@U?$pair@$$CB_JV?$basic_string@DU?$char_traits@D@__Cr@std@@V?$allocator@D@23@@__Cr@std@@@__Cr@std@@@78@@container_internal@absl@@QEAA@PEBU?$pair@_JV?$basic_string@DU?$char_traits@D@__Cr@std@@V?$allocator@D@23@@__Cr@std@@@__Cr@std@@0_KAEBU?$Hash@_J@hash_internal@2@AEBU?$equal_to@_J@45@AEBV?$allocator@U?$pair@$$CB_JV?$basic_string@DU?$char_traits@D@__Cr@std@@V?$allocator@D@23@@__Cr@std@@@__Cr@std@@@45@@Z
    ??$?0PEBU?$pair@_J_J@__Cr@std@@@?$raw_hash_set@U?$FlatHashMapPolicy@_J_J@container_internal@absl@@U?$Hash@_J@hash_internal@3@U?$equal_to@_J@__Cr@std@@V?$allocator@U?$pair@$$CB_J_J@__Cr@std@@@78@@container_internal@absl@@QEAA@PEBU?$pair@_J_J@__Cr@std@@0_KAEBU?$Hash@_J@hash_internal@2@AEBU?$equal_to@_J@45@AEBV?$allocator@U?$pair@$$CB_J_J@__Cr@std@@@45@@Z
    ??$?0PEBU?$pair@_J_J@__Cr@std@@@?$raw_hash_set@V?$NodeHashMapPolicy@_J_J@container_internal@absl@@U?$Hash@_J@hash_internal@3@U?$equal_to@_J@__Cr@std@@V?$allocator@U?$pair@$$CB_J_J@__Cr@std@@@78@@container_internal@absl@@QEAA@PEBU?$pair@_J_J@__Cr@std@@0_KAEBU?$Hash@_J@hash_internal@2@AEBU?$equal_to@_J@45@AEBV?$allocator@U?$pair@$$CB_J_J@__Cr@std@@@45@@Z
    ??$?0PEBU?$pair@_KV?$basic_string@DU?$char_traits@D@__Cr@std@@V?$allocator@D@23@@__Cr@std@@@__Cr@std@@@?$raw_hash_set@U?$FlatHashMapPolicy@_KV?$basic_string@DU?$char_traits@D@__Cr@std@@V?$allocator@D@23@@__Cr@std@@@container_internal@absl@@U?$Hash@_K@hash_internal@3@U?$equal_to@_K@__Cr@std@@V?$allocator@U?$pair@$$CB_KV?$basic_string@DU?$char_traits@D@__Cr@std@@V?$allocator@D@23@@__Cr@std@@@__Cr@std@@@78@@container_internal@absl@@QEAA@PEBU?$pair@_KV?$basic_string@DU?$char_traits@D@__Cr@std@@V?$allocator@D@23@@__Cr@std@@@__Cr@std@@0_KAEBU?$Hash@_K@hash_internal@2@AEBU?$equal_to@_K@45@AEBV?$allocator@U?$pair@$$CB_KV?$basic_string@DU?$char_traits@D@__Cr@std@@V?$allocator@D@23@@__Cr@std@@@__Cr@std@@@45@@Z
    ??$?0PEBU?$pair@_KV?$basic_string@DU?$char_traits@D@__Cr@std@@V?$allocator@D@23@@__Cr@std@@@__Cr@std@@@?$raw_hash_set@V?$NodeHashMapPolicy@_KV?$basic_string@DU?$char_traits@D@__Cr@std@@V?$allocator@D@23@@__Cr@std@@@container_internal@absl@@U?$Hash@_K@hash_internal@3@U?$equal_to@_K@__Cr@std@@V?$allocator@U?$pair@$$CB_KV?$basic_string@DU?$char_traits@D@__Cr@std@@V?$allocator@D@23@@__Cr@std@@@__Cr@std@@@78@@container_internal@absl@@QEAA@PEBU?$pair@_KV?$basic_string@DU?$char_traits@D@__Cr@std@@V?$allocator@D@23@@__Cr@std@@@__Cr@std@@0_KAEBU?$Hash@_K@hash_internal@2@AEBU?$equal_to@_K@45@AEBV?$allocator@U?$pair@$$CB_KV?$basic_string@DU?$char_traits@D@__Cr@std@@V?$allocator@D@23@@__Cr@std@@@__Cr@std@@@45@@Z
    ??$?0PEBU?$pair@_K_K@__Cr@std@@@?$raw_hash_set@U?$FlatHashMapPolicy@_K_K@container_internal@absl@@U?$Hash@_K@hash_internal@3@U?$equal_to@_K@__Cr@std@@V?$allocator@U?$pair@$$CB_K_K@__Cr@std@@@78@@container_internal@absl@@QEAA@PEBU?$pair@_K_K@__Cr@std@@0_KAEBU?$Hash@_K@hash_internal@2@AEBU?$equal_to@_K@45@AEBV?$allocator@U?$pair@$$CB_K_K@__Cr@std@@@45@@Z
    ??$?0PEBU?$pair@_K_K@__Cr@std@@@?$raw_hash_set@V?$NodeHashMapPolicy@_K_K@container_internal@absl@@U?$Hash@_K@hash_internal@3@U?$equal_to@_K@__Cr@std@@V?$allocator@U?$pair@$$CB_K_K@__Cr@std@@@78@@container_internal@absl@@QEAA@PEBU?$pair@_K_K@__Cr@std@@0_KAEBU?$Hash@_K@hash_internal@2@AEBU?$equal_to@_K@45@AEBV?$allocator@U?$pair@$$CB_K_K@__Cr@std@@@45@@Z
    ??$?0PEBUPrefixCrc@CrcCordState@crc_internal@absl@@PEAU0123@$0A@@?$pair@PEBUPrefixCrc@CrcCordState@crc_internal@absl@@PEAU1234@@__Cr@std@@QEAA@$$QEAPEBUPrefixCrc@CrcCordState@crc_internal@absl@@$$QEAPEAU3456@@Z
    ??$?0PEBUPrefixCrc@CrcCordState@crc_internal@absl@@PEBU0123@$0A@@?$pair@PEBUPrefixCrc@CrcCordState@crc_internal@absl@@PEBU1234@@__Cr@std@@QEAA@$$QEAPEBUPrefixCrc@CrcCordState@crc_internal@absl@@0@Z
    ??$?0PEBUPrefixCrc@CrcCordState@crc_internal@absl@@V?$__deque_iterator@UPrefixCrc@CrcCordState@crc_internal@absl@@PEAU1234@AEAU1234@PEAPEAU1234@_J$0A@@__Cr@std@@$0A@@?$pair@PEBUPrefixCrc@CrcCordState@crc_internal@absl@@V?$__deque_iterator@UPrefixCrc@CrcCordState@crc_internal@absl@@PEAU1234@AEAU1234@PEAPEAU1234@_J$0A@@__Cr@std@@@__Cr@std@@QEAA@$$QEAPEBUPrefixCrc@CrcCordState@crc_internal@absl@@$$QEAV?$__deque_iterator@UPrefixCrc@CrcCordState@crc_internal@absl@@PEAU1234@AEAU1234@PEAPEAU1234@_J$0A@@12@@Z
    ??$?0PEBV?$basic_string@DU?$char_traits@D@__Cr@std@@V?$allocator@D@23@@__Cr@std@@@?$raw_hash_set@U?$FlatHashSetPolicy@V?$basic_string@DU?$char_traits@D@__Cr@std@@V?$allocator@D@23@@__Cr@std@@@container_internal@absl@@UStringHash@23@UStringEq@23@V?$allocator@V?$basic_string@DU?$char_traits@D@__Cr@std@@V?$allocator@D@23@@__Cr@std@@@__Cr@std@@@container_internal@absl@@QEAA@PEBV?$basic_string@DU?$char_traits@D@__Cr@std@@V?$allocator@D@23@@__Cr@std@@0_KAEBUStringHash@12@AEBUStringEq@12@AEBV?$allocator@V?$basic_string@DU?$char_traits@D@__Cr@std@@V?$allocator@D@23@@__Cr@std@@@45@@Z
    ??$?0PEBV?$basic_string@DU?$char_traits@D@__Cr@std@@V?$allocator@D@23@@__Cr@std@@@?$raw_hash_set@U?$NodeHashSetPolicy@V?$basic_string@DU?$char_traits@D@__Cr@std@@V?$allocator@D@23@@__Cr@std@@@container_internal@absl@@UStringHash@23@UStringEq@23@V?$allocator@V?$basic_string@DU?$char_traits@D@__Cr@std@@V?$allocator@D@23@@__Cr@std@@@__Cr@std@@@container_internal@absl@@QEAA@PEBV?$basic_string@DU?$char_traits@D@__Cr@std@@V?$allocator@D@23@@__Cr@std@@0_KAEBUStringHash@12@AEBUStringEq@12@AEBV?$allocator@V?$basic_string@DU?$char_traits@D@__Cr@std@@V?$allocator@D@23@@__Cr@std@@@45@@Z
    ??$?0PEBVFormatArgImpl@str_format_internal@absl@@$0A@@?$InlinedVector@VFormatArgImpl@str_format_internal@absl@@$03V?$allocator@VFormatArgImpl@str_format_internal@absl@@@__Cr@std@@@absl@@QEAA@PEBVFormatArgImpl@str_format_internal@1@0AEBV?$allocator@VFormatArgImpl@str_format_internal@absl@@@__Cr@std@@@Z
    ??$?0PEB_J@?$raw_hash_set@U?$FlatHashSetPolicy@_J@container_internal@absl@@U?$Hash@_J@hash_internal@3@U?$equal_to@_J@__Cr@std@@V?$allocator@_J@78@@container_internal@absl@@QEAA@PEB_J0_KAEBU?$Hash@_J@hash_internal@2@AEBU?$equal_to@_J@__Cr@std@@AEBV?$allocator@_J@67@@Z
    ??$?0PEB_J@?$raw_hash_set@U?$NodeHashSetPolicy@_J@container_internal@absl@@U?$Hash@_J@hash_internal@3@U?$equal_to@_J@__Cr@std@@V?$allocator@_J@78@@container_internal@absl@@QEAA@PEB_J0_KAEBU?$Hash@_J@hash_internal@2@AEBU?$equal_to@_J@__Cr@std@@AEBV?$allocator@_J@67@@Z
    ??$?0PEB_K@?$raw_hash_set@U?$FlatHashSetPolicy@_K@container_internal@absl@@U?$Hash@_K@hash_internal@3@U?$equal_to@_K@__Cr@std@@V?$allocator@_K@78@@container_internal@absl@@QEAA@PEB_K0_KAEBU?$Hash@_K@hash_internal@2@AEBU?$equal_to@_K@__Cr@std@@AEBV?$allocator@_K@67@@Z
    ??$?0PEB_K@?$raw_hash_set@U?$NodeHashSetPolicy@_K@container_internal@absl@@U?$Hash@_K@hash_internal@3@U?$equal_to@_K@__Cr@std@@V?$allocator@_K@78@@container_internal@absl@@QEAA@PEB_K0_KAEBU?$Hash@_K@hash_internal@2@AEBU?$equal_to@_K@__Cr@std@@AEBV?$allocator@_K@67@@Z
    ??$?0U?$Hash@C@hash_internal@absl@@@?$Storage@U?$Hash@C@hash_internal@absl@@$00$00@internal_compressed_tuple@container_internal@absl@@QEAA@Uin_place_t@__Cr@std@@$$QEAU?$Hash@C@hash_internal@3@@Z
    ??$?0U?$Hash@E@hash_internal@absl@@@?$Storage@U?$Hash@E@hash_internal@absl@@$00$00@internal_compressed_tuple@container_internal@absl@@QEAA@Uin_place_t@__Cr@std@@$$QEAU?$Hash@E@hash_internal@3@@Z
    ??$?0U?$Hash@F@hash_internal@absl@@@?$Storage@U?$Hash@F@hash_internal@absl@@$00$00@internal_compressed_tuple@container_internal@absl@@QEAA@Uin_place_t@__Cr@std@@$$QEAU?$Hash@F@hash_internal@3@@Z
    ??$?0U?$Hash@G@hash_internal@absl@@@?$Storage@U?$Hash@G@hash_internal@absl@@$00$00@internal_compressed_tuple@container_internal@absl@@QEAA@Uin_place_t@__Cr@std@@$$QEAU?$Hash@G@hash_internal@3@@Z
    ??$?0U?$Hash@H@hash_internal@absl@@@?$Storage@U?$Hash@H@hash_internal@absl@@$00$00@internal_compressed_tuple@container_internal@absl@@QEAA@Uin_place_t@__Cr@std@@$$QEAU?$Hash@H@hash_internal@3@@Z
    ??$?0U?$Hash@I@hash_internal@absl@@@?$Storage@U?$Hash@I@hash_internal@absl@@$00$00@internal_compressed_tuple@container_internal@absl@@QEAA@Uin_place_t@__Cr@std@@$$QEAU?$Hash@I@hash_internal@3@@Z
    ??$?0U?$Hash@_J@hash_internal@absl@@@?$Storage@U?$Hash@_J@hash_internal@absl@@$00$00@internal_compressed_tuple@container_internal@absl@@QEAA@Uin_place_t@__Cr@std@@$$QEAU?$Hash@_J@hash_internal@3@@Z
    ??$?0U?$Hash@_K@hash_internal@absl@@@?$Storage@U?$Hash@_K@hash_internal@absl@@$00$00@internal_compressed_tuple@container_internal@absl@@QEAA@Uin_place_t@__Cr@std@@$$QEAU?$Hash@_K@hash_internal@3@@Z
    ??$?0U?$array@D$0DKJI@@__Cr@std@@XU012@H@?$Span@D@absl@@QEAA@AEAU?$array@D$0DKJI@@__Cr@std@@@Z
    ??$?0U?$default_delete@V?$InlinedVector@UPayload@status_internal@absl@@$00V?$allocator@UPayload@status_internal@absl@@@__Cr@std@@@absl@@@__Cr@std@@$0A@@?$__compressed_pair_elem@U?$default_delete@V?$InlinedVector@UPayload@status_internal@absl@@$00V?$allocator@UPayload@status_internal@absl@@@__Cr@std@@@absl@@@__Cr@std@@$00$00@__Cr@std@@QEAA@$$QEAU?$default_delete@V?$InlinedVector@UPayload@status_internal@absl@@$00V?$allocator@UPayload@status_internal@absl@@@__Cr@std@@@absl@@@12@@Z
    ??$?0U?$default_delete@VFallbackCrcMemcpyEngine@crc_internal@absl@@@__Cr@std@@$0A@@?$__compressed_pair_elem@U?$default_delete@VCrcMemcpyEngine@crc_internal@absl@@@__Cr@std@@$00$00@__Cr@std@@QEAA@$$QEAU?$default_delete@VFallbackCrcMemcpyEngine@crc_internal@absl@@@12@@Z
    ??$?0U?$default_delete@VFlagState@flags_internal@absl@@@__Cr@std@@$0A@@?$__compressed_pair_elem@U?$default_delete@VFlagStateInterface@flags_internal@absl@@@__Cr@std@@$00$00@__Cr@std@@QEAA@$$QEAU?$default_delete@VFlagState@flags_internal@absl@@@12@@Z
    ??$?0U?$default_delete@VFlagStateInterface@flags_internal@absl@@@__Cr@std@@$0A@@?$__compressed_pair_elem@U?$default_delete@VFlagStateInterface@flags_internal@absl@@@__Cr@std@@$00$00@__Cr@std@@QEAA@$$QEAU?$default_delete@VFlagStateInterface@flags_internal@absl@@@12@@Z
    ??$?0U?$default_delete@VTimeZoneInfo@cctz@time_internal@absl@@@__Cr@std@@$0A@@?$__compressed_pair_elem@U?$default_delete@VTimeZoneIf@cctz@time_internal@absl@@@__Cr@std@@$00$00@__Cr@std@@QEAA@$$QEAU?$default_delete@VTimeZoneInfo@cctz@time_internal@absl@@@12@@Z
    ??$?0U?$default_delete@VTimeZoneLibC@cctz@time_internal@absl@@@__Cr@std@@$0A@@?$__compressed_pair_elem@U?$default_delete@VTimeZoneIf@cctz@time_internal@absl@@@__Cr@std@@$00$00@__Cr@std@@QEAA@$$QEAU?$default_delete@VTimeZoneLibC@cctz@time_internal@absl@@@12@@Z
    ??$?0U?$equal_to@C@__Cr@std@@@?$Storage@U?$equal_to@C@__Cr@std@@$01$00@internal_compressed_tuple@container_internal@absl@@QEAA@Uin_place_t@__Cr@std@@$$QEAU?$equal_to@C@56@@Z
    ??$?0U?$equal_to@E@__Cr@std@@@?$Storage@U?$equal_to@E@__Cr@std@@$01$00@internal_compressed_tuple@container_internal@absl@@QEAA@Uin_place_t@__Cr@std@@$$QEAU?$equal_to@E@56@@Z
    ??$?0U?$equal_to@F@__Cr@std@@@?$Storage@U?$equal_to@F@__Cr@std@@$01$00@internal_compressed_tuple@container_internal@absl@@QEAA@Uin_place_t@__Cr@std@@$$QEAU?$equal_to@F@56@@Z
    ??$?0U?$equal_to@G@__Cr@std@@@?$Storage@U?$equal_to@G@__Cr@std@@$01$00@internal_compressed_tuple@container_internal@absl@@QEAA@Uin_place_t@__Cr@std@@$$QEAU?$equal_to@G@56@@Z
    ??$?0U?$equal_to@H@__Cr@std@@@?$Storage@U?$equal_to@H@__Cr@std@@$01$00@internal_compressed_tuple@container_internal@absl@@QEAA@Uin_place_t@__Cr@std@@$$QEAU?$equal_to@H@56@@Z
    ??$?0U?$equal_to@I@__Cr@std@@@?$Storage@U?$equal_to@I@__Cr@std@@$01$00@internal_compressed_tuple@container_internal@absl@@QEAA@Uin_place_t@__Cr@std@@$$QEAU?$equal_to@I@56@@Z
    ??$?0U?$equal_to@_J@__Cr@std@@@?$Storage@U?$equal_to@_J@__Cr@std@@$01$00@internal_compressed_tuple@container_internal@absl@@QEAA@Uin_place_t@__Cr@std@@$$QEAU?$equal_to@_J@56@@Z
    ??$?0U?$equal_to@_K@__Cr@std@@@?$Storage@U?$equal_to@_K@__Cr@std@@$01$00@internal_compressed_tuple@container_internal@absl@@QEAA@Uin_place_t@__Cr@std@@$$QEAU?$equal_to@_K@56@@Z
    ??$?0U?$pair@$$CBHH@__Cr@std@@@?$allocator@U?$AlignedType@$07@container_internal@absl@@@__Cr@std@@QEAA@AEBV?$allocator@U?$pair@$$CBHH@__Cr@std@@@12@@Z
    ??$?0U?$pair@$$CBHV?$basic_string@DU?$char_traits@D@__Cr@std@@V?$allocator@D@23@@__Cr@std@@@__Cr@std@@@?$allocator@U?$AlignedType@$07@container_internal@absl@@@__Cr@std@@QEAA@AEBV?$allocator@U?$pair@$$CBHV?$basic_string@DU?$char_traits@D@__Cr@std@@V?$allocator@D@23@@__Cr@std@@@__Cr@std@@@12@@Z
    ??$?0U?$pair@$$CBII@__Cr@std@@@?$allocator@U?$AlignedType@$07@container_internal@absl@@@__Cr@std@@QEAA@AEBV?$allocator@U?$pair@$$CBII@__Cr@std@@@12@@Z
    ??$?0U?$pair@$$CBIV?$basic_string@DU?$char_traits@D@__Cr@std@@V?$allocator@D@23@@__Cr@std@@@__Cr@std@@@?$allocator@U?$AlignedType@$07@container_internal@absl@@@__Cr@std@@QEAA@AEBV?$allocator@U?$pair@$$CBIV?$basic_string@DU?$char_traits@D@__Cr@std@@V?$allocator@D@23@@__Cr@std@@@__Cr@std@@@12@@Z
    ??$?0U?$pair@$$CBV?$basic_string@DU?$char_traits@D@__Cr@std@@V?$allocator@D@23@@__Cr@std@@H@__Cr@std@@@?$allocator@U?$AlignedType@$07@container_internal@absl@@@__Cr@std@@QEAA@AEBV?$allocator@U?$pair@$$CBV?$basic_string@DU?$char_traits@D@__Cr@std@@V?$allocator@D@23@@__Cr@std@@H@__Cr@std@@@12@@Z
    ??$?0U?$pair@$$CBV?$basic_string@DU?$char_traits@D@__Cr@std@@V?$allocator@D@23@@__Cr@std@@I@__Cr@std@@@?$allocator@U?$AlignedType@$07@container_internal@absl@@@__Cr@std@@QEAA@AEBV?$allocator@U?$pair@$$CBV?$basic_string@DU?$char_traits@D@__Cr@std@@V?$allocator@D@23@@__Cr@std@@I@__Cr@std@@@12@@Z
    ??$?0U?$pair@$$CBV?$basic_string@DU?$char_traits@D@__Cr@std@@V?$allocator@D@23@@__Cr@std@@V123@@__Cr@std@@@?$allocator@U?$AlignedType@$07@container_internal@absl@@@__Cr@std@@QEAA@AEBV?$allocator@U?$pair@$$CBV?$basic_string@DU?$char_traits@D@__Cr@std@@V?$allocator@D@23@@__Cr@std@@V123@@__Cr@std@@@12@@Z
    ??$?0U?$pair@$$CBV?$basic_string@DU?$char_traits@D@__Cr@std@@V?$allocator@D@23@@__Cr@std@@_J@__Cr@std@@@?$allocator@U?$AlignedType@$07@container_internal@absl@@@__Cr@std@@QEAA@AEBV?$allocator@U?$pair@$$CBV?$basic_string@DU?$char_traits@D@__Cr@std@@V?$allocator@D@23@@__Cr@std@@_J@__Cr@std@@@12@@Z
    ??$?0U?$pair@$$CBV?$basic_string@DU?$char_traits@D@__Cr@std@@V?$allocator@D@23@@__Cr@std@@_K@__Cr@std@@@?$allocator@U?$AlignedType@$07@container_internal@absl@@@__Cr@std@@QEAA@AEBV?$allocator@U?$pair@$$CBV?$basic_string@DU?$char_traits@D@__Cr@std@@V?$allocator@D@23@@__Cr@std@@_K@__Cr@std@@@12@@Z
    ??$?0U?$pair@$$CBV?$basic_string_view@DU?$char_traits@D@__Cr@std@@@__Cr@std@@PEAVCommandLineFlag@absl@@@__Cr@std@@@?$allocator@D@__Cr@std@@QEAA@AEBV?$allocator@U?$pair@$$CBV?$basic_string_view@DU?$char_traits@D@__Cr@std@@@__Cr@std@@PEAVCommandLineFlag@absl@@@__Cr@std@@@12@@Z
    ??$?0U?$pair@$$CBV?$basic_string_view@DU?$char_traits@D@__Cr@std@@@__Cr@std@@PEAVCommandLineFlag@absl@@@__Cr@std@@@?$allocator@U?$AlignedType@$07@container_internal@absl@@@__Cr@std@@QEAA@AEBV?$allocator@U?$pair@$$CBV?$basic_string_view@DU?$char_traits@D@__Cr@std@@@__Cr@std@@PEAVCommandLineFlag@absl@@@__Cr@std@@@12@@Z
    ??$?0U?$pair@$$CB_JV?$basic_string@DU?$char_traits@D@__Cr@std@@V?$allocator@D@23@@__Cr@std@@@__Cr@std@@@?$allocator@U?$AlignedType@$07@container_internal@absl@@@__Cr@std@@QEAA@AEBV?$allocator@U?$pair@$$CB_JV?$basic_string@DU?$char_traits@D@__Cr@std@@V?$allocator@D@23@@__Cr@std@@@__Cr@std@@@12@@Z
    ??$?0U?$pair@$$CB_J_J@__Cr@std@@@?$allocator@U?$AlignedType@$07@container_internal@absl@@@__Cr@std@@QEAA@AEBV?$allocator@U?$pair@$$CB_J_J@__Cr@std@@@12@@Z
    ??$?0U?$pair@$$CB_KV?$basic_string@DU?$char_traits@D@__Cr@std@@V?$allocator@D@23@@__Cr@std@@@__Cr@std@@@?$allocator@U?$AlignedType@$07@container_internal@absl@@@__Cr@std@@QEAA@AEBV?$allocator@U?$pair@$$CB_KV?$basic_string@DU?$char_traits@D@__Cr@std@@V?$allocator@D@23@@__Cr@std@@@__Cr@std@@@12@@Z
    ??$?0U?$pair@$$CB_K_K@__Cr@std@@@?$allocator@U?$AlignedType@$07@container_internal@absl@@@__Cr@std@@QEAA@AEBV?$allocator@U?$pair@$$CB_K_K@__Cr@std@@@12@@Z
    ??$?0UDynValueDeleter@flags_internal@absl@@$0A@@?$__compressed_pair_elem@UDynValueDeleter@flags_internal@absl@@$00$0A@@__Cr@std@@QEAA@$$QEAUDynValueDeleter@flags_internal@absl@@@Z
    ??$?0UHex@absl@@X@AlphaNum@absl@@QEAA@AEBUHex@1@$$QEAVStringifySink@strings_internal@1@@Z
    ??$?0UStringEq@container_internal@absl@@@?$Storage@UStringEq@container_internal@absl@@$01$00@internal_compressed_tuple@container_internal@absl@@QEAA@Uin_place_t@__Cr@std@@$$QEAUStringEq@23@@Z
    ??$?0UStringHash@container_internal@absl@@@?$Storage@UStringHash@container_internal@absl@@$00$00@internal_compressed_tuple@container_internal@absl@@QEAA@Uin_place_t@__Cr@std@@$$QEAUStringHash@23@@Z
    ??$?0USynchEvent@absl@@@Condition@absl@@QEAA@P6A_NPEAUSynchEvent@1@@Z0@Z
    ??$?0U__value_init_tag@__Cr@std@@U012@@?$__compressed_pair@PEAPEAU?$__hash_node_base@PEAU?$__hash_node@PEBUCordRep@cord_internal@absl@@PEAX@__Cr@std@@@__Cr@std@@V?$__bucket_list_deallocator@V?$allocator@PEAU?$__hash_node_base@PEAU?$__hash_node@PEBUCordRep@cord_internal@absl@@PEAX@__Cr@std@@@__Cr@std@@@__Cr@std@@@23@@__Cr@std@@QEAA@$$QEAU__value_init_tag@12@0@Z
    ??$?0U__value_init_tag@__Cr@std@@U012@@?$__compressed_pair@PEAPEAU?$__hash_node_base@PEAU?$__hash_node@U?$__hash_value_type@V?$basic_string@DU?$char_traits@D@__Cr@std@@V?$allocator@D@23@@__Cr@std@@PEBVImpl@time_zone@cctz@time_internal@absl@@@__Cr@std@@PEAX@__Cr@std@@@__Cr@std@@V?$__bucket_list_deallocator@V?$allocator@PEAU?$__hash_node_base@PEAU?$__hash_node@U?$__hash_value_type@V?$basic_string@DU?$char_traits@D@__Cr@std@@V?$allocator@D@23@@__Cr@std@@PEBVImpl@time_zone@cctz@time_internal@absl@@@__Cr@std@@PEAX@__Cr@std@@@__Cr@std@@@__Cr@std@@@23@@__Cr@std@@QEAA@$$QEAU__value_init_tag@12@0@Z
    ??$?0U__value_init_tag@__Cr@std@@U012@@?$__compressed_pair@PEAV?$InlinedVector@UPayload@status_internal@absl@@$00V?$allocator@UPayload@status_internal@absl@@@__Cr@std@@@absl@@U?$default_delete@V?$InlinedVector@UPayload@status_internal@absl@@$00V?$allocator@UPayload@status_internal@absl@@@__Cr@std@@@absl@@@__Cr@std@@@__Cr@std@@QEAA@$$QEAU__value_init_tag@12@0@Z
    ??$?0U__value_init_tag@__Cr@std@@U012@@?$__compressed_pair@PEAVFlagStateInterface@flags_internal@absl@@U?$default_delete@VFlagStateInterface@flags_internal@absl@@@__Cr@std@@@__Cr@std@@QEAA@$$QEAU__value_init_tag@12@0@Z
    ??$?0U__value_init_tag@__Cr@std@@U012@@?$__compressed_pair@PEAVZoneInfoSource@cctz@time_internal@absl@@U?$default_delete@VZoneInfoSource@cctz@time_internal@absl@@@__Cr@std@@@__Cr@std@@QEAA@$$QEAU__value_init_tag@12@0@Z
    ??$?0U__value_init_tag@__Cr@std@@U012@@?$__compressed_pair@PEAXUDynValueDeleter@flags_internal@absl@@@__Cr@std@@QEAA@$$QEAU__value_init_tag@12@0@Z
    ??$?0Uday_tag@detail@cctz@time_internal@absl@@@?$civil_time@Umonth_tag@detail@cctz@time_internal@absl@@@detail@cctz@time_internal@absl@@QEAA@AEBV?$civil_time@Uday_tag@detail@cctz@time_internal@absl@@@1234@PEAX@Z
    ??$?0Uday_tag@detail@cctz@time_internal@absl@@@?$civil_time@Usecond_tag@detail@cctz@time_internal@absl@@@detail@cctz@time_internal@absl@@QEAA@AEBV?$civil_time@Uday_tag@detail@cctz@time_internal@absl@@@1234@PEAX@Z
    ??$?0Uday_tag@detail@cctz@time_internal@absl@@@?$civil_time@Uyear_tag@detail@cctz@time_internal@absl@@@detail@cctz@time_internal@absl@@QEAA@AEBV?$civil_time@Uday_tag@detail@cctz@time_internal@absl@@@1234@PEAX@Z
    ??$?0Uday_tag@time_internal@absl@@@?$civil_time@Uhour_tag@time_internal@absl@@@detail@cctz@time_internal@absl@@QEAA@AEBV?$civil_time@Uday_tag@time_internal@absl@@@1234@PEAX@Z
    ??$?0Uday_tag@time_internal@absl@@@?$civil_time@Uminute_tag@time_internal@absl@@@detail@cctz@time_internal@absl@@QEAA@AEBV?$civil_time@Uday_tag@time_internal@absl@@@1234@PEAX@Z
    ??$?0Uday_tag@time_internal@absl@@@?$civil_time@Umonth_tag@time_internal@absl@@@detail@cctz@time_internal@absl@@QEAA@AEBV?$civil_time@Uday_tag@time_internal@absl@@@1234@PEAX@Z
    ??$?0Uday_tag@time_internal@absl@@@?$civil_time@Usecond_tag@time_internal@absl@@@detail@cctz@time_internal@absl@@QEAA@AEBV?$civil_time@Uday_tag@time_internal@absl@@@1234@PEAX@Z
    ??$?0Uday_tag@time_internal@absl@@@?$civil_time@Uyear_tag@time_internal@absl@@@detail@cctz@time_internal@absl@@QEAA@AEBV?$civil_time@Uday_tag@time_internal@absl@@@1234@PEAX@Z
    ??$?0Uhour_tag@detail@cctz@time_internal@absl@@@?$civil_time@Uday_tag@detail@cctz@time_internal@absl@@@detail@cctz@time_internal@absl@@QEAA@AEBV?$civil_time@Uhour_tag@detail@cctz@time_internal@absl@@@1234@PEAX@Z
    ??$?0Uhour_tag@time_internal@absl@@@?$civil_time@Uday_tag@time_internal@absl@@@detail@cctz@time_internal@absl@@QEAA@AEBV?$civil_time@Uhour_tag@time_internal@absl@@@1234@PEAX@Z
    ??$?0Uhour_tag@time_internal@absl@@@?$civil_time@Uminute_tag@time_internal@absl@@@detail@cctz@time_internal@absl@@QEAA@AEBV?$civil_time@Uhour_tag@time_internal@absl@@@1234@PEAX@Z
    ??$?0Uhour_tag@time_internal@absl@@@?$civil_time@Umonth_tag@time_internal@absl@@@detail@cctz@time_internal@absl@@QEAA@AEBV?$civil_time@Uhour_tag@time_internal@absl@@@1234@PEAX@Z
    ??$?0Uhour_tag@time_internal@absl@@@?$civil_time@Usecond_tag@time_internal@absl@@@detail@cctz@time_internal@absl@@QEAA@AEBV?$civil_time@Uhour_tag@time_internal@absl@@@1234@PEAX@Z
    ??$?0Uhour_tag@time_internal@absl@@@?$civil_time@Uyear_tag@time_internal@absl@@@detail@cctz@time_internal@absl@@QEAA@AEBV?$civil_time@Uhour_tag@time_internal@absl@@@1234@PEAX@Z
    ??$?0Uminute_tag@detail@cctz@time_internal@absl@@@?$civil_time@Uhour_tag@detail@cctz@time_internal@absl@@@detail@cctz@time_internal@absl@@QEAA@AEBV?$civil_time@Uminute_tag@detail@cctz@time_internal@absl@@@1234@PEAX@Z
    ??$?0Uminute_tag@time_internal@absl@@@?$civil_time@Uday_tag@time_internal@absl@@@detail@cctz@time_internal@absl@@QEAA@AEBV?$civil_time@Uminute_tag@time_internal@absl@@@1234@PEAX@Z
    ??$?0Uminute_tag@time_internal@absl@@@?$civil_time@Uhour_tag@time_internal@absl@@@detail@cctz@time_internal@absl@@QEAA@AEBV?$civil_time@Uminute_tag@time_internal@absl@@@1234@PEAX@Z
    ??$?0Uminute_tag@time_internal@absl@@@?$civil_time@Umonth_tag@time_internal@absl@@@detail@cctz@time_internal@absl@@QEAA@AEBV?$civil_time@Uminute_tag@time_internal@absl@@@1234@PEAX@Z
    ??$?0Uminute_tag@time_internal@absl@@@?$civil_time@Usecond_tag@time_internal@absl@@@detail@cctz@time_internal@absl@@QEAA@AEBV?$civil_time@Uminute_tag@time_internal@absl@@@1234@PEAX@Z
    ??$?0Uminute_tag@time_internal@absl@@@?$civil_time@Uyear_tag@time_internal@absl@@@detail@cctz@time_internal@absl@@QEAA@AEBV?$civil_time@Uminute_tag@time_internal@absl@@@1234@PEAX@Z
    ??$?0Umonth_tag@detail@cctz@time_internal@absl@@@?$civil_time@Uyear_tag@detail@cctz@time_internal@absl@@@detail@cctz@time_internal@absl@@QEAA@AEBV?$civil_time@Umonth_tag@detail@cctz@time_internal@absl@@@1234@PEAX@Z
    ??$?0Umonth_tag@time_internal@absl@@@?$civil_time@Uday_tag@time_internal@absl@@@detail@cctz@time_internal@absl@@QEAA@AEBV?$civil_time@Umonth_tag@time_internal@absl@@@1234@PEAX@Z
    ??$?0Umonth_tag@time_internal@absl@@@?$civil_time@Uhour_tag@time_internal@absl@@@detail@cctz@time_internal@absl@@QEAA@AEBV?$civil_time@Umonth_tag@time_internal@absl@@@1234@PEAX@Z
    ??$?0Umonth_tag@time_internal@absl@@@?$civil_time@Uminute_tag@time_internal@absl@@@detail@cctz@time_internal@absl@@QEAA@AEBV?$civil_time@Umonth_tag@time_internal@absl@@@1234@PEAX@Z
    ??$?0Umonth_tag@time_internal@absl@@@?$civil_time@Usecond_tag@time_internal@absl@@@detail@cctz@time_internal@absl@@QEAA@AEBV?$civil_time@Umonth_tag@time_internal@absl@@@1234@PEAX@Z
    ??$?0Umonth_tag@time_internal@absl@@@?$civil_time@Uyear_tag@time_internal@absl@@@detail@cctz@time_internal@absl@@QEAA@AEBV?$civil_time@Umonth_tag@time_internal@absl@@@1234@PEAX@Z
    ??$?0Usecond_tag@detail@cctz@time_internal@absl@@@?$civil_time@Uday_tag@detail@cctz@time_internal@absl@@@detail@cctz@time_internal@absl@@QEAA@AEBV?$civil_time@Usecond_tag@detail@cctz@time_internal@absl@@@1234@PEAX@Z
    ??$?0Usecond_tag@detail@cctz@time_internal@absl@@@?$civil_time@Uminute_tag@detail@cctz@time_internal@absl@@@detail@cctz@time_internal@absl@@QEAA@AEBV?$civil_time@Usecond_tag@detail@cctz@time_internal@absl@@@1234@PEAX@Z
    ??$?0Usecond_tag@detail@cctz@time_internal@absl@@@?$civil_time@Usecond_tag@time_internal@absl@@@detail@cctz@time_internal@absl@@QEAA@AEBV?$civil_time@Usecond_tag@detail@cctz@time_internal@absl@@@1234@PEAX@Z
    ??$?0Usecond_tag@time_internal@absl@@@?$civil_time@Uday_tag@time_internal@absl@@@detail@cctz@time_internal@absl@@QEAA@AEBV?$civil_time@Usecond_tag@time_internal@absl@@@1234@PEAX@Z
    ??$?0Usecond_tag@time_internal@absl@@@?$civil_time@Uhour_tag@time_internal@absl@@@detail@cctz@time_internal@absl@@QEAA@AEBV?$civil_time@Usecond_tag@time_internal@absl@@@1234@PEAX@Z
    ??$?0Usecond_tag@time_internal@absl@@@?$civil_time@Uminute_tag@time_internal@absl@@@detail@cctz@time_internal@absl@@QEAA@AEBV?$civil_time@Usecond_tag@time_internal@absl@@@1234@PEAX@Z
    ??$?0Usecond_tag@time_internal@absl@@@?$civil_time@Umonth_tag@time_internal@absl@@@detail@cctz@time_internal@absl@@QEAA@AEBV?$civil_time@Usecond_tag@time_internal@absl@@@1234@PEAX@Z
    ??$?0Usecond_tag@time_internal@absl@@@?$civil_time@Usecond_tag@detail@cctz@time_internal@absl@@@detail@cctz@time_internal@absl@@QEAA@AEBV?$civil_time@Usecond_tag@time_internal@absl@@@1234@PEAX@Z
    ??$?0Usecond_tag@time_internal@absl@@@?$civil_time@Uyear_tag@time_internal@absl@@@detail@cctz@time_internal@absl@@QEAA@AEBV?$civil_time@Usecond_tag@time_internal@absl@@@1234@PEAX@Z
    ??$?0Uyear_tag@detail@cctz@time_internal@absl@@@?$civil_time@Uday_tag@detail@cctz@time_internal@absl@@@detail@cctz@time_internal@absl@@QEAA@AEBV?$civil_time@Uyear_tag@detail@cctz@time_internal@absl@@@1234@PEAX@Z
    ??$?0Uyear_tag@time_internal@absl@@@?$civil_time@Uday_tag@time_internal@absl@@@detail@cctz@time_internal@absl@@QEAA@AEBV?$civil_time@Uyear_tag@time_internal@absl@@@1234@PEAX@Z
    ??$?0Uyear_tag@time_internal@absl@@@?$civil_time@Uhour_tag@time_internal@absl@@@detail@cctz@time_internal@absl@@QEAA@AEBV?$civil_time@Uyear_tag@time_internal@absl@@@1234@PEAX@Z
    ??$?0Uyear_tag@time_internal@absl@@@?$civil_time@Uminute_tag@time_internal@absl@@@detail@cctz@time_internal@absl@@QEAA@AEBV?$civil_time@Uyear_tag@time_internal@absl@@@1234@PEAX@Z
    ??$?0Uyear_tag@time_internal@absl@@@?$civil_time@Umonth_tag@time_internal@absl@@@detail@cctz@time_internal@absl@@QEAA@AEBV?$civil_time@Uyear_tag@time_internal@absl@@@1234@PEAX@Z
    ??$?0Uyear_tag@time_internal@absl@@@?$civil_time@Usecond_tag@time_internal@absl@@@detail@cctz@time_internal@absl@@QEAA@AEBV?$civil_time@Uyear_tag@time_internal@absl@@@1234@PEAX@Z
    ??$?0V<lambda_1>@?0??SaveFromRegistry@FlagSaverImpl@flags_internal@absl@@QEAAXXZ@$0A@@?$__policy_func@$$A6AXAEAVCommandLineFlag@absl@@@Z@__function@__Cr@std@@QEAA@$$QEAV<lambda_1>@?0??SaveFromRegistry@FlagSaverImpl@flags_internal@absl@@QEAAXXZ@@Z
    ??$?0V<lambda_1>@?0??SaveFromRegistry@FlagSaverImpl@flags_internal@absl@@QEAAXXZ@X@?$function@$$A6AXAEAVCommandLineFlag@absl@@@Z@__Cr@std@@QEAA@V<lambda_1>@?0??SaveFromRegistry@FlagSaverImpl@flags_internal@absl@@QEAAXXZ@@Z
    ??$?0V?$InlinedVector@VFormatArgImpl@str_format_internal@absl@@$03V?$allocator@VFormatArgImpl@str_format_internal@absl@@@__Cr@std@@@absl@@XV01@H@?$Span@$$CBVFormatArgImpl@str_format_internal@absl@@@absl@@QEAA@AEBV?$InlinedVector@VFormatArgImpl@str_format_internal@absl@@$03V?$allocator@VFormatArgImpl@str_format_internal@absl@@@__Cr@std@@@1@@Z
    ??$?0V?$Span@D@absl@@XV01@$0A@@?$Span@$$CBD@absl@@QEAA@AEBV?$Span@D@1@@Z
    ??$?0V?$Span@D@absl@@XV01@$0A@@?$Span@D@absl@@QEAA@AEAV01@@Z
    ??$?0V?$Span@I@absl@@XV01@$0A@@?$Span@$$CBI@absl@@QEAA@AEBV?$Span@I@1@@Z
    ??$?0V?$Span@I@absl@@XV01@$0A@@?$Span@I@absl@@QEAA@AEAV01@@Z
    ??$?0V?$__allocator_destructor@V?$allocator@PEBVImpl@time_zone@cctz@time_internal@absl@@@__Cr@std@@@__Cr@std@@$0A@@?$__compressed_pair_elem@V?$__allocator_destructor@V?$allocator@PEBVImpl@time_zone@cctz@time_internal@absl@@@__Cr@std@@@__Cr@std@@$00$0A@@__Cr@std@@QEAA@$$QEAV?$__allocator_destructor@V?$allocator@PEBVImpl@time_zone@cctz@time_internal@absl@@@__Cr@std@@@12@@Z
    ??$?0V?$__allocator_destructor@V?$allocator@UPrefixCrc@CrcCordState@crc_internal@absl@@@__Cr@std@@@__Cr@std@@$0A@@?$__compressed_pair_elem@V?$__allocator_destructor@V?$allocator@UPrefixCrc@CrcCordState@crc_internal@absl@@@__Cr@std@@@__Cr@std@@$00$0A@@__Cr@std@@QEAA@$$QEAV?$__allocator_destructor@V?$allocator@UPrefixCrc@CrcCordState@crc_internal@absl@@@__Cr@std@@@12@@Z
    ??$?0V?$__deque_iterator@UPrefixCrc@CrcCordState@crc_internal@absl@@PEBU1234@AEBU1234@PEBQEBU1234@_J$0A@@__Cr@std@@V012@$0A@@?$pair@V?$__deque_iterator@UPrefixCrc@CrcCordState@crc_internal@absl@@PEBU1234@AEBU1234@PEBQEBU1234@_J$0A@@__Cr@std@@V123@@__Cr@std@@QEAA@$$QEAV?$__deque_iterator@UPrefixCrc@CrcCordState@crc_internal@absl@@PEBU1234@AEBU1234@PEBQEBU1234@_J$0A@@12@0@Z
    ??$?0V?$__deque_iterator@UPrefixCrc@CrcCordState@crc_internal@absl@@PEBU1234@AEBU1234@PEBQEBU1234@_J$0A@@__Cr@std@@V?$__deque_iterator@UPrefixCrc@CrcCordState@crc_internal@absl@@PEAU1234@AEAU1234@PEAPEAU1234@_J$0A@@12@$0A@@?$pair@V?$__deque_iterator@UPrefixCrc@CrcCordState@crc_internal@absl@@PEBU1234@AEBU1234@PEBQEBU1234@_J$0A@@__Cr@std@@V?$__deque_iterator@UPrefixCrc@CrcCordState@crc_internal@absl@@PEAU1234@AEAU1234@PEAPEAU1234@_J$0A@@23@@__Cr@std@@QEAA@$$QEAV?$__deque_iterator@UPrefixCrc@CrcCordState@crc_internal@absl@@PEBU1234@AEBU1234@PEBQEBU1234@_J$0A@@12@$$QEAV?$__deque_iterator@UPrefixCrc@CrcCordState@crc_internal@absl@@PEAU1234@AEAU1234@PEAPEAU1234@_J$0A@@12@@Z
    ??$?0V?$__hash_iterator@PEAU?$__hash_node@PEBUCordRep@cord_internal@absl@@PEAX@__Cr@std@@@__Cr@std@@AEA_N$0A@@?$pair@V?$__hash_iterator@PEAU?$__hash_node@PEBUCordRep@cord_internal@absl@@PEAX@__Cr@std@@@__Cr@std@@_N@__Cr@std@@QEAA@$$QEAV?$__hash_iterator@PEAU?$__hash_node@PEBUCordRep@cord_internal@absl@@PEAX@__Cr@std@@@12@AEA_N@Z
    ??$?0V?$__hash_iterator@PEAU?$__hash_node@PEBUCordRep@cord_internal@absl@@PEAX@__Cr@std@@@__Cr@std@@_N$0A@@?$pair@V?$__hash_const_iterator@PEAU?$__hash_node@PEBUCordRep@cord_internal@absl@@PEAX@__Cr@std@@@__Cr@std@@_N@__Cr@std@@QEAA@$$QEAU?$pair@V?$__hash_iterator@PEAU?$__hash_node@PEBUCordRep@cord_internal@absl@@PEAX@__Cr@std@@@__Cr@std@@_N@12@@Z
    ??$?0V?$__hash_iterator@PEAU?$__hash_node@U?$__hash_value_type@V?$basic_string@DU?$char_traits@D@__Cr@std@@V?$allocator@D@23@@__Cr@std@@PEBVImpl@time_zone@cctz@time_internal@absl@@@__Cr@std@@PEAX@__Cr@std@@@__Cr@std@@AEA_N$0A@@?$pair@V?$__hash_iterator@PEAU?$__hash_node@U?$__hash_value_type@V?$basic_string@DU?$char_traits@D@__Cr@std@@V?$allocator@D@23@@__Cr@std@@PEBVImpl@time_zone@cctz@time_internal@absl@@@__Cr@std@@PEAX@__Cr@std@@@__Cr@std@@_N@__Cr@std@@QEAA@$$QEAV?$__hash_iterator@PEAU?$__hash_node@U?$__hash_value_type@V?$basic_string@DU?$char_traits@D@__Cr@std@@V?$allocator@D@23@@__Cr@std@@PEBVImpl@time_zone@cctz@time_internal@absl@@@__Cr@std@@PEAX@__Cr@std@@@12@AEA_N@Z
    ??$?0V?$__hash_node_destructor@V?$allocator@U?$__hash_node@PEBUCordRep@cord_internal@absl@@PEAX@__Cr@std@@@__Cr@std@@@__Cr@std@@$0A@@?$__compressed_pair_elem@V?$__hash_node_destructor@V?$allocator@U?$__hash_node@PEBUCordRep@cord_internal@absl@@PEAX@__Cr@std@@@__Cr@std@@@__Cr@std@@$00$0A@@__Cr@std@@QEAA@$$QEAV?$__hash_node_destructor@V?$allocator@U?$__hash_node@PEBUCordRep@cord_internal@absl@@PEAX@__Cr@std@@@__Cr@std@@@12@@Z
    ??$?0V?$__hash_node_destructor@V?$allocator@U?$__hash_node@U?$__hash_value_type@V?$basic_string@DU?$char_traits@D@__Cr@std@@V?$allocator@D@23@@__Cr@std@@PEBVImpl@time_zone@cctz@time_internal@absl@@@__Cr@std@@PEAX@__Cr@std@@@__Cr@std@@@__Cr@std@@$0A@@?$__compressed_pair_elem@V?$__hash_node_destructor@V?$allocator@U?$__hash_node@U?$__hash_value_type@V?$basic_string@DU?$char_traits@D@__Cr@std@@V?$allocator@D@23@@__Cr@std@@PEBVImpl@time_zone@cctz@time_internal@absl@@@__Cr@std@@PEAX@__Cr@std@@@__Cr@std@@@__Cr@std@@$00$0A@@__Cr@std@@QEAA@$$QEAV?$__hash_node_destructor@V?$allocator@U?$__hash_node@U?$__hash_value_type@V?$basic_string@DU?$char_traits@D@__Cr@std@@V?$allocator@D@23@@__Cr@std@@PEBVImpl@time_zone@cctz@time_internal@absl@@@__Cr@std@@PEAX@__Cr@std@@@__Cr@std@@@12@@Z
    ??$?0V?$__tree_iterator@U?$__value_type@V?$basic_string@DU?$char_traits@D@__Cr@std@@V?$allocator@D@23@@__Cr@std@@V?$map@V?$basic_string@DU?$char_traits@D@__Cr@std@@V?$allocator@D@23@@__Cr@std@@V?$vector@PEBVCommandLineFlag@absl@@V?$allocator@PEBVCommandLineFlag@absl@@@__Cr@std@@@23@U?$less@V?$basic_string@DU?$char_traits@D@__Cr@std@@V?$allocator@D@23@@__Cr@std@@@23@V?$allocator@U?$pair@$$CBV?$basic_string@DU?$char_traits@D@__Cr@std@@V?$allocator@D@23@@__Cr@std@@V?$vector@PEBVCommandLineFlag@absl@@V?$allocator@PEBVCommandLineFlag@absl@@@__Cr@std@@@23@@__Cr@std@@@23@@23@@__Cr@std@@PEAV?$__tree_node@U?$__value_type@V?$basic_string@DU?$char_traits@D@__Cr@std@@V?$allocator@D@23@@__Cr@std@@V?$map@V?$basic_string@DU?$char_traits@D@__Cr@std@@V?$allocator@D@23@@__Cr@std@@V?$vector@PEBVCommandLineFlag@absl@@V?$allocator@PEBVCommandLineFlag@absl@@@__Cr@std@@@23@U?$less@V?$basic_string@DU?$char_traits@D@__Cr@std@@V?$allocator@D@23@@__Cr@std@@@23@V?$allocator@U?$pair@$$CBV?$basic_string@DU?$char_traits@D@__Cr@std@@V?$allocator@D@23@@__Cr@std@@V?$vector@PEBVCommandLineFlag@absl@@V?$allocator@PEBVCommandLineFlag@absl@@@__Cr@std@@@23@@__Cr@std@@@23@@23@@__Cr@std@@PEAX@23@_J@__Cr@std@@AEA_N$0A@@?$pair@V?$__tree_iterator@U?$__value_type@V?$basic_string@DU?$char_traits@D@__Cr@std@@V?$allocator@D@23@@__Cr@std@@V?$map@V?$basic_string@DU?$char_traits@D@__Cr@std@@V?$allocator@D@23@@__Cr@std@@V?$vector@PEBVCommandLineFlag@absl@@V?$allocator@PEBVCommandLineFlag@absl@@@__Cr@std@@@23@U?$less@V?$basic_string@DU?$char_traits@D@__Cr@std@@V?$allocator@D@23@@__Cr@std@@@23@V?$allocator@U?$pair@$$CBV?$basic_string@DU?$char_traits@D@__Cr@std@@V?$allocator@D@23@@__Cr@std@@V?$vector@PEBVCommandLineFlag@absl@@V?$allocator@PEBVCommandLineFlag@absl@@@__Cr@std@@@23@@__Cr@std@@@23@@23@@__Cr@std@@PEAV?$__tree_node@U?$__value_type@V?$basic_string@DU?$char_traits@D@__Cr@std@@V?$allocator@D@23@@__Cr@std@@V?$map@V?$basic_string@DU?$char_traits@D@__Cr@std@@V?$allocator@D@23@@__Cr@std@@V?$vector@PEBVCommandLineFlag@absl@@V?$allocator@PEBVCommandLineFlag@absl@@@__Cr@std@@@23@U?$less@V?$basic_string@DU?$char_traits@D@__Cr@std@@V?$allocator@D@23@@__Cr@std@@@23@V?$allocator@U?$pair@$$CBV?$basic_string@DU?$char_traits@D@__Cr@std@@V?$allocator@D@23@@__Cr@std@@V?$vector@PEBVCommandLineFlag@absl@@V?$allocator@PEBVCommandLineFlag@absl@@@__Cr@std@@@23@@__Cr@std@@@23@@23@@__Cr@std@@PEAX@23@_J@__Cr@std@@_N@__Cr@std@@QEAA@$$QEAV?$__tree_iterator@U?$__value_type@V?$basic_string@DU?$char_traits@D@__Cr@std@@V?$allocator@D@23@@__Cr@std@@V?$map@V?$basic_string@DU?$char_traits@D@__Cr@std@@V?$allocator@D@23@@__Cr@std@@V?$vector@PEBVCommandLineFlag@absl@@V?$allocator@PEBVCommandLineFlag@absl@@@__Cr@std@@@23@U?$less@V?$basic_string@DU?$char_traits@D@__Cr@std@@V?$allocator@D@23@@__Cr@std@@@23@V?$allocator@U?$pair@$$CBV?$basic_string@DU?$char_traits@D@__Cr@std@@V?$allocator@D@23@@__Cr@std@@V?$vector@PEBVCommandLineFlag@absl@@V?$allocator@PEBVCommandLineFlag@absl@@@__Cr@std@@@23@@__Cr@std@@@23@@23@@__Cr@std@@PEAV?$__tree_node@U?$__value_type@V?$basic_string@DU?$char_traits@D@__Cr@std@@V?$allocator@D@23@@__Cr@std@@V?$map@V?$basic_string@DU?$char_traits@D@__Cr@std@@V?$allocator@D@23@@__Cr@std@@V?$vector@PEBVCommandLineFlag@absl@@V?$allocator@PEBVCommandLineFlag@absl@@@__Cr@std@@@23@U?$less@V?$basic_string@DU?$char_traits@D@__Cr@std@@V?$allocator@D@23@@__Cr@std@@@23@V?$allocator@U?$pair@$$CBV?$basic_string@DU?$char_traits@D@__Cr@std@@V?$allocator@D@23@@__Cr@std@@V?$vector@PEBVCommandLineFlag@absl@@V?$allocator@PEBVCommandLineFlag@absl@@@__Cr@std@@@23@@__Cr@std@@@23@@23@@__Cr@std@@PEAX@23@_J@12@AEA_N@Z
    ??$?0V?$__tree_iterator@U?$__value_type@V?$basic_string@DU?$char_traits@D@__Cr@std@@V?$allocator@D@23@@__Cr@std@@V?$vector@PEBVCommandLineFlag@absl@@V?$allocator@PEBVCommandLineFlag@absl@@@__Cr@std@@@23@@__Cr@std@@PEAV?$__tree_node@U?$__value_type@V?$basic_string@DU?$char_traits@D@__Cr@std@@V?$allocator@D@23@@__Cr@std@@V?$vector@PEBVCommandLineFlag@absl@@V?$allocator@PEBVCommandLineFlag@absl@@@__Cr@std@@@23@@__Cr@std@@PEAX@23@_J@__Cr@std@@AEA_N$0A@@?$pair@V?$__tree_iterator@U?$__value_type@V?$basic_string@DU?$char_traits@D@__Cr@std@@V?$allocator@D@23@@__Cr@std@@V?$vector@PEBVCommandLineFlag@absl@@V?$allocator@PEBVCommandLineFlag@absl@@@__Cr@std@@@23@@__Cr@std@@PEAV?$__tree_node@U?$__value_type@V?$basic_string@DU?$char_traits@D@__Cr@std@@V?$allocator@D@23@@__Cr@std@@V?$vector@PEBVCommandLineFlag@absl@@V?$allocator@PEBVCommandLineFlag@absl@@@__Cr@std@@@23@@__Cr@std@@PEAX@23@_J@__Cr@std@@_N@__Cr@std@@QEAA@$$QEAV?$__tree_iterator@U?$__value_type@V?$basic_string@DU?$char_traits@D@__Cr@std@@V?$allocator@D@23@@__Cr@std@@V?$vector@PEBVCommandLineFlag@absl@@V?$allocator@PEBVCommandLineFlag@absl@@@__Cr@std@@@23@@__Cr@std@@PEAV?$__tree_node@U?$__value_type@V?$basic_string@DU?$char_traits@D@__Cr@std@@V?$allocator@D@23@@__Cr@std@@V?$vector@PEBVCommandLineFlag@absl@@V?$allocator@PEBVCommandLineFlag@absl@@@__Cr@std@@@23@@__Cr@std@@PEAX@23@_J@12@AEA_N@Z
    ??$?0V?$__tree_node_destructor@V?$allocator@V?$__tree_node@U?$__value_type@V?$basic_string@DU?$char_traits@D@__Cr@std@@V?$allocator@D@23@@__Cr@std@@V?$map@V?$basic_string@DU?$char_traits@D@__Cr@std@@V?$allocator@D@23@@__Cr@std@@V?$vector@PEBVCommandLineFlag@absl@@V?$allocator@PEBVCommandLineFlag@absl@@@__Cr@std@@@23@U?$less@V?$basic_string@DU?$char_traits@D@__Cr@std@@V?$allocator@D@23@@__Cr@std@@@23@V?$allocator@U?$pair@$$CBV?$basic_string@DU?$char_traits@D@__Cr@std@@V?$allocator@D@23@@__Cr@std@@V?$vector@PEBVCommandLineFlag@absl@@V?$allocator@PEBVCommandLineFlag@absl@@@__Cr@std@@@23@@__Cr@std@@@23@@23@@__Cr@std@@PEAX@__Cr@std@@@__Cr@std@@@__Cr@std@@$0A@@?$__compressed_pair_elem@V?$__tree_node_destructor@V?$allocator@V?$__tree_node@U?$__value_type@V?$basic_string@DU?$char_traits@D@__Cr@std@@V?$allocator@D@23@@__Cr@std@@V?$map@V?$basic_string@DU?$char_traits@D@__Cr@std@@V?$allocator@D@23@@__Cr@std@@V?$vector@PEBVCommandLineFlag@absl@@V?$allocator@PEBVCommandLineFlag@absl@@@__Cr@std@@@23@U?$less@V?$basic_string@DU?$char_traits@D@__Cr@std@@V?$allocator@D@23@@__Cr@std@@@23@V?$allocator@U?$pair@$$CBV?$basic_string@DU?$char_traits@D@__Cr@std@@V?$allocator@D@23@@__Cr@std@@V?$vector@PEBVCommandLineFlag@absl@@V?$allocator@PEBVCommandLineFlag@absl@@@__Cr@std@@@23@@__Cr@std@@@23@@23@@__Cr@std@@PEAX@__Cr@std@@@__Cr@std@@@__Cr@std@@$00$0A@@__Cr@std@@QEAA@$$QEAV?$__tree_node_destructor@V?$allocator@V?$__tree_node@U?$__value_type@V?$basic_string@DU?$char_traits@D@__Cr@std@@V?$allocator@D@23@@__Cr@std@@V?$map@V?$basic_string@DU?$char_traits@D@__Cr@std@@V?$allocator@D@23@@__Cr@std@@V?$vector@PEBVCommandLineFlag@absl@@V?$allocator@PEBVCommandLineFlag@absl@@@__Cr@std@@@23@U?$less@V?$basic_string@DU?$char_traits@D@__Cr@std@@V?$allocator@D@23@@__Cr@std@@@23@V?$allocator@U?$pair@$$CBV?$basic_string@DU?$char_traits@D@__Cr@std@@V?$allocator@D@23@@__Cr@std@@V?$vector@PEBVCommandLineFlag@absl@@V?$allocator@PEBVCommandLineFlag@absl@@@__Cr@std@@@23@@__Cr@std@@@23@@23@@__Cr@std@@PEAX@__Cr@std@@@__Cr@std@@@12@@Z
    ??$?0V?$__tree_node_destructor@V?$allocator@V?$__tree_node@U?$__value_type@V?$basic_string@DU?$char_traits@D@__Cr@std@@V?$allocator@D@23@@__Cr@std@@V?$vector@PEBVCommandLineFlag@absl@@V?$allocator@PEBVCommandLineFlag@absl@@@__Cr@std@@@23@@__Cr@std@@PEAX@__Cr@std@@@__Cr@std@@@__Cr@std@@$0A@@?$__compressed_pair_elem@V?$__tree_node_destructor@V?$allocator@V?$__tree_node@U?$__value_type@V?$basic_string@DU?$char_traits@D@__Cr@std@@V?$allocator@D@23@@__Cr@std@@V?$vector@PEBVCommandLineFlag@absl@@V?$allocator@PEBVCommandLineFlag@absl@@@__Cr@std@@@23@@__Cr@std@@PEAX@__Cr@std@@@__Cr@std@@@__Cr@std@@$00$0A@@__Cr@std@@QEAA@$$QEAV?$__tree_node_destructor@V?$allocator@V?$__tree_node@U?$__value_type@V?$basic_string@DU?$char_traits@D@__Cr@std@@V?$allocator@D@23@@__Cr@std@@V?$vector@PEBVCommandLineFlag@absl@@V?$allocator@PEBVCommandLineFlag@absl@@@__Cr@std@@@23@@__Cr@std@@PEAX@__Cr@std@@@__Cr@std@@@12@@Z
    ??$?0V?$allocator@C@__Cr@std@@@?$Storage@V?$allocator@C@__Cr@std@@$02$00@internal_compressed_tuple@container_internal@absl@@QEAA@Uin_place_t@__Cr@std@@$$QEAV?$allocator@C@56@@Z
    ??$?0V?$allocator@D@__Cr@std@@@AlphaNum@absl@@QEAA@AEBV?$basic_string@DU?$char_traits@D@__Cr@std@@V?$allocator@D@23@@__Cr@std@@@Z
    ??$?0V?$allocator@E@__Cr@std@@@?$Storage@V?$allocator@E@__Cr@std@@$02$00@internal_compressed_tuple@container_internal@absl@@QEAA@Uin_place_t@__Cr@std@@$$QEAV?$allocator@E@56@@Z
    ??$?0V?$allocator@F@__Cr@std@@@?$Storage@V?$allocator@F@__Cr@std@@$02$00@internal_compressed_tuple@container_internal@absl@@QEAA@Uin_place_t@__Cr@std@@$$QEAV?$allocator@F@56@@Z
    ??$?0V?$allocator@G@__Cr@std@@@?$Storage@V?$allocator@G@__Cr@std@@$02$00@internal_compressed_tuple@container_internal@absl@@QEAA@Uin_place_t@__Cr@std@@$$QEAV?$allocator@G@56@@Z
    ??$?0V?$allocator@H@__Cr@std@@@?$Storage@V?$allocator@H@__Cr@std@@$02$00@internal_compressed_tuple@container_internal@absl@@QEAA@Uin_place_t@__Cr@std@@$$QEAV?$allocator@H@56@@Z
    ??$?0V?$allocator@H@__Cr@std@@@?$Storage@V?$allocator@H@__Cr@std@@$0A@$00@internal_compressed_tuple@container_internal@absl@@QEAA@Uin_place_t@__Cr@std@@$$QEAV?$allocator@H@56@@Z
    ??$?0V?$allocator@H@__Cr@std@@I$00@?$CompressedTuple@V?$allocator@H@__Cr@std@@_K@container_internal@absl@@QEAA@$$QEAV?$allocator@H@__Cr@std@@$$QEAI@Z
    ??$?0V?$allocator@H@__Cr@std@@I@?$CompressedTupleImpl@V?$CompressedTuple@V?$allocator@H@__Cr@std@@_K@container_internal@absl@@U?$integer_sequence@_K$0A@$00@__Cr@std@@$00@internal_compressed_tuple@container_internal@absl@@QEAA@Uin_place_t@__Cr@std@@$$QEAV?$allocator@H@56@$$QEAI@Z
    ??$?0V?$allocator@I@__Cr@std@@@?$Storage@V?$allocator@I@__Cr@std@@$02$00@internal_compressed_tuple@container_internal@absl@@QEAA@Uin_place_t@__Cr@std@@$$QEAV?$allocator@I@56@@Z
    ??$?0V?$allocator@PEAUCordRep@cord_internal@absl@@@__Cr@std@@@?$Storage@V?$allocator@PEAUCordRep@cord_internal@absl@@@__Cr@std@@$0A@$00@internal_compressed_tuple@container_internal@absl@@QEAA@Uin_place_t@__Cr@std@@$$QEAV?$allocator@PEAUCordRep@cord_internal@absl@@@56@@Z
    ??$?0V?$allocator@PEAUCordRep@cord_internal@absl@@@__Cr@std@@I$00@?$CompressedTuple@V?$allocator@PEAUCordRep@cord_internal@absl@@@__Cr@std@@_K@container_internal@absl@@QEAA@$$QEAV?$allocator@PEAUCordRep@cord_internal@absl@@@__Cr@std@@$$QEAI@Z
    ??$?0V?$allocator@PEAUCordRep@cord_internal@absl@@@__Cr@std@@I@?$CompressedTupleImpl@V?$CompressedTuple@V?$allocator@PEAUCordRep@cord_internal@absl@@@__Cr@std@@_K@container_internal@absl@@U?$integer_sequence@_K$0A@$00@__Cr@std@@$00@internal_compressed_tuple@container_internal@absl@@QEAA@Uin_place_t@__Cr@std@@$$QEAV?$allocator@PEAUCordRep@cord_internal@absl@@@56@$$QEAI@Z
    ??$?0V?$allocator@PEAVLogSink@absl@@@__Cr@std@@@?$Storage@V?$allocator@PEAVLogSink@absl@@@__Cr@std@@$0A@$00@internal_compressed_tuple@container_internal@absl@@QEAA@Uin_place_t@__Cr@std@@$$QEAV?$allocator@PEAVLogSink@absl@@@56@@Z
    ??$?0V?$allocator@PEAVLogSink@absl@@@__Cr@std@@I$00@?$CompressedTuple@V?$allocator@PEAVLogSink@absl@@@__Cr@std@@_K@container_internal@absl@@QEAA@$$QEAV?$allocator@PEAVLogSink@absl@@@__Cr@std@@$$QEAI@Z
    ??$?0V?$allocator@PEAVLogSink@absl@@@__Cr@std@@I@?$CompressedTupleImpl@V?$CompressedTuple@V?$allocator@PEAVLogSink@absl@@@__Cr@std@@_K@container_internal@absl@@U?$integer_sequence@_K$0A@$00@__Cr@std@@$00@internal_compressed_tuple@container_internal@absl@@QEAA@Uin_place_t@__Cr@std@@$$QEAV?$allocator@PEAVLogSink@absl@@@56@$$QEAI@Z
    ??$?0V?$allocator@U?$pair@$$CBHH@__Cr@std@@@__Cr@std@@@?$Storage@V?$allocator@U?$pair@$$CBHH@__Cr@std@@@__Cr@std@@$02$00@internal_compressed_tuple@container_internal@absl@@QEAA@Uin_place_t@__Cr@std@@$$QEAV?$allocator@U?$pair@$$CBHH@__Cr@std@@@56@@Z
    ??$?0V?$allocator@U?$pair@$$CBHV?$basic_string@DU?$char_traits@D@__Cr@std@@V?$allocator@D@23@@__Cr@std@@@__Cr@std@@@__Cr@std@@@?$Storage@V?$allocator@U?$pair@$$CBHV?$basic_string@DU?$char_traits@D@__Cr@std@@V?$allocator@D@23@@__Cr@std@@@__Cr@std@@@__Cr@std@@$02$00@internal_compressed_tuple@container_internal@absl@@QEAA@Uin_place_t@__Cr@std@@$$QEAV?$allocator@U?$pair@$$CBHV?$basic_string@DU?$char_traits@D@__Cr@std@@V?$allocator@D@23@@__Cr@std@@@__Cr@std@@@56@@Z
    ??$?0V?$allocator@U?$pair@$$CBII@__Cr@std@@@__Cr@std@@@?$Storage@V?$allocator@U?$pair@$$CBII@__Cr@std@@@__Cr@std@@$02$00@internal_compressed_tuple@container_internal@absl@@QEAA@Uin_place_t@__Cr@std@@$$QEAV?$allocator@U?$pair@$$CBII@__Cr@std@@@56@@Z
    ??$?0V?$allocator@U?$pair@$$CBIV?$basic_string@DU?$char_traits@D@__Cr@std@@V?$allocator@D@23@@__Cr@std@@@__Cr@std@@@__Cr@std@@@?$Storage@V?$allocator@U?$pair@$$CBIV?$basic_string@DU?$char_traits@D@__Cr@std@@V?$allocator@D@23@@__Cr@std@@@__Cr@std@@@__Cr@std@@$02$00@internal_compressed_tuple@container_internal@absl@@QEAA@Uin_place_t@__Cr@std@@$$QEAV?$allocator@U?$pair@$$CBIV?$basic_string@DU?$char_traits@D@__Cr@std@@V?$allocator@D@23@@__Cr@std@@@__Cr@std@@@56@@Z
    ??$?0V?$allocator@U?$pair@$$CBV?$basic_string@DU?$char_traits@D@__Cr@std@@V?$allocator@D@23@@__Cr@std@@H@__Cr@std@@@__Cr@std@@@?$Storage@V?$allocator@U?$pair@$$CBV?$basic_string@DU?$char_traits@D@__Cr@std@@V?$allocator@D@23@@__Cr@std@@H@__Cr@std@@@__Cr@std@@$02$00@internal_compressed_tuple@container_internal@absl@@QEAA@Uin_place_t@__Cr@std@@$$QEAV?$allocator@U?$pair@$$CBV?$basic_string@DU?$char_traits@D@__Cr@std@@V?$allocator@D@23@@__Cr@std@@H@__Cr@std@@@56@@Z
    ??$?0V?$allocator@U?$pair@$$CBV?$basic_string@DU?$char_traits@D@__Cr@std@@V?$allocator@D@23@@__Cr@std@@I@__Cr@std@@@__Cr@std@@@?$Storage@V?$allocator@U?$pair@$$CBV?$basic_string@DU?$char_traits@D@__Cr@std@@V?$allocator@D@23@@__Cr@std@@I@__Cr@std@@@__Cr@std@@$02$00@internal_compressed_tuple@container_internal@absl@@QEAA@Uin_place_t@__Cr@std@@$$QEAV?$allocator@U?$pair@$$CBV?$basic_string@DU?$char_traits@D@__Cr@std@@V?$allocator@D@23@@__Cr@std@@I@__Cr@std@@@56@@Z
    ??$?0V?$allocator@U?$pair@$$CBV?$basic_string@DU?$char_traits@D@__Cr@std@@V?$allocator@D@23@@__Cr@std@@V123@@__Cr@std@@@__Cr@std@@@?$Storage@V?$allocator@U?$pair@$$CBV?$basic_string@DU?$char_traits@D@__Cr@std@@V?$allocator@D@23@@__Cr@std@@V123@@__Cr@std@@@__Cr@std@@$02$00@internal_compressed_tuple@container_internal@absl@@QEAA@Uin_place_t@__Cr@std@@$$QEAV?$allocator@U?$pair@$$CBV?$basic_string@DU?$char_traits@D@__Cr@std@@V?$allocator@D@23@@__Cr@std@@V123@@__Cr@std@@@56@@Z
    ??$?0V?$allocator@U?$pair@$$CBV?$basic_string@DU?$char_traits@D@__Cr@std@@V?$allocator@D@23@@__Cr@std@@_J@__Cr@std@@@__Cr@std@@@?$Storage@V?$allocator@U?$pair@$$CBV?$basic_string@DU?$char_traits@D@__Cr@std@@V?$allocator@D@23@@__Cr@std@@_J@__Cr@std@@@__Cr@std@@$02$00@internal_compressed_tuple@container_internal@absl@@QEAA@Uin_place_t@__Cr@std@@$$QEAV?$allocator@U?$pair@$$CBV?$basic_string@DU?$char_traits@D@__Cr@std@@V?$allocator@D@23@@__Cr@std@@_J@__Cr@std@@@56@@Z
    ??$?0V?$allocator@U?$pair@$$CBV?$basic_string@DU?$char_traits@D@__Cr@std@@V?$allocator@D@23@@__Cr@std@@_K@__Cr@std@@@__Cr@std@@@?$Storage@V?$allocator@U?$pair@$$CBV?$basic_string@DU?$char_traits@D@__Cr@std@@V?$allocator@D@23@@__Cr@std@@_K@__Cr@std@@@__Cr@std@@$02$00@internal_compressed_tuple@container_internal@absl@@QEAA@Uin_place_t@__Cr@std@@$$QEAV?$allocator@U?$pair@$$CBV?$basic_string@DU?$char_traits@D@__Cr@std@@V?$allocator@D@23@@__Cr@std@@_K@__Cr@std@@@56@@Z
    ??$?0V?$allocator@U?$pair@$$CBV?$basic_string_view@DU?$char_traits@D@__Cr@std@@@__Cr@std@@PEAVCommandLineFlag@absl@@@__Cr@std@@@__Cr@std@@@?$Storage@V?$allocator@U?$pair@$$CBV?$basic_string_view@DU?$char_traits@D@__Cr@std@@@__Cr@std@@PEAVCommandLineFlag@absl@@@__Cr@std@@@__Cr@std@@$02$00@internal_compressed_tuple@container_internal@absl@@QEAA@Uin_place_t@__Cr@std@@$$QEAV?$allocator@U?$pair@$$CBV?$basic_string_view@DU?$char_traits@D@__Cr@std@@@__Cr@std@@PEAVCommandLineFlag@absl@@@__Cr@std@@@56@@Z
    ??$?0V?$allocator@U?$pair@$$CB_JV?$basic_string@DU?$char_traits@D@__Cr@std@@V?$allocator@D@23@@__Cr@std@@@__Cr@std@@@__Cr@std@@@?$Storage@V?$allocator@U?$pair@$$CB_JV?$basic_string@DU?$char_traits@D@__Cr@std@@V?$allocator@D@23@@__Cr@std@@@__Cr@std@@@__Cr@std@@$02$00@internal_compressed_tuple@container_internal@absl@@QEAA@Uin_place_t@__Cr@std@@$$QEAV?$allocator@U?$pair@$$CB_JV?$basic_string@DU?$char_traits@D@__Cr@std@@V?$allocator@D@23@@__Cr@std@@@__Cr@std@@@56@@Z
    ??$?0V?$allocator@U?$pair@$$CB_J_J@__Cr@std@@@__Cr@std@@@?$Storage@V?$allocator@U?$pair@$$CB_J_J@__Cr@std@@@__Cr@std@@$02$00@internal_compressed_tuple@container_internal@absl@@QEAA@Uin_place_t@__Cr@std@@$$QEAV?$allocator@U?$pair@$$CB_J_J@__Cr@std@@@56@@Z
    ??$?0V?$allocator@U?$pair@$$CB_KV?$basic_string@DU?$char_traits@D@__Cr@std@@V?$allocator@D@23@@__Cr@std@@@__Cr@std@@@__Cr@std@@@?$Storage@V?$allocator@U?$pair@$$CB_KV?$basic_string@DU?$char_traits@D@__Cr@std@@V?$allocator@D@23@@__Cr@std@@@__Cr@std@@@__Cr@std@@$02$00@internal_compressed_tuple@container_internal@absl@@QEAA@Uin_place_t@__Cr@std@@$$QEAV?$allocator@U?$pair@$$CB_KV?$basic_string@DU?$char_traits@D@__Cr@std@@V?$allocator@D@23@@__Cr@std@@@__Cr@std@@@56@@Z
    ??$?0V?$allocator@U?$pair@$$CB_K_K@__Cr@std@@@__Cr@std@@@?$Storage@V?$allocator@U?$pair@$$CB_K_K@__Cr@std@@@__Cr@std@@$02$00@internal_compressed_tuple@container_internal@absl@@QEAA@Uin_place_t@__Cr@std@@$$QEAV?$allocator@U?$pair@$$CB_K_K@__Cr@std@@@56@@Z
    ??$?0V?$allocator@UPayload@status_internal@absl@@@__Cr@std@@@?$Storage@V?$allocator@UPayload@status_internal@absl@@@__Cr@std@@$0A@$00@internal_compressed_tuple@container_internal@absl@@QEAA@Uin_place_t@__Cr@std@@$$QEAV?$allocator@UPayload@status_internal@absl@@@56@@Z
    ??$?0V?$allocator@UPayload@status_internal@absl@@@__Cr@std@@I$00@?$CompressedTuple@V?$allocator@UPayload@status_internal@absl@@@__Cr@std@@_K@container_internal@absl@@QEAA@$$QEAV?$allocator@UPayload@status_internal@absl@@@__Cr@std@@$$QEAI@Z
    ??$?0V?$allocator@UPayload@status_internal@absl@@@__Cr@std@@I@?$CompressedTupleImpl@V?$CompressedTuple@V?$allocator@UPayload@status_internal@absl@@@__Cr@std@@_K@container_internal@absl@@U?$integer_sequence@_K$0A@$00@__Cr@std@@$00@internal_compressed_tuple@container_internal@absl@@QEAA@Uin_place_t@__Cr@std@@$$QEAV?$allocator@UPayload@status_internal@absl@@@56@$$QEAI@Z
    ??$?0V?$allocator@V?$basic_string@DU?$char_traits@D@__Cr@std@@V?$allocator@D@23@@__Cr@std@@@__Cr@std@@@?$Storage@V?$allocator@V?$basic_string@DU?$char_traits@D@__Cr@std@@V?$allocator@D@23@@__Cr@std@@@__Cr@std@@$02$00@internal_compressed_tuple@container_internal@absl@@QEAA@Uin_place_t@__Cr@std@@$$QEAV?$allocator@V?$basic_string@DU?$char_traits@D@__Cr@std@@V?$allocator@D@23@@__Cr@std@@@56@@Z
    ??$?0V?$allocator@_J@__Cr@std@@@?$Storage@V?$allocator@_J@__Cr@std@@$02$00@internal_compressed_tuple@container_internal@absl@@QEAA@Uin_place_t@__Cr@std@@$$QEAV?$allocator@_J@56@@Z
    ??$?0V?$allocator@_K@__Cr@std@@@?$Storage@V?$allocator@_K@__Cr@std@@$02$00@internal_compressed_tuple@container_internal@absl@@QEAA@Uin_place_t@__Cr@std@@$$QEAV?$allocator@_K@56@@Z
    ??$?0V?$basic_ostream@DU?$char_traits@D@__Cr@std@@@__Cr@std@@$0A@@FormatRawSinkImpl@str_format_internal@absl@@QEAA@PEAV?$basic_ostream@DU?$char_traits@D@__Cr@std@@@__Cr@std@@@Z
    ??$?0V?$basic_string@DU?$char_traits@D@__Cr@std@@V?$allocator@D@23@@__Cr@std@@$0A@@Cord@absl@@QEAA@$$QEAV?$basic_string@DU?$char_traits@D@__Cr@std@@V?$allocator@D@23@@__Cr@std@@@Z
    ??$?0V?$basic_string@DU?$char_traits@D@__Cr@std@@V?$allocator@D@23@@__Cr@std@@$0A@@FormatRawSinkImpl@str_format_internal@absl@@QEAA@PEAV?$basic_string@DU?$char_traits@D@__Cr@std@@V?$allocator@D@23@@__Cr@std@@@Z
    ??$?0V?$basic_string@DU?$char_traits@D@__Cr@std@@V?$allocator@D@23@@__Cr@std@@@?$allocator@U?$AlignedType@$07@container_internal@absl@@@__Cr@std@@QEAA@AEBV?$allocator@V?$basic_string@DU?$char_traits@D@__Cr@std@@V?$allocator@D@23@@__Cr@std@@@12@@Z
    ??$?0V?$basic_string_view@DU?$char_traits@D@__Cr@std@@@__Cr@std@@@FormatArgImpl@str_format_internal@absl@@QEAA@AEBV?$basic_string_view@DU?$char_traits@D@__Cr@std@@@__Cr@std@@@Z
    ??$?0V?$basic_string_view@DU?$char_traits@D@__Cr@std@@@__Cr@std@@PEAVCommandLineFlag@absl@@$0A@@?$pair@$$CBV?$basic_string_view@DU?$char_traits@D@__Cr@std@@@__Cr@std@@PEAVCommandLineFlag@absl@@@__Cr@std@@QEAA@$$QEAV?$basic_string_view@DU?$char_traits@D@__Cr@std@@@12@$$QEAPEAVCommandLineFlag@absl@@@Z
    ??$?0V?$basic_string_view@DU?$char_traits@D@__Cr@std@@@__Cr@std@@PEAVCommandLineFlag@absl@@$0A@@?$pair@V?$basic_string_view@DU?$char_traits@D@__Cr@std@@@__Cr@std@@PEAVCommandLineFlag@absl@@@__Cr@std@@QEAA@$$QEAV?$basic_string_view@DU?$char_traits@D@__Cr@std@@@12@$$QEAPEAVCommandLineFlag@absl@@@Z
    ??$?0V?$basic_string_view@DU?$char_traits@D@__Cr@std@@@__Cr@std@@XV012@$0A@@?$Span@$$CBD@absl@@QEAA@AEBV?$basic_string_view@DU?$char_traits@D@__Cr@std@@@__Cr@std@@@Z
    ??$?0VBufferRawSink@str_format_internal@absl@@$0A@@FormatRawSinkImpl@str_format_internal@absl@@QEAA@PEAVBufferRawSink@12@@Z
    ??$?0VCommonFields@container_internal@absl@@@?$Storage@VCommonFields@container_internal@absl@@$0A@$0A@@internal_compressed_tuple@container_internal@absl@@QEAA@Uin_place_t@__Cr@std@@$$QEAVCommonFields@23@@Z
    ??$?0VCommonFields@container_internal@absl@@AEAU?$Hash@C@hash_internal@2@AEAU?$equal_to@C@__Cr@std@@AEAV?$allocator@C@67@$00@?$CompressedTuple@VCommonFields@container_internal@absl@@U?$Hash@C@hash_internal@3@U?$equal_to@C@__Cr@std@@V?$allocator@C@78@@container_internal@absl@@QEAA@$$QEAVCommonFields@12@AEAU?$Hash@C@hash_internal@2@AEAU?$equal_to@C@__Cr@std@@AEAV?$allocator@C@78@@Z
    ??$?0VCommonFields@container_internal@absl@@AEAU?$Hash@C@hash_internal@2@AEAU?$equal_to@C@__Cr@std@@AEAV?$allocator@C@67@@?$CompressedTupleImpl@V?$CompressedTuple@VCommonFields@container_internal@absl@@U?$Hash@C@hash_internal@3@U?$equal_to@C@__Cr@std@@V?$allocator@C@78@@container_internal@absl@@U?$integer_sequence@_K$0A@$00$01$02@__Cr@std@@$00@internal_compressed_tuple@container_internal@absl@@QEAA@Uin_place_t@__Cr@std@@$$QEAVCommonFields@23@AEAU?$Hash@C@hash_internal@3@AEAU?$equal_to@C@56@AEAV?$allocator@C@56@@Z
    ??$?0VCommonFields@container_internal@absl@@AEAU?$Hash@C@hash_internal@2@AEAU?$equal_to@C@__Cr@std@@AEBV?$allocator@C@67@$00@?$CompressedTuple@VCommonFields@container_internal@absl@@U?$Hash@C@hash_internal@3@U?$equal_to@C@__Cr@std@@V?$allocator@C@78@@container_internal@absl@@QEAA@$$QEAVCommonFields@12@AEAU?$Hash@C@hash_internal@2@AEAU?$equal_to@C@__Cr@std@@AEBV?$allocator@C@78@@Z
    ??$?0VCommonFields@container_internal@absl@@AEAU?$Hash@C@hash_internal@2@AEAU?$equal_to@C@__Cr@std@@AEBV?$allocator@C@67@@?$CompressedTupleImpl@V?$CompressedTuple@VCommonFields@container_internal@absl@@U?$Hash@C@hash_internal@3@U?$equal_to@C@__Cr@std@@V?$allocator@C@78@@container_internal@absl@@U?$integer_sequence@_K$0A@$00$01$02@__Cr@std@@$00@internal_compressed_tuple@container_internal@absl@@QEAA@Uin_place_t@__Cr@std@@$$QEAVCommonFields@23@AEAU?$Hash@C@hash_internal@3@AEAU?$equal_to@C@56@AEBV?$allocator@C@56@@Z
    ??$?0VCommonFields@container_internal@absl@@AEAU?$Hash@E@hash_internal@2@AEAU?$equal_to@E@__Cr@std@@AEAV?$allocator@E@67@$00@?$CompressedTuple@VCommonFields@container_internal@absl@@U?$Hash@E@hash_internal@3@U?$equal_to@E@__Cr@std@@V?$allocator@E@78@@container_internal@absl@@QEAA@$$QEAVCommonFields@12@AEAU?$Hash@E@hash_internal@2@AEAU?$equal_to@E@__Cr@std@@AEAV?$allocator@E@78@@Z
    ??$?0VCommonFields@container_internal@absl@@AEAU?$Hash@E@hash_internal@2@AEAU?$equal_to@E@__Cr@std@@AEAV?$allocator@E@67@@?$CompressedTupleImpl@V?$CompressedTuple@VCommonFields@container_internal@absl@@U?$Hash@E@hash_internal@3@U?$equal_to@E@__Cr@std@@V?$allocator@E@78@@container_internal@absl@@U?$integer_sequence@_K$0A@$00$01$02@__Cr@std@@$00@internal_compressed_tuple@container_internal@absl@@QEAA@Uin_place_t@__Cr@std@@$$QEAVCommonFields@23@AEAU?$Hash@E@hash_internal@3@AEAU?$equal_to@E@56@AEAV?$allocator@E@56@@Z
    ??$?0VCommonFields@container_internal@absl@@AEAU?$Hash@E@hash_internal@2@AEAU?$equal_to@E@__Cr@std@@AEBV?$allocator@E@67@$00@?$CompressedTuple@VCommonFields@container_internal@absl@@U?$Hash@E@hash_internal@3@U?$equal_to@E@__Cr@std@@V?$allocator@E@78@@container_internal@absl@@QEAA@$$QEAVCommonFields@12@AEAU?$Hash@E@hash_internal@2@AEAU?$equal_to@E@__Cr@std@@AEBV?$allocator@E@78@@Z
    ??$?0VCommonFields@container_internal@absl@@AEAU?$Hash@E@hash_internal@2@AEAU?$equal_to@E@__Cr@std@@AEBV?$allocator@E@67@@?$CompressedTupleImpl@V?$CompressedTuple@VCommonFields@container_internal@absl@@U?$Hash@E@hash_internal@3@U?$equal_to@E@__Cr@std@@V?$allocator@E@78@@container_internal@absl@@U?$integer_sequence@_K$0A@$00$01$02@__Cr@std@@$00@internal_compressed_tuple@container_internal@absl@@QEAA@Uin_place_t@__Cr@std@@$$QEAVCommonFields@23@AEAU?$Hash@E@hash_internal@3@AEAU?$equal_to@E@56@AEBV?$allocator@E@56@@Z
    ??$?0VCommonFields@container_internal@absl@@AEAU?$Hash@F@hash_internal@2@AEAU?$equal_to@F@__Cr@std@@AEAV?$allocator@F@67@$00@?$CompressedTuple@VCommonFields@container_internal@absl@@U?$Hash@F@hash_internal@3@U?$equal_to@F@__Cr@std@@V?$allocator@F@78@@container_internal@absl@@QEAA@$$QEAVCommonFields@12@AEAU?$Hash@F@hash_internal@2@AEAU?$equal_to@F@__Cr@std@@AEAV?$allocator@F@78@@Z
    ??$?0VCommonFields@container_internal@absl@@AEAU?$Hash@F@hash_internal@2@AEAU?$equal_to@F@__Cr@std@@AEAV?$allocator@F@67@@?$CompressedTupleImpl@V?$CompressedTuple@VCommonFields@container_internal@absl@@U?$Hash@F@hash_internal@3@U?$equal_to@F@__Cr@std@@V?$allocator@F@78@@container_internal@absl@@U?$integer_sequence@_K$0A@$00$01$02@__Cr@std@@$00@internal_compressed_tuple@container_internal@absl@@QEAA@Uin_place_t@__Cr@std@@$$QEAVCommonFields@23@AEAU?$Hash@F@hash_internal@3@AEAU?$equal_to@F@56@AEAV?$allocator@F@56@@Z
    ??$?0VCommonFields@container_internal@absl@@AEAU?$Hash@F@hash_internal@2@AEAU?$equal_to@F@__Cr@std@@AEBV?$allocator@F@67@$00@?$CompressedTuple@VCommonFields@container_internal@absl@@U?$Hash@F@hash_internal@3@U?$equal_to@F@__Cr@std@@V?$allocator@F@78@@container_internal@absl@@QEAA@$$QEAVCommonFields@12@AEAU?$Hash@F@hash_internal@2@AEAU?$equal_to@F@__Cr@std@@AEBV?$allocator@F@78@@Z
    ??$?0VCommonFields@container_internal@absl@@AEAU?$Hash@F@hash_internal@2@AEAU?$equal_to@F@__Cr@std@@AEBV?$allocator@F@67@@?$CompressedTupleImpl@V?$CompressedTuple@VCommonFields@container_internal@absl@@U?$Hash@F@hash_internal@3@U?$equal_to@F@__Cr@std@@V?$allocator@F@78@@container_internal@absl@@U?$integer_sequence@_K$0A@$00$01$02@__Cr@std@@$00@internal_compressed_tuple@container_internal@absl@@QEAA@Uin_place_t@__Cr@std@@$$QEAVCommonFields@23@AEAU?$Hash@F@hash_internal@3@AEAU?$equal_to@F@56@AEBV?$allocator@F@56@@Z
    ??$?0VCommonFields@container_internal@absl@@AEAU?$Hash@G@hash_internal@2@AEAU?$equal_to@G@__Cr@std@@AEAV?$allocator@G@67@$00@?$CompressedTuple@VCommonFields@container_internal@absl@@U?$Hash@G@hash_internal@3@U?$equal_to@G@__Cr@std@@V?$allocator@G@78@@container_internal@absl@@QEAA@$$QEAVCommonFields@12@AEAU?$Hash@G@hash_internal@2@AEAU?$equal_to@G@__Cr@std@@AEAV?$allocator@G@78@@Z
    ??$?0VCommonFields@container_internal@absl@@AEAU?$Hash@G@hash_internal@2@AEAU?$equal_to@G@__Cr@std@@AEAV?$allocator@G@67@@?$CompressedTupleImpl@V?$CompressedTuple@VCommonFields@container_internal@absl@@U?$Hash@G@hash_internal@3@U?$equal_to@G@__Cr@std@@V?$allocator@G@78@@container_internal@absl@@U?$integer_sequence@_K$0A@$00$01$02@__Cr@std@@$00@internal_compressed_tuple@container_internal@absl@@QEAA@Uin_place_t@__Cr@std@@$$QEAVCommonFields@23@AEAU?$Hash@G@hash_internal@3@AEAU?$equal_to@G@56@AEAV?$allocator@G@56@@Z
    ??$?0VCommonFields@container_internal@absl@@AEAU?$Hash@G@hash_internal@2@AEAU?$equal_to@G@__Cr@std@@AEBV?$allocator@G@67@$00@?$CompressedTuple@VCommonFields@container_internal@absl@@U?$Hash@G@hash_internal@3@U?$equal_to@G@__Cr@std@@V?$allocator@G@78@@container_internal@absl@@QEAA@$$QEAVCommonFields@12@AEAU?$Hash@G@hash_internal@2@AEAU?$equal_to@G@__Cr@std@@AEBV?$allocator@G@78@@Z
    ??$?0VCommonFields@container_internal@absl@@AEAU?$Hash@G@hash_internal@2@AEAU?$equal_to@G@__Cr@std@@AEBV?$allocator@G@67@@?$CompressedTupleImpl@V?$CompressedTuple@VCommonFields@container_internal@absl@@U?$Hash@G@hash_internal@3@U?$equal_to@G@__Cr@std@@V?$allocator@G@78@@container_internal@absl@@U?$integer_sequence@_K$0A@$00$01$02@__Cr@std@@$00@internal_compressed_tuple@container_internal@absl@@QEAA@Uin_place_t@__Cr@std@@$$QEAVCommonFields@23@AEAU?$Hash@G@hash_internal@3@AEAU?$equal_to@G@56@AEBV?$allocator@G@56@@Z
    ??$?0VCommonFields@container_internal@absl@@AEAU?$Hash@H@hash_internal@2@AEAU?$equal_to@H@__Cr@std@@AEAV?$allocator@H@67@$00@?$CompressedTuple@VCommonFields@container_internal@absl@@U?$Hash@H@hash_internal@3@U?$equal_to@H@__Cr@std@@V?$allocator@H@78@@container_internal@absl@@QEAA@$$QEAVCommonFields@12@AEAU?$Hash@H@hash_internal@2@AEAU?$equal_to@H@__Cr@std@@AEAV?$allocator@H@78@@Z
    ??$?0VCommonFields@container_internal@absl@@AEAU?$Hash@H@hash_internal@2@AEAU?$equal_to@H@__Cr@std@@AEAV?$allocator@H@67@@?$CompressedTupleImpl@V?$CompressedTuple@VCommonFields@container_internal@absl@@U?$Hash@H@hash_internal@3@U?$equal_to@H@__Cr@std@@V?$allocator@H@78@@container_internal@absl@@U?$integer_sequence@_K$0A@$00$01$02@__Cr@std@@$00@internal_compressed_tuple@container_internal@absl@@QEAA@Uin_place_t@__Cr@std@@$$QEAVCommonFields@23@AEAU?$Hash@H@hash_internal@3@AEAU?$equal_to@H@56@AEAV?$allocator@H@56@@Z
    ??$?0VCommonFields@container_internal@absl@@AEAU?$Hash@H@hash_internal@2@AEAU?$equal_to@H@__Cr@std@@AEAV?$allocator@U?$pair@$$CBHH@__Cr@std@@@67@$00@?$CompressedTuple@VCommonFields@container_internal@absl@@U?$Hash@H@hash_internal@3@U?$equal_to@H@__Cr@std@@V?$allocator@U?$pair@$$CBHH@__Cr@std@@@78@@container_internal@absl@@QEAA@$$QEAVCommonFields@12@AEAU?$Hash@H@hash_internal@2@AEAU?$equal_to@H@__Cr@std@@AEAV?$allocator@U?$pair@$$CBHH@__Cr@std@@@78@@Z
    ??$?0VCommonFields@container_internal@absl@@AEAU?$Hash@H@hash_internal@2@AEAU?$equal_to@H@__Cr@std@@AEAV?$allocator@U?$pair@$$CBHH@__Cr@std@@@67@@?$CompressedTupleImpl@V?$CompressedTuple@VCommonFields@container_internal@absl@@U?$Hash@H@hash_internal@3@U?$equal_to@H@__Cr@std@@V?$allocator@U?$pair@$$CBHH@__Cr@std@@@78@@container_internal@absl@@U?$integer_sequence@_K$0A@$00$01$02@__Cr@std@@$00@internal_compressed_tuple@container_internal@absl@@QEAA@Uin_place_t@__Cr@std@@$$QEAVCommonFields@23@AEAU?$Hash@H@hash_internal@3@AEAU?$equal_to@H@56@AEAV?$allocator@U?$pair@$$CBHH@__Cr@std@@@56@@Z
    ??$?0VCommonFields@container_internal@absl@@AEAU?$Hash@H@hash_internal@2@AEAU?$equal_to@H@__Cr@std@@AEAV?$allocator@U?$pair@$$CBHV?$basic_string@DU?$char_traits@D@__Cr@std@@V?$allocator@D@23@@__Cr@std@@@__Cr@std@@@67@$00@?$CompressedTuple@VCommonFields@container_internal@absl@@U?$Hash@H@hash_internal@3@U?$equal_to@H@__Cr@std@@V?$allocator@U?$pair@$$CBHV?$basic_string@DU?$char_traits@D@__Cr@std@@V?$allocator@D@23@@__Cr@std@@@__Cr@std@@@78@@container_internal@absl@@QEAA@$$QEAVCommonFields@12@AEAU?$Hash@H@hash_internal@2@AEAU?$equal_to@H@__Cr@std@@AEAV?$allocator@U?$pair@$$CBHV?$basic_string@DU?$char_traits@D@__Cr@std@@V?$allocator@D@23@@__Cr@std@@@__Cr@std@@@78@@Z
    ??$?0VCommonFields@container_internal@absl@@AEAU?$Hash@H@hash_internal@2@AEAU?$equal_to@H@__Cr@std@@AEAV?$allocator@U?$pair@$$CBHV?$basic_string@DU?$char_traits@D@__Cr@std@@V?$allocator@D@23@@__Cr@std@@@__Cr@std@@@67@@?$CompressedTupleImpl@V?$CompressedTuple@VCommonFields@container_internal@absl@@U?$Hash@H@hash_internal@3@U?$equal_to@H@__Cr@std@@V?$allocator@U?$pair@$$CBHV?$basic_string@DU?$char_traits@D@__Cr@std@@V?$allocator@D@23@@__Cr@std@@@__Cr@std@@@78@@container_internal@absl@@U?$integer_sequence@_K$0A@$00$01$02@__Cr@std@@$00@internal_compressed_tuple@container_internal@absl@@QEAA@Uin_place_t@__Cr@std@@$$QEAVCommonFields@23@AEAU?$Hash@H@hash_internal@3@AEAU?$equal_to@H@56@AEAV?$allocator@U?$pair@$$CBHV?$basic_string@DU?$char_traits@D@__Cr@std@@V?$allocator@D@23@@__Cr@std@@@__Cr@std@@@56@@Z
    ??$?0VCommonFields@container_internal@absl@@AEAU?$Hash@H@hash_internal@2@AEAU?$equal_to@H@__Cr@std@@AEBV?$allocator@H@67@$00@?$CompressedTuple@VCommonFields@container_internal@absl@@U?$Hash@H@hash_internal@3@U?$equal_to@H@__Cr@std@@V?$allocator@H@78@@container_internal@absl@@QEAA@$$QEAVCommonFields@12@AEAU?$Hash@H@hash_internal@2@AEAU?$equal_to@H@__Cr@std@@AEBV?$allocator@H@78@@Z
    ??$?0VCommonFields@container_internal@absl@@AEAU?$Hash@H@hash_internal@2@AEAU?$equal_to@H@__Cr@std@@AEBV?$allocator@H@67@@?$CompressedTupleImpl@V?$CompressedTuple@VCommonFields@container_internal@absl@@U?$Hash@H@hash_internal@3@U?$equal_to@H@__Cr@std@@V?$allocator@H@78@@container_internal@absl@@U?$integer_sequence@_K$0A@$00$01$02@__Cr@std@@$00@internal_compressed_tuple@container_internal@absl@@QEAA@Uin_place_t@__Cr@std@@$$QEAVCommonFields@23@AEAU?$Hash@H@hash_internal@3@AEAU?$equal_to@H@56@AEBV?$allocator@H@56@@Z
    ??$?0VCommonFields@container_internal@absl@@AEAU?$Hash@H@hash_internal@2@AEAU?$equal_to@H@__Cr@std@@AEBV?$allocator@U?$pair@$$CBHH@__Cr@std@@@67@$00@?$CompressedTuple@VCommonFields@container_internal@absl@@U?$Hash@H@hash_internal@3@U?$equal_to@H@__Cr@std@@V?$allocator@U?$pair@$$CBHH@__Cr@std@@@78@@container_internal@absl@@QEAA@$$QEAVCommonFields@12@AEAU?$Hash@H@hash_internal@2@AEAU?$equal_to@H@__Cr@std@@AEBV?$allocator@U?$pair@$$CBHH@__Cr@std@@@78@@Z
    ??$?0VCommonFields@container_internal@absl@@AEAU?$Hash@H@hash_internal@2@AEAU?$equal_to@H@__Cr@std@@AEBV?$allocator@U?$pair@$$CBHH@__Cr@std@@@67@@?$CompressedTupleImpl@V?$CompressedTuple@VCommonFields@container_internal@absl@@U?$Hash@H@hash_internal@3@U?$equal_to@H@__Cr@std@@V?$allocator@U?$pair@$$CBHH@__Cr@std@@@78@@container_internal@absl@@U?$integer_sequence@_K$0A@$00$01$02@__Cr@std@@$00@internal_compressed_tuple@container_internal@absl@@QEAA@Uin_place_t@__Cr@std@@$$QEAVCommonFields@23@AEAU?$Hash@H@hash_internal@3@AEAU?$equal_to@H@56@AEBV?$allocator@U?$pair@$$CBHH@__Cr@std@@@56@@Z
    ??$?0VCommonFields@container_internal@absl@@AEAU?$Hash@H@hash_internal@2@AEAU?$equal_to@H@__Cr@std@@AEBV?$allocator@U?$pair@$$CBHV?$basic_string@DU?$char_traits@D@__Cr@std@@V?$allocator@D@23@@__Cr@std@@@__Cr@std@@@67@$00@?$CompressedTuple@VCommonFields@container_internal@absl@@U?$Hash@H@hash_internal@3@U?$equal_to@H@__Cr@std@@V?$allocator@U?$pair@$$CBHV?$basic_string@DU?$char_traits@D@__Cr@std@@V?$allocator@D@23@@__Cr@std@@@__Cr@std@@@78@@container_internal@absl@@QEAA@$$QEAVCommonFields@12@AEAU?$Hash@H@hash_internal@2@AEAU?$equal_to@H@__Cr@std@@AEBV?$allocator@U?$pair@$$CBHV?$basic_string@DU?$char_traits@D@__Cr@std@@V?$allocator@D@23@@__Cr@std@@@__Cr@std@@@78@@Z
    ??$?0VCommonFields@container_internal@absl@@AEAU?$Hash@H@hash_internal@2@AEAU?$equal_to@H@__Cr@std@@AEBV?$allocator@U?$pair@$$CBHV?$basic_string@DU?$char_traits@D@__Cr@std@@V?$allocator@D@23@@__Cr@std@@@__Cr@std@@@67@@?$CompressedTupleImpl@V?$CompressedTuple@VCommonFields@container_internal@absl@@U?$Hash@H@hash_internal@3@U?$equal_to@H@__Cr@std@@V?$allocator@U?$pair@$$CBHV?$basic_string@DU?$char_traits@D@__Cr@std@@V?$allocator@D@23@@__Cr@std@@@__Cr@std@@@78@@container_internal@absl@@U?$integer_sequence@_K$0A@$00$01$02@__Cr@std@@$00@internal_compressed_tuple@container_internal@absl@@QEAA@Uin_place_t@__Cr@std@@$$QEAVCommonFields@23@AEAU?$Hash@H@hash_internal@3@AEAU?$equal_to@H@56@AEBV?$allocator@U?$pair@$$CBHV?$basic_string@DU?$char_traits@D@__Cr@std@@V?$allocator@D@23@@__Cr@std@@@__Cr@std@@@56@@Z
    ??$?0VCommonFields@container_internal@absl@@AEAU?$Hash@I@hash_internal@2@AEAU?$equal_to@I@__Cr@std@@AEAV?$allocator@I@67@$00@?$CompressedTuple@VCommonFields@container_internal@absl@@U?$Hash@I@hash_internal@3@U?$equal_to@I@__Cr@std@@V?$allocator@I@78@@container_internal@absl@@QEAA@$$QEAVCommonFields@12@AEAU?$Hash@I@hash_internal@2@AEAU?$equal_to@I@__Cr@std@@AEAV?$allocator@I@78@@Z
    ??$?0VCommonFields@container_internal@absl@@AEAU?$Hash@I@hash_internal@2@AEAU?$equal_to@I@__Cr@std@@AEAV?$allocator@I@67@@?$CompressedTupleImpl@V?$CompressedTuple@VCommonFields@container_internal@absl@@U?$Hash@I@hash_internal@3@U?$equal_to@I@__Cr@std@@V?$allocator@I@78@@container_internal@absl@@U?$integer_sequence@_K$0A@$00$01$02@__Cr@std@@$00@internal_compressed_tuple@container_internal@absl@@QEAA@Uin_place_t@__Cr@std@@$$QEAVCommonFields@23@AEAU?$Hash@I@hash_internal@3@AEAU?$equal_to@I@56@AEAV?$allocator@I@56@@Z
    ??$?0VCommonFields@container_internal@absl@@AEAU?$Hash@I@hash_internal@2@AEAU?$equal_to@I@__Cr@std@@AEAV?$allocator@U?$pair@$$CBII@__Cr@std@@@67@$00@?$CompressedTuple@VCommonFields@container_internal@absl@@U?$Hash@I@hash_internal@3@U?$equal_to@I@__Cr@std@@V?$allocator@U?$pair@$$CBII@__Cr@std@@@78@@container_internal@absl@@QEAA@$$QEAVCommonFields@12@AEAU?$Hash@I@hash_internal@2@AEAU?$equal_to@I@__Cr@std@@AEAV?$allocator@U?$pair@$$CBII@__Cr@std@@@78@@Z
    ??$?0VCommonFields@container_internal@absl@@AEAU?$Hash@I@hash_internal@2@AEAU?$equal_to@I@__Cr@std@@AEAV?$allocator@U?$pair@$$CBII@__Cr@std@@@67@@?$CompressedTupleImpl@V?$CompressedTuple@VCommonFields@container_internal@absl@@U?$Hash@I@hash_internal@3@U?$equal_to@I@__Cr@std@@V?$allocator@U?$pair@$$CBII@__Cr@std@@@78@@container_internal@absl@@U?$integer_sequence@_K$0A@$00$01$02@__Cr@std@@$00@internal_compressed_tuple@container_internal@absl@@QEAA@Uin_place_t@__Cr@std@@$$QEAVCommonFields@23@AEAU?$Hash@I@hash_internal@3@AEAU?$equal_to@I@56@AEAV?$allocator@U?$pair@$$CBII@__Cr@std@@@56@@Z
    ??$?0VCommonFields@container_internal@absl@@AEAU?$Hash@I@hash_internal@2@AEAU?$equal_to@I@__Cr@std@@AEAV?$allocator@U?$pair@$$CBIV?$basic_string@DU?$char_traits@D@__Cr@std@@V?$allocator@D@23@@__Cr@std@@@__Cr@std@@@67@$00@?$CompressedTuple@VCommonFields@container_internal@absl@@U?$Hash@I@hash_internal@3@U?$equal_to@I@__Cr@std@@V?$allocator@U?$pair@$$CBIV?$basic_string@DU?$char_traits@D@__Cr@std@@V?$allocator@D@23@@__Cr@std@@@__Cr@std@@@78@@container_internal@absl@@QEAA@$$QEAVCommonFields@12@AEAU?$Hash@I@hash_internal@2@AEAU?$equal_to@I@__Cr@std@@AEAV?$allocator@U?$pair@$$CBIV?$basic_string@DU?$char_traits@D@__Cr@std@@V?$allocator@D@23@@__Cr@std@@@__Cr@std@@@78@@Z
    ??$?0VCommonFields@container_internal@absl@@AEAU?$Hash@I@hash_internal@2@AEAU?$equal_to@I@__Cr@std@@AEAV?$allocator@U?$pair@$$CBIV?$basic_string@DU?$char_traits@D@__Cr@std@@V?$allocator@D@23@@__Cr@std@@@__Cr@std@@@67@@?$CompressedTupleImpl@V?$CompressedTuple@VCommonFields@container_internal@absl@@U?$Hash@I@hash_internal@3@U?$equal_to@I@__Cr@std@@V?$allocator@U?$pair@$$CBIV?$basic_string@DU?$char_traits@D@__Cr@std@@V?$allocator@D@23@@__Cr@std@@@__Cr@std@@@78@@container_internal@absl@@U?$integer_sequence@_K$0A@$00$01$02@__Cr@std@@$00@internal_compressed_tuple@container_internal@absl@@QEAA@Uin_place_t@__Cr@std@@$$QEAVCommonFields@23@AEAU?$Hash@I@hash_internal@3@AEAU?$equal_to@I@56@AEAV?$allocator@U?$pair@$$CBIV?$basic_string@DU?$char_traits@D@__Cr@std@@V?$allocator@D@23@@__Cr@std@@@__Cr@std@@@56@@Z
    ??$?0VCommonFields@container_internal@absl@@AEAU?$Hash@I@hash_internal@2@AEAU?$equal_to@I@__Cr@std@@AEBV?$allocator@I@67@$00@?$CompressedTuple@VCommonFields@container_internal@absl@@U?$Hash@I@hash_internal@3@U?$equal_to@I@__Cr@std@@V?$allocator@I@78@@container_internal@absl@@QEAA@$$QEAVCommonFields@12@AEAU?$Hash@I@hash_internal@2@AEAU?$equal_to@I@__Cr@std@@AEBV?$allocator@I@78@@Z
    ??$?0VCommonFields@container_internal@absl@@AEAU?$Hash@I@hash_internal@2@AEAU?$equal_to@I@__Cr@std@@AEBV?$allocator@I@67@@?$CompressedTupleImpl@V?$CompressedTuple@VCommonFields@container_internal@absl@@U?$Hash@I@hash_internal@3@U?$equal_to@I@__Cr@std@@V?$allocator@I@78@@container_internal@absl@@U?$integer_sequence@_K$0A@$00$01$02@__Cr@std@@$00@internal_compressed_tuple@container_internal@absl@@QEAA@Uin_place_t@__Cr@std@@$$QEAVCommonFields@23@AEAU?$Hash@I@hash_internal@3@AEAU?$equal_to@I@56@AEBV?$allocator@I@56@@Z
    ??$?0VCommonFields@container_internal@absl@@AEAU?$Hash@I@hash_internal@2@AEAU?$equal_to@I@__Cr@std@@AEBV?$allocator@U?$pair@$$CBII@__Cr@std@@@67@$00@?$CompressedTuple@VCommonFields@container_internal@absl@@U?$Hash@I@hash_internal@3@U?$equal_to@I@__Cr@std@@V?$allocator@U?$pair@$$CBII@__Cr@std@@@78@@container_internal@absl@@QEAA@$$QEAVCommonFields@12@AEAU?$Hash@I@hash_internal@2@AEAU?$equal_to@I@__Cr@std@@AEBV?$allocator@U?$pair@$$CBII@__Cr@std@@@78@@Z
    ??$?0VCommonFields@container_internal@absl@@AEAU?$Hash@I@hash_internal@2@AEAU?$equal_to@I@__Cr@std@@AEBV?$allocator@U?$pair@$$CBII@__Cr@std@@@67@@?$CompressedTupleImpl@V?$CompressedTuple@VCommonFields@container_internal@absl@@U?$Hash@I@hash_internal@3@U?$equal_to@I@__Cr@std@@V?$allocator@U?$pair@$$CBII@__Cr@std@@@78@@container_internal@absl@@U?$integer_sequence@_K$0A@$00$01$02@__Cr@std@@$00@internal_compressed_tuple@container_internal@absl@@QEAA@Uin_place_t@__Cr@std@@$$QEAVCommonFields@23@AEAU?$Hash@I@hash_internal@3@AEAU?$equal_to@I@56@AEBV?$allocator@U?$pair@$$CBII@__Cr@std@@@56@@Z
    ??$?0VCommonFields@container_internal@absl@@AEAU?$Hash@I@hash_internal@2@AEAU?$equal_to@I@__Cr@std@@AEBV?$allocator@U?$pair@$$CBIV?$basic_string@DU?$char_traits@D@__Cr@std@@V?$allocator@D@23@@__Cr@std@@@__Cr@std@@@67@$00@?$CompressedTuple@VCommonFields@container_internal@absl@@U?$Hash@I@hash_internal@3@U?$equal_to@I@__Cr@std@@V?$allocator@U?$pair@$$CBIV?$basic_string@DU?$char_traits@D@__Cr@std@@V?$allocator@D@23@@__Cr@std@@@__Cr@std@@@78@@container_internal@absl@@QEAA@$$QEAVCommonFields@12@AEAU?$Hash@I@hash_internal@2@AEAU?$equal_to@I@__Cr@std@@AEBV?$allocator@U?$pair@$$CBIV?$basic_string@DU?$char_traits@D@__Cr@std@@V?$allocator@D@23@@__Cr@std@@@__Cr@std@@@78@@Z
    ??$?0VCommonFields@container_internal@absl@@AEAU?$Hash@I@hash_internal@2@AEAU?$equal_to@I@__Cr@std@@AEBV?$allocator@U?$pair@$$CBIV?$basic_string@DU?$char_traits@D@__Cr@std@@V?$allocator@D@23@@__Cr@std@@@__Cr@std@@@67@@?$CompressedTupleImpl@V?$CompressedTuple@VCommonFields@container_internal@absl@@U?$Hash@I@hash_internal@3@U?$equal_to@I@__Cr@std@@V?$allocator@U?$pair@$$CBIV?$basic_string@DU?$char_traits@D@__Cr@std@@V?$allocator@D@23@@__Cr@std@@@__Cr@std@@@78@@container_internal@absl@@U?$integer_sequence@_K$0A@$00$01$02@__Cr@std@@$00@internal_compressed_tuple@container_internal@absl@@QEAA@Uin_place_t@__Cr@std@@$$QEAVCommonFields@23@AEAU?$Hash@I@hash_internal@3@AEAU?$equal_to@I@56@AEBV?$allocator@U?$pair@$$CBIV?$basic_string@DU?$char_traits@D@__Cr@std@@V?$allocator@D@23@@__Cr@std@@@__Cr@std@@@56@@Z
    ??$?0VCommonFields@container_internal@absl@@AEAU?$Hash@_J@hash_internal@2@AEAU?$equal_to@_J@__Cr@std@@AEAV?$allocator@U?$pair@$$CB_JV?$basic_string@DU?$char_traits@D@__Cr@std@@V?$allocator@D@23@@__Cr@std@@@__Cr@std@@@67@$00@?$CompressedTuple@VCommonFields@container_internal@absl@@U?$Hash@_J@hash_internal@3@U?$equal_to@_J@__Cr@std@@V?$allocator@U?$pair@$$CB_JV?$basic_string@DU?$char_traits@D@__Cr@std@@V?$allocator@D@23@@__Cr@std@@@__Cr@std@@@78@@container_internal@absl@@QEAA@$$QEAVCommonFields@12@AEAU?$Hash@_J@hash_internal@2@AEAU?$equal_to@_J@__Cr@std@@AEAV?$allocator@U?$pair@$$CB_JV?$basic_string@DU?$char_traits@D@__Cr@std@@V?$allocator@D@23@@__Cr@std@@@__Cr@std@@@78@@Z
    ??$?0VCommonFields@container_internal@absl@@AEAU?$Hash@_J@hash_internal@2@AEAU?$equal_to@_J@__Cr@std@@AEAV?$allocator@U?$pair@$$CB_JV?$basic_string@DU?$char_traits@D@__Cr@std@@V?$allocator@D@23@@__Cr@std@@@__Cr@std@@@67@@?$CompressedTupleImpl@V?$CompressedTuple@VCommonFields@container_internal@absl@@U?$Hash@_J@hash_internal@3@U?$equal_to@_J@__Cr@std@@V?$allocator@U?$pair@$$CB_JV?$basic_string@DU?$char_traits@D@__Cr@std@@V?$allocator@D@23@@__Cr@std@@@__Cr@std@@@78@@container_internal@absl@@U?$integer_sequence@_K$0A@$00$01$02@__Cr@std@@$00@internal_compressed_tuple@container_internal@absl@@QEAA@Uin_place_t@__Cr@std@@$$QEAVCommonFields@23@AEAU?$Hash@_J@hash_internal@3@AEAU?$equal_to@_J@56@AEAV?$allocator@U?$pair@$$CB_JV?$basic_string@DU?$char_traits@D@__Cr@std@@V?$allocator@D@23@@__Cr@std@@@__Cr@std@@@56@@Z
    ??$?0VCommonFields@container_internal@absl@@AEAU?$Hash@_J@hash_internal@2@AEAU?$equal_to@_J@__Cr@std@@AEAV?$allocator@U?$pair@$$CB_J_J@__Cr@std@@@67@$00@?$CompressedTuple@VCommonFields@container_internal@absl@@U?$Hash@_J@hash_internal@3@U?$equal_to@_J@__Cr@std@@V?$allocator@U?$pair@$$CB_J_J@__Cr@std@@@78@@container_internal@absl@@QEAA@$$QEAVCommonFields@12@AEAU?$Hash@_J@hash_internal@2@AEAU?$equal_to@_J@__Cr@std@@AEAV?$allocator@U?$pair@$$CB_J_J@__Cr@std@@@78@@Z
    ??$?0VCommonFields@container_internal@absl@@AEAU?$Hash@_J@hash_internal@2@AEAU?$equal_to@_J@__Cr@std@@AEAV?$allocator@U?$pair@$$CB_J_J@__Cr@std@@@67@@?$CompressedTupleImpl@V?$CompressedTuple@VCommonFields@container_internal@absl@@U?$Hash@_J@hash_internal@3@U?$equal_to@_J@__Cr@std@@V?$allocator@U?$pair@$$CB_J_J@__Cr@std@@@78@@container_internal@absl@@U?$integer_sequence@_K$0A@$00$01$02@__Cr@std@@$00@internal_compressed_tuple@container_internal@absl@@QEAA@Uin_place_t@__Cr@std@@$$QEAVCommonFields@23@AEAU?$Hash@_J@hash_internal@3@AEAU?$equal_to@_J@56@AEAV?$allocator@U?$pair@$$CB_J_J@__Cr@std@@@56@@Z
    ??$?0VCommonFields@container_internal@absl@@AEAU?$Hash@_J@hash_internal@2@AEAU?$equal_to@_J@__Cr@std@@AEAV?$allocator@_J@67@$00@?$CompressedTuple@VCommonFields@container_internal@absl@@U?$Hash@_J@hash_internal@3@U?$equal_to@_J@__Cr@std@@V?$allocator@_J@78@@container_internal@absl@@QEAA@$$QEAVCommonFields@12@AEAU?$Hash@_J@hash_internal@2@AEAU?$equal_to@_J@__Cr@std@@AEAV?$allocator@_J@78@@Z
    ??$?0VCommonFields@container_internal@absl@@AEAU?$Hash@_J@hash_internal@2@AEAU?$equal_to@_J@__Cr@std@@AEAV?$allocator@_J@67@@?$CompressedTupleImpl@V?$CompressedTuple@VCommonFields@container_internal@absl@@U?$Hash@_J@hash_internal@3@U?$equal_to@_J@__Cr@std@@V?$allocator@_J@78@@container_internal@absl@@U?$integer_sequence@_K$0A@$00$01$02@__Cr@std@@$00@internal_compressed_tuple@container_internal@absl@@QEAA@Uin_place_t@__Cr@std@@$$QEAVCommonFields@23@AEAU?$Hash@_J@hash_internal@3@AEAU?$equal_to@_J@56@AEAV?$allocator@_J@56@@Z
    ??$?0VCommonFields@container_internal@absl@@AEAU?$Hash@_J@hash_internal@2@AEAU?$equal_to@_J@__Cr@std@@AEBV?$allocator@U?$pair@$$CB_JV?$basic_string@DU?$char_traits@D@__Cr@std@@V?$allocator@D@23@@__Cr@std@@@__Cr@std@@@67@$00@?$CompressedTuple@VCommonFields@container_internal@absl@@U?$Hash@_J@hash_internal@3@U?$equal_to@_J@__Cr@std@@V?$allocator@U?$pair@$$CB_JV?$basic_string@DU?$char_traits@D@__Cr@std@@V?$allocator@D@23@@__Cr@std@@@__Cr@std@@@78@@container_internal@absl@@QEAA@$$QEAVCommonFields@12@AEAU?$Hash@_J@hash_internal@2@AEAU?$equal_to@_J@__Cr@std@@AEBV?$allocator@U?$pair@$$CB_JV?$basic_string@DU?$char_traits@D@__Cr@std@@V?$allocator@D@23@@__Cr@std@@@__Cr@std@@@78@@Z
    ??$?0VCommonFields@container_internal@absl@@AEAU?$Hash@_J@hash_internal@2@AEAU?$equal_to@_J@__Cr@std@@AEBV?$allocator@U?$pair@$$CB_JV?$basic_string@DU?$char_traits@D@__Cr@std@@V?$allocator@D@23@@__Cr@std@@@__Cr@std@@@67@@?$CompressedTupleImpl@V?$CompressedTuple@VCommonFields@container_internal@absl@@U?$Hash@_J@hash_internal@3@U?$equal_to@_J@__Cr@std@@V?$allocator@U?$pair@$$CB_JV?$basic_string@DU?$char_traits@D@__Cr@std@@V?$allocator@D@23@@__Cr@std@@@__Cr@std@@@78@@container_internal@absl@@U?$integer_sequence@_K$0A@$00$01$02@__Cr@std@@$00@internal_compressed_tuple@container_internal@absl@@QEAA@Uin_place_t@__Cr@std@@$$QEAVCommonFields@23@AEAU?$Hash@_J@hash_internal@3@AEAU?$equal_to@_J@56@AEBV?$allocator@U?$pair@$$CB_JV?$basic_string@DU?$char_traits@D@__Cr@std@@V?$allocator@D@23@@__Cr@std@@@__Cr@std@@@56@@Z
    ??$?0VCommonFields@container_internal@absl@@AEAU?$Hash@_J@hash_internal@2@AEAU?$equal_to@_J@__Cr@std@@AEBV?$allocator@U?$pair@$$CB_J_J@__Cr@std@@@67@$00@?$CompressedTuple@VCommonFields@container_internal@absl@@U?$Hash@_J@hash_internal@3@U?$equal_to@_J@__Cr@std@@V?$allocator@U?$pair@$$CB_J_J@__Cr@std@@@78@@container_internal@absl@@QEAA@$$QEAVCommonFields@12@AEAU?$Hash@_J@hash_internal@2@AEAU?$equal_to@_J@__Cr@std@@AEBV?$allocator@U?$pair@$$CB_J_J@__Cr@std@@@78@@Z
    ??$?0VCommonFields@container_internal@absl@@AEAU?$Hash@_J@hash_internal@2@AEAU?$equal_to@_J@__Cr@std@@AEBV?$allocator@U?$pair@$$CB_J_J@__Cr@std@@@67@@?$CompressedTupleImpl@V?$CompressedTuple@VCommonFields@container_internal@absl@@U?$Hash@_J@hash_internal@3@U?$equal_to@_J@__Cr@std@@V?$allocator@U?$pair@$$CB_J_J@__Cr@std@@@78@@container_internal@absl@@U?$integer_sequence@_K$0A@$00$01$02@__Cr@std@@$00@internal_compressed_tuple@container_internal@absl@@QEAA@Uin_place_t@__Cr@std@@$$QEAVCommonFields@23@AEAU?$Hash@_J@hash_internal@3@AEAU?$equal_to@_J@56@AEBV?$allocator@U?$pair@$$CB_J_J@__Cr@std@@@56@@Z
    ??$?0VCommonFields@container_internal@absl@@AEAU?$Hash@_J@hash_internal@2@AEAU?$equal_to@_J@__Cr@std@@AEBV?$allocator@_J@67@$00@?$CompressedTuple@VCommonFields@container_internal@absl@@U?$Hash@_J@hash_internal@3@U?$equal_to@_J@__Cr@std@@V?$allocator@_J@78@@container_internal@absl@@QEAA@$$QEAVCommonFields@12@AEAU?$Hash@_J@hash_internal@2@AEAU?$equal_to@_J@__Cr@std@@AEBV?$allocator@_J@78@@Z
    ??$?0VCommonFields@container_internal@absl@@AEAU?$Hash@_J@hash_internal@2@AEAU?$equal_to@_J@__Cr@std@@AEBV?$allocator@_J@67@@?$CompressedTupleImpl@V?$CompressedTuple@VCommonFields@container_internal@absl@@U?$Hash@_J@hash_internal@3@U?$equal_to@_J@__Cr@std@@V?$allocator@_J@78@@container_internal@absl@@U?$integer_sequence@_K$0A@$00$01$02@__Cr@std@@$00@internal_compressed_tuple@container_internal@absl@@QEAA@Uin_place_t@__Cr@std@@$$QEAVCommonFields@23@AEAU?$Hash@_J@hash_internal@3@AEAU?$equal_to@_J@56@AEBV?$allocator@_J@56@@Z
    ??$?0VCommonFields@container_internal@absl@@AEAU?$Hash@_K@hash_internal@2@AEAU?$equal_to@_K@__Cr@std@@AEAV?$allocator@U?$pair@$$CB_KV?$basic_string@DU?$char_traits@D@__Cr@std@@V?$allocator@D@23@@__Cr@std@@@__Cr@std@@@67@$00@?$CompressedTuple@VCommonFields@container_internal@absl@@U?$Hash@_K@hash_internal@3@U?$equal_to@_K@__Cr@std@@V?$allocator@U?$pair@$$CB_KV?$basic_string@DU?$char_traits@D@__Cr@std@@V?$allocator@D@23@@__Cr@std@@@__Cr@std@@@78@@container_internal@absl@@QEAA@$$QEAVCommonFields@12@AEAU?$Hash@_K@hash_internal@2@AEAU?$equal_to@_K@__Cr@std@@AEAV?$allocator@U?$pair@$$CB_KV?$basic_string@DU?$char_traits@D@__Cr@std@@V?$allocator@D@23@@__Cr@std@@@__Cr@std@@@78@@Z
    ??$?0VCommonFields@container_internal@absl@@AEAU?$Hash@_K@hash_internal@2@AEAU?$equal_to@_K@__Cr@std@@AEAV?$allocator@U?$pair@$$CB_KV?$basic_string@DU?$char_traits@D@__Cr@std@@V?$allocator@D@23@@__Cr@std@@@__Cr@std@@@67@@?$CompressedTupleImpl@V?$CompressedTuple@VCommonFields@container_internal@absl@@U?$Hash@_K@hash_internal@3@U?$equal_to@_K@__Cr@std@@V?$allocator@U?$pair@$$CB_KV?$basic_string@DU?$char_traits@D@__Cr@std@@V?$allocator@D@23@@__Cr@std@@@__Cr@std@@@78@@container_internal@absl@@U?$integer_sequence@_K$0A@$00$01$02@__Cr@std@@$00@internal_compressed_tuple@container_internal@absl@@QEAA@Uin_place_t@__Cr@std@@$$QEAVCommonFields@23@AEAU?$Hash@_K@hash_internal@3@AEAU?$equal_to@_K@56@AEAV?$allocator@U?$pair@$$CB_KV?$basic_string@DU?$char_traits@D@__Cr@std@@V?$allocator@D@23@@__Cr@std@@@__Cr@std@@@56@@Z
    ??$?0VCommonFields@container_internal@absl@@AEAU?$Hash@_K@hash_internal@2@AEAU?$equal_to@_K@__Cr@std@@AEAV?$allocator@U?$pair@$$CB_K_K@__Cr@std@@@67@$00@?$CompressedTuple@VCommonFields@container_internal@absl@@U?$Hash@_K@hash_internal@3@U?$equal_to@_K@__Cr@std@@V?$allocator@U?$pair@$$CB_K_K@__Cr@std@@@78@@container_internal@absl@@QEAA@$$QEAVCommonFields@12@AEAU?$Hash@_K@hash_internal@2@AEAU?$equal_to@_K@__Cr@std@@AEAV?$allocator@U?$pair@$$CB_K_K@__Cr@std@@@78@@Z
    ??$?0VCommonFields@container_internal@absl@@AEAU?$Hash@_K@hash_internal@2@AEAU?$equal_to@_K@__Cr@std@@AEAV?$allocator@U?$pair@$$CB_K_K@__Cr@std@@@67@@?$CompressedTupleImpl@V?$CompressedTuple@VCommonFields@container_internal@absl@@U?$Hash@_K@hash_internal@3@U?$equal_to@_K@__Cr@std@@V?$allocator@U?$pair@$$CB_K_K@__Cr@std@@@78@@container_internal@absl@@U?$integer_sequence@_K$0A@$00$01$02@__Cr@std@@$00@internal_compressed_tuple@container_internal@absl@@QEAA@Uin_place_t@__Cr@std@@$$QEAVCommonFields@23@AEAU?$Hash@_K@hash_internal@3@AEAU?$equal_to@_K@56@AEAV?$allocator@U?$pair@$$CB_K_K@__Cr@std@@@56@@Z
    ??$?0VCommonFields@container_internal@absl@@AEAU?$Hash@_K@hash_internal@2@AEAU?$equal_to@_K@__Cr@std@@AEAV?$allocator@_K@67@$00@?$CompressedTuple@VCommonFields@container_internal@absl@@U?$Hash@_K@hash_internal@3@U?$equal_to@_K@__Cr@std@@V?$allocator@_K@78@@container_internal@absl@@QEAA@$$QEAVCommonFields@12@AEAU?$Hash@_K@hash_internal@2@AEAU?$equal_to@_K@__Cr@std@@AEAV?$allocator@_K@78@@Z
    ??$?0VCommonFields@container_internal@absl@@AEAU?$Hash@_K@hash_internal@2@AEAU?$equal_to@_K@__Cr@std@@AEAV?$allocator@_K@67@@?$CompressedTupleImpl@V?$CompressedTuple@VCommonFields@container_internal@absl@@U?$Hash@_K@hash_internal@3@U?$equal_to@_K@__Cr@std@@V?$allocator@_K@78@@container_internal@absl@@U?$integer_sequence@_K$0A@$00$01$02@__Cr@std@@$00@internal_compressed_tuple@container_internal@absl@@QEAA@Uin_place_t@__Cr@std@@$$QEAVCommonFields@23@AEAU?$Hash@_K@hash_internal@3@AEAU?$equal_to@_K@56@AEAV?$allocator@_K@56@@Z
    ??$?0VCommonFields@container_internal@absl@@AEAU?$Hash@_K@hash_internal@2@AEAU?$equal_to@_K@__Cr@std@@AEBV?$allocator@U?$pair@$$CB_KV?$basic_string@DU?$char_traits@D@__Cr@std@@V?$allocator@D@23@@__Cr@std@@@__Cr@std@@@67@$00@?$CompressedTuple@VCommonFields@container_internal@absl@@U?$Hash@_K@hash_internal@3@U?$equal_to@_K@__Cr@std@@V?$allocator@U?$pair@$$CB_KV?$basic_string@DU?$char_traits@D@__Cr@std@@V?$allocator@D@23@@__Cr@std@@@__Cr@std@@@78@@container_internal@absl@@QEAA@$$QEAVCommonFields@12@AEAU?$Hash@_K@hash_internal@2@AEAU?$equal_to@_K@__Cr@std@@AEBV?$allocator@U?$pair@$$CB_KV?$basic_string@DU?$char_traits@D@__Cr@std@@V?$allocator@D@23@@__Cr@std@@@__Cr@std@@@78@@Z
    ??$?0VCommonFields@container_internal@absl@@AEAU?$Hash@_K@hash_internal@2@AEAU?$equal_to@_K@__Cr@std@@AEBV?$allocator@U?$pair@$$CB_KV?$basic_string@DU?$char_traits@D@__Cr@std@@V?$allocator@D@23@@__Cr@std@@@__Cr@std@@@67@@?$CompressedTupleImpl@V?$CompressedTuple@VCommonFields@container_internal@absl@@U?$Hash@_K@hash_internal@3@U?$equal_to@_K@__Cr@std@@V?$allocator@U?$pair@$$CB_KV?$basic_string@DU?$char_traits@D@__Cr@std@@V?$allocator@D@23@@__Cr@std@@@__Cr@std@@@78@@container_internal@absl@@U?$integer_sequence@_K$0A@$00$01$02@__Cr@std@@$00@internal_compressed_tuple@container_internal@absl@@QEAA@Uin_place_t@__Cr@std@@$$QEAVCommonFields@23@AEAU?$Hash@_K@hash_internal@3@AEAU?$equal_to@_K@56@AEBV?$allocator@U?$pair@$$CB_KV?$basic_string@DU?$char_traits@D@__Cr@std@@V?$allocator@D@23@@__Cr@std@@@__Cr@std@@@56@@Z
    ??$?0VCommonFields@container_internal@absl@@AEAU?$Hash@_K@hash_internal@2@AEAU?$equal_to@_K@__Cr@std@@AEBV?$allocator@U?$pair@$$CB_K_K@__Cr@std@@@67@$00@?$CompressedTuple@VCommonFields@container_internal@absl@@U?$Hash@_K@hash_internal@3@U?$equal_to@_K@__Cr@std@@V?$allocator@U?$pair@$$CB_K_K@__Cr@std@@@78@@container_internal@absl@@QEAA@$$QEAVCommonFields@12@AEAU?$Hash@_K@hash_internal@2@AEAU?$equal_to@_K@__Cr@std@@AEBV?$allocator@U?$pair@$$CB_K_K@__Cr@std@@@78@@Z
    ??$?0VCommonFields@container_internal@absl@@AEAU?$Hash@_K@hash_internal@2@AEAU?$equal_to@_K@__Cr@std@@AEBV?$allocator@U?$pair@$$CB_K_K@__Cr@std@@@67@@?$CompressedTupleImpl@V?$CompressedTuple@VCommonFields@container_internal@absl@@U?$Hash@_K@hash_internal@3@U?$equal_to@_K@__Cr@std@@V?$allocator@U?$pair@$$CB_K_K@__Cr@std@@@78@@container_internal@absl@@U?$integer_sequence@_K$0A@$00$01$02@__Cr@std@@$00@internal_compressed_tuple@container_internal@absl@@QEAA@Uin_place_t@__Cr@std@@$$QEAVCommonFields@23@AEAU?$Hash@_K@hash_internal@3@AEAU?$equal_to@_K@56@AEBV?$allocator@U?$pair@$$CB_K_K@__Cr@std@@@56@@Z
    ??$?0VCommonFields@container_internal@absl@@AEAU?$Hash@_K@hash_internal@2@AEAU?$equal_to@_K@__Cr@std@@AEBV?$allocator@_K@67@$00@?$CompressedTuple@VCommonFields@container_internal@absl@@U?$Hash@_K@hash_internal@3@U?$equal_to@_K@__Cr@std@@V?$allocator@_K@78@@container_internal@absl@@QEAA@$$QEAVCommonFields@12@AEAU?$Hash@_K@hash_internal@2@AEAU?$equal_to@_K@__Cr@std@@AEBV?$allocator@_K@78@@Z
    ??$?0VCommonFields@container_internal@absl@@AEAU?$Hash@_K@hash_internal@2@AEAU?$equal_to@_K@__Cr@std@@AEBV?$allocator@_K@67@@?$CompressedTupleImpl@V?$CompressedTuple@VCommonFields@container_internal@absl@@U?$Hash@_K@hash_internal@3@U?$equal_to@_K@__Cr@std@@V?$allocator@_K@78@@container_internal@absl@@U?$integer_sequence@_K$0A@$00$01$02@__Cr@std@@$00@internal_compressed_tuple@container_internal@absl@@QEAA@Uin_place_t@__Cr@std@@$$QEAVCommonFields@23@AEAU?$Hash@_K@hash_internal@3@AEAU?$equal_to@_K@56@AEBV?$allocator@_K@56@@Z
    ??$?0VCommonFields@container_internal@absl@@AEAUStringHash@12@AEAUStringEq@12@AEAV?$allocator@U?$pair@$$CBV?$basic_string@DU?$char_traits@D@__Cr@std@@V?$allocator@D@23@@__Cr@std@@H@__Cr@std@@@__Cr@std@@$00@?$CompressedTuple@VCommonFields@container_internal@absl@@UStringHash@23@UStringEq@23@V?$allocator@U?$pair@$$CBV?$basic_string@DU?$char_traits@D@__Cr@std@@V?$allocator@D@23@@__Cr@std@@H@__Cr@std@@@__Cr@std@@@container_internal@absl@@QEAA@$$QEAVCommonFields@12@AEAUStringHash@12@AEAUStringEq@12@AEAV?$allocator@U?$pair@$$CBV?$basic_string@DU?$char_traits@D@__Cr@std@@V?$allocator@D@23@@__Cr@std@@H@__Cr@std@@@__Cr@std@@@Z
    ??$?0VCommonFields@container_internal@absl@@AEAUStringHash@12@AEAUStringEq@12@AEAV?$allocator@U?$pair@$$CBV?$basic_string@DU?$char_traits@D@__Cr@std@@V?$allocator@D@23@@__Cr@std@@H@__Cr@std@@@__Cr@std@@@?$CompressedTupleImpl@V?$CompressedTuple@VCommonFields@container_internal@absl@@UStringHash@23@UStringEq@23@V?$allocator@U?$pair@$$CBV?$basic_string@DU?$char_traits@D@__Cr@std@@V?$allocator@D@23@@__Cr@std@@H@__Cr@std@@@__Cr@std@@@container_internal@absl@@U?$integer_sequence@_K$0A@$00$01$02@__Cr@std@@$00@internal_compressed_tuple@container_internal@absl@@QEAA@Uin_place_t@__Cr@std@@$$QEAVCommonFields@23@AEAUStringHash@23@AEAUStringEq@23@AEAV?$allocator@U?$pair@$$CBV?$basic_string@DU?$char_traits@D@__Cr@std@@V?$allocator@D@23@@__Cr@std@@H@__Cr@std@@@56@@Z
    ??$?0VCommonFields@container_internal@absl@@AEAUStringHash@12@AEAUStringEq@12@AEAV?$allocator@U?$pair@$$CBV?$basic_string@DU?$char_traits@D@__Cr@std@@V?$allocator@D@23@@__Cr@std@@I@__Cr@std@@@__Cr@std@@$00@?$CompressedTuple@VCommonFields@container_internal@absl@@UStringHash@23@UStringEq@23@V?$allocator@U?$pair@$$CBV?$basic_string@DU?$char_traits@D@__Cr@std@@V?$allocator@D@23@@__Cr@std@@I@__Cr@std@@@__Cr@std@@@container_internal@absl@@QEAA@$$QEAVCommonFields@12@AEAUStringHash@12@AEAUStringEq@12@AEAV?$allocator@U?$pair@$$CBV?$basic_string@DU?$char_traits@D@__Cr@std@@V?$allocator@D@23@@__Cr@std@@I@__Cr@std@@@__Cr@std@@@Z
    ??$?0VCommonFields@container_internal@absl@@AEAUStringHash@12@AEAUStringEq@12@AEAV?$allocator@U?$pair@$$CBV?$basic_string@DU?$char_traits@D@__Cr@std@@V?$allocator@D@23@@__Cr@std@@I@__Cr@std@@@__Cr@std@@@?$CompressedTupleImpl@V?$CompressedTuple@VCommonFields@container_internal@absl@@UStringHash@23@UStringEq@23@V?$allocator@U?$pair@$$CBV?$basic_string@DU?$char_traits@D@__Cr@std@@V?$allocator@D@23@@__Cr@std@@I@__Cr@std@@@__Cr@std@@@container_internal@absl@@U?$integer_sequence@_K$0A@$00$01$02@__Cr@std@@$00@internal_compressed_tuple@container_internal@absl@@QEAA@Uin_place_t@__Cr@std@@$$QEAVCommonFields@23@AEAUStringHash@23@AEAUStringEq@23@AEAV?$allocator@U?$pair@$$CBV?$basic_string@DU?$char_traits@D@__Cr@std@@V?$allocator@D@23@@__Cr@std@@I@__Cr@std@@@56@@Z
    ??$?0VCommonFields@container_internal@absl@@AEAUStringHash@12@AEAUStringEq@12@AEAV?$allocator@U?$pair@$$CBV?$basic_string@DU?$char_traits@D@__Cr@std@@V?$allocator@D@23@@__Cr@std@@V123@@__Cr@std@@@__Cr@std@@$00@?$CompressedTuple@VCommonFields@container_internal@absl@@UStringHash@23@UStringEq@23@V?$allocator@U?$pair@$$CBV?$basic_string@DU?$char_traits@D@__Cr@std@@V?$allocator@D@23@@__Cr@std@@V123@@__Cr@std@@@__Cr@std@@@container_internal@absl@@QEAA@$$QEAVCommonFields@12@AEAUStringHash@12@AEAUStringEq@12@AEAV?$allocator@U?$pair@$$CBV?$basic_string@DU?$char_traits@D@__Cr@std@@V?$allocator@D@23@@__Cr@std@@V123@@__Cr@std@@@__Cr@std@@@Z
    ??$?0VCommonFields@container_internal@absl@@AEAUStringHash@12@AEAUStringEq@12@AEAV?$allocator@U?$pair@$$CBV?$basic_string@DU?$char_traits@D@__Cr@std@@V?$allocator@D@23@@__Cr@std@@V123@@__Cr@std@@@__Cr@std@@@?$CompressedTupleImpl@V?$CompressedTuple@VCommonFields@container_internal@absl@@UStringHash@23@UStringEq@23@V?$allocator@U?$pair@$$CBV?$basic_string@DU?$char_traits@D@__Cr@std@@V?$allocator@D@23@@__Cr@std@@V123@@__Cr@std@@@__Cr@std@@@container_internal@absl@@U?$integer_sequence@_K$0A@$00$01$02@__Cr@std@@$00@internal_compressed_tuple@container_internal@absl@@QEAA@Uin_place_t@__Cr@std@@$$QEAVCommonFields@23@AEAUStringHash@23@AEAUStringEq@23@AEAV?$allocator@U?$pair@$$CBV?$basic_string@DU?$char_traits@D@__Cr@std@@V?$allocator@D@23@@__Cr@std@@V123@@__Cr@std@@@56@@Z
    ??$?0VCommonFields@container_internal@absl@@AEAUStringHash@12@AEAUStringEq@12@AEAV?$allocator@U?$pair@$$CBV?$basic_string@DU?$char_traits@D@__Cr@std@@V?$allocator@D@23@@__Cr@std@@_J@__Cr@std@@@__Cr@std@@$00@?$CompressedTuple@VCommonFields@container_internal@absl@@UStringHash@23@UStringEq@23@V?$allocator@U?$pair@$$CBV?$basic_string@DU?$char_traits@D@__Cr@std@@V?$allocator@D@23@@__Cr@std@@_J@__Cr@std@@@__Cr@std@@@container_internal@absl@@QEAA@$$QEAVCommonFields@12@AEAUStringHash@12@AEAUStringEq@12@AEAV?$allocator@U?$pair@$$CBV?$basic_string@DU?$char_traits@D@__Cr@std@@V?$allocator@D@23@@__Cr@std@@_J@__Cr@std@@@__Cr@std@@@Z
    ??$?0VCommonFields@container_internal@absl@@AEAUStringHash@12@AEAUStringEq@12@AEAV?$allocator@U?$pair@$$CBV?$basic_string@DU?$char_traits@D@__Cr@std@@V?$allocator@D@23@@__Cr@std@@_J@__Cr@std@@@__Cr@std@@@?$CompressedTupleImpl@V?$CompressedTuple@VCommonFields@container_internal@absl@@UStringHash@23@UStringEq@23@V?$allocator@U?$pair@$$CBV?$basic_string@DU?$char_traits@D@__Cr@std@@V?$allocator@D@23@@__Cr@std@@_J@__Cr@std@@@__Cr@std@@@container_internal@absl@@U?$integer_sequence@_K$0A@$00$01$02@__Cr@std@@$00@internal_compressed_tuple@container_internal@absl@@QEAA@Uin_place_t@__Cr@std@@$$QEAVCommonFields@23@AEAUStringHash@23@AEAUStringEq@23@AEAV?$allocator@U?$pair@$$CBV?$basic_string@DU?$char_traits@D@__Cr@std@@V?$allocator@D@23@@__Cr@std@@_J@__Cr@std@@@56@@Z
    ??$?0VCommonFields@container_internal@absl@@AEAUStringHash@12@AEAUStringEq@12@AEAV?$allocator@U?$pair@$$CBV?$basic_string@DU?$char_traits@D@__Cr@std@@V?$allocator@D@23@@__Cr@std@@_K@__Cr@std@@@__Cr@std@@$00@?$CompressedTuple@VCommonFields@container_internal@absl@@UStringHash@23@UStringEq@23@V?$allocator@U?$pair@$$CBV?$basic_string@DU?$char_traits@D@__Cr@std@@V?$allocator@D@23@@__Cr@std@@_K@__Cr@std@@@__Cr@std@@@container_internal@absl@@QEAA@$$QEAVCommonFields@12@AEAUStringHash@12@AEAUStringEq@12@AEAV?$allocator@U?$pair@$$CBV?$basic_string@DU?$char_traits@D@__Cr@std@@V?$allocator@D@23@@__Cr@std@@_K@__Cr@std@@@__Cr@std@@@Z
    ??$?0VCommonFields@container_internal@absl@@AEAUStringHash@12@AEAUStringEq@12@AEAV?$allocator@U?$pair@$$CBV?$basic_string@DU?$char_traits@D@__Cr@std@@V?$allocator@D@23@@__Cr@std@@_K@__Cr@std@@@__Cr@std@@@?$CompressedTupleImpl@V?$CompressedTuple@VCommonFields@container_internal@absl@@UStringHash@23@UStringEq@23@V?$allocator@U?$pair@$$CBV?$basic_string@DU?$char_traits@D@__Cr@std@@V?$allocator@D@23@@__Cr@std@@_K@__Cr@std@@@__Cr@std@@@container_internal@absl@@U?$integer_sequence@_K$0A@$00$01$02@__Cr@std@@$00@internal_compressed_tuple@container_internal@absl@@QEAA@Uin_place_t@__Cr@std@@$$QEAVCommonFields@23@AEAUStringHash@23@AEAUStringEq@23@AEAV?$allocator@U?$pair@$$CBV?$basic_string@DU?$char_traits@D@__Cr@std@@V?$allocator@D@23@@__Cr@std@@_K@__Cr@std@@@56@@Z
    ??$?0VCommonFields@container_internal@absl@@AEAUStringHash@12@AEAUStringEq@12@AEAV?$allocator@V?$basic_string@DU?$char_traits@D@__Cr@std@@V?$allocator@D@23@@__Cr@std@@@__Cr@std@@$00@?$CompressedTuple@VCommonFields@container_internal@absl@@UStringHash@23@UStringEq@23@V?$allocator@V?$basic_string@DU?$char_traits@D@__Cr@std@@V?$allocator@D@23@@__Cr@std@@@__Cr@std@@@container_internal@absl@@QEAA@$$QEAVCommonFields@12@AEAUStringHash@12@AEAUStringEq@12@AEAV?$allocator@V?$basic_string@DU?$char_traits@D@__Cr@std@@V?$allocator@D@23@@__Cr@std@@@__Cr@std@@@Z
    ??$?0VCommonFields@container_internal@absl@@AEAUStringHash@12@AEAUStringEq@12@AEAV?$allocator@V?$basic_string@DU?$char_traits@D@__Cr@std@@V?$allocator@D@23@@__Cr@std@@@__Cr@std@@@?$CompressedTupleImpl@V?$CompressedTuple@VCommonFields@container_internal@absl@@UStringHash@23@UStringEq@23@V?$allocator@V?$basic_string@DU?$char_traits@D@__Cr@std@@V?$allocator@D@23@@__Cr@std@@@__Cr@std@@@container_internal@absl@@U?$integer_sequence@_K$0A@$00$01$02@__Cr@std@@$00@internal_compressed_tuple@container_internal@absl@@QEAA@Uin_place_t@__Cr@std@@$$QEAVCommonFields@23@AEAUStringHash@23@AEAUStringEq@23@AEAV?$allocator@V?$basic_string@DU?$char_traits@D@__Cr@std@@V?$allocator@D@23@@__Cr@std@@@56@@Z
    ??$?0VCommonFields@container_internal@absl@@AEAUStringHash@12@AEAUStringEq@12@AEBV?$allocator@U?$pair@$$CBV?$basic_string@DU?$char_traits@D@__Cr@std@@V?$allocator@D@23@@__Cr@std@@H@__Cr@std@@@__Cr@std@@$00@?$CompressedTuple@VCommonFields@container_internal@absl@@UStringHash@23@UStringEq@23@V?$allocator@U?$pair@$$CBV?$basic_string@DU?$char_traits@D@__Cr@std@@V?$allocator@D@23@@__Cr@std@@H@__Cr@std@@@__Cr@std@@@container_internal@absl@@QEAA@$$QEAVCommonFields@12@AEAUStringHash@12@AEAUStringEq@12@AEBV?$allocator@U?$pair@$$CBV?$basic_string@DU?$char_traits@D@__Cr@std@@V?$allocator@D@23@@__Cr@std@@H@__Cr@std@@@__Cr@std@@@Z
    ??$?0VCommonFields@container_internal@absl@@AEAUStringHash@12@AEAUStringEq@12@AEBV?$allocator@U?$pair@$$CBV?$basic_string@DU?$char_traits@D@__Cr@std@@V?$allocator@D@23@@__Cr@std@@H@__Cr@std@@@__Cr@std@@@?$CompressedTupleImpl@V?$CompressedTuple@VCommonFields@container_internal@absl@@UStringHash@23@UStringEq@23@V?$allocator@U?$pair@$$CBV?$basic_string@DU?$char_traits@D@__Cr@std@@V?$allocator@D@23@@__Cr@std@@H@__Cr@std@@@__Cr@std@@@container_internal@absl@@U?$integer_sequence@_K$0A@$00$01$02@__Cr@std@@$00@internal_compressed_tuple@container_internal@absl@@QEAA@Uin_place_t@__Cr@std@@$$QEAVCommonFields@23@AEAUStringHash@23@AEAUStringEq@23@AEBV?$allocator@U?$pair@$$CBV?$basic_string@DU?$char_traits@D@__Cr@std@@V?$allocator@D@23@@__Cr@std@@H@__Cr@std@@@56@@Z
    ??$?0VCommonFields@container_internal@absl@@AEAUStringHash@12@AEAUStringEq@12@AEBV?$allocator@U?$pair@$$CBV?$basic_string@DU?$char_traits@D@__Cr@std@@V?$allocator@D@23@@__Cr@std@@I@__Cr@std@@@__Cr@std@@$00@?$CompressedTuple@VCommonFields@container_internal@absl@@UStringHash@23@UStringEq@23@V?$allocator@U?$pair@$$CBV?$basic_string@DU?$char_traits@D@__Cr@std@@V?$allocator@D@23@@__Cr@std@@I@__Cr@std@@@__Cr@std@@@container_internal@absl@@QEAA@$$QEAVCommonFields@12@AEAUStringHash@12@AEAUStringEq@12@AEBV?$allocator@U?$pair@$$CBV?$basic_string@DU?$char_traits@D@__Cr@std@@V?$allocator@D@23@@__Cr@std@@I@__Cr@std@@@__Cr@std@@@Z
    ??$?0VCommonFields@container_internal@absl@@AEAUStringHash@12@AEAUStringEq@12@AEBV?$allocator@U?$pair@$$CBV?$basic_string@DU?$char_traits@D@__Cr@std@@V?$allocator@D@23@@__Cr@std@@I@__Cr@std@@@__Cr@std@@@?$CompressedTupleImpl@V?$CompressedTuple@VCommonFields@container_internal@absl@@UStringHash@23@UStringEq@23@V?$allocator@U?$pair@$$CBV?$basic_string@DU?$char_traits@D@__Cr@std@@V?$allocator@D@23@@__Cr@std@@I@__Cr@std@@@__Cr@std@@@container_internal@absl@@U?$integer_sequence@_K$0A@$00$01$02@__Cr@std@@$00@internal_compressed_tuple@container_internal@absl@@QEAA@Uin_place_t@__Cr@std@@$$QEAVCommonFields@23@AEAUStringHash@23@AEAUStringEq@23@AEBV?$allocator@U?$pair@$$CBV?$basic_string@DU?$char_traits@D@__Cr@std@@V?$allocator@D@23@@__Cr@std@@I@__Cr@std@@@56@@Z
    ??$?0VCommonFields@container_internal@absl@@AEAUStringHash@12@AEAUStringEq@12@AEBV?$allocator@U?$pair@$$CBV?$basic_string@DU?$char_traits@D@__Cr@std@@V?$allocator@D@23@@__Cr@std@@V123@@__Cr@std@@@__Cr@std@@$00@?$CompressedTuple@VCommonFields@container_internal@absl@@UStringHash@23@UStringEq@23@V?$allocator@U?$pair@$$CBV?$basic_string@DU?$char_traits@D@__Cr@std@@V?$allocator@D@23@@__Cr@std@@V123@@__Cr@std@@@__Cr@std@@@container_internal@absl@@QEAA@$$QEAVCommonFields@12@AEAUStringHash@12@AEAUStringEq@12@AEBV?$allocator@U?$pair@$$CBV?$basic_string@DU?$char_traits@D@__Cr@std@@V?$allocator@D@23@@__Cr@std@@V123@@__Cr@std@@@__Cr@std@@@Z
    ??$?0VCommonFields@container_internal@absl@@AEAUStringHash@12@AEAUStringEq@12@AEBV?$allocator@U?$pair@$$CBV?$basic_string@DU?$char_traits@D@__Cr@std@@V?$allocator@D@23@@__Cr@std@@V123@@__Cr@std@@@__Cr@std@@@?$CompressedTupleImpl@V?$CompressedTuple@VCommonFields@container_internal@absl@@UStringHash@23@UStringEq@23@V?$allocator@U?$pair@$$CBV?$basic_string@DU?$char_traits@D@__Cr@std@@V?$allocator@D@23@@__Cr@std@@V123@@__Cr@std@@@__Cr@std@@@container_internal@absl@@U?$integer_sequence@_K$0A@$00$01$02@__Cr@std@@$00@internal_compressed_tuple@container_internal@absl@@QEAA@Uin_place_t@__Cr@std@@$$QEAVCommonFields@23@AEAUStringHash@23@AEAUStringEq@23@AEBV?$allocator@U?$pair@$$CBV?$basic_string@DU?$char_traits@D@__Cr@std@@V?$allocator@D@23@@__Cr@std@@V123@@__Cr@std@@@56@@Z
    ??$?0VCommonFields@container_internal@absl@@AEAUStringHash@12@AEAUStringEq@12@AEBV?$allocator@U?$pair@$$CBV?$basic_string@DU?$char_traits@D@__Cr@std@@V?$allocator@D@23@@__Cr@std@@_J@__Cr@std@@@__Cr@std@@$00@?$CompressedTuple@VCommonFields@container_internal@absl@@UStringHash@23@UStringEq@23@V?$allocator@U?$pair@$$CBV?$basic_string@DU?$char_traits@D@__Cr@std@@V?$allocator@D@23@@__Cr@std@@_J@__Cr@std@@@__Cr@std@@@container_internal@absl@@QEAA@$$QEAVCommonFields@12@AEAUStringHash@12@AEAUStringEq@12@AEBV?$allocator@U?$pair@$$CBV?$basic_string@DU?$char_traits@D@__Cr@std@@V?$allocator@D@23@@__Cr@std@@_J@__Cr@std@@@__Cr@std@@@Z
    ??$?0VCommonFields@container_internal@absl@@AEAUStringHash@12@AEAUStringEq@12@AEBV?$allocator@U?$pair@$$CBV?$basic_string@DU?$char_traits@D@__Cr@std@@V?$allocator@D@23@@__Cr@std@@_J@__Cr@std@@@__Cr@std@@@?$CompressedTupleImpl@V?$CompressedTuple@VCommonFields@container_internal@absl@@UStringHash@23@UStringEq@23@V?$allocator@U?$pair@$$CBV?$basic_string@DU?$char_traits@D@__Cr@std@@V?$allocator@D@23@@__Cr@std@@_J@__Cr@std@@@__Cr@std@@@container_internal@absl@@U?$integer_sequence@_K$0A@$00$01$02@__Cr@std@@$00@internal_compressed_tuple@container_internal@absl@@QEAA@Uin_place_t@__Cr@std@@$$QEAVCommonFields@23@AEAUStringHash@23@AEAUStringEq@23@AEBV?$allocator@U?$pair@$$CBV?$basic_string@DU?$char_traits@D@__Cr@std@@V?$allocator@D@23@@__Cr@std@@_J@__Cr@std@@@56@@Z
    ??$?0VCommonFields@container_internal@absl@@AEAUStringHash@12@AEAUStringEq@12@AEBV?$allocator@U?$pair@$$CBV?$basic_string@DU?$char_traits@D@__Cr@std@@V?$allocator@D@23@@__Cr@std@@_K@__Cr@std@@@__Cr@std@@$00@?$CompressedTuple@VCommonFields@container_internal@absl@@UStringHash@23@UStringEq@23@V?$allocator@U?$pair@$$CBV?$basic_string@DU?$char_traits@D@__Cr@std@@V?$allocator@D@23@@__Cr@std@@_K@__Cr@std@@@__Cr@std@@@container_internal@absl@@QEAA@$$QEAVCommonFields@12@AEAUStringHash@12@AEAUStringEq@12@AEBV?$allocator@U?$pair@$$CBV?$basic_string@DU?$char_traits@D@__Cr@std@@V?$allocator@D@23@@__Cr@std@@_K@__Cr@std@@@__Cr@std@@@Z
    ??$?0VCommonFields@container_internal@absl@@AEAUStringHash@12@AEAUStringEq@12@AEBV?$allocator@U?$pair@$$CBV?$basic_string@DU?$char_traits@D@__Cr@std@@V?$allocator@D@23@@__Cr@std@@_K@__Cr@std@@@__Cr@std@@@?$CompressedTupleImpl@V?$CompressedTuple@VCommonFields@container_internal@absl@@UStringHash@23@UStringEq@23@V?$allocator@U?$pair@$$CBV?$basic_string@DU?$char_traits@D@__Cr@std@@V?$allocator@D@23@@__Cr@std@@_K@__Cr@std@@@__Cr@std@@@container_internal@absl@@U?$integer_sequence@_K$0A@$00$01$02@__Cr@std@@$00@internal_compressed_tuple@container_internal@absl@@QEAA@Uin_place_t@__Cr@std@@$$QEAVCommonFields@23@AEAUStringHash@23@AEAUStringEq@23@AEBV?$allocator@U?$pair@$$CBV?$basic_string@DU?$char_traits@D@__Cr@std@@V?$allocator@D@23@@__Cr@std@@_K@__Cr@std@@@56@@Z
    ??$?0VCommonFields@container_internal@absl@@AEAUStringHash@12@AEAUStringEq@12@AEBV?$allocator@V?$basic_string@DU?$char_traits@D@__Cr@std@@V?$allocator@D@23@@__Cr@std@@@__Cr@std@@$00@?$CompressedTuple@VCommonFields@container_internal@absl@@UStringHash@23@UStringEq@23@V?$allocator@V?$basic_string@DU?$char_traits@D@__Cr@std@@V?$allocator@D@23@@__Cr@std@@@__Cr@std@@@container_internal@absl@@QEAA@$$QEAVCommonFields@12@AEAUStringHash@12@AEAUStringEq@12@AEBV?$allocator@V?$basic_string@DU?$char_traits@D@__Cr@std@@V?$allocator@D@23@@__Cr@std@@@__Cr@std@@@Z
    ??$?0VCommonFields@container_internal@absl@@AEAUStringHash@12@AEAUStringEq@12@AEBV?$allocator@V?$basic_string@DU?$char_traits@D@__Cr@std@@V?$allocator@D@23@@__Cr@std@@@__Cr@std@@@?$CompressedTupleImpl@V?$CompressedTuple@VCommonFields@container_internal@absl@@UStringHash@23@UStringEq@23@V?$allocator@V?$basic_string@DU?$char_traits@D@__Cr@std@@V?$allocator@D@23@@__Cr@std@@@__Cr@std@@@container_internal@absl@@U?$integer_sequence@_K$0A@$00$01$02@__Cr@std@@$00@internal_compressed_tuple@container_internal@absl@@QEAA@Uin_place_t@__Cr@std@@$$QEAVCommonFields@23@AEAUStringHash@23@AEAUStringEq@23@AEBV?$allocator@V?$basic_string@DU?$char_traits@D@__Cr@std@@V?$allocator@D@23@@__Cr@std@@@56@@Z
    ??$?0VCommonFields@container_internal@absl@@AEBU?$Hash@C@hash_internal@2@AEBU?$equal_to@C@__Cr@std@@AEBV?$allocator@C@67@$00@?$CompressedTuple@VCommonFields@container_internal@absl@@U?$Hash@C@hash_internal@3@U?$equal_to@C@__Cr@std@@V?$allocator@C@78@@container_internal@absl@@QEAA@$$QEAVCommonFields@12@AEBU?$Hash@C@hash_internal@2@AEBU?$equal_to@C@__Cr@std@@AEBV?$allocator@C@78@@Z
    ??$?0VCommonFields@container_internal@absl@@AEBU?$Hash@C@hash_internal@2@AEBU?$equal_to@C@__Cr@std@@AEBV?$allocator@C@67@@?$CompressedTupleImpl@V?$CompressedTuple@VCommonFields@container_internal@absl@@U?$Hash@C@hash_internal@3@U?$equal_to@C@__Cr@std@@V?$allocator@C@78@@container_internal@absl@@U?$integer_sequence@_K$0A@$00$01$02@__Cr@std@@$00@internal_compressed_tuple@container_internal@absl@@QEAA@Uin_place_t@__Cr@std@@$$QEAVCommonFields@23@AEBU?$Hash@C@hash_internal@3@AEBU?$equal_to@C@56@AEBV?$allocator@C@56@@Z
    ??$?0VCommonFields@container_internal@absl@@AEBU?$Hash@E@hash_internal@2@AEBU?$equal_to@E@__Cr@std@@AEBV?$allocator@E@67@$00@?$CompressedTuple@VCommonFields@container_internal@absl@@U?$Hash@E@hash_internal@3@U?$equal_to@E@__Cr@std@@V?$allocator@E@78@@container_internal@absl@@QEAA@$$QEAVCommonFields@12@AEBU?$Hash@E@hash_internal@2@AEBU?$equal_to@E@__Cr@std@@AEBV?$allocator@E@78@@Z
    ??$?0VCommonFields@container_internal@absl@@AEBU?$Hash@E@hash_internal@2@AEBU?$equal_to@E@__Cr@std@@AEBV?$allocator@E@67@@?$CompressedTupleImpl@V?$CompressedTuple@VCommonFields@container_internal@absl@@U?$Hash@E@hash_internal@3@U?$equal_to@E@__Cr@std@@V?$allocator@E@78@@container_internal@absl@@U?$integer_sequence@_K$0A@$00$01$02@__Cr@std@@$00@internal_compressed_tuple@container_internal@absl@@QEAA@Uin_place_t@__Cr@std@@$$QEAVCommonFields@23@AEBU?$Hash@E@hash_internal@3@AEBU?$equal_to@E@56@AEBV?$allocator@E@56@@Z
    ??$?0VCommonFields@container_internal@absl@@AEBU?$Hash@F@hash_internal@2@AEBU?$equal_to@F@__Cr@std@@AEBV?$allocator@F@67@$00@?$CompressedTuple@VCommonFields@container_internal@absl@@U?$Hash@F@hash_internal@3@U?$equal_to@F@__Cr@std@@V?$allocator@F@78@@container_internal@absl@@QEAA@$$QEAVCommonFields@12@AEBU?$Hash@F@hash_internal@2@AEBU?$equal_to@F@__Cr@std@@AEBV?$allocator@F@78@@Z
    ??$?0VCommonFields@container_internal@absl@@AEBU?$Hash@F@hash_internal@2@AEBU?$equal_to@F@__Cr@std@@AEBV?$allocator@F@67@@?$CompressedTupleImpl@V?$CompressedTuple@VCommonFields@container_internal@absl@@U?$Hash@F@hash_internal@3@U?$equal_to@F@__Cr@std@@V?$allocator@F@78@@container_internal@absl@@U?$integer_sequence@_K$0A@$00$01$02@__Cr@std@@$00@internal_compressed_tuple@container_internal@absl@@QEAA@Uin_place_t@__Cr@std@@$$QEAVCommonFields@23@AEBU?$Hash@F@hash_internal@3@AEBU?$equal_to@F@56@AEBV?$allocator@F@56@@Z
    ??$?0VCommonFields@container_internal@absl@@AEBU?$Hash@G@hash_internal@2@AEBU?$equal_to@G@__Cr@std@@AEBV?$allocator@G@67@$00@?$CompressedTuple@VCommonFields@container_internal@absl@@U?$Hash@G@hash_internal@3@U?$equal_to@G@__Cr@std@@V?$allocator@G@78@@container_internal@absl@@QEAA@$$QEAVCommonFields@12@AEBU?$Hash@G@hash_internal@2@AEBU?$equal_to@G@__Cr@std@@AEBV?$allocator@G@78@@Z
    ??$?0VCommonFields@container_internal@absl@@AEBU?$Hash@G@hash_internal@2@AEBU?$equal_to@G@__Cr@std@@AEBV?$allocator@G@67@@?$CompressedTupleImpl@V?$CompressedTuple@VCommonFields@container_internal@absl@@U?$Hash@G@hash_internal@3@U?$equal_to@G@__Cr@std@@V?$allocator@G@78@@container_internal@absl@@U?$integer_sequence@_K$0A@$00$01$02@__Cr@std@@$00@internal_compressed_tuple@container_internal@absl@@QEAA@Uin_place_t@__Cr@std@@$$QEAVCommonFields@23@AEBU?$Hash@G@hash_internal@3@AEBU?$equal_to@G@56@AEBV?$allocator@G@56@@Z
    ??$?0VCommonFields@container_internal@absl@@AEBU?$Hash@H@hash_internal@2@AEBU?$equal_to@H@__Cr@std@@AEBV?$allocator@H@67@$00@?$CompressedTuple@VCommonFields@container_internal@absl@@U?$Hash@H@hash_internal@3@U?$equal_to@H@__Cr@std@@V?$allocator@H@78@@container_internal@absl@@QEAA@$$QEAVCommonFields@12@AEBU?$Hash@H@hash_internal@2@AEBU?$equal_to@H@__Cr@std@@AEBV?$allocator@H@78@@Z
    ??$?0VCommonFields@container_internal@absl@@AEBU?$Hash@H@hash_internal@2@AEBU?$equal_to@H@__Cr@std@@AEBV?$allocator@H@67@@?$CompressedTupleImpl@V?$CompressedTuple@VCommonFields@container_internal@absl@@U?$Hash@H@hash_internal@3@U?$equal_to@H@__Cr@std@@V?$allocator@H@78@@container_internal@absl@@U?$integer_sequence@_K$0A@$00$01$02@__Cr@std@@$00@internal_compressed_tuple@container_internal@absl@@QEAA@Uin_place_t@__Cr@std@@$$QEAVCommonFields@23@AEBU?$Hash@H@hash_internal@3@AEBU?$equal_to@H@56@AEBV?$allocator@H@56@@Z
    ??$?0VCommonFields@container_internal@absl@@AEBU?$Hash@H@hash_internal@2@AEBU?$equal_to@H@__Cr@std@@AEBV?$allocator@U?$pair@$$CBHH@__Cr@std@@@67@$00@?$CompressedTuple@VCommonFields@container_internal@absl@@U?$Hash@H@hash_internal@3@U?$equal_to@H@__Cr@std@@V?$allocator@U?$pair@$$CBHH@__Cr@std@@@78@@container_internal@absl@@QEAA@$$QEAVCommonFields@12@AEBU?$Hash@H@hash_internal@2@AEBU?$equal_to@H@__Cr@std@@AEBV?$allocator@U?$pair@$$CBHH@__Cr@std@@@78@@Z
    ??$?0VCommonFields@container_internal@absl@@AEBU?$Hash@H@hash_internal@2@AEBU?$equal_to@H@__Cr@std@@AEBV?$allocator@U?$pair@$$CBHH@__Cr@std@@@67@@?$CompressedTupleImpl@V?$CompressedTuple@VCommonFields@container_internal@absl@@U?$Hash@H@hash_internal@3@U?$equal_to@H@__Cr@std@@V?$allocator@U?$pair@$$CBHH@__Cr@std@@@78@@container_internal@absl@@U?$integer_sequence@_K$0A@$00$01$02@__Cr@std@@$00@internal_compressed_tuple@container_internal@absl@@QEAA@Uin_place_t@__Cr@std@@$$QEAVCommonFields@23@AEBU?$Hash@H@hash_internal@3@AEBU?$equal_to@H@56@AEBV?$allocator@U?$pair@$$CBHH@__Cr@std@@@56@@Z
    ??$?0VCommonFields@container_internal@absl@@AEBU?$Hash@H@hash_internal@2@AEBU?$equal_to@H@__Cr@std@@AEBV?$allocator@U?$pair@$$CBHV?$basic_string@DU?$char_traits@D@__Cr@std@@V?$allocator@D@23@@__Cr@std@@@__Cr@std@@@67@$00@?$CompressedTuple@VCommonFields@container_internal@absl@@U?$Hash@H@hash_internal@3@U?$equal_to@H@__Cr@std@@V?$allocator@U?$pair@$$CBHV?$basic_string@DU?$char_traits@D@__Cr@std@@V?$allocator@D@23@@__Cr@std@@@__Cr@std@@@78@@container_internal@absl@@QEAA@$$QEAVCommonFields@12@AEBU?$Hash@H@hash_internal@2@AEBU?$equal_to@H@__Cr@std@@AEBV?$allocator@U?$pair@$$CBHV?$basic_string@DU?$char_traits@D@__Cr@std@@V?$allocator@D@23@@__Cr@std@@@__Cr@std@@@78@@Z
    ??$?0VCommonFields@container_internal@absl@@AEBU?$Hash@H@hash_internal@2@AEBU?$equal_to@H@__Cr@std@@AEBV?$allocator@U?$pair@$$CBHV?$basic_string@DU?$char_traits@D@__Cr@std@@V?$allocator@D@23@@__Cr@std@@@__Cr@std@@@67@@?$CompressedTupleImpl@V?$CompressedTuple@VCommonFields@container_internal@absl@@U?$Hash@H@hash_internal@3@U?$equal_to@H@__Cr@std@@V?$allocator@U?$pair@$$CBHV?$basic_string@DU?$char_traits@D@__Cr@std@@V?$allocator@D@23@@__Cr@std@@@__Cr@std@@@78@@container_internal@absl@@U?$integer_sequence@_K$0A@$00$01$02@__Cr@std@@$00@internal_compressed_tuple@container_internal@absl@@QEAA@Uin_place_t@__Cr@std@@$$QEAVCommonFields@23@AEBU?$Hash@H@hash_internal@3@AEBU?$equal_to@H@56@AEBV?$allocator@U?$pair@$$CBHV?$basic_string@DU?$char_traits@D@__Cr@std@@V?$allocator@D@23@@__Cr@std@@@__Cr@std@@@56@@Z
    ??$?0VCommonFields@container_internal@absl@@AEBU?$Hash@I@hash_internal@2@AEBU?$equal_to@I@__Cr@std@@AEBV?$allocator@I@67@$00@?$CompressedTuple@VCommonFields@container_internal@absl@@U?$Hash@I@hash_internal@3@U?$equal_to@I@__Cr@std@@V?$allocator@I@78@@container_internal@absl@@QEAA@$$QEAVCommonFields@12@AEBU?$Hash@I@hash_internal@2@AEBU?$equal_to@I@__Cr@std@@AEBV?$allocator@I@78@@Z
    ??$?0VCommonFields@container_internal@absl@@AEBU?$Hash@I@hash_internal@2@AEBU?$equal_to@I@__Cr@std@@AEBV?$allocator@I@67@@?$CompressedTupleImpl@V?$CompressedTuple@VCommonFields@container_internal@absl@@U?$Hash@I@hash_internal@3@U?$equal_to@I@__Cr@std@@V?$allocator@I@78@@container_internal@absl@@U?$integer_sequence@_K$0A@$00$01$02@__Cr@std@@$00@internal_compressed_tuple@container_internal@absl@@QEAA@Uin_place_t@__Cr@std@@$$QEAVCommonFields@23@AEBU?$Hash@I@hash_internal@3@AEBU?$equal_to@I@56@AEBV?$allocator@I@56@@Z
    ??$?0VCommonFields@container_internal@absl@@AEBU?$Hash@I@hash_internal@2@AEBU?$equal_to@I@__Cr@std@@AEBV?$allocator@U?$pair@$$CBII@__Cr@std@@@67@$00@?$CompressedTuple@VCommonFields@container_internal@absl@@U?$Hash@I@hash_internal@3@U?$equal_to@I@__Cr@std@@V?$allocator@U?$pair@$$CBII@__Cr@std@@@78@@container_internal@absl@@QEAA@$$QEAVCommonFields@12@AEBU?$Hash@I@hash_internal@2@AEBU?$equal_to@I@__Cr@std@@AEBV?$allocator@U?$pair@$$CBII@__Cr@std@@@78@@Z
    ??$?0VCommonFields@container_internal@absl@@AEBU?$Hash@I@hash_internal@2@AEBU?$equal_to@I@__Cr@std@@AEBV?$allocator@U?$pair@$$CBII@__Cr@std@@@67@@?$CompressedTupleImpl@V?$CompressedTuple@VCommonFields@container_internal@absl@@U?$Hash@I@hash_internal@3@U?$equal_to@I@__Cr@std@@V?$allocator@U?$pair@$$CBII@__Cr@std@@@78@@container_internal@absl@@U?$integer_sequence@_K$0A@$00$01$02@__Cr@std@@$00@internal_compressed_tuple@container_internal@absl@@QEAA@Uin_place_t@__Cr@std@@$$QEAVCommonFields@23@AEBU?$Hash@I@hash_internal@3@AEBU?$equal_to@I@56@AEBV?$allocator@U?$pair@$$CBII@__Cr@std@@@56@@Z
    ??$?0VCommonFields@container_internal@absl@@AEBU?$Hash@I@hash_internal@2@AEBU?$equal_to@I@__Cr@std@@AEBV?$allocator@U?$pair@$$CBIV?$basic_string@DU?$char_traits@D@__Cr@std@@V?$allocator@D@23@@__Cr@std@@@__Cr@std@@@67@$00@?$CompressedTuple@VCommonFields@container_internal@absl@@U?$Hash@I@hash_internal@3@U?$equal_to@I@__Cr@std@@V?$allocator@U?$pair@$$CBIV?$basic_string@DU?$char_traits@D@__Cr@std@@V?$allocator@D@23@@__Cr@std@@@__Cr@std@@@78@@container_internal@absl@@QEAA@$$QEAVCommonFields@12@AEBU?$Hash@I@hash_internal@2@AEBU?$equal_to@I@__Cr@std@@AEBV?$allocator@U?$pair@$$CBIV?$basic_string@DU?$char_traits@D@__Cr@std@@V?$allocator@D@23@@__Cr@std@@@__Cr@std@@@78@@Z
    ??$?0VCommonFields@container_internal@absl@@AEBU?$Hash@I@hash_internal@2@AEBU?$equal_to@I@__Cr@std@@AEBV?$allocator@U?$pair@$$CBIV?$basic_string@DU?$char_traits@D@__Cr@std@@V?$allocator@D@23@@__Cr@std@@@__Cr@std@@@67@@?$CompressedTupleImpl@V?$CompressedTuple@VCommonFields@container_internal@absl@@U?$Hash@I@hash_internal@3@U?$equal_to@I@__Cr@std@@V?$allocator@U?$pair@$$CBIV?$basic_string@DU?$char_traits@D@__Cr@std@@V?$allocator@D@23@@__Cr@std@@@__Cr@std@@@78@@container_internal@absl@@U?$integer_sequence@_K$0A@$00$01$02@__Cr@std@@$00@internal_compressed_tuple@container_internal@absl@@QEAA@Uin_place_t@__Cr@std@@$$QEAVCommonFields@23@AEBU?$Hash@I@hash_internal@3@AEBU?$equal_to@I@56@AEBV?$allocator@U?$pair@$$CBIV?$basic_string@DU?$char_traits@D@__Cr@std@@V?$allocator@D@23@@__Cr@std@@@__Cr@std@@@56@@Z
    ??$?0VCommonFields@container_internal@absl@@AEBU?$Hash@_J@hash_internal@2@AEBU?$equal_to@_J@__Cr@std@@AEBV?$allocator@U?$pair@$$CB_JV?$basic_string@DU?$char_traits@D@__Cr@std@@V?$allocator@D@23@@__Cr@std@@@__Cr@std@@@67@$00@?$CompressedTuple@VCommonFields@container_internal@absl@@U?$Hash@_J@hash_internal@3@U?$equal_to@_J@__Cr@std@@V?$allocator@U?$pair@$$CB_JV?$basic_string@DU?$char_traits@D@__Cr@std@@V?$allocator@D@23@@__Cr@std@@@__Cr@std@@@78@@container_internal@absl@@QEAA@$$QEAVCommonFields@12@AEBU?$Hash@_J@hash_internal@2@AEBU?$equal_to@_J@__Cr@std@@AEBV?$allocator@U?$pair@$$CB_JV?$basic_string@DU?$char_traits@D@__Cr@std@@V?$allocator@D@23@@__Cr@std@@@__Cr@std@@@78@@Z
    ??$?0VCommonFields@container_internal@absl@@AEBU?$Hash@_J@hash_internal@2@AEBU?$equal_to@_J@__Cr@std@@AEBV?$allocator@U?$pair@$$CB_JV?$basic_string@DU?$char_traits@D@__Cr@std@@V?$allocator@D@23@@__Cr@std@@@__Cr@std@@@67@@?$CompressedTupleImpl@V?$CompressedTuple@VCommonFields@container_internal@absl@@U?$Hash@_J@hash_internal@3@U?$equal_to@_J@__Cr@std@@V?$allocator@U?$pair@$$CB_JV?$basic_string@DU?$char_traits@D@__Cr@std@@V?$allocator@D@23@@__Cr@std@@@__Cr@std@@@78@@container_internal@absl@@U?$integer_sequence@_K$0A@$00$01$02@__Cr@std@@$00@internal_compressed_tuple@container_internal@absl@@QEAA@Uin_place_t@__Cr@std@@$$QEAVCommonFields@23@AEBU?$Hash@_J@hash_internal@3@AEBU?$equal_to@_J@56@AEBV?$allocator@U?$pair@$$CB_JV?$basic_string@DU?$char_traits@D@__Cr@std@@V?$allocator@D@23@@__Cr@std@@@__Cr@std@@@56@@Z
    ??$?0VCommonFields@container_internal@absl@@AEBU?$Hash@_J@hash_internal@2@AEBU?$equal_to@_J@__Cr@std@@AEBV?$allocator@U?$pair@$$CB_J_J@__Cr@std@@@67@$00@?$CompressedTuple@VCommonFields@container_internal@absl@@U?$Hash@_J@hash_internal@3@U?$equal_to@_J@__Cr@std@@V?$allocator@U?$pair@$$CB_J_J@__Cr@std@@@78@@container_internal@absl@@QEAA@$$QEAVCommonFields@12@AEBU?$Hash@_J@hash_internal@2@AEBU?$equal_to@_J@__Cr@std@@AEBV?$allocator@U?$pair@$$CB_J_J@__Cr@std@@@78@@Z
    ??$?0VCommonFields@container_internal@absl@@AEBU?$Hash@_J@hash_internal@2@AEBU?$equal_to@_J@__Cr@std@@AEBV?$allocator@U?$pair@$$CB_J_J@__Cr@std@@@67@@?$CompressedTupleImpl@V?$CompressedTuple@VCommonFields@container_internal@absl@@U?$Hash@_J@hash_internal@3@U?$equal_to@_J@__Cr@std@@V?$allocator@U?$pair@$$CB_J_J@__Cr@std@@@78@@container_internal@absl@@U?$integer_sequence@_K$0A@$00$01$02@__Cr@std@@$00@internal_compressed_tuple@container_internal@absl@@QEAA@Uin_place_t@__Cr@std@@$$QEAVCommonFields@23@AEBU?$Hash@_J@hash_internal@3@AEBU?$equal_to@_J@56@AEBV?$allocator@U?$pair@$$CB_J_J@__Cr@std@@@56@@Z
    ??$?0VCommonFields@container_internal@absl@@AEBU?$Hash@_J@hash_internal@2@AEBU?$equal_to@_J@__Cr@std@@AEBV?$allocator@_J@67@$00@?$CompressedTuple@VCommonFields@container_internal@absl@@U?$Hash@_J@hash_internal@3@U?$equal_to@_J@__Cr@std@@V?$allocator@_J@78@@container_internal@absl@@QEAA@$$QEAVCommonFields@12@AEBU?$Hash@_J@hash_internal@2@AEBU?$equal_to@_J@__Cr@std@@AEBV?$allocator@_J@78@@Z
    ??$?0VCommonFields@container_internal@absl@@AEBU?$Hash@_J@hash_internal@2@AEBU?$equal_to@_J@__Cr@std@@AEBV?$allocator@_J@67@@?$CompressedTupleImpl@V?$CompressedTuple@VCommonFields@container_internal@absl@@U?$Hash@_J@hash_internal@3@U?$equal_to@_J@__Cr@std@@V?$allocator@_J@78@@container_internal@absl@@U?$integer_sequence@_K$0A@$00$01$02@__Cr@std@@$00@internal_compressed_tuple@container_internal@absl@@QEAA@Uin_place_t@__Cr@std@@$$QEAVCommonFields@23@AEBU?$Hash@_J@hash_internal@3@AEBU?$equal_to@_J@56@AEBV?$allocator@_J@56@@Z
    ??$?0VCommonFields@container_internal@absl@@AEBU?$Hash@_K@hash_internal@2@AEBU?$equal_to@_K@__Cr@std@@AEBV?$allocator@U?$pair@$$CB_KV?$basic_string@DU?$char_traits@D@__Cr@std@@V?$allocator@D@23@@__Cr@std@@@__Cr@std@@@67@$00@?$CompressedTuple@VCommonFields@container_internal@absl@@U?$Hash@_K@hash_internal@3@U?$equal_to@_K@__Cr@std@@V?$allocator@U?$pair@$$CB_KV?$basic_string@DU?$char_traits@D@__Cr@std@@V?$allocator@D@23@@__Cr@std@@@__Cr@std@@@78@@container_internal@absl@@QEAA@$$QEAVCommonFields@12@AEBU?$Hash@_K@hash_internal@2@AEBU?$equal_to@_K@__Cr@std@@AEBV?$allocator@U?$pair@$$CB_KV?$basic_string@DU?$char_traits@D@__Cr@std@@V?$allocator@D@23@@__Cr@std@@@__Cr@std@@@78@@Z
    ??$?0VCommonFields@container_internal@absl@@AEBU?$Hash@_K@hash_internal@2@AEBU?$equal_to@_K@__Cr@std@@AEBV?$allocator@U?$pair@$$CB_KV?$basic_string@DU?$char_traits@D@__Cr@std@@V?$allocator@D@23@@__Cr@std@@@__Cr@std@@@67@@?$CompressedTupleImpl@V?$CompressedTuple@VCommonFields@container_internal@absl@@U?$Hash@_K@hash_internal@3@U?$equal_to@_K@__Cr@std@@V?$allocator@U?$pair@$$CB_KV?$basic_string@DU?$char_traits@D@__Cr@std@@V?$allocator@D@23@@__Cr@std@@@__Cr@std@@@78@@container_internal@absl@@U?$integer_sequence@_K$0A@$00$01$02@__Cr@std@@$00@internal_compressed_tuple@container_internal@absl@@QEAA@Uin_place_t@__Cr@std@@$$QEAVCommonFields@23@AEBU?$Hash@_K@hash_internal@3@AEBU?$equal_to@_K@56@AEBV?$allocator@U?$pair@$$CB_KV?$basic_string@DU?$char_traits@D@__Cr@std@@V?$allocator@D@23@@__Cr@std@@@__Cr@std@@@56@@Z
    ??$?0VCommonFields@container_internal@absl@@AEBU?$Hash@_K@hash_internal@2@AEBU?$equal_to@_K@__Cr@std@@AEBV?$allocator@U?$pair@$$CB_K_K@__Cr@std@@@67@$00@?$CompressedTuple@VCommonFields@container_internal@absl@@U?$Hash@_K@hash_internal@3@U?$equal_to@_K@__Cr@std@@V?$allocator@U?$pair@$$CB_K_K@__Cr@std@@@78@@container_internal@absl@@QEAA@$$QEAVCommonFields@12@AEBU?$Hash@_K@hash_internal@2@AEBU?$equal_to@_K@__Cr@std@@AEBV?$allocator@U?$pair@$$CB_K_K@__Cr@std@@@78@@Z
    ??$?0VCommonFields@container_internal@absl@@AEBU?$Hash@_K@hash_internal@2@AEBU?$equal_to@_K@__Cr@std@@AEBV?$allocator@U?$pair@$$CB_K_K@__Cr@std@@@67@@?$CompressedTupleImpl@V?$CompressedTuple@VCommonFields@container_internal@absl@@U?$Hash@_K@hash_internal@3@U?$equal_to@_K@__Cr@std@@V?$allocator@U?$pair@$$CB_K_K@__Cr@std@@@78@@container_internal@absl@@U?$integer_sequence@_K$0A@$00$01$02@__Cr@std@@$00@internal_compressed_tuple@container_internal@absl@@QEAA@Uin_place_t@__Cr@std@@$$QEAVCommonFields@23@AEBU?$Hash@_K@hash_internal@3@AEBU?$equal_to@_K@56@AEBV?$allocator@U?$pair@$$CB_K_K@__Cr@std@@@56@@Z
    ??$?0VCommonFields@container_internal@absl@@AEBU?$Hash@_K@hash_internal@2@AEBU?$equal_to@_K@__Cr@std@@AEBV?$allocator@_K@67@$00@?$CompressedTuple@VCommonFields@container_internal@absl@@U?$Hash@_K@hash_internal@3@U?$equal_to@_K@__Cr@std@@V?$allocator@_K@78@@container_internal@absl@@QEAA@$$QEAVCommonFields@12@AEBU?$Hash@_K@hash_internal@2@AEBU?$equal_to@_K@__Cr@std@@AEBV?$allocator@_K@78@@Z
    ??$?0VCommonFields@container_internal@absl@@AEBU?$Hash@_K@hash_internal@2@AEBU?$equal_to@_K@__Cr@std@@AEBV?$allocator@_K@67@@?$CompressedTupleImpl@V?$CompressedTuple@VCommonFields@container_internal@absl@@U?$Hash@_K@hash_internal@3@U?$equal_to@_K@__Cr@std@@V?$allocator@_K@78@@container_internal@absl@@U?$integer_sequence@_K$0A@$00$01$02@__Cr@std@@$00@internal_compressed_tuple@container_internal@absl@@QEAA@Uin_place_t@__Cr@std@@$$QEAVCommonFields@23@AEBU?$Hash@_K@hash_internal@3@AEBU?$equal_to@_K@56@AEBV?$allocator@_K@56@@Z
    ??$?0VCommonFields@container_internal@absl@@AEBUStringHash@12@AEBUStringEq@12@AEBV?$allocator@U?$pair@$$CBV?$basic_string@DU?$char_traits@D@__Cr@std@@V?$allocator@D@23@@__Cr@std@@H@__Cr@std@@@__Cr@std@@$00@?$CompressedTuple@VCommonFields@container_internal@absl@@UStringHash@23@UStringEq@23@V?$allocator@U?$pair@$$CBV?$basic_string@DU?$char_traits@D@__Cr@std@@V?$allocator@D@23@@__Cr@std@@H@__Cr@std@@@__Cr@std@@@container_internal@absl@@QEAA@$$QEAVCommonFields@12@AEBUStringHash@12@AEBUStringEq@12@AEBV?$allocator@U?$pair@$$CBV?$basic_string@DU?$char_traits@D@__Cr@std@@V?$allocator@D@23@@__Cr@std@@H@__Cr@std@@@__Cr@std@@@Z
    ??$?0VCommonFields@container_internal@absl@@AEBUStringHash@12@AEBUStringEq@12@AEBV?$allocator@U?$pair@$$CBV?$basic_string@DU?$char_traits@D@__Cr@std@@V?$allocator@D@23@@__Cr@std@@H@__Cr@std@@@__Cr@std@@@?$CompressedTupleImpl@V?$CompressedTuple@VCommonFields@container_internal@absl@@UStringHash@23@UStringEq@23@V?$allocator@U?$pair@$$CBV?$basic_string@DU?$char_traits@D@__Cr@std@@V?$allocator@D@23@@__Cr@std@@H@__Cr@std@@@__Cr@std@@@container_internal@absl@@U?$integer_sequence@_K$0A@$00$01$02@__Cr@std@@$00@internal_compressed_tuple@container_internal@absl@@QEAA@Uin_place_t@__Cr@std@@$$QEAVCommonFields@23@AEBUStringHash@23@AEBUStringEq@23@AEBV?$allocator@U?$pair@$$CBV?$basic_string@DU?$char_traits@D@__Cr@std@@V?$allocator@D@23@@__Cr@std@@H@__Cr@std@@@56@@Z
    ??$?0VCommonFields@container_internal@absl@@AEBUStringHash@12@AEBUStringEq@12@AEBV?$allocator@U?$pair@$$CBV?$basic_string@DU?$char_traits@D@__Cr@std@@V?$allocator@D@23@@__Cr@std@@I@__Cr@std@@@__Cr@std@@$00@?$CompressedTuple@VCommonFields@container_internal@absl@@UStringHash@23@UStringEq@23@V?$allocator@U?$pair@$$CBV?$basic_string@DU?$char_traits@D@__Cr@std@@V?$allocator@D@23@@__Cr@std@@I@__Cr@std@@@__Cr@std@@@container_internal@absl@@QEAA@$$QEAVCommonFields@12@AEBUStringHash@12@AEBUStringEq@12@AEBV?$allocator@U?$pair@$$CBV?$basic_string@DU?$char_traits@D@__Cr@std@@V?$allocator@D@23@@__Cr@std@@I@__Cr@std@@@__Cr@std@@@Z
    ??$?0VCommonFields@container_internal@absl@@AEBUStringHash@12@AEBUStringEq@12@AEBV?$allocator@U?$pair@$$CBV?$basic_string@DU?$char_traits@D@__Cr@std@@V?$allocator@D@23@@__Cr@std@@I@__Cr@std@@@__Cr@std@@@?$CompressedTupleImpl@V?$CompressedTuple@VCommonFields@container_internal@absl@@UStringHash@23@UStringEq@23@V?$allocator@U?$pair@$$CBV?$basic_string@DU?$char_traits@D@__Cr@std@@V?$allocator@D@23@@__Cr@std@@I@__Cr@std@@@__Cr@std@@@container_internal@absl@@U?$integer_sequence@_K$0A@$00$01$02@__Cr@std@@$00@internal_compressed_tuple@container_internal@absl@@QEAA@Uin_place_t@__Cr@std@@$$QEAVCommonFields@23@AEBUStringHash@23@AEBUStringEq@23@AEBV?$allocator@U?$pair@$$CBV?$basic_string@DU?$char_traits@D@__Cr@std@@V?$allocator@D@23@@__Cr@std@@I@__Cr@std@@@56@@Z
    ??$?0VCommonFields@container_internal@absl@@AEBUStringHash@12@AEBUStringEq@12@AEBV?$allocator@U?$pair@$$CBV?$basic_string@DU?$char_traits@D@__Cr@std@@V?$allocator@D@23@@__Cr@std@@V123@@__Cr@std@@@__Cr@std@@$00@?$CompressedTuple@VCommonFields@container_internal@absl@@UStringHash@23@UStringEq@23@V?$allocator@U?$pair@$$CBV?$basic_string@DU?$char_traits@D@__Cr@std@@V?$allocator@D@23@@__Cr@std@@V123@@__Cr@std@@@__Cr@std@@@container_internal@absl@@QEAA@$$QEAVCommonFields@12@AEBUStringHash@12@AEBUStringEq@12@AEBV?$allocator@U?$pair@$$CBV?$basic_string@DU?$char_traits@D@__Cr@std@@V?$allocator@D@23@@__Cr@std@@V123@@__Cr@std@@@__Cr@std@@@Z
    ??$?0VCommonFields@container_internal@absl@@AEBUStringHash@12@AEBUStringEq@12@AEBV?$allocator@U?$pair@$$CBV?$basic_string@DU?$char_traits@D@__Cr@std@@V?$allocator@D@23@@__Cr@std@@V123@@__Cr@std@@@__Cr@std@@@?$CompressedTupleImpl@V?$CompressedTuple@VCommonFields@container_internal@absl@@UStringHash@23@UStringEq@23@V?$allocator@U?$pair@$$CBV?$basic_string@DU?$char_traits@D@__Cr@std@@V?$allocator@D@23@@__Cr@std@@V123@@__Cr@std@@@__Cr@std@@@container_internal@absl@@U?$integer_sequence@_K$0A@$00$01$02@__Cr@std@@$00@internal_compressed_tuple@container_internal@absl@@QEAA@Uin_place_t@__Cr@std@@$$QEAVCommonFields@23@AEBUStringHash@23@AEBUStringEq@23@AEBV?$allocator@U?$pair@$$CBV?$basic_string@DU?$char_traits@D@__Cr@std@@V?$allocator@D@23@@__Cr@std@@V123@@__Cr@std@@@56@@Z
    ??$?0VCommonFields@container_internal@absl@@AEBUStringHash@12@AEBUStringEq@12@AEBV?$allocator@U?$pair@$$CBV?$basic_string@DU?$char_traits@D@__Cr@std@@V?$allocator@D@23@@__Cr@std@@_J@__Cr@std@@@__Cr@std@@$00@?$CompressedTuple@VCommonFields@container_internal@absl@@UStringHash@23@UStringEq@23@V?$allocator@U?$pair@$$CBV?$basic_string@DU?$char_traits@D@__Cr@std@@V?$allocator@D@23@@__Cr@std@@_J@__Cr@std@@@__Cr@std@@@container_internal@absl@@QEAA@$$QEAVCommonFields@12@AEBUStringHash@12@AEBUStringEq@12@AEBV?$allocator@U?$pair@$$CBV?$basic_string@DU?$char_traits@D@__Cr@std@@V?$allocator@D@23@@__Cr@std@@_J@__Cr@std@@@__Cr@std@@@Z
    ??$?0VCommonFields@container_internal@absl@@AEBUStringHash@12@AEBUStringEq@12@AEBV?$allocator@U?$pair@$$CBV?$basic_string@DU?$char_traits@D@__Cr@std@@V?$allocator@D@23@@__Cr@std@@_J@__Cr@std@@@__Cr@std@@@?$CompressedTupleImpl@V?$CompressedTuple@VCommonFields@container_internal@absl@@UStringHash@23@UStringEq@23@V?$allocator@U?$pair@$$CBV?$basic_string@DU?$char_traits@D@__Cr@std@@V?$allocator@D@23@@__Cr@std@@_J@__Cr@std@@@__Cr@std@@@container_internal@absl@@U?$integer_sequence@_K$0A@$00$01$02@__Cr@std@@$00@internal_compressed_tuple@container_internal@absl@@QEAA@Uin_place_t@__Cr@std@@$$QEAVCommonFields@23@AEBUStringHash@23@AEBUStringEq@23@AEBV?$allocator@U?$pair@$$CBV?$basic_string@DU?$char_traits@D@__Cr@std@@V?$allocator@D@23@@__Cr@std@@_J@__Cr@std@@@56@@Z
    ??$?0VCommonFields@container_internal@absl@@AEBUStringHash@12@AEBUStringEq@12@AEBV?$allocator@U?$pair@$$CBV?$basic_string@DU?$char_traits@D@__Cr@std@@V?$allocator@D@23@@__Cr@std@@_K@__Cr@std@@@__Cr@std@@$00@?$CompressedTuple@VCommonFields@container_internal@absl@@UStringHash@23@UStringEq@23@V?$allocator@U?$pair@$$CBV?$basic_string@DU?$char_traits@D@__Cr@std@@V?$allocator@D@23@@__Cr@std@@_K@__Cr@std@@@__Cr@std@@@container_internal@absl@@QEAA@$$QEAVCommonFields@12@AEBUStringHash@12@AEBUStringEq@12@AEBV?$allocator@U?$pair@$$CBV?$basic_string@DU?$char_traits@D@__Cr@std@@V?$allocator@D@23@@__Cr@std@@_K@__Cr@std@@@__Cr@std@@@Z
    ??$?0VCommonFields@container_internal@absl@@AEBUStringHash@12@AEBUStringEq@12@AEBV?$allocator@U?$pair@$$CBV?$basic_string@DU?$char_traits@D@__Cr@std@@V?$allocator@D@23@@__Cr@std@@_K@__Cr@std@@@__Cr@std@@@?$CompressedTupleImpl@V?$CompressedTuple@VCommonFields@container_internal@absl@@UStringHash@23@UStringEq@23@V?$allocator@U?$pair@$$CBV?$basic_string@DU?$char_traits@D@__Cr@std@@V?$allocator@D@23@@__Cr@std@@_K@__Cr@std@@@__Cr@std@@@container_internal@absl@@U?$integer_sequence@_K$0A@$00$01$02@__Cr@std@@$00@internal_compressed_tuple@container_internal@absl@@QEAA@Uin_place_t@__Cr@std@@$$QEAVCommonFields@23@AEBUStringHash@23@AEBUStringEq@23@AEBV?$allocator@U?$pair@$$CBV?$basic_string@DU?$char_traits@D@__Cr@std@@V?$allocator@D@23@@__Cr@std@@_K@__Cr@std@@@56@@Z
    ??$?0VCommonFields@container_internal@absl@@AEBUStringHash@12@AEBUStringEq@12@AEBV?$allocator@V?$basic_string@DU?$char_traits@D@__Cr@std@@V?$allocator@D@23@@__Cr@std@@@__Cr@std@@$00@?$CompressedTuple@VCommonFields@container_internal@absl@@UStringHash@23@UStringEq@23@V?$allocator@V?$basic_string@DU?$char_traits@D@__Cr@std@@V?$allocator@D@23@@__Cr@std@@@__Cr@std@@@container_internal@absl@@QEAA@$$QEAVCommonFields@12@AEBUStringHash@12@AEBUStringEq@12@AEBV?$allocator@V?$basic_string@DU?$char_traits@D@__Cr@std@@V?$allocator@D@23@@__Cr@std@@@__Cr@std@@@Z
    ??$?0VCommonFields@container_internal@absl@@AEBUStringHash@12@AEBUStringEq@12@AEBV?$allocator@V?$basic_string@DU?$char_traits@D@__Cr@std@@V?$allocator@D@23@@__Cr@std@@@__Cr@std@@@?$CompressedTupleImpl@V?$CompressedTuple@VCommonFields@container_internal@absl@@UStringHash@23@UStringEq@23@V?$allocator@V?$basic_string@DU?$char_traits@D@__Cr@std@@V?$allocator@D@23@@__Cr@std@@@__Cr@std@@@container_internal@absl@@U?$integer_sequence@_K$0A@$00$01$02@__Cr@std@@$00@internal_compressed_tuple@container_internal@absl@@QEAA@Uin_place_t@__Cr@std@@$$QEAVCommonFields@23@AEBUStringHash@23@AEBUStringEq@23@AEBV?$allocator@V?$basic_string@DU?$char_traits@D@__Cr@std@@V?$allocator@D@23@@__Cr@std@@@56@@Z
    ??$?0VCommonFields@container_internal@absl@@U?$Hash@C@hash_internal@2@U?$equal_to@C@__Cr@std@@V?$allocator@C@67@$00@?$CompressedTuple@VCommonFields@container_internal@absl@@U?$Hash@C@hash_internal@3@U?$equal_to@C@__Cr@std@@V?$allocator@C@78@@container_internal@absl@@QEAA@$$QEAVCommonFields@12@$$QEAU?$Hash@C@hash_internal@2@$$QEAU?$equal_to@C@__Cr@std@@$$QEAV?$allocator@C@78@@Z
    ??$?0VCommonFields@container_internal@absl@@U?$Hash@C@hash_internal@2@U?$equal_to@C@__Cr@std@@V?$allocator@C@67@@?$CompressedTupleImpl@V?$CompressedTuple@VCommonFields@container_internal@absl@@U?$Hash@C@hash_internal@3@U?$equal_to@C@__Cr@std@@V?$allocator@C@78@@container_internal@absl@@U?$integer_sequence@_K$0A@$00$01$02@__Cr@std@@$00@internal_compressed_tuple@container_internal@absl@@QEAA@Uin_place_t@__Cr@std@@$$QEAVCommonFields@23@$$QEAU?$Hash@C@hash_internal@3@$$QEAU?$equal_to@C@56@$$QEAV?$allocator@C@56@@Z
    ??$?0VCommonFields@container_internal@absl@@U?$Hash@E@hash_internal@2@U?$equal_to@E@__Cr@std@@V?$allocator@E@67@$00@?$CompressedTuple@VCommonFields@container_internal@absl@@U?$Hash@E@hash_internal@3@U?$equal_to@E@__Cr@std@@V?$allocator@E@78@@container_internal@absl@@QEAA@$$QEAVCommonFields@12@$$QEAU?$Hash@E@hash_internal@2@$$QEAU?$equal_to@E@__Cr@std@@$$QEAV?$allocator@E@78@@Z
    ??$?0VCommonFields@container_internal@absl@@U?$Hash@E@hash_internal@2@U?$equal_to@E@__Cr@std@@V?$allocator@E@67@@?$CompressedTupleImpl@V?$CompressedTuple@VCommonFields@container_internal@absl@@U?$Hash@E@hash_internal@3@U?$equal_to@E@__Cr@std@@V?$allocator@E@78@@container_internal@absl@@U?$integer_sequence@_K$0A@$00$01$02@__Cr@std@@$00@internal_compressed_tuple@container_internal@absl@@QEAA@Uin_place_t@__Cr@std@@$$QEAVCommonFields@23@$$QEAU?$Hash@E@hash_internal@3@$$QEAU?$equal_to@E@56@$$QEAV?$allocator@E@56@@Z
    ??$?0VCommonFields@container_internal@absl@@U?$Hash@F@hash_internal@2@U?$equal_to@F@__Cr@std@@V?$allocator@F@67@$00@?$CompressedTuple@VCommonFields@container_internal@absl@@U?$Hash@F@hash_internal@3@U?$equal_to@F@__Cr@std@@V?$allocator@F@78@@container_internal@absl@@QEAA@$$QEAVCommonFields@12@$$QEAU?$Hash@F@hash_internal@2@$$QEAU?$equal_to@F@__Cr@std@@$$QEAV?$allocator@F@78@@Z
    ??$?0VCommonFields@container_internal@absl@@U?$Hash@F@hash_internal@2@U?$equal_to@F@__Cr@std@@V?$allocator@F@67@@?$CompressedTupleImpl@V?$CompressedTuple@VCommonFields@container_internal@absl@@U?$Hash@F@hash_internal@3@U?$equal_to@F@__Cr@std@@V?$allocator@F@78@@container_internal@absl@@U?$integer_sequence@_K$0A@$00$01$02@__Cr@std@@$00@internal_compressed_tuple@container_internal@absl@@QEAA@Uin_place_t@__Cr@std@@$$QEAVCommonFields@23@$$QEAU?$Hash@F@hash_internal@3@$$QEAU?$equal_to@F@56@$$QEAV?$allocator@F@56@@Z
    ??$?0VCommonFields@container_internal@absl@@U?$Hash@G@hash_internal@2@U?$equal_to@G@__Cr@std@@V?$allocator@G@67@$00@?$CompressedTuple@VCommonFields@container_internal@absl@@U?$Hash@G@hash_internal@3@U?$equal_to@G@__Cr@std@@V?$allocator@G@78@@container_internal@absl@@QEAA@$$QEAVCommonFields@12@$$QEAU?$Hash@G@hash_internal@2@$$QEAU?$equal_to@G@__Cr@std@@$$QEAV?$allocator@G@78@@Z
    ??$?0VCommonFields@container_internal@absl@@U?$Hash@G@hash_internal@2@U?$equal_to@G@__Cr@std@@V?$allocator@G@67@@?$CompressedTupleImpl@V?$CompressedTuple@VCommonFields@container_internal@absl@@U?$Hash@G@hash_internal@3@U?$equal_to@G@__Cr@std@@V?$allocator@G@78@@container_internal@absl@@U?$integer_sequence@_K$0A@$00$01$02@__Cr@std@@$00@internal_compressed_tuple@container_internal@absl@@QEAA@Uin_place_t@__Cr@std@@$$QEAVCommonFields@23@$$QEAU?$Hash@G@hash_internal@3@$$QEAU?$equal_to@G@56@$$QEAV?$allocator@G@56@@Z
    ??$?0VCommonFields@container_internal@absl@@U?$Hash@H@hash_internal@2@U?$equal_to@H@__Cr@std@@V?$allocator@H@67@$00@?$CompressedTuple@VCommonFields@container_internal@absl@@U?$Hash@H@hash_internal@3@U?$equal_to@H@__Cr@std@@V?$allocator@H@78@@container_internal@absl@@QEAA@$$QEAVCommonFields@12@$$QEAU?$Hash@H@hash_internal@2@$$QEAU?$equal_to@H@__Cr@std@@$$QEAV?$allocator@H@78@@Z
    ??$?0VCommonFields@container_internal@absl@@U?$Hash@H@hash_internal@2@U?$equal_to@H@__Cr@std@@V?$allocator@H@67@@?$CompressedTupleImpl@V?$CompressedTuple@VCommonFields@container_internal@absl@@U?$Hash@H@hash_internal@3@U?$equal_to@H@__Cr@std@@V?$allocator@H@78@@container_internal@absl@@U?$integer_sequence@_K$0A@$00$01$02@__Cr@std@@$00@internal_compressed_tuple@container_internal@absl@@QEAA@Uin_place_t@__Cr@std@@$$QEAVCommonFields@23@$$QEAU?$Hash@H@hash_internal@3@$$QEAU?$equal_to@H@56@$$QEAV?$allocator@H@56@@Z
    ??$?0VCommonFields@container_internal@absl@@U?$Hash@H@hash_internal@2@U?$equal_to@H@__Cr@std@@V?$allocator@U?$pair@$$CBHH@__Cr@std@@@67@$00@?$CompressedTuple@VCommonFields@container_internal@absl@@U?$Hash@H@hash_internal@3@U?$equal_to@H@__Cr@std@@V?$allocator@U?$pair@$$CBHH@__Cr@std@@@78@@container_internal@absl@@QEAA@$$QEAVCommonFields@12@$$QEAU?$Hash@H@hash_internal@2@$$QEAU?$equal_to@H@__Cr@std@@$$QEAV?$allocator@U?$pair@$$CBHH@__Cr@std@@@78@@Z
    ??$?0VCommonFields@container_internal@absl@@U?$Hash@H@hash_internal@2@U?$equal_to@H@__Cr@std@@V?$allocator@U?$pair@$$CBHH@__Cr@std@@@67@@?$CompressedTupleImpl@V?$CompressedTuple@VCommonFields@container_internal@absl@@U?$Hash@H@hash_internal@3@U?$equal_to@H@__Cr@std@@V?$allocator@U?$pair@$$CBHH@__Cr@std@@@78@@container_internal@absl@@U?$integer_sequence@_K$0A@$00$01$02@__Cr@std@@$00@internal_compressed_tuple@container_internal@absl@@QEAA@Uin_place_t@__Cr@std@@$$QEAVCommonFields@23@$$QEAU?$Hash@H@hash_internal@3@$$QEAU?$equal_to@H@56@$$QEAV?$allocator@U?$pair@$$CBHH@__Cr@std@@@56@@Z
    ??$?0VCommonFields@container_internal@absl@@U?$Hash@H@hash_internal@2@U?$equal_to@H@__Cr@std@@V?$allocator@U?$pair@$$CBHV?$basic_string@DU?$char_traits@D@__Cr@std@@V?$allocator@D@23@@__Cr@std@@@__Cr@std@@@67@$00@?$CompressedTuple@VCommonFields@container_internal@absl@@U?$Hash@H@hash_internal@3@U?$equal_to@H@__Cr@std@@V?$allocator@U?$pair@$$CBHV?$basic_string@DU?$char_traits@D@__Cr@std@@V?$allocator@D@23@@__Cr@std@@@__Cr@std@@@78@@container_internal@absl@@QEAA@$$QEAVCommonFields@12@$$QEAU?$Hash@H@hash_internal@2@$$QEAU?$equal_to@H@__Cr@std@@$$QEAV?$allocator@U?$pair@$$CBHV?$basic_string@DU?$char_traits@D@__Cr@std@@V?$allocator@D@23@@__Cr@std@@@__Cr@std@@@78@@Z
    ??$?0VCommonFields@container_internal@absl@@U?$Hash@H@hash_internal@2@U?$equal_to@H@__Cr@std@@V?$allocator@U?$pair@$$CBHV?$basic_string@DU?$char_traits@D@__Cr@std@@V?$allocator@D@23@@__Cr@std@@@__Cr@std@@@67@@?$CompressedTupleImpl@V?$CompressedTuple@VCommonFields@container_internal@absl@@U?$Hash@H@hash_internal@3@U?$equal_to@H@__Cr@std@@V?$allocator@U?$pair@$$CBHV?$basic_string@DU?$char_traits@D@__Cr@std@@V?$allocator@D@23@@__Cr@std@@@__Cr@std@@@78@@container_internal@absl@@U?$integer_sequence@_K$0A@$00$01$02@__Cr@std@@$00@internal_compressed_tuple@container_internal@absl@@QEAA@Uin_place_t@__Cr@std@@$$QEAVCommonFields@23@$$QEAU?$Hash@H@hash_internal@3@$$QEAU?$equal_to@H@56@$$QEAV?$allocator@U?$pair@$$CBHV?$basic_string@DU?$char_traits@D@__Cr@std@@V?$allocator@D@23@@__Cr@std@@@__Cr@std@@@56@@Z
    ??$?0VCommonFields@container_internal@absl@@U?$Hash@I@hash_internal@2@U?$equal_to@I@__Cr@std@@V?$allocator@I@67@$00@?$CompressedTuple@VCommonFields@container_internal@absl@@U?$Hash@I@hash_internal@3@U?$equal_to@I@__Cr@std@@V?$allocator@I@78@@container_internal@absl@@QEAA@$$QEAVCommonFields@12@$$QEAU?$Hash@I@hash_internal@2@$$QEAU?$equal_to@I@__Cr@std@@$$QEAV?$allocator@I@78@@Z
    ??$?0VCommonFields@container_internal@absl@@U?$Hash@I@hash_internal@2@U?$equal_to@I@__Cr@std@@V?$allocator@I@67@@?$CompressedTupleImpl@V?$CompressedTuple@VCommonFields@container_internal@absl@@U?$Hash@I@hash_internal@3@U?$equal_to@I@__Cr@std@@V?$allocator@I@78@@container_internal@absl@@U?$integer_sequence@_K$0A@$00$01$02@__Cr@std@@$00@internal_compressed_tuple@container_internal@absl@@QEAA@Uin_place_t@__Cr@std@@$$QEAVCommonFields@23@$$QEAU?$Hash@I@hash_internal@3@$$QEAU?$equal_to@I@56@$$QEAV?$allocator@I@56@@Z
    ??$?0VCommonFields@container_internal@absl@@U?$Hash@I@hash_internal@2@U?$equal_to@I@__Cr@std@@V?$allocator@U?$pair@$$CBII@__Cr@std@@@67@$00@?$CompressedTuple@VCommonFields@container_internal@absl@@U?$Hash@I@hash_internal@3@U?$equal_to@I@__Cr@std@@V?$allocator@U?$pair@$$CBII@__Cr@std@@@78@@container_internal@absl@@QEAA@$$QEAVCommonFields@12@$$QEAU?$Hash@I@hash_internal@2@$$QEAU?$equal_to@I@__Cr@std@@$$QEAV?$allocator@U?$pair@$$CBII@__Cr@std@@@78@@Z
    ??$?0VCommonFields@container_internal@absl@@U?$Hash@I@hash_internal@2@U?$equal_to@I@__Cr@std@@V?$allocator@U?$pair@$$CBII@__Cr@std@@@67@@?$CompressedTupleImpl@V?$CompressedTuple@VCommonFields@container_internal@absl@@U?$Hash@I@hash_internal@3@U?$equal_to@I@__Cr@std@@V?$allocator@U?$pair@$$CBII@__Cr@std@@@78@@container_internal@absl@@U?$integer_sequence@_K$0A@$00$01$02@__Cr@std@@$00@internal_compressed_tuple@container_internal@absl@@QEAA@Uin_place_t@__Cr@std@@$$QEAVCommonFields@23@$$QEAU?$Hash@I@hash_internal@3@$$QEAU?$equal_to@I@56@$$QEAV?$allocator@U?$pair@$$CBII@__Cr@std@@@56@@Z
    ??$?0VCommonFields@container_internal@absl@@U?$Hash@I@hash_internal@2@U?$equal_to@I@__Cr@std@@V?$allocator@U?$pair@$$CBIV?$basic_string@DU?$char_traits@D@__Cr@std@@V?$allocator@D@23@@__Cr@std@@@__Cr@std@@@67@$00@?$CompressedTuple@VCommonFields@container_internal@absl@@U?$Hash@I@hash_internal@3@U?$equal_to@I@__Cr@std@@V?$allocator@U?$pair@$$CBIV?$basic_string@DU?$char_traits@D@__Cr@std@@V?$allocator@D@23@@__Cr@std@@@__Cr@std@@@78@@container_internal@absl@@QEAA@$$QEAVCommonFields@12@$$QEAU?$Hash@I@hash_internal@2@$$QEAU?$equal_to@I@__Cr@std@@$$QEAV?$allocator@U?$pair@$$CBIV?$basic_string@DU?$char_traits@D@__Cr@std@@V?$allocator@D@23@@__Cr@std@@@__Cr@std@@@78@@Z
    ??$?0VCommonFields@container_internal@absl@@U?$Hash@I@hash_internal@2@U?$equal_to@I@__Cr@std@@V?$allocator@U?$pair@$$CBIV?$basic_string@DU?$char_traits@D@__Cr@std@@V?$allocator@D@23@@__Cr@std@@@__Cr@std@@@67@@?$CompressedTupleImpl@V?$CompressedTuple@VCommonFields@container_internal@absl@@U?$Hash@I@hash_internal@3@U?$equal_to@I@__Cr@std@@V?$allocator@U?$pair@$$CBIV?$basic_string@DU?$char_traits@D@__Cr@std@@V?$allocator@D@23@@__Cr@std@@@__Cr@std@@@78@@container_internal@absl@@U?$integer_sequence@_K$0A@$00$01$02@__Cr@std@@$00@internal_compressed_tuple@container_internal@absl@@QEAA@Uin_place_t@__Cr@std@@$$QEAVCommonFields@23@$$QEAU?$Hash@I@hash_internal@3@$$QEAU?$equal_to@I@56@$$QEAV?$allocator@U?$pair@$$CBIV?$basic_string@DU?$char_traits@D@__Cr@std@@V?$allocator@D@23@@__Cr@std@@@__Cr@std@@@56@@Z
    ??$?0VCommonFields@container_internal@absl@@U?$Hash@_J@hash_internal@2@U?$equal_to@_J@__Cr@std@@V?$allocator@U?$pair@$$CB_JV?$basic_string@DU?$char_traits@D@__Cr@std@@V?$allocator@D@23@@__Cr@std@@@__Cr@std@@@67@$00@?$CompressedTuple@VCommonFields@container_internal@absl@@U?$Hash@_J@hash_internal@3@U?$equal_to@_J@__Cr@std@@V?$allocator@U?$pair@$$CB_JV?$basic_string@DU?$char_traits@D@__Cr@std@@V?$allocator@D@23@@__Cr@std@@@__Cr@std@@@78@@container_internal@absl@@QEAA@$$QEAVCommonFields@12@$$QEAU?$Hash@_J@hash_internal@2@$$QEAU?$equal_to@_J@__Cr@std@@$$QEAV?$allocator@U?$pair@$$CB_JV?$basic_string@DU?$char_traits@D@__Cr@std@@V?$allocator@D@23@@__Cr@std@@@__Cr@std@@@78@@Z
    ??$?0VCommonFields@container_internal@absl@@U?$Hash@_J@hash_internal@2@U?$equal_to@_J@__Cr@std@@V?$allocator@U?$pair@$$CB_JV?$basic_string@DU?$char_traits@D@__Cr@std@@V?$allocator@D@23@@__Cr@std@@@__Cr@std@@@67@@?$CompressedTupleImpl@V?$CompressedTuple@VCommonFields@container_internal@absl@@U?$Hash@_J@hash_internal@3@U?$equal_to@_J@__Cr@std@@V?$allocator@U?$pair@$$CB_JV?$basic_string@DU?$char_traits@D@__Cr@std@@V?$allocator@D@23@@__Cr@std@@@__Cr@std@@@78@@container_internal@absl@@U?$integer_sequence@_K$0A@$00$01$02@__Cr@std@@$00@internal_compressed_tuple@container_internal@absl@@QEAA@Uin_place_t@__Cr@std@@$$QEAVCommonFields@23@$$QEAU?$Hash@_J@hash_internal@3@$$QEAU?$equal_to@_J@56@$$QEAV?$allocator@U?$pair@$$CB_JV?$basic_string@DU?$char_traits@D@__Cr@std@@V?$allocator@D@23@@__Cr@std@@@__Cr@std@@@56@@Z
    ??$?0VCommonFields@container_internal@absl@@U?$Hash@_J@hash_internal@2@U?$equal_to@_J@__Cr@std@@V?$allocator@U?$pair@$$CB_J_J@__Cr@std@@@67@$00@?$CompressedTuple@VCommonFields@container_internal@absl@@U?$Hash@_J@hash_internal@3@U?$equal_to@_J@__Cr@std@@V?$allocator@U?$pair@$$CB_J_J@__Cr@std@@@78@@container_internal@absl@@QEAA@$$QEAVCommonFields@12@$$QEAU?$Hash@_J@hash_internal@2@$$QEAU?$equal_to@_J@__Cr@std@@$$QEAV?$allocator@U?$pair@$$CB_J_J@__Cr@std@@@78@@Z
    ??$?0VCommonFields@container_internal@absl@@U?$Hash@_J@hash_internal@2@U?$equal_to@_J@__Cr@std@@V?$allocator@U?$pair@$$CB_J_J@__Cr@std@@@67@@?$CompressedTupleImpl@V?$CompressedTuple@VCommonFields@container_internal@absl@@U?$Hash@_J@hash_internal@3@U?$equal_to@_J@__Cr@std@@V?$allocator@U?$pair@$$CB_J_J@__Cr@std@@@78@@container_internal@absl@@U?$integer_sequence@_K$0A@$00$01$02@__Cr@std@@$00@internal_compressed_tuple@container_internal@absl@@QEAA@Uin_place_t@__Cr@std@@$$QEAVCommonFields@23@$$QEAU?$Hash@_J@hash_internal@3@$$QEAU?$equal_to@_J@56@$$QEAV?$allocator@U?$pair@$$CB_J_J@__Cr@std@@@56@@Z
    ??$?0VCommonFields@container_internal@absl@@U?$Hash@_J@hash_internal@2@U?$equal_to@_J@__Cr@std@@V?$allocator@_J@67@$00@?$CompressedTuple@VCommonFields@container_internal@absl@@U?$Hash@_J@hash_internal@3@U?$equal_to@_J@__Cr@std@@V?$allocator@_J@78@@container_internal@absl@@QEAA@$$QEAVCommonFields@12@$$QEAU?$Hash@_J@hash_internal@2@$$QEAU?$equal_to@_J@__Cr@std@@$$QEAV?$allocator@_J@78@@Z
    ??$?0VCommonFields@container_internal@absl@@U?$Hash@_J@hash_internal@2@U?$equal_to@_J@__Cr@std@@V?$allocator@_J@67@@?$CompressedTupleImpl@V?$CompressedTuple@VCommonFields@container_internal@absl@@U?$Hash@_J@hash_internal@3@U?$equal_to@_J@__Cr@std@@V?$allocator@_J@78@@container_internal@absl@@U?$integer_sequence@_K$0A@$00$01$02@__Cr@std@@$00@internal_compressed_tuple@container_internal@absl@@QEAA@Uin_place_t@__Cr@std@@$$QEAVCommonFields@23@$$QEAU?$Hash@_J@hash_internal@3@$$QEAU?$equal_to@_J@56@$$QEAV?$allocator@_J@56@@Z
    ??$?0VCommonFields@container_internal@absl@@U?$Hash@_K@hash_internal@2@U?$equal_to@_K@__Cr@std@@V?$allocator@U?$pair@$$CB_KV?$basic_string@DU?$char_traits@D@__Cr@std@@V?$allocator@D@23@@__Cr@std@@@__Cr@std@@@67@$00@?$CompressedTuple@VCommonFields@container_internal@absl@@U?$Hash@_K@hash_internal@3@U?$equal_to@_K@__Cr@std@@V?$allocator@U?$pair@$$CB_KV?$basic_string@DU?$char_traits@D@__Cr@std@@V?$allocator@D@23@@__Cr@std@@@__Cr@std@@@78@@container_internal@absl@@QEAA@$$QEAVCommonFields@12@$$QEAU?$Hash@_K@hash_internal@2@$$QEAU?$equal_to@_K@__Cr@std@@$$QEAV?$allocator@U?$pair@$$CB_KV?$basic_string@DU?$char_traits@D@__Cr@std@@V?$allocator@D@23@@__Cr@std@@@__Cr@std@@@78@@Z
    ??$?0VCommonFields@container_internal@absl@@U?$Hash@_K@hash_internal@2@U?$equal_to@_K@__Cr@std@@V?$allocator@U?$pair@$$CB_KV?$basic_string@DU?$char_traits@D@__Cr@std@@V?$allocator@D@23@@__Cr@std@@@__Cr@std@@@67@@?$CompressedTupleImpl@V?$CompressedTuple@VCommonFields@container_internal@absl@@U?$Hash@_K@hash_internal@3@U?$equal_to@_K@__Cr@std@@V?$allocator@U?$pair@$$CB_KV?$basic_string@DU?$char_traits@D@__Cr@std@@V?$allocator@D@23@@__Cr@std@@@__Cr@std@@@78@@container_internal@absl@@U?$integer_sequence@_K$0A@$00$01$02@__Cr@std@@$00@internal_compressed_tuple@container_internal@absl@@QEAA@Uin_place_t@__Cr@std@@$$QEAVCommonFields@23@$$QEAU?$Hash@_K@hash_internal@3@$$QEAU?$equal_to@_K@56@$$QEAV?$allocator@U?$pair@$$CB_KV?$basic_string@DU?$char_traits@D@__Cr@std@@V?$allocator@D@23@@__Cr@std@@@__Cr@std@@@56@@Z
    ??$?0VCommonFields@container_internal@absl@@U?$Hash@_K@hash_internal@2@U?$equal_to@_K@__Cr@std@@V?$allocator@U?$pair@$$CB_K_K@__Cr@std@@@67@$00@?$CompressedTuple@VCommonFields@container_internal@absl@@U?$Hash@_K@hash_internal@3@U?$equal_to@_K@__Cr@std@@V?$allocator@U?$pair@$$CB_K_K@__Cr@std@@@78@@container_internal@absl@@QEAA@$$QEAVCommonFields@12@$$QEAU?$Hash@_K@hash_internal@2@$$QEAU?$equal_to@_K@__Cr@std@@$$QEAV?$allocator@U?$pair@$$CB_K_K@__Cr@std@@@78@@Z
    ??$?0VCommonFields@container_internal@absl@@U?$Hash@_K@hash_internal@2@U?$equal_to@_K@__Cr@std@@V?$allocator@U?$pair@$$CB_K_K@__Cr@std@@@67@@?$CompressedTupleImpl@V?$CompressedTuple@VCommonFields@container_internal@absl@@U?$Hash@_K@hash_internal@3@U?$equal_to@_K@__Cr@std@@V?$allocator@U?$pair@$$CB_K_K@__Cr@std@@@78@@container_internal@absl@@U?$integer_sequence@_K$0A@$00$01$02@__Cr@std@@$00@internal_compressed_tuple@container_internal@absl@@QEAA@Uin_place_t@__Cr@std@@$$QEAVCommonFields@23@$$QEAU?$Hash@_K@hash_internal@3@$$QEAU?$equal_to@_K@56@$$QEAV?$allocator@U?$pair@$$CB_K_K@__Cr@std@@@56@@Z
    ??$?0VCommonFields@container_internal@absl@@U?$Hash@_K@hash_internal@2@U?$equal_to@_K@__Cr@std@@V?$allocator@_K@67@$00@?$CompressedTuple@VCommonFields@container_internal@absl@@U?$Hash@_K@hash_internal@3@U?$equal_to@_K@__Cr@std@@V?$allocator@_K@78@@container_internal@absl@@QEAA@$$QEAVCommonFields@12@$$QEAU?$Hash@_K@hash_internal@2@$$QEAU?$equal_to@_K@__Cr@std@@$$QEAV?$allocator@_K@78@@Z
    ??$?0VCommonFields@container_internal@absl@@U?$Hash@_K@hash_internal@2@U?$equal_to@_K@__Cr@std@@V?$allocator@_K@67@@?$CompressedTupleImpl@V?$CompressedTuple@VCommonFields@container_internal@absl@@U?$Hash@_K@hash_internal@3@U?$equal_to@_K@__Cr@std@@V?$allocator@_K@78@@container_internal@absl@@U?$integer_sequence@_K$0A@$00$01$02@__Cr@std@@$00@internal_compressed_tuple@container_internal@absl@@QEAA@Uin_place_t@__Cr@std@@$$QEAVCommonFields@23@$$QEAU?$Hash@_K@hash_internal@3@$$QEAU?$equal_to@_K@56@$$QEAV?$allocator@_K@56@@Z
    ??$?0VCommonFields@container_internal@absl@@UStringHash@12@UStringEq@12@V?$allocator@U?$pair@$$CBV?$basic_string@DU?$char_traits@D@__Cr@std@@V?$allocator@D@23@@__Cr@std@@H@__Cr@std@@@__Cr@std@@$00@?$CompressedTuple@VCommonFields@container_internal@absl@@UStringHash@23@UStringEq@23@V?$allocator@U?$pair@$$CBV?$basic_string@DU?$char_traits@D@__Cr@std@@V?$allocator@D@23@@__Cr@std@@H@__Cr@std@@@__Cr@std@@@container_internal@absl@@QEAA@$$QEAVCommonFields@12@$$QEAUStringHash@12@$$QEAUStringEq@12@$$QEAV?$allocator@U?$pair@$$CBV?$basic_string@DU?$char_traits@D@__Cr@std@@V?$allocator@D@23@@__Cr@std@@H@__Cr@std@@@__Cr@std@@@Z
    ??$?0VCommonFields@container_internal@absl@@UStringHash@12@UStringEq@12@V?$allocator@U?$pair@$$CBV?$basic_string@DU?$char_traits@D@__Cr@std@@V?$allocator@D@23@@__Cr@std@@H@__Cr@std@@@__Cr@std@@@?$CompressedTupleImpl@V?$CompressedTuple@VCommonFields@container_internal@absl@@UStringHash@23@UStringEq@23@V?$allocator@U?$pair@$$CBV?$basic_string@DU?$char_traits@D@__Cr@std@@V?$allocator@D@23@@__Cr@std@@H@__Cr@std@@@__Cr@std@@@container_internal@absl@@U?$integer_sequence@_K$0A@$00$01$02@__Cr@std@@$00@internal_compressed_tuple@container_internal@absl@@QEAA@Uin_place_t@__Cr@std@@$$QEAVCommonFields@23@$$QEAUStringHash@23@$$QEAUStringEq@23@$$QEAV?$allocator@U?$pair@$$CBV?$basic_string@DU?$char_traits@D@__Cr@std@@V?$allocator@D@23@@__Cr@std@@H@__Cr@std@@@56@@Z
    ??$?0VCommonFields@container_internal@absl@@UStringHash@12@UStringEq@12@V?$allocator@U?$pair@$$CBV?$basic_string@DU?$char_traits@D@__Cr@std@@V?$allocator@D@23@@__Cr@std@@I@__Cr@std@@@__Cr@std@@$00@?$CompressedTuple@VCommonFields@container_internal@absl@@UStringHash@23@UStringEq@23@V?$allocator@U?$pair@$$CBV?$basic_string@DU?$char_traits@D@__Cr@std@@V?$allocator@D@23@@__Cr@std@@I@__Cr@std@@@__Cr@std@@@container_internal@absl@@QEAA@$$QEAVCommonFields@12@$$QEAUStringHash@12@$$QEAUStringEq@12@$$QEAV?$allocator@U?$pair@$$CBV?$basic_string@DU?$char_traits@D@__Cr@std@@V?$allocator@D@23@@__Cr@std@@I@__Cr@std@@@__Cr@std@@@Z
    ??$?0VCommonFields@container_internal@absl@@UStringHash@12@UStringEq@12@V?$allocator@U?$pair@$$CBV?$basic_string@DU?$char_traits@D@__Cr@std@@V?$allocator@D@23@@__Cr@std@@I@__Cr@std@@@__Cr@std@@@?$CompressedTupleImpl@V?$CompressedTuple@VCommonFields@container_internal@absl@@UStringHash@23@UStringEq@23@V?$allocator@U?$pair@$$CBV?$basic_string@DU?$char_traits@D@__Cr@std@@V?$allocator@D@23@@__Cr@std@@I@__Cr@std@@@__Cr@std@@@container_internal@absl@@U?$integer_sequence@_K$0A@$00$01$02@__Cr@std@@$00@internal_compressed_tuple@container_internal@absl@@QEAA@Uin_place_t@__Cr@std@@$$QEAVCommonFields@23@$$QEAUStringHash@23@$$QEAUStringEq@23@$$QEAV?$allocator@U?$pair@$$CBV?$basic_string@DU?$char_traits@D@__Cr@std@@V?$allocator@D@23@@__Cr@std@@I@__Cr@std@@@56@@Z
    ??$?0VCommonFields@container_internal@absl@@UStringHash@12@UStringEq@12@V?$allocator@U?$pair@$$CBV?$basic_string@DU?$char_traits@D@__Cr@std@@V?$allocator@D@23@@__Cr@std@@V123@@__Cr@std@@@__Cr@std@@$00@?$CompressedTuple@VCommonFields@container_internal@absl@@UStringHash@23@UStringEq@23@V?$allocator@U?$pair@$$CBV?$basic_string@DU?$char_traits@D@__Cr@std@@V?$allocator@D@23@@__Cr@std@@V123@@__Cr@std@@@__Cr@std@@@container_internal@absl@@QEAA@$$QEAVCommonFields@12@$$QEAUStringHash@12@$$QEAUStringEq@12@$$QEAV?$allocator@U?$pair@$$CBV?$basic_string@DU?$char_traits@D@__Cr@std@@V?$allocator@D@23@@__Cr@std@@V123@@__Cr@std@@@__Cr@std@@@Z
    ??$?0VCommonFields@container_internal@absl@@UStringHash@12@UStringEq@12@V?$allocator@U?$pair@$$CBV?$basic_string@DU?$char_traits@D@__Cr@std@@V?$allocator@D@23@@__Cr@std@@V123@@__Cr@std@@@__Cr@std@@@?$CompressedTupleImpl@V?$CompressedTuple@VCommonFields@container_internal@absl@@UStringHash@23@UStringEq@23@V?$allocator@U?$pair@$$CBV?$basic_string@DU?$char_traits@D@__Cr@std@@V?$allocator@D@23@@__Cr@std@@V123@@__Cr@std@@@__Cr@std@@@container_internal@absl@@U?$integer_sequence@_K$0A@$00$01$02@__Cr@std@@$00@internal_compressed_tuple@container_internal@absl@@QEAA@Uin_place_t@__Cr@std@@$$QEAVCommonFields@23@$$QEAUStringHash@23@$$QEAUStringEq@23@$$QEAV?$allocator@U?$pair@$$CBV?$basic_string@DU?$char_traits@D@__Cr@std@@V?$allocator@D@23@@__Cr@std@@V123@@__Cr@std@@@56@@Z
    ??$?0VCommonFields@container_internal@absl@@UStringHash@12@UStringEq@12@V?$allocator@U?$pair@$$CBV?$basic_string@DU?$char_traits@D@__Cr@std@@V?$allocator@D@23@@__Cr@std@@_J@__Cr@std@@@__Cr@std@@$00@?$CompressedTuple@VCommonFields@container_internal@absl@@UStringHash@23@UStringEq@23@V?$allocator@U?$pair@$$CBV?$basic_string@DU?$char_traits@D@__Cr@std@@V?$allocator@D@23@@__Cr@std@@_J@__Cr@std@@@__Cr@std@@@container_internal@absl@@QEAA@$$QEAVCommonFields@12@$$QEAUStringHash@12@$$QEAUStringEq@12@$$QEAV?$allocator@U?$pair@$$CBV?$basic_string@DU?$char_traits@D@__Cr@std@@V?$allocator@D@23@@__Cr@std@@_J@__Cr@std@@@__Cr@std@@@Z
    ??$?0VCommonFields@container_internal@absl@@UStringHash@12@UStringEq@12@V?$allocator@U?$pair@$$CBV?$basic_string@DU?$char_traits@D@__Cr@std@@V?$allocator@D@23@@__Cr@std@@_J@__Cr@std@@@__Cr@std@@@?$CompressedTupleImpl@V?$CompressedTuple@VCommonFields@container_internal@absl@@UStringHash@23@UStringEq@23@V?$allocator@U?$pair@$$CBV?$basic_string@DU?$char_traits@D@__Cr@std@@V?$allocator@D@23@@__Cr@std@@_J@__Cr@std@@@__Cr@std@@@container_internal@absl@@U?$integer_sequence@_K$0A@$00$01$02@__Cr@std@@$00@internal_compressed_tuple@container_internal@absl@@QEAA@Uin_place_t@__Cr@std@@$$QEAVCommonFields@23@$$QEAUStringHash@23@$$QEAUStringEq@23@$$QEAV?$allocator@U?$pair@$$CBV?$basic_string@DU?$char_traits@D@__Cr@std@@V?$allocator@D@23@@__Cr@std@@_J@__Cr@std@@@56@@Z
    ??$?0VCommonFields@container_internal@absl@@UStringHash@12@UStringEq@12@V?$allocator@U?$pair@$$CBV?$basic_string@DU?$char_traits@D@__Cr@std@@V?$allocator@D@23@@__Cr@std@@_K@__Cr@std@@@__Cr@std@@$00@?$CompressedTuple@VCommonFields@container_internal@absl@@UStringHash@23@UStringEq@23@V?$allocator@U?$pair@$$CBV?$basic_string@DU?$char_traits@D@__Cr@std@@V?$allocator@D@23@@__Cr@std@@_K@__Cr@std@@@__Cr@std@@@container_internal@absl@@QEAA@$$QEAVCommonFields@12@$$QEAUStringHash@12@$$QEAUStringEq@12@$$QEAV?$allocator@U?$pair@$$CBV?$basic_string@DU?$char_traits@D@__Cr@std@@V?$allocator@D@23@@__Cr@std@@_K@__Cr@std@@@__Cr@std@@@Z
    ??$?0VCommonFields@container_internal@absl@@UStringHash@12@UStringEq@12@V?$allocator@U?$pair@$$CBV?$basic_string@DU?$char_traits@D@__Cr@std@@V?$allocator@D@23@@__Cr@std@@_K@__Cr@std@@@__Cr@std@@@?$CompressedTupleImpl@V?$CompressedTuple@VCommonFields@container_internal@absl@@UStringHash@23@UStringEq@23@V?$allocator@U?$pair@$$CBV?$basic_string@DU?$char_traits@D@__Cr@std@@V?$allocator@D@23@@__Cr@std@@_K@__Cr@std@@@__Cr@std@@@container_internal@absl@@U?$integer_sequence@_K$0A@$00$01$02@__Cr@std@@$00@internal_compressed_tuple@container_internal@absl@@QEAA@Uin_place_t@__Cr@std@@$$QEAVCommonFields@23@$$QEAUStringHash@23@$$QEAUStringEq@23@$$QEAV?$allocator@U?$pair@$$CBV?$basic_string@DU?$char_traits@D@__Cr@std@@V?$allocator@D@23@@__Cr@std@@_K@__Cr@std@@@56@@Z
    ??$?0VCommonFields@container_internal@absl@@UStringHash@12@UStringEq@12@V?$allocator@U?$pair@$$CBV?$basic_string_view@DU?$char_traits@D@__Cr@std@@@__Cr@std@@PEAVCommandLineFlag@absl@@@__Cr@std@@@__Cr@std@@$00@?$CompressedTuple@VCommonFields@container_internal@absl@@UStringHash@23@UStringEq@23@V?$allocator@U?$pair@$$CBV?$basic_string_view@DU?$char_traits@D@__Cr@std@@@__Cr@std@@PEAVCommandLineFlag@absl@@@__Cr@std@@@__Cr@std@@@container_internal@absl@@QEAA@$$QEAVCommonFields@12@$$QEAUStringHash@12@$$QEAUStringEq@12@$$QEAV?$allocator@U?$pair@$$CBV?$basic_string_view@DU?$char_traits@D@__Cr@std@@@__Cr@std@@PEAVCommandLineFlag@absl@@@__Cr@std@@@__Cr@std@@@Z
    ??$?0VCommonFields@container_internal@absl@@UStringHash@12@UStringEq@12@V?$allocator@U?$pair@$$CBV?$basic_string_view@DU?$char_traits@D@__Cr@std@@@__Cr@std@@PEAVCommandLineFlag@absl@@@__Cr@std@@@__Cr@std@@@?$CompressedTupleImpl@V?$CompressedTuple@VCommonFields@container_internal@absl@@UStringHash@23@UStringEq@23@V?$allocator@U?$pair@$$CBV?$basic_string_view@DU?$char_traits@D@__Cr@std@@@__Cr@std@@PEAVCommandLineFlag@absl@@@__Cr@std@@@__Cr@std@@@container_internal@absl@@U?$integer_sequence@_K$0A@$00$01$02@__Cr@std@@$00@internal_compressed_tuple@container_internal@absl@@QEAA@Uin_place_t@__Cr@std@@$$QEAVCommonFields@23@$$QEAUStringHash@23@$$QEAUStringEq@23@$$QEAV?$allocator@U?$pair@$$CBV?$basic_string_view@DU?$char_traits@D@__Cr@std@@@__Cr@std@@PEAVCommandLineFlag@absl@@@__Cr@std@@@56@@Z
    ??$?0VCommonFields@container_internal@absl@@UStringHash@12@UStringEq@12@V?$allocator@V?$basic_string@DU?$char_traits@D@__Cr@std@@V?$allocator@D@23@@__Cr@std@@@__Cr@std@@$00@?$CompressedTuple@VCommonFields@container_internal@absl@@UStringHash@23@UStringEq@23@V?$allocator@V?$basic_string@DU?$char_traits@D@__Cr@std@@V?$allocator@D@23@@__Cr@std@@@__Cr@std@@@container_internal@absl@@QEAA@$$QEAVCommonFields@12@$$QEAUStringHash@12@$$QEAUStringEq@12@$$QEAV?$allocator@V?$basic_string@DU?$char_traits@D@__Cr@std@@V?$allocator@D@23@@__Cr@std@@@__Cr@std@@@Z
    ??$?0VCommonFields@container_internal@absl@@UStringHash@12@UStringEq@12@V?$allocator@V?$basic_string@DU?$char_traits@D@__Cr@std@@V?$allocator@D@23@@__Cr@std@@@__Cr@std@@@?$CompressedTupleImpl@V?$CompressedTuple@VCommonFields@container_internal@absl@@UStringHash@23@UStringEq@23@V?$allocator@V?$basic_string@DU?$char_traits@D@__Cr@std@@V?$allocator@D@23@@__Cr@std@@@__Cr@std@@@container_internal@absl@@U?$integer_sequence@_K$0A@$00$01$02@__Cr@std@@$00@internal_compressed_tuple@container_internal@absl@@QEAA@Uin_place_t@__Cr@std@@$$QEAVCommonFields@23@$$QEAUStringHash@23@$$QEAUStringEq@23@$$QEAV?$allocator@V?$basic_string@DU?$char_traits@D@__Cr@std@@V?$allocator@D@23@@__Cr@std@@@56@@Z
    ??$?0VFILERawSink@str_format_internal@absl@@$0A@@FormatRawSinkImpl@str_format_internal@absl@@QEAA@PEAVFILERawSink@12@@Z
    ??$?0VFallbackCrcMemcpyEngine@crc_internal@absl@@$0A@@?$default_delete@VCrcMemcpyEngine@crc_internal@absl@@@__Cr@std@@QEAA@AEBU?$default_delete@VFallbackCrcMemcpyEngine@crc_internal@absl@@@12@@Z
    ??$?0VFallbackCrcMemcpyEngine@crc_internal@absl@@U?$default_delete@VFallbackCrcMemcpyEngine@crc_internal@absl@@@__Cr@std@@XX@?$unique_ptr@VCrcMemcpyEngine@crc_internal@absl@@U?$default_delete@VCrcMemcpyEngine@crc_internal@absl@@@__Cr@std@@@__Cr@std@@QEAA@$$QEAV?$unique_ptr@VFallbackCrcMemcpyEngine@crc_internal@absl@@U?$default_delete@VFallbackCrcMemcpyEngine@crc_internal@absl@@@__Cr@std@@@12@@Z
    ??$?0VFlagState@flags_internal@absl@@$0A@@?$default_delete@VFlagStateInterface@flags_internal@absl@@@__Cr@std@@QEAA@AEBU?$default_delete@VFlagState@flags_internal@absl@@@12@@Z
    ??$?0VFlagState@flags_internal@absl@@U?$default_delete@VFlagState@flags_internal@absl@@@__Cr@std@@XX@?$unique_ptr@VFlagStateInterface@flags_internal@absl@@U?$default_delete@VFlagStateInterface@flags_internal@absl@@@__Cr@std@@@__Cr@std@@QEAA@$$QEAV?$unique_ptr@VFlagState@flags_internal@absl@@U?$default_delete@VFlagState@flags_internal@absl@@@__Cr@std@@@12@@Z
    ??$?0VTimeZoneInfo@cctz@time_internal@absl@@$0A@@?$default_delete@VTimeZoneIf@cctz@time_internal@absl@@@__Cr@std@@QEAA@AEBU?$default_delete@VTimeZoneInfo@cctz@time_internal@absl@@@12@@Z
    ??$?0VTimeZoneInfo@cctz@time_internal@absl@@U?$default_delete@VTimeZoneInfo@cctz@time_internal@absl@@@__Cr@std@@XX@?$unique_ptr@VTimeZoneIf@cctz@time_internal@absl@@U?$default_delete@VTimeZoneIf@cctz@time_internal@absl@@@__Cr@std@@@__Cr@std@@QEAA@$$QEAV?$unique_ptr@VTimeZoneInfo@cctz@time_internal@absl@@U?$default_delete@VTimeZoneInfo@cctz@time_internal@absl@@@__Cr@std@@@12@@Z
    ??$?0VTimeZoneLibC@cctz@time_internal@absl@@$0A@@?$default_delete@VTimeZoneIf@cctz@time_internal@absl@@@__Cr@std@@QEAA@AEBU?$default_delete@VTimeZoneLibC@cctz@time_internal@absl@@@12@@Z
    ??$?0VTimeZoneLibC@cctz@time_internal@absl@@U?$default_delete@VTimeZoneLibC@cctz@time_internal@absl@@@__Cr@std@@XX@?$unique_ptr@VTimeZoneIf@cctz@time_internal@absl@@U?$default_delete@VTimeZoneIf@cctz@time_internal@absl@@@__Cr@std@@@__Cr@std@@QEAA@$$QEAV?$unique_ptr@VTimeZoneLibC@cctz@time_internal@absl@@U?$default_delete@VTimeZoneLibC@cctz@time_internal@absl@@@__Cr@std@@@12@@Z
    ??$?0Viterator@?$raw_hash_set@U?$FlatHashMapPolicy@HH@container_internal@absl@@U?$Hash@H@hash_internal@3@U?$equal_to@H@__Cr@std@@V?$allocator@U?$pair@$$CBHH@__Cr@std@@@78@@container_internal@absl@@_N$0A@@?$pair@Viterator@?$raw_hash_set@U?$FlatHashMapPolicy@HH@container_internal@absl@@U?$Hash@H@hash_internal@3@U?$equal_to@H@__Cr@std@@V?$allocator@U?$pair@$$CBHH@__Cr@std@@@78@@container_internal@absl@@_N@__Cr@std@@QEAA@$$QEAViterator@?$raw_hash_set@U?$FlatHashMapPolicy@HH@container_internal@absl@@U?$Hash@H@hash_internal@3@U?$equal_to@H@__Cr@std@@V?$allocator@U?$pair@$$CBHH@__Cr@std@@@78@@container_internal@absl@@$$QEA_N@Z
    ??$?0Viterator@?$raw_hash_set@U?$FlatHashMapPolicy@HV?$basic_string@DU?$char_traits@D@__Cr@std@@V?$allocator@D@23@@__Cr@std@@@container_internal@absl@@U?$Hash@H@hash_internal@3@U?$equal_to@H@__Cr@std@@V?$allocator@U?$pair@$$CBHV?$basic_string@DU?$char_traits@D@__Cr@std@@V?$allocator@D@23@@__Cr@std@@@__Cr@std@@@78@@container_internal@absl@@_N$0A@@?$pair@Viterator@?$raw_hash_set@U?$FlatHashMapPolicy@HV?$basic_string@DU?$char_traits@D@__Cr@std@@V?$allocator@D@23@@__Cr@std@@@container_internal@absl@@U?$Hash@H@hash_internal@3@U?$equal_to@H@__Cr@std@@V?$allocator@U?$pair@$$CBHV?$basic_string@DU?$char_traits@D@__Cr@std@@V?$allocator@D@23@@__Cr@std@@@__Cr@std@@@78@@container_internal@absl@@_N@__Cr@std@@QEAA@$$QEAViterator@?$raw_hash_set@U?$FlatHashMapPolicy@HV?$basic_string@DU?$char_traits@D@__Cr@std@@V?$allocator@D@23@@__Cr@std@@@container_internal@absl@@U?$Hash@H@hash_internal@3@U?$equal_to@H@__Cr@std@@V?$allocator@U?$pair@$$CBHV?$basic_string@DU?$char_traits@D@__Cr@std@@V?$allocator@D@23@@__Cr@std@@@__Cr@std@@@78@@container_internal@absl@@$$QEA_N@Z
    ??$?0Viterator@?$raw_hash_set@U?$FlatHashMapPolicy@II@container_internal@absl@@U?$Hash@I@hash_internal@3@U?$equal_to@I@__Cr@std@@V?$allocator@U?$pair@$$CBII@__Cr@std@@@78@@container_internal@absl@@_N$0A@@?$pair@Viterator@?$raw_hash_set@U?$FlatHashMapPolicy@II@container_internal@absl@@U?$Hash@I@hash_internal@3@U?$equal_to@I@__Cr@std@@V?$allocator@U?$pair@$$CBII@__Cr@std@@@78@@container_internal@absl@@_N@__Cr@std@@QEAA@$$QEAViterator@?$raw_hash_set@U?$FlatHashMapPolicy@II@container_internal@absl@@U?$Hash@I@hash_internal@3@U?$equal_to@I@__Cr@std@@V?$allocator@U?$pair@$$CBII@__Cr@std@@@78@@container_internal@absl@@$$QEA_N@Z
    ??$?0Viterator@?$raw_hash_set@U?$FlatHashMapPolicy@IV?$basic_string@DU?$char_traits@D@__Cr@std@@V?$allocator@D@23@@__Cr@std@@@container_internal@absl@@U?$Hash@I@hash_internal@3@U?$equal_to@I@__Cr@std@@V?$allocator@U?$pair@$$CBIV?$basic_string@DU?$char_traits@D@__Cr@std@@V?$allocator@D@23@@__Cr@std@@@__Cr@std@@@78@@container_internal@absl@@_N$0A@@?$pair@Viterator@?$raw_hash_set@U?$FlatHashMapPolicy@IV?$basic_string@DU?$char_traits@D@__Cr@std@@V?$allocator@D@23@@__Cr@std@@@container_internal@absl@@U?$Hash@I@hash_internal@3@U?$equal_to@I@__Cr@std@@V?$allocator@U?$pair@$$CBIV?$basic_string@DU?$char_traits@D@__Cr@std@@V?$allocator@D@23@@__Cr@std@@@__Cr@std@@@78@@container_internal@absl@@_N@__Cr@std@@QEAA@$$QEAViterator@?$raw_hash_set@U?$FlatHashMapPolicy@IV?$basic_string@DU?$char_traits@D@__Cr@std@@V?$allocator@D@23@@__Cr@std@@@container_internal@absl@@U?$Hash@I@hash_internal@3@U?$equal_to@I@__Cr@std@@V?$allocator@U?$pair@$$CBIV?$basic_string@DU?$char_traits@D@__Cr@std@@V?$allocator@D@23@@__Cr@std@@@__Cr@std@@@78@@container_internal@absl@@$$QEA_N@Z
    ??$?0Viterator@?$raw_hash_set@U?$FlatHashMapPolicy@V?$basic_string@DU?$char_traits@D@__Cr@std@@V?$allocator@D@23@@__Cr@std@@H@container_internal@absl@@UStringHash@23@UStringEq@23@V?$allocator@U?$pair@$$CBV?$basic_string@DU?$char_traits@D@__Cr@std@@V?$allocator@D@23@@__Cr@std@@H@__Cr@std@@@__Cr@std@@@container_internal@absl@@_N$0A@@?$pair@Viterator@?$raw_hash_set@U?$FlatHashMapPolicy@V?$basic_string@DU?$char_traits@D@__Cr@std@@V?$allocator@D@23@@__Cr@std@@H@container_internal@absl@@UStringHash@23@UStringEq@23@V?$allocator@U?$pair@$$CBV?$basic_string@DU?$char_traits@D@__Cr@std@@V?$allocator@D@23@@__Cr@std@@H@__Cr@std@@@__Cr@std@@@container_internal@absl@@_N@__Cr@std@@QEAA@$$QEAViterator@?$raw_hash_set@U?$FlatHashMapPolicy@V?$basic_string@DU?$char_traits@D@__Cr@std@@V?$allocator@D@23@@__Cr@std@@H@container_internal@absl@@UStringHash@23@UStringEq@23@V?$allocator@U?$pair@$$CBV?$basic_string@DU?$char_traits@D@__Cr@std@@V?$allocator@D@23@@__Cr@std@@H@__Cr@std@@@__Cr@std@@@container_internal@absl@@$$QEA_N@Z
    ??$?0Viterator@?$raw_hash_set@U?$FlatHashMapPolicy@V?$basic_string@DU?$char_traits@D@__Cr@std@@V?$allocator@D@23@@__Cr@std@@I@container_internal@absl@@UStringHash@23@UStringEq@23@V?$allocator@U?$pair@$$CBV?$basic_string@DU?$char_traits@D@__Cr@std@@V?$allocator@D@23@@__Cr@std@@I@__Cr@std@@@__Cr@std@@@container_internal@absl@@_N$0A@@?$pair@Viterator@?$raw_hash_set@U?$FlatHashMapPolicy@V?$basic_string@DU?$char_traits@D@__Cr@std@@V?$allocator@D@23@@__Cr@std@@I@container_internal@absl@@UStringHash@23@UStringEq@23@V?$allocator@U?$pair@$$CBV?$basic_string@DU?$char_traits@D@__Cr@std@@V?$allocator@D@23@@__Cr@std@@I@__Cr@std@@@__Cr@std@@@container_internal@absl@@_N@__Cr@std@@QEAA@$$QEAViterator@?$raw_hash_set@U?$FlatHashMapPolicy@V?$basic_string@DU?$char_traits@D@__Cr@std@@V?$allocator@D@23@@__Cr@std@@I@container_internal@absl@@UStringHash@23@UStringEq@23@V?$allocator@U?$pair@$$CBV?$basic_string@DU?$char_traits@D@__Cr@std@@V?$allocator@D@23@@__Cr@std@@I@__Cr@std@@@__Cr@std@@@container_internal@absl@@$$QEA_N@Z
    ??$?0Viterator@?$raw_hash_set@U?$FlatHashMapPolicy@V?$basic_string@DU?$char_traits@D@__Cr@std@@V?$allocator@D@23@@__Cr@std@@V123@@container_internal@absl@@UStringHash@23@UStringEq@23@V?$allocator@U?$pair@$$CBV?$basic_string@DU?$char_traits@D@__Cr@std@@V?$allocator@D@23@@__Cr@std@@V123@@__Cr@std@@@__Cr@std@@@container_internal@absl@@_N$0A@@?$pair@Viterator@?$raw_hash_set@U?$FlatHashMapPolicy@V?$basic_string@DU?$char_traits@D@__Cr@std@@V?$allocator@D@23@@__Cr@std@@V123@@container_internal@absl@@UStringHash@23@UStringEq@23@V?$allocator@U?$pair@$$CBV?$basic_string@DU?$char_traits@D@__Cr@std@@V?$allocator@D@23@@__Cr@std@@V123@@__Cr@std@@@__Cr@std@@@container_internal@absl@@_N@__Cr@std@@QEAA@$$QEAViterator@?$raw_hash_set@U?$FlatHashMapPolicy@V?$basic_string@DU?$char_traits@D@__Cr@std@@V?$allocator@D@23@@__Cr@std@@V123@@container_internal@absl@@UStringHash@23@UStringEq@23@V?$allocator@U?$pair@$$CBV?$basic_string@DU?$char_traits@D@__Cr@std@@V?$allocator@D@23@@__Cr@std@@V123@@__Cr@std@@@__Cr@std@@@container_internal@absl@@$$QEA_N@Z
    ??$?0Viterator@?$raw_hash_set@U?$FlatHashMapPolicy@V?$basic_string@DU?$char_traits@D@__Cr@std@@V?$allocator@D@23@@__Cr@std@@_J@container_internal@absl@@UStringHash@23@UStringEq@23@V?$allocator@U?$pair@$$CBV?$basic_string@DU?$char_traits@D@__Cr@std@@V?$allocator@D@23@@__Cr@std@@_J@__Cr@std@@@__Cr@std@@@container_internal@absl@@_N$0A@@?$pair@Viterator@?$raw_hash_set@U?$FlatHashMapPolicy@V?$basic_string@DU?$char_traits@D@__Cr@std@@V?$allocator@D@23@@__Cr@std@@_J@container_internal@absl@@UStringHash@23@UStringEq@23@V?$allocator@U?$pair@$$CBV?$basic_string@DU?$char_traits@D@__Cr@std@@V?$allocator@D@23@@__Cr@std@@_J@__Cr@std@@@__Cr@std@@@container_internal@absl@@_N@__Cr@std@@QEAA@$$QEAViterator@?$raw_hash_set@U?$FlatHashMapPolicy@V?$basic_string@DU?$char_traits@D@__Cr@std@@V?$allocator@D@23@@__Cr@std@@_J@container_internal@absl@@UStringHash@23@UStringEq@23@V?$allocator@U?$pair@$$CBV?$basic_string@DU?$char_traits@D@__Cr@std@@V?$allocator@D@23@@__Cr@std@@_J@__Cr@std@@@__Cr@std@@@container_internal@absl@@$$QEA_N@Z
    ??$?0Viterator@?$raw_hash_set@U?$FlatHashMapPolicy@V?$basic_string@DU?$char_traits@D@__Cr@std@@V?$allocator@D@23@@__Cr@std@@_K@container_internal@absl@@UStringHash@23@UStringEq@23@V?$allocator@U?$pair@$$CBV?$basic_string@DU?$char_traits@D@__Cr@std@@V?$allocator@D@23@@__Cr@std@@_K@__Cr@std@@@__Cr@std@@@container_internal@absl@@_N$0A@@?$pair@Viterator@?$raw_hash_set@U?$FlatHashMapPolicy@V?$basic_string@DU?$char_traits@D@__Cr@std@@V?$allocator@D@23@@__Cr@std@@_K@container_internal@absl@@UStringHash@23@UStringEq@23@V?$allocator@U?$pair@$$CBV?$basic_string@DU?$char_traits@D@__Cr@std@@V?$allocator@D@23@@__Cr@std@@_K@__Cr@std@@@__Cr@std@@@container_internal@absl@@_N@__Cr@std@@QEAA@$$QEAViterator@?$raw_hash_set@U?$FlatHashMapPolicy@V?$basic_string@DU?$char_traits@D@__Cr@std@@V?$allocator@D@23@@__Cr@std@@_K@container_internal@absl@@UStringHash@23@UStringEq@23@V?$allocator@U?$pair@$$CBV?$basic_string@DU?$char_traits@D@__Cr@std@@V?$allocator@D@23@@__Cr@std@@_K@__Cr@std@@@__Cr@std@@@container_internal@absl@@$$QEA_N@Z
    ??$?0Viterator@?$raw_hash_set@U?$FlatHashMapPolicy@V?$basic_string_view@DU?$char_traits@D@__Cr@std@@@__Cr@std@@PEAVCommandLineFlag@absl@@@container_internal@absl@@UStringHash@23@UStringEq@23@V?$allocator@U?$pair@$$CBV?$basic_string_view@DU?$char_traits@D@__Cr@std@@@__Cr@std@@PEAVCommandLineFlag@absl@@@__Cr@std@@@__Cr@std@@@container_internal@absl@@_N$0A@@?$pair@Viterator@?$raw_hash_set@U?$FlatHashMapPolicy@V?$basic_string_view@DU?$char_traits@D@__Cr@std@@@__Cr@std@@PEAVCommandLineFlag@absl@@@container_internal@absl@@UStringHash@23@UStringEq@23@V?$allocator@U?$pair@$$CBV?$basic_string_view@DU?$char_traits@D@__Cr@std@@@__Cr@std@@PEAVCommandLineFlag@absl@@@__Cr@std@@@__Cr@std@@@container_internal@absl@@_N@__Cr@std@@QEAA@$$QEAViterator@?$raw_hash_set@U?$FlatHashMapPolicy@V?$basic_string_view@DU?$char_traits@D@__Cr@std@@@__Cr@std@@PEAVCommandLineFlag@absl@@@container_internal@absl@@UStringHash@23@UStringEq@23@V?$allocator@U?$pair@$$CBV?$basic_string_view@DU?$char_traits@D@__Cr@std@@@__Cr@std@@PEAVCommandLineFlag@absl@@@__Cr@std@@@__Cr@std@@@container_internal@absl@@$$QEA_N@Z
    ??$?0Viterator@?$raw_hash_set@U?$FlatHashMapPolicy@_JV?$basic_string@DU?$char_traits@D@__Cr@std@@V?$allocator@D@23@@__Cr@std@@@container_internal@absl@@U?$Hash@_J@hash_internal@3@U?$equal_to@_J@__Cr@std@@V?$allocator@U?$pair@$$CB_JV?$basic_string@DU?$char_traits@D@__Cr@std@@V?$allocator@D@23@@__Cr@std@@@__Cr@std@@@78@@container_internal@absl@@_N$0A@@?$pair@Viterator@?$raw_hash_set@U?$FlatHashMapPolicy@_JV?$basic_string@DU?$char_traits@D@__Cr@std@@V?$allocator@D@23@@__Cr@std@@@container_internal@absl@@U?$Hash@_J@hash_internal@3@U?$equal_to@_J@__Cr@std@@V?$allocator@U?$pair@$$CB_JV?$basic_string@DU?$char_traits@D@__Cr@std@@V?$allocator@D@23@@__Cr@std@@@__Cr@std@@@78@@container_internal@absl@@_N@__Cr@std@@QEAA@$$QEAViterator@?$raw_hash_set@U?$FlatHashMapPolicy@_JV?$basic_string@DU?$char_traits@D@__Cr@std@@V?$allocator@D@23@@__Cr@std@@@container_internal@absl@@U?$Hash@_J@hash_internal@3@U?$equal_to@_J@__Cr@std@@V?$allocator@U?$pair@$$CB_JV?$basic_string@DU?$char_traits@D@__Cr@std@@V?$allocator@D@23@@__Cr@std@@@__Cr@std@@@78@@container_internal@absl@@$$QEA_N@Z
    ??$?0Viterator@?$raw_hash_set@U?$FlatHashMapPolicy@_J_J@container_internal@absl@@U?$Hash@_J@hash_internal@3@U?$equal_to@_J@__Cr@std@@V?$allocator@U?$pair@$$CB_J_J@__Cr@std@@@78@@container_internal@absl@@_N$0A@@?$pair@Viterator@?$raw_hash_set@U?$FlatHashMapPolicy@_J_J@container_internal@absl@@U?$Hash@_J@hash_internal@3@U?$equal_to@_J@__Cr@std@@V?$allocator@U?$pair@$$CB_J_J@__Cr@std@@@78@@container_internal@absl@@_N@__Cr@std@@QEAA@$$QEAViterator@?$raw_hash_set@U?$FlatHashMapPolicy@_J_J@container_internal@absl@@U?$Hash@_J@hash_internal@3@U?$equal_to@_J@__Cr@std@@V?$allocator@U?$pair@$$CB_J_J@__Cr@std@@@78@@container_internal@absl@@$$QEA_N@Z
    ??$?0Viterator@?$raw_hash_set@U?$FlatHashMapPolicy@_KV?$basic_string@DU?$char_traits@D@__Cr@std@@V?$allocator@D@23@@__Cr@std@@@container_internal@absl@@U?$Hash@_K@hash_internal@3@U?$equal_to@_K@__Cr@std@@V?$allocator@U?$pair@$$CB_KV?$basic_string@DU?$char_traits@D@__Cr@std@@V?$allocator@D@23@@__Cr@std@@@__Cr@std@@@78@@container_internal@absl@@_N$0A@@?$pair@Viterator@?$raw_hash_set@U?$FlatHashMapPolicy@_KV?$basic_string@DU?$char_traits@D@__Cr@std@@V?$allocator@D@23@@__Cr@std@@@container_internal@absl@@U?$Hash@_K@hash_internal@3@U?$equal_to@_K@__Cr@std@@V?$allocator@U?$pair@$$CB_KV?$basic_string@DU?$char_traits@D@__Cr@std@@V?$allocator@D@23@@__Cr@std@@@__Cr@std@@@78@@container_internal@absl@@_N@__Cr@std@@QEAA@$$QEAViterator@?$raw_hash_set@U?$FlatHashMapPolicy@_KV?$basic_string@DU?$char_traits@D@__Cr@std@@V?$allocator@D@23@@__Cr@std@@@container_internal@absl@@U?$Hash@_K@hash_internal@3@U?$equal_to@_K@__Cr@std@@V?$allocator@U?$pair@$$CB_KV?$basic_string@DU?$char_traits@D@__Cr@std@@V?$allocator@D@23@@__Cr@std@@@__Cr@std@@@78@@container_internal@absl@@$$QEA_N@Z
    ??$?0Viterator@?$raw_hash_set@U?$FlatHashMapPolicy@_K_K@container_internal@absl@@U?$Hash@_K@hash_internal@3@U?$equal_to@_K@__Cr@std@@V?$allocator@U?$pair@$$CB_K_K@__Cr@std@@@78@@container_internal@absl@@_N$0A@@?$pair@Viterator@?$raw_hash_set@U?$FlatHashMapPolicy@_K_K@container_internal@absl@@U?$Hash@_K@hash_internal@3@U?$equal_to@_K@__Cr@std@@V?$allocator@U?$pair@$$CB_K_K@__Cr@std@@@78@@container_internal@absl@@_N@__Cr@std@@QEAA@$$QEAViterator@?$raw_hash_set@U?$FlatHashMapPolicy@_K_K@container_internal@absl@@U?$Hash@_K@hash_internal@3@U?$equal_to@_K@__Cr@std@@V?$allocator@U?$pair@$$CB_K_K@__Cr@std@@@78@@container_internal@absl@@$$QEA_N@Z
    ??$?0Viterator@?$raw_hash_set@U?$FlatHashSetPolicy@C@container_internal@absl@@U?$Hash@C@hash_internal@3@U?$equal_to@C@__Cr@std@@V?$allocator@C@78@@container_internal@absl@@_N$0A@@?$pair@Viterator@?$raw_hash_set@U?$FlatHashSetPolicy@C@container_internal@absl@@U?$Hash@C@hash_internal@3@U?$equal_to@C@__Cr@std@@V?$allocator@C@78@@container_internal@absl@@_N@__Cr@std@@QEAA@$$QEAViterator@?$raw_hash_set@U?$FlatHashSetPolicy@C@container_internal@absl@@U?$Hash@C@hash_internal@3@U?$equal_to@C@__Cr@std@@V?$allocator@C@78@@container_internal@absl@@$$QEA_N@Z
    ??$?0Viterator@?$raw_hash_set@U?$FlatHashSetPolicy@E@container_internal@absl@@U?$Hash@E@hash_internal@3@U?$equal_to@E@__Cr@std@@V?$allocator@E@78@@container_internal@absl@@_N$0A@@?$pair@Viterator@?$raw_hash_set@U?$FlatHashSetPolicy@E@container_internal@absl@@U?$Hash@E@hash_internal@3@U?$equal_to@E@__Cr@std@@V?$allocator@E@78@@container_internal@absl@@_N@__Cr@std@@QEAA@$$QEAViterator@?$raw_hash_set@U?$FlatHashSetPolicy@E@container_internal@absl@@U?$Hash@E@hash_internal@3@U?$equal_to@E@__Cr@std@@V?$allocator@E@78@@container_internal@absl@@$$QEA_N@Z
    ??$?0Viterator@?$raw_hash_set@U?$FlatHashSetPolicy@F@container_internal@absl@@U?$Hash@F@hash_internal@3@U?$equal_to@F@__Cr@std@@V?$allocator@F@78@@container_internal@absl@@_N$0A@@?$pair@Viterator@?$raw_hash_set@U?$FlatHashSetPolicy@F@container_internal@absl@@U?$Hash@F@hash_internal@3@U?$equal_to@F@__Cr@std@@V?$allocator@F@78@@container_internal@absl@@_N@__Cr@std@@QEAA@$$QEAViterator@?$raw_hash_set@U?$FlatHashSetPolicy@F@container_internal@absl@@U?$Hash@F@hash_internal@3@U?$equal_to@F@__Cr@std@@V?$allocator@F@78@@container_internal@absl@@$$QEA_N@Z
    ??$?0Viterator@?$raw_hash_set@U?$FlatHashSetPolicy@G@container_internal@absl@@U?$Hash@G@hash_internal@3@U?$equal_to@G@__Cr@std@@V?$allocator@G@78@@container_internal@absl@@_N$0A@@?$pair@Viterator@?$raw_hash_set@U?$FlatHashSetPolicy@G@container_internal@absl@@U?$Hash@G@hash_internal@3@U?$equal_to@G@__Cr@std@@V?$allocator@G@78@@container_internal@absl@@_N@__Cr@std@@QEAA@$$QEAViterator@?$raw_hash_set@U?$FlatHashSetPolicy@G@container_internal@absl@@U?$Hash@G@hash_internal@3@U?$equal_to@G@__Cr@std@@V?$allocator@G@78@@container_internal@absl@@$$QEA_N@Z
    ??$?0Viterator@?$raw_hash_set@U?$FlatHashSetPolicy@H@container_internal@absl@@U?$Hash@H@hash_internal@3@U?$equal_to@H@__Cr@std@@V?$allocator@H@78@@container_internal@absl@@_N$0A@@?$pair@Viterator@?$raw_hash_set@U?$FlatHashSetPolicy@H@container_internal@absl@@U?$Hash@H@hash_internal@3@U?$equal_to@H@__Cr@std@@V?$allocator@H@78@@container_internal@absl@@_N@__Cr@std@@QEAA@$$QEAViterator@?$raw_hash_set@U?$FlatHashSetPolicy@H@container_internal@absl@@U?$Hash@H@hash_internal@3@U?$equal_to@H@__Cr@std@@V?$allocator@H@78@@container_internal@absl@@$$QEA_N@Z
    ??$?0Viterator@?$raw_hash_set@U?$FlatHashSetPolicy@I@container_internal@absl@@U?$Hash@I@hash_internal@3@U?$equal_to@I@__Cr@std@@V?$allocator@I@78@@container_internal@absl@@_N$0A@@?$pair@Viterator@?$raw_hash_set@U?$FlatHashSetPolicy@I@container_internal@absl@@U?$Hash@I@hash_internal@3@U?$equal_to@I@__Cr@std@@V?$allocator@I@78@@container_internal@absl@@_N@__Cr@std@@QEAA@$$QEAViterator@?$raw_hash_set@U?$FlatHashSetPolicy@I@container_internal@absl@@U?$Hash@I@hash_internal@3@U?$equal_to@I@__Cr@std@@V?$allocator@I@78@@container_internal@absl@@$$QEA_N@Z
    ??$?0Viterator@?$raw_hash_set@U?$FlatHashSetPolicy@V?$basic_string@DU?$char_traits@D@__Cr@std@@V?$allocator@D@23@@__Cr@std@@@container_internal@absl@@UStringHash@23@UStringEq@23@V?$allocator@V?$basic_string@DU?$char_traits@D@__Cr@std@@V?$allocator@D@23@@__Cr@std@@@__Cr@std@@@container_internal@absl@@_N$0A@@?$pair@Viterator@?$raw_hash_set@U?$FlatHashSetPolicy@V?$basic_string@DU?$char_traits@D@__Cr@std@@V?$allocator@D@23@@__Cr@std@@@container_internal@absl@@UStringHash@23@UStringEq@23@V?$allocator@V?$basic_string@DU?$char_traits@D@__Cr@std@@V?$allocator@D@23@@__Cr@std@@@__Cr@std@@@container_internal@absl@@_N@__Cr@std@@QEAA@$$QEAViterator@?$raw_hash_set@U?$FlatHashSetPolicy@V?$basic_string@DU?$char_traits@D@__Cr@std@@V?$allocator@D@23@@__Cr@std@@@container_internal@absl@@UStringHash@23@UStringEq@23@V?$allocator@V?$basic_string@DU?$char_traits@D@__Cr@std@@V?$allocator@D@23@@__Cr@std@@@__Cr@std@@@container_internal@absl@@$$QEA_N@Z
    ??$?0Viterator@?$raw_hash_set@U?$FlatHashSetPolicy@_J@container_internal@absl@@U?$Hash@_J@hash_internal@3@U?$equal_to@_J@__Cr@std@@V?$allocator@_J@78@@container_internal@absl@@_N$0A@@?$pair@Viterator@?$raw_hash_set@U?$FlatHashSetPolicy@_J@container_internal@absl@@U?$Hash@_J@hash_internal@3@U?$equal_to@_J@__Cr@std@@V?$allocator@_J@78@@container_internal@absl@@_N@__Cr@std@@QEAA@$$QEAViterator@?$raw_hash_set@U?$FlatHashSetPolicy@_J@container_internal@absl@@U?$Hash@_J@hash_internal@3@U?$equal_to@_J@__Cr@std@@V?$allocator@_J@78@@container_internal@absl@@$$QEA_N@Z
    ??$?0Viterator@?$raw_hash_set@U?$FlatHashSetPolicy@_K@container_internal@absl@@U?$Hash@_K@hash_internal@3@U?$equal_to@_K@__Cr@std@@V?$allocator@_K@78@@container_internal@absl@@_N$0A@@?$pair@Viterator@?$raw_hash_set@U?$FlatHashSetPolicy@_K@container_internal@absl@@U?$Hash@_K@hash_internal@3@U?$equal_to@_K@__Cr@std@@V?$allocator@_K@78@@container_internal@absl@@_N@__Cr@std@@QEAA@$$QEAViterator@?$raw_hash_set@U?$FlatHashSetPolicy@_K@container_internal@absl@@U?$Hash@_K@hash_internal@3@U?$equal_to@_K@__Cr@std@@V?$allocator@_K@78@@container_internal@absl@@$$QEA_N@Z
    ??$?0Viterator@?$raw_hash_set@U?$NodeHashSetPolicy@C@container_internal@absl@@U?$Hash@C@hash_internal@3@U?$equal_to@C@__Cr@std@@V?$allocator@C@78@@container_internal@absl@@_N$0A@@?$pair@Viterator@?$raw_hash_set@U?$NodeHashSetPolicy@C@container_internal@absl@@U?$Hash@C@hash_internal@3@U?$equal_to@C@__Cr@std@@V?$allocator@C@78@@container_internal@absl@@_N@__Cr@std@@QEAA@$$QEAViterator@?$raw_hash_set@U?$NodeHashSetPolicy@C@container_internal@absl@@U?$Hash@C@hash_internal@3@U?$equal_to@C@__Cr@std@@V?$allocator@C@78@@container_internal@absl@@$$QEA_N@Z
    ??$?0Viterator@?$raw_hash_set@U?$NodeHashSetPolicy@E@container_internal@absl@@U?$Hash@E@hash_internal@3@U?$equal_to@E@__Cr@std@@V?$allocator@E@78@@container_internal@absl@@_N$0A@@?$pair@Viterator@?$raw_hash_set@U?$NodeHashSetPolicy@E@container_internal@absl@@U?$Hash@E@hash_internal@3@U?$equal_to@E@__Cr@std@@V?$allocator@E@78@@container_internal@absl@@_N@__Cr@std@@QEAA@$$QEAViterator@?$raw_hash_set@U?$NodeHashSetPolicy@E@container_internal@absl@@U?$Hash@E@hash_internal@3@U?$equal_to@E@__Cr@std@@V?$allocator@E@78@@container_internal@absl@@$$QEA_N@Z
    ??$?0Viterator@?$raw_hash_set@U?$NodeHashSetPolicy@F@container_internal@absl@@U?$Hash@F@hash_internal@3@U?$equal_to@F@__Cr@std@@V?$allocator@F@78@@container_internal@absl@@_N$0A@@?$pair@Viterator@?$raw_hash_set@U?$NodeHashSetPolicy@F@container_internal@absl@@U?$Hash@F@hash_internal@3@U?$equal_to@F@__Cr@std@@V?$allocator@F@78@@container_internal@absl@@_N@__Cr@std@@QEAA@$$QEAViterator@?$raw_hash_set@U?$NodeHashSetPolicy@F@container_internal@absl@@U?$Hash@F@hash_internal@3@U?$equal_to@F@__Cr@std@@V?$allocator@F@78@@container_internal@absl@@$$QEA_N@Z
    ??$?0Viterator@?$raw_hash_set@U?$NodeHashSetPolicy@G@container_internal@absl@@U?$Hash@G@hash_internal@3@U?$equal_to@G@__Cr@std@@V?$allocator@G@78@@container_internal@absl@@_N$0A@@?$pair@Viterator@?$raw_hash_set@U?$NodeHashSetPolicy@G@container_internal@absl@@U?$Hash@G@hash_internal@3@U?$equal_to@G@__Cr@std@@V?$allocator@G@78@@container_internal@absl@@_N@__Cr@std@@QEAA@$$QEAViterator@?$raw_hash_set@U?$NodeHashSetPolicy@G@container_internal@absl@@U?$Hash@G@hash_internal@3@U?$equal_to@G@__Cr@std@@V?$allocator@G@78@@container_internal@absl@@$$QEA_N@Z
    ??$?0Viterator@?$raw_hash_set@U?$NodeHashSetPolicy@H@container_internal@absl@@U?$Hash@H@hash_internal@3@U?$equal_to@H@__Cr@std@@V?$allocator@H@78@@container_internal@absl@@_N$0A@@?$pair@Viterator@?$raw_hash_set@U?$NodeHashSetPolicy@H@container_internal@absl@@U?$Hash@H@hash_internal@3@U?$equal_to@H@__Cr@std@@V?$allocator@H@78@@container_internal@absl@@_N@__Cr@std@@QEAA@$$QEAViterator@?$raw_hash_set@U?$NodeHashSetPolicy@H@container_internal@absl@@U?$Hash@H@hash_internal@3@U?$equal_to@H@__Cr@std@@V?$allocator@H@78@@container_internal@absl@@$$QEA_N@Z
    ??$?0Viterator@?$raw_hash_set@U?$NodeHashSetPolicy@I@container_internal@absl@@U?$Hash@I@hash_internal@3@U?$equal_to@I@__Cr@std@@V?$allocator@I@78@@container_internal@absl@@_N$0A@@?$pair@Viterator@?$raw_hash_set@U?$NodeHashSetPolicy@I@container_internal@absl@@U?$Hash@I@hash_internal@3@U?$equal_to@I@__Cr@std@@V?$allocator@I@78@@container_internal@absl@@_N@__Cr@std@@QEAA@$$QEAViterator@?$raw_hash_set@U?$NodeHashSetPolicy@I@container_internal@absl@@U?$Hash@I@hash_internal@3@U?$equal_to@I@__Cr@std@@V?$allocator@I@78@@container_internal@absl@@$$QEA_N@Z
    ??$?0Viterator@?$raw_hash_set@U?$NodeHashSetPolicy@V?$basic_string@DU?$char_traits@D@__Cr@std@@V?$allocator@D@23@@__Cr@std@@@container_internal@absl@@UStringHash@23@UStringEq@23@V?$allocator@V?$basic_string@DU?$char_traits@D@__Cr@std@@V?$allocator@D@23@@__Cr@std@@@__Cr@std@@@container_internal@absl@@_N$0A@@?$pair@Viterator@?$raw_hash_set@U?$NodeHashSetPolicy@V?$basic_string@DU?$char_traits@D@__Cr@std@@V?$allocator@D@23@@__Cr@std@@@container_internal@absl@@UStringHash@23@UStringEq@23@V?$allocator@V?$basic_string@DU?$char_traits@D@__Cr@std@@V?$allocator@D@23@@__Cr@std@@@__Cr@std@@@container_internal@absl@@_N@__Cr@std@@QEAA@$$QEAViterator@?$raw_hash_set@U?$NodeHashSetPolicy@V?$basic_string@DU?$char_traits@D@__Cr@std@@V?$allocator@D@23@@__Cr@std@@@container_internal@absl@@UStringHash@23@UStringEq@23@V?$allocator@V?$basic_string@DU?$char_traits@D@__Cr@std@@V?$allocator@D@23@@__Cr@std@@@__Cr@std@@@container_internal@absl@@$$QEA_N@Z
    ??$?0Viterator@?$raw_hash_set@U?$NodeHashSetPolicy@_J@container_internal@absl@@U?$Hash@_J@hash_internal@3@U?$equal_to@_J@__Cr@std@@V?$allocator@_J@78@@container_internal@absl@@_N$0A@@?$pair@Viterator@?$raw_hash_set@U?$NodeHashSetPolicy@_J@container_internal@absl@@U?$Hash@_J@hash_internal@3@U?$equal_to@_J@__Cr@std@@V?$allocator@_J@78@@container_internal@absl@@_N@__Cr@std@@QEAA@$$QEAViterator@?$raw_hash_set@U?$NodeHashSetPolicy@_J@container_internal@absl@@U?$Hash@_J@hash_internal@3@U?$equal_to@_J@__Cr@std@@V?$allocator@_J@78@@container_internal@absl@@$$QEA_N@Z
    ??$?0Viterator@?$raw_hash_set@U?$NodeHashSetPolicy@_K@container_internal@absl@@U?$Hash@_K@hash_internal@3@U?$equal_to@_K@__Cr@std@@V?$allocator@_K@78@@container_internal@absl@@_N$0A@@?$pair@Viterator@?$raw_hash_set@U?$NodeHashSetPolicy@_K@container_internal@absl@@U?$Hash@_K@hash_internal@3@U?$equal_to@_K@__Cr@std@@V?$allocator@_K@78@@container_internal@absl@@_N@__Cr@std@@QEAA@$$QEAViterator@?$raw_hash_set@U?$NodeHashSetPolicy@_K@container_internal@absl@@U?$Hash@_K@hash_internal@3@U?$equal_to@_K@__Cr@std@@V?$allocator@_K@78@@container_internal@absl@@$$QEA_N@Z
    ??$?0Viterator@?$raw_hash_set@V?$NodeHashMapPolicy@HH@container_internal@absl@@U?$Hash@H@hash_internal@3@U?$equal_to@H@__Cr@std@@V?$allocator@U?$pair@$$CBHH@__Cr@std@@@78@@container_internal@absl@@_N$0A@@?$pair@Viterator@?$raw_hash_set@V?$NodeHashMapPolicy@HH@container_internal@absl@@U?$Hash@H@hash_internal@3@U?$equal_to@H@__Cr@std@@V?$allocator@U?$pair@$$CBHH@__Cr@std@@@78@@container_internal@absl@@_N@__Cr@std@@QEAA@$$QEAViterator@?$raw_hash_set@V?$NodeHashMapPolicy@HH@container_internal@absl@@U?$Hash@H@hash_internal@3@U?$equal_to@H@__Cr@std@@V?$allocator@U?$pair@$$CBHH@__Cr@std@@@78@@container_internal@absl@@$$QEA_N@Z
    ??$?0Viterator@?$raw_hash_set@V?$NodeHashMapPolicy@HV?$basic_string@DU?$char_traits@D@__Cr@std@@V?$allocator@D@23@@__Cr@std@@@container_internal@absl@@U?$Hash@H@hash_internal@3@U?$equal_to@H@__Cr@std@@V?$allocator@U?$pair@$$CBHV?$basic_string@DU?$char_traits@D@__Cr@std@@V?$allocator@D@23@@__Cr@std@@@__Cr@std@@@78@@container_internal@absl@@_N$0A@@?$pair@Viterator@?$raw_hash_set@V?$NodeHashMapPolicy@HV?$basic_string@DU?$char_traits@D@__Cr@std@@V?$allocator@D@23@@__Cr@std@@@container_internal@absl@@U?$Hash@H@hash_internal@3@U?$equal_to@H@__Cr@std@@V?$allocator@U?$pair@$$CBHV?$basic_string@DU?$char_traits@D@__Cr@std@@V?$allocator@D@23@@__Cr@std@@@__Cr@std@@@78@@container_internal@absl@@_N@__Cr@std@@QEAA@$$QEAViterator@?$raw_hash_set@V?$NodeHashMapPolicy@HV?$basic_string@DU?$char_traits@D@__Cr@std@@V?$allocator@D@23@@__Cr@std@@@container_internal@absl@@U?$Hash@H@hash_internal@3@U?$equal_to@H@__Cr@std@@V?$allocator@U?$pair@$$CBHV?$basic_string@DU?$char_traits@D@__Cr@std@@V?$allocator@D@23@@__Cr@std@@@__Cr@std@@@78@@container_internal@absl@@$$QEA_N@Z
    ??$?0Viterator@?$raw_hash_set@V?$NodeHashMapPolicy@II@container_internal@absl@@U?$Hash@I@hash_internal@3@U?$equal_to@I@__Cr@std@@V?$allocator@U?$pair@$$CBII@__Cr@std@@@78@@container_internal@absl@@_N$0A@@?$pair@Viterator@?$raw_hash_set@V?$NodeHashMapPolicy@II@container_internal@absl@@U?$Hash@I@hash_internal@3@U?$equal_to@I@__Cr@std@@V?$allocator@U?$pair@$$CBII@__Cr@std@@@78@@container_internal@absl@@_N@__Cr@std@@QEAA@$$QEAViterator@?$raw_hash_set@V?$NodeHashMapPolicy@II@container_internal@absl@@U?$Hash@I@hash_internal@3@U?$equal_to@I@__Cr@std@@V?$allocator@U?$pair@$$CBII@__Cr@std@@@78@@container_internal@absl@@$$QEA_N@Z
    ??$?0Viterator@?$raw_hash_set@V?$NodeHashMapPolicy@IV?$basic_string@DU?$char_traits@D@__Cr@std@@V?$allocator@D@23@@__Cr@std@@@container_internal@absl@@U?$Hash@I@hash_internal@3@U?$equal_to@I@__Cr@std@@V?$allocator@U?$pair@$$CBIV?$basic_string@DU?$char_traits@D@__Cr@std@@V?$allocator@D@23@@__Cr@std@@@__Cr@std@@@78@@container_internal@absl@@_N$0A@@?$pair@Viterator@?$raw_hash_set@V?$NodeHashMapPolicy@IV?$basic_string@DU?$char_traits@D@__Cr@std@@V?$allocator@D@23@@__Cr@std@@@container_internal@absl@@U?$Hash@I@hash_internal@3@U?$equal_to@I@__Cr@std@@V?$allocator@U?$pair@$$CBIV?$basic_string@DU?$char_traits@D@__Cr@std@@V?$allocator@D@23@@__Cr@std@@@__Cr@std@@@78@@container_internal@absl@@_N@__Cr@std@@QEAA@$$QEAViterator@?$raw_hash_set@V?$NodeHashMapPolicy@IV?$basic_string@DU?$char_traits@D@__Cr@std@@V?$allocator@D@23@@__Cr@std@@@container_internal@absl@@U?$Hash@I@hash_internal@3@U?$equal_to@I@__Cr@std@@V?$allocator@U?$pair@$$CBIV?$basic_string@DU?$char_traits@D@__Cr@std@@V?$allocator@D@23@@__Cr@std@@@__Cr@std@@@78@@container_internal@absl@@$$QEA_N@Z
    ??$?0Viterator@?$raw_hash_set@V?$NodeHashMapPolicy@V?$basic_string@DU?$char_traits@D@__Cr@std@@V?$allocator@D@23@@__Cr@std@@H@container_internal@absl@@UStringHash@23@UStringEq@23@V?$allocator@U?$pair@$$CBV?$basic_string@DU?$char_traits@D@__Cr@std@@V?$allocator@D@23@@__Cr@std@@H@__Cr@std@@@__Cr@std@@@container_internal@absl@@_N$0A@@?$pair@Viterator@?$raw_hash_set@V?$NodeHashMapPolicy@V?$basic_string@DU?$char_traits@D@__Cr@std@@V?$allocator@D@23@@__Cr@std@@H@container_internal@absl@@UStringHash@23@UStringEq@23@V?$allocator@U?$pair@$$CBV?$basic_string@DU?$char_traits@D@__Cr@std@@V?$allocator@D@23@@__Cr@std@@H@__Cr@std@@@__Cr@std@@@container_internal@absl@@_N@__Cr@std@@QEAA@$$QEAViterator@?$raw_hash_set@V?$NodeHashMapPolicy@V?$basic_string@DU?$char_traits@D@__Cr@std@@V?$allocator@D@23@@__Cr@std@@H@container_internal@absl@@UStringHash@23@UStringEq@23@V?$allocator@U?$pair@$$CBV?$basic_string@DU?$char_traits@D@__Cr@std@@V?$allocator@D@23@@__Cr@std@@H@__Cr@std@@@__Cr@std@@@container_internal@absl@@$$QEA_N@Z
    ??$?0Viterator@?$raw_hash_set@V?$NodeHashMapPolicy@V?$basic_string@DU?$char_traits@D@__Cr@std@@V?$allocator@D@23@@__Cr@std@@I@container_internal@absl@@UStringHash@23@UStringEq@23@V?$allocator@U?$pair@$$CBV?$basic_string@DU?$char_traits@D@__Cr@std@@V?$allocator@D@23@@__Cr@std@@I@__Cr@std@@@__Cr@std@@@container_internal@absl@@_N$0A@@?$pair@Viterator@?$raw_hash_set@V?$NodeHashMapPolicy@V?$basic_string@DU?$char_traits@D@__Cr@std@@V?$allocator@D@23@@__Cr@std@@I@container_internal@absl@@UStringHash@23@UStringEq@23@V?$allocator@U?$pair@$$CBV?$basic_string@DU?$char_traits@D@__Cr@std@@V?$allocator@D@23@@__Cr@std@@I@__Cr@std@@@__Cr@std@@@container_internal@absl@@_N@__Cr@std@@QEAA@$$QEAViterator@?$raw_hash_set@V?$NodeHashMapPolicy@V?$basic_string@DU?$char_traits@D@__Cr@std@@V?$allocator@D@23@@__Cr@std@@I@container_internal@absl@@UStringHash@23@UStringEq@23@V?$allocator@U?$pair@$$CBV?$basic_string@DU?$char_traits@D@__Cr@std@@V?$allocator@D@23@@__Cr@std@@I@__Cr@std@@@__Cr@std@@@container_internal@absl@@$$QEA_N@Z
    ??$?0Viterator@?$raw_hash_set@V?$NodeHashMapPolicy@V?$basic_string@DU?$char_traits@D@__Cr@std@@V?$allocator@D@23@@__Cr@std@@V123@@container_internal@absl@@UStringHash@23@UStringEq@23@V?$allocator@U?$pair@$$CBV?$basic_string@DU?$char_traits@D@__Cr@std@@V?$allocator@D@23@@__Cr@std@@V123@@__Cr@std@@@__Cr@std@@@container_internal@absl@@_N$0A@@?$pair@Viterator@?$raw_hash_set@V?$NodeHashMapPolicy@V?$basic_string@DU?$char_traits@D@__Cr@std@@V?$allocator@D@23@@__Cr@std@@V123@@container_internal@absl@@UStringHash@23@UStringEq@23@V?$allocator@U?$pair@$$CBV?$basic_string@DU?$char_traits@D@__Cr@std@@V?$allocator@D@23@@__Cr@std@@V123@@__Cr@std@@@__Cr@std@@@container_internal@absl@@_N@__Cr@std@@QEAA@$$QEAViterator@?$raw_hash_set@V?$NodeHashMapPolicy@V?$basic_string@DU?$char_traits@D@__Cr@std@@V?$allocator@D@23@@__Cr@std@@V123@@container_internal@absl@@UStringHash@23@UStringEq@23@V?$allocator@U?$pair@$$CBV?$basic_string@DU?$char_traits@D@__Cr@std@@V?$allocator@D@23@@__Cr@std@@V123@@__Cr@std@@@__Cr@std@@@container_internal@absl@@$$QEA_N@Z
    ??$?0Viterator@?$raw_hash_set@V?$NodeHashMapPolicy@V?$basic_string@DU?$char_traits@D@__Cr@std@@V?$allocator@D@23@@__Cr@std@@_J@container_internal@absl@@UStringHash@23@UStringEq@23@V?$allocator@U?$pair@$$CBV?$basic_string@DU?$char_traits@D@__Cr@std@@V?$allocator@D@23@@__Cr@std@@_J@__Cr@std@@@__Cr@std@@@container_internal@absl@@_N$0A@@?$pair@Viterator@?$raw_hash_set@V?$NodeHashMapPolicy@V?$basic_string@DU?$char_traits@D@__Cr@std@@V?$allocator@D@23@@__Cr@std@@_J@container_internal@absl@@UStringHash@23@UStringEq@23@V?$allocator@U?$pair@$$CBV?$basic_string@DU?$char_traits@D@__Cr@std@@V?$allocator@D@23@@__Cr@std@@_J@__Cr@std@@@__Cr@std@@@container_internal@absl@@_N@__Cr@std@@QEAA@$$QEAViterator@?$raw_hash_set@V?$NodeHashMapPolicy@V?$basic_string@DU?$char_traits@D@__Cr@std@@V?$allocator@D@23@@__Cr@std@@_J@container_internal@absl@@UStringHash@23@UStringEq@23@V?$allocator@U?$pair@$$CBV?$basic_string@DU?$char_traits@D@__Cr@std@@V?$allocator@D@23@@__Cr@std@@_J@__Cr@std@@@__Cr@std@@@container_internal@absl@@$$QEA_N@Z
    ??$?0Viterator@?$raw_hash_set@V?$NodeHashMapPolicy@V?$basic_string@DU?$char_traits@D@__Cr@std@@V?$allocator@D@23@@__Cr@std@@_K@container_internal@absl@@UStringHash@23@UStringEq@23@V?$allocator@U?$pair@$$CBV?$basic_string@DU?$char_traits@D@__Cr@std@@V?$allocator@D@23@@__Cr@std@@_K@__Cr@std@@@__Cr@std@@@container_internal@absl@@_N$0A@@?$pair@Viterator@?$raw_hash_set@V?$NodeHashMapPolicy@V?$basic_string@DU?$char_traits@D@__Cr@std@@V?$allocator@D@23@@__Cr@std@@_K@container_internal@absl@@UStringHash@23@UStringEq@23@V?$allocator@U?$pair@$$CBV?$basic_string@DU?$char_traits@D@__Cr@std@@V?$allocator@D@23@@__Cr@std@@_K@__Cr@std@@@__Cr@std@@@container_internal@absl@@_N@__Cr@std@@QEAA@$$QEAViterator@?$raw_hash_set@V?$NodeHashMapPolicy@V?$basic_string@DU?$char_traits@D@__Cr@std@@V?$allocator@D@23@@__Cr@std@@_K@container_internal@absl@@UStringHash@23@UStringEq@23@V?$allocator@U?$pair@$$CBV?$basic_string@DU?$char_traits@D@__Cr@std@@V?$allocator@D@23@@__Cr@std@@_K@__Cr@std@@@__Cr@std@@@container_internal@absl@@$$QEA_N@Z
    ??$?0Viterator@?$raw_hash_set@V?$NodeHashMapPolicy@_JV?$basic_string@DU?$char_traits@D@__Cr@std@@V?$allocator@D@23@@__Cr@std@@@container_internal@absl@@U?$Hash@_J@hash_internal@3@U?$equal_to@_J@__Cr@std@@V?$allocator@U?$pair@$$CB_JV?$basic_string@DU?$char_traits@D@__Cr@std@@V?$allocator@D@23@@__Cr@std@@@__Cr@std@@@78@@container_internal@absl@@_N$0A@@?$pair@Viterator@?$raw_hash_set@V?$NodeHashMapPolicy@_JV?$basic_string@DU?$char_traits@D@__Cr@std@@V?$allocator@D@23@@__Cr@std@@@container_internal@absl@@U?$Hash@_J@hash_internal@3@U?$equal_to@_J@__Cr@std@@V?$allocator@U?$pair@$$CB_JV?$basic_string@DU?$char_traits@D@__Cr@std@@V?$allocator@D@23@@__Cr@std@@@__Cr@std@@@78@@container_internal@absl@@_N@__Cr@std@@QEAA@$$QEAViterator@?$raw_hash_set@V?$NodeHashMapPolicy@_JV?$basic_string@DU?$char_traits@D@__Cr@std@@V?$allocator@D@23@@__Cr@std@@@container_internal@absl@@U?$Hash@_J@hash_internal@3@U?$equal_to@_J@__Cr@std@@V?$allocator@U?$pair@$$CB_JV?$basic_string@DU?$char_traits@D@__Cr@std@@V?$allocator@D@23@@__Cr@std@@@__Cr@std@@@78@@container_internal@absl@@$$QEA_N@Z
    ??$?0Viterator@?$raw_hash_set@V?$NodeHashMapPolicy@_J_J@container_internal@absl@@U?$Hash@_J@hash_internal@3@U?$equal_to@_J@__Cr@std@@V?$allocator@U?$pair@$$CB_J_J@__Cr@std@@@78@@container_internal@absl@@_N$0A@@?$pair@Viterator@?$raw_hash_set@V?$NodeHashMapPolicy@_J_J@container_internal@absl@@U?$Hash@_J@hash_internal@3@U?$equal_to@_J@__Cr@std@@V?$allocator@U?$pair@$$CB_J_J@__Cr@std@@@78@@container_internal@absl@@_N@__Cr@std@@QEAA@$$QEAViterator@?$raw_hash_set@V?$NodeHashMapPolicy@_J_J@container_internal@absl@@U?$Hash@_J@hash_internal@3@U?$equal_to@_J@__Cr@std@@V?$allocator@U?$pair@$$CB_J_J@__Cr@std@@@78@@container_internal@absl@@$$QEA_N@Z
    ??$?0Viterator@?$raw_hash_set@V?$NodeHashMapPolicy@_KV?$basic_string@DU?$char_traits@D@__Cr@std@@V?$allocator@D@23@@__Cr@std@@@container_internal@absl@@U?$Hash@_K@hash_internal@3@U?$equal_to@_K@__Cr@std@@V?$allocator@U?$pair@$$CB_KV?$basic_string@DU?$char_traits@D@__Cr@std@@V?$allocator@D@23@@__Cr@std@@@__Cr@std@@@78@@container_internal@absl@@_N$0A@@?$pair@Viterator@?$raw_hash_set@V?$NodeHashMapPolicy@_KV?$basic_string@DU?$char_traits@D@__Cr@std@@V?$allocator@D@23@@__Cr@std@@@container_internal@absl@@U?$Hash@_K@hash_internal@3@U?$equal_to@_K@__Cr@std@@V?$allocator@U?$pair@$$CB_KV?$basic_string@DU?$char_traits@D@__Cr@std@@V?$allocator@D@23@@__Cr@std@@@__Cr@std@@@78@@container_internal@absl@@_N@__Cr@std@@QEAA@$$QEAViterator@?$raw_hash_set@V?$NodeHashMapPolicy@_KV?$basic_string@DU?$char_traits@D@__Cr@std@@V?$allocator@D@23@@__Cr@std@@@container_internal@absl@@U?$Hash@_K@hash_internal@3@U?$equal_to@_K@__Cr@std@@V?$allocator@U?$pair@$$CB_KV?$basic_string@DU?$char_traits@D@__Cr@std@@V?$allocator@D@23@@__Cr@std@@@__Cr@std@@@78@@container_internal@absl@@$$QEA_N@Z
    ??$?0Viterator@?$raw_hash_set@V?$NodeHashMapPolicy@_K_K@container_internal@absl@@U?$Hash@_K@hash_internal@3@U?$equal_to@_K@__Cr@std@@V?$allocator@U?$pair@$$CB_K_K@__Cr@std@@@78@@container_internal@absl@@_N$0A@@?$pair@Viterator@?$raw_hash_set@V?$NodeHashMapPolicy@_K_K@container_internal@absl@@U?$Hash@_K@hash_internal@3@U?$equal_to@_K@__Cr@std@@V?$allocator@U?$pair@$$CB_K_K@__Cr@std@@@78@@container_internal@absl@@_N@__Cr@std@@QEAA@$$QEAViterator@?$raw_hash_set@V?$NodeHashMapPolicy@_K_K@container_internal@absl@@U?$Hash@_K@hash_internal@3@U?$equal_to@_K@__Cr@std@@V?$allocator@U?$pair@$$CB_K_K@__Cr@std@@@78@@container_internal@absl@@$$QEA_N@Z
    ??$?0_J@?$allocator@U?$AlignedType@$07@container_internal@absl@@@__Cr@std@@QEAA@AEBV?$allocator@_J@12@@Z
    ??$?0_J@FlagState@flags_internal@absl@@QEAA@AEAVFlagImpl@12@AEB_J_N2_J@Z
    ??$?0_J@FormatArgImpl@str_format_internal@absl@@QEAA@AEB_J@Z
    ??$?0_K@?$allocator@U?$AlignedType@$07@container_internal@absl@@@__Cr@std@@QEAA@AEBV?$allocator@_K@12@@Z
    ??$?4PEAVCommandLineFlag@absl@@_N$0A@@?$tuple@AEAPEAVCommandLineFlag@absl@@AEA_N@__Cr@std@@QEAAAEAV012@$$QEAV?$tuple@PEAVCommandLineFlag@absl@@_N@12@@Z
    ??$?6$01@LogMessage@log_internal@absl@@QEAAAEAV012@AEAY01$$CBD@Z
    ??$?6$02@LogMessage@log_internal@absl@@QEAAAEAV012@AEAY02$$CBD@Z
    ??$?6$0P@@LogMessage@log_internal@absl@@QEAAAEAV012@AEAY0P@$$CBD@Z
    ??$?6C$0A@@LogMessage@log_internal@absl@@QEAAAEAV012@AEBC@Z
    ??$?6D$0A@@LogMessage@log_internal@absl@@QEAAAEAV012@AEBD@Z
    ??$?6E$0A@@LogMessage@log_internal@absl@@QEAAAEAV012@AEBE@Z
    ??$?6F$0A@@LogMessage@log_internal@absl@@QEAAAEAV012@AEBF@Z
    ??$?6G$0A@@LogMessage@log_internal@absl@@QEAAAEAV012@AEBG@Z
    ??$?6H$0A@@LogMessage@log_internal@absl@@QEAAAEAV012@AEBH@Z
    ??$?6I$0A@@LogMessage@log_internal@absl@@QEAAAEAV012@AEBI@Z
    ??$?6J$0A@@LogMessage@log_internal@absl@@QEAAAEAV012@AEBJ@Z
    ??$?6K$0A@@LogMessage@log_internal@absl@@QEAAAEAV012@AEBK@Z
    ??$?6M$0A@@LogMessage@log_internal@absl@@QEAAAEAV012@AEBM@Z
    ??$?6N$0A@@LogMessage@log_internal@absl@@QEAAAEAV012@AEBN@Z
    ??$?6PEAX$0A@@LogMessage@log_internal@absl@@QEAAAEAV012@AEBQEAX@Z
    ??$?6PEBX$0A@@LogMessage@log_internal@absl@@QEAAAEAV012@AEBQEBX@Z
    ??$?6_J$0A@@LogMessage@log_internal@absl@@QEAAAEAV012@AEB_J@Z
    ??$?6_K$0A@@LogMessage@log_internal@absl@@QEAAAEAV012@AEB_K@Z
    ??$?6_N$0A@@LogMessage@log_internal@absl@@QEAAAEAV012@AEB_N@Z
    ??$?8PEAPEAVCommandLineFlag@absl@@@__Cr@std@@YA_NAEBV?$__wrap_iter@PEAPEAVCommandLineFlag@absl@@@01@0@Z
    ??$?8PEAPEAVCordzHandle@cord_internal@absl@@@__Cr@std@@YA_NAEBV?$__wrap_iter@PEAPEAVCordzHandle@cord_internal@absl@@@01@0@Z
    ??$?8PEAPEAVLogSink@absl@@@__Cr@std@@YA_NAEBV?$__wrap_iter@PEAPEAVLogSink@absl@@@01@0@Z
    ??$?8PEAPEBVCommandLineFlag@absl@@@__Cr@std@@YA_NAEBV?$__wrap_iter@PEAPEBVCommandLineFlag@absl@@@01@0@Z
    ??$?8PEAUTransitionType@cctz@time_internal@absl@@@__Cr@std@@YA_NAEBV?$__wrap_iter@PEAUTransitionType@cctz@time_internal@absl@@@01@0@Z
    ??$?8PEAUUnrecognizedFlag@absl@@@__Cr@std@@YA_NAEBV?$__wrap_iter@PEAUUnrecognizedFlag@absl@@@01@0@Z
    ??$?8PEAV?$unique_ptr@VFlagStateInterface@flags_internal@absl@@U?$default_delete@VFlagStateInterface@flags_internal@absl@@@__Cr@std@@@__Cr@std@@@__Cr@std@@YA_NAEBV?$__wrap_iter@PEAV?$unique_ptr@VFlagStateInterface@flags_internal@absl@@U?$default_delete@VFlagStateInterface@flags_internal@absl@@@__Cr@std@@@__Cr@std@@@01@0@Z
    ??$?8PEBQEAVLogSink@absl@@PEAPEAV01@@__Cr@std@@YA_NAEBV?$__wrap_iter@PEBQEAVLogSink@absl@@@01@AEBV?$__wrap_iter@PEAPEAVLogSink@absl@@@01@@Z
    ??$?8PEBUConversionItem@ParsedFormatBase@str_format_internal@absl@@@__Cr@std@@YA_NAEBV?$__wrap_iter@PEBUConversionItem@ParsedFormatBase@str_format_internal@absl@@@01@0@Z
    ??$?8PEBUUnrecognizedFlag@absl@@@__Cr@std@@YA_NAEBV?$__wrap_iter@PEBUUnrecognizedFlag@absl@@@01@0@Z
    ??$?8UUnrecognizedFlag@absl@@U01@@__Cr@std@@YA_NAEBV?$allocator@UUnrecognizedFlag@absl@@@01@0@Z
    ??$?8V?$InlinedVector@UPayload@status_internal@absl@@$00V?$allocator@UPayload@status_internal@absl@@@__Cr@std@@@absl@@U?$default_delete@V?$InlinedVector@UPayload@status_internal@absl@@$00V?$allocator@UPayload@status_internal@absl@@@__Cr@std@@@absl@@@__Cr@std@@@__Cr@std@@YA_NAEBV?$unique_ptr@V?$InlinedVector@UPayload@status_internal@absl@@$00V?$allocator@UPayload@status_internal@absl@@@__Cr@std@@@absl@@U?$default_delete@V?$InlinedVector@UPayload@status_internal@absl@@$00V?$allocator@UPayload@status_internal@absl@@@__Cr@std@@@absl@@@__Cr@std@@@01@$$T@Z
    ??$?8VZoneInfoSource@cctz@time_internal@absl@@U?$default_delete@VZoneInfoSource@cctz@time_internal@absl@@@__Cr@std@@@__Cr@std@@YA_NAEBV?$unique_ptr@VZoneInfoSource@cctz@time_internal@absl@@U?$default_delete@VZoneInfoSource@cctz@time_internal@absl@@@__Cr@std@@@01@$$T@Z
    ??$?9PEAPEAVCommandLineFlag@absl@@@__Cr@std@@YA_NAEBV?$__wrap_iter@PEAPEAVCommandLineFlag@absl@@@01@0@Z
    ??$?9PEAPEAVCordzHandle@cord_internal@absl@@@__Cr@std@@YA_NAEBV?$__wrap_iter@PEAPEAVCordzHandle@cord_internal@absl@@@01@0@Z
    ??$?9PEAPEAVLogSink@absl@@@__Cr@std@@YA_NAEBV?$__wrap_iter@PEAPEAVLogSink@absl@@@01@0@Z
    ??$?9PEAPEBVCommandLineFlag@absl@@@__Cr@std@@YA_NAEBV?$__wrap_iter@PEAPEBVCommandLineFlag@absl@@@01@0@Z
    ??$?9PEAUTransitionType@cctz@time_internal@absl@@@__Cr@std@@YA_NAEBV?$__wrap_iter@PEAUTransitionType@cctz@time_internal@absl@@@01@0@Z
    ??$?9PEAUUnrecognizedFlag@absl@@@__Cr@std@@YA_NAEBV?$__wrap_iter@PEAUUnrecognizedFlag@absl@@@01@0@Z
    ??$?9PEAV?$unique_ptr@VFlagStateInterface@flags_internal@absl@@U?$default_delete@VFlagStateInterface@flags_internal@absl@@@__Cr@std@@@__Cr@std@@@__Cr@std@@YA_NAEBV?$__wrap_iter@PEAV?$unique_ptr@VFlagStateInterface@flags_internal@absl@@U?$default_delete@VFlagStateInterface@flags_internal@absl@@@__Cr@std@@@__Cr@std@@@01@0@Z
    ??$?9PEBQEAVLogSink@absl@@PEAPEAV01@@__Cr@std@@YA_NAEBV?$__wrap_iter@PEBQEAVLogSink@absl@@@01@AEBV?$__wrap_iter@PEAPEAVLogSink@absl@@@01@@Z
    ??$?9PEBUConversionItem@ParsedFormatBase@str_format_internal@absl@@@__Cr@std@@YA_NAEBV?$__wrap_iter@PEBUConversionItem@ParsedFormatBase@str_format_internal@absl@@@01@0@Z
    ??$?9PEBUUnrecognizedFlag@absl@@@__Cr@std@@YA_NAEBV?$__wrap_iter@PEBUUnrecognizedFlag@absl@@@01@0@Z
    ??$?BV?$vector@V?$basic_string@DU?$char_traits@D@__Cr@std@@V?$allocator@D@23@@__Cr@std@@V?$allocator@V?$basic_string@DU?$char_traits@D@__Cr@std@@V?$allocator@D@23@@__Cr@std@@@23@@__Cr@std@@$0A@@?$Splitter@VByChar@absl@@UAllowEmpty@2@V?$basic_string_view@DU?$char_traits@D@__Cr@std@@@__Cr@std@@@strings_internal@absl@@QEBA?AV?$vector@V?$basic_string@DU?$char_traits@D@__Cr@std@@V?$allocator@D@23@@__Cr@std@@V?$allocator@V?$basic_string@DU?$char_traits@D@__Cr@std@@V?$allocator@D@23@@__Cr@std@@@23@@__Cr@std@@XZ
    ??$?BV?$vector@V?$basic_string_view@DU?$char_traits@D@__Cr@std@@@__Cr@std@@V?$allocator@V?$basic_string_view@DU?$char_traits@D@__Cr@std@@@__Cr@std@@@23@@__Cr@std@@$0A@@?$Splitter@VByChar@absl@@UAllowEmpty@2@V?$basic_string_view@DU?$char_traits@D@__Cr@std@@@__Cr@std@@@strings_internal@absl@@QEBA?AV?$vector@V?$basic_string_view@DU?$char_traits@D@__Cr@std@@@__Cr@std@@V?$allocator@V?$basic_string_view@DU?$char_traits@D@__Cr@std@@@__Cr@std@@@23@@__Cr@std@@XZ
    ??$?DH@absl@@YA?AVDuration@0@HV10@@Z
    ??$?DH@absl@@YA?AVDuration@0@V10@H@Z
    ??$?DN@absl@@YA?AVDuration@0@NV10@@Z
    ??$?D_J@absl@@YA?AVDuration@0@_JV10@@Z
    ??$?GPEAPEAPEBVImpl@time_zone@cctz@time_internal@absl@@PEAPEAPEBV01234@@__Cr@std@@YA_JAEBV?$move_iterator@PEAPEAPEBVImpl@time_zone@cctz@time_internal@absl@@@01@0@Z
    ??$?GPEAPEAUPrefixCrc@CrcCordState@crc_internal@absl@@PEAPEAU0123@@__Cr@std@@YA_JAEBV?$move_iterator@PEAPEAUPrefixCrc@CrcCordState@crc_internal@absl@@@01@0@Z
    ??$?GPEAPEAVCommandLineFlag@absl@@PEAPEAV01@@__Cr@std@@YA_JAEBV?$__wrap_iter@PEAPEAVCommandLineFlag@absl@@@01@0@Z
    ??$?GPEAPEBVCommandLineFlag@absl@@PEAPEBV01@@__Cr@std@@YA_JAEBV?$__wrap_iter@PEAPEBVCommandLineFlag@absl@@@01@0@Z
    ??$?GPEAUTransition@cctz@time_internal@absl@@PEAU0123@@__Cr@std@@YA_JAEBV?$move_iterator@PEAUTransition@cctz@time_internal@absl@@@01@0@Z
    ??$?GPEAUTransitionType@cctz@time_internal@absl@@PEAU0123@@__Cr@std@@YA_JAEBV?$move_iterator@PEAUTransitionType@cctz@time_internal@absl@@@01@0@Z
    ??$?GPEBQEAVLogSink@absl@@PEBQEAV01@@__Cr@std@@YA_JAEBV?$__wrap_iter@PEBQEAVLogSink@absl@@@01@0@Z
    ??$?GPEBUTransition@cctz@time_internal@absl@@PEAU0123@@__Cr@std@@YA_JAEBV?$__wrap_iter@PEBUTransition@cctz@time_internal@absl@@@01@AEBV?$__wrap_iter@PEAUTransition@cctz@time_internal@absl@@@01@@Z
    ??$?GPEBUTransitionType@cctz@time_internal@absl@@PEAU0123@@__Cr@std@@YA_JAEBV?$__wrap_iter@PEBUTransitionType@cctz@time_internal@absl@@@01@AEBV?$__wrap_iter@PEAUTransitionType@cctz@time_internal@absl@@@01@@Z
    ??$?K_J@absl@@YA?AVDuration@0@V10@_J@Z
    ??$?MUsecond_tag@detail@cctz@time_internal@absl@@U01234@@detail@cctz@time_internal@absl@@YA_NAEBV?$civil_time@Usecond_tag@detail@cctz@time_internal@absl@@@0123@0@Z
    ??$?NUsecond_tag@detail@cctz@time_internal@absl@@U01234@@detail@cctz@time_internal@absl@@YA_NAEBV?$civil_time@Usecond_tag@detail@cctz@time_internal@absl@@@0123@0@Z
    ??$?OUsecond_tag@detail@cctz@time_internal@absl@@U01234@@detail@cctz@time_internal@absl@@YA_NAEBV?$civil_time@Usecond_tag@detail@cctz@time_internal@absl@@@0123@0@Z
    ??$?PUsecond_tag@detail@cctz@time_internal@absl@@U01234@@detail@cctz@time_internal@absl@@YA_NAEBV?$civil_time@Usecond_tag@detail@cctz@time_internal@absl@@@0123@0@Z
    ??$?R$$CBUPrefixCrc@CrcCordState@crc_internal@absl@@U0123@$0A@@__copy_trivial@__Cr@std@@QEBA?AU?$pair@PEBUPrefixCrc@CrcCordState@crc_internal@absl@@PEAU1234@@12@PEBUPrefixCrc@CrcCordState@crc_internal@absl@@0PEAU4567@@Z
    ??$?RAEAPEAVLogSink@absl@@@__identity@__Cr@std@@QEBAAEAPEAVLogSink@absl@@AEAPEAV34@@Z
    ??$?RAEAPEBDAEAHAEAY0LLI@DAEBQEBDPEAD@?$AtomicHook@P6AXPEBDH000@Z@base_internal@absl@@QEBAXAEAPEBDAEAHAEAY0LLI@DAEBQEBD$$QEAPEAD@Z
    ??$?RAEAPEBVCommandLineFlag@absl@@@__identity@__Cr@std@@QEBAAEAPEBVCommandLineFlag@absl@@AEAPEBV34@@Z
    ??$?RAEAW4LogSeverity@absl@@AEAPEBDAEAHPEAPEADPEAH@?$AtomicHook@P6A_NW4LogSeverity@absl@@PEBDHPEAPEADPEAH@Z@base_internal@absl@@QEBA_NAEAW4LogSeverity@2@AEAPEBDAEAH$$QEAPEAPEAD$$QEAPEAH@Z
    ??$?RAEAY04$$CBDPEAVCondVar@absl@@@?$AtomicHook@P6AXPEBDPEBX@Z@base_internal@absl@@QEBAXAEAY04$$CBD$$QEAPEAVCondVar@2@@Z
    ??$?RAEAY06$$CBDPEAVCondVar@absl@@@?$AtomicHook@P6AXPEBDPEBX@Z@base_internal@absl@@QEBAXAEAY06$$CBD$$QEAPEAVCondVar@2@@Z
    ??$?RAEAY0BB@$$CBDPEAVCondVar@absl@@@?$AtomicHook@P6AXPEBDPEBX@Z@base_internal@absl@@QEBAXAEAY0BB@$$CBD$$QEAPEAVCondVar@2@@Z
    ??$?RAEAY0N@$$CBDPEAVMutex@absl@@AEA_J@?$AtomicHook@P6AXPEBDPEBX_J@Z@base_internal@absl@@QEBAXAEAY0N@$$CBD$$QEAPEAVMutex@2@AEA_J@Z
    ??$?RAEAY0O@$$CBDPEAVCondVar@absl@@@?$AtomicHook@P6AXPEBDPEBX@Z@base_internal@absl@@QEBAXAEAY0O@$$CBD$$QEAPEAVCondVar@2@@Z
    ??$?RAEA_J@?$AtomicHook@P6AX_J@Z@base_internal@absl@@QEBAXAEA_J@Z
    ??$?RAEBQEAPEAPEBVImpl@time_zone@cctz@time_internal@absl@@@__fn@__iter_move@ranges@__Cr@std@@QEBA$$QEAPEAPEBVImpl@time_zone@cctz@time_internal@absl@@AEBQEAPEAPEBV56789@@Z
    ??$?RAEBQEAPEAUCordRep@cord_internal@absl@@@__fn@__iter_move@ranges@__Cr@std@@QEBA$$QEAPEAUCordRep@cord_internal@absl@@AEBQEAPEAU567@@Z
    ??$?RAEBQEAPEAUPrefixCrc@CrcCordState@crc_internal@absl@@@__fn@__iter_move@ranges@__Cr@std@@QEBA$$QEAPEAUPrefixCrc@CrcCordState@crc_internal@absl@@AEBQEAPEAU5678@@Z
    ??$?RAEBQEAPEAVLogSink@absl@@@__fn@__iter_move@ranges@__Cr@std@@QEBA$$QEAPEAVLogSink@absl@@AEBQEAPEAV56@@Z
    ??$?RAEBQEAUPayload@status_internal@absl@@@__fn@__iter_move@ranges@__Cr@std@@QEBA$$QEAUPayload@status_internal@absl@@AEBQEAU567@@Z
    ??$?RAEBQEAUTransition@cctz@time_internal@absl@@@__fn@__iter_move@ranges@__Cr@std@@QEBA$$QEAUTransition@cctz@time_internal@absl@@AEBQEAU5678@@Z
    ??$?RAEBQEAUTransitionType@cctz@time_internal@absl@@@__fn@__iter_move@ranges@__Cr@std@@QEBA$$QEAUTransitionType@cctz@time_internal@absl@@AEBQEAU5678@@Z
    ??$?RAEBUTransition@cctz@time_internal@absl@@@__identity@__Cr@std@@QEBAAEBUTransition@cctz@time_internal@absl@@AEBU3456@@Z
    ??$?RCAEAC@?$EqualElement@C@?$raw_hash_set@U?$FlatHashSetPolicy@C@container_internal@absl@@U?$Hash@C@hash_internal@3@U?$equal_to@C@__Cr@std@@V?$allocator@C@78@@container_internal@absl@@QEBA_NAEBCAEAC@Z
    ??$?RCAEAC@?$EqualElement@C@?$raw_hash_set@U?$NodeHashSetPolicy@C@container_internal@absl@@U?$Hash@C@hash_internal@3@U?$equal_to@C@__Cr@std@@V?$allocator@C@78@@container_internal@absl@@QEBA_NAEBCAEAC@Z
    ??$?RCAEAC@HashElement@?$raw_hash_set@U?$FlatHashSetPolicy@C@container_internal@absl@@U?$Hash@C@hash_internal@3@U?$equal_to@C@__Cr@std@@V?$allocator@C@78@@container_internal@absl@@QEBA_KAEBCAEAC@Z
    ??$?RCAEAC@HashElement@?$raw_hash_set@U?$NodeHashSetPolicy@C@container_internal@absl@@U?$Hash@C@hash_internal@3@U?$equal_to@C@__Cr@std@@V?$allocator@C@78@@container_internal@absl@@QEBA_KAEBCAEAC@Z
    ??$?RCAEBC@?$InsertSlot@$0A@@?$raw_hash_set@U?$FlatHashSetPolicy@C@container_internal@absl@@U?$Hash@C@hash_internal@3@U?$equal_to@C@__Cr@std@@V?$allocator@C@78@@container_internal@absl@@QEHAA?AU?$pair@Viterator@?$raw_hash_set@U?$FlatHashSetPolicy@C@container_internal@absl@@U?$Hash@C@hash_internal@3@U?$equal_to@C@__Cr@std@@V?$allocator@C@78@@container_internal@absl@@_N@__Cr@std@@AEBC0@Z
    ??$?RCAEBC@?$InsertSlot@$0A@@?$raw_hash_set@U?$NodeHashSetPolicy@C@container_internal@absl@@U?$Hash@C@hash_internal@3@U?$equal_to@C@__Cr@std@@V?$allocator@C@78@@container_internal@absl@@QEHAA?AU?$pair@Viterator@?$raw_hash_set@U?$NodeHashSetPolicy@C@container_internal@absl@@U?$Hash@C@hash_internal@3@U?$equal_to@C@__Cr@std@@V?$allocator@C@78@@container_internal@absl@@_N@__Cr@std@@AEBC0@Z
    ??$?RCAEBC@EmplaceDecomposable@?$raw_hash_set@U?$FlatHashSetPolicy@C@container_internal@absl@@U?$Hash@C@hash_internal@3@U?$equal_to@C@__Cr@std@@V?$allocator@C@78@@container_internal@absl@@QEBA?AU?$pair@Viterator@?$raw_hash_set@U?$FlatHashSetPolicy@C@container_internal@absl@@U?$Hash@C@hash_internal@3@U?$equal_to@C@__Cr@std@@V?$allocator@C@78@@container_internal@absl@@_N@__Cr@std@@AEBC0@Z
    ??$?RCAEBC@EmplaceDecomposable@?$raw_hash_set@U?$NodeHashSetPolicy@C@container_internal@absl@@U?$Hash@C@hash_internal@3@U?$equal_to@C@__Cr@std@@V?$allocator@C@78@@container_internal@absl@@QEBA?AU?$pair@Viterator@?$raw_hash_set@U?$NodeHashSetPolicy@C@container_internal@absl@@U?$Hash@C@hash_internal@3@U?$equal_to@C@__Cr@std@@V?$allocator@C@78@@container_internal@absl@@_N@__Cr@std@@AEBC0@Z
    ??$?RCAEBC@FindElement@?$raw_hash_set@U?$FlatHashSetPolicy@C@container_internal@absl@@U?$Hash@C@hash_internal@3@U?$equal_to@C@__Cr@std@@V?$allocator@C@78@@container_internal@absl@@QEBA?AVconst_iterator@123@AEBC0@Z
    ??$?RCAEBC@FindElement@?$raw_hash_set@U?$NodeHashSetPolicy@C@container_internal@absl@@U?$Hash@C@hash_internal@3@U?$equal_to@C@__Cr@std@@V?$allocator@C@78@@container_internal@absl@@QEBA?AVconst_iterator@123@AEBC0@Z
    ??$?RCC@EmplaceDecomposable@?$raw_hash_set@U?$FlatHashSetPolicy@C@container_internal@absl@@U?$Hash@C@hash_internal@3@U?$equal_to@C@__Cr@std@@V?$allocator@C@78@@container_internal@absl@@QEBA?AU?$pair@Viterator@?$raw_hash_set@U?$FlatHashSetPolicy@C@container_internal@absl@@U?$Hash@C@hash_internal@3@U?$equal_to@C@__Cr@std@@V?$allocator@C@78@@container_internal@absl@@_N@__Cr@std@@AEBC$$QEAC@Z
    ??$?RCC@EmplaceDecomposable@?$raw_hash_set@U?$NodeHashSetPolicy@C@container_internal@absl@@U?$Hash@C@hash_internal@3@U?$equal_to@C@__Cr@std@@V?$allocator@C@78@@container_internal@absl@@QEBA?AU?$pair@Viterator@?$raw_hash_set@U?$NodeHashSetPolicy@C@container_internal@absl@@U?$Hash@C@hash_internal@3@U?$equal_to@C@__Cr@std@@V?$allocator@C@78@@container_internal@absl@@_N@__Cr@std@@AEBC$$QEAC@Z
    ??$?REAEAE@?$EqualElement@E@?$raw_hash_set@U?$FlatHashSetPolicy@E@container_internal@absl@@U?$Hash@E@hash_internal@3@U?$equal_to@E@__Cr@std@@V?$allocator@E@78@@container_internal@absl@@QEBA_NAEBEAEAE@Z
    ??$?REAEAE@?$EqualElement@E@?$raw_hash_set@U?$NodeHashSetPolicy@E@container_internal@absl@@U?$Hash@E@hash_internal@3@U?$equal_to@E@__Cr@std@@V?$allocator@E@78@@container_internal@absl@@QEBA_NAEBEAEAE@Z
    ??$?REAEAE@HashElement@?$raw_hash_set@U?$FlatHashSetPolicy@E@container_internal@absl@@U?$Hash@E@hash_internal@3@U?$equal_to@E@__Cr@std@@V?$allocator@E@78@@container_internal@absl@@QEBA_KAEBEAEAE@Z
    ??$?REAEAE@HashElement@?$raw_hash_set@U?$NodeHashSetPolicy@E@container_internal@absl@@U?$Hash@E@hash_internal@3@U?$equal_to@E@__Cr@std@@V?$allocator@E@78@@container_internal@absl@@QEBA_KAEBEAEAE@Z
    ??$?REAEBE@?$InsertSlot@$0A@@?$raw_hash_set@U?$FlatHashSetPolicy@E@container_internal@absl@@U?$Hash@E@hash_internal@3@U?$equal_to@E@__Cr@std@@V?$allocator@E@78@@container_internal@absl@@QEHAA?AU?$pair@Viterator@?$raw_hash_set@U?$FlatHashSetPolicy@E@container_internal@absl@@U?$Hash@E@hash_internal@3@U?$equal_to@E@__Cr@std@@V?$allocator@E@78@@container_internal@absl@@_N@__Cr@std@@AEBE0@Z
    ??$?REAEBE@?$InsertSlot@$0A@@?$raw_hash_set@U?$NodeHashSetPolicy@E@container_internal@absl@@U?$Hash@E@hash_internal@3@U?$equal_to@E@__Cr@std@@V?$allocator@E@78@@container_internal@absl@@QEHAA?AU?$pair@Viterator@?$raw_hash_set@U?$NodeHashSetPolicy@E@container_internal@absl@@U?$Hash@E@hash_internal@3@U?$equal_to@E@__Cr@std@@V?$allocator@E@78@@container_internal@absl@@_N@__Cr@std@@AEBE0@Z
    ??$?REAEBE@EmplaceDecomposable@?$raw_hash_set@U?$FlatHashSetPolicy@E@container_internal@absl@@U?$Hash@E@hash_internal@3@U?$equal_to@E@__Cr@std@@V?$allocator@E@78@@container_internal@absl@@QEBA?AU?$pair@Viterator@?$raw_hash_set@U?$FlatHashSetPolicy@E@container_internal@absl@@U?$Hash@E@hash_internal@3@U?$equal_to@E@__Cr@std@@V?$allocator@E@78@@container_internal@absl@@_N@__Cr@std@@AEBE0@Z
    ??$?REAEBE@EmplaceDecomposable@?$raw_hash_set@U?$NodeHashSetPolicy@E@container_internal@absl@@U?$Hash@E@hash_internal@3@U?$equal_to@E@__Cr@std@@V?$allocator@E@78@@container_internal@absl@@QEBA?AU?$pair@Viterator@?$raw_hash_set@U?$NodeHashSetPolicy@E@container_internal@absl@@U?$Hash@E@hash_internal@3@U?$equal_to@E@__Cr@std@@V?$allocator@E@78@@container_internal@absl@@_N@__Cr@std@@AEBE0@Z
    ??$?REAEBE@FindElement@?$raw_hash_set@U?$FlatHashSetPolicy@E@container_internal@absl@@U?$Hash@E@hash_internal@3@U?$equal_to@E@__Cr@std@@V?$allocator@E@78@@container_internal@absl@@QEBA?AVconst_iterator@123@AEBE0@Z
    ??$?REAEBE@FindElement@?$raw_hash_set@U?$NodeHashSetPolicy@E@container_internal@absl@@U?$Hash@E@hash_internal@3@U?$equal_to@E@__Cr@std@@V?$allocator@E@78@@container_internal@absl@@QEBA?AVconst_iterator@123@AEBE0@Z
    ??$?REE@EmplaceDecomposable@?$raw_hash_set@U?$FlatHashSetPolicy@E@container_internal@absl@@U?$Hash@E@hash_internal@3@U?$equal_to@E@__Cr@std@@V?$allocator@E@78@@container_internal@absl@@QEBA?AU?$pair@Viterator@?$raw_hash_set@U?$FlatHashSetPolicy@E@container_internal@absl@@U?$Hash@E@hash_internal@3@U?$equal_to@E@__Cr@std@@V?$allocator@E@78@@container_internal@absl@@_N@__Cr@std@@AEBE$$QEAE@Z
    ??$?REE@EmplaceDecomposable@?$raw_hash_set@U?$NodeHashSetPolicy@E@container_internal@absl@@U?$Hash@E@hash_internal@3@U?$equal_to@E@__Cr@std@@V?$allocator@E@78@@container_internal@absl@@QEBA?AU?$pair@Viterator@?$raw_hash_set@U?$NodeHashSetPolicy@E@container_internal@absl@@U?$Hash@E@hash_internal@3@U?$equal_to@E@__Cr@std@@V?$allocator@E@78@@container_internal@absl@@_N@__Cr@std@@AEBE$$QEAE@Z
    ??$?RFAEAF@?$EqualElement@F@?$raw_hash_set@U?$FlatHashSetPolicy@F@container_internal@absl@@U?$Hash@F@hash_internal@3@U?$equal_to@F@__Cr@std@@V?$allocator@F@78@@container_internal@absl@@QEBA_NAEBFAEAF@Z
    ??$?RFAEAF@?$EqualElement@F@?$raw_hash_set@U?$NodeHashSetPolicy@F@container_internal@absl@@U?$Hash@F@hash_internal@3@U?$equal_to@F@__Cr@std@@V?$allocator@F@78@@container_internal@absl@@QEBA_NAEBFAEAF@Z
    ??$?RFAEAF@HashElement@?$raw_hash_set@U?$FlatHashSetPolicy@F@container_internal@absl@@U?$Hash@F@hash_internal@3@U?$equal_to@F@__Cr@std@@V?$allocator@F@78@@container_internal@absl@@QEBA_KAEBFAEAF@Z
    ??$?RFAEAF@HashElement@?$raw_hash_set@U?$NodeHashSetPolicy@F@container_internal@absl@@U?$Hash@F@hash_internal@3@U?$equal_to@F@__Cr@std@@V?$allocator@F@78@@container_internal@absl@@QEBA_KAEBFAEAF@Z
    ??$?RFAEBF@?$InsertSlot@$0A@@?$raw_hash_set@U?$FlatHashSetPolicy@F@container_internal@absl@@U?$Hash@F@hash_internal@3@U?$equal_to@F@__Cr@std@@V?$allocator@F@78@@container_internal@absl@@QEHAA?AU?$pair@Viterator@?$raw_hash_set@U?$FlatHashSetPolicy@F@container_internal@absl@@U?$Hash@F@hash_internal@3@U?$equal_to@F@__Cr@std@@V?$allocator@F@78@@container_internal@absl@@_N@__Cr@std@@AEBF0@Z
    ??$?RFAEBF@?$InsertSlot@$0A@@?$raw_hash_set@U?$NodeHashSetPolicy@F@container_internal@absl@@U?$Hash@F@hash_internal@3@U?$equal_to@F@__Cr@std@@V?$allocator@F@78@@container_internal@absl@@QEHAA?AU?$pair@Viterator@?$raw_hash_set@U?$NodeHashSetPolicy@F@container_internal@absl@@U?$Hash@F@hash_internal@3@U?$equal_to@F@__Cr@std@@V?$allocator@F@78@@container_internal@absl@@_N@__Cr@std@@AEBF0@Z
    ??$?RFAEBF@EmplaceDecomposable@?$raw_hash_set@U?$FlatHashSetPolicy@F@container_internal@absl@@U?$Hash@F@hash_internal@3@U?$equal_to@F@__Cr@std@@V?$allocator@F@78@@container_internal@absl@@QEBA?AU?$pair@Viterator@?$raw_hash_set@U?$FlatHashSetPolicy@F@container_internal@absl@@U?$Hash@F@hash_internal@3@U?$equal_to@F@__Cr@std@@V?$allocator@F@78@@container_internal@absl@@_N@__Cr@std@@AEBF0@Z
    ??$?RFAEBF@EmplaceDecomposable@?$raw_hash_set@U?$NodeHashSetPolicy@F@container_internal@absl@@U?$Hash@F@hash_internal@3@U?$equal_to@F@__Cr@std@@V?$allocator@F@78@@container_internal@absl@@QEBA?AU?$pair@Viterator@?$raw_hash_set@U?$NodeHashSetPolicy@F@container_internal@absl@@U?$Hash@F@hash_internal@3@U?$equal_to@F@__Cr@std@@V?$allocator@F@78@@container_internal@absl@@_N@__Cr@std@@AEBF0@Z
    ??$?RFAEBF@FindElement@?$raw_hash_set@U?$FlatHashSetPolicy@F@container_internal@absl@@U?$Hash@F@hash_internal@3@U?$equal_to@F@__Cr@std@@V?$allocator@F@78@@container_internal@absl@@QEBA?AVconst_iterator@123@AEBF0@Z
    ??$?RFAEBF@FindElement@?$raw_hash_set@U?$NodeHashSetPolicy@F@container_internal@absl@@U?$Hash@F@hash_internal@3@U?$equal_to@F@__Cr@std@@V?$allocator@F@78@@container_internal@absl@@QEBA?AVconst_iterator@123@AEBF0@Z
    ??$?RFF@EmplaceDecomposable@?$raw_hash_set@U?$FlatHashSetPolicy@F@container_internal@absl@@U?$Hash@F@hash_internal@3@U?$equal_to@F@__Cr@std@@V?$allocator@F@78@@container_internal@absl@@QEBA?AU?$pair@Viterator@?$raw_hash_set@U?$FlatHashSetPolicy@F@container_internal@absl@@U?$Hash@F@hash_internal@3@U?$equal_to@F@__Cr@std@@V?$allocator@F@78@@container_internal@absl@@_N@__Cr@std@@AEBF$$QEAF@Z
    ??$?RFF@EmplaceDecomposable@?$raw_hash_set@U?$NodeHashSetPolicy@F@container_internal@absl@@U?$Hash@F@hash_internal@3@U?$equal_to@F@__Cr@std@@V?$allocator@F@78@@container_internal@absl@@QEBA?AU?$pair@Viterator@?$raw_hash_set@U?$NodeHashSetPolicy@F@container_internal@absl@@U?$Hash@F@hash_internal@3@U?$equal_to@F@__Cr@std@@V?$allocator@F@78@@container_internal@absl@@_N@__Cr@std@@AEBF$$QEAF@Z
    ??$?RGAEAG@?$EqualElement@G@?$raw_hash_set@U?$FlatHashSetPolicy@G@container_internal@absl@@U?$Hash@G@hash_internal@3@U?$equal_to@G@__Cr@std@@V?$allocator@G@78@@container_internal@absl@@QEBA_NAEBGAEAG@Z
    ??$?RGAEAG@?$EqualElement@G@?$raw_hash_set@U?$NodeHashSetPolicy@G@container_internal@absl@@U?$Hash@G@hash_internal@3@U?$equal_to@G@__Cr@std@@V?$allocator@G@78@@container_internal@absl@@QEBA_NAEBGAEAG@Z
    ??$?RGAEAG@HashElement@?$raw_hash_set@U?$FlatHashSetPolicy@G@container_internal@absl@@U?$Hash@G@hash_internal@3@U?$equal_to@G@__Cr@std@@V?$allocator@G@78@@container_internal@absl@@QEBA_KAEBGAEAG@Z
    ??$?RGAEAG@HashElement@?$raw_hash_set@U?$NodeHashSetPolicy@G@container_internal@absl@@U?$Hash@G@hash_internal@3@U?$equal_to@G@__Cr@std@@V?$allocator@G@78@@container_internal@absl@@QEBA_KAEBGAEAG@Z
    ??$?RGAEBG@?$InsertSlot@$0A@@?$raw_hash_set@U?$FlatHashSetPolicy@G@container_internal@absl@@U?$Hash@G@hash_internal@3@U?$equal_to@G@__Cr@std@@V?$allocator@G@78@@container_internal@absl@@QEHAA?AU?$pair@Viterator@?$raw_hash_set@U?$FlatHashSetPolicy@G@container_internal@absl@@U?$Hash@G@hash_internal@3@U?$equal_to@G@__Cr@std@@V?$allocator@G@78@@container_internal@absl@@_N@__Cr@std@@AEBG0@Z
    ??$?RGAEBG@?$InsertSlot@$0A@@?$raw_hash_set@U?$NodeHashSetPolicy@G@container_internal@absl@@U?$Hash@G@hash_internal@3@U?$equal_to@G@__Cr@std@@V?$allocator@G@78@@container_internal@absl@@QEHAA?AU?$pair@Viterator@?$raw_hash_set@U?$NodeHashSetPolicy@G@container_internal@absl@@U?$Hash@G@hash_internal@3@U?$equal_to@G@__Cr@std@@V?$allocator@G@78@@container_internal@absl@@_N@__Cr@std@@AEBG0@Z
    ??$?RGAEBG@EmplaceDecomposable@?$raw_hash_set@U?$FlatHashSetPolicy@G@container_internal@absl@@U?$Hash@G@hash_internal@3@U?$equal_to@G@__Cr@std@@V?$allocator@G@78@@container_internal@absl@@QEBA?AU?$pair@Viterator@?$raw_hash_set@U?$FlatHashSetPolicy@G@container_internal@absl@@U?$Hash@G@hash_internal@3@U?$equal_to@G@__Cr@std@@V?$allocator@G@78@@container_internal@absl@@_N@__Cr@std@@AEBG0@Z
    ??$?RGAEBG@EmplaceDecomposable@?$raw_hash_set@U?$NodeHashSetPolicy@G@container_internal@absl@@U?$Hash@G@hash_internal@3@U?$equal_to@G@__Cr@std@@V?$allocator@G@78@@container_internal@absl@@QEBA?AU?$pair@Viterator@?$raw_hash_set@U?$NodeHashSetPolicy@G@container_internal@absl@@U?$Hash@G@hash_internal@3@U?$equal_to@G@__Cr@std@@V?$allocator@G@78@@container_internal@absl@@_N@__Cr@std@@AEBG0@Z
    ??$?RGAEBG@FindElement@?$raw_hash_set@U?$FlatHashSetPolicy@G@container_internal@absl@@U?$Hash@G@hash_internal@3@U?$equal_to@G@__Cr@std@@V?$allocator@G@78@@container_internal@absl@@QEBA?AVconst_iterator@123@AEBG0@Z
    ??$?RGAEBG@FindElement@?$raw_hash_set@U?$NodeHashSetPolicy@G@container_internal@absl@@U?$Hash@G@hash_internal@3@U?$equal_to@G@__Cr@std@@V?$allocator@G@78@@container_internal@absl@@QEBA?AVconst_iterator@123@AEBG0@Z
    ??$?RGG@EmplaceDecomposable@?$raw_hash_set@U?$FlatHashSetPolicy@G@container_internal@absl@@U?$Hash@G@hash_internal@3@U?$equal_to@G@__Cr@std@@V?$allocator@G@78@@container_internal@absl@@QEBA?AU?$pair@Viterator@?$raw_hash_set@U?$FlatHashSetPolicy@G@container_internal@absl@@U?$Hash@G@hash_internal@3@U?$equal_to@G@__Cr@std@@V?$allocator@G@78@@container_internal@absl@@_N@__Cr@std@@AEBG$$QEAG@Z
    ??$?RGG@EmplaceDecomposable@?$raw_hash_set@U?$NodeHashSetPolicy@G@container_internal@absl@@U?$Hash@G@hash_internal@3@U?$equal_to@G@__Cr@std@@V?$allocator@G@78@@container_internal@absl@@QEBA?AU?$pair@Viterator@?$raw_hash_set@U?$NodeHashSetPolicy@G@container_internal@absl@@U?$Hash@G@hash_internal@3@U?$equal_to@G@__Cr@std@@V?$allocator@G@78@@container_internal@absl@@_N@__Cr@std@@AEBG$$QEAG@Z
    ??$?RHAEAH@?$EqualElement@H@?$raw_hash_set@U?$FlatHashSetPolicy@H@container_internal@absl@@U?$Hash@H@hash_internal@3@U?$equal_to@H@__Cr@std@@V?$allocator@H@78@@container_internal@absl@@QEBA_NAEBHAEAH@Z
    ??$?RHAEAH@?$EqualElement@H@?$raw_hash_set@U?$NodeHashSetPolicy@H@container_internal@absl@@U?$Hash@H@hash_internal@3@U?$equal_to@H@__Cr@std@@V?$allocator@H@78@@container_internal@absl@@QEBA_NAEBHAEAH@Z
    ??$?RHAEAH@HashElement@?$raw_hash_set@U?$FlatHashSetPolicy@H@container_internal@absl@@U?$Hash@H@hash_internal@3@U?$equal_to@H@__Cr@std@@V?$allocator@H@78@@container_internal@absl@@QEBA_KAEBHAEAH@Z
    ??$?RHAEAH@HashElement@?$raw_hash_set@U?$NodeHashSetPolicy@H@container_internal@absl@@U?$Hash@H@hash_internal@3@U?$equal_to@H@__Cr@std@@V?$allocator@H@78@@container_internal@absl@@QEBA_KAEBHAEAH@Z
    ??$?RHAEBH@?$InsertSlot@$0A@@?$raw_hash_set@U?$FlatHashSetPolicy@H@container_internal@absl@@U?$Hash@H@hash_internal@3@U?$equal_to@H@__Cr@std@@V?$allocator@H@78@@container_internal@absl@@QEHAA?AU?$pair@Viterator@?$raw_hash_set@U?$FlatHashSetPolicy@H@container_internal@absl@@U?$Hash@H@hash_internal@3@U?$equal_to@H@__Cr@std@@V?$allocator@H@78@@container_internal@absl@@_N@__Cr@std@@AEBH0@Z
    ??$?RHAEBH@?$InsertSlot@$0A@@?$raw_hash_set@U?$NodeHashSetPolicy@H@container_internal@absl@@U?$Hash@H@hash_internal@3@U?$equal_to@H@__Cr@std@@V?$allocator@H@78@@container_internal@absl@@QEHAA?AU?$pair@Viterator@?$raw_hash_set@U?$NodeHashSetPolicy@H@container_internal@absl@@U?$Hash@H@hash_internal@3@U?$equal_to@H@__Cr@std@@V?$allocator@H@78@@container_internal@absl@@_N@__Cr@std@@AEBH0@Z
    ??$?RHAEBH@EmplaceDecomposable@?$raw_hash_set@U?$FlatHashSetPolicy@H@container_internal@absl@@U?$Hash@H@hash_internal@3@U?$equal_to@H@__Cr@std@@V?$allocator@H@78@@container_internal@absl@@QEBA?AU?$pair@Viterator@?$raw_hash_set@U?$FlatHashSetPolicy@H@container_internal@absl@@U?$Hash@H@hash_internal@3@U?$equal_to@H@__Cr@std@@V?$allocator@H@78@@container_internal@absl@@_N@__Cr@std@@AEBH0@Z
    ??$?RHAEBH@EmplaceDecomposable@?$raw_hash_set@U?$NodeHashSetPolicy@H@container_internal@absl@@U?$Hash@H@hash_internal@3@U?$equal_to@H@__Cr@std@@V?$allocator@H@78@@container_internal@absl@@QEBA?AU?$pair@Viterator@?$raw_hash_set@U?$NodeHashSetPolicy@H@container_internal@absl@@U?$Hash@H@hash_internal@3@U?$equal_to@H@__Cr@std@@V?$allocator@H@78@@container_internal@absl@@_N@__Cr@std@@AEBH0@Z
    ??$?RHAEBH@FindElement@?$raw_hash_set@U?$FlatHashSetPolicy@H@container_internal@absl@@U?$Hash@H@hash_internal@3@U?$equal_to@H@__Cr@std@@V?$allocator@H@78@@container_internal@absl@@QEBA?AVconst_iterator@123@AEBH0@Z
    ??$?RHAEBH@FindElement@?$raw_hash_set@U?$NodeHashSetPolicy@H@container_internal@absl@@U?$Hash@H@hash_internal@3@U?$equal_to@H@__Cr@std@@V?$allocator@H@78@@container_internal@absl@@QEBA?AVconst_iterator@123@AEBH0@Z
    ??$?RHAEBUpiecewise_construct_t@__Cr@std@@V?$tuple@$$QEAH@12@V312@@EmplaceDecomposable@?$raw_hash_set@U?$FlatHashMapPolicy@HH@container_internal@absl@@U?$Hash@H@hash_internal@3@U?$equal_to@H@__Cr@std@@V?$allocator@U?$pair@$$CBHH@__Cr@std@@@78@@container_internal@absl@@QEBA?AU?$pair@Viterator@?$raw_hash_set@U?$FlatHashMapPolicy@HH@container_internal@absl@@U?$Hash@H@hash_internal@3@U?$equal_to@H@__Cr@std@@V?$allocator@U?$pair@$$CBHH@__Cr@std@@@78@@container_internal@absl@@_N@__Cr@std@@AEBHAEBUpiecewise_construct_t@56@$$QEAV?$tuple@$$QEAH@56@2@Z
    ??$?RHAEBUpiecewise_construct_t@__Cr@std@@V?$tuple@$$QEAH@12@V312@@EmplaceDecomposable@?$raw_hash_set@V?$NodeHashMapPolicy@HH@container_internal@absl@@U?$Hash@H@hash_internal@3@U?$equal_to@H@__Cr@std@@V?$allocator@U?$pair@$$CBHH@__Cr@std@@@78@@container_internal@absl@@QEBA?AU?$pair@Viterator@?$raw_hash_set@V?$NodeHashMapPolicy@HH@container_internal@absl@@U?$Hash@H@hash_internal@3@U?$equal_to@H@__Cr@std@@V?$allocator@U?$pair@$$CBHH@__Cr@std@@@78@@container_internal@absl@@_N@__Cr@std@@AEBHAEBUpiecewise_construct_t@56@$$QEAV?$tuple@$$QEAH@56@2@Z
    ??$?RHAEBUpiecewise_construct_t@__Cr@std@@V?$tuple@$$QEAH@12@V?$tuple@$$QEAV?$basic_string@DU?$char_traits@D@__Cr@std@@V?$allocator@D@23@@__Cr@std@@@12@@EmplaceDecomposable@?$raw_hash_set@U?$FlatHashMapPolicy@HV?$basic_string@DU?$char_traits@D@__Cr@std@@V?$allocator@D@23@@__Cr@std@@@container_internal@absl@@U?$Hash@H@hash_internal@3@U?$equal_to@H@__Cr@std@@V?$allocator@U?$pair@$$CBHV?$basic_string@DU?$char_traits@D@__Cr@std@@V?$allocator@D@23@@__Cr@std@@@__Cr@std@@@78@@container_internal@absl@@QEBA?AU?$pair@Viterator@?$raw_hash_set@U?$FlatHashMapPolicy@HV?$basic_string@DU?$char_traits@D@__Cr@std@@V?$allocator@D@23@@__Cr@std@@@container_internal@absl@@U?$Hash@H@hash_internal@3@U?$equal_to@H@__Cr@std@@V?$allocator@U?$pair@$$CBHV?$basic_string@DU?$char_traits@D@__Cr@std@@V?$allocator@D@23@@__Cr@std@@@__Cr@std@@@78@@container_internal@absl@@_N@__Cr@std@@AEBHAEBUpiecewise_construct_t@56@$$QEAV?$tuple@$$QEAH@56@$$QEAV?$tuple@$$QEAV?$basic_string@DU?$char_traits@D@__Cr@std@@V?$allocator@D@23@@__Cr@std@@@56@@Z
    ??$?RHAEBUpiecewise_construct_t@__Cr@std@@V?$tuple@$$QEAH@12@V?$tuple@$$QEAV?$basic_string@DU?$char_traits@D@__Cr@std@@V?$allocator@D@23@@__Cr@std@@@12@@EmplaceDecomposable@?$raw_hash_set@V?$NodeHashMapPolicy@HV?$basic_string@DU?$char_traits@D@__Cr@std@@V?$allocator@D@23@@__Cr@std@@@container_internal@absl@@U?$Hash@H@hash_internal@3@U?$equal_to@H@__Cr@std@@V?$allocator@U?$pair@$$CBHV?$basic_string@DU?$char_traits@D@__Cr@std@@V?$allocator@D@23@@__Cr@std@@@__Cr@std@@@78@@container_internal@absl@@QEBA?AU?$pair@Viterator@?$raw_hash_set@V?$NodeHashMapPolicy@HV?$basic_string@DU?$char_traits@D@__Cr@std@@V?$allocator@D@23@@__Cr@std@@@container_internal@absl@@U?$Hash@H@hash_internal@3@U?$equal_to@H@__Cr@std@@V?$allocator@U?$pair@$$CBHV?$basic_string@DU?$char_traits@D@__Cr@std@@V?$allocator@D@23@@__Cr@std@@@__Cr@std@@@78@@container_internal@absl@@_N@__Cr@std@@AEBHAEBUpiecewise_construct_t@56@$$QEAV?$tuple@$$QEAH@56@$$QEAV?$tuple@$$QEAV?$basic_string@DU?$char_traits@D@__Cr@std@@V?$allocator@D@23@@__Cr@std@@@56@@Z
    ??$?RHAEBUpiecewise_construct_t@__Cr@std@@V?$tuple@$$QEBH@12@V?$tuple@$$QEAH@12@@EmplaceDecomposable@?$raw_hash_set@U?$FlatHashMapPolicy@HH@container_internal@absl@@U?$Hash@H@hash_internal@3@U?$equal_to@H@__Cr@std@@V?$allocator@U?$pair@$$CBHH@__Cr@std@@@78@@container_internal@absl@@QEBA?AU?$pair@Viterator@?$raw_hash_set@U?$FlatHashMapPolicy@HH@container_internal@absl@@U?$Hash@H@hash_internal@3@U?$equal_to@H@__Cr@std@@V?$allocator@U?$pair@$$CBHH@__Cr@std@@@78@@container_internal@absl@@_N@__Cr@std@@AEBHAEBUpiecewise_construct_t@56@$$QEAV?$tuple@$$QEBH@56@$$QEAV?$tuple@$$QEAH@56@@Z
    ??$?RHAEBUpiecewise_construct_t@__Cr@std@@V?$tuple@$$QEBH@12@V?$tuple@$$QEAH@12@@EmplaceDecomposable@?$raw_hash_set@V?$NodeHashMapPolicy@HH@container_internal@absl@@U?$Hash@H@hash_internal@3@U?$equal_to@H@__Cr@std@@V?$allocator@U?$pair@$$CBHH@__Cr@std@@@78@@container_internal@absl@@QEBA?AU?$pair@Viterator@?$raw_hash_set@V?$NodeHashMapPolicy@HH@container_internal@absl@@U?$Hash@H@hash_internal@3@U?$equal_to@H@__Cr@std@@V?$allocator@U?$pair@$$CBHH@__Cr@std@@@78@@container_internal@absl@@_N@__Cr@std@@AEBHAEBUpiecewise_construct_t@56@$$QEAV?$tuple@$$QEBH@56@$$QEAV?$tuple@$$QEAH@56@@Z
    ??$?RHAEBUpiecewise_construct_t@__Cr@std@@V?$tuple@$$QEBH@12@V?$tuple@$$QEAV?$basic_string@DU?$char_traits@D@__Cr@std@@V?$allocator@D@23@@__Cr@std@@@12@@EmplaceDecomposable@?$raw_hash_set@U?$FlatHashMapPolicy@HV?$basic_string@DU?$char_traits@D@__Cr@std@@V?$allocator@D@23@@__Cr@std@@@container_internal@absl@@U?$Hash@H@hash_internal@3@U?$equal_to@H@__Cr@std@@V?$allocator@U?$pair@$$CBHV?$basic_string@DU?$char_traits@D@__Cr@std@@V?$allocator@D@23@@__Cr@std@@@__Cr@std@@@78@@container_internal@absl@@QEBA?AU?$pair@Viterator@?$raw_hash_set@U?$FlatHashMapPolicy@HV?$basic_string@DU?$char_traits@D@__Cr@std@@V?$allocator@D@23@@__Cr@std@@@container_internal@absl@@U?$Hash@H@hash_internal@3@U?$equal_to@H@__Cr@std@@V?$allocator@U?$pair@$$CBHV?$basic_string@DU?$char_traits@D@__Cr@std@@V?$allocator@D@23@@__Cr@std@@@__Cr@std@@@78@@container_internal@absl@@_N@__Cr@std@@AEBHAEBUpiecewise_construct_t@56@$$QEAV?$tuple@$$QEBH@56@$$QEAV?$tuple@$$QEAV?$basic_string@DU?$char_traits@D@__Cr@std@@V?$allocator@D@23@@__Cr@std@@@56@@Z
    ??$?RHAEBUpiecewise_construct_t@__Cr@std@@V?$tuple@$$QEBH@12@V?$tuple@$$QEAV?$basic_string@DU?$char_traits@D@__Cr@std@@V?$allocator@D@23@@__Cr@std@@@12@@EmplaceDecomposable@?$raw_hash_set@V?$NodeHashMapPolicy@HV?$basic_string@DU?$char_traits@D@__Cr@std@@V?$allocator@D@23@@__Cr@std@@@container_internal@absl@@U?$Hash@H@hash_internal@3@U?$equal_to@H@__Cr@std@@V?$allocator@U?$pair@$$CBHV?$basic_string@DU?$char_traits@D@__Cr@std@@V?$allocator@D@23@@__Cr@std@@@__Cr@std@@@78@@container_internal@absl@@QEBA?AU?$pair@Viterator@?$raw_hash_set@V?$NodeHashMapPolicy@HV?$basic_string@DU?$char_traits@D@__Cr@std@@V?$allocator@D@23@@__Cr@std@@@container_internal@absl@@U?$Hash@H@hash_internal@3@U?$equal_to@H@__Cr@std@@V?$allocator@U?$pair@$$CBHV?$basic_string@DU?$char_traits@D@__Cr@std@@V?$allocator@D@23@@__Cr@std@@@__Cr@std@@@78@@container_internal@absl@@_N@__Cr@std@@AEBHAEBUpiecewise_construct_t@56@$$QEAV?$tuple@$$QEBH@56@$$QEAV?$tuple@$$QEAV?$basic_string@DU?$char_traits@D@__Cr@std@@V?$allocator@D@23@@__Cr@std@@@56@@Z
    ??$?RHAEBUpiecewise_construct_t@__Cr@std@@V?$tuple@AEBH@12@V312@@?$EqualElement@H@?$raw_hash_set@U?$FlatHashMapPolicy@HH@container_internal@absl@@U?$Hash@H@hash_internal@3@U?$equal_to@H@__Cr@std@@V?$allocator@U?$pair@$$CBHH@__Cr@std@@@78@@container_internal@absl@@QEBA_NAEBHAEBUpiecewise_construct_t@__Cr@std@@$$QEAV?$tuple@AEBH@56@2@Z
    ??$?RHAEBUpiecewise_construct_t@__Cr@std@@V?$tuple@AEBH@12@V312@@?$EqualElement@H@?$raw_hash_set@V?$NodeHashMapPolicy@HH@container_internal@absl@@U?$Hash@H@hash_internal@3@U?$equal_to@H@__Cr@std@@V?$allocator@U?$pair@$$CBHH@__Cr@std@@@78@@container_internal@absl@@QEBA_NAEBHAEBUpiecewise_construct_t@__Cr@std@@$$QEAV?$tuple@AEBH@56@2@Z
    ??$?RHAEBUpiecewise_construct_t@__Cr@std@@V?$tuple@AEBH@12@V312@@?$InsertSlot@$0A@@?$raw_hash_set@U?$FlatHashMapPolicy@HH@container_internal@absl@@U?$Hash@H@hash_internal@3@U?$equal_to@H@__Cr@std@@V?$allocator@U?$pair@$$CBHH@__Cr@std@@@78@@container_internal@absl@@QEHAA?AU?$pair@Viterator@?$raw_hash_set@U?$FlatHashMapPolicy@HH@container_internal@absl@@U?$Hash@H@hash_internal@3@U?$equal_to@H@__Cr@std@@V?$allocator@U?$pair@$$CBHH@__Cr@std@@@78@@container_internal@absl@@_N@__Cr@std@@AEBHAEBUpiecewise_construct_t@56@$$QEAV?$tuple@AEBH@56@2@Z
    ??$?RHAEBUpiecewise_construct_t@__Cr@std@@V?$tuple@AEBH@12@V312@@?$InsertSlot@$0A@@?$raw_hash_set@V?$NodeHashMapPolicy@HH@container_internal@absl@@U?$Hash@H@hash_internal@3@U?$equal_to@H@__Cr@std@@V?$allocator@U?$pair@$$CBHH@__Cr@std@@@78@@container_internal@absl@@QEHAA?AU?$pair@Viterator@?$raw_hash_set@V?$NodeHashMapPolicy@HH@container_internal@absl@@U?$Hash@H@hash_internal@3@U?$equal_to@H@__Cr@std@@V?$allocator@U?$pair@$$CBHH@__Cr@std@@@78@@container_internal@absl@@_N@__Cr@std@@AEBHAEBUpiecewise_construct_t@56@$$QEAV?$tuple@AEBH@56@2@Z
    ??$?RHAEBUpiecewise_construct_t@__Cr@std@@V?$tuple@AEBH@12@V312@@EmplaceDecomposable@?$raw_hash_set@U?$FlatHashMapPolicy@HH@container_internal@absl@@U?$Hash@H@hash_internal@3@U?$equal_to@H@__Cr@std@@V?$allocator@U?$pair@$$CBHH@__Cr@std@@@78@@container_internal@absl@@QEBA?AU?$pair@Viterator@?$raw_hash_set@U?$FlatHashMapPolicy@HH@container_internal@absl@@U?$Hash@H@hash_internal@3@U?$equal_to@H@__Cr@std@@V?$allocator@U?$pair@$$CBHH@__Cr@std@@@78@@container_internal@absl@@_N@__Cr@std@@AEBHAEBUpiecewise_construct_t@56@$$QEAV?$tuple@AEBH@56@2@Z
    ??$?RHAEBUpiecewise_construct_t@__Cr@std@@V?$tuple@AEBH@12@V312@@EmplaceDecomposable@?$raw_hash_set@V?$NodeHashMapPolicy@HH@container_internal@absl@@U?$Hash@H@hash_internal@3@U?$equal_to@H@__Cr@std@@V?$allocator@U?$pair@$$CBHH@__Cr@std@@@78@@container_internal@absl@@QEBA?AU?$pair@Viterator@?$raw_hash_set@V?$NodeHashMapPolicy@HH@container_internal@absl@@U?$Hash@H@hash_internal@3@U?$equal_to@H@__Cr@std@@V?$allocator@U?$pair@$$CBHH@__Cr@std@@@78@@container_internal@absl@@_N@__Cr@std@@AEBHAEBUpiecewise_construct_t@56@$$QEAV?$tuple@AEBH@56@2@Z
    ??$?RHAEBUpiecewise_construct_t@__Cr@std@@V?$tuple@AEBH@12@V312@@FindElement@?$raw_hash_set@U?$FlatHashMapPolicy@HH@container_internal@absl@@U?$Hash@H@hash_internal@3@U?$equal_to@H@__Cr@std@@V?$allocator@U?$pair@$$CBHH@__Cr@std@@@78@@container_internal@absl@@QEBA?AVconst_iterator@123@AEBHAEBUpiecewise_construct_t@__Cr@std@@$$QEAV?$tuple@AEBH@67@2@Z
    ??$?RHAEBUpiecewise_construct_t@__Cr@std@@V?$tuple@AEBH@12@V312@@FindElement@?$raw_hash_set@V?$NodeHashMapPolicy@HH@container_internal@absl@@U?$Hash@H@hash_internal@3@U?$equal_to@H@__Cr@std@@V?$allocator@U?$pair@$$CBHH@__Cr@std@@@78@@container_internal@absl@@QEBA?AVconst_iterator@123@AEBHAEBUpiecewise_construct_t@__Cr@std@@$$QEAV?$tuple@AEBH@67@2@Z
    ??$?RHAEBUpiecewise_construct_t@__Cr@std@@V?$tuple@AEBH@12@V312@@HashElement@?$raw_hash_set@U?$FlatHashMapPolicy@HH@container_internal@absl@@U?$Hash@H@hash_internal@3@U?$equal_to@H@__Cr@std@@V?$allocator@U?$pair@$$CBHH@__Cr@std@@@78@@container_internal@absl@@QEBA_KAEBHAEBUpiecewise_construct_t@__Cr@std@@$$QEAV?$tuple@AEBH@56@2@Z
    ??$?RHAEBUpiecewise_construct_t@__Cr@std@@V?$tuple@AEBH@12@V312@@HashElement@?$raw_hash_set@V?$NodeHashMapPolicy@HH@container_internal@absl@@U?$Hash@H@hash_internal@3@U?$equal_to@H@__Cr@std@@V?$allocator@U?$pair@$$CBHH@__Cr@std@@@78@@container_internal@absl@@QEBA_KAEBHAEBUpiecewise_construct_t@__Cr@std@@$$QEAV?$tuple@AEBH@56@2@Z
    ??$?RHAEBUpiecewise_construct_t@__Cr@std@@V?$tuple@AEBH@12@V?$tuple@AEBV?$basic_string@DU?$char_traits@D@__Cr@std@@V?$allocator@D@23@@__Cr@std@@@12@@?$EqualElement@H@?$raw_hash_set@U?$FlatHashMapPolicy@HV?$basic_string@DU?$char_traits@D@__Cr@std@@V?$allocator@D@23@@__Cr@std@@@container_internal@absl@@U?$Hash@H@hash_internal@3@U?$equal_to@H@__Cr@std@@V?$allocator@U?$pair@$$CBHV?$basic_string@DU?$char_traits@D@__Cr@std@@V?$allocator@D@23@@__Cr@std@@@__Cr@std@@@78@@container_internal@absl@@QEBA_NAEBHAEBUpiecewise_construct_t@__Cr@std@@$$QEAV?$tuple@AEBH@56@$$QEAV?$tuple@AEBV?$basic_string@DU?$char_traits@D@__Cr@std@@V?$allocator@D@23@@__Cr@std@@@56@@Z
    ??$?RHAEBUpiecewise_construct_t@__Cr@std@@V?$tuple@AEBH@12@V?$tuple@AEBV?$basic_string@DU?$char_traits@D@__Cr@std@@V?$allocator@D@23@@__Cr@std@@@12@@?$EqualElement@H@?$raw_hash_set@V?$NodeHashMapPolicy@HV?$basic_string@DU?$char_traits@D@__Cr@std@@V?$allocator@D@23@@__Cr@std@@@container_internal@absl@@U?$Hash@H@hash_internal@3@U?$equal_to@H@__Cr@std@@V?$allocator@U?$pair@$$CBHV?$basic_string@DU?$char_traits@D@__Cr@std@@V?$allocator@D@23@@__Cr@std@@@__Cr@std@@@78@@container_internal@absl@@QEBA_NAEBHAEBUpiecewise_construct_t@__Cr@std@@$$QEAV?$tuple@AEBH@56@$$QEAV?$tuple@AEBV?$basic_string@DU?$char_traits@D@__Cr@std@@V?$allocator@D@23@@__Cr@std@@@56@@Z
    ??$?RHAEBUpiecewise_construct_t@__Cr@std@@V?$tuple@AEBH@12@V?$tuple@AEBV?$basic_string@DU?$char_traits@D@__Cr@std@@V?$allocator@D@23@@__Cr@std@@@12@@?$InsertSlot@$0A@@?$raw_hash_set@U?$FlatHashMapPolicy@HV?$basic_string@DU?$char_traits@D@__Cr@std@@V?$allocator@D@23@@__Cr@std@@@container_internal@absl@@U?$Hash@H@hash_internal@3@U?$equal_to@H@__Cr@std@@V?$allocator@U?$pair@$$CBHV?$basic_string@DU?$char_traits@D@__Cr@std@@V?$allocator@D@23@@__Cr@std@@@__Cr@std@@@78@@container_internal@absl@@QEHAA?AU?$pair@Viterator@?$raw_hash_set@U?$FlatHashMapPolicy@HV?$basic_string@DU?$char_traits@D@__Cr@std@@V?$allocator@D@23@@__Cr@std@@@container_internal@absl@@U?$Hash@H@hash_internal@3@U?$equal_to@H@__Cr@std@@V?$allocator@U?$pair@$$CBHV?$basic_string@DU?$char_traits@D@__Cr@std@@V?$allocator@D@23@@__Cr@std@@@__Cr@std@@@78@@container_internal@absl@@_N@__Cr@std@@AEBHAEBUpiecewise_construct_t@56@$$QEAV?$tuple@AEBH@56@$$QEAV?$tuple@AEBV?$basic_string@DU?$char_traits@D@__Cr@std@@V?$allocator@D@23@@__Cr@std@@@56@@Z
    ??$?RHAEBUpiecewise_construct_t@__Cr@std@@V?$tuple@AEBH@12@V?$tuple@AEBV?$basic_string@DU?$char_traits@D@__Cr@std@@V?$allocator@D@23@@__Cr@std@@@12@@?$InsertSlot@$0A@@?$raw_hash_set@V?$NodeHashMapPolicy@HV?$basic_string@DU?$char_traits@D@__Cr@std@@V?$allocator@D@23@@__Cr@std@@@container_internal@absl@@U?$Hash@H@hash_internal@3@U?$equal_to@H@__Cr@std@@V?$allocator@U?$pair@$$CBHV?$basic_string@DU?$char_traits@D@__Cr@std@@V?$allocator@D@23@@__Cr@std@@@__Cr@std@@@78@@container_internal@absl@@QEHAA?AU?$pair@Viterator@?$raw_hash_set@V?$NodeHashMapPolicy@HV?$basic_string@DU?$char_traits@D@__Cr@std@@V?$allocator@D@23@@__Cr@std@@@container_internal@absl@@U?$Hash@H@hash_internal@3@U?$equal_to@H@__Cr@std@@V?$allocator@U?$pair@$$CBHV?$basic_string@DU?$char_traits@D@__Cr@std@@V?$allocator@D@23@@__Cr@std@@@__Cr@std@@@78@@container_internal@absl@@_N@__Cr@std@@AEBHAEBUpiecewise_construct_t@56@$$QEAV?$tuple@AEBH@56@$$QEAV?$tuple@AEBV?$basic_string@DU?$char_traits@D@__Cr@std@@V?$allocator@D@23@@__Cr@std@@@56@@Z
    ??$?RHAEBUpiecewise_construct_t@__Cr@std@@V?$tuple@AEBH@12@V?$tuple@AEBV?$basic_string@DU?$char_traits@D@__Cr@std@@V?$allocator@D@23@@__Cr@std@@@12@@EmplaceDecomposable@?$raw_hash_set@U?$FlatHashMapPolicy@HV?$basic_string@DU?$char_traits@D@__Cr@std@@V?$allocator@D@23@@__Cr@std@@@container_internal@absl@@U?$Hash@H@hash_internal@3@U?$equal_to@H@__Cr@std@@V?$allocator@U?$pair@$$CBHV?$basic_string@DU?$char_traits@D@__Cr@std@@V?$allocator@D@23@@__Cr@std@@@__Cr@std@@@78@@container_internal@absl@@QEBA?AU?$pair@Viterator@?$raw_hash_set@U?$FlatHashMapPolicy@HV?$basic_string@DU?$char_traits@D@__Cr@std@@V?$allocator@D@23@@__Cr@std@@@container_internal@absl@@U?$Hash@H@hash_internal@3@U?$equal_to@H@__Cr@std@@V?$allocator@U?$pair@$$CBHV?$basic_string@DU?$char_traits@D@__Cr@std@@V?$allocator@D@23@@__Cr@std@@@__Cr@std@@@78@@container_internal@absl@@_N@__Cr@std@@AEBHAEBUpiecewise_construct_t@56@$$QEAV?$tuple@AEBH@56@$$QEAV?$tuple@AEBV?$basic_string@DU?$char_traits@D@__Cr@std@@V?$allocator@D@23@@__Cr@std@@@56@@Z
    ??$?RHAEBUpiecewise_construct_t@__Cr@std@@V?$tuple@AEBH@12@V?$tuple@AEBV?$basic_string@DU?$char_traits@D@__Cr@std@@V?$allocator@D@23@@__Cr@std@@@12@@EmplaceDecomposable@?$raw_hash_set@V?$NodeHashMapPolicy@HV?$basic_string@DU?$char_traits@D@__Cr@std@@V?$allocator@D@23@@__Cr@std@@@container_internal@absl@@U?$Hash@H@hash_internal@3@U?$equal_to@H@__Cr@std@@V?$allocator@U?$pair@$$CBHV?$basic_string@DU?$char_traits@D@__Cr@std@@V?$allocator@D@23@@__Cr@std@@@__Cr@std@@@78@@container_internal@absl@@QEBA?AU?$pair@Viterator@?$raw_hash_set@V?$NodeHashMapPolicy@HV?$basic_string@DU?$char_traits@D@__Cr@std@@V?$allocator@D@23@@__Cr@std@@@container_internal@absl@@U?$Hash@H@hash_internal@3@U?$equal_to@H@__Cr@std@@V?$allocator@U?$pair@$$CBHV?$basic_string@DU?$char_traits@D@__Cr@std@@V?$allocator@D@23@@__Cr@std@@@__Cr@std@@@78@@container_internal@absl@@_N@__Cr@std@@AEBHAEBUpiecewise_construct_t@56@$$QEAV?$tuple@AEBH@56@$$QEAV?$tuple@AEBV?$basic_string@DU?$char_traits@D@__Cr@std@@V?$allocator@D@23@@__Cr@std@@@56@@Z
    ??$?RHAEBUpiecewise_construct_t@__Cr@std@@V?$tuple@AEBH@12@V?$tuple@AEBV?$basic_string@DU?$char_traits@D@__Cr@std@@V?$allocator@D@23@@__Cr@std@@@12@@FindElement@?$raw_hash_set@U?$FlatHashMapPolicy@HV?$basic_string@DU?$char_traits@D@__Cr@std@@V?$allocator@D@23@@__Cr@std@@@container_internal@absl@@U?$Hash@H@hash_internal@3@U?$equal_to@H@__Cr@std@@V?$allocator@U?$pair@$$CBHV?$basic_string@DU?$char_traits@D@__Cr@std@@V?$allocator@D@23@@__Cr@std@@@__Cr@std@@@78@@container_internal@absl@@QEBA?AVconst_iterator@123@AEBHAEBUpiecewise_construct_t@__Cr@std@@$$QEAV?$tuple@AEBH@67@$$QEAV?$tuple@AEBV?$basic_string@DU?$char_traits@D@__Cr@std@@V?$allocator@D@23@@__Cr@std@@@67@@Z
    ??$?RHAEBUpiecewise_construct_t@__Cr@std@@V?$tuple@AEBH@12@V?$tuple@AEBV?$basic_string@DU?$char_traits@D@__Cr@std@@V?$allocator@D@23@@__Cr@std@@@12@@FindElement@?$raw_hash_set@V?$NodeHashMapPolicy@HV?$basic_string@DU?$char_traits@D@__Cr@std@@V?$allocator@D@23@@__Cr@std@@@container_internal@absl@@U?$Hash@H@hash_internal@3@U?$equal_to@H@__Cr@std@@V?$allocator@U?$pair@$$CBHV?$basic_string@DU?$char_traits@D@__Cr@std@@V?$allocator@D@23@@__Cr@std@@@__Cr@std@@@78@@container_internal@absl@@QEBA?AVconst_iterator@123@AEBHAEBUpiecewise_construct_t@__Cr@std@@$$QEAV?$tuple@AEBH@67@$$QEAV?$tuple@AEBV?$basic_string@DU?$char_traits@D@__Cr@std@@V?$allocator@D@23@@__Cr@std@@@67@@Z
    ??$?RHAEBUpiecewise_construct_t@__Cr@std@@V?$tuple@AEBH@12@V?$tuple@AEBV?$basic_string@DU?$char_traits@D@__Cr@std@@V?$allocator@D@23@@__Cr@std@@@12@@HashElement@?$raw_hash_set@U?$FlatHashMapPolicy@HV?$basic_string@DU?$char_traits@D@__Cr@std@@V?$allocator@D@23@@__Cr@std@@@container_internal@absl@@U?$Hash@H@hash_internal@3@U?$equal_to@H@__Cr@std@@V?$allocator@U?$pair@$$CBHV?$basic_string@DU?$char_traits@D@__Cr@std@@V?$allocator@D@23@@__Cr@std@@@__Cr@std@@@78@@container_internal@absl@@QEBA_KAEBHAEBUpiecewise_construct_t@__Cr@std@@$$QEAV?$tuple@AEBH@56@$$QEAV?$tuple@AEBV?$basic_string@DU?$char_traits@D@__Cr@std@@V?$allocator@D@23@@__Cr@std@@@56@@Z
    ??$?RHAEBUpiecewise_construct_t@__Cr@std@@V?$tuple@AEBH@12@V?$tuple@AEBV?$basic_string@DU?$char_traits@D@__Cr@std@@V?$allocator@D@23@@__Cr@std@@@12@@HashElement@?$raw_hash_set@V?$NodeHashMapPolicy@HV?$basic_string@DU?$char_traits@D@__Cr@std@@V?$allocator@D@23@@__Cr@std@@@container_internal@absl@@U?$Hash@H@hash_internal@3@U?$equal_to@H@__Cr@std@@V?$allocator@U?$pair@$$CBHV?$basic_string@DU?$char_traits@D@__Cr@std@@V?$allocator@D@23@@__Cr@std@@@__Cr@std@@@78@@container_internal@absl@@QEBA_KAEBHAEBUpiecewise_construct_t@__Cr@std@@$$QEAV?$tuple@AEBH@56@$$QEAV?$tuple@AEBV?$basic_string@DU?$char_traits@D@__Cr@std@@V?$allocator@D@23@@__Cr@std@@@56@@Z
    ??$?RHH@EmplaceDecomposable@?$raw_hash_set@U?$FlatHashSetPolicy@H@container_internal@absl@@U?$Hash@H@hash_internal@3@U?$equal_to@H@__Cr@std@@V?$allocator@H@78@@container_internal@absl@@QEBA?AU?$pair@Viterator@?$raw_hash_set@U?$FlatHashSetPolicy@H@container_internal@absl@@U?$Hash@H@hash_internal@3@U?$equal_to@H@__Cr@std@@V?$allocator@H@78@@container_internal@absl@@_N@__Cr@std@@AEBH$$QEAH@Z
    ??$?RHH@EmplaceDecomposable@?$raw_hash_set@U?$NodeHashSetPolicy@H@container_internal@absl@@U?$Hash@H@hash_internal@3@U?$equal_to@H@__Cr@std@@V?$allocator@H@78@@container_internal@absl@@QEBA?AU?$pair@Viterator@?$raw_hash_set@U?$NodeHashSetPolicy@H@container_internal@absl@@U?$Hash@H@hash_internal@3@U?$equal_to@H@__Cr@std@@V?$allocator@H@78@@container_internal@absl@@_N@__Cr@std@@AEBH$$QEAH@Z
    ??$?RIAEAI@?$EqualElement@I@?$raw_hash_set@U?$FlatHashSetPolicy@I@container_internal@absl@@U?$Hash@I@hash_internal@3@U?$equal_to@I@__Cr@std@@V?$allocator@I@78@@container_internal@absl@@QEBA_NAEBIAEAI@Z
    ??$?RIAEAI@?$EqualElement@I@?$raw_hash_set@U?$NodeHashSetPolicy@I@container_internal@absl@@U?$Hash@I@hash_internal@3@U?$equal_to@I@__Cr@std@@V?$allocator@I@78@@container_internal@absl@@QEBA_NAEBIAEAI@Z
    ??$?RIAEAI@HashElement@?$raw_hash_set@U?$FlatHashSetPolicy@I@container_internal@absl@@U?$Hash@I@hash_internal@3@U?$equal_to@I@__Cr@std@@V?$allocator@I@78@@container_internal@absl@@QEBA_KAEBIAEAI@Z
    ??$?RIAEAI@HashElement@?$raw_hash_set@U?$NodeHashSetPolicy@I@container_internal@absl@@U?$Hash@I@hash_internal@3@U?$equal_to@I@__Cr@std@@V?$allocator@I@78@@container_internal@absl@@QEBA_KAEBIAEAI@Z
    ??$?RIAEBI@?$InsertSlot@$0A@@?$raw_hash_set@U?$FlatHashSetPolicy@I@container_internal@absl@@U?$Hash@I@hash_internal@3@U?$equal_to@I@__Cr@std@@V?$allocator@I@78@@container_internal@absl@@QEHAA?AU?$pair@Viterator@?$raw_hash_set@U?$FlatHashSetPolicy@I@container_internal@absl@@U?$Hash@I@hash_internal@3@U?$equal_to@I@__Cr@std@@V?$allocator@I@78@@container_internal@absl@@_N@__Cr@std@@AEBI0@Z
    ??$?RIAEBI@?$InsertSlot@$0A@@?$raw_hash_set@U?$NodeHashSetPolicy@I@container_internal@absl@@U?$Hash@I@hash_internal@3@U?$equal_to@I@__Cr@std@@V?$allocator@I@78@@container_internal@absl@@QEHAA?AU?$pair@Viterator@?$raw_hash_set@U?$NodeHashSetPolicy@I@container_internal@absl@@U?$Hash@I@hash_internal@3@U?$equal_to@I@__Cr@std@@V?$allocator@I@78@@container_internal@absl@@_N@__Cr@std@@AEBI0@Z
    ??$?RIAEBI@EmplaceDecomposable@?$raw_hash_set@U?$FlatHashSetPolicy@I@container_internal@absl@@U?$Hash@I@hash_internal@3@U?$equal_to@I@__Cr@std@@V?$allocator@I@78@@container_internal@absl@@QEBA?AU?$pair@Viterator@?$raw_hash_set@U?$FlatHashSetPolicy@I@container_internal@absl@@U?$Hash@I@hash_internal@3@U?$equal_to@I@__Cr@std@@V?$allocator@I@78@@container_internal@absl@@_N@__Cr@std@@AEBI0@Z
    ??$?RIAEBI@EmplaceDecomposable@?$raw_hash_set@U?$NodeHashSetPolicy@I@container_internal@absl@@U?$Hash@I@hash_internal@3@U?$equal_to@I@__Cr@std@@V?$allocator@I@78@@container_internal@absl@@QEBA?AU?$pair@Viterator@?$raw_hash_set@U?$NodeHashSetPolicy@I@container_internal@absl@@U?$Hash@I@hash_internal@3@U?$equal_to@I@__Cr@std@@V?$allocator@I@78@@container_internal@absl@@_N@__Cr@std@@AEBI0@Z
    ??$?RIAEBI@FindElement@?$raw_hash_set@U?$FlatHashSetPolicy@I@container_internal@absl@@U?$Hash@I@hash_internal@3@U?$equal_to@I@__Cr@std@@V?$allocator@I@78@@container_internal@absl@@QEBA?AVconst_iterator@123@AEBI0@Z
    ??$?RIAEBI@FindElement@?$raw_hash_set@U?$NodeHashSetPolicy@I@container_internal@absl@@U?$Hash@I@hash_internal@3@U?$equal_to@I@__Cr@std@@V?$allocator@I@78@@container_internal@absl@@QEBA?AVconst_iterator@123@AEBI0@Z
    ??$?RIAEBUpiecewise_construct_t@__Cr@std@@V?$tuple@$$QEAI@12@V312@@EmplaceDecomposable@?$raw_hash_set@U?$FlatHashMapPolicy@II@container_internal@absl@@U?$Hash@I@hash_internal@3@U?$equal_to@I@__Cr@std@@V?$allocator@U?$pair@$$CBII@__Cr@std@@@78@@container_internal@absl@@QEBA?AU?$pair@Viterator@?$raw_hash_set@U?$FlatHashMapPolicy@II@container_internal@absl@@U?$Hash@I@hash_internal@3@U?$equal_to@I@__Cr@std@@V?$allocator@U?$pair@$$CBII@__Cr@std@@@78@@container_internal@absl@@_N@__Cr@std@@AEBIAEBUpiecewise_construct_t@56@$$QEAV?$tuple@$$QEAI@56@2@Z
    ??$?RIAEBUpiecewise_construct_t@__Cr@std@@V?$tuple@$$QEAI@12@V312@@EmplaceDecomposable@?$raw_hash_set@V?$NodeHashMapPolicy@II@container_internal@absl@@U?$Hash@I@hash_internal@3@U?$equal_to@I@__Cr@std@@V?$allocator@U?$pair@$$CBII@__Cr@std@@@78@@container_internal@absl@@QEBA?AU?$pair@Viterator@?$raw_hash_set@V?$NodeHashMapPolicy@II@container_internal@absl@@U?$Hash@I@hash_internal@3@U?$equal_to@I@__Cr@std@@V?$allocator@U?$pair@$$CBII@__Cr@std@@@78@@container_internal@absl@@_N@__Cr@std@@AEBIAEBUpiecewise_construct_t@56@$$QEAV?$tuple@$$QEAI@56@2@Z
    ??$?RIAEBUpiecewise_construct_t@__Cr@std@@V?$tuple@$$QEAI@12@V?$tuple@$$QEAV?$basic_string@DU?$char_traits@D@__Cr@std@@V?$allocator@D@23@@__Cr@std@@@12@@EmplaceDecomposable@?$raw_hash_set@U?$FlatHashMapPolicy@IV?$basic_string@DU?$char_traits@D@__Cr@std@@V?$allocator@D@23@@__Cr@std@@@container_internal@absl@@U?$Hash@I@hash_internal@3@U?$equal_to@I@__Cr@std@@V?$allocator@U?$pair@$$CBIV?$basic_string@DU?$char_traits@D@__Cr@std@@V?$allocator@D@23@@__Cr@std@@@__Cr@std@@@78@@container_internal@absl@@QEBA?AU?$pair@Viterator@?$raw_hash_set@U?$FlatHashMapPolicy@IV?$basic_string@DU?$char_traits@D@__Cr@std@@V?$allocator@D@23@@__Cr@std@@@container_internal@absl@@U?$Hash@I@hash_internal@3@U?$equal_to@I@__Cr@std@@V?$allocator@U?$pair@$$CBIV?$basic_string@DU?$char_traits@D@__Cr@std@@V?$allocator@D@23@@__Cr@std@@@__Cr@std@@@78@@container_internal@absl@@_N@__Cr@std@@AEBIAEBUpiecewise_construct_t@56@$$QEAV?$tuple@$$QEAI@56@$$QEAV?$tuple@$$QEAV?$basic_string@DU?$char_traits@D@__Cr@std@@V?$allocator@D@23@@__Cr@std@@@56@@Z
    ??$?RIAEBUpiecewise_construct_t@__Cr@std@@V?$tuple@$$QEAI@12@V?$tuple@$$QEAV?$basic_string@DU?$char_traits@D@__Cr@std@@V?$allocator@D@23@@__Cr@std@@@12@@EmplaceDecomposable@?$raw_hash_set@V?$NodeHashMapPolicy@IV?$basic_string@DU?$char_traits@D@__Cr@std@@V?$allocator@D@23@@__Cr@std@@@container_internal@absl@@U?$Hash@I@hash_internal@3@U?$equal_to@I@__Cr@std@@V?$allocator@U?$pair@$$CBIV?$basic_string@DU?$char_traits@D@__Cr@std@@V?$allocator@D@23@@__Cr@std@@@__Cr@std@@@78@@container_internal@absl@@QEBA?AU?$pair@Viterator@?$raw_hash_set@V?$NodeHashMapPolicy@IV?$basic_string@DU?$char_traits@D@__Cr@std@@V?$allocator@D@23@@__Cr@std@@@container_internal@absl@@U?$Hash@I@hash_internal@3@U?$equal_to@I@__Cr@std@@V?$allocator@U?$pair@$$CBIV?$basic_string@DU?$char_traits@D@__Cr@std@@V?$allocator@D@23@@__Cr@std@@@__Cr@std@@@78@@container_internal@absl@@_N@__Cr@std@@AEBIAEBUpiecewise_construct_t@56@$$QEAV?$tuple@$$QEAI@56@$$QEAV?$tuple@$$QEAV?$basic_string@DU?$char_traits@D@__Cr@std@@V?$allocator@D@23@@__Cr@std@@@56@@Z
    ??$?RIAEBUpiecewise_construct_t@__Cr@std@@V?$tuple@$$QEBI@12@V?$tuple@$$QEAI@12@@EmplaceDecomposable@?$raw_hash_set@U?$FlatHashMapPolicy@II@container_internal@absl@@U?$Hash@I@hash_internal@3@U?$equal_to@I@__Cr@std@@V?$allocator@U?$pair@$$CBII@__Cr@std@@@78@@container_internal@absl@@QEBA?AU?$pair@Viterator@?$raw_hash_set@U?$FlatHashMapPolicy@II@container_internal@absl@@U?$Hash@I@hash_internal@3@U?$equal_to@I@__Cr@std@@V?$allocator@U?$pair@$$CBII@__Cr@std@@@78@@container_internal@absl@@_N@__Cr@std@@AEBIAEBUpiecewise_construct_t@56@$$QEAV?$tuple@$$QEBI@56@$$QEAV?$tuple@$$QEAI@56@@Z
    ??$?RIAEBUpiecewise_construct_t@__Cr@std@@V?$tuple@$$QEBI@12@V?$tuple@$$QEAI@12@@EmplaceDecomposable@?$raw_hash_set@V?$NodeHashMapPolicy@II@container_internal@absl@@U?$Hash@I@hash_internal@3@U?$equal_to@I@__Cr@std@@V?$allocator@U?$pair@$$CBII@__Cr@std@@@78@@container_internal@absl@@QEBA?AU?$pair@Viterator@?$raw_hash_set@V?$NodeHashMapPolicy@II@container_internal@absl@@U?$Hash@I@hash_internal@3@U?$equal_to@I@__Cr@std@@V?$allocator@U?$pair@$$CBII@__Cr@std@@@78@@container_internal@absl@@_N@__Cr@std@@AEBIAEBUpiecewise_construct_t@56@$$QEAV?$tuple@$$QEBI@56@$$QEAV?$tuple@$$QEAI@56@@Z
    ??$?RIAEBUpiecewise_construct_t@__Cr@std@@V?$tuple@$$QEBI@12@V?$tuple@$$QEAV?$basic_string@DU?$char_traits@D@__Cr@std@@V?$allocator@D@23@@__Cr@std@@@12@@EmplaceDecomposable@?$raw_hash_set@U?$FlatHashMapPolicy@IV?$basic_string@DU?$char_traits@D@__Cr@std@@V?$allocator@D@23@@__Cr@std@@@container_internal@absl@@U?$Hash@I@hash_internal@3@U?$equal_to@I@__Cr@std@@V?$allocator@U?$pair@$$CBIV?$basic_string@DU?$char_traits@D@__Cr@std@@V?$allocator@D@23@@__Cr@std@@@__Cr@std@@@78@@container_internal@absl@@QEBA?AU?$pair@Viterator@?$raw_hash_set@U?$FlatHashMapPolicy@IV?$basic_string@DU?$char_traits@D@__Cr@std@@V?$allocator@D@23@@__Cr@std@@@container_internal@absl@@U?$Hash@I@hash_internal@3@U?$equal_to@I@__Cr@std@@V?$allocator@U?$pair@$$CBIV?$basic_string@DU?$char_traits@D@__Cr@std@@V?$allocator@D@23@@__Cr@std@@@__Cr@std@@@78@@container_internal@absl@@_N@__Cr@std@@AEBIAEBUpiecewise_construct_t@56@$$QEAV?$tuple@$$QEBI@56@$$QEAV?$tuple@$$QEAV?$basic_string@DU?$char_traits@D@__Cr@std@@V?$allocator@D@23@@__Cr@std@@@56@@Z
    ??$?RIAEBUpiecewise_construct_t@__Cr@std@@V?$tuple@$$QEBI@12@V?$tuple@$$QEAV?$basic_string@DU?$char_traits@D@__Cr@std@@V?$allocator@D@23@@__Cr@std@@@12@@EmplaceDecomposable@?$raw_hash_set@V?$NodeHashMapPolicy@IV?$basic_string@DU?$char_traits@D@__Cr@std@@V?$allocator@D@23@@__Cr@std@@@container_internal@absl@@U?$Hash@I@hash_internal@3@U?$equal_to@I@__Cr@std@@V?$allocator@U?$pair@$$CBIV?$basic_string@DU?$char_traits@D@__Cr@std@@V?$allocator@D@23@@__Cr@std@@@__Cr@std@@@78@@container_internal@absl@@QEBA?AU?$pair@Viterator@?$raw_hash_set@V?$NodeHashMapPolicy@IV?$basic_string@DU?$char_traits@D@__Cr@std@@V?$allocator@D@23@@__Cr@std@@@container_internal@absl@@U?$Hash@I@hash_internal@3@U?$equal_to@I@__Cr@std@@V?$allocator@U?$pair@$$CBIV?$basic_string@DU?$char_traits@D@__Cr@std@@V?$allocator@D@23@@__Cr@std@@@__Cr@std@@@78@@container_internal@absl@@_N@__Cr@std@@AEBIAEBUpiecewise_construct_t@56@$$QEAV?$tuple@$$QEBI@56@$$QEAV?$tuple@$$QEAV?$basic_string@DU?$char_traits@D@__Cr@std@@V?$allocator@D@23@@__Cr@std@@@56@@Z
    ??$?RIAEBUpiecewise_construct_t@__Cr@std@@V?$tuple@AEBI@12@V312@@?$EqualElement@I@?$raw_hash_set@U?$FlatHashMapPolicy@II@container_internal@absl@@U?$Hash@I@hash_internal@3@U?$equal_to@I@__Cr@std@@V?$allocator@U?$pair@$$CBII@__Cr@std@@@78@@container_internal@absl@@QEBA_NAEBIAEBUpiecewise_construct_t@__Cr@std@@$$QEAV?$tuple@AEBI@56@2@Z
    ??$?RIAEBUpiecewise_construct_t@__Cr@std@@V?$tuple@AEBI@12@V312@@?$EqualElement@I@?$raw_hash_set@V?$NodeHashMapPolicy@II@container_internal@absl@@U?$Hash@I@hash_internal@3@U?$equal_to@I@__Cr@std@@V?$allocator@U?$pair@$$CBII@__Cr@std@@@78@@container_internal@absl@@QEBA_NAEBIAEBUpiecewise_construct_t@__Cr@std@@$$QEAV?$tuple@AEBI@56@2@Z
    ??$?RIAEBUpiecewise_construct_t@__Cr@std@@V?$tuple@AEBI@12@V312@@?$InsertSlot@$0A@@?$raw_hash_set@U?$FlatHashMapPolicy@II@container_internal@absl@@U?$Hash@I@hash_internal@3@U?$equal_to@I@__Cr@std@@V?$allocator@U?$pair@$$CBII@__Cr@std@@@78@@container_internal@absl@@QEHAA?AU?$pair@Viterator@?$raw_hash_set@U?$FlatHashMapPolicy@II@container_internal@absl@@U?$Hash@I@hash_internal@3@U?$equal_to@I@__Cr@std@@V?$allocator@U?$pair@$$CBII@__Cr@std@@@78@@container_internal@absl@@_N@__Cr@std@@AEBIAEBUpiecewise_construct_t@56@$$QEAV?$tuple@AEBI@56@2@Z
    ??$?RIAEBUpiecewise_construct_t@__Cr@std@@V?$tuple@AEBI@12@V312@@?$InsertSlot@$0A@@?$raw_hash_set@V?$NodeHashMapPolicy@II@container_internal@absl@@U?$Hash@I@hash_internal@3@U?$equal_to@I@__Cr@std@@V?$allocator@U?$pair@$$CBII@__Cr@std@@@78@@container_internal@absl@@QEHAA?AU?$pair@Viterator@?$raw_hash_set@V?$NodeHashMapPolicy@II@container_internal@absl@@U?$Hash@I@hash_internal@3@U?$equal_to@I@__Cr@std@@V?$allocator@U?$pair@$$CBII@__Cr@std@@@78@@container_internal@absl@@_N@__Cr@std@@AEBIAEBUpiecewise_construct_t@56@$$QEAV?$tuple@AEBI@56@2@Z
    ??$?RIAEBUpiecewise_construct_t@__Cr@std@@V?$tuple@AEBI@12@V312@@EmplaceDecomposable@?$raw_hash_set@U?$FlatHashMapPolicy@II@container_internal@absl@@U?$Hash@I@hash_internal@3@U?$equal_to@I@__Cr@std@@V?$allocator@U?$pair@$$CBII@__Cr@std@@@78@@container_internal@absl@@QEBA?AU?$pair@Viterator@?$raw_hash_set@U?$FlatHashMapPolicy@II@container_internal@absl@@U?$Hash@I@hash_internal@3@U?$equal_to@I@__Cr@std@@V?$allocator@U?$pair@$$CBII@__Cr@std@@@78@@container_internal@absl@@_N@__Cr@std@@AEBIAEBUpiecewise_construct_t@56@$$QEAV?$tuple@AEBI@56@2@Z
    ??$?RIAEBUpiecewise_construct_t@__Cr@std@@V?$tuple@AEBI@12@V312@@EmplaceDecomposable@?$raw_hash_set@V?$NodeHashMapPolicy@II@container_internal@absl@@U?$Hash@I@hash_internal@3@U?$equal_to@I@__Cr@std@@V?$allocator@U?$pair@$$CBII@__Cr@std@@@78@@container_internal@absl@@QEBA?AU?$pair@Viterator@?$raw_hash_set@V?$NodeHashMapPolicy@II@container_internal@absl@@U?$Hash@I@hash_internal@3@U?$equal_to@I@__Cr@std@@V?$allocator@U?$pair@$$CBII@__Cr@std@@@78@@container_internal@absl@@_N@__Cr@std@@AEBIAEBUpiecewise_construct_t@56@$$QEAV?$tuple@AEBI@56@2@Z
    ??$?RIAEBUpiecewise_construct_t@__Cr@std@@V?$tuple@AEBI@12@V312@@FindElement@?$raw_hash_set@U?$FlatHashMapPolicy@II@container_internal@absl@@U?$Hash@I@hash_internal@3@U?$equal_to@I@__Cr@std@@V?$allocator@U?$pair@$$CBII@__Cr@std@@@78@@container_internal@absl@@QEBA?AVconst_iterator@123@AEBIAEBUpiecewise_construct_t@__Cr@std@@$$QEAV?$tuple@AEBI@67@2@Z
    ??$?RIAEBUpiecewise_construct_t@__Cr@std@@V?$tuple@AEBI@12@V312@@FindElement@?$raw_hash_set@V?$NodeHashMapPolicy@II@container_internal@absl@@U?$Hash@I@hash_internal@3@U?$equal_to@I@__Cr@std@@V?$allocator@U?$pair@$$CBII@__Cr@std@@@78@@container_internal@absl@@QEBA?AVconst_iterator@123@AEBIAEBUpiecewise_construct_t@__Cr@std@@$$QEAV?$tuple@AEBI@67@2@Z
    ??$?RIAEBUpiecewise_construct_t@__Cr@std@@V?$tuple@AEBI@12@V312@@HashElement@?$raw_hash_set@U?$FlatHashMapPolicy@II@container_internal@absl@@U?$Hash@I@hash_internal@3@U?$equal_to@I@__Cr@std@@V?$allocator@U?$pair@$$CBII@__Cr@std@@@78@@container_internal@absl@@QEBA_KAEBIAEBUpiecewise_construct_t@__Cr@std@@$$QEAV?$tuple@AEBI@56@2@Z
    ??$?RIAEBUpiecewise_construct_t@__Cr@std@@V?$tuple@AEBI@12@V312@@HashElement@?$raw_hash_set@V?$NodeHashMapPolicy@II@container_internal@absl@@U?$Hash@I@hash_internal@3@U?$equal_to@I@__Cr@std@@V?$allocator@U?$pair@$$CBII@__Cr@std@@@78@@container_internal@absl@@QEBA_KAEBIAEBUpiecewise_construct_t@__Cr@std@@$$QEAV?$tuple@AEBI@56@2@Z
    ??$?RIAEBUpiecewise_construct_t@__Cr@std@@V?$tuple@AEBI@12@V?$tuple@AEBV?$basic_string@DU?$char_traits@D@__Cr@std@@V?$allocator@D@23@@__Cr@std@@@12@@?$EqualElement@I@?$raw_hash_set@U?$FlatHashMapPolicy@IV?$basic_string@DU?$char_traits@D@__Cr@std@@V?$allocator@D@23@@__Cr@std@@@container_internal@absl@@U?$Hash@I@hash_internal@3@U?$equal_to@I@__Cr@std@@V?$allocator@U?$pair@$$CBIV?$basic_string@DU?$char_traits@D@__Cr@std@@V?$allocator@D@23@@__Cr@std@@@__Cr@std@@@78@@container_internal@absl@@QEBA_NAEBIAEBUpiecewise_construct_t@__Cr@std@@$$QEAV?$tuple@AEBI@56@$$QEAV?$tuple@AEBV?$basic_string@DU?$char_traits@D@__Cr@std@@V?$allocator@D@23@@__Cr@std@@@56@@Z
    ??$?RIAEBUpiecewise_construct_t@__Cr@std@@V?$tuple@AEBI@12@V?$tuple@AEBV?$basic_string@DU?$char_traits@D@__Cr@std@@V?$allocator@D@23@@__Cr@std@@@12@@?$EqualElement@I@?$raw_hash_set@V?$NodeHashMapPolicy@IV?$basic_string@DU?$char_traits@D@__Cr@std@@V?$allocator@D@23@@__Cr@std@@@container_internal@absl@@U?$Hash@I@hash_internal@3@U?$equal_to@I@__Cr@std@@V?$allocator@U?$pair@$$CBIV?$basic_string@DU?$char_traits@D@__Cr@std@@V?$allocator@D@23@@__Cr@std@@@__Cr@std@@@78@@container_internal@absl@@QEBA_NAEBIAEBUpiecewise_construct_t@__Cr@std@@$$QEAV?$tuple@AEBI@56@$$QEAV?$tuple@AEBV?$basic_string@DU?$char_traits@D@__Cr@std@@V?$allocator@D@23@@__Cr@std@@@56@@Z
    ??$?RIAEBUpiecewise_construct_t@__Cr@std@@V?$tuple@AEBI@12@V?$tuple@AEBV?$basic_string@DU?$char_traits@D@__Cr@std@@V?$allocator@D@23@@__Cr@std@@@12@@?$InsertSlot@$0A@@?$raw_hash_set@U?$FlatHashMapPolicy@IV?$basic_string@DU?$char_traits@D@__Cr@std@@V?$allocator@D@23@@__Cr@std@@@container_internal@absl@@U?$Hash@I@hash_internal@3@U?$equal_to@I@__Cr@std@@V?$allocator@U?$pair@$$CBIV?$basic_string@DU?$char_traits@D@__Cr@std@@V?$allocator@D@23@@__Cr@std@@@__Cr@std@@@78@@container_internal@absl@@QEHAA?AU?$pair@Viterator@?$raw_hash_set@U?$FlatHashMapPolicy@IV?$basic_string@DU?$char_traits@D@__Cr@std@@V?$allocator@D@23@@__Cr@std@@@container_internal@absl@@U?$Hash@I@hash_internal@3@U?$equal_to@I@__Cr@std@@V?$allocator@U?$pair@$$CBIV?$basic_string@DU?$char_traits@D@__Cr@std@@V?$allocator@D@23@@__Cr@std@@@__Cr@std@@@78@@container_internal@absl@@_N@__Cr@std@@AEBIAEBUpiecewise_construct_t@56@$$QEAV?$tuple@AEBI@56@$$QEAV?$tuple@AEBV?$basic_string@DU?$char_traits@D@__Cr@std@@V?$allocator@D@23@@__Cr@std@@@56@@Z
    ??$?RIAEBUpiecewise_construct_t@__Cr@std@@V?$tuple@AEBI@12@V?$tuple@AEBV?$basic_string@DU?$char_traits@D@__Cr@std@@V?$allocator@D@23@@__Cr@std@@@12@@?$InsertSlot@$0A@@?$raw_hash_set@V?$NodeHashMapPolicy@IV?$basic_string@DU?$char_traits@D@__Cr@std@@V?$allocator@D@23@@__Cr@std@@@container_internal@absl@@U?$Hash@I@hash_internal@3@U?$equal_to@I@__Cr@std@@V?$allocator@U?$pair@$$CBIV?$basic_string@DU?$char_traits@D@__Cr@std@@V?$allocator@D@23@@__Cr@std@@@__Cr@std@@@78@@container_internal@absl@@QEHAA?AU?$pair@Viterator@?$raw_hash_set@V?$NodeHashMapPolicy@IV?$basic_string@DU?$char_traits@D@__Cr@std@@V?$allocator@D@23@@__Cr@std@@@container_internal@absl@@U?$Hash@I@hash_internal@3@U?$equal_to@I@__Cr@std@@V?$allocator@U?$pair@$$CBIV?$basic_string@DU?$char_traits@D@__Cr@std@@V?$allocator@D@23@@__Cr@std@@@__Cr@std@@@78@@container_internal@absl@@_N@__Cr@std@@AEBIAEBUpiecewise_construct_t@56@$$QEAV?$tuple@AEBI@56@$$QEAV?$tuple@AEBV?$basic_string@DU?$char_traits@D@__Cr@std@@V?$allocator@D@23@@__Cr@std@@@56@@Z
    ??$?RIAEBUpiecewise_construct_t@__Cr@std@@V?$tuple@AEBI@12@V?$tuple@AEBV?$basic_string@DU?$char_traits@D@__Cr@std@@V?$allocator@D@23@@__Cr@std@@@12@@EmplaceDecomposable@?$raw_hash_set@U?$FlatHashMapPolicy@IV?$basic_string@DU?$char_traits@D@__Cr@std@@V?$allocator@D@23@@__Cr@std@@@container_internal@absl@@U?$Hash@I@hash_internal@3@U?$equal_to@I@__Cr@std@@V?$allocator@U?$pair@$$CBIV?$basic_string@DU?$char_traits@D@__Cr@std@@V?$allocator@D@23@@__Cr@std@@@__Cr@std@@@78@@container_internal@absl@@QEBA?AU?$pair@Viterator@?$raw_hash_set@U?$FlatHashMapPolicy@IV?$basic_string@DU?$char_traits@D@__Cr@std@@V?$allocator@D@23@@__Cr@std@@@container_internal@absl@@U?$Hash@I@hash_internal@3@U?$equal_to@I@__Cr@std@@V?$allocator@U?$pair@$$CBIV?$basic_string@DU?$char_traits@D@__Cr@std@@V?$allocator@D@23@@__Cr@std@@@__Cr@std@@@78@@container_internal@absl@@_N@__Cr@std@@AEBIAEBUpiecewise_construct_t@56@$$QEAV?$tuple@AEBI@56@$$QEAV?$tuple@AEBV?$basic_string@DU?$char_traits@D@__Cr@std@@V?$allocator@D@23@@__Cr@std@@@56@@Z
    ??$?RIAEBUpiecewise_construct_t@__Cr@std@@V?$tuple@AEBI@12@V?$tuple@AEBV?$basic_string@DU?$char_traits@D@__Cr@std@@V?$allocator@D@23@@__Cr@std@@@12@@EmplaceDecomposable@?$raw_hash_set@V?$NodeHashMapPolicy@IV?$basic_string@DU?$char_traits@D@__Cr@std@@V?$allocator@D@23@@__Cr@std@@@container_internal@absl@@U?$Hash@I@hash_internal@3@U?$equal_to@I@__Cr@std@@V?$allocator@U?$pair@$$CBIV?$basic_string@DU?$char_traits@D@__Cr@std@@V?$allocator@D@23@@__Cr@std@@@__Cr@std@@@78@@container_internal@absl@@QEBA?AU?$pair@Viterator@?$raw_hash_set@V?$NodeHashMapPolicy@IV?$basic_string@DU?$char_traits@D@__Cr@std@@V?$allocator@D@23@@__Cr@std@@@container_internal@absl@@U?$Hash@I@hash_internal@3@U?$equal_to@I@__Cr@std@@V?$allocator@U?$pair@$$CBIV?$basic_string@DU?$char_traits@D@__Cr@std@@V?$allocator@D@23@@__Cr@std@@@__Cr@std@@@78@@container_internal@absl@@_N@__Cr@std@@AEBIAEBUpiecewise_construct_t@56@$$QEAV?$tuple@AEBI@56@$$QEAV?$tuple@AEBV?$basic_string@DU?$char_traits@D@__Cr@std@@V?$allocator@D@23@@__Cr@std@@@56@@Z
    ??$?RIAEBUpiecewise_construct_t@__Cr@std@@V?$tuple@AEBI@12@V?$tuple@AEBV?$basic_string@DU?$char_traits@D@__Cr@std@@V?$allocator@D@23@@__Cr@std@@@12@@FindElement@?$raw_hash_set@U?$FlatHashMapPolicy@IV?$basic_string@DU?$char_traits@D@__Cr@std@@V?$allocator@D@23@@__Cr@std@@@container_internal@absl@@U?$Hash@I@hash_internal@3@U?$equal_to@I@__Cr@std@@V?$allocator@U?$pair@$$CBIV?$basic_string@DU?$char_traits@D@__Cr@std@@V?$allocator@D@23@@__Cr@std@@@__Cr@std@@@78@@container_internal@absl@@QEBA?AVconst_iterator@123@AEBIAEBUpiecewise_construct_t@__Cr@std@@$$QEAV?$tuple@AEBI@67@$$QEAV?$tuple@AEBV?$basic_string@DU?$char_traits@D@__Cr@std@@V?$allocator@D@23@@__Cr@std@@@67@@Z
    ??$?RIAEBUpiecewise_construct_t@__Cr@std@@V?$tuple@AEBI@12@V?$tuple@AEBV?$basic_string@DU?$char_traits@D@__Cr@std@@V?$allocator@D@23@@__Cr@std@@@12@@FindElement@?$raw_hash_set@V?$NodeHashMapPolicy@IV?$basic_string@DU?$char_traits@D@__Cr@std@@V?$allocator@D@23@@__Cr@std@@@container_internal@absl@@U?$Hash@I@hash_internal@3@U?$equal_to@I@__Cr@std@@V?$allocator@U?$pair@$$CBIV?$basic_string@DU?$char_traits@D@__Cr@std@@V?$allocator@D@23@@__Cr@std@@@__Cr@std@@@78@@container_internal@absl@@QEBA?AVconst_iterator@123@AEBIAEBUpiecewise_construct_t@__Cr@std@@$$QEAV?$tuple@AEBI@67@$$QEAV?$tuple@AEBV?$basic_string@DU?$char_traits@D@__Cr@std@@V?$allocator@D@23@@__Cr@std@@@67@@Z
    ??$?RIAEBUpiecewise_construct_t@__Cr@std@@V?$tuple@AEBI@12@V?$tuple@AEBV?$basic_string@DU?$char_traits@D@__Cr@std@@V?$allocator@D@23@@__Cr@std@@@12@@HashElement@?$raw_hash_set@U?$FlatHashMapPolicy@IV?$basic_string@DU?$char_traits@D@__Cr@std@@V?$allocator@D@23@@__Cr@std@@@container_internal@absl@@U?$Hash@I@hash_internal@3@U?$equal_to@I@__Cr@std@@V?$allocator@U?$pair@$$CBIV?$basic_string@DU?$char_traits@D@__Cr@std@@V?$allocator@D@23@@__Cr@std@@@__Cr@std@@@78@@container_internal@absl@@QEBA_KAEBIAEBUpiecewise_construct_t@__Cr@std@@$$QEAV?$tuple@AEBI@56@$$QEAV?$tuple@AEBV?$basic_string@DU?$char_traits@D@__Cr@std@@V?$allocator@D@23@@__Cr@std@@@56@@Z
    ??$?RIAEBUpiecewise_construct_t@__Cr@std@@V?$tuple@AEBI@12@V?$tuple@AEBV?$basic_string@DU?$char_traits@D@__Cr@std@@V?$allocator@D@23@@__Cr@std@@@12@@HashElement@?$raw_hash_set@V?$NodeHashMapPolicy@IV?$basic_string@DU?$char_traits@D@__Cr@std@@V?$allocator@D@23@@__Cr@std@@@container_internal@absl@@U?$Hash@I@hash_internal@3@U?$equal_to@I@__Cr@std@@V?$allocator@U?$pair@$$CBIV?$basic_string@DU?$char_traits@D@__Cr@std@@V?$allocator@D@23@@__Cr@std@@@__Cr@std@@@78@@container_internal@absl@@QEBA_KAEBIAEBUpiecewise_construct_t@__Cr@std@@$$QEAV?$tuple@AEBI@56@$$QEAV?$tuple@AEBV?$basic_string@DU?$char_traits@D@__Cr@std@@V?$allocator@D@23@@__Cr@std@@@56@@Z
    ??$?RII@EmplaceDecomposable@?$raw_hash_set@U?$FlatHashSetPolicy@I@container_internal@absl@@U?$Hash@I@hash_internal@3@U?$equal_to@I@__Cr@std@@V?$allocator@I@78@@container_internal@absl@@QEBA?AU?$pair@Viterator@?$raw_hash_set@U?$FlatHashSetPolicy@I@container_internal@absl@@U?$Hash@I@hash_internal@3@U?$equal_to@I@__Cr@std@@V?$allocator@I@78@@container_internal@absl@@_N@__Cr@std@@AEBI$$QEAI@Z
    ??$?RII@EmplaceDecomposable@?$raw_hash_set@U?$NodeHashSetPolicy@I@container_internal@absl@@U?$Hash@I@hash_internal@3@U?$equal_to@I@__Cr@std@@V?$allocator@I@78@@container_internal@absl@@QEBA?AU?$pair@Viterator@?$raw_hash_set@U?$NodeHashSetPolicy@I@container_internal@absl@@U?$Hash@I@hash_internal@3@U?$equal_to@I@__Cr@std@@V?$allocator@I@78@@container_internal@absl@@_N@__Cr@std@@AEBI$$QEAI@Z
    ??$?RPEAPEBVImpl@time_zone@cctz@time_internal@absl@@PEAPEBV01234@$0A@@__move_backward_trivial@__Cr@std@@QEBA?AU?$pair@PEAPEAPEBVImpl@time_zone@cctz@time_internal@absl@@PEAPEAPEBV12345@@12@PEAPEAPEBVImpl@time_zone@cctz@time_internal@absl@@00@Z
    ??$?RPEAPEBVImpl@time_zone@cctz@time_internal@absl@@PEAPEBV01234@$0A@@__move_trivial@__Cr@std@@QEBA?AU?$pair@PEAPEAPEBVImpl@time_zone@cctz@time_internal@absl@@PEAPEAPEBV12345@@12@PEAPEAPEBVImpl@time_zone@cctz@time_internal@absl@@00@Z
    ??$?RPEAUPrefixCrc@CrcCordState@crc_internal@absl@@PEAU0123@$0A@@__move_backward_trivial@__Cr@std@@QEBA?AU?$pair@PEAPEAUPrefixCrc@CrcCordState@crc_internal@absl@@PEAPEAU1234@@12@PEAPEAUPrefixCrc@CrcCordState@crc_internal@absl@@00@Z
    ??$?RPEAUPrefixCrc@CrcCordState@crc_internal@absl@@PEAU0123@$0A@@__move_trivial@__Cr@std@@QEBA?AU?$pair@PEAPEAUPrefixCrc@CrcCordState@crc_internal@absl@@PEAPEAU1234@@12@PEAPEAUPrefixCrc@CrcCordState@crc_internal@absl@@00@Z
    ??$?RPEAUraw_view@?1???R?$ConvertToContainer@V?$vector@V?$basic_string_view@DU?$char_traits@D@__Cr@std@@@__Cr@std@@V?$allocator@V?$basic_string_view@DU?$char_traits@D@__Cr@std@@@__Cr@std@@@23@@__Cr@std@@V?$basic_string_view@DU?$char_traits@D@__Cr@std@@@23@$0A@@?$Splitter@VByChar@absl@@UAllowEmpty@2@V?$basic_string_view@DU?$char_traits@D@__Cr@std@@@__Cr@std@@@strings_internal@absl@@QEBA?AV?$vector@V?$basic_string_view@DU?$char_traits@D@__Cr@std@@@__Cr@std@@V?$allocator@V?$basic_string_view@DU?$char_traits@D@__Cr@std@@@__Cr@std@@@23@@__Cr@std@@AEBV234@@Z@PEAU0?1???R1234@QEBA?AV567@0@Z@PEAV?$basic_string_view@DU?$char_traits@D@__Cr@std@@@67@@?$__copy_loop@U_ClassicAlgPolicy@__Cr@std@@@__Cr@std@@QEBA?AU?$pair@PEAUraw_view@?1???R?$ConvertToContainer@V?$vector@V?$basic_string_view@DU?$char_traits@D@__Cr@std@@@__Cr@std@@V?$allocator@V?$basic_string_view@DU?$char_traits@D@__Cr@std@@@__Cr@std@@@23@@__Cr@std@@V?$basic_string_view@DU?$char_traits@D@__Cr@std@@@23@$0A@@?$Splitter@VByChar@absl@@UAllowEmpty@2@V?$basic_string_view@DU?$char_traits@D@__Cr@std@@@__Cr@std@@@strings_internal@absl@@QEBA?AV?$vector@V?$basic_string_view@DU?$char_traits@D@__Cr@std@@@__Cr@std@@V?$allocator@V?$basic_string_view@DU?$char_traits@D@__Cr@std@@@__Cr@std@@@23@@__Cr@std@@AEBV345@@Z@PEAV?$basic_string_view@DU?$char_traits@D@__Cr@std@@@78@@12@PEAUraw_view@?1???R?$ConvertToContainer@V?$vector@V?$basic_string_view@DU?$char_traits@D@__Cr@std@@@__Cr@std@@V?$allocator@V?$basic_string_view@DU?$char_traits@D@__Cr@std@@@__Cr@std@@@23@@__Cr@std@@V?$basic_string_view@DU?$char_traits@D@__Cr@std@@@23@$0A@@?$Splitter@VByChar@absl@@UAllowEmpty@2@V?$basic_string_view@DU?$char_traits@D@__Cr@std@@@__Cr@std@@@strings_internal@absl@@QEBA?AV?$vector@V?$basic_string_view@DU?$char_traits@D@__Cr@std@@@__Cr@std@@V?$allocator@V?$basic_string_view@DU?$char_traits@D@__Cr@std@@@__Cr@std@@@23@@12@AEBV678@@Z@1PEAV?$basic_string_view@DU?$char_traits@D@__Cr@std@@@12@@Z
    ??$?RPEAVLogSink@absl@@PEAV01@$0A@@__move_trivial@__Cr@std@@QEBA?AU?$pair@PEAPEAVLogSink@absl@@PEAPEAV12@@12@PEAPEAVLogSink@absl@@00@Z
    ??$?RPEAVSpinLock@base_internal@absl@@AEB_J@?$AtomicHook@P6AXPEBX_J@Z@base_internal@absl@@QEBAX$$QEAPEAVSpinLock@12@AEB_J@Z
    ??$?RPEBUPrefixCrc@CrcCordState@crc_internal@absl@@V?$__deque_iterator@UPrefixCrc@CrcCordState@crc_internal@absl@@PEAU1234@AEAU1234@PEAPEAU1234@_J$0A@@__Cr@std@@$0A@@?$__copy_loop@U_ClassicAlgPolicy@__Cr@std@@@__Cr@std@@QEBA?AU?$pair@PEBUPrefixCrc@CrcCordState@crc_internal@absl@@V?$__deque_iterator@UPrefixCrc@CrcCordState@crc_internal@absl@@PEAU1234@AEAU1234@PEAPEAU1234@_J$0A@@__Cr@std@@@12@PEBUPrefixCrc@CrcCordState@crc_internal@absl@@0V?$__deque_iterator@UPrefixCrc@CrcCordState@crc_internal@absl@@PEAU1234@AEAU1234@PEAPEAU1234@_J$0A@@12@@Z
    ??$?RUTransition@cctz@time_internal@absl@@U0123@$0A@@__move_backward_trivial@__Cr@std@@QEBA?AU?$pair@PEAUTransition@cctz@time_internal@absl@@PEAU1234@@12@PEAUTransition@cctz@time_internal@absl@@00@Z
    ??$?RUTransition@cctz@time_internal@absl@@U0123@$0A@@__move_trivial@__Cr@std@@QEBA?AU?$pair@PEAUTransition@cctz@time_internal@absl@@PEAU1234@@12@PEAUTransition@cctz@time_internal@absl@@00@Z
    ??$?RUTransitionType@cctz@time_internal@absl@@U0123@$0A@@__move_backward_trivial@__Cr@std@@QEBA?AU?$pair@PEAUTransitionType@cctz@time_internal@absl@@PEAU1234@@12@PEAUTransitionType@cctz@time_internal@absl@@00@Z
    ??$?RUTransitionType@cctz@time_internal@absl@@U0123@$0A@@__move_trivial@__Cr@std@@QEBA?AU?$pair@PEAUTransitionType@cctz@time_internal@absl@@PEAU1234@@12@PEAUTransitionType@cctz@time_internal@absl@@00@Z
    ??$?RV?$__deque_iterator@UPrefixCrc@CrcCordState@crc_internal@absl@@PEBU1234@AEBU1234@PEBQEBU1234@_J$0A@@__Cr@std@@V?$__deque_iterator@UPrefixCrc@CrcCordState@crc_internal@absl@@PEAU1234@AEAU1234@PEAPEAU1234@_J$0A@@12@$0A@@?$__copy_loop@U_ClassicAlgPolicy@__Cr@std@@@__Cr@std@@QEBA?AU?$pair@V?$__deque_iterator@UPrefixCrc@CrcCordState@crc_internal@absl@@PEBU1234@AEBU1234@PEBQEBU1234@_J$0A@@__Cr@std@@V?$__deque_iterator@UPrefixCrc@CrcCordState@crc_internal@absl@@PEAU1234@AEAU1234@PEAPEAU1234@_J$0A@@23@@12@V?$__deque_iterator@UPrefixCrc@CrcCordState@crc_internal@absl@@PEBU1234@AEBU1234@PEBQEBU1234@_J$0A@@12@0V?$__deque_iterator@UPrefixCrc@CrcCordState@crc_internal@absl@@PEAU1234@AEAU1234@PEAPEAU1234@_J$0A@@12@@Z
    ??$?RV?$basic_string@DU?$char_traits@D@__Cr@std@@V?$allocator@D@23@@__Cr@std@@AEAV012@@?$EqualElement@V?$basic_string@DU?$char_traits@D@__Cr@std@@V?$allocator@D@23@@__Cr@std@@@?$raw_hash_set@U?$FlatHashSetPolicy@V?$basic_string@DU?$char_traits@D@__Cr@std@@V?$allocator@D@23@@__Cr@std@@@container_internal@absl@@UStringHash@23@UStringEq@23@V?$allocator@V?$basic_string@DU?$char_traits@D@__Cr@std@@V?$allocator@D@23@@__Cr@std@@@__Cr@std@@@container_internal@absl@@QEBA_NAEBV?$basic_string@DU?$char_traits@D@__Cr@std@@V?$allocator@D@23@@__Cr@std@@AEAV456@@Z
    ??$?RV?$basic_string@DU?$char_traits@D@__Cr@std@@V?$allocator@D@23@@__Cr@std@@AEAV012@@?$EqualElement@V?$basic_string@DU?$char_traits@D@__Cr@std@@V?$allocator@D@23@@__Cr@std@@@?$raw_hash_set@U?$NodeHashSetPolicy@V?$basic_string@DU?$char_traits@D@__Cr@std@@V?$allocator@D@23@@__Cr@std@@@container_internal@absl@@UStringHash@23@UStringEq@23@V?$allocator@V?$basic_string@DU?$char_traits@D@__Cr@std@@V?$allocator@D@23@@__Cr@std@@@__Cr@std@@@container_internal@absl@@QEBA_NAEBV?$basic_string@DU?$char_traits@D@__Cr@std@@V?$allocator@D@23@@__Cr@std@@AEAV456@@Z
    ??$?RV?$basic_string@DU?$char_traits@D@__Cr@std@@V?$allocator@D@23@@__Cr@std@@AEAV012@@HashElement@?$raw_hash_set@U?$FlatHashSetPolicy@V?$basic_string@DU?$char_traits@D@__Cr@std@@V?$allocator@D@23@@__Cr@std@@@container_internal@absl@@UStringHash@23@UStringEq@23@V?$allocator@V?$basic_string@DU?$char_traits@D@__Cr@std@@V?$allocator@D@23@@__Cr@std@@@__Cr@std@@@container_internal@absl@@QEBA_KAEBV?$basic_string@DU?$char_traits@D@__Cr@std@@V?$allocator@D@23@@__Cr@std@@AEAV456@@Z
    ??$?RV?$basic_string@DU?$char_traits@D@__Cr@std@@V?$allocator@D@23@@__Cr@std@@AEAV012@@HashElement@?$raw_hash_set@U?$NodeHashSetPolicy@V?$basic_string@DU?$char_traits@D@__Cr@std@@V?$allocator@D@23@@__Cr@std@@@container_internal@absl@@UStringHash@23@UStringEq@23@V?$allocator@V?$basic_string@DU?$char_traits@D@__Cr@std@@V?$allocator@D@23@@__Cr@std@@@__Cr@std@@@container_internal@absl@@QEBA_KAEBV?$basic_string@DU?$char_traits@D@__Cr@std@@V?$allocator@D@23@@__Cr@std@@AEAV456@@Z
    ??$?RV?$basic_string@DU?$char_traits@D@__Cr@std@@V?$allocator@D@23@@__Cr@std@@AEBUpiecewise_construct_t@12@V?$tuple@$$QEAV?$basic_string@DU?$char_traits@D@__Cr@std@@V?$allocator@D@23@@__Cr@std@@@12@V412@@EmplaceDecomposable@?$raw_hash_set@U?$FlatHashMapPolicy@V?$basic_string@DU?$char_traits@D@__Cr@std@@V?$allocator@D@23@@__Cr@std@@V123@@container_internal@absl@@UStringHash@23@UStringEq@23@V?$allocator@U?$pair@$$CBV?$basic_string@DU?$char_traits@D@__Cr@std@@V?$allocator@D@23@@__Cr@std@@V123@@__Cr@std@@@__Cr@std@@@container_internal@absl@@QEBA?AU?$pair@Viterator@?$raw_hash_set@U?$FlatHashMapPolicy@V?$basic_string@DU?$char_traits@D@__Cr@std@@V?$allocator@D@23@@__Cr@std@@V123@@container_internal@absl@@UStringHash@23@UStringEq@23@V?$allocator@U?$pair@$$CBV?$basic_string@DU?$char_traits@D@__Cr@std@@V?$allocator@D@23@@__Cr@std@@V123@@__Cr@std@@@__Cr@std@@@container_internal@absl@@_N@__Cr@std@@AEBV?$basic_string@DU?$char_traits@D@__Cr@std@@V?$allocator@D@23@@56@AEBUpiecewise_construct_t@56@$$QEAV?$tuple@$$QEAV?$basic_string@DU?$char_traits@D@__Cr@std@@V?$allocator@D@23@@__Cr@std@@@56@2@Z
    ??$?RV?$basic_string@DU?$char_traits@D@__Cr@std@@V?$allocator@D@23@@__Cr@std@@AEBUpiecewise_construct_t@12@V?$tuple@$$QEAV?$basic_string@DU?$char_traits@D@__Cr@std@@V?$allocator@D@23@@__Cr@std@@@12@V412@@EmplaceDecomposable@?$raw_hash_set@V?$NodeHashMapPolicy@V?$basic_string@DU?$char_traits@D@__Cr@std@@V?$allocator@D@23@@__Cr@std@@V123@@container_internal@absl@@UStringHash@23@UStringEq@23@V?$allocator@U?$pair@$$CBV?$basic_string@DU?$char_traits@D@__Cr@std@@V?$allocator@D@23@@__Cr@std@@V123@@__Cr@std@@@__Cr@std@@@container_internal@absl@@QEBA?AU?$pair@Viterator@?$raw_hash_set@V?$NodeHashMapPolicy@V?$basic_string@DU?$char_traits@D@__Cr@std@@V?$allocator@D@23@@__Cr@std@@V123@@container_internal@absl@@UStringHash@23@UStringEq@23@V?$allocator@U?$pair@$$CBV?$basic_string@DU?$char_traits@D@__Cr@std@@V?$allocator@D@23@@__Cr@std@@V123@@__Cr@std@@@__Cr@std@@@container_internal@absl@@_N@__Cr@std@@AEBV?$basic_string@DU?$char_traits@D@__Cr@std@@V?$allocator@D@23@@56@AEBUpiecewise_construct_t@56@$$QEAV?$tuple@$$QEAV?$basic_string@DU?$char_traits@D@__Cr@std@@V?$allocator@D@23@@__Cr@std@@@56@2@Z
    ??$?RV?$basic_string@DU?$char_traits@D@__Cr@std@@V?$allocator@D@23@@__Cr@std@@AEBUpiecewise_construct_t@12@V?$tuple@$$QEAV?$basic_string@DU?$char_traits@D@__Cr@std@@V?$allocator@D@23@@__Cr@std@@@12@V?$tuple@$$QEAH@12@@EmplaceDecomposable@?$raw_hash_set@U?$FlatHashMapPolicy@V?$basic_string@DU?$char_traits@D@__Cr@std@@V?$allocator@D@23@@__Cr@std@@H@container_internal@absl@@UStringHash@23@UStringEq@23@V?$allocator@U?$pair@$$CBV?$basic_string@DU?$char_traits@D@__Cr@std@@V?$allocator@D@23@@__Cr@std@@H@__Cr@std@@@__Cr@std@@@container_internal@absl@@QEBA?AU?$pair@Viterator@?$raw_hash_set@U?$FlatHashMapPolicy@V?$basic_string@DU?$char_traits@D@__Cr@std@@V?$allocator@D@23@@__Cr@std@@H@container_internal@absl@@UStringHash@23@UStringEq@23@V?$allocator@U?$pair@$$CBV?$basic_string@DU?$char_traits@D@__Cr@std@@V?$allocator@D@23@@__Cr@std@@H@__Cr@std@@@__Cr@std@@@container_internal@absl@@_N@__Cr@std@@AEBV?$basic_string@DU?$char_traits@D@__Cr@std@@V?$allocator@D@23@@56@AEBUpiecewise_construct_t@56@$$QEAV?$tuple@$$QEAV?$basic_string@DU?$char_traits@D@__Cr@std@@V?$allocator@D@23@@__Cr@std@@@56@$$QEAV?$tuple@$$QEAH@56@@Z
    ??$?RV?$basic_string@DU?$char_traits@D@__Cr@std@@V?$allocator@D@23@@__Cr@std@@AEBUpiecewise_construct_t@12@V?$tuple@$$QEAV?$basic_string@DU?$char_traits@D@__Cr@std@@V?$allocator@D@23@@__Cr@std@@@12@V?$tuple@$$QEAH@12@@EmplaceDecomposable@?$raw_hash_set@V?$NodeHashMapPolicy@V?$basic_string@DU?$char_traits@D@__Cr@std@@V?$allocator@D@23@@__Cr@std@@H@container_internal@absl@@UStringHash@23@UStringEq@23@V?$allocator@U?$pair@$$CBV?$basic_string@DU?$char_traits@D@__Cr@std@@V?$allocator@D@23@@__Cr@std@@H@__Cr@std@@@__Cr@std@@@container_internal@absl@@QEBA?AU?$pair@Viterator@?$raw_hash_set@V?$NodeHashMapPolicy@V?$basic_string@DU?$char_traits@D@__Cr@std@@V?$allocator@D@23@@__Cr@std@@H@container_internal@absl@@UStringHash@23@UStringEq@23@V?$allocator@U?$pair@$$CBV?$basic_string@DU?$char_traits@D@__Cr@std@@V?$allocator@D@23@@__Cr@std@@H@__Cr@std@@@__Cr@std@@@container_internal@absl@@_N@__Cr@std@@AEBV?$basic_string@DU?$char_traits@D@__Cr@std@@V?$allocator@D@23@@56@AEBUpiecewise_construct_t@56@$$QEAV?$tuple@$$QEAV?$basic_string@DU?$char_traits@D@__Cr@std@@V?$allocator@D@23@@__Cr@std@@@56@$$QEAV?$tuple@$$QEAH@56@@Z
    ??$?RV?$basic_string@DU?$char_traits@D@__Cr@std@@V?$allocator@D@23@@__Cr@std@@AEBUpiecewise_construct_t@12@V?$tuple@$$QEAV?$basic_string@DU?$char_traits@D@__Cr@std@@V?$allocator@D@23@@__Cr@std@@@12@V?$tuple@$$QEAI@12@@EmplaceDecomposable@?$raw_hash_set@U?$FlatHashMapPolicy@V?$basic_string@DU?$char_traits@D@__Cr@std@@V?$allocator@D@23@@__Cr@std@@I@container_internal@absl@@UStringHash@23@UStringEq@23@V?$allocator@U?$pair@$$CBV?$basic_string@DU?$char_traits@D@__Cr@std@@V?$allocator@D@23@@__Cr@std@@I@__Cr@std@@@__Cr@std@@@container_internal@absl@@QEBA?AU?$pair@Viterator@?$raw_hash_set@U?$FlatHashMapPolicy@V?$basic_string@DU?$char_traits@D@__Cr@std@@V?$allocator@D@23@@__Cr@std@@I@container_internal@absl@@UStringHash@23@UStringEq@23@V?$allocator@U?$pair@$$CBV?$basic_string@DU?$char_traits@D@__Cr@std@@V?$allocator@D@23@@__Cr@std@@I@__Cr@std@@@__Cr@std@@@container_internal@absl@@_N@__Cr@std@@AEBV?$basic_string@DU?$char_traits@D@__Cr@std@@V?$allocator@D@23@@56@AEBUpiecewise_construct_t@56@$$QEAV?$tuple@$$QEAV?$basic_string@DU?$char_traits@D@__Cr@std@@V?$allocator@D@23@@__Cr@std@@@56@$$QEAV?$tuple@$$QEAI@56@@Z
    ??$?RV?$basic_string@DU?$char_traits@D@__Cr@std@@V?$allocator@D@23@@__Cr@std@@AEBUpiecewise_construct_t@12@V?$tuple@$$QEAV?$basic_string@DU?$char_traits@D@__Cr@std@@V?$allocator@D@23@@__Cr@std@@@12@V?$tuple@$$QEAI@12@@EmplaceDecomposable@?$raw_hash_set@V?$NodeHashMapPolicy@V?$basic_string@DU?$char_traits@D@__Cr@std@@V?$allocator@D@23@@__Cr@std@@I@container_internal@absl@@UStringHash@23@UStringEq@23@V?$allocator@U?$pair@$$CBV?$basic_string@DU?$char_traits@D@__Cr@std@@V?$allocator@D@23@@__Cr@std@@I@__Cr@std@@@__Cr@std@@@container_internal@absl@@QEBA?AU?$pair@Viterator@?$raw_hash_set@V?$NodeHashMapPolicy@V?$basic_string@DU?$char_traits@D@__Cr@std@@V?$allocator@D@23@@__Cr@std@@I@container_internal@absl@@UStringHash@23@UStringEq@23@V?$allocator@U?$pair@$$CBV?$basic_string@DU?$char_traits@D@__Cr@std@@V?$allocator@D@23@@__Cr@std@@I@__Cr@std@@@__Cr@std@@@container_internal@absl@@_N@__Cr@std@@AEBV?$basic_string@DU?$char_traits@D@__Cr@std@@V?$allocator@D@23@@56@AEBUpiecewise_construct_t@56@$$QEAV?$tuple@$$QEAV?$basic_string@DU?$char_traits@D@__Cr@std@@V?$allocator@D@23@@__Cr@std@@@56@$$QEAV?$tuple@$$QEAI@56@@Z
    ??$?RV?$basic_string@DU?$char_traits@D@__Cr@std@@V?$allocator@D@23@@__Cr@std@@AEBUpiecewise_construct_t@12@V?$tuple@$$QEAV?$basic_string@DU?$char_traits@D@__Cr@std@@V?$allocator@D@23@@__Cr@std@@@12@V?$tuple@$$QEA_J@12@@EmplaceDecomposable@?$raw_hash_set@U?$FlatHashMapPolicy@V?$basic_string@DU?$char_traits@D@__Cr@std@@V?$allocator@D@23@@__Cr@std@@_J@container_internal@absl@@UStringHash@23@UStringEq@23@V?$allocator@U?$pair@$$CBV?$basic_string@DU?$char_traits@D@__Cr@std@@V?$allocator@D@23@@__Cr@std@@_J@__Cr@std@@@__Cr@std@@@container_internal@absl@@QEBA?AU?$pair@Viterator@?$raw_hash_set@U?$FlatHashMapPolicy@V?$basic_string@DU?$char_traits@D@__Cr@std@@V?$allocator@D@23@@__Cr@std@@_J@container_internal@absl@@UStringHash@23@UStringEq@23@V?$allocator@U?$pair@$$CBV?$basic_string@DU?$char_traits@D@__Cr@std@@V?$allocator@D@23@@__Cr@std@@_J@__Cr@std@@@__Cr@std@@@container_internal@absl@@_N@__Cr@std@@AEBV?$basic_string@DU?$char_traits@D@__Cr@std@@V?$allocator@D@23@@56@AEBUpiecewise_construct_t@56@$$QEAV?$tuple@$$QEAV?$basic_string@DU?$char_traits@D@__Cr@std@@V?$allocator@D@23@@__Cr@std@@@56@$$QEAV?$tuple@$$QEA_J@56@@Z
    ??$?RV?$basic_string@DU?$char_traits@D@__Cr@std@@V?$allocator@D@23@@__Cr@std@@AEBUpiecewise_construct_t@12@V?$tuple@$$QEAV?$basic_string@DU?$char_traits@D@__Cr@std@@V?$allocator@D@23@@__Cr@std@@@12@V?$tuple@$$QEA_J@12@@EmplaceDecomposable@?$raw_hash_set@V?$NodeHashMapPolicy@V?$basic_string@DU?$char_traits@D@__Cr@std@@V?$allocator@D@23@@__Cr@std@@_J@container_internal@absl@@UStringHash@23@UStringEq@23@V?$allocator@U?$pair@$$CBV?$basic_string@DU?$char_traits@D@__Cr@std@@V?$allocator@D@23@@__Cr@std@@_J@__Cr@std@@@__Cr@std@@@container_internal@absl@@QEBA?AU?$pair@Viterator@?$raw_hash_set@V?$NodeHashMapPolicy@V?$basic_string@DU?$char_traits@D@__Cr@std@@V?$allocator@D@23@@__Cr@std@@_J@container_internal@absl@@UStringHash@23@UStringEq@23@V?$allocator@U?$pair@$$CBV?$basic_string@DU?$char_traits@D@__Cr@std@@V?$allocator@D@23@@__Cr@std@@_J@__Cr@std@@@__Cr@std@@@container_internal@absl@@_N@__Cr@std@@AEBV?$basic_string@DU?$char_traits@D@__Cr@std@@V?$allocator@D@23@@56@AEBUpiecewise_construct_t@56@$$QEAV?$tuple@$$QEAV?$basic_string@DU?$char_traits@D@__Cr@std@@V?$allocator@D@23@@__Cr@std@@@56@$$QEAV?$tuple@$$QEA_J@56@@Z
    ??$?RV?$basic_string@DU?$char_traits@D@__Cr@std@@V?$allocator@D@23@@__Cr@std@@AEBUpiecewise_construct_t@12@V?$tuple@$$QEAV?$basic_string@DU?$char_traits@D@__Cr@std@@V?$allocator@D@23@@__Cr@std@@@12@V?$tuple@$$QEA_K@12@@EmplaceDecomposable@?$raw_hash_set@U?$FlatHashMapPolicy@V?$basic_string@DU?$char_traits@D@__Cr@std@@V?$allocator@D@23@@__Cr@std@@_K@container_internal@absl@@UStringHash@23@UStringEq@23@V?$allocator@U?$pair@$$CBV?$basic_string@DU?$char_traits@D@__Cr@std@@V?$allocator@D@23@@__Cr@std@@_K@__Cr@std@@@__Cr@std@@@container_internal@absl@@QEBA?AU?$pair@Viterator@?$raw_hash_set@U?$FlatHashMapPolicy@V?$basic_string@DU?$char_traits@D@__Cr@std@@V?$allocator@D@23@@__Cr@std@@_K@container_internal@absl@@UStringHash@23@UStringEq@23@V?$allocator@U?$pair@$$CBV?$basic_string@DU?$char_traits@D@__Cr@std@@V?$allocator@D@23@@__Cr@std@@_K@__Cr@std@@@__Cr@std@@@container_internal@absl@@_N@__Cr@std@@AEBV?$basic_string@DU?$char_traits@D@__Cr@std@@V?$allocator@D@23@@56@AEBUpiecewise_construct_t@56@$$QEAV?$tuple@$$QEAV?$basic_string@DU?$char_traits@D@__Cr@std@@V?$allocator@D@23@@__Cr@std@@@56@$$QEAV?$tuple@$$QEA_K@56@@Z
    ??$?RV?$basic_string@DU?$char_traits@D@__Cr@std@@V?$allocator@D@23@@__Cr@std@@AEBUpiecewise_construct_t@12@V?$tuple@$$QEAV?$basic_string@DU?$char_traits@D@__Cr@std@@V?$allocator@D@23@@__Cr@std@@@12@V?$tuple@$$QEA_K@12@@EmplaceDecomposable@?$raw_hash_set@V?$NodeHashMapPolicy@V?$basic_string@DU?$char_traits@D@__Cr@std@@V?$allocator@D@23@@__Cr@std@@_K@container_internal@absl@@UStringHash@23@UStringEq@23@V?$allocator@U?$pair@$$CBV?$basic_string@DU?$char_traits@D@__Cr@std@@V?$allocator@D@23@@__Cr@std@@_K@__Cr@std@@@__Cr@std@@@container_internal@absl@@QEBA?AU?$pair@Viterator@?$raw_hash_set@V?$NodeHashMapPolicy@V?$basic_string@DU?$char_traits@D@__Cr@std@@V?$allocator@D@23@@__Cr@std@@_K@container_internal@absl@@UStringHash@23@UStringEq@23@V?$allocator@U?$pair@$$CBV?$basic_string@DU?$char_traits@D@__Cr@std@@V?$allocator@D@23@@__Cr@std@@_K@__Cr@std@@@__Cr@std@@@container_internal@absl@@_N@__Cr@std@@AEBV?$basic_string@DU?$char_traits@D@__Cr@std@@V?$allocator@D@23@@56@AEBUpiecewise_construct_t@56@$$QEAV?$tuple@$$QEAV?$basic_string@DU?$char_traits@D@__Cr@std@@V?$allocator@D@23@@__Cr@std@@@56@$$QEAV?$tuple@$$QEA_K@56@@Z
    ??$?RV?$basic_string@DU?$char_traits@D@__Cr@std@@V?$allocator@D@23@@__Cr@std@@AEBUpiecewise_construct_t@12@V?$tuple@$$QEBV?$basic_string@DU?$char_traits@D@__Cr@std@@V?$allocator@D@23@@__Cr@std@@@12@V?$tuple@$$QEAH@12@@EmplaceDecomposable@?$raw_hash_set@U?$FlatHashMapPolicy@V?$basic_string@DU?$char_traits@D@__Cr@std@@V?$allocator@D@23@@__Cr@std@@H@container_internal@absl@@UStringHash@23@UStringEq@23@V?$allocator@U?$pair@$$CBV?$basic_string@DU?$char_traits@D@__Cr@std@@V?$allocator@D@23@@__Cr@std@@H@__Cr@std@@@__Cr@std@@@container_internal@absl@@QEBA?AU?$pair@Viterator@?$raw_hash_set@U?$FlatHashMapPolicy@V?$basic_string@DU?$char_traits@D@__Cr@std@@V?$allocator@D@23@@__Cr@std@@H@container_internal@absl@@UStringHash@23@UStringEq@23@V?$allocator@U?$pair@$$CBV?$basic_string@DU?$char_traits@D@__Cr@std@@V?$allocator@D@23@@__Cr@std@@H@__Cr@std@@@__Cr@std@@@container_internal@absl@@_N@__Cr@std@@AEBV?$basic_string@DU?$char_traits@D@__Cr@std@@V?$allocator@D@23@@56@AEBUpiecewise_construct_t@56@$$QEAV?$tuple@$$QEBV?$basic_string@DU?$char_traits@D@__Cr@std@@V?$allocator@D@23@@__Cr@std@@@56@$$QEAV?$tuple@$$QEAH@56@@Z
    ??$?RV?$basic_string@DU?$char_traits@D@__Cr@std@@V?$allocator@D@23@@__Cr@std@@AEBUpiecewise_construct_t@12@V?$tuple@$$QEBV?$basic_string@DU?$char_traits@D@__Cr@std@@V?$allocator@D@23@@__Cr@std@@@12@V?$tuple@$$QEAH@12@@EmplaceDecomposable@?$raw_hash_set@V?$NodeHashMapPolicy@V?$basic_string@DU?$char_traits@D@__Cr@std@@V?$allocator@D@23@@__Cr@std@@H@container_internal@absl@@UStringHash@23@UStringEq@23@V?$allocator@U?$pair@$$CBV?$basic_string@DU?$char_traits@D@__Cr@std@@V?$allocator@D@23@@__Cr@std@@H@__Cr@std@@@__Cr@std@@@container_internal@absl@@QEBA?AU?$pair@Viterator@?$raw_hash_set@V?$NodeHashMapPolicy@V?$basic_string@DU?$char_traits@D@__Cr@std@@V?$allocator@D@23@@__Cr@std@@H@container_internal@absl@@UStringHash@23@UStringEq@23@V?$allocator@U?$pair@$$CBV?$basic_string@DU?$char_traits@D@__Cr@std@@V?$allocator@D@23@@__Cr@std@@H@__Cr@std@@@__Cr@std@@@container_internal@absl@@_N@__Cr@std@@AEBV?$basic_string@DU?$char_traits@D@__Cr@std@@V?$allocator@D@23@@56@AEBUpiecewise_construct_t@56@$$QEAV?$tuple@$$QEBV?$basic_string@DU?$char_traits@D@__Cr@std@@V?$allocator@D@23@@__Cr@std@@@56@$$QEAV?$tuple@$$QEAH@56@@Z
    ??$?RV?$basic_string@DU?$char_traits@D@__Cr@std@@V?$allocator@D@23@@__Cr@std@@AEBUpiecewise_construct_t@12@V?$tuple@$$QEBV?$basic_string@DU?$char_traits@D@__Cr@std@@V?$allocator@D@23@@__Cr@std@@@12@V?$tuple@$$QEAI@12@@EmplaceDecomposable@?$raw_hash_set@U?$FlatHashMapPolicy@V?$basic_string@DU?$char_traits@D@__Cr@std@@V?$allocator@D@23@@__Cr@std@@I@container_internal@absl@@UStringHash@23@UStringEq@23@V?$allocator@U?$pair@$$CBV?$basic_string@DU?$char_traits@D@__Cr@std@@V?$allocator@D@23@@__Cr@std@@I@__Cr@std@@@__Cr@std@@@container_internal@absl@@QEBA?AU?$pair@Viterator@?$raw_hash_set@U?$FlatHashMapPolicy@V?$basic_string@DU?$char_traits@D@__Cr@std@@V?$allocator@D@23@@__Cr@std@@I@container_internal@absl@@UStringHash@23@UStringEq@23@V?$allocator@U?$pair@$$CBV?$basic_string@DU?$char_traits@D@__Cr@std@@V?$allocator@D@23@@__Cr@std@@I@__Cr@std@@@__Cr@std@@@container_internal@absl@@_N@__Cr@std@@AEBV?$basic_string@DU?$char_traits@D@__Cr@std@@V?$allocator@D@23@@56@AEBUpiecewise_construct_t@56@$$QEAV?$tuple@$$QEBV?$basic_string@DU?$char_traits@D@__Cr@std@@V?$allocator@D@23@@__Cr@std@@@56@$$QEAV?$tuple@$$QEAI@56@@Z
    ??$?RV?$basic_string@DU?$char_traits@D@__Cr@std@@V?$allocator@D@23@@__Cr@std@@AEBUpiecewise_construct_t@12@V?$tuple@$$QEBV?$basic_string@DU?$char_traits@D@__Cr@std@@V?$allocator@D@23@@__Cr@std@@@12@V?$tuple@$$QEAI@12@@EmplaceDecomposable@?$raw_hash_set@V?$NodeHashMapPolicy@V?$basic_string@DU?$char_traits@D@__Cr@std@@V?$allocator@D@23@@__Cr@std@@I@container_internal@absl@@UStringHash@23@UStringEq@23@V?$allocator@U?$pair@$$CBV?$basic_string@DU?$char_traits@D@__Cr@std@@V?$allocator@D@23@@__Cr@std@@I@__Cr@std@@@__Cr@std@@@container_internal@absl@@QEBA?AU?$pair@Viterator@?$raw_hash_set@V?$NodeHashMapPolicy@V?$basic_string@DU?$char_traits@D@__Cr@std@@V?$allocator@D@23@@__Cr@std@@I@container_internal@absl@@UStringHash@23@UStringEq@23@V?$allocator@U?$pair@$$CBV?$basic_string@DU?$char_traits@D@__Cr@std@@V?$allocator@D@23@@__Cr@std@@I@__Cr@std@@@__Cr@std@@@container_internal@absl@@_N@__Cr@std@@AEBV?$basic_string@DU?$char_traits@D@__Cr@std@@V?$allocator@D@23@@56@AEBUpiecewise_construct_t@56@$$QEAV?$tuple@$$QEBV?$basic_string@DU?$char_traits@D@__Cr@std@@V?$allocator@D@23@@__Cr@std@@@56@$$QEAV?$tuple@$$QEAI@56@@Z
    ??$?RV?$basic_string@DU?$char_traits@D@__Cr@std@@V?$allocator@D@23@@__Cr@std@@AEBUpiecewise_construct_t@12@V?$tuple@$$QEBV?$basic_string@DU?$char_traits@D@__Cr@std@@V?$allocator@D@23@@__Cr@std@@@12@V?$tuple@$$QEAV?$basic_string@DU?$char_traits@D@__Cr@std@@V?$allocator@D@23@@__Cr@std@@@12@@EmplaceDecomposable@?$raw_hash_set@U?$FlatHashMapPolicy@V?$basic_string@DU?$char_traits@D@__Cr@std@@V?$allocator@D@23@@__Cr@std@@V123@@container_internal@absl@@UStringHash@23@UStringEq@23@V?$allocator@U?$pair@$$CBV?$basic_string@DU?$char_traits@D@__Cr@std@@V?$allocator@D@23@@__Cr@std@@V123@@__Cr@std@@@__Cr@std@@@container_internal@absl@@QEBA?AU?$pair@Viterator@?$raw_hash_set@U?$FlatHashMapPolicy@V?$basic_string@DU?$char_traits@D@__Cr@std@@V?$allocator@D@23@@__Cr@std@@V123@@container_internal@absl@@UStringHash@23@UStringEq@23@V?$allocator@U?$pair@$$CBV?$basic_string@DU?$char_traits@D@__Cr@std@@V?$allocator@D@23@@__Cr@std@@V123@@__Cr@std@@@__Cr@std@@@container_internal@absl@@_N@__Cr@std@@AEBV?$basic_string@DU?$char_traits@D@__Cr@std@@V?$allocator@D@23@@56@AEBUpiecewise_construct_t@56@$$QEAV?$tuple@$$QEBV?$basic_string@DU?$char_traits@D@__Cr@std@@V?$allocator@D@23@@__Cr@std@@@56@$$QEAV?$tuple@$$QEAV?$basic_string@DU?$char_traits@D@__Cr@std@@V?$allocator@D@23@@__Cr@std@@@56@@Z
    ??$?RV?$basic_string@DU?$char_traits@D@__Cr@std@@V?$allocator@D@23@@__Cr@std@@AEBUpiecewise_construct_t@12@V?$tuple@$$QEBV?$basic_string@DU?$char_traits@D@__Cr@std@@V?$allocator@D@23@@__Cr@std@@@12@V?$tuple@$$QEAV?$basic_string@DU?$char_traits@D@__Cr@std@@V?$allocator@D@23@@__Cr@std@@@12@@EmplaceDecomposable@?$raw_hash_set@V?$NodeHashMapPolicy@V?$basic_string@DU?$char_traits@D@__Cr@std@@V?$allocator@D@23@@__Cr@std@@V123@@container_internal@absl@@UStringHash@23@UStringEq@23@V?$allocator@U?$pair@$$CBV?$basic_string@DU?$char_traits@D@__Cr@std@@V?$allocator@D@23@@__Cr@std@@V123@@__Cr@std@@@__Cr@std@@@container_internal@absl@@QEBA?AU?$pair@Viterator@?$raw_hash_set@V?$NodeHashMapPolicy@V?$basic_string@DU?$char_traits@D@__Cr@std@@V?$allocator@D@23@@__Cr@std@@V123@@container_internal@absl@@UStringHash@23@UStringEq@23@V?$allocator@U?$pair@$$CBV?$basic_string@DU?$char_traits@D@__Cr@std@@V?$allocator@D@23@@__Cr@std@@V123@@__Cr@std@@@__Cr@std@@@container_internal@absl@@_N@__Cr@std@@AEBV?$basic_string@DU?$char_traits@D@__Cr@std@@V?$allocator@D@23@@56@AEBUpiecewise_construct_t@56@$$QEAV?$tuple@$$QEBV?$basic_string@DU?$char_traits@D@__Cr@std@@V?$allocator@D@23@@__Cr@std@@@56@$$QEAV?$tuple@$$QEAV?$basic_string@DU?$char_traits@D@__Cr@std@@V?$allocator@D@23@@__Cr@std@@@56@@Z
    ??$?RV?$basic_string@DU?$char_traits@D@__Cr@std@@V?$allocator@D@23@@__Cr@std@@AEBUpiecewise_construct_t@12@V?$tuple@$$QEBV?$basic_string@DU?$char_traits@D@__Cr@std@@V?$allocator@D@23@@__Cr@std@@@12@V?$tuple@$$QEA_J@12@@EmplaceDecomposable@?$raw_hash_set@U?$FlatHashMapPolicy@V?$basic_string@DU?$char_traits@D@__Cr@std@@V?$allocator@D@23@@__Cr@std@@_J@container_internal@absl@@UStringHash@23@UStringEq@23@V?$allocator@U?$pair@$$CBV?$basic_string@DU?$char_traits@D@__Cr@std@@V?$allocator@D@23@@__Cr@std@@_J@__Cr@std@@@__Cr@std@@@container_internal@absl@@QEBA?AU?$pair@Viterator@?$raw_hash_set@U?$FlatHashMapPolicy@V?$basic_string@DU?$char_traits@D@__Cr@std@@V?$allocator@D@23@@__Cr@std@@_J@container_internal@absl@@UStringHash@23@UStringEq@23@V?$allocator@U?$pair@$$CBV?$basic_string@DU?$char_traits@D@__Cr@std@@V?$allocator@D@23@@__Cr@std@@_J@__Cr@std@@@__Cr@std@@@container_internal@absl@@_N@__Cr@std@@AEBV?$basic_string@DU?$char_traits@D@__Cr@std@@V?$allocator@D@23@@56@AEBUpiecewise_construct_t@56@$$QEAV?$tuple@$$QEBV?$basic_string@DU?$char_traits@D@__Cr@std@@V?$allocator@D@23@@__Cr@std@@@56@$$QEAV?$tuple@$$QEA_J@56@@Z
    ??$?RV?$basic_string@DU?$char_traits@D@__Cr@std@@V?$allocator@D@23@@__Cr@std@@AEBUpiecewise_construct_t@12@V?$tuple@$$QEBV?$basic_string@DU?$char_traits@D@__Cr@std@@V?$allocator@D@23@@__Cr@std@@@12@V?$tuple@$$QEA_J@12@@EmplaceDecomposable@?$raw_hash_set@V?$NodeHashMapPolicy@V?$basic_string@DU?$char_traits@D@__Cr@std@@V?$allocator@D@23@@__Cr@std@@_J@container_internal@absl@@UStringHash@23@UStringEq@23@V?$allocator@U?$pair@$$CBV?$basic_string@DU?$char_traits@D@__Cr@std@@V?$allocator@D@23@@__Cr@std@@_J@__Cr@std@@@__Cr@std@@@container_internal@absl@@QEBA?AU?$pair@Viterator@?$raw_hash_set@V?$NodeHashMapPolicy@V?$basic_string@DU?$char_traits@D@__Cr@std@@V?$allocator@D@23@@__Cr@std@@_J@container_internal@absl@@UStringHash@23@UStringEq@23@V?$allocator@U?$pair@$$CBV?$basic_string@DU?$char_traits@D@__Cr@std@@V?$allocator@D@23@@__Cr@std@@_J@__Cr@std@@@__Cr@std@@@container_internal@absl@@_N@__Cr@std@@AEBV?$basic_string@DU?$char_traits@D@__Cr@std@@V?$allocator@D@23@@56@AEBUpiecewise_construct_t@56@$$QEAV?$tuple@$$QEBV?$basic_string@DU?$char_traits@D@__Cr@std@@V?$allocator@D@23@@__Cr@std@@@56@$$QEAV?$tuple@$$QEA_J@56@@Z
    ??$?RV?$basic_string@DU?$char_traits@D@__Cr@std@@V?$allocator@D@23@@__Cr@std@@AEBUpiecewise_construct_t@12@V?$tuple@$$QEBV?$basic_string@DU?$char_traits@D@__Cr@std@@V?$allocator@D@23@@__Cr@std@@@12@V?$tuple@$$QEA_K@12@@EmplaceDecomposable@?$raw_hash_set@U?$FlatHashMapPolicy@V?$basic_string@DU?$char_traits@D@__Cr@std@@V?$allocator@D@23@@__Cr@std@@_K@container_internal@absl@@UStringHash@23@UStringEq@23@V?$allocator@U?$pair@$$CBV?$basic_string@DU?$char_traits@D@__Cr@std@@V?$allocator@D@23@@__Cr@std@@_K@__Cr@std@@@__Cr@std@@@container_internal@absl@@QEBA?AU?$pair@Viterator@?$raw_hash_set@U?$FlatHashMapPolicy@V?$basic_string@DU?$char_traits@D@__Cr@std@@V?$allocator@D@23@@__Cr@std@@_K@container_internal@absl@@UStringHash@23@UStringEq@23@V?$allocator@U?$pair@$$CBV?$basic_string@DU?$char_traits@D@__Cr@std@@V?$allocator@D@23@@__Cr@std@@_K@__Cr@std@@@__Cr@std@@@container_internal@absl@@_N@__Cr@std@@AEBV?$basic_string@DU?$char_traits@D@__Cr@std@@V?$allocator@D@23@@56@AEBUpiecewise_construct_t@56@$$QEAV?$tuple@$$QEBV?$basic_string@DU?$char_traits@D@__Cr@std@@V?$allocator@D@23@@__Cr@std@@@56@$$QEAV?$tuple@$$QEA_K@56@@Z
    ??$?RV?$basic_string@DU?$char_traits@D@__Cr@std@@V?$allocator@D@23@@__Cr@std@@AEBUpiecewise_construct_t@12@V?$tuple@$$QEBV?$basic_string@DU?$char_traits@D@__Cr@std@@V?$allocator@D@23@@__Cr@std@@@12@V?$tuple@$$QEA_K@12@@EmplaceDecomposable@?$raw_hash_set@V?$NodeHashMapPolicy@V?$basic_string@DU?$char_traits@D@__Cr@std@@V?$allocator@D@23@@__Cr@std@@_K@container_internal@absl@@UStringHash@23@UStringEq@23@V?$allocator@U?$pair@$$CBV?$basic_string@DU?$char_traits@D@__Cr@std@@V?$allocator@D@23@@__Cr@std@@_K@__Cr@std@@@__Cr@std@@@container_internal@absl@@QEBA?AU?$pair@Viterator@?$raw_hash_set@V?$NodeHashMapPolicy@V?$basic_string@DU?$char_traits@D@__Cr@std@@V?$allocator@D@23@@__Cr@std@@_K@container_internal@absl@@UStringHash@23@UStringEq@23@V?$allocator@U?$pair@$$CBV?$basic_string@DU?$char_traits@D@__Cr@std@@V?$allocator@D@23@@__Cr@std@@_K@__Cr@std@@@__Cr@std@@@container_internal@absl@@_N@__Cr@std@@AEBV?$basic_string@DU?$char_traits@D@__Cr@std@@V?$allocator@D@23@@56@AEBUpiecewise_construct_t@56@$$QEAV?$tuple@$$QEBV?$basic_string@DU?$char_traits@D@__Cr@std@@V?$allocator@D@23@@__Cr@std@@@56@$$QEAV?$tuple@$$QEA_K@56@@Z
    ??$?RV?$basic_string@DU?$char_traits@D@__Cr@std@@V?$allocator@D@23@@__Cr@std@@AEBUpiecewise_construct_t@12@V?$tuple@AEBV?$basic_string@DU?$char_traits@D@__Cr@std@@V?$allocator@D@23@@__Cr@std@@@12@V412@@?$EqualElement@V?$basic_string@DU?$char_traits@D@__Cr@std@@V?$allocator@D@23@@__Cr@std@@@?$raw_hash_set@U?$FlatHashMapPolicy@V?$basic_string@DU?$char_traits@D@__Cr@std@@V?$allocator@D@23@@__Cr@std@@V123@@container_internal@absl@@UStringHash@23@UStringEq@23@V?$allocator@U?$pair@$$CBV?$basic_string@DU?$char_traits@D@__Cr@std@@V?$allocator@D@23@@__Cr@std@@V123@@__Cr@std@@@__Cr@std@@@container_internal@absl@@QEBA_NAEBV?$basic_string@DU?$char_traits@D@__Cr@std@@V?$allocator@D@23@@__Cr@std@@AEBUpiecewise_construct_t@56@$$QEAV?$tuple@AEBV?$basic_string@DU?$char_traits@D@__Cr@std@@V?$allocator@D@23@@__Cr@std@@@56@2@Z
    ??$?RV?$basic_string@DU?$char_traits@D@__Cr@std@@V?$allocator@D@23@@__Cr@std@@AEBUpiecewise_construct_t@12@V?$tuple@AEBV?$basic_string@DU?$char_traits@D@__Cr@std@@V?$allocator@D@23@@__Cr@std@@@12@V412@@?$EqualElement@V?$basic_string@DU?$char_traits@D@__Cr@std@@V?$allocator@D@23@@__Cr@std@@@?$raw_hash_set@V?$NodeHashMapPolicy@V?$basic_string@DU?$char_traits@D@__Cr@std@@V?$allocator@D@23@@__Cr@std@@V123@@container_internal@absl@@UStringHash@23@UStringEq@23@V?$allocator@U?$pair@$$CBV?$basic_string@DU?$char_traits@D@__Cr@std@@V?$allocator@D@23@@__Cr@std@@V123@@__Cr@std@@@__Cr@std@@@container_internal@absl@@QEBA_NAEBV?$basic_string@DU?$char_traits@D@__Cr@std@@V?$allocator@D@23@@__Cr@std@@AEBUpiecewise_construct_t@56@$$QEAV?$tuple@AEBV?$basic_string@DU?$char_traits@D@__Cr@std@@V?$allocator@D@23@@__Cr@std@@@56@2@Z
    ??$?RV?$basic_string@DU?$char_traits@D@__Cr@std@@V?$allocator@D@23@@__Cr@std@@AEBUpiecewise_construct_t@12@V?$tuple@AEBV?$basic_string@DU?$char_traits@D@__Cr@std@@V?$allocator@D@23@@__Cr@std@@@12@V412@@?$InsertSlot@$0A@@?$raw_hash_set@U?$FlatHashMapPolicy@V?$basic_string@DU?$char_traits@D@__Cr@std@@V?$allocator@D@23@@__Cr@std@@V123@@container_internal@absl@@UStringHash@23@UStringEq@23@V?$allocator@U?$pair@$$CBV?$basic_string@DU?$char_traits@D@__Cr@std@@V?$allocator@D@23@@__Cr@std@@V123@@__Cr@std@@@__Cr@std@@@container_internal@absl@@QEHAA?AU?$pair@Viterator@?$raw_hash_set@U?$FlatHashMapPolicy@V?$basic_string@DU?$char_traits@D@__Cr@std@@V?$allocator@D@23@@__Cr@std@@V123@@container_internal@absl@@UStringHash@23@UStringEq@23@V?$allocator@U?$pair@$$CBV?$basic_string@DU?$char_traits@D@__Cr@std@@V?$allocator@D@23@@__Cr@std@@V123@@__Cr@std@@@__Cr@std@@@container_internal@absl@@_N@__Cr@std@@AEBV?$basic_string@DU?$char_traits@D@__Cr@std@@V?$allocator@D@23@@56@AEBUpiecewise_construct_t@56@$$QEAV?$tuple@AEBV?$basic_string@DU?$char_traits@D@__Cr@std@@V?$allocator@D@23@@__Cr@std@@@56@2@Z
    ??$?RV?$basic_string@DU?$char_traits@D@__Cr@std@@V?$allocator@D@23@@__Cr@std@@AEBUpiecewise_construct_t@12@V?$tuple@AEBV?$basic_string@DU?$char_traits@D@__Cr@std@@V?$allocator@D@23@@__Cr@std@@@12@V412@@?$InsertSlot@$0A@@?$raw_hash_set@V?$NodeHashMapPolicy@V?$basic_string@DU?$char_traits@D@__Cr@std@@V?$allocator@D@23@@__Cr@std@@V123@@container_internal@absl@@UStringHash@23@UStringEq@23@V?$allocator@U?$pair@$$CBV?$basic_string@DU?$char_traits@D@__Cr@std@@V?$allocator@D@23@@__Cr@std@@V123@@__Cr@std@@@__Cr@std@@@container_internal@absl@@QEHAA?AU?$pair@Viterator@?$raw_hash_set@V?$NodeHashMapPolicy@V?$basic_string@DU?$char_traits@D@__Cr@std@@V?$allocator@D@23@@__Cr@std@@V123@@container_internal@absl@@UStringHash@23@UStringEq@23@V?$allocator@U?$pair@$$CBV?$basic_string@DU?$char_traits@D@__Cr@std@@V?$allocator@D@23@@__Cr@std@@V123@@__Cr@std@@@__Cr@std@@@container_internal@absl@@_N@__Cr@std@@AEBV?$basic_string@DU?$char_traits@D@__Cr@std@@V?$allocator@D@23@@56@AEBUpiecewise_construct_t@56@$$QEAV?$tuple@AEBV?$basic_string@DU?$char_traits@D@__Cr@std@@V?$allocator@D@23@@__Cr@std@@@56@2@Z
    ??$?RV?$basic_string@DU?$char_traits@D@__Cr@std@@V?$allocator@D@23@@__Cr@std@@AEBUpiecewise_construct_t@12@V?$tuple@AEBV?$basic_string@DU?$char_traits@D@__Cr@std@@V?$allocator@D@23@@__Cr@std@@@12@V412@@EmplaceDecomposable@?$raw_hash_set@U?$FlatHashMapPolicy@V?$basic_string@DU?$char_traits@D@__Cr@std@@V?$allocator@D@23@@__Cr@std@@V123@@container_internal@absl@@UStringHash@23@UStringEq@23@V?$allocator@U?$pair@$$CBV?$basic_string@DU?$char_traits@D@__Cr@std@@V?$allocator@D@23@@__Cr@std@@V123@@__Cr@std@@@__Cr@std@@@container_internal@absl@@QEBA?AU?$pair@Viterator@?$raw_hash_set@U?$FlatHashMapPolicy@V?$basic_string@DU?$char_traits@D@__Cr@std@@V?$allocator@D@23@@__Cr@std@@V123@@container_internal@absl@@UStringHash@23@UStringEq@23@V?$allocator@U?$pair@$$CBV?$basic_string@DU?$char_traits@D@__Cr@std@@V?$allocator@D@23@@__Cr@std@@V123@@__Cr@std@@@__Cr@std@@@container_internal@absl@@_N@__Cr@std@@AEBV?$basic_string@DU?$char_traits@D@__Cr@std@@V?$allocator@D@23@@56@AEBUpiecewise_construct_t@56@$$QEAV?$tuple@AEBV?$basic_string@DU?$char_traits@D@__Cr@std@@V?$allocator@D@23@@__Cr@std@@@56@2@Z
    ??$?RV?$basic_string@DU?$char_traits@D@__Cr@std@@V?$allocator@D@23@@__Cr@std@@AEBUpiecewise_construct_t@12@V?$tuple@AEBV?$basic_string@DU?$char_traits@D@__Cr@std@@V?$allocator@D@23@@__Cr@std@@@12@V412@@EmplaceDecomposable@?$raw_hash_set@V?$NodeHashMapPolicy@V?$basic_string@DU?$char_traits@D@__Cr@std@@V?$allocator@D@23@@__Cr@std@@V123@@container_internal@absl@@UStringHash@23@UStringEq@23@V?$allocator@U?$pair@$$CBV?$basic_string@DU?$char_traits@D@__Cr@std@@V?$allocator@D@23@@__Cr@std@@V123@@__Cr@std@@@__Cr@std@@@container_internal@absl@@QEBA?AU?$pair@Viterator@?$raw_hash_set@V?$NodeHashMapPolicy@V?$basic_string@DU?$char_traits@D@__Cr@std@@V?$allocator@D@23@@__Cr@std@@V123@@container_internal@absl@@UStringHash@23@UStringEq@23@V?$allocator@U?$pair@$$CBV?$basic_string@DU?$char_traits@D@__Cr@std@@V?$allocator@D@23@@__Cr@std@@V123@@__Cr@std@@@__Cr@std@@@container_internal@absl@@_N@__Cr@std@@AEBV?$basic_string@DU?$char_traits@D@__Cr@std@@V?$allocator@D@23@@56@AEBUpiecewise_construct_t@56@$$QEAV?$tuple@AEBV?$basic_string@DU?$char_traits@D@__Cr@std@@V?$allocator@D@23@@__Cr@std@@@56@2@Z
    ??$?RV?$basic_string@DU?$char_traits@D@__Cr@std@@V?$allocator@D@23@@__Cr@std@@AEBUpiecewise_construct_t@12@V?$tuple@AEBV?$basic_string@DU?$char_traits@D@__Cr@std@@V?$allocator@D@23@@__Cr@std@@@12@V412@@FindElement@?$raw_hash_set@U?$FlatHashMapPolicy@V?$basic_string@DU?$char_traits@D@__Cr@std@@V?$allocator@D@23@@__Cr@std@@V123@@container_internal@absl@@UStringHash@23@UStringEq@23@V?$allocator@U?$pair@$$CBV?$basic_string@DU?$char_traits@D@__Cr@std@@V?$allocator@D@23@@__Cr@std@@V123@@__Cr@std@@@__Cr@std@@@container_internal@absl@@QEBA?AVconst_iterator@123@AEBV?$basic_string@DU?$char_traits@D@__Cr@std@@V?$allocator@D@23@@__Cr@std@@AEBUpiecewise_construct_t@67@$$QEAV?$tuple@AEBV?$basic_string@DU?$char_traits@D@__Cr@std@@V?$allocator@D@23@@__Cr@std@@@67@2@Z
    ??$?RV?$basic_string@DU?$char_traits@D@__Cr@std@@V?$allocator@D@23@@__Cr@std@@AEBUpiecewise_construct_t@12@V?$tuple@AEBV?$basic_string@DU?$char_traits@D@__Cr@std@@V?$allocator@D@23@@__Cr@std@@@12@V412@@FindElement@?$raw_hash_set@V?$NodeHashMapPolicy@V?$basic_string@DU?$char_traits@D@__Cr@std@@V?$allocator@D@23@@__Cr@std@@V123@@container_internal@absl@@UStringHash@23@UStringEq@23@V?$allocator@U?$pair@$$CBV?$basic_string@DU?$char_traits@D@__Cr@std@@V?$allocator@D@23@@__Cr@std@@V123@@__Cr@std@@@__Cr@std@@@container_internal@absl@@QEBA?AVconst_iterator@123@AEBV?$basic_string@DU?$char_traits@D@__Cr@std@@V?$allocator@D@23@@__Cr@std@@AEBUpiecewise_construct_t@67@$$QEAV?$tuple@AEBV?$basic_string@DU?$char_traits@D@__Cr@std@@V?$allocator@D@23@@__Cr@std@@@67@2@Z
    ??$?RV?$basic_string@DU?$char_traits@D@__Cr@std@@V?$allocator@D@23@@__Cr@std@@AEBUpiecewise_construct_t@12@V?$tuple@AEBV?$basic_string@DU?$char_traits@D@__Cr@std@@V?$allocator@D@23@@__Cr@std@@@12@V412@@HashElement@?$raw_hash_set@U?$FlatHashMapPolicy@V?$basic_string@DU?$char_traits@D@__Cr@std@@V?$allocator@D@23@@__Cr@std@@V123@@container_internal@absl@@UStringHash@23@UStringEq@23@V?$allocator@U?$pair@$$CBV?$basic_string@DU?$char_traits@D@__Cr@std@@V?$allocator@D@23@@__Cr@std@@V123@@__Cr@std@@@__Cr@std@@@container_internal@absl@@QEBA_KAEBV?$basic_string@DU?$char_traits@D@__Cr@std@@V?$allocator@D@23@@__Cr@std@@AEBUpiecewise_construct_t@56@$$QEAV?$tuple@AEBV?$basic_string@DU?$char_traits@D@__Cr@std@@V?$allocator@D@23@@__Cr@std@@@56@2@Z
    ??$?RV?$basic_string@DU?$char_traits@D@__Cr@std@@V?$allocator@D@23@@__Cr@std@@AEBUpiecewise_construct_t@12@V?$tuple@AEBV?$basic_string@DU?$char_traits@D@__Cr@std@@V?$allocator@D@23@@__Cr@std@@@12@V412@@HashElement@?$raw_hash_set@V?$NodeHashMapPolicy@V?$basic_string@DU?$char_traits@D@__Cr@std@@V?$allocator@D@23@@__Cr@std@@V123@@container_internal@absl@@UStringHash@23@UStringEq@23@V?$allocator@U?$pair@$$CBV?$basic_string@DU?$char_traits@D@__Cr@std@@V?$allocator@D@23@@__Cr@std@@V123@@__Cr@std@@@__Cr@std@@@container_internal@absl@@QEBA_KAEBV?$basic_string@DU?$char_traits@D@__Cr@std@@V?$allocator@D@23@@__Cr@std@@AEBUpiecewise_construct_t@56@$$QEAV?$tuple@AEBV?$basic_string@DU?$char_traits@D@__Cr@std@@V?$allocator@D@23@@__Cr@std@@@56@2@Z
    ??$?RV?$basic_string@DU?$char_traits@D@__Cr@std@@V?$allocator@D@23@@__Cr@std@@AEBUpiecewise_construct_t@12@V?$tuple@AEBV?$basic_string@DU?$char_traits@D@__Cr@std@@V?$allocator@D@23@@__Cr@std@@@12@V?$tuple@AEBH@12@@?$EqualElement@V?$basic_string@DU?$char_traits@D@__Cr@std@@V?$allocator@D@23@@__Cr@std@@@?$raw_hash_set@U?$FlatHashMapPolicy@V?$basic_string@DU?$char_traits@D@__Cr@std@@V?$allocator@D@23@@__Cr@std@@H@container_internal@absl@@UStringHash@23@UStringEq@23@V?$allocator@U?$pair@$$CBV?$basic_string@DU?$char_traits@D@__Cr@std@@V?$allocator@D@23@@__Cr@std@@H@__Cr@std@@@__Cr@std@@@container_internal@absl@@QEBA_NAEBV?$basic_string@DU?$char_traits@D@__Cr@std@@V?$allocator@D@23@@__Cr@std@@AEBUpiecewise_construct_t@56@$$QEAV?$tuple@AEBV?$basic_string@DU?$char_traits@D@__Cr@std@@V?$allocator@D@23@@__Cr@std@@@56@$$QEAV?$tuple@AEBH@56@@Z
    ??$?RV?$basic_string@DU?$char_traits@D@__Cr@std@@V?$allocator@D@23@@__Cr@std@@AEBUpiecewise_construct_t@12@V?$tuple@AEBV?$basic_string@DU?$char_traits@D@__Cr@std@@V?$allocator@D@23@@__Cr@std@@@12@V?$tuple@AEBH@12@@?$EqualElement@V?$basic_string@DU?$char_traits@D@__Cr@std@@V?$allocator@D@23@@__Cr@std@@@?$raw_hash_set@V?$NodeHashMapPolicy@V?$basic_string@DU?$char_traits@D@__Cr@std@@V?$allocator@D@23@@__Cr@std@@H@container_internal@absl@@UStringHash@23@UStringEq@23@V?$allocator@U?$pair@$$CBV?$basic_string@DU?$char_traits@D@__Cr@std@@V?$allocator@D@23@@__Cr@std@@H@__Cr@std@@@__Cr@std@@@container_internal@absl@@QEBA_NAEBV?$basic_string@DU?$char_traits@D@__Cr@std@@V?$allocator@D@23@@__Cr@std@@AEBUpiecewise_construct_t@56@$$QEAV?$tuple@AEBV?$basic_string@DU?$char_traits@D@__Cr@std@@V?$allocator@D@23@@__Cr@std@@@56@$$QEAV?$tuple@AEBH@56@@Z
    ??$?RV?$basic_string@DU?$char_traits@D@__Cr@std@@V?$allocator@D@23@@__Cr@std@@AEBUpiecewise_construct_t@12@V?$tuple@AEBV?$basic_string@DU?$char_traits@D@__Cr@std@@V?$allocator@D@23@@__Cr@std@@@12@V?$tuple@AEBH@12@@?$InsertSlot@$0A@@?$raw_hash_set@U?$FlatHashMapPolicy@V?$basic_string@DU?$char_traits@D@__Cr@std@@V?$allocator@D@23@@__Cr@std@@H@container_internal@absl@@UStringHash@23@UStringEq@23@V?$allocator@U?$pair@$$CBV?$basic_string@DU?$char_traits@D@__Cr@std@@V?$allocator@D@23@@__Cr@std@@H@__Cr@std@@@__Cr@std@@@container_internal@absl@@QEHAA?AU?$pair@Viterator@?$raw_hash_set@U?$FlatHashMapPolicy@V?$basic_string@DU?$char_traits@D@__Cr@std@@V?$allocator@D@23@@__Cr@std@@H@container_internal@absl@@UStringHash@23@UStringEq@23@V?$allocator@U?$pair@$$CBV?$basic_string@DU?$char_traits@D@__Cr@std@@V?$allocator@D@23@@__Cr@std@@H@__Cr@std@@@__Cr@std@@@container_internal@absl@@_N@__Cr@std@@AEBV?$basic_string@DU?$char_traits@D@__Cr@std@@V?$allocator@D@23@@56@AEBUpiecewise_construct_t@56@$$QEAV?$tuple@AEBV?$basic_string@DU?$char_traits@D@__Cr@std@@V?$allocator@D@23@@__Cr@std@@@56@$$QEAV?$tuple@AEBH@56@@Z
    ??$?RV?$basic_string@DU?$char_traits@D@__Cr@std@@V?$allocator@D@23@@__Cr@std@@AEBUpiecewise_construct_t@12@V?$tuple@AEBV?$basic_string@DU?$char_traits@D@__Cr@std@@V?$allocator@D@23@@__Cr@std@@@12@V?$tuple@AEBH@12@@?$InsertSlot@$0A@@?$raw_hash_set@V?$NodeHashMapPolicy@V?$basic_string@DU?$char_traits@D@__Cr@std@@V?$allocator@D@23@@__Cr@std@@H@container_internal@absl@@UStringHash@23@UStringEq@23@V?$allocator@U?$pair@$$CBV?$basic_string@DU?$char_traits@D@__Cr@std@@V?$allocator@D@23@@__Cr@std@@H@__Cr@std@@@__Cr@std@@@container_internal@absl@@QEHAA?AU?$pair@Viterator@?$raw_hash_set@V?$NodeHashMapPolicy@V?$basic_string@DU?$char_traits@D@__Cr@std@@V?$allocator@D@23@@__Cr@std@@H@container_internal@absl@@UStringHash@23@UStringEq@23@V?$allocator@U?$pair@$$CBV?$basic_string@DU?$char_traits@D@__Cr@std@@V?$allocator@D@23@@__Cr@std@@H@__Cr@std@@@__Cr@std@@@container_internal@absl@@_N@__Cr@std@@AEBV?$basic_string@DU?$char_traits@D@__Cr@std@@V?$allocator@D@23@@56@AEBUpiecewise_construct_t@56@$$QEAV?$tuple@AEBV?$basic_string@DU?$char_traits@D@__Cr@std@@V?$allocator@D@23@@__Cr@std@@@56@$$QEAV?$tuple@AEBH@56@@Z
    ??$?RV?$basic_string@DU?$char_traits@D@__Cr@std@@V?$allocator@D@23@@__Cr@std@@AEBUpiecewise_construct_t@12@V?$tuple@AEBV?$basic_string@DU?$char_traits@D@__Cr@std@@V?$allocator@D@23@@__Cr@std@@@12@V?$tuple@AEBH@12@@EmplaceDecomposable@?$raw_hash_set@U?$FlatHashMapPolicy@V?$basic_string@DU?$char_traits@D@__Cr@std@@V?$allocator@D@23@@__Cr@std@@H@container_internal@absl@@UStringHash@23@UStringEq@23@V?$allocator@U?$pair@$$CBV?$basic_string@DU?$char_traits@D@__Cr@std@@V?$allocator@D@23@@__Cr@std@@H@__Cr@std@@@__Cr@std@@@container_internal@absl@@QEBA?AU?$pair@Viterator@?$raw_hash_set@U?$FlatHashMapPolicy@V?$basic_string@DU?$char_traits@D@__Cr@std@@V?$allocator@D@23@@__Cr@std@@H@container_internal@absl@@UStringHash@23@UStringEq@23@V?$allocator@U?$pair@$$CBV?$basic_string@DU?$char_traits@D@__Cr@std@@V?$allocator@D@23@@__Cr@std@@H@__Cr@std@@@__Cr@std@@@container_internal@absl@@_N@__Cr@std@@AEBV?$basic_string@DU?$char_traits@D@__Cr@std@@V?$allocator@D@23@@56@AEBUpiecewise_construct_t@56@$$QEAV?$tuple@AEBV?$basic_string@DU?$char_traits@D@__Cr@std@@V?$allocator@D@23@@__Cr@std@@@56@$$QEAV?$tuple@AEBH@56@@Z
    ??$?RV?$basic_string@DU?$char_traits@D@__Cr@std@@V?$allocator@D@23@@__Cr@std@@AEBUpiecewise_construct_t@12@V?$tuple@AEBV?$basic_string@DU?$char_traits@D@__Cr@std@@V?$allocator@D@23@@__Cr@std@@@12@V?$tuple@AEBH@12@@EmplaceDecomposable@?$raw_hash_set@V?$NodeHashMapPolicy@V?$basic_string@DU?$char_traits@D@__Cr@std@@V?$allocator@D@23@@__Cr@std@@H@container_internal@absl@@UStringHash@23@UStringEq@23@V?$allocator@U?$pair@$$CBV?$basic_string@DU?$char_traits@D@__Cr@std@@V?$allocator@D@23@@__Cr@std@@H@__Cr@std@@@__Cr@std@@@container_internal@absl@@QEBA?AU?$pair@Viterator@?$raw_hash_set@V?$NodeHashMapPolicy@V?$basic_string@DU?$char_traits@D@__Cr@std@@V?$allocator@D@23@@__Cr@std@@H@container_internal@absl@@UStringHash@23@UStringEq@23@V?$allocator@U?$pair@$$CBV?$basic_string@DU?$char_traits@D@__Cr@std@@V?$allocator@D@23@@__Cr@std@@H@__Cr@std@@@__Cr@std@@@container_internal@absl@@_N@__Cr@std@@AEBV?$basic_string@DU?$char_traits@D@__Cr@std@@V?$allocator@D@23@@56@AEBUpiecewise_construct_t@56@$$QEAV?$tuple@AEBV?$basic_string@DU?$char_traits@D@__Cr@std@@V?$allocator@D@23@@__Cr@std@@@56@$$QEAV?$tuple@AEBH@56@@Z
    ??$?RV?$basic_string@DU?$char_traits@D@__Cr@std@@V?$allocator@D@23@@__Cr@std@@AEBUpiecewise_construct_t@12@V?$tuple@AEBV?$basic_string@DU?$char_traits@D@__Cr@std@@V?$allocator@D@23@@__Cr@std@@@12@V?$tuple@AEBH@12@@FindElement@?$raw_hash_set@U?$FlatHashMapPolicy@V?$basic_string@DU?$char_traits@D@__Cr@std@@V?$allocator@D@23@@__Cr@std@@H@container_internal@absl@@UStringHash@23@UStringEq@23@V?$allocator@U?$pair@$$CBV?$basic_string@DU?$char_traits@D@__Cr@std@@V?$allocator@D@23@@__Cr@std@@H@__Cr@std@@@__Cr@std@@@container_internal@absl@@QEBA?AVconst_iterator@123@AEBV?$basic_string@DU?$char_traits@D@__Cr@std@@V?$allocator@D@23@@__Cr@std@@AEBUpiecewise_construct_t@67@$$QEAV?$tuple@AEBV?$basic_string@DU?$char_traits@D@__Cr@std@@V?$allocator@D@23@@__Cr@std@@@67@$$QEAV?$tuple@AEBH@67@@Z
    ??$?RV?$basic_string@DU?$char_traits@D@__Cr@std@@V?$allocator@D@23@@__Cr@std@@AEBUpiecewise_construct_t@12@V?$tuple@AEBV?$basic_string@DU?$char_traits@D@__Cr@std@@V?$allocator@D@23@@__Cr@std@@@12@V?$tuple@AEBH@12@@FindElement@?$raw_hash_set@V?$NodeHashMapPolicy@V?$basic_string@DU?$char_traits@D@__Cr@std@@V?$allocator@D@23@@__Cr@std@@H@container_internal@absl@@UStringHash@23@UStringEq@23@V?$allocator@U?$pair@$$CBV?$basic_string@DU?$char_traits@D@__Cr@std@@V?$allocator@D@23@@__Cr@std@@H@__Cr@std@@@__Cr@std@@@container_internal@absl@@QEBA?AVconst_iterator@123@AEBV?$basic_string@DU?$char_traits@D@__Cr@std@@V?$allocator@D@23@@__Cr@std@@AEBUpiecewise_construct_t@67@$$QEAV?$tuple@AEBV?$basic_string@DU?$char_traits@D@__Cr@std@@V?$allocator@D@23@@__Cr@std@@@67@$$QEAV?$tuple@AEBH@67@@Z
    ??$?RV?$basic_string@DU?$char_traits@D@__Cr@std@@V?$allocator@D@23@@__Cr@std@@AEBUpiecewise_construct_t@12@V?$tuple@AEBV?$basic_string@DU?$char_traits@D@__Cr@std@@V?$allocator@D@23@@__Cr@std@@@12@V?$tuple@AEBH@12@@HashElement@?$raw_hash_set@U?$FlatHashMapPolicy@V?$basic_string@DU?$char_traits@D@__Cr@std@@V?$allocator@D@23@@__Cr@std@@H@container_internal@absl@@UStringHash@23@UStringEq@23@V?$allocator@U?$pair@$$CBV?$basic_string@DU?$char_traits@D@__Cr@std@@V?$allocator@D@23@@__Cr@std@@H@__Cr@std@@@__Cr@std@@@container_internal@absl@@QEBA_KAEBV?$basic_string@DU?$char_traits@D@__Cr@std@@V?$allocator@D@23@@__Cr@std@@AEBUpiecewise_construct_t@56@$$QEAV?$tuple@AEBV?$basic_string@DU?$char_traits@D@__Cr@std@@V?$allocator@D@23@@__Cr@std@@@56@$$QEAV?$tuple@AEBH@56@@Z
    ??$?RV?$basic_string@DU?$char_traits@D@__Cr@std@@V?$allocator@D@23@@__Cr@std@@AEBUpiecewise_construct_t@12@V?$tuple@AEBV?$basic_string@DU?$char_traits@D@__Cr@std@@V?$allocator@D@23@@__Cr@std@@@12@V?$tuple@AEBH@12@@HashElement@?$raw_hash_set@V?$NodeHashMapPolicy@V?$basic_string@DU?$char_traits@D@__Cr@std@@V?$allocator@D@23@@__Cr@std@@H@container_internal@absl@@UStringHash@23@UStringEq@23@V?$allocator@U?$pair@$$CBV?$basic_string@DU?$char_traits@D@__Cr@std@@V?$allocator@D@23@@__Cr@std@@H@__Cr@std@@@__Cr@std@@@container_internal@absl@@QEBA_KAEBV?$basic_string@DU?$char_traits@D@__Cr@std@@V?$allocator@D@23@@__Cr@std@@AEBUpiecewise_construct_t@56@$$QEAV?$tuple@AEBV?$basic_string@DU?$char_traits@D@__Cr@std@@V?$allocator@D@23@@__Cr@std@@@56@$$QEAV?$tuple@AEBH@56@@Z
    ??$?RV?$basic_string@DU?$char_traits@D@__Cr@std@@V?$allocator@D@23@@__Cr@std@@AEBUpiecewise_construct_t@12@V?$tuple@AEBV?$basic_string@DU?$char_traits@D@__Cr@std@@V?$allocator@D@23@@__Cr@std@@@12@V?$tuple@AEBI@12@@?$EqualElement@V?$basic_string@DU?$char_traits@D@__Cr@std@@V?$allocator@D@23@@__Cr@std@@@?$raw_hash_set@U?$FlatHashMapPolicy@V?$basic_string@DU?$char_traits@D@__Cr@std@@V?$allocator@D@23@@__Cr@std@@I@container_internal@absl@@UStringHash@23@UStringEq@23@V?$allocator@U?$pair@$$CBV?$basic_string@DU?$char_traits@D@__Cr@std@@V?$allocator@D@23@@__Cr@std@@I@__Cr@std@@@__Cr@std@@@container_internal@absl@@QEBA_NAEBV?$basic_string@DU?$char_traits@D@__Cr@std@@V?$allocator@D@23@@__Cr@std@@AEBUpiecewise_construct_t@56@$$QEAV?$tuple@AEBV?$basic_string@DU?$char_traits@D@__Cr@std@@V?$allocator@D@23@@__Cr@std@@@56@$$QEAV?$tuple@AEBI@56@@Z
    ??$?RV?$basic_string@DU?$char_traits@D@__Cr@std@@V?$allocator@D@23@@__Cr@std@@AEBUpiecewise_construct_t@12@V?$tuple@AEBV?$basic_string@DU?$char_traits@D@__Cr@std@@V?$allocator@D@23@@__Cr@std@@@12@V?$tuple@AEBI@12@@?$EqualElement@V?$basic_string@DU?$char_traits@D@__Cr@std@@V?$allocator@D@23@@__Cr@std@@@?$raw_hash_set@V?$NodeHashMapPolicy@V?$basic_string@DU?$char_traits@D@__Cr@std@@V?$allocator@D@23@@__Cr@std@@I@container_internal@absl@@UStringHash@23@UStringEq@23@V?$allocator@U?$pair@$$CBV?$basic_string@DU?$char_traits@D@__Cr@std@@V?$allocator@D@23@@__Cr@std@@I@__Cr@std@@@__Cr@std@@@container_internal@absl@@QEBA_NAEBV?$basic_string@DU?$char_traits@D@__Cr@std@@V?$allocator@D@23@@__Cr@std@@AEBUpiecewise_construct_t@56@$$QEAV?$tuple@AEBV?$basic_string@DU?$char_traits@D@__Cr@std@@V?$allocator@D@23@@__Cr@std@@@56@$$QEAV?$tuple@AEBI@56@@Z
    ??$?RV?$basic_string@DU?$char_traits@D@__Cr@std@@V?$allocator@D@23@@__Cr@std@@AEBUpiecewise_construct_t@12@V?$tuple@AEBV?$basic_string@DU?$char_traits@D@__Cr@std@@V?$allocator@D@23@@__Cr@std@@@12@V?$tuple@AEBI@12@@?$InsertSlot@$0A@@?$raw_hash_set@U?$FlatHashMapPolicy@V?$basic_string@DU?$char_traits@D@__Cr@std@@V?$allocator@D@23@@__Cr@std@@I@container_internal@absl@@UStringHash@23@UStringEq@23@V?$allocator@U?$pair@$$CBV?$basic_string@DU?$char_traits@D@__Cr@std@@V?$allocator@D@23@@__Cr@std@@I@__Cr@std@@@__Cr@std@@@container_internal@absl@@QEHAA?AU?$pair@Viterator@?$raw_hash_set@U?$FlatHashMapPolicy@V?$basic_string@DU?$char_traits@D@__Cr@std@@V?$allocator@D@23@@__Cr@std@@I@container_internal@absl@@UStringHash@23@UStringEq@23@V?$allocator@U?$pair@$$CBV?$basic_string@DU?$char_traits@D@__Cr@std@@V?$allocator@D@23@@__Cr@std@@I@__Cr@std@@@__Cr@std@@@container_internal@absl@@_N@__Cr@std@@AEBV?$basic_string@DU?$char_traits@D@__Cr@std@@V?$allocator@D@23@@56@AEBUpiecewise_construct_t@56@$$QEAV?$tuple@AEBV?$basic_string@DU?$char_traits@D@__Cr@std@@V?$allocator@D@23@@__Cr@std@@@56@$$QEAV?$tuple@AEBI@56@@Z
    ??$?RV?$basic_string@DU?$char_traits@D@__Cr@std@@V?$allocator@D@23@@__Cr@std@@AEBUpiecewise_construct_t@12@V?$tuple@AEBV?$basic_string@DU?$char_traits@D@__Cr@std@@V?$allocator@D@23@@__Cr@std@@@12@V?$tuple@AEBI@12@@?$InsertSlot@$0A@@?$raw_hash_set@V?$NodeHashMapPolicy@V?$basic_string@DU?$char_traits@D@__Cr@std@@V?$allocator@D@23@@__Cr@std@@I@container_internal@absl@@UStringHash@23@UStringEq@23@V?$allocator@U?$pair@$$CBV?$basic_string@DU?$char_traits@D@__Cr@std@@V?$allocator@D@23@@__Cr@std@@I@__Cr@std@@@__Cr@std@@@container_internal@absl@@QEHAA?AU?$pair@Viterator@?$raw_hash_set@V?$NodeHashMapPolicy@V?$basic_string@DU?$char_traits@D@__Cr@std@@V?$allocator@D@23@@__Cr@std@@I@container_internal@absl@@UStringHash@23@UStringEq@23@V?$allocator@U?$pair@$$CBV?$basic_string@DU?$char_traits@D@__Cr@std@@V?$allocator@D@23@@__Cr@std@@I@__Cr@std@@@__Cr@std@@@container_internal@absl@@_N@__Cr@std@@AEBV?$basic_string@DU?$char_traits@D@__Cr@std@@V?$allocator@D@23@@56@AEBUpiecewise_construct_t@56@$$QEAV?$tuple@AEBV?$basic_string@DU?$char_traits@D@__Cr@std@@V?$allocator@D@23@@__Cr@std@@@56@$$QEAV?$tuple@AEBI@56@@Z
    ??$?RV?$basic_string@DU?$char_traits@D@__Cr@std@@V?$allocator@D@23@@__Cr@std@@AEBUpiecewise_construct_t@12@V?$tuple@AEBV?$basic_string@DU?$char_traits@D@__Cr@std@@V?$allocator@D@23@@__Cr@std@@@12@V?$tuple@AEBI@12@@EmplaceDecomposable@?$raw_hash_set@U?$FlatHashMapPolicy@V?$basic_string@DU?$char_traits@D@__Cr@std@@V?$allocator@D@23@@__Cr@std@@I@container_internal@absl@@UStringHash@23@UStringEq@23@V?$allocator@U?$pair@$$CBV?$basic_string@DU?$char_traits@D@__Cr@std@@V?$allocator@D@23@@__Cr@std@@I@__Cr@std@@@__Cr@std@@@container_internal@absl@@QEBA?AU?$pair@Viterator@?$raw_hash_set@U?$FlatHashMapPolicy@V?$basic_string@DU?$char_traits@D@__Cr@std@@V?$allocator@D@23@@__Cr@std@@I@container_internal@absl@@UStringHash@23@UStringEq@23@V?$allocator@U?$pair@$$CBV?$basic_string@DU?$char_traits@D@__Cr@std@@V?$allocator@D@23@@__Cr@std@@I@__Cr@std@@@__Cr@std@@@container_internal@absl@@_N@__Cr@std@@AEBV?$basic_string@DU?$char_traits@D@__Cr@std@@V?$allocator@D@23@@56@AEBUpiecewise_construct_t@56@$$QEAV?$tuple@AEBV?$basic_string@DU?$char_traits@D@__Cr@std@@V?$allocator@D@23@@__Cr@std@@@56@$$QEAV?$tuple@AEBI@56@@Z
    ??$?RV?$basic_string@DU?$char_traits@D@__Cr@std@@V?$allocator@D@23@@__Cr@std@@AEBUpiecewise_construct_t@12@V?$tuple@AEBV?$basic_string@DU?$char_traits@D@__Cr@std@@V?$allocator@D@23@@__Cr@std@@@12@V?$tuple@AEBI@12@@EmplaceDecomposable@?$raw_hash_set@V?$NodeHashMapPolicy@V?$basic_string@DU?$char_traits@D@__Cr@std@@V?$allocator@D@23@@__Cr@std@@I@container_internal@absl@@UStringHash@23@UStringEq@23@V?$allocator@U?$pair@$$CBV?$basic_string@DU?$char_traits@D@__Cr@std@@V?$allocator@D@23@@__Cr@std@@I@__Cr@std@@@__Cr@std@@@container_internal@absl@@QEBA?AU?$pair@Viterator@?$raw_hash_set@V?$NodeHashMapPolicy@V?$basic_string@DU?$char_traits@D@__Cr@std@@V?$allocator@D@23@@__Cr@std@@I@container_internal@absl@@UStringHash@23@UStringEq@23@V?$allocator@U?$pair@$$CBV?$basic_string@DU?$char_traits@D@__Cr@std@@V?$allocator@D@23@@__Cr@std@@I@__Cr@std@@@__Cr@std@@@container_internal@absl@@_N@__Cr@std@@AEBV?$basic_string@DU?$char_traits@D@__Cr@std@@V?$allocator@D@23@@56@AEBUpiecewise_construct_t@56@$$QEAV?$tuple@AEBV?$basic_string@DU?$char_traits@D@__Cr@std@@V?$allocator@D@23@@__Cr@std@@@56@$$QEAV?$tuple@AEBI@56@@Z
    ??$?RV?$basic_string@DU?$char_traits@D@__Cr@std@@V?$allocator@D@23@@__Cr@std@@AEBUpiecewise_construct_t@12@V?$tuple@AEBV?$basic_string@DU?$char_traits@D@__Cr@std@@V?$allocator@D@23@@__Cr@std@@@12@V?$tuple@AEBI@12@@FindElement@?$raw_hash_set@U?$FlatHashMapPolicy@V?$basic_string@DU?$char_traits@D@__Cr@std@@V?$allocator@D@23@@__Cr@std@@I@container_internal@absl@@UStringHash@23@UStringEq@23@V?$allocator@U?$pair@$$CBV?$basic_string@DU?$char_traits@D@__Cr@std@@V?$allocator@D@23@@__Cr@std@@I@__Cr@std@@@__Cr@std@@@container_internal@absl@@QEBA?AVconst_iterator@123@AEBV?$basic_string@DU?$char_traits@D@__Cr@std@@V?$allocator@D@23@@__Cr@std@@AEBUpiecewise_construct_t@67@$$QEAV?$tuple@AEBV?$basic_string@DU?$char_traits@D@__Cr@std@@V?$allocator@D@23@@__Cr@std@@@67@$$QEAV?$tuple@AEBI@67@@Z
    ??$?RV?$basic_string@DU?$char_traits@D@__Cr@std@@V?$allocator@D@23@@__Cr@std@@AEBUpiecewise_construct_t@12@V?$tuple@AEBV?$basic_string@DU?$char_traits@D@__Cr@std@@V?$allocator@D@23@@__Cr@std@@@12@V?$tuple@AEBI@12@@FindElement@?$raw_hash_set@V?$NodeHashMapPolicy@V?$basic_string@DU?$char_traits@D@__Cr@std@@V?$allocator@D@23@@__Cr@std@@I@container_internal@absl@@UStringHash@23@UStringEq@23@V?$allocator@U?$pair@$$CBV?$basic_string@DU?$char_traits@D@__Cr@std@@V?$allocator@D@23@@__Cr@std@@I@__Cr@std@@@__Cr@std@@@container_internal@absl@@QEBA?AVconst_iterator@123@AEBV?$basic_string@DU?$char_traits@D@__Cr@std@@V?$allocator@D@23@@__Cr@std@@AEBUpiecewise_construct_t@67@$$QEAV?$tuple@AEBV?$basic_string@DU?$char_traits@D@__Cr@std@@V?$allocator@D@23@@__Cr@std@@@67@$$QEAV?$tuple@AEBI@67@@Z
    ??$?RV?$basic_string@DU?$char_traits@D@__Cr@std@@V?$allocator@D@23@@__Cr@std@@AEBUpiecewise_construct_t@12@V?$tuple@AEBV?$basic_string@DU?$char_traits@D@__Cr@std@@V?$allocator@D@23@@__Cr@std@@@12@V?$tuple@AEBI@12@@HashElement@?$raw_hash_set@U?$FlatHashMapPolicy@V?$basic_string@DU?$char_traits@D@__Cr@std@@V?$allocator@D@23@@__Cr@std@@I@container_internal@absl@@UStringHash@23@UStringEq@23@V?$allocator@U?$pair@$$CBV?$basic_string@DU?$char_traits@D@__Cr@std@@V?$allocator@D@23@@__Cr@std@@I@__Cr@std@@@__Cr@std@@@container_internal@absl@@QEBA_KAEBV?$basic_string@DU?$char_traits@D@__Cr@std@@V?$allocator@D@23@@__Cr@std@@AEBUpiecewise_construct_t@56@$$QEAV?$tuple@AEBV?$basic_string@DU?$char_traits@D@__Cr@std@@V?$allocator@D@23@@__Cr@std@@@56@$$QEAV?$tuple@AEBI@56@@Z
    ??$?RV?$basic_string@DU?$char_traits@D@__Cr@std@@V?$allocator@D@23@@__Cr@std@@AEBUpiecewise_construct_t@12@V?$tuple@AEBV?$basic_string@DU?$char_traits@D@__Cr@std@@V?$allocator@D@23@@__Cr@std@@@12@V?$tuple@AEBI@12@@HashElement@?$raw_hash_set@V?$NodeHashMapPolicy@V?$basic_string@DU?$char_traits@D@__Cr@std@@V?$allocator@D@23@@__Cr@std@@I@container_internal@absl@@UStringHash@23@UStringEq@23@V?$allocator@U?$pair@$$CBV?$basic_string@DU?$char_traits@D@__Cr@std@@V?$allocator@D@23@@__Cr@std@@I@__Cr@std@@@__Cr@std@@@container_internal@absl@@QEBA_KAEBV?$basic_string@DU?$char_traits@D@__Cr@std@@V?$allocator@D@23@@__Cr@std@@AEBUpiecewise_construct_t@56@$$QEAV?$tuple@AEBV?$basic_string@DU?$char_traits@D@__Cr@std@@V?$allocator@D@23@@__Cr@std@@@56@$$QEAV?$tuple@AEBI@56@@Z
    ??$?RV?$basic_string@DU?$char_traits@D@__Cr@std@@V?$allocator@D@23@@__Cr@std@@AEBUpiecewise_construct_t@12@V?$tuple@AEBV?$basic_string@DU?$char_traits@D@__Cr@std@@V?$allocator@D@23@@__Cr@std@@@12@V?$tuple@AEB_J@12@@?$EqualElement@V?$basic_string@DU?$char_traits@D@__Cr@std@@V?$allocator@D@23@@__Cr@std@@@?$raw_hash_set@U?$FlatHashMapPolicy@V?$basic_string@DU?$char_traits@D@__Cr@std@@V?$allocator@D@23@@__Cr@std@@_J@container_internal@absl@@UStringHash@23@UStringEq@23@V?$allocator@U?$pair@$$CBV?$basic_string@DU?$char_traits@D@__Cr@std@@V?$allocator@D@23@@__Cr@std@@_J@__Cr@std@@@__Cr@std@@@container_internal@absl@@QEBA_NAEBV?$basic_string@DU?$char_traits@D@__Cr@std@@V?$allocator@D@23@@__Cr@std@@AEBUpiecewise_construct_t@56@$$QEAV?$tuple@AEBV?$basic_string@DU?$char_traits@D@__Cr@std@@V?$allocator@D@23@@__Cr@std@@@56@$$QEAV?$tuple@AEB_J@56@@Z
    ??$?RV?$basic_string@DU?$char_traits@D@__Cr@std@@V?$allocator@D@23@@__Cr@std@@AEBUpiecewise_construct_t@12@V?$tuple@AEBV?$basic_string@DU?$char_traits@D@__Cr@std@@V?$allocator@D@23@@__Cr@std@@@12@V?$tuple@AEB_J@12@@?$EqualElement@V?$basic_string@DU?$char_traits@D@__Cr@std@@V?$allocator@D@23@@__Cr@std@@@?$raw_hash_set@V?$NodeHashMapPolicy@V?$basic_string@DU?$char_traits@D@__Cr@std@@V?$allocator@D@23@@__Cr@std@@_J@container_internal@absl@@UStringHash@23@UStringEq@23@V?$allocator@U?$pair@$$CBV?$basic_string@DU?$char_traits@D@__Cr@std@@V?$allocator@D@23@@__Cr@std@@_J@__Cr@std@@@__Cr@std@@@container_internal@absl@@QEBA_NAEBV?$basic_string@DU?$char_traits@D@__Cr@std@@V?$allocator@D@23@@__Cr@std@@AEBUpiecewise_construct_t@56@$$QEAV?$tuple@AEBV?$basic_string@DU?$char_traits@D@__Cr@std@@V?$allocator@D@23@@__Cr@std@@@56@$$QEAV?$tuple@AEB_J@56@@Z
    ??$?RV?$basic_string@DU?$char_traits@D@__Cr@std@@V?$allocator@D@23@@__Cr@std@@AEBUpiecewise_construct_t@12@V?$tuple@AEBV?$basic_string@DU?$char_traits@D@__Cr@std@@V?$allocator@D@23@@__Cr@std@@@12@V?$tuple@AEB_J@12@@?$InsertSlot@$0A@@?$raw_hash_set@U?$FlatHashMapPolicy@V?$basic_string@DU?$char_traits@D@__Cr@std@@V?$allocator@D@23@@__Cr@std@@_J@container_internal@absl@@UStringHash@23@UStringEq@23@V?$allocator@U?$pair@$$CBV?$basic_string@DU?$char_traits@D@__Cr@std@@V?$allocator@D@23@@__Cr@std@@_J@__Cr@std@@@__Cr@std@@@container_internal@absl@@QEHAA?AU?$pair@Viterator@?$raw_hash_set@U?$FlatHashMapPolicy@V?$basic_string@DU?$char_traits@D@__Cr@std@@V?$allocator@D@23@@__Cr@std@@_J@container_internal@absl@@UStringHash@23@UStringEq@23@V?$allocator@U?$pair@$$CBV?$basic_string@DU?$char_traits@D@__Cr@std@@V?$allocator@D@23@@__Cr@std@@_J@__Cr@std@@@__Cr@std@@@container_internal@absl@@_N@__Cr@std@@AEBV?$basic_string@DU?$char_traits@D@__Cr@std@@V?$allocator@D@23@@56@AEBUpiecewise_construct_t@56@$$QEAV?$tuple@AEBV?$basic_string@DU?$char_traits@D@__Cr@std@@V?$allocator@D@23@@__Cr@std@@@56@$$QEAV?$tuple@AEB_J@56@@Z
    ??$?RV?$basic_string@DU?$char_traits@D@__Cr@std@@V?$allocator@D@23@@__Cr@std@@AEBUpiecewise_construct_t@12@V?$tuple@AEBV?$basic_string@DU?$char_traits@D@__Cr@std@@V?$allocator@D@23@@__Cr@std@@@12@V?$tuple@AEB_J@12@@?$InsertSlot@$0A@@?$raw_hash_set@V?$NodeHashMapPolicy@V?$basic_string@DU?$char_traits@D@__Cr@std@@V?$allocator@D@23@@__Cr@std@@_J@container_internal@absl@@UStringHash@23@UStringEq@23@V?$allocator@U?$pair@$$CBV?$basic_string@DU?$char_traits@D@__Cr@std@@V?$allocator@D@23@@__Cr@std@@_J@__Cr@std@@@__Cr@std@@@container_internal@absl@@QEHAA?AU?$pair@Viterator@?$raw_hash_set@V?$NodeHashMapPolicy@V?$basic_string@DU?$char_traits@D@__Cr@std@@V?$allocator@D@23@@__Cr@std@@_J@container_internal@absl@@UStringHash@23@UStringEq@23@V?$allocator@U?$pair@$$CBV?$basic_string@DU?$char_traits@D@__Cr@std@@V?$allocator@D@23@@__Cr@std@@_J@__Cr@std@@@__Cr@std@@@container_internal@absl@@_N@__Cr@std@@AEBV?$basic_string@DU?$char_traits@D@__Cr@std@@V?$allocator@D@23@@56@AEBUpiecewise_construct_t@56@$$QEAV?$tuple@AEBV?$basic_string@DU?$char_traits@D@__Cr@std@@V?$allocator@D@23@@__Cr@std@@@56@$$QEAV?$tuple@AEB_J@56@@Z
    ??$?RV?$basic_string@DU?$char_traits@D@__Cr@std@@V?$allocator@D@23@@__Cr@std@@AEBUpiecewise_construct_t@12@V?$tuple@AEBV?$basic_string@DU?$char_traits@D@__Cr@std@@V?$allocator@D@23@@__Cr@std@@@12@V?$tuple@AEB_J@12@@EmplaceDecomposable@?$raw_hash_set@U?$FlatHashMapPolicy@V?$basic_string@DU?$char_traits@D@__Cr@std@@V?$allocator@D@23@@__Cr@std@@_J@container_internal@absl@@UStringHash@23@UStringEq@23@V?$allocator@U?$pair@$$CBV?$basic_string@DU?$char_traits@D@__Cr@std@@V?$allocator@D@23@@__Cr@std@@_J@__Cr@std@@@__Cr@std@@@container_internal@absl@@QEBA?AU?$pair@Viterator@?$raw_hash_set@U?$FlatHashMapPolicy@V?$basic_string@DU?$char_traits@D@__Cr@std@@V?$allocator@D@23@@__Cr@std@@_J@container_internal@absl@@UStringHash@23@UStringEq@23@V?$allocator@U?$pair@$$CBV?$basic_string@DU?$char_traits@D@__Cr@std@@V?$allocator@D@23@@__Cr@std@@_J@__Cr@std@@@__Cr@std@@@container_internal@absl@@_N@__Cr@std@@AEBV?$basic_string@DU?$char_traits@D@__Cr@std@@V?$allocator@D@23@@56@AEBUpiecewise_construct_t@56@$$QEAV?$tuple@AEBV?$basic_string@DU?$char_traits@D@__Cr@std@@V?$allocator@D@23@@__Cr@std@@@56@$$QEAV?$tuple@AEB_J@56@@Z
    ??$?RV?$basic_string@DU?$char_traits@D@__Cr@std@@V?$allocator@D@23@@__Cr@std@@AEBUpiecewise_construct_t@12@V?$tuple@AEBV?$basic_string@DU?$char_traits@D@__Cr@std@@V?$allocator@D@23@@__Cr@std@@@12@V?$tuple@AEB_J@12@@EmplaceDecomposable@?$raw_hash_set@V?$NodeHashMapPolicy@V?$basic_string@DU?$char_traits@D@__Cr@std@@V?$allocator@D@23@@__Cr@std@@_J@container_internal@absl@@UStringHash@23@UStringEq@23@V?$allocator@U?$pair@$$CBV?$basic_string@DU?$char_traits@D@__Cr@std@@V?$allocator@D@23@@__Cr@std@@_J@__Cr@std@@@__Cr@std@@@container_internal@absl@@QEBA?AU?$pair@Viterator@?$raw_hash_set@V?$NodeHashMapPolicy@V?$basic_string@DU?$char_traits@D@__Cr@std@@V?$allocator@D@23@@__Cr@std@@_J@container_internal@absl@@UStringHash@23@UStringEq@23@V?$allocator@U?$pair@$$CBV?$basic_string@DU?$char_traits@D@__Cr@std@@V?$allocator@D@23@@__Cr@std@@_J@__Cr@std@@@__Cr@std@@@container_internal@absl@@_N@__Cr@std@@AEBV?$basic_string@DU?$char_traits@D@__Cr@std@@V?$allocator@D@23@@56@AEBUpiecewise_construct_t@56@$$QEAV?$tuple@AEBV?$basic_string@DU?$char_traits@D@__Cr@std@@V?$allocator@D@23@@__Cr@std@@@56@$$QEAV?$tuple@AEB_J@56@@Z
    ??$?RV?$basic_string@DU?$char_traits@D@__Cr@std@@V?$allocator@D@23@@__Cr@std@@AEBUpiecewise_construct_t@12@V?$tuple@AEBV?$basic_string@DU?$char_traits@D@__Cr@std@@V?$allocator@D@23@@__Cr@std@@@12@V?$tuple@AEB_J@12@@FindElement@?$raw_hash_set@U?$FlatHashMapPolicy@V?$basic_string@DU?$char_traits@D@__Cr@std@@V?$allocator@D@23@@__Cr@std@@_J@container_internal@absl@@UStringHash@23@UStringEq@23@V?$allocator@U?$pair@$$CBV?$basic_string@DU?$char_traits@D@__Cr@std@@V?$allocator@D@23@@__Cr@std@@_J@__Cr@std@@@__Cr@std@@@container_internal@absl@@QEBA?AVconst_iterator@123@AEBV?$basic_string@DU?$char_traits@D@__Cr@std@@V?$allocator@D@23@@__Cr@std@@AEBUpiecewise_construct_t@67@$$QEAV?$tuple@AEBV?$basic_string@DU?$char_traits@D@__Cr@std@@V?$allocator@D@23@@__Cr@std@@@67@$$QEAV?$tuple@AEB_J@67@@Z
    ??$?RV?$basic_string@DU?$char_traits@D@__Cr@std@@V?$allocator@D@23@@__Cr@std@@AEBUpiecewise_construct_t@12@V?$tuple@AEBV?$basic_string@DU?$char_traits@D@__Cr@std@@V?$allocator@D@23@@__Cr@std@@@12@V?$tuple@AEB_J@12@@FindElement@?$raw_hash_set@V?$NodeHashMapPolicy@V?$basic_string@DU?$char_traits@D@__Cr@std@@V?$allocator@D@23@@__Cr@std@@_J@container_internal@absl@@UStringHash@23@UStringEq@23@V?$allocator@U?$pair@$$CBV?$basic_string@DU?$char_traits@D@__Cr@std@@V?$allocator@D@23@@__Cr@std@@_J@__Cr@std@@@__Cr@std@@@container_internal@absl@@QEBA?AVconst_iterator@123@AEBV?$basic_string@DU?$char_traits@D@__Cr@std@@V?$allocator@D@23@@__Cr@std@@AEBUpiecewise_construct_t@67@$$QEAV?$tuple@AEBV?$basic_string@DU?$char_traits@D@__Cr@std@@V?$allocator@D@23@@__Cr@std@@@67@$$QEAV?$tuple@AEB_J@67@@Z
    ??$?RV?$basic_string@DU?$char_traits@D@__Cr@std@@V?$allocator@D@23@@__Cr@std@@AEBUpiecewise_construct_t@12@V?$tuple@AEBV?$basic_string@DU?$char_traits@D@__Cr@std@@V?$allocator@D@23@@__Cr@std@@@12@V?$tuple@AEB_J@12@@HashElement@?$raw_hash_set@U?$FlatHashMapPolicy@V?$basic_string@DU?$char_traits@D@__Cr@std@@V?$allocator@D@23@@__Cr@std@@_J@container_internal@absl@@UStringHash@23@UStringEq@23@V?$allocator@U?$pair@$$CBV?$basic_string@DU?$char_traits@D@__Cr@std@@V?$allocator@D@23@@__Cr@std@@_J@__Cr@std@@@__Cr@std@@@container_internal@absl@@QEBA_KAEBV?$basic_string@DU?$char_traits@D@__Cr@std@@V?$allocator@D@23@@__Cr@std@@AEBUpiecewise_construct_t@56@$$QEAV?$tuple@AEBV?$basic_string@DU?$char_traits@D@__Cr@std@@V?$allocator@D@23@@__Cr@std@@@56@$$QEAV?$tuple@AEB_J@56@@Z
    ??$?RV?$basic_string@DU?$char_traits@D@__Cr@std@@V?$allocator@D@23@@__Cr@std@@AEBUpiecewise_construct_t@12@V?$tuple@AEBV?$basic_string@DU?$char_traits@D@__Cr@std@@V?$allocator@D@23@@__Cr@std@@@12@V?$tuple@AEB_J@12@@HashElement@?$raw_hash_set@V?$NodeHashMapPolicy@V?$basic_string@DU?$char_traits@D@__Cr@std@@V?$allocator@D@23@@__Cr@std@@_J@container_internal@absl@@UStringHash@23@UStringEq@23@V?$allocator@U?$pair@$$CBV?$basic_string@DU?$char_traits@D@__Cr@std@@V?$allocator@D@23@@__Cr@std@@_J@__Cr@std@@@__Cr@std@@@container_internal@absl@@QEBA_KAEBV?$basic_string@DU?$char_traits@D@__Cr@std@@V?$allocator@D@23@@__Cr@std@@AEBUpiecewise_construct_t@56@$$QEAV?$tuple@AEBV?$basic_string@DU?$char_traits@D@__Cr@std@@V?$allocator@D@23@@__Cr@std@@@56@$$QEAV?$tuple@AEB_J@56@@Z
    ??$?RV?$basic_string@DU?$char_traits@D@__Cr@std@@V?$allocator@D@23@@__Cr@std@@AEBUpiecewise_construct_t@12@V?$tuple@AEBV?$basic_string@DU?$char_traits@D@__Cr@std@@V?$allocator@D@23@@__Cr@std@@@12@V?$tuple@AEB_K@12@@?$EqualElement@V?$basic_string@DU?$char_traits@D@__Cr@std@@V?$allocator@D@23@@__Cr@std@@@?$raw_hash_set@U?$FlatHashMapPolicy@V?$basic_string@DU?$char_traits@D@__Cr@std@@V?$allocator@D@23@@__Cr@std@@_K@container_internal@absl@@UStringHash@23@UStringEq@23@V?$allocator@U?$pair@$$CBV?$basic_string@DU?$char_traits@D@__Cr@std@@V?$allocator@D@23@@__Cr@std@@_K@__Cr@std@@@__Cr@std@@@container_internal@absl@@QEBA_NAEBV?$basic_string@DU?$char_traits@D@__Cr@std@@V?$allocator@D@23@@__Cr@std@@AEBUpiecewise_construct_t@56@$$QEAV?$tuple@AEBV?$basic_string@DU?$char_traits@D@__Cr@std@@V?$allocator@D@23@@__Cr@std@@@56@$$QEAV?$tuple@AEB_K@56@@Z
    ??$?RV?$basic_string@DU?$char_traits@D@__Cr@std@@V?$allocator@D@23@@__Cr@std@@AEBUpiecewise_construct_t@12@V?$tuple@AEBV?$basic_string@DU?$char_traits@D@__Cr@std@@V?$allocator@D@23@@__Cr@std@@@12@V?$tuple@AEB_K@12@@?$EqualElement@V?$basic_string@DU?$char_traits@D@__Cr@std@@V?$allocator@D@23@@__Cr@std@@@?$raw_hash_set@V?$NodeHashMapPolicy@V?$basic_string@DU?$char_traits@D@__Cr@std@@V?$allocator@D@23@@__Cr@std@@_K@container_internal@absl@@UStringHash@23@UStringEq@23@V?$allocator@U?$pair@$$CBV?$basic_string@DU?$char_traits@D@__Cr@std@@V?$allocator@D@23@@__Cr@std@@_K@__Cr@std@@@__Cr@std@@@container_internal@absl@@QEBA_NAEBV?$basic_string@DU?$char_traits@D@__Cr@std@@V?$allocator@D@23@@__Cr@std@@AEBUpiecewise_construct_t@56@$$QEAV?$tuple@AEBV?$basic_string@DU?$char_traits@D@__Cr@std@@V?$allocator@D@23@@__Cr@std@@@56@$$QEAV?$tuple@AEB_K@56@@Z
    ??$?RV?$basic_string@DU?$char_traits@D@__Cr@std@@V?$allocator@D@23@@__Cr@std@@AEBUpiecewise_construct_t@12@V?$tuple@AEBV?$basic_string@DU?$char_traits@D@__Cr@std@@V?$allocator@D@23@@__Cr@std@@@12@V?$tuple@AEB_K@12@@?$InsertSlot@$0A@@?$raw_hash_set@U?$FlatHashMapPolicy@V?$basic_string@DU?$char_traits@D@__Cr@std@@V?$allocator@D@23@@__Cr@std@@_K@container_internal@absl@@UStringHash@23@UStringEq@23@V?$allocator@U?$pair@$$CBV?$basic_string@DU?$char_traits@D@__Cr@std@@V?$allocator@D@23@@__Cr@std@@_K@__Cr@std@@@__Cr@std@@@container_internal@absl@@QEHAA?AU?$pair@Viterator@?$raw_hash_set@U?$FlatHashMapPolicy@V?$basic_string@DU?$char_traits@D@__Cr@std@@V?$allocator@D@23@@__Cr@std@@_K@container_internal@absl@@UStringHash@23@UStringEq@23@V?$allocator@U?$pair@$$CBV?$basic_string@DU?$char_traits@D@__Cr@std@@V?$allocator@D@23@@__Cr@std@@_K@__Cr@std@@@__Cr@std@@@container_internal@absl@@_N@__Cr@std@@AEBV?$basic_string@DU?$char_traits@D@__Cr@std@@V?$allocator@D@23@@56@AEBUpiecewise_construct_t@56@$$QEAV?$tuple@AEBV?$basic_string@DU?$char_traits@D@__Cr@std@@V?$allocator@D@23@@__Cr@std@@@56@$$QEAV?$tuple@AEB_K@56@@Z
    ??$?RV?$basic_string@DU?$char_traits@D@__Cr@std@@V?$allocator@D@23@@__Cr@std@@AEBUpiecewise_construct_t@12@V?$tuple@AEBV?$basic_string@DU?$char_traits@D@__Cr@std@@V?$allocator@D@23@@__Cr@std@@@12@V?$tuple@AEB_K@12@@?$InsertSlot@$0A@@?$raw_hash_set@V?$NodeHashMapPolicy@V?$basic_string@DU?$char_traits@D@__Cr@std@@V?$allocator@D@23@@__Cr@std@@_K@container_internal@absl@@UStringHash@23@UStringEq@23@V?$allocator@U?$pair@$$CBV?$basic_string@DU?$char_traits@D@__Cr@std@@V?$allocator@D@23@@__Cr@std@@_K@__Cr@std@@@__Cr@std@@@container_internal@absl@@QEHAA?AU?$pair@Viterator@?$raw_hash_set@V?$NodeHashMapPolicy@V?$basic_string@DU?$char_traits@D@__Cr@std@@V?$allocator@D@23@@__Cr@std@@_K@container_internal@absl@@UStringHash@23@UStringEq@23@V?$allocator@U?$pair@$$CBV?$basic_string@DU?$char_traits@D@__Cr@std@@V?$allocator@D@23@@__Cr@std@@_K@__Cr@std@@@__Cr@std@@@container_internal@absl@@_N@__Cr@std@@AEBV?$basic_string@DU?$char_traits@D@__Cr@std@@V?$allocator@D@23@@56@AEBUpiecewise_construct_t@56@$$QEAV?$tuple@AEBV?$basic_string@DU?$char_traits@D@__Cr@std@@V?$allocator@D@23@@__Cr@std@@@56@$$QEAV?$tuple@AEB_K@56@@Z
    ??$?RV?$basic_string@DU?$char_traits@D@__Cr@std@@V?$allocator@D@23@@__Cr@std@@AEBUpiecewise_construct_t@12@V?$tuple@AEBV?$basic_string@DU?$char_traits@D@__Cr@std@@V?$allocator@D@23@@__Cr@std@@@12@V?$tuple@AEB_K@12@@EmplaceDecomposable@?$raw_hash_set@U?$FlatHashMapPolicy@V?$basic_string@DU?$char_traits@D@__Cr@std@@V?$allocator@D@23@@__Cr@std@@_K@container_internal@absl@@UStringHash@23@UStringEq@23@V?$allocator@U?$pair@$$CBV?$basic_string@DU?$char_traits@D@__Cr@std@@V?$allocator@D@23@@__Cr@std@@_K@__Cr@std@@@__Cr@std@@@container_internal@absl@@QEBA?AU?$pair@Viterator@?$raw_hash_set@U?$FlatHashMapPolicy@V?$basic_string@DU?$char_traits@D@__Cr@std@@V?$allocator@D@23@@__Cr@std@@_K@container_internal@absl@@UStringHash@23@UStringEq@23@V?$allocator@U?$pair@$$CBV?$basic_string@DU?$char_traits@D@__Cr@std@@V?$allocator@D@23@@__Cr@std@@_K@__Cr@std@@@__Cr@std@@@container_internal@absl@@_N@__Cr@std@@AEBV?$basic_string@DU?$char_traits@D@__Cr@std@@V?$allocator@D@23@@56@AEBUpiecewise_construct_t@56@$$QEAV?$tuple@AEBV?$basic_string@DU?$char_traits@D@__Cr@std@@V?$allocator@D@23@@__Cr@std@@@56@$$QEAV?$tuple@AEB_K@56@@Z
    ??$?RV?$basic_string@DU?$char_traits@D@__Cr@std@@V?$allocator@D@23@@__Cr@std@@AEBUpiecewise_construct_t@12@V?$tuple@AEBV?$basic_string@DU?$char_traits@D@__Cr@std@@V?$allocator@D@23@@__Cr@std@@@12@V?$tuple@AEB_K@12@@EmplaceDecomposable@?$raw_hash_set@V?$NodeHashMapPolicy@V?$basic_string@DU?$char_traits@D@__Cr@std@@V?$allocator@D@23@@__Cr@std@@_K@container_internal@absl@@UStringHash@23@UStringEq@23@V?$allocator@U?$pair@$$CBV?$basic_string@DU?$char_traits@D@__Cr@std@@V?$allocator@D@23@@__Cr@std@@_K@__Cr@std@@@__Cr@std@@@container_internal@absl@@QEBA?AU?$pair@Viterator@?$raw_hash_set@V?$NodeHashMapPolicy@V?$basic_string@DU?$char_traits@D@__Cr@std@@V?$allocator@D@23@@__Cr@std@@_K@container_internal@absl@@UStringHash@23@UStringEq@23@V?$allocator@U?$pair@$$CBV?$basic_string@DU?$char_traits@D@__Cr@std@@V?$allocator@D@23@@__Cr@std@@_K@__Cr@std@@@__Cr@std@@@container_internal@absl@@_N@__Cr@std@@AEBV?$basic_string@DU?$char_traits@D@__Cr@std@@V?$allocator@D@23@@56@AEBUpiecewise_construct_t@56@$$QEAV?$tuple@AEBV?$basic_string@DU?$char_traits@D@__Cr@std@@V?$allocator@D@23@@__Cr@std@@@56@$$QEAV?$tuple@AEB_K@56@@Z
    ??$?RV?$basic_string@DU?$char_traits@D@__Cr@std@@V?$allocator@D@23@@__Cr@std@@AEBUpiecewise_construct_t@12@V?$tuple@AEBV?$basic_string@DU?$char_traits@D@__Cr@std@@V?$allocator@D@23@@__Cr@std@@@12@V?$tuple@AEB_K@12@@FindElement@?$raw_hash_set@U?$FlatHashMapPolicy@V?$basic_string@DU?$char_traits@D@__Cr@std@@V?$allocator@D@23@@__Cr@std@@_K@container_internal@absl@@UStringHash@23@UStringEq@23@V?$allocator@U?$pair@$$CBV?$basic_string@DU?$char_traits@D@__Cr@std@@V?$allocator@D@23@@__Cr@std@@_K@__Cr@std@@@__Cr@std@@@container_internal@absl@@QEBA?AVconst_iterator@123@AEBV?$basic_string@DU?$char_traits@D@__Cr@std@@V?$allocator@D@23@@__Cr@std@@AEBUpiecewise_construct_t@67@$$QEAV?$tuple@AEBV?$basic_string@DU?$char_traits@D@__Cr@std@@V?$allocator@D@23@@__Cr@std@@@67@$$QEAV?$tuple@AEB_K@67@@Z
    ??$?RV?$basic_string@DU?$char_traits@D@__Cr@std@@V?$allocator@D@23@@__Cr@std@@AEBUpiecewise_construct_t@12@V?$tuple@AEBV?$basic_string@DU?$char_traits@D@__Cr@std@@V?$allocator@D@23@@__Cr@std@@@12@V?$tuple@AEB_K@12@@FindElement@?$raw_hash_set@V?$NodeHashMapPolicy@V?$basic_string@DU?$char_traits@D@__Cr@std@@V?$allocator@D@23@@__Cr@std@@_K@container_internal@absl@@UStringHash@23@UStringEq@23@V?$allocator@U?$pair@$$CBV?$basic_string@DU?$char_traits@D@__Cr@std@@V?$allocator@D@23@@__Cr@std@@_K@__Cr@std@@@__Cr@std@@@container_internal@absl@@QEBA?AVconst_iterator@123@AEBV?$basic_string@DU?$char_traits@D@__Cr@std@@V?$allocator@D@23@@__Cr@std@@AEBUpiecewise_construct_t@67@$$QEAV?$tuple@AEBV?$basic_string@DU?$char_traits@D@__Cr@std@@V?$allocator@D@23@@__Cr@std@@@67@$$QEAV?$tuple@AEB_K@67@@Z
    ??$?RV?$basic_string@DU?$char_traits@D@__Cr@std@@V?$allocator@D@23@@__Cr@std@@AEBUpiecewise_construct_t@12@V?$tuple@AEBV?$basic_string@DU?$char_traits@D@__Cr@std@@V?$allocator@D@23@@__Cr@std@@@12@V?$tuple@AEB_K@12@@HashElement@?$raw_hash_set@U?$FlatHashMapPolicy@V?$basic_string@DU?$char_traits@D@__Cr@std@@V?$allocator@D@23@@__Cr@std@@_K@container_internal@absl@@UStringHash@23@UStringEq@23@V?$allocator@U?$pair@$$CBV?$basic_string@DU?$char_traits@D@__Cr@std@@V?$allocator@D@23@@__Cr@std@@_K@__Cr@std@@@__Cr@std@@@container_internal@absl@@QEBA_KAEBV?$basic_string@DU?$char_traits@D@__Cr@std@@V?$allocator@D@23@@__Cr@std@@AEBUpiecewise_construct_t@56@$$QEAV?$tuple@AEBV?$basic_string@DU?$char_traits@D@__Cr@std@@V?$allocator@D@23@@__Cr@std@@@56@$$QEAV?$tuple@AEB_K@56@@Z
    ??$?RV?$basic_string@DU?$char_traits@D@__Cr@std@@V?$allocator@D@23@@__Cr@std@@AEBUpiecewise_construct_t@12@V?$tuple@AEBV?$basic_string@DU?$char_traits@D@__Cr@std@@V?$allocator@D@23@@__Cr@std@@@12@V?$tuple@AEB_K@12@@HashElement@?$raw_hash_set@V?$NodeHashMapPolicy@V?$basic_string@DU?$char_traits@D@__Cr@std@@V?$allocator@D@23@@__Cr@std@@_K@container_internal@absl@@UStringHash@23@UStringEq@23@V?$allocator@U?$pair@$$CBV?$basic_string@DU?$char_traits@D@__Cr@std@@V?$allocator@D@23@@__Cr@std@@_K@__Cr@std@@@__Cr@std@@@container_internal@absl@@QEBA_KAEBV?$basic_string@DU?$char_traits@D@__Cr@std@@V?$allocator@D@23@@__Cr@std@@AEBUpiecewise_construct_t@56@$$QEAV?$tuple@AEBV?$basic_string@DU?$char_traits@D@__Cr@std@@V?$allocator@D@23@@__Cr@std@@@56@$$QEAV?$tuple@AEB_K@56@@Z
    ??$?RV?$basic_string@DU?$char_traits@D@__Cr@std@@V?$allocator@D@23@@__Cr@std@@AEBV012@@?$InsertSlot@$0A@@?$raw_hash_set@U?$FlatHashSetPolicy@V?$basic_string@DU?$char_traits@D@__Cr@std@@V?$allocator@D@23@@__Cr@std@@@container_internal@absl@@UStringHash@23@UStringEq@23@V?$allocator@V?$basic_string@DU?$char_traits@D@__Cr@std@@V?$allocator@D@23@@__Cr@std@@@__Cr@std@@@container_internal@absl@@QEHAA?AU?$pair@Viterator@?$raw_hash_set@U?$FlatHashSetPolicy@V?$basic_string@DU?$char_traits@D@__Cr@std@@V?$allocator@D@23@@__Cr@std@@@container_internal@absl@@UStringHash@23@UStringEq@23@V?$allocator@V?$basic_string@DU?$char_traits@D@__Cr@std@@V?$allocator@D@23@@__Cr@std@@@__Cr@std@@@container_internal@absl@@_N@__Cr@std@@AEBV?$basic_string@DU?$char_traits@D@__Cr@std@@V?$allocator@D@23@@56@0@Z
    ??$?RV?$basic_string@DU?$char_traits@D@__Cr@std@@V?$allocator@D@23@@__Cr@std@@AEBV012@@?$InsertSlot@$0A@@?$raw_hash_set@U?$NodeHashSetPolicy@V?$basic_string@DU?$char_traits@D@__Cr@std@@V?$allocator@D@23@@__Cr@std@@@container_internal@absl@@UStringHash@23@UStringEq@23@V?$allocator@V?$basic_string@DU?$char_traits@D@__Cr@std@@V?$allocator@D@23@@__Cr@std@@@__Cr@std@@@container_internal@absl@@QEHAA?AU?$pair@Viterator@?$raw_hash_set@U?$NodeHashSetPolicy@V?$basic_string@DU?$char_traits@D@__Cr@std@@V?$allocator@D@23@@__Cr@std@@@container_internal@absl@@UStringHash@23@UStringEq@23@V?$allocator@V?$basic_string@DU?$char_traits@D@__Cr@std@@V?$allocator@D@23@@__Cr@std@@@__Cr@std@@@container_internal@absl@@_N@__Cr@std@@AEBV?$basic_string@DU?$char_traits@D@__Cr@std@@V?$allocator@D@23@@56@0@Z
    ??$?RV?$basic_string@DU?$char_traits@D@__Cr@std@@V?$allocator@D@23@@__Cr@std@@AEBV012@@EmplaceDecomposable@?$raw_hash_set@U?$FlatHashSetPolicy@V?$basic_string@DU?$char_traits@D@__Cr@std@@V?$allocator@D@23@@__Cr@std@@@container_internal@absl@@UStringHash@23@UStringEq@23@V?$allocator@V?$basic_string@DU?$char_traits@D@__Cr@std@@V?$allocator@D@23@@__Cr@std@@@__Cr@std@@@container_internal@absl@@QEBA?AU?$pair@Viterator@?$raw_hash_set@U?$FlatHashSetPolicy@V?$basic_string@DU?$char_traits@D@__Cr@std@@V?$allocator@D@23@@__Cr@std@@@container_internal@absl@@UStringHash@23@UStringEq@23@V?$allocator@V?$basic_string@DU?$char_traits@D@__Cr@std@@V?$allocator@D@23@@__Cr@std@@@__Cr@std@@@container_internal@absl@@_N@__Cr@std@@AEBV?$basic_string@DU?$char_traits@D@__Cr@std@@V?$allocator@D@23@@56@0@Z
    ??$?RV?$basic_string@DU?$char_traits@D@__Cr@std@@V?$allocator@D@23@@__Cr@std@@AEBV012@@EmplaceDecomposable@?$raw_hash_set@U?$NodeHashSetPolicy@V?$basic_string@DU?$char_traits@D@__Cr@std@@V?$allocator@D@23@@__Cr@std@@@container_internal@absl@@UStringHash@23@UStringEq@23@V?$allocator@V?$basic_string@DU?$char_traits@D@__Cr@std@@V?$allocator@D@23@@__Cr@std@@@__Cr@std@@@container_internal@absl@@QEBA?AU?$pair@Viterator@?$raw_hash_set@U?$NodeHashSetPolicy@V?$basic_string@DU?$char_traits@D@__Cr@std@@V?$allocator@D@23@@__Cr@std@@@container_internal@absl@@UStringHash@23@UStringEq@23@V?$allocator@V?$basic_string@DU?$char_traits@D@__Cr@std@@V?$allocator@D@23@@__Cr@std@@@__Cr@std@@@container_internal@absl@@_N@__Cr@std@@AEBV?$basic_string@DU?$char_traits@D@__Cr@std@@V?$allocator@D@23@@56@0@Z
    ??$?RV?$basic_string@DU?$char_traits@D@__Cr@std@@V?$allocator@D@23@@__Cr@std@@AEBV012@@FindElement@?$raw_hash_set@U?$FlatHashSetPolicy@V?$basic_string@DU?$char_traits@D@__Cr@std@@V?$allocator@D@23@@__Cr@std@@@container_internal@absl@@UStringHash@23@UStringEq@23@V?$allocator@V?$basic_string@DU?$char_traits@D@__Cr@std@@V?$allocator@D@23@@__Cr@std@@@__Cr@std@@@container_internal@absl@@QEBA?AVconst_iterator@123@AEBV?$basic_string@DU?$char_traits@D@__Cr@std@@V?$allocator@D@23@@__Cr@std@@0@Z
    ??$?RV?$basic_string@DU?$char_traits@D@__Cr@std@@V?$allocator@D@23@@__Cr@std@@AEBV012@@FindElement@?$raw_hash_set@U?$NodeHashSetPolicy@V?$basic_string@DU?$char_traits@D@__Cr@std@@V?$allocator@D@23@@__Cr@std@@@container_internal@absl@@UStringHash@23@UStringEq@23@V?$allocator@V?$basic_string@DU?$char_traits@D@__Cr@std@@V?$allocator@D@23@@__Cr@std@@@__Cr@std@@@container_internal@absl@@QEBA?AVconst_iterator@123@AEBV?$basic_string@DU?$char_traits@D@__Cr@std@@V?$allocator@D@23@@__Cr@std@@0@Z
    ??$?RV?$basic_string@DU?$char_traits@D@__Cr@std@@V?$allocator@D@23@@__Cr@std@@V012@@EmplaceDecomposable@?$raw_hash_set@U?$FlatHashSetPolicy@V?$basic_string@DU?$char_traits@D@__Cr@std@@V?$allocator@D@23@@__Cr@std@@@container_internal@absl@@UStringHash@23@UStringEq@23@V?$allocator@V?$basic_string@DU?$char_traits@D@__Cr@std@@V?$allocator@D@23@@__Cr@std@@@__Cr@std@@@container_internal@absl@@QEBA?AU?$pair@Viterator@?$raw_hash_set@U?$FlatHashSetPolicy@V?$basic_string@DU?$char_traits@D@__Cr@std@@V?$allocator@D@23@@__Cr@std@@@container_internal@absl@@UStringHash@23@UStringEq@23@V?$allocator@V?$basic_string@DU?$char_traits@D@__Cr@std@@V?$allocator@D@23@@__Cr@std@@@__Cr@std@@@container_internal@absl@@_N@__Cr@std@@AEBV?$basic_string@DU?$char_traits@D@__Cr@std@@V?$allocator@D@23@@56@$$QEAV756@@Z
    ??$?RV?$basic_string@DU?$char_traits@D@__Cr@std@@V?$allocator@D@23@@__Cr@std@@V012@@EmplaceDecomposable@?$raw_hash_set@U?$NodeHashSetPolicy@V?$basic_string@DU?$char_traits@D@__Cr@std@@V?$allocator@D@23@@__Cr@std@@@container_internal@absl@@UStringHash@23@UStringEq@23@V?$allocator@V?$basic_string@DU?$char_traits@D@__Cr@std@@V?$allocator@D@23@@__Cr@std@@@__Cr@std@@@container_internal@absl@@QEBA?AU?$pair@Viterator@?$raw_hash_set@U?$NodeHashSetPolicy@V?$basic_string@DU?$char_traits@D@__Cr@std@@V?$allocator@D@23@@__Cr@std@@@container_internal@absl@@UStringHash@23@UStringEq@23@V?$allocator@V?$basic_string@DU?$char_traits@D@__Cr@std@@V?$allocator@D@23@@__Cr@std@@@__Cr@std@@@container_internal@absl@@_N@__Cr@std@@AEBV?$basic_string@DU?$char_traits@D@__Cr@std@@V?$allocator@D@23@@56@$$QEAV756@@Z
    ??$?RV?$basic_string_view@DU?$char_traits@D@__Cr@std@@@__Cr@std@@AEBUpiecewise_construct_t@12@V?$tuple@$$QEAV?$basic_string_view@DU?$char_traits@D@__Cr@std@@@__Cr@std@@@12@V?$tuple@$$QEAPEAVCommandLineFlag@absl@@@12@@EmplaceDecomposable@?$raw_hash_set@U?$FlatHashMapPolicy@V?$basic_string_view@DU?$char_traits@D@__Cr@std@@@__Cr@std@@PEAVCommandLineFlag@absl@@@container_internal@absl@@UStringHash@23@UStringEq@23@V?$allocator@U?$pair@$$CBV?$basic_string_view@DU?$char_traits@D@__Cr@std@@@__Cr@std@@PEAVCommandLineFlag@absl@@@__Cr@std@@@__Cr@std@@@container_internal@absl@@QEBA?AU?$pair@Viterator@?$raw_hash_set@U?$FlatHashMapPolicy@V?$basic_string_view@DU?$char_traits@D@__Cr@std@@@__Cr@std@@PEAVCommandLineFlag@absl@@@container_internal@absl@@UStringHash@23@UStringEq@23@V?$allocator@U?$pair@$$CBV?$basic_string_view@DU?$char_traits@D@__Cr@std@@@__Cr@std@@PEAVCommandLineFlag@absl@@@__Cr@std@@@__Cr@std@@@container_internal@absl@@_N@__Cr@std@@AEBV?$basic_string_view@DU?$char_traits@D@__Cr@std@@@56@AEBUpiecewise_construct_t@56@$$QEAV?$tuple@$$QEAV?$basic_string_view@DU?$char_traits@D@__Cr@std@@@__Cr@std@@@56@$$QEAV?$tuple@$$QEAPEAVCommandLineFlag@absl@@@56@@Z
    ??$?RV?$basic_string_view@DU?$char_traits@D@__Cr@std@@@__Cr@std@@AEBUpiecewise_construct_t@12@V?$tuple@$$QEBV?$basic_string_view@DU?$char_traits@D@__Cr@std@@@__Cr@std@@@12@V?$tuple@$$QEAPEAVCommandLineFlag@absl@@@12@@EmplaceDecomposable@?$raw_hash_set@U?$FlatHashMapPolicy@V?$basic_string_view@DU?$char_traits@D@__Cr@std@@@__Cr@std@@PEAVCommandLineFlag@absl@@@container_internal@absl@@UStringHash@23@UStringEq@23@V?$allocator@U?$pair@$$CBV?$basic_string_view@DU?$char_traits@D@__Cr@std@@@__Cr@std@@PEAVCommandLineFlag@absl@@@__Cr@std@@@__Cr@std@@@container_internal@absl@@QEBA?AU?$pair@Viterator@?$raw_hash_set@U?$FlatHashMapPolicy@V?$basic_string_view@DU?$char_traits@D@__Cr@std@@@__Cr@std@@PEAVCommandLineFlag@absl@@@container_internal@absl@@UStringHash@23@UStringEq@23@V?$allocator@U?$pair@$$CBV?$basic_string_view@DU?$char_traits@D@__Cr@std@@@__Cr@std@@PEAVCommandLineFlag@absl@@@__Cr@std@@@__Cr@std@@@container_internal@absl@@_N@__Cr@std@@AEBV?$basic_string_view@DU?$char_traits@D@__Cr@std@@@56@AEBUpiecewise_construct_t@56@$$QEAV?$tuple@$$QEBV?$basic_string_view@DU?$char_traits@D@__Cr@std@@@__Cr@std@@@56@$$QEAV?$tuple@$$QEAPEAVCommandLineFlag@absl@@@56@@Z
    ??$?RV?$basic_string_view@DU?$char_traits@D@__Cr@std@@@__Cr@std@@AEBUpiecewise_construct_t@12@V?$tuple@AEBV?$basic_string_view@DU?$char_traits@D@__Cr@std@@@__Cr@std@@@12@V?$tuple@AEBQEAVCommandLineFlag@absl@@@12@@?$EqualElement@V?$basic_string_view@DU?$char_traits@D@__Cr@std@@@__Cr@std@@@?$raw_hash_set@U?$FlatHashMapPolicy@V?$basic_string_view@DU?$char_traits@D@__Cr@std@@@__Cr@std@@PEAVCommandLineFlag@absl@@@container_internal@absl@@UStringHash@23@UStringEq@23@V?$allocator@U?$pair@$$CBV?$basic_string_view@DU?$char_traits@D@__Cr@std@@@__Cr@std@@PEAVCommandLineFlag@absl@@@__Cr@std@@@__Cr@std@@@container_internal@absl@@QEBA_NAEBV?$basic_string_view@DU?$char_traits@D@__Cr@std@@@__Cr@std@@AEBUpiecewise_construct_t@56@$$QEAV?$tuple@AEBV?$basic_string_view@DU?$char_traits@D@__Cr@std@@@__Cr@std@@@56@$$QEAV?$tuple@AEBQEAVCommandLineFlag@absl@@@56@@Z
    ??$?RV?$basic_string_view@DU?$char_traits@D@__Cr@std@@@__Cr@std@@AEBUpiecewise_construct_t@12@V?$tuple@AEBV?$basic_string_view@DU?$char_traits@D@__Cr@std@@@__Cr@std@@@12@V?$tuple@AEBQEAVCommandLineFlag@absl@@@12@@FindElement@?$raw_hash_set@U?$FlatHashMapPolicy@V?$basic_string_view@DU?$char_traits@D@__Cr@std@@@__Cr@std@@PEAVCommandLineFlag@absl@@@container_internal@absl@@UStringHash@23@UStringEq@23@V?$allocator@U?$pair@$$CBV?$basic_string_view@DU?$char_traits@D@__Cr@std@@@__Cr@std@@PEAVCommandLineFlag@absl@@@__Cr@std@@@__Cr@std@@@container_internal@absl@@QEBA?AVconst_iterator@123@AEBV?$basic_string_view@DU?$char_traits@D@__Cr@std@@@__Cr@std@@AEBUpiecewise_construct_t@67@$$QEAV?$tuple@AEBV?$basic_string_view@DU?$char_traits@D@__Cr@std@@@__Cr@std@@@67@$$QEAV?$tuple@AEBQEAVCommandLineFlag@absl@@@67@@Z
    ??$?RV?$basic_string_view@DU?$char_traits@D@__Cr@std@@@__Cr@std@@AEBUpiecewise_construct_t@12@V?$tuple@AEBV?$basic_string_view@DU?$char_traits@D@__Cr@std@@@__Cr@std@@@12@V?$tuple@AEBQEAVCommandLineFlag@absl@@@12@@HashElement@?$raw_hash_set@U?$FlatHashMapPolicy@V?$basic_string_view@DU?$char_traits@D@__Cr@std@@@__Cr@std@@PEAVCommandLineFlag@absl@@@container_internal@absl@@UStringHash@23@UStringEq@23@V?$allocator@U?$pair@$$CBV?$basic_string_view@DU?$char_traits@D@__Cr@std@@@__Cr@std@@PEAVCommandLineFlag@absl@@@__Cr@std@@@__Cr@std@@@container_internal@absl@@QEBA_KAEBV?$basic_string_view@DU?$char_traits@D@__Cr@std@@@__Cr@std@@AEBUpiecewise_construct_t@56@$$QEAV?$tuple@AEBV?$basic_string_view@DU?$char_traits@D@__Cr@std@@@__Cr@std@@@56@$$QEAV?$tuple@AEBQEAVCommandLineFlag@absl@@@56@@Z
    ??$?RVDuration@absl@@V01@@?$__less@XX@__Cr@std@@QEBA_NAEBVDuration@absl@@0@Z
    ??$?RW4LogSeverity@absl@@AEBQEBDHAEAPEBD@?$AtomicHook@P6AXW4LogSeverity@absl@@PEBDHAEBV?$basic_string@DU?$char_traits@D@__Cr@std@@V?$allocator@D@23@@__Cr@std@@@Z@base_internal@absl@@QEBAX$$QEAW4LogSeverity@2@AEBQEBD$$QEAHAEAPEBD@Z
    ??$?RW4LogSeverity@absl@@AEBQEBDHAEAV?$basic_string@DU?$char_traits@D@__Cr@std@@V?$allocator@D@23@@__Cr@std@@@?$AtomicHook@P6AXW4LogSeverity@absl@@PEBDHAEBV?$basic_string@DU?$char_traits@D@__Cr@std@@V?$allocator@D@23@@__Cr@std@@@Z@base_internal@absl@@QEBAX$$QEAW4LogSeverity@2@AEBQEBD$$QEAHAEAV?$basic_string@DU?$char_traits@D@__Cr@std@@V?$allocator@D@23@@__Cr@std@@@Z
    ??$?RW4LogSeverity@absl@@AEBQEBDHAEAY0CC@$$CBD@?$AtomicHook@P6AXW4LogSeverity@absl@@PEBDHAEBV?$basic_string@DU?$char_traits@D@__Cr@std@@V?$allocator@D@23@@__Cr@std@@@Z@base_internal@absl@@QEBAX$$QEAW4LogSeverity@2@AEBQEBD$$QEAHAEAY0CC@$$CBD@Z
    ??$?RW4LogSeverity@absl@@AEBQEBDHAEAY0CG@$$CBD@?$AtomicHook@P6AXW4LogSeverity@absl@@PEBDHAEBV?$basic_string@DU?$char_traits@D@__Cr@std@@V?$allocator@D@23@@__Cr@std@@@Z@base_internal@absl@@QEBAX$$QEAW4LogSeverity@2@AEBQEBD$$QEAHAEAY0CG@$$CBD@Z
    ??$?RW4LogSeverity@absl@@AEBQEBDHAEAY0CH@$$CBD@?$AtomicHook@P6AXW4LogSeverity@absl@@PEBDHAEBV?$basic_string@DU?$char_traits@D@__Cr@std@@V?$allocator@D@23@@__Cr@std@@@Z@base_internal@absl@@QEBAX$$QEAW4LogSeverity@2@AEBQEBD$$QEAHAEAY0CH@$$CBD@Z
    ??$?RW4LogSeverity@absl@@AEBQEBDHAEAY0CI@$$CBD@?$AtomicHook@P6AXW4LogSeverity@absl@@PEBDHAEBV?$basic_string@DU?$char_traits@D@__Cr@std@@V?$allocator@D@23@@__Cr@std@@@Z@base_internal@absl@@QEBAX$$QEAW4LogSeverity@2@AEBQEBD$$QEAHAEAY0CI@$$CBD@Z
    ??$?RW4LogSeverity@absl@@AEBQEBDHAEAY0CL@$$CBD@?$AtomicHook@P6AXW4LogSeverity@absl@@PEBDHAEBV?$basic_string@DU?$char_traits@D@__Cr@std@@V?$allocator@D@23@@__Cr@std@@@Z@base_internal@absl@@QEBAX$$QEAW4LogSeverity@2@AEBQEBD$$QEAHAEAY0CL@$$CBD@Z
    ??$?RW4LogSeverity@absl@@AEBQEBDHV?$basic_string@DU?$char_traits@D@__Cr@std@@V?$allocator@D@23@@__Cr@std@@@?$AtomicHook@P6AXW4LogSeverity@absl@@PEBDHAEBV?$basic_string@DU?$char_traits@D@__Cr@std@@V?$allocator@D@23@@__Cr@std@@@Z@base_internal@absl@@QEBAX$$QEAW4LogSeverity@2@AEBQEBD$$QEAH$$QEAV?$basic_string@DU?$char_traits@D@__Cr@std@@V?$allocator@D@23@@__Cr@std@@@Z
    ??$?R_JAEA_J@?$EqualElement@_J@?$raw_hash_set@U?$FlatHashSetPolicy@_J@container_internal@absl@@U?$Hash@_J@hash_internal@3@U?$equal_to@_J@__Cr@std@@V?$allocator@_J@78@@container_internal@absl@@QEBA_NAEB_JAEA_J@Z
    ??$?R_JAEA_J@?$EqualElement@_J@?$raw_hash_set@U?$NodeHashSetPolicy@_J@container_internal@absl@@U?$Hash@_J@hash_internal@3@U?$equal_to@_J@__Cr@std@@V?$allocator@_J@78@@container_internal@absl@@QEBA_NAEB_JAEA_J@Z
    ??$?R_JAEA_J@HashElement@?$raw_hash_set@U?$FlatHashSetPolicy@_J@container_internal@absl@@U?$Hash@_J@hash_internal@3@U?$equal_to@_J@__Cr@std@@V?$allocator@_J@78@@container_internal@absl@@QEBA_KAEB_JAEA_J@Z
    ??$?R_JAEA_J@HashElement@?$raw_hash_set@U?$NodeHashSetPolicy@_J@container_internal@absl@@U?$Hash@_J@hash_internal@3@U?$equal_to@_J@__Cr@std@@V?$allocator@_J@78@@container_internal@absl@@QEBA_KAEB_JAEA_J@Z
    ??$?R_JAEBUpiecewise_construct_t@__Cr@std@@V?$tuple@$$QEA_J@12@V312@@EmplaceDecomposable@?$raw_hash_set@U?$FlatHashMapPolicy@_J_J@container_internal@absl@@U?$Hash@_J@hash_internal@3@U?$equal_to@_J@__Cr@std@@V?$allocator@U?$pair@$$CB_J_J@__Cr@std@@@78@@container_internal@absl@@QEBA?AU?$pair@Viterator@?$raw_hash_set@U?$FlatHashMapPolicy@_J_J@container_internal@absl@@U?$Hash@_J@hash_internal@3@U?$equal_to@_J@__Cr@std@@V?$allocator@U?$pair@$$CB_J_J@__Cr@std@@@78@@container_internal@absl@@_N@__Cr@std@@AEB_JAEBUpiecewise_construct_t@56@$$QEAV?$tuple@$$QEA_J@56@2@Z
    ??$?R_JAEBUpiecewise_construct_t@__Cr@std@@V?$tuple@$$QEA_J@12@V312@@EmplaceDecomposable@?$raw_hash_set@V?$NodeHashMapPolicy@_J_J@container_internal@absl@@U?$Hash@_J@hash_internal@3@U?$equal_to@_J@__Cr@std@@V?$allocator@U?$pair@$$CB_J_J@__Cr@std@@@78@@container_internal@absl@@QEBA?AU?$pair@Viterator@?$raw_hash_set@V?$NodeHashMapPolicy@_J_J@container_internal@absl@@U?$Hash@_J@hash_internal@3@U?$equal_to@_J@__Cr@std@@V?$allocator@U?$pair@$$CB_J_J@__Cr@std@@@78@@container_internal@absl@@_N@__Cr@std@@AEB_JAEBUpiecewise_construct_t@56@$$QEAV?$tuple@$$QEA_J@56@2@Z
    ??$?R_JAEBUpiecewise_construct_t@__Cr@std@@V?$tuple@$$QEA_J@12@V?$tuple@$$QEAV?$basic_string@DU?$char_traits@D@__Cr@std@@V?$allocator@D@23@@__Cr@std@@@12@@EmplaceDecomposable@?$raw_hash_set@U?$FlatHashMapPolicy@_JV?$basic_string@DU?$char_traits@D@__Cr@std@@V?$allocator@D@23@@__Cr@std@@@container_internal@absl@@U?$Hash@_J@hash_internal@3@U?$equal_to@_J@__Cr@std@@V?$allocator@U?$pair@$$CB_JV?$basic_string@DU?$char_traits@D@__Cr@std@@V?$allocator@D@23@@__Cr@std@@@__Cr@std@@@78@@container_internal@absl@@QEBA?AU?$pair@Viterator@?$raw_hash_set@U?$FlatHashMapPolicy@_JV?$basic_string@DU?$char_traits@D@__Cr@std@@V?$allocator@D@23@@__Cr@std@@@container_internal@absl@@U?$Hash@_J@hash_internal@3@U?$equal_to@_J@__Cr@std@@V?$allocator@U?$pair@$$CB_JV?$basic_string@DU?$char_traits@D@__Cr@std@@V?$allocator@D@23@@__Cr@std@@@__Cr@std@@@78@@container_internal@absl@@_N@__Cr@std@@AEB_JAEBUpiecewise_construct_t@56@$$QEAV?$tuple@$$QEA_J@56@$$QEAV?$tuple@$$QEAV?$basic_string@DU?$char_traits@D@__Cr@std@@V?$allocator@D@23@@__Cr@std@@@56@@Z
    ??$?R_JAEBUpiecewise_construct_t@__Cr@std@@V?$tuple@$$QEA_J@12@V?$tuple@$$QEAV?$basic_string@DU?$char_traits@D@__Cr@std@@V?$allocator@D@23@@__Cr@std@@@12@@EmplaceDecomposable@?$raw_hash_set@V?$NodeHashMapPolicy@_JV?$basic_string@DU?$char_traits@D@__Cr@std@@V?$allocator@D@23@@__Cr@std@@@container_internal@absl@@U?$Hash@_J@hash_internal@3@U?$equal_to@_J@__Cr@std@@V?$allocator@U?$pair@$$CB_JV?$basic_string@DU?$char_traits@D@__Cr@std@@V?$allocator@D@23@@__Cr@std@@@__Cr@std@@@78@@container_internal@absl@@QEBA?AU?$pair@Viterator@?$raw_hash_set@V?$NodeHashMapPolicy@_JV?$basic_string@DU?$char_traits@D@__Cr@std@@V?$allocator@D@23@@__Cr@std@@@container_internal@absl@@U?$Hash@_J@hash_internal@3@U?$equal_to@_J@__Cr@std@@V?$allocator@U?$pair@$$CB_JV?$basic_string@DU?$char_traits@D@__Cr@std@@V?$allocator@D@23@@__Cr@std@@@__Cr@std@@@78@@container_internal@absl@@_N@__Cr@std@@AEB_JAEBUpiecewise_construct_t@56@$$QEAV?$tuple@$$QEA_J@56@$$QEAV?$tuple@$$QEAV?$basic_string@DU?$char_traits@D@__Cr@std@@V?$allocator@D@23@@__Cr@std@@@56@@Z
    ??$?R_JAEBUpiecewise_construct_t@__Cr@std@@V?$tuple@$$QEB_J@12@V?$tuple@$$QEAV?$basic_string@DU?$char_traits@D@__Cr@std@@V?$allocator@D@23@@__Cr@std@@@12@@EmplaceDecomposable@?$raw_hash_set@U?$FlatHashMapPolicy@_JV?$basic_string@DU?$char_traits@D@__Cr@std@@V?$allocator@D@23@@__Cr@std@@@container_internal@absl@@U?$Hash@_J@hash_internal@3@U?$equal_to@_J@__Cr@std@@V?$allocator@U?$pair@$$CB_JV?$basic_string@DU?$char_traits@D@__Cr@std@@V?$allocator@D@23@@__Cr@std@@@__Cr@std@@@78@@container_internal@absl@@QEBA?AU?$pair@Viterator@?$raw_hash_set@U?$FlatHashMapPolicy@_JV?$basic_string@DU?$char_traits@D@__Cr@std@@V?$allocator@D@23@@__Cr@std@@@container_internal@absl@@U?$Hash@_J@hash_internal@3@U?$equal_to@_J@__Cr@std@@V?$allocator@U?$pair@$$CB_JV?$basic_string@DU?$char_traits@D@__Cr@std@@V?$allocator@D@23@@__Cr@std@@@__Cr@std@@@78@@container_internal@absl@@_N@__Cr@std@@AEB_JAEBUpiecewise_construct_t@56@$$QEAV?$tuple@$$QEB_J@56@$$QEAV?$tuple@$$QEAV?$basic_string@DU?$char_traits@D@__Cr@std@@V?$allocator@D@23@@__Cr@std@@@56@@Z
    ??$?R_JAEBUpiecewise_construct_t@__Cr@std@@V?$tuple@$$QEB_J@12@V?$tuple@$$QEAV?$basic_string@DU?$char_traits@D@__Cr@std@@V?$allocator@D@23@@__Cr@std@@@12@@EmplaceDecomposable@?$raw_hash_set@V?$NodeHashMapPolicy@_JV?$basic_string@DU?$char_traits@D@__Cr@std@@V?$allocator@D@23@@__Cr@std@@@container_internal@absl@@U?$Hash@_J@hash_internal@3@U?$equal_to@_J@__Cr@std@@V?$allocator@U?$pair@$$CB_JV?$basic_string@DU?$char_traits@D@__Cr@std@@V?$allocator@D@23@@__Cr@std@@@__Cr@std@@@78@@container_internal@absl@@QEBA?AU?$pair@Viterator@?$raw_hash_set@V?$NodeHashMapPolicy@_JV?$basic_string@DU?$char_traits@D@__Cr@std@@V?$allocator@D@23@@__Cr@std@@@container_internal@absl@@U?$Hash@_J@hash_internal@3@U?$equal_to@_J@__Cr@std@@V?$allocator@U?$pair@$$CB_JV?$basic_string@DU?$char_traits@D@__Cr@std@@V?$allocator@D@23@@__Cr@std@@@__Cr@std@@@78@@container_internal@absl@@_N@__Cr@std@@AEB_JAEBUpiecewise_construct_t@56@$$QEAV?$tuple@$$QEB_J@56@$$QEAV?$tuple@$$QEAV?$basic_string@DU?$char_traits@D@__Cr@std@@V?$allocator@D@23@@__Cr@std@@@56@@Z
    ??$?R_JAEBUpiecewise_construct_t@__Cr@std@@V?$tuple@$$QEB_J@12@V?$tuple@$$QEA_J@12@@EmplaceDecomposable@?$raw_hash_set@U?$FlatHashMapPolicy@_J_J@container_internal@absl@@U?$Hash@_J@hash_internal@3@U?$equal_to@_J@__Cr@std@@V?$allocator@U?$pair@$$CB_J_J@__Cr@std@@@78@@container_internal@absl@@QEBA?AU?$pair@Viterator@?$raw_hash_set@U?$FlatHashMapPolicy@_J_J@container_internal@absl@@U?$Hash@_J@hash_internal@3@U?$equal_to@_J@__Cr@std@@V?$allocator@U?$pair@$$CB_J_J@__Cr@std@@@78@@container_internal@absl@@_N@__Cr@std@@AEB_JAEBUpiecewise_construct_t@56@$$QEAV?$tuple@$$QEB_J@56@$$QEAV?$tuple@$$QEA_J@56@@Z
    ??$?R_JAEBUpiecewise_construct_t@__Cr@std@@V?$tuple@$$QEB_J@12@V?$tuple@$$QEA_J@12@@EmplaceDecomposable@?$raw_hash_set@V?$NodeHashMapPolicy@_J_J@container_internal@absl@@U?$Hash@_J@hash_internal@3@U?$equal_to@_J@__Cr@std@@V?$allocator@U?$pair@$$CB_J_J@__Cr@std@@@78@@container_internal@absl@@QEBA?AU?$pair@Viterator@?$raw_hash_set@V?$NodeHashMapPolicy@_J_J@container_internal@absl@@U?$Hash@_J@hash_internal@3@U?$equal_to@_J@__Cr@std@@V?$allocator@U?$pair@$$CB_J_J@__Cr@std@@@78@@container_internal@absl@@_N@__Cr@std@@AEB_JAEBUpiecewise_construct_t@56@$$QEAV?$tuple@$$QEB_J@56@$$QEAV?$tuple@$$QEA_J@56@@Z
    ??$?R_JAEBUpiecewise_construct_t@__Cr@std@@V?$tuple@AEB_J@12@V312@@?$EqualElement@_J@?$raw_hash_set@U?$FlatHashMapPolicy@_J_J@container_internal@absl@@U?$Hash@_J@hash_internal@3@U?$equal_to@_J@__Cr@std@@V?$allocator@U?$pair@$$CB_J_J@__Cr@std@@@78@@container_internal@absl@@QEBA_NAEB_JAEBUpiecewise_construct_t@__Cr@std@@$$QEAV?$tuple@AEB_J@56@2@Z
    ??$?R_JAEBUpiecewise_construct_t@__Cr@std@@V?$tuple@AEB_J@12@V312@@?$EqualElement@_J@?$raw_hash_set@V?$NodeHashMapPolicy@_J_J@container_internal@absl@@U?$Hash@_J@hash_internal@3@U?$equal_to@_J@__Cr@std@@V?$allocator@U?$pair@$$CB_J_J@__Cr@std@@@78@@container_internal@absl@@QEBA_NAEB_JAEBUpiecewise_construct_t@__Cr@std@@$$QEAV?$tuple@AEB_J@56@2@Z
    ??$?R_JAEBUpiecewise_construct_t@__Cr@std@@V?$tuple@AEB_J@12@V312@@?$InsertSlot@$0A@@?$raw_hash_set@U?$FlatHashMapPolicy@_J_J@container_internal@absl@@U?$Hash@_J@hash_internal@3@U?$equal_to@_J@__Cr@std@@V?$allocator@U?$pair@$$CB_J_J@__Cr@std@@@78@@container_internal@absl@@QEHAA?AU?$pair@Viterator@?$raw_hash_set@U?$FlatHashMapPolicy@_J_J@container_internal@absl@@U?$Hash@_J@hash_internal@3@U?$equal_to@_J@__Cr@std@@V?$allocator@U?$pair@$$CB_J_J@__Cr@std@@@78@@container_internal@absl@@_N@__Cr@std@@AEB_JAEBUpiecewise_construct_t@56@$$QEAV?$tuple@AEB_J@56@2@Z
    ??$?R_JAEBUpiecewise_construct_t@__Cr@std@@V?$tuple@AEB_J@12@V312@@?$InsertSlot@$0A@@?$raw_hash_set@V?$NodeHashMapPolicy@_J_J@container_internal@absl@@U?$Hash@_J@hash_internal@3@U?$equal_to@_J@__Cr@std@@V?$allocator@U?$pair@$$CB_J_J@__Cr@std@@@78@@container_internal@absl@@QEHAA?AU?$pair@Viterator@?$raw_hash_set@V?$NodeHashMapPolicy@_J_J@container_internal@absl@@U?$Hash@_J@hash_internal@3@U?$equal_to@_J@__Cr@std@@V?$allocator@U?$pair@$$CB_J_J@__Cr@std@@@78@@container_internal@absl@@_N@__Cr@std@@AEB_JAEBUpiecewise_construct_t@56@$$QEAV?$tuple@AEB_J@56@2@Z
    ??$?R_JAEBUpiecewise_construct_t@__Cr@std@@V?$tuple@AEB_J@12@V312@@EmplaceDecomposable@?$raw_hash_set@U?$FlatHashMapPolicy@_J_J@container_internal@absl@@U?$Hash@_J@hash_internal@3@U?$equal_to@_J@__Cr@std@@V?$allocator@U?$pair@$$CB_J_J@__Cr@std@@@78@@container_internal@absl@@QEBA?AU?$pair@Viterator@?$raw_hash_set@U?$FlatHashMapPolicy@_J_J@container_internal@absl@@U?$Hash@_J@hash_internal@3@U?$equal_to@_J@__Cr@std@@V?$allocator@U?$pair@$$CB_J_J@__Cr@std@@@78@@container_internal@absl@@_N@__Cr@std@@AEB_JAEBUpiecewise_construct_t@56@$$QEAV?$tuple@AEB_J@56@2@Z
    ??$?R_JAEBUpiecewise_construct_t@__Cr@std@@V?$tuple@AEB_J@12@V312@@EmplaceDecomposable@?$raw_hash_set@V?$NodeHashMapPolicy@_J_J@container_internal@absl@@U?$Hash@_J@hash_internal@3@U?$equal_to@_J@__Cr@std@@V?$allocator@U?$pair@$$CB_J_J@__Cr@std@@@78@@container_internal@absl@@QEBA?AU?$pair@Viterator@?$raw_hash_set@V?$NodeHashMapPolicy@_J_J@container_internal@absl@@U?$Hash@_J@hash_internal@3@U?$equal_to@_J@__Cr@std@@V?$allocator@U?$pair@$$CB_J_J@__Cr@std@@@78@@container_internal@absl@@_N@__Cr@std@@AEB_JAEBUpiecewise_construct_t@56@$$QEAV?$tuple@AEB_J@56@2@Z
    ??$?R_JAEBUpiecewise_construct_t@__Cr@std@@V?$tuple@AEB_J@12@V312@@FindElement@?$raw_hash_set@U?$FlatHashMapPolicy@_J_J@container_internal@absl@@U?$Hash@_J@hash_internal@3@U?$equal_to@_J@__Cr@std@@V?$allocator@U?$pair@$$CB_J_J@__Cr@std@@@78@@container_internal@absl@@QEBA?AVconst_iterator@123@AEB_JAEBUpiecewise_construct_t@__Cr@std@@$$QEAV?$tuple@AEB_J@67@2@Z
    ??$?R_JAEBUpiecewise_construct_t@__Cr@std@@V?$tuple@AEB_J@12@V312@@FindElement@?$raw_hash_set@V?$NodeHashMapPolicy@_J_J@container_internal@absl@@U?$Hash@_J@hash_internal@3@U?$equal_to@_J@__Cr@std@@V?$allocator@U?$pair@$$CB_J_J@__Cr@std@@@78@@container_internal@absl@@QEBA?AVconst_iterator@123@AEB_JAEBUpiecewise_construct_t@__Cr@std@@$$QEAV?$tuple@AEB_J@67@2@Z
    ??$?R_JAEBUpiecewise_construct_t@__Cr@std@@V?$tuple@AEB_J@12@V312@@HashElement@?$raw_hash_set@U?$FlatHashMapPolicy@_J_J@container_internal@absl@@U?$Hash@_J@hash_internal@3@U?$equal_to@_J@__Cr@std@@V?$allocator@U?$pair@$$CB_J_J@__Cr@std@@@78@@container_internal@absl@@QEBA_KAEB_JAEBUpiecewise_construct_t@__Cr@std@@$$QEAV?$tuple@AEB_J@56@2@Z
    ??$?R_JAEBUpiecewise_construct_t@__Cr@std@@V?$tuple@AEB_J@12@V312@@HashElement@?$raw_hash_set@V?$NodeHashMapPolicy@_J_J@container_internal@absl@@U?$Hash@_J@hash_internal@3@U?$equal_to@_J@__Cr@std@@V?$allocator@U?$pair@$$CB_J_J@__Cr@std@@@78@@container_internal@absl@@QEBA_KAEB_JAEBUpiecewise_construct_t@__Cr@std@@$$QEAV?$tuple@AEB_J@56@2@Z
    ??$?R_JAEBUpiecewise_construct_t@__Cr@std@@V?$tuple@AEB_J@12@V?$tuple@AEBV?$basic_string@DU?$char_traits@D@__Cr@std@@V?$allocator@D@23@@__Cr@std@@@12@@?$EqualElement@_J@?$raw_hash_set@U?$FlatHashMapPolicy@_JV?$basic_string@DU?$char_traits@D@__Cr@std@@V?$allocator@D@23@@__Cr@std@@@container_internal@absl@@U?$Hash@_J@hash_internal@3@U?$equal_to@_J@__Cr@std@@V?$allocator@U?$pair@$$CB_JV?$basic_string@DU?$char_traits@D@__Cr@std@@V?$allocator@D@23@@__Cr@std@@@__Cr@std@@@78@@container_internal@absl@@QEBA_NAEB_JAEBUpiecewise_construct_t@__Cr@std@@$$QEAV?$tuple@AEB_J@56@$$QEAV?$tuple@AEBV?$basic_string@DU?$char_traits@D@__Cr@std@@V?$allocator@D@23@@__Cr@std@@@56@@Z
    ??$?R_JAEBUpiecewise_construct_t@__Cr@std@@V?$tuple@AEB_J@12@V?$tuple@AEBV?$basic_string@DU?$char_traits@D@__Cr@std@@V?$allocator@D@23@@__Cr@std@@@12@@?$EqualElement@_J@?$raw_hash_set@V?$NodeHashMapPolicy@_JV?$basic_string@DU?$char_traits@D@__Cr@std@@V?$allocator@D@23@@__Cr@std@@@container_internal@absl@@U?$Hash@_J@hash_internal@3@U?$equal_to@_J@__Cr@std@@V?$allocator@U?$pair@$$CB_JV?$basic_string@DU?$char_traits@D@__Cr@std@@V?$allocator@D@23@@__Cr@std@@@__Cr@std@@@78@@container_internal@absl@@QEBA_NAEB_JAEBUpiecewise_construct_t@__Cr@std@@$$QEAV?$tuple@AEB_J@56@$$QEAV?$tuple@AEBV?$basic_string@DU?$char_traits@D@__Cr@std@@V?$allocator@D@23@@__Cr@std@@@56@@Z
    ??$?R_JAEBUpiecewise_construct_t@__Cr@std@@V?$tuple@AEB_J@12@V?$tuple@AEBV?$basic_string@DU?$char_traits@D@__Cr@std@@V?$allocator@D@23@@__Cr@std@@@12@@?$InsertSlot@$0A@@?$raw_hash_set@U?$FlatHashMapPolicy@_JV?$basic_string@DU?$char_traits@D@__Cr@std@@V?$allocator@D@23@@__Cr@std@@@container_internal@absl@@U?$Hash@_J@hash_internal@3@U?$equal_to@_J@__Cr@std@@V?$allocator@U?$pair@$$CB_JV?$basic_string@DU?$char_traits@D@__Cr@std@@V?$allocator@D@23@@__Cr@std@@@__Cr@std@@@78@@container_internal@absl@@QEHAA?AU?$pair@Viterator@?$raw_hash_set@U?$FlatHashMapPolicy@_JV?$basic_string@DU?$char_traits@D@__Cr@std@@V?$allocator@D@23@@__Cr@std@@@container_internal@absl@@U?$Hash@_J@hash_internal@3@U?$equal_to@_J@__Cr@std@@V?$allocator@U?$pair@$$CB_JV?$basic_string@DU?$char_traits@D@__Cr@std@@V?$allocator@D@23@@__Cr@std@@@__Cr@std@@@78@@container_internal@absl@@_N@__Cr@std@@AEB_JAEBUpiecewise_construct_t@56@$$QEAV?$tuple@AEB_J@56@$$QEAV?$tuple@AEBV?$basic_string@DU?$char_traits@D@__Cr@std@@V?$allocator@D@23@@__Cr@std@@@56@@Z
    ??$?R_JAEBUpiecewise_construct_t@__Cr@std@@V?$tuple@AEB_J@12@V?$tuple@AEBV?$basic_string@DU?$char_traits@D@__Cr@std@@V?$allocator@D@23@@__Cr@std@@@12@@?$InsertSlot@$0A@@?$raw_hash_set@V?$NodeHashMapPolicy@_JV?$basic_string@DU?$char_traits@D@__Cr@std@@V?$allocator@D@23@@__Cr@std@@@container_internal@absl@@U?$Hash@_J@hash_internal@3@U?$equal_to@_J@__Cr@std@@V?$allocator@U?$pair@$$CB_JV?$basic_string@DU?$char_traits@D@__Cr@std@@V?$allocator@D@23@@__Cr@std@@@__Cr@std@@@78@@container_internal@absl@@QEHAA?AU?$pair@Viterator@?$raw_hash_set@V?$NodeHashMapPolicy@_JV?$basic_string@DU?$char_traits@D@__Cr@std@@V?$allocator@D@23@@__Cr@std@@@container_internal@absl@@U?$Hash@_J@hash_internal@3@U?$equal_to@_J@__Cr@std@@V?$allocator@U?$pair@$$CB_JV?$basic_string@DU?$char_traits@D@__Cr@std@@V?$allocator@D@23@@__Cr@std@@@__Cr@std@@@78@@container_internal@absl@@_N@__Cr@std@@AEB_JAEBUpiecewise_construct_t@56@$$QEAV?$tuple@AEB_J@56@$$QEAV?$tuple@AEBV?$basic_string@DU?$char_traits@D@__Cr@std@@V?$allocator@D@23@@__Cr@std@@@56@@Z
    ??$?R_JAEBUpiecewise_construct_t@__Cr@std@@V?$tuple@AEB_J@12@V?$tuple@AEBV?$basic_string@DU?$char_traits@D@__Cr@std@@V?$allocator@D@23@@__Cr@std@@@12@@EmplaceDecomposable@?$raw_hash_set@U?$FlatHashMapPolicy@_JV?$basic_string@DU?$char_traits@D@__Cr@std@@V?$allocator@D@23@@__Cr@std@@@container_internal@absl@@U?$Hash@_J@hash_internal@3@U?$equal_to@_J@__Cr@std@@V?$allocator@U?$pair@$$CB_JV?$basic_string@DU?$char_traits@D@__Cr@std@@V?$allocator@D@23@@__Cr@std@@@__Cr@std@@@78@@container_internal@absl@@QEBA?AU?$pair@Viterator@?$raw_hash_set@U?$FlatHashMapPolicy@_JV?$basic_string@DU?$char_traits@D@__Cr@std@@V?$allocator@D@23@@__Cr@std@@@container_internal@absl@@U?$Hash@_J@hash_internal@3@U?$equal_to@_J@__Cr@std@@V?$allocator@U?$pair@$$CB_JV?$basic_string@DU?$char_traits@D@__Cr@std@@V?$allocator@D@23@@__Cr@std@@@__Cr@std@@@78@@container_internal@absl@@_N@__Cr@std@@AEB_JAEBUpiecewise_construct_t@56@$$QEAV?$tuple@AEB_J@56@$$QEAV?$tuple@AEBV?$basic_string@DU?$char_traits@D@__Cr@std@@V?$allocator@D@23@@__Cr@std@@@56@@Z
    ??$?R_JAEBUpiecewise_construct_t@__Cr@std@@V?$tuple@AEB_J@12@V?$tuple@AEBV?$basic_string@DU?$char_traits@D@__Cr@std@@V?$allocator@D@23@@__Cr@std@@@12@@EmplaceDecomposable@?$raw_hash_set@V?$NodeHashMapPolicy@_JV?$basic_string@DU?$char_traits@D@__Cr@std@@V?$allocator@D@23@@__Cr@std@@@container_internal@absl@@U?$Hash@_J@hash_internal@3@U?$equal_to@_J@__Cr@std@@V?$allocator@U?$pair@$$CB_JV?$basic_string@DU?$char_traits@D@__Cr@std@@V?$allocator@D@23@@__Cr@std@@@__Cr@std@@@78@@container_internal@absl@@QEBA?AU?$pair@Viterator@?$raw_hash_set@V?$NodeHashMapPolicy@_JV?$basic_string@DU?$char_traits@D@__Cr@std@@V?$allocator@D@23@@__Cr@std@@@container_internal@absl@@U?$Hash@_J@hash_internal@3@U?$equal_to@_J@__Cr@std@@V?$allocator@U?$pair@$$CB_JV?$basic_string@DU?$char_traits@D@__Cr@std@@V?$allocator@D@23@@__Cr@std@@@__Cr@std@@@78@@container_internal@absl@@_N@__Cr@std@@AEB_JAEBUpiecewise_construct_t@56@$$QEAV?$tuple@AEB_J@56@$$QEAV?$tuple@AEBV?$basic_string@DU?$char_traits@D@__Cr@std@@V?$allocator@D@23@@__Cr@std@@@56@@Z
    ??$?R_JAEBUpiecewise_construct_t@__Cr@std@@V?$tuple@AEB_J@12@V?$tuple@AEBV?$basic_string@DU?$char_traits@D@__Cr@std@@V?$allocator@D@23@@__Cr@std@@@12@@FindElement@?$raw_hash_set@U?$FlatHashMapPolicy@_JV?$basic_string@DU?$char_traits@D@__Cr@std@@V?$allocator@D@23@@__Cr@std@@@container_internal@absl@@U?$Hash@_J@hash_internal@3@U?$equal_to@_J@__Cr@std@@V?$allocator@U?$pair@$$CB_JV?$basic_string@DU?$char_traits@D@__Cr@std@@V?$allocator@D@23@@__Cr@std@@@__Cr@std@@@78@@container_internal@absl@@QEBA?AVconst_iterator@123@AEB_JAEBUpiecewise_construct_t@__Cr@std@@$$QEAV?$tuple@AEB_J@67@$$QEAV?$tuple@AEBV?$basic_string@DU?$char_traits@D@__Cr@std@@V?$allocator@D@23@@__Cr@std@@@67@@Z
    ??$?R_JAEBUpiecewise_construct_t@__Cr@std@@V?$tuple@AEB_J@12@V?$tuple@AEBV?$basic_string@DU?$char_traits@D@__Cr@std@@V?$allocator@D@23@@__Cr@std@@@12@@FindElement@?$raw_hash_set@V?$NodeHashMapPolicy@_JV?$basic_string@DU?$char_traits@D@__Cr@std@@V?$allocator@D@23@@__Cr@std@@@container_internal@absl@@U?$Hash@_J@hash_internal@3@U?$equal_to@_J@__Cr@std@@V?$allocator@U?$pair@$$CB_JV?$basic_string@DU?$char_traits@D@__Cr@std@@V?$allocator@D@23@@__Cr@std@@@__Cr@std@@@78@@container_internal@absl@@QEBA?AVconst_iterator@123@AEB_JAEBUpiecewise_construct_t@__Cr@std@@$$QEAV?$tuple@AEB_J@67@$$QEAV?$tuple@AEBV?$basic_string@DU?$char_traits@D@__Cr@std@@V?$allocator@D@23@@__Cr@std@@@67@@Z
    ??$?R_JAEBUpiecewise_construct_t@__Cr@std@@V?$tuple@AEB_J@12@V?$tuple@AEBV?$basic_string@DU?$char_traits@D@__Cr@std@@V?$allocator@D@23@@__Cr@std@@@12@@HashElement@?$raw_hash_set@U?$FlatHashMapPolicy@_JV?$basic_string@DU?$char_traits@D@__Cr@std@@V?$allocator@D@23@@__Cr@std@@@container_internal@absl@@U?$Hash@_J@hash_internal@3@U?$equal_to@_J@__Cr@std@@V?$allocator@U?$pair@$$CB_JV?$basic_string@DU?$char_traits@D@__Cr@std@@V?$allocator@D@23@@__Cr@std@@@__Cr@std@@@78@@container_internal@absl@@QEBA_KAEB_JAEBUpiecewise_construct_t@__Cr@std@@$$QEAV?$tuple@AEB_J@56@$$QEAV?$tuple@AEBV?$basic_string@DU?$char_traits@D@__Cr@std@@V?$allocator@D@23@@__Cr@std@@@56@@Z
    ??$?R_JAEBUpiecewise_construct_t@__Cr@std@@V?$tuple@AEB_J@12@V?$tuple@AEBV?$basic_string@DU?$char_traits@D@__Cr@std@@V?$allocator@D@23@@__Cr@std@@@12@@HashElement@?$raw_hash_set@V?$NodeHashMapPolicy@_JV?$basic_string@DU?$char_traits@D@__Cr@std@@V?$allocator@D@23@@__Cr@std@@@container_internal@absl@@U?$Hash@_J@hash_internal@3@U?$equal_to@_J@__Cr@std@@V?$allocator@U?$pair@$$CB_JV?$basic_string@DU?$char_traits@D@__Cr@std@@V?$allocator@D@23@@__Cr@std@@@__Cr@std@@@78@@container_internal@absl@@QEBA_KAEB_JAEBUpiecewise_construct_t@__Cr@std@@$$QEAV?$tuple@AEB_J@56@$$QEAV?$tuple@AEBV?$basic_string@DU?$char_traits@D@__Cr@std@@V?$allocator@D@23@@__Cr@std@@@56@@Z
    ??$?R_JAEB_J@?$InsertSlot@$0A@@?$raw_hash_set@U?$FlatHashSetPolicy@_J@container_internal@absl@@U?$Hash@_J@hash_internal@3@U?$equal_to@_J@__Cr@std@@V?$allocator@_J@78@@container_internal@absl@@QEHAA?AU?$pair@Viterator@?$raw_hash_set@U?$FlatHashSetPolicy@_J@container_internal@absl@@U?$Hash@_J@hash_internal@3@U?$equal_to@_J@__Cr@std@@V?$allocator@_J@78@@container_internal@absl@@_N@__Cr@std@@AEB_J0@Z
    ??$?R_JAEB_J@?$InsertSlot@$0A@@?$raw_hash_set@U?$NodeHashSetPolicy@_J@container_internal@absl@@U?$Hash@_J@hash_internal@3@U?$equal_to@_J@__Cr@std@@V?$allocator@_J@78@@container_internal@absl@@QEHAA?AU?$pair@Viterator@?$raw_hash_set@U?$NodeHashSetPolicy@_J@container_internal@absl@@U?$Hash@_J@hash_internal@3@U?$equal_to@_J@__Cr@std@@V?$allocator@_J@78@@container_internal@absl@@_N@__Cr@std@@AEB_J0@Z
    ??$?R_JAEB_J@EmplaceDecomposable@?$raw_hash_set@U?$FlatHashSetPolicy@_J@container_internal@absl@@U?$Hash@_J@hash_internal@3@U?$equal_to@_J@__Cr@std@@V?$allocator@_J@78@@container_internal@absl@@QEBA?AU?$pair@Viterator@?$raw_hash_set@U?$FlatHashSetPolicy@_J@container_internal@absl@@U?$Hash@_J@hash_internal@3@U?$equal_to@_J@__Cr@std@@V?$allocator@_J@78@@container_internal@absl@@_N@__Cr@std@@AEB_J0@Z
    ??$?R_JAEB_J@EmplaceDecomposable@?$raw_hash_set@U?$NodeHashSetPolicy@_J@container_internal@absl@@U?$Hash@_J@hash_internal@3@U?$equal_to@_J@__Cr@std@@V?$allocator@_J@78@@container_internal@absl@@QEBA?AU?$pair@Viterator@?$raw_hash_set@U?$NodeHashSetPolicy@_J@container_internal@absl@@U?$Hash@_J@hash_internal@3@U?$equal_to@_J@__Cr@std@@V?$allocator@_J@78@@container_internal@absl@@_N@__Cr@std@@AEB_J0@Z
    ??$?R_JAEB_J@FindElement@?$raw_hash_set@U?$FlatHashSetPolicy@_J@container_internal@absl@@U?$Hash@_J@hash_internal@3@U?$equal_to@_J@__Cr@std@@V?$allocator@_J@78@@container_internal@absl@@QEBA?AVconst_iterator@123@AEB_J0@Z
    ??$?R_JAEB_J@FindElement@?$raw_hash_set@U?$NodeHashSetPolicy@_J@container_internal@absl@@U?$Hash@_J@hash_internal@3@U?$equal_to@_J@__Cr@std@@V?$allocator@_J@78@@container_internal@absl@@QEBA?AVconst_iterator@123@AEB_J0@Z
    ??$?R_J_J@EmplaceDecomposable@?$raw_hash_set@U?$FlatHashSetPolicy@_J@container_internal@absl@@U?$Hash@_J@hash_internal@3@U?$equal_to@_J@__Cr@std@@V?$allocator@_J@78@@container_internal@absl@@QEBA?AU?$pair@Viterator@?$raw_hash_set@U?$FlatHashSetPolicy@_J@container_internal@absl@@U?$Hash@_J@hash_internal@3@U?$equal_to@_J@__Cr@std@@V?$allocator@_J@78@@container_internal@absl@@_N@__Cr@std@@AEB_J$$QEA_J@Z
    ??$?R_J_J@EmplaceDecomposable@?$raw_hash_set@U?$NodeHashSetPolicy@_J@container_internal@absl@@U?$Hash@_J@hash_internal@3@U?$equal_to@_J@__Cr@std@@V?$allocator@_J@78@@container_internal@absl@@QEBA?AU?$pair@Viterator@?$raw_hash_set@U?$NodeHashSetPolicy@_J@container_internal@absl@@U?$Hash@_J@hash_internal@3@U?$equal_to@_J@__Cr@std@@V?$allocator@_J@78@@container_internal@absl@@_N@__Cr@std@@AEB_J$$QEA_J@Z
    ??$?R_KAEA_K@?$EqualElement@_K@?$raw_hash_set@U?$FlatHashSetPolicy@_K@container_internal@absl@@U?$Hash@_K@hash_internal@3@U?$equal_to@_K@__Cr@std@@V?$allocator@_K@78@@container_internal@absl@@QEBA_NAEB_KAEA_K@Z
    ??$?R_KAEA_K@?$EqualElement@_K@?$raw_hash_set@U?$NodeHashSetPolicy@_K@container_internal@absl@@U?$Hash@_K@hash_internal@3@U?$equal_to@_K@__Cr@std@@V?$allocator@_K@78@@container_internal@absl@@QEBA_NAEB_KAEA_K@Z
    ??$?R_KAEA_K@HashElement@?$raw_hash_set@U?$FlatHashSetPolicy@_K@container_internal@absl@@U?$Hash@_K@hash_internal@3@U?$equal_to@_K@__Cr@std@@V?$allocator@_K@78@@container_internal@absl@@QEBA_KAEB_KAEA_K@Z
    ??$?R_KAEA_K@HashElement@?$raw_hash_set@U?$NodeHashSetPolicy@_K@container_internal@absl@@U?$Hash@_K@hash_internal@3@U?$equal_to@_K@__Cr@std@@V?$allocator@_K@78@@container_internal@absl@@QEBA_KAEB_KAEA_K@Z
    ??$?R_KAEBUpiecewise_construct_t@__Cr@std@@V?$tuple@$$QEA_K@12@V312@@EmplaceDecomposable@?$raw_hash_set@U?$FlatHashMapPolicy@_K_K@container_internal@absl@@U?$Hash@_K@hash_internal@3@U?$equal_to@_K@__Cr@std@@V?$allocator@U?$pair@$$CB_K_K@__Cr@std@@@78@@container_internal@absl@@QEBA?AU?$pair@Viterator@?$raw_hash_set@U?$FlatHashMapPolicy@_K_K@container_internal@absl@@U?$Hash@_K@hash_internal@3@U?$equal_to@_K@__Cr@std@@V?$allocator@U?$pair@$$CB_K_K@__Cr@std@@@78@@container_internal@absl@@_N@__Cr@std@@AEB_KAEBUpiecewise_construct_t@56@$$QEAV?$tuple@$$QEA_K@56@2@Z
    ??$?R_KAEBUpiecewise_construct_t@__Cr@std@@V?$tuple@$$QEA_K@12@V312@@EmplaceDecomposable@?$raw_hash_set@V?$NodeHashMapPolicy@_K_K@container_internal@absl@@U?$Hash@_K@hash_internal@3@U?$equal_to@_K@__Cr@std@@V?$allocator@U?$pair@$$CB_K_K@__Cr@std@@@78@@container_internal@absl@@QEBA?AU?$pair@Viterator@?$raw_hash_set@V?$NodeHashMapPolicy@_K_K@container_internal@absl@@U?$Hash@_K@hash_internal@3@U?$equal_to@_K@__Cr@std@@V?$allocator@U?$pair@$$CB_K_K@__Cr@std@@@78@@container_internal@absl@@_N@__Cr@std@@AEB_KAEBUpiecewise_construct_t@56@$$QEAV?$tuple@$$QEA_K@56@2@Z
