-----BEGIN PRIVATE KEY-----
MIIJQQIBADANBgkqhkiG9w0BAQEFAASCCSswggknAgEAAoICAQCvmgb1o92O4ckf
E79MEQZEN2ZZuzEPeRsvG4aPxZO/UHasKfLY4lk2voDmF7ZeD7GKa/xidVXl+xbV
ZhKckzG5LYwpnMc3Deeq7IW+iLEIPsPDkE7tNRKchmO8QkOhKiI4cq/JMiFPxYyj
T9HVRIJ2u+/WYWjJr7oy4eM+EmqHymJknhPl7PzTVC6fjglwh+t0EG35K7V829nj
zhe0/hPMgaLfTFAyR97RdPOMKwRujD5F0733173PYHy3ahac10rp+r5kMu3/ULOV
BQ6uQWjWQg69isdimNgH/dKW2Pj5UntfunCUmfH3nXHJUCiXZKdHGr3qqLnHdTeq
QH0nrcm4o2BQj2no8Mh3Sw7wYn9a7+Hsgj6CvNC5pkDo2mp2aUmwi82cPRkKidyu
RO6amM5NeQj3tVBtx7LrwcYSMQSLEgmdkz3JnYFj47+Je0twI7ONtqbxi72EKvsr
+ZN98XCX3RCjSsl4sDHqo/tDv2+eLb0QGEThE89j7YwiryegEGOGzrf9/D3P6bi4
TQHmP3116zKaUvMixwhzxXg1+L1LcRQChHqhp/rb8GIA6Bd0ybzuZHkZm4srdK+x
4W2emMjgY3hHoBegRsJCyyvEF4oCM9NH4SvExs+gk537F7Q02CAGaMUlYvEqeGUe
Y0SQDGUvQ6CbuUMeRKucXRqQ0talvQIDAQABAoICACXw0bAhR62nex0L1zlINGJo
1eRtXZxKPmVfPSOzPMkJSZrJNX9G6J+7aX5NgUmxelq+GjnrwDOAnN5ev4a1BvlL
rg0Portydauojv0r65Qse3+1nlgCL5NCNipm5tXblKk9nl2KR0hFFq3ygRPjSYz9
7kQTp+Br53827zJqKDpOsBOtU/9JxRakCa7PsZpuw6DALAK6PuxLVDi0PssMWprF
J7u3cVxryujWrAiNAtgf1RShO1phctFrt4aplVkt6zHCy4A6wNF5TlPUU+eymkQw
4Z5ybcIP5B1V6jpNhv3XpHB6h/iTioRFsGAewaZ0SPBEBuS8r+c4nF5csK3yDrNK
d3Yf7tA6AjuHxnd9KFn7UT6KZ6FdWGtqMqRWQeaRp6PKgzuFgTVHWlDWjdIoDoRo
Abp7zQJL3nrdXb8D1mZV7S3ulWbMUHlXjDs8z90rBd0f0XLOnR+CgmS349Wp/b7P
rnN6XyU2i+LBSSuWXRHl+L7dH5DNg9Rl0jxSBmsRrUZgWpwQzuTs7w5NoO1c8arp
ov6hsOc8kp2fzIPiKOyRFZ35KmeJK5YvV/iSYLYJ3oV9Lxp/Y1aO0q50nRtK7cPr
Pxv87NrDhhN3bt2iu6Y+RoSYaO1J5kt2v587RyzCdQlRwXVIU6OlPY25VBgdrXmV
2NAmRmeh4L20lr4ES+IBAoIBAQDXXzqmL3WrluydsA3n5wM0kYpsbyl8FdtC9GLq
/jchM0GE25ij6/9IUY3Lc7ajGI1eG1yUF0t4n0PeTJz6/ouGTNaX65gzPCdJvmO9
rJiWzwDjdcNaZQBHc5My8fxZ37fIizY8JzorbfzcsB4F0e/urB/cn4cckur5m8Dy
gIzFDRkw88s0gxiYh+nm87p3qHaRIU8giaaN1gOU8UjMy7k0/CHr5GduEsBCC5jZ
1v57ipPQf+9nU3HtcBXZFeAgkU2zCcIBRzpYTkRi3Fu57LeSg+3ciuoZ8QRQ0gvQ
rNnc81Y1vlTpN1rifqnZpjZkh6Y0fQkYfdfhK9DtUje2FUFVAoIBAQDQujRwg+u8
CYXeOGz4t75ayR4vu3c/G1M0LwtqP3fp0ceA43ESb/VoBeqnyWnIkoYiVpB4vDSp
UEejZB4dDHeoT6eHQ+v12q9Lg0Q9Rm+B2Ir8lTgG0zKcoA2+FmnpXc4xNT4JYSq+
40plBFV2WY3LKuKICle0VQaEvbi6lAlQGrGi9JIICZT4UGwbul/jCl6a5p9J2dkf
kEPjZixBaDFwaS2QC/Iia3JDV7WuVktNiSUkO9ioiqLtMTIHjiCssxw3dselBJ3A
u+T/Q77TwZOihoyor8sA+yaVU336Qe5VGop41YMQj6ajeVk44W8Hgt0s49Nwok/I
4UjhrD4C1PLJAoIBACFQ7+epS9ChZjT2eRA4ojxNj1Y60/YIA4UV/P9RGAIgxa/h
sHkbFsB/LSod2lDciXHXVbjq6ZfdO0h2HYqOOdMqq7+QiFjUo1c7Bn7e5jPeDcsh
+nhPS33CGTE2Uc0tWGbDcj5X6x2ww/73l41a7nzDT6J3YxU+fO7j8zMQQ7Zv0kfK
TtLuvK1LyRka9utvufe1aWIlKQij5KXztUlI8nuJzU2KZZ2XdPpChQCdy3wc8cS9
JbGcLPGH9zk/sw4WrChYCBTeid4DLX0FjYLzZWpa0j7dll0w9XPzKjS7qHAPjHR/
3u68y2hiI7AxkBR5D3LrLK8HOI/ykT1FDK00GIkCggEARMLy/5YWFM42UazZCV7O
0O2siiEB+cIwuOI+qnPaNycqyCUlXOORPwGj+j56IN9UXP+TfJLT7mtKDmOvH/a5
fLMxB3iyxT2TvhayZlVL6sTBlNA7stPkuoBnxpVvsrd6c++MTl66TERof7rbxK9f
7Oxl0FdH6VqRWS1/K8gVAVSp7HsRmKA/eUZVNxVA/XSvEeyj0Rp5UtKd6s4AClQe
5V9g6TFmRTyMWe8NJS+8gwCJQdSNXYi+f9FTH/YMgZhH1WXGA3Dv30yG9ikFNpFw
53vX3sJ66AnU/iCRQd5ye4rQz1nXYZ9RUE1rvTdW8myEHIO5ZkOycQT2k5HApAIv
MQKCAQB7gj2nnQ5bTcj32h9xsrcOGAYnFG1024ZQhviBOJADdLj4iDek9JJZzvOl
WT/OKBculmbtc4LIAcnG27j+ZPgtG3Hl+m2CvJresdpqa9kCY9/1njBTHRFoDKGj
Ko2ZquVpVWZPvRSpFVa8XJcUkujhtydY9l8jHpT2rISeG36VxYvvYw2971XE+2K4
SC3X6840Q5t6dy0pMmgsfHiQLNQdDRv4J0aPgKBOtfyzDiEMSpZTimVoukJbv1CG
dupcggIKf+2RX8/9X5+kCLMyotGYwFAc2KHCkpnyZPqrEzsEblvCio6V4pJY7ncc
fcZQJr07Qj62PSxShEZDeC0xBpcM
-----END PRIVATE KEY-----
Certificate:
    Data:
        Version: 3 (0x2)
        Serial Number: 10770612998896443650 (0x9578e775146d6102)
    Signature Algorithm: sha256WithRSAEncryption
        Issuer: C=US, ST=California, L=Mountain View, O=Test CA, CN=127.0.0.1
        Validity
            Not Before: Jul  6 18:43:50 2017 GMT
            Not After : Jul  4 18:43:50 2027 GMT
        Subject: C=US, ST=California, L=Mountain View, O=Test CA, CN=127.0.0.1
        Subject Public Key Info:
            Public Key Algorithm: rsaEncryption
                Public-Key: (4096 bit)
                Modulus:
                    00:af:9a:06:f5:a3:dd:8e:e1:c9:1f:13:bf:4c:11:
                    06:44:37:66:59:bb:31:0f:79:1b:2f:1b:86:8f:c5:
                    93:bf:50:76:ac:29:f2:d8:e2:59:36:be:80:e6:17:
                    b6:5e:0f:b1:8a:6b:fc:62:75:55:e5:fb:16:d5:66:
                    12:9c:93:31:b9:2d:8c:29:9c:c7:37:0d:e7:aa:ec:
                    85:be:88:b1:08:3e:c3:c3:90:4e:ed:35:12:9c:86:
                    63:bc:42:43:a1:2a:22:38:72:af:c9:32:21:4f:c5:
                    8c:a3:4f:d1:d5:44:82:76:bb:ef:d6:61:68:c9:af:
                    ba:32:e1:e3:3e:12:6a:87:ca:62:64:9e:13:e5:ec:
                    fc:d3:54:2e:9f:8e:09:70:87:eb:74:10:6d:f9:2b:
                    b5:7c:db:d9:e3:ce:17:b4:fe:13:cc:81:a2:df:4c:
                    50:32:47:de:d1:74:f3:8c:2b:04:6e:8c:3e:45:d3:
                    bd:f7:d7:bd:cf:60:7c:b7:6a:16:9c:d7:4a:e9:fa:
                    be:64:32:ed:ff:50:b3:95:05:0e:ae:41:68:d6:42:
                    0e:bd:8a:c7:62:98:d8:07:fd:d2:96:d8:f8:f9:52:
                    7b:5f:ba:70:94:99:f1:f7:9d:71:c9:50:28:97:64:
                    a7:47:1a:bd:ea:a8:b9:c7:75:37:aa:40:7d:27:ad:
                    c9:b8:a3:60:50:8f:69:e8:f0:c8:77:4b:0e:f0:62:
                    7f:5a:ef:e1:ec:82:3e:82:bc:d0:b9:a6:40:e8:da:
                    6a:76:69:49:b0:8b:cd:9c:3d:19:0a:89:dc:ae:44:
                    ee:9a:98:ce:4d:79:08:f7:b5:50:6d:c7:b2:eb:c1:
                    c6:12:31:04:8b:12:09:9d:93:3d:c9:9d:81:63:e3:
                    bf:89:7b:4b:70:23:b3:8d:b6:a6:f1:8b:bd:84:2a:
                    fb:2b:f9:93:7d:f1:70:97:dd:10:a3:4a:c9:78:b0:
                    31:ea:a3:fb:43:bf:6f:9e:2d:bd:10:18:44:e1:13:
                    cf:63:ed:8c:22:af:27:a0:10:63:86:ce:b7:fd:fc:
                    3d:cf:e9:b8:b8:4d:01:e6:3f:7d:75:eb:32:9a:52:
                    f3:22:c7:08:73:c5:78:35:f8:bd:4b:71:14:02:84:
                    7a:a1:a7:fa:db:f0:62:00:e8:17:74:c9:bc:ee:64:
                    79:19:9b:8b:2b:74:af:b1:e1:6d:9e:98:c8:e0:63:
                    78:47:a0:17:a0:46:c2:42:cb:2b:c4:17:8a:02:33:
                    d3:47:e1:2b:c4:c6:cf:a0:93:9d:fb:17:b4:34:d8:
                    20:06:68:c5:25:62:f1:2a:78:65:1e:63:44:90:0c:
                    65:2f:43:a0:9b:b9:43:1e:44:ab:9c:5d:1a:90:d2:
                    d6:a5:bd
                Exponent: 65537 (0x10001)
        X509v3 extensions:
            X509v3 Subject Key Identifier: 
                5F:59:BA:74:46:93:39:6D:2F:72:06:69:96:F2:68:A8:14:9E:83:D2
            X509v3 Authority Key Identifier: 
                keyid:5F:59:BA:74:46:93:39:6D:2F:72:06:69:96:F2:68:A8:14:9E:83:D2

            X509v3 Basic Constraints: 
                CA:TRUE
    Signature Algorithm: sha256WithRSAEncryption
         9b:f8:fc:94:9d:92:bd:06:3f:20:5c:1a:f9:9a:75:e1:0f:18:
         c5:09:b2:5c:45:b9:9a:91:0d:f2:53:3d:75:7b:ce:70:81:b4:
         70:f7:51:7c:7d:b8:e0:10:f2:9a:45:96:7b:c8:fd:9e:3f:d6:
         56:fa:07:dc:86:d0:b0:64:ab:78:97:d9:d6:58:43:fc:93:8f:
         45:82:9f:6f:35:4b:ae:69:de:ca:18:ff:63:50:17:4d:e4:8d:
         09:69:cd:6a:af:e7:ba:8a:9d:41:40:83:3f:f2:c7:26:0c:0d:
         9c:c0:5b:8b:ce:4c:36:73:c0:f1:6b:0e:9b:fe:0d:63:1d:17:
         3d:b6:1a:41:37:e2:86:39:4d:60:70:60:20:da:c9:8c:e2:98:
         35:d5:4b:63:2e:bc:ca:de:89:c0:4f:dd:66:d9:11:f4:f3:43:
         2f:02:b8:0c:6a:84:4c:27:42:4d:ce:4f:f8:17:22:04:b9:ea:
         bc:7e:0d:07:d6:57:bb:00:ea:5c:ca:96:f6:fa:86:0f:92:27:
         fb:d5:a5:d4:b6:71:62:1b:87:59:a9:3a:7a:78:99:c0:96:69:
         14:ab:09:e0:01:b8:85:c6:80:b3:4e:48:19:5f:d3:a2:cf:4d:
         19:55:e1:8a:95:f5:d4:b3:f8:04:32:b7:64:01:5b:7e:a4:37:
         57:c6:a5:a2:a0:37:40:57:14:69:66:bd:90:d1:12:2c:74:e3:
         c7:45:33:b7:c0:3b:12:3d:19:09:eb:57:70:c5:d5:91:5a:c1:
         94:d9:e9:ac:84:33:2a:5a:52:4a:2b:52:8b:da:c3:53:f9:52:
         1f:74:96:66:b3:a9:ff:43:47:87:6c:ec:6c:fc:c5:23:60:5c:
         ec:fc:f1:16:38:61:12:c3:f4:21:dc:0d:55:de:e8:63:e7:d0:
         a9:a6:f2:c4:9c:3e:05:b9:9f:4a:30:96:f2:0a:5a:4f:e4:b9:
         01:4c:b9:82:70:4e:f4:4b:24:df:71:7f:91:f4:a3:94:bb:95:
         49:b2:f2:1a:04:5f:bf:8d:1d:9a:88:c7:89:8e:0f:5a:af:f6:
         21:7f:33:7e:58:16:c5:d0:f2:0d:df:95:70:e5:8a:70:82:d1:
         32:12:2c:e6:2c:54:30:0e:a4:d8:6b:d4:5c:3f:dc:30:68:c0:
         54:a2:85:0d:f9:1c:e0:af:00:ea:03:56:ab:b0:13:92:af:c4:
         83:96:fe:d6:81:f6:6d:25:93:ee:94:3e:fb:7a:9b:ee:82:04:
         1e:7f:92:eb:43:d4:1a:1b:09:7f:6e:a5:80:8a:18:a7:ae:1b:
         aa:fd:c9:8b:c0:ae:78:9a:cb:b2:ee:71:e0:c4:c8:a7:7b:44:
         c1:a1:38:5c:dc:6f:e7:08
-----BEGIN CERTIFICATE-----
MIIFkzCCA3ugAwIBAgIJAJV453UUbWECMA0GCSqGSIb3DQEBCwUAMGAxCzAJBgNV
BAYTAlVTMRMwEQYDVQQIDApDYWxpZm9ybmlhMRYwFAYDVQQHDA1Nb3VudGFpbiBW
aWV3MRAwDgYDVQQKDAdUZXN0IENBMRIwEAYDVQQDDAkxMjcuMC4wLjEwHhcNMTcw
NzA2MTg0MzUwWhcNMjcwNzA0MTg0MzUwWjBgMQswCQYDVQQGEwJVUzETMBEGA1UE
CAwKQ2FsaWZvcm5pYTEWMBQGA1UEBwwNTW91bnRhaW4gVmlldzEQMA4GA1UECgwH
VGVzdCBDQTESMBAGA1UEAwwJMTI3LjAuMC4xMIICIjANBgkqhkiG9w0BAQEFAAOC
Ag8AMIICCgKCAgEAr5oG9aPdjuHJHxO/TBEGRDdmWbsxD3kbLxuGj8WTv1B2rCny
2OJZNr6A5he2Xg+ximv8YnVV5fsW1WYSnJMxuS2MKZzHNw3nquyFvoixCD7Dw5BO
7TUSnIZjvEJDoSoiOHKvyTIhT8WMo0/R1USCdrvv1mFoya+6MuHjPhJqh8piZJ4T
5ez801Qun44JcIfrdBBt+Su1fNvZ484XtP4TzIGi30xQMkfe0XTzjCsEbow+RdO9
99e9z2B8t2oWnNdK6fq+ZDLt/1CzlQUOrkFo1kIOvYrHYpjYB/3Sltj4+VJ7X7pw
lJnx951xyVAol2SnRxq96qi5x3U3qkB9J63JuKNgUI9p6PDId0sO8GJ/Wu/h7II+
grzQuaZA6NpqdmlJsIvNnD0ZConcrkTumpjOTXkI97VQbcey68HGEjEEixIJnZM9
yZ2BY+O/iXtLcCOzjbam8Yu9hCr7K/mTffFwl90Qo0rJeLAx6qP7Q79vni29EBhE
4RPPY+2MIq8noBBjhs63/fw9z+m4uE0B5j99desymlLzIscIc8V4Nfi9S3EUAoR6
oaf62/BiAOgXdMm87mR5GZuLK3SvseFtnpjI4GN4R6AXoEbCQssrxBeKAjPTR+Er
xMbPoJOd+xe0NNggBmjFJWLxKnhlHmNEkAxlL0Ogm7lDHkSrnF0akNLWpb0CAwEA
AaNQME4wHQYDVR0OBBYEFF9ZunRGkzltL3IGaZbyaKgUnoPSMB8GA1UdIwQYMBaA
FF9ZunRGkzltL3IGaZbyaKgUnoPSMAwGA1UdEwQFMAMBAf8wDQYJKoZIhvcNAQEL
BQADggIBAJv4/JSdkr0GPyBcGvmadeEPGMUJslxFuZqRDfJTPXV7znCBtHD3UXx9
uOAQ8ppFlnvI/Z4/1lb6B9yG0LBkq3iX2dZYQ/yTj0WCn281S65p3soY/2NQF03k
jQlpzWqv57qKnUFAgz/yxyYMDZzAW4vOTDZzwPFrDpv+DWMdFz22GkE34oY5TWBw
YCDayYzimDXVS2MuvMreicBP3WbZEfTzQy8CuAxqhEwnQk3OT/gXIgS56rx+DQfW
V7sA6lzKlvb6hg+SJ/vVpdS2cWIbh1mpOnp4mcCWaRSrCeABuIXGgLNOSBlf06LP
TRlV4YqV9dSz+AQyt2QBW36kN1fGpaKgN0BXFGlmvZDREix048dFM7fAOxI9GQnr
V3DF1ZFawZTZ6ayEMypaUkorUovaw1P5Uh90lmazqf9DR4ds7Gz8xSNgXOz88RY4
YRLD9CHcDVXe6GPn0Kmm8sScPgW5n0owlvIKWk/kuQFMuYJwTvRLJN9xf5H0o5S7
lUmy8hoEX7+NHZqIx4mOD1qv9iF/M35YFsXQ8g3flXDlinCC0TISLOYsVDAOpNhr
1Fw/3DBowFSihQ35HOCvAOoDVquwE5KvxIOW/taB9m0lk+6UPvt6m+6CBB5/kutD
1BobCX9upYCKGKeuG6r9yYvArniay7LuceDEyKd7RMGhOFzcb+cI
-----END CERTIFICATE-----
