Certificate:
    Data:
        Version: 3 (0x2)
        Serial Number: 4 (0x4)
        Signature Algorithm: sha256WithRSAEncryption
        Issuer: C=US, ST=California, L=Mountain View, O=Test CA, CN=Test Root CA
        Validity
            Not Before: May  1 00:00:00 2019 GMT
            Not After : Jul 31 00:00:00 2019 GMT
        Subject: CN=test.example.org, O=Test, C=US
        Subject Public Key Info:
            Public Key Algorithm: id-ecPublicKey
                Public-Key: (256 bit)
                pub:
                    04:d4:3b:74:aa:81:60:29:42:ca:35:ea:c8:e9:3e:
                    48:2b:5b:85:8c:3e:aa:18:65:7b:6f:72:88:48:2d:
                    64:f7:de:97:f7:9c:02:49:e4:01:a4:3c:33:78:09:
                    0c:a6:b8:65:17:6d:7b:bb:af:30:80:69:64:b7:8c:
                    fe:b6:42:fc:9d
                ASN1 OID: prime256v1
                NIST CURVE: P-256
        X509v3 extensions:
            X509v3 Basic Constraints: 
                CA:FALSE
            1.3.6.1.4.1.11129.2.1.22: 
                ..
            X509v3 Key Usage: 
                Digital Signature, Non Repudiation, Key Encipherment
            X509v3 Extended Key Usage: 
                TLS Web Server Authentication
            X509v3 Subject Key Identifier: 
                C9:50:C2:2B:03:C3:11:69:26:AD:DF:E7:82:A0:43:65:91:01:D8:F7
            X509v3 Authority Key Identifier: 
                9B:26:0B:8A:98:A9:BB:1D:B9:1F:1C:E3:1A:40:33:ED:8E:17:88:AB
            X509v3 Subject Alternative Name: 
                DNS:test.example.org
    Signature Algorithm: sha256WithRSAEncryption
    Signature Value:
        12:0b:73:8e:33:0c:aa:d0:4b:2d:f2:78:86:32:98:0a:cb:be:
        e6:8a:93:c0:79:cc:df:04:c4:96:45:58:99:e2:b1:20:b4:0f:
        62:f7:95:c3:1a:4e:6f:18:1b:73:f3:9c:ca:3f:28:21:fb:3c:
        47:b6:e9:c3:82:af:21:de:c2:5d:85:f4:dc:24:1a:c5:bf:62:
        10:ca:ac:e2:a4:9e:5d:1f:95:92:8c:8b:bd:21:79:29:e5:a5:
        77:96:20:d8:25:ee:db:d0:b7:f2:d8:32:b4:08:39:54:5f:fd:
        21:3d:07:08:97:c6:a2:d2:56:52:50:d9:85:43:5c:27:96:55:
        75:b7:ad:ae:44:3b:39:fa:fb:37:28:fa:16:0b:e4:13:b7:d5:
        be:3b:cf:70:98:fe:58:e0:4f:13:9a:1b:52:2c:1b:98:16:7b:
        c9:72:8a:25:51:5f:51:5e:e0:dc:68:e0:58:5a:ce:90:8c:fb:
        e6:41:dc:8a:44:48:2e:7d:56:cb:7d:ac:11:5f:8f:7d:b6:7b:
        1d:e7:b2:4b:5b:a9:be:44:ee:6d:68:d5:d3:ad:8f:9a:b4:35:
        b4:d7:39:56:3a:8c:94:f7:a8:08:a2:12:58:0d:8c:74:a5:7b:
        20:3b:75:1d:fb:0a:43:ac:f3:0e:55:62:09:b7:ef:df:5c:c7:
        e2:26:03:64
-----BEGIN CERTIFICATE-----
MIIC6jCCAdKgAwIBAgIBBDANBgkqhkiG9w0BAQsFADBjMQswCQYDVQQGEwJVUzET
MBEGA1UECAwKQ2FsaWZvcm5pYTEWMBQGA1UEBwwNTW91bnRhaW4gVmlldzEQMA4G
A1UECgwHVGVzdCBDQTEVMBMGA1UEAwwMVGVzdCBSb290IENBMB4XDTE5MDUwMTAw
MDAwMFoXDTE5MDczMTAwMDAwMFowNzEZMBcGA1UEAwwQdGVzdC5leGFtcGxlLm9y
ZzENMAsGA1UECgwEVGVzdDELMAkGA1UEBhMCVVMwWTATBgcqhkjOPQIBBggqhkjO
PQMBBwNCAATUO3SqgWApQso16sjpPkgrW4WMPqoYZXtvcohILWT33pf3nAJJ5AGk
PDN4CQymuGUXbXu7rzCAaWS3jP62Qvydo4GfMIGcMAkGA1UdEwQCMAAwEAYKKwYB
BAHWeQIBFgQCBQAwCwYDVR0PBAQDAgXgMBMGA1UdJQQMMAoGCCsGAQUFBwMBMB0G
A1UdDgQWBBTJUMIrA8MRaSat3+eCoENlkQHY9zAfBgNVHSMEGDAWgBSbJguKmKm7
HbkfHOMaQDPtjheIqzAbBgNVHREEFDASghB0ZXN0LmV4YW1wbGUub3JnMA0GCSqG
SIb3DQEBCwUAA4IBAQASC3OOMwyq0Est8niGMpgKy77mipPAeczfBMSWRViZ4rEg
tA9i95XDGk5vGBtz85zKPygh+zxHtunDgq8h3sJdhfTcJBrFv2IQyqzipJ5dH5WS
jIu9IXkp5aV3liDYJe7b0Lfy2DK0CDlUX/0hPQcIl8ai0lZSUNmFQ1wnllV1t62u
RDs5+vs3KPoWC+QTt9W+O89wmP5Y4E8TmhtSLBuYFnvJcoolUV9RXuDcaOBYWs6Q
jPvmQdyKREgufVbLfawRX499tnsd57JLW6m+RO5taNXTrY+atDW01zlWOoyU96gI
ohJYDYx0pXsgO3Ud+wpDrPMOVWIJt+/fXMfiJgNk
-----END CERTIFICATE-----
