Certificate:
    Data:
        Version: 3 (0x2)
        Serial Number: 2 (0x2)
        Signature Algorithm: sha256WithRSAEncryption
        Issuer: C=US, ST=California, L=Mountain View, O=Test CA, CN=Test Root CA
        Validity
            Not Before: Jun  1 00:00:00 2019 GMT
            Not After : Aug 30 00:00:00 2019 GMT
        Subject: CN=google-com.example.org, O=Test, C=US
        Subject Public Key Info:
            Public Key Algorithm: id-ecPublicKey
                Public-Key: (256 bit)
                pub:
                    04:94:57:dd:55:f5:95:9d:8c:83:49:f5:e6:22:48:
                    cc:a2:41:ed:29:dd:52:2e:93:1c:26:25:75:83:36:
                    2c:4c:00:6e:ca:ae:4f:52:16:a0:86:aa:5e:94:b6:
                    c6:bd:30:54:11:81:fc:06:ea:56:87:60:dd:20:5d:
                    35:7d:1d:ca:c3
                ASN1 OID: prime256v1
                NIST CURVE: P-256
        X509v3 extensions:
            X509v3 Basic Constraints: 
                CA:FALSE
            1.3.6.1.4.1.11129.2.1.22: 
                ..
            X509v3 Key Usage: 
                Digital Signature, Non Repudiation, Key Encipherment
            X509v3 Extended Key Usage: 
                TLS Web Server Authentication
            X509v3 Subject Key Identifier: 
                CF:65:B9:9B:EE:0E:EC:8E:A6:B9:69:96:82:20:F4:F7:8B:8A:B2:FA
            X509v3 Authority Key Identifier: 
                keyid:9B:26:0B:8A:98:A9:BB:1D:B9:1F:1C:E3:1A:40:33:ED:8E:17:88:AB

            X509v3 Subject Alternative Name: 
                DNS:google-com.example.org
    Signature Algorithm: sha256WithRSAEncryption
         ae:16:c3:1d:a9:b1:53:86:22:ee:90:e6:07:e6:03:c1:a1:10:
         79:98:32:d9:61:31:f2:27:5c:6a:a2:80:c6:0b:d1:40:16:06:
         65:5e:b9:72:e1:77:e1:a9:02:bf:b9:18:56:8a:24:0f:b7:84:
         94:d7:53:51:e6:9f:51:fd:7e:fe:d2:64:9e:73:d0:97:2d:2f:
         ad:64:41:28:ef:9e:e7:86:ca:18:04:39:7d:7d:b1:9f:3c:20:
         f4:44:5b:a0:d4:00:28:bf:8c:c2:50:c9:c8:5e:cf:d5:1c:37:
         98:8e:2e:d8:81:71:43:79:77:60:6b:85:01:34:14:70:73:33:
         1d:df:6e:2e:30:b5:99:ff:0c:ac:82:b5:23:c2:f4:8c:8a:e0:
         53:f2:f4:3f:cb:18:78:3c:b3:f4:f9:41:e3:d4:83:75:24:c8:
         b6:16:15:d7:36:d1:06:a3:9a:0b:59:6b:cd:e4:05:8e:25:d8:
         1f:44:bf:30:20:3b:92:dd:66:74:3b:e6:d2:91:0c:5a:81:ac:
         d1:9d:3f:9e:fe:cd:31:a0:36:40:58:6f:01:01:f5:9c:f7:ab:
         81:91:3f:d3:f1:3c:29:a3:47:a0:60:71:55:86:8c:15:3e:9e:
         0c:54:45:04:4c:10:33:36:09:c5:88:56:3a:8e:78:3b:dc:5d:
         43:5a:cd:84
-----BEGIN CERTIFICATE-----
MIIC9jCCAd6gAwIBAgIBAjANBgkqhkiG9w0BAQsFADBjMQswCQYDVQQGEwJVUzET
MBEGA1UECAwKQ2FsaWZvcm5pYTEWMBQGA1UEBwwNTW91bnRhaW4gVmlldzEQMA4G
A1UECgwHVGVzdCBDQTEVMBMGA1UEAwwMVGVzdCBSb290IENBMB4XDTE5MDYwMTAw
MDAwMFoXDTE5MDgzMDAwMDAwMFowPTEfMB0GA1UEAwwWZ29vZ2xlLWNvbS5leGFt
cGxlLm9yZzENMAsGA1UECgwEVGVzdDELMAkGA1UEBhMCVVMwWTATBgcqhkjOPQIB
BggqhkjOPQMBBwNCAASUV91V9ZWdjINJ9eYiSMyiQe0p3VIukxwmJXWDNixMAG7K
rk9SFqCGql6Utsa9MFQRgfwG6laHYN0gXTV9HcrDo4GlMIGiMAkGA1UdEwQCMAAw
EAYKKwYBBAHWeQIBFgQCBQAwCwYDVR0PBAQDAgXgMBMGA1UdJQQMMAoGCCsGAQUF
BwMBMB0GA1UdDgQWBBTPZbmb7g7sjqa5aZaCIPT3i4qy+jAfBgNVHSMEGDAWgBSb
JguKmKm7HbkfHOMaQDPtjheIqzAhBgNVHREEGjAYghZnb29nbGUtY29tLmV4YW1w
bGUub3JnMA0GCSqGSIb3DQEBCwUAA4IBAQCuFsMdqbFThiLukOYH5gPBoRB5mDLZ
YTHyJ1xqooDGC9FAFgZlXrly4XfhqQK/uRhWiiQPt4SU11NR5p9R/X7+0mSec9CX
LS+tZEEo757nhsoYBDl9fbGfPCD0RFug1AAov4zCUMnIXs/VHDeYji7YgXFDeXdg
a4UBNBRwczMd324uMLWZ/wysgrUjwvSMiuBT8vQ/yxh4PLP0+UHj1IN1JMi2FhXX
NtEGo5oLWWvN5AWOJdgfRL8wIDuS3WZ0O+bSkQxagazRnT+e/s0xoDZAWG8BAfWc
96uBkT/T8Twpo0egYHFVhowVPp4MVEUETBAzNgnFiFY6jng73F1DWs2E
-----END CERTIFICATE-----
