Certificate:
    Data:
        Version: 1 (0x0)
        Serial Number: 2 (0x2)
        Signature Algorithm: sha256WithRSAEncryption
        Issuer: C=US, ST=California, L=Mountain View, O=Test CA, CN=Test Root CA
        Validity
            Not Before: Jun  1 00:00:00 2019 GMT
            Not After : Aug 30 00:00:00 2019 GMT
        Subject: CN=test.example.org, O=Test, C=US
        Subject Public Key Info:
            Public Key Algorithm: id-ecPublicKey
                Public-Key: (256 bit)
                pub:
                    04:56:24:49:7a:0a:a9:df:1a:0a:07:e3:ad:2a:23:
                    6d:e9:33:25:68:5a:96:33:03:95:13:26:d9:44:ff:
                    a8:59:16:6d:b6:7d:50:74:6e:d9:f7:9d:48:b2:61:
                    ba:f8:6a:1e:fe:c6:1b:83:09:7f:84:9a:56:4f:68:
                    a8:3e:28:d1:10
                ASN1 OID: prime256v1
                NIST CURVE: P-256
    Signature Algorithm: sha256WithRSAEncryption
         21:c1:39:a8:ba:d2:a5:ac:dd:a3:f5:00:24:cb:36:c3:80:0a:
         32:f2:e1:7d:98:d3:43:44:75:80:15:6f:2a:63:88:0d:9d:f9:
         ec:77:b5:0f:c6:0c:d8:32:00:95:4b:f4:0c:49:40:a4:7f:ba:
         9f:f3:e0:65:c6:22:9f:c8:5b:ac:e6:5e:49:11:57:aa:ab:a2:
         74:9d:d0:8a:7d:40:05:c1:8f:62:97:d2:f4:a4:7d:a6:20:60:
         39:8c:eb:18:a7:28:5e:c8:66:b7:37:ea:10:ac:50:cc:14:69:
         ac:1a:68:f6:be:56:19:db:08:15:2b:4e:64:3a:7b:82:ee:5e:
         c9:5d:4f:b6:67:32:77:e5:b8:9d:00:16:5b:e6:18:d4:cd:b4:
         92:1d:f2:47:a7:af:97:f3:ac:d2:8b:88:58:ba:3a:3a:2c:ff:
         bf:79:b1:a0:c9:d6:b0:69:ce:68:d6:c3:2e:66:69:0b:8c:7a:
         49:3f:9c:4a:e8:5f:f2:80:fb:cb:44:2c:7c:50:8a:db:24:6a:
         26:a8:ea:6f:55:2c:ba:13:60:02:05:87:69:b9:b8:ce:99:a1:
         ca:a6:45:00:26:a4:15:53:d2:28:f3:3c:28:2a:4c:17:65:b4:
         50:e5:45:73:44:32:50:20:b1:c7:45:a1:e8:d2:3e:1d:d2:82:
         5a:b7:42:ad
-----BEGIN CERTIFICATE-----
MIICQzCCASsCAQIwDQYJKoZIhvcNAQELBQAwYzELMAkGA1UEBhMCVVMxEzARBgNV
BAgMCkNhbGlmb3JuaWExFjAUBgNVBAcMDU1vdW50YWluIFZpZXcxEDAOBgNVBAoM
B1Rlc3QgQ0ExFTATBgNVBAMMDFRlc3QgUm9vdCBDQTAeFw0xOTA2MDEwMDAwMDBa
Fw0xOTA4MzAwMDAwMDBaMDcxGTAXBgNVBAMMEHRlc3QuZXhhbXBsZS5vcmcxDTAL
BgNVBAoMBFRlc3QxCzAJBgNVBAYTAlVTMFkwEwYHKoZIzj0CAQYIKoZIzj0DAQcD
QgAEViRJegqp3xoKB+OtKiNt6TMlaFqWMwOVEybZRP+oWRZttn1QdG7Z951IsmG6
+Goe/sYbgwl/hJpWT2ioPijREDANBgkqhkiG9w0BAQsFAAOCAQEAIcE5qLrSpazd
o/UAJMs2w4AKMvLhfZjTQ0R1gBVvKmOIDZ357He1D8YM2DIAlUv0DElApH+6n/Pg
ZcYin8hbrOZeSRFXqquidJ3Qin1ABcGPYpfS9KR9piBgOYzrGKcoXshmtzfqEKxQ
zBRprBpo9r5WGdsIFStOZDp7gu5eyV1Ptmcyd+W4nQAWW+YY1M20kh3yR6evl/Os
0ouIWLo6Oiz/v3mxoMnWsGnOaNbDLmZpC4x6ST+cSuhf8oD7y0QsfFCK2yRqJqjq
b1UsuhNgAgWHabm4zpmhyqZFACakFVPSKPM8KCpMF2W0UOVFc0QyUCCxx0Wh6NI+
HdKCWrdCrQ==
-----END CERTIFICATE-----
