Certificate:
    Data:
        Version: 1 (0x0)
        Serial Number: 3 (0x3)
        Signature Algorithm: sha256WithRSAEncryption
        Issuer: C=US, ST=California, L=Mountain View, O=Test CA, CN=Test Root CA
        Validity
            Not Before: Jun  1 00:00:00 2019 GMT
            Not After : Aug 30 00:00:00 2019 GMT
        Subject: CN=test.example.org, O=Test, C=US
        Subject Public Key Info:
            Public Key Algorithm: id-ecPublicKey
                Public-Key: (256 bit)
                pub:
                    04:d4:3b:74:aa:81:60:29:42:ca:35:ea:c8:e9:3e:
                    48:2b:5b:85:8c:3e:aa:18:65:7b:6f:72:88:48:2d:
                    64:f7:de:97:f7:9c:02:49:e4:01:a4:3c:33:78:09:
                    0c:a6:b8:65:17:6d:7b:bb:af:30:80:69:64:b7:8c:
                    fe:b6:42:fc:9d
                ASN1 OID: prime256v1
                NIST CURVE: P-256
    Signature Algorithm: sha256WithRSAEncryption
    Signature Value:
        01:8c:44:d8:dd:ce:88:5b:63:2e:72:28:ae:05:ff:c3:54:b6:
        63:bb:2c:14:ac:b3:6c:c5:86:e8:06:f6:bb:78:35:b2:1e:62:
        64:29:99:bc:51:fd:1a:e2:51:1a:f5:3b:aa:04:e2:93:47:6c:
        da:08:3f:09:8b:14:ee:6b:bd:5e:48:cf:9e:60:af:a6:42:c1:
        2a:16:91:f5:1d:f8:fe:b4:08:4f:86:d7:bd:ad:cb:b3:c5:90:
        f8:db:a3:9c:2b:fd:ee:75:d5:ca:c9:a4:45:14:31:07:c0:f6:
        cf:75:1b:f3:60:0b:f9:d0:56:46:4a:dd:55:bc:a4:7a:76:6f:
        a4:70:07:68:b6:83:d7:ae:98:29:6c:5f:19:7a:0d:fb:f7:89:
        d9:28:ee:63:99:57:f7:a3:2e:00:ef:cd:a0:8e:8f:5d:5c:c4:
        55:fc:f3:46:c4:1d:72:40:fd:8b:89:f1:2d:97:71:b4:26:6f:
        3f:7f:3d:d1:0c:4c:2d:f4:9c:e0:ee:dc:a4:c9:6b:e7:33:bb:
        09:71:c7:c0:40:6b:d7:6d:85:fd:cb:6e:18:cd:03:34:9a:6a:
        af:21:48:26:09:e1:ae:34:2e:3d:cc:49:a1:1d:77:e0:2b:f4:
        e2:3d:cf:c4:17:75:10:13:19:b3:51:bc:ff:7f:e5:84:82:0f:
        ed:c0:93:6e
-----BEGIN CERTIFICATE-----
MIICQzCCASsCAQMwDQYJKoZIhvcNAQELBQAwYzELMAkGA1UEBhMCVVMxEzARBgNV
BAgMCkNhbGlmb3JuaWExFjAUBgNVBAcMDU1vdW50YWluIFZpZXcxEDAOBgNVBAoM
B1Rlc3QgQ0ExFTATBgNVBAMMDFRlc3QgUm9vdCBDQTAeFw0xOTA2MDEwMDAwMDBa
Fw0xOTA4MzAwMDAwMDBaMDcxGTAXBgNVBAMMEHRlc3QuZXhhbXBsZS5vcmcxDTAL
BgNVBAoMBFRlc3QxCzAJBgNVBAYTAlVTMFkwEwYHKoZIzj0CAQYIKoZIzj0DAQcD
QgAE1Dt0qoFgKULKNerI6T5IK1uFjD6qGGV7b3KISC1k996X95wCSeQBpDwzeAkM
prhlF217u68wgGlkt4z+tkL8nTANBgkqhkiG9w0BAQsFAAOCAQEAAYxE2N3OiFtj
LnIorgX/w1S2Y7ssFKyzbMWG6Ab2u3g1sh5iZCmZvFH9GuJRGvU7qgTik0ds2gg/
CYsU7mu9XkjPnmCvpkLBKhaR9R34/rQIT4bXva3Ls8WQ+NujnCv97nXVysmkRRQx
B8D2z3Ub82AL+dBWRkrdVbykenZvpHAHaLaD166YKWxfGXoN+/eJ2SjuY5lX96Mu
AO/NoI6PXVzEVfzzRsQdckD9i4nxLZdxtCZvP3890QxMLfSc4O7cpMlr5zO7CXHH
wEBr122F/ctuGM0DNJpqryFIJgnhrjQuPcxJoR134Cv04j3PxBd1EBMZs1G8/3/l
hIIP7cCTbg==
-----END CERTIFICATE-----
