Certificate:
    Data:
        Version: 3 (0x2)
        Serial Number: 5 (0x5)
        Signature Algorithm: sha256WithRSAEncryption
        Issuer: C=US, ST=California, L=Mountain View, O=Test CA, CN=Test Root CA
        Validity
            Not Before: Mar 18 06:03:47 2024 GMT
            Not After : Jun 21 06:03:47 2026 GMT
        Subject: CN=test.example.org, O=Test, C=US
        Subject Public Key Info:
            Public Key Algorithm: id-ecPublicKey
                Public-Key: (256 bit)
                pub:
                    04:d4:3b:74:aa:81:60:29:42:ca:35:ea:c8:e9:3e:
                    48:2b:5b:85:8c:3e:aa:18:65:7b:6f:72:88:48:2d:
                    64:f7:de:97:f7:9c:02:49:e4:01:a4:3c:33:78:09:
                    0c:a6:b8:65:17:6d:7b:bb:af:30:80:69:64:b7:8c:
                    fe:b6:42:fc:9d
                ASN1 OID: prime256v1
                NIST CURVE: P-256
        X509v3 extensions:
            X509v3 Basic Constraints: 
                CA:FALSE
            1.3.6.1.4.1.11129.2.1.22: 
                ..
            X509v3 Key Usage: 
                Digital Signature, Non Repudiation, Key Encipherment
            X509v3 Extended Key Usage: 
                TLS Web Server Authentication
            X509v3 Subject Key Identifier: 
                C9:50:C2:2B:03:C3:11:69:26:AD:DF:E7:82:A0:43:65:91:01:D8:F7
            X509v3 Authority Key Identifier: 
                9B:26:0B:8A:98:A9:BB:1D:B9:1F:1C:E3:1A:40:33:ED:8E:17:88:AB
            X509v3 Subject Alternative Name: 
                DNS:test.example.org
    Signature Algorithm: sha256WithRSAEncryption
    Signature Value:
        81:ef:14:01:42:43:7c:f4:ca:32:91:eb:15:85:18:3e:9d:13:
        2f:9d:23:e3:2b:26:92:fc:0c:f8:d4:9b:77:e1:cf:b0:7a:95:
        cc:2e:17:ef:ff:02:ce:fa:8c:59:08:79:e0:9c:ed:58:bf:e6:
        58:08:a3:a3:f2:51:f5:7a:36:e5:b6:f5:2c:29:e7:c3:68:8f:
        47:a8:bc:08:1d:01:55:e3:cb:12:dd:f9:de:81:9c:90:3b:81:
        1a:00:7b:52:76:80:c7:d3:ad:56:87:d1:01:21:dd:1e:a5:63:
        6b:ff:d2:0c:ac:4b:86:07:38:29:9e:21:2a:43:d3:a2:35:19:
        7e:e5:6c:9e:d6:e3:1c:a1:35:1e:cf:54:b1:7d:a0:31:54:6f:
        be:ef:91:c5:33:2a:04:73:33:5f:a9:2d:18:63:22:b2:3d:3a:
        42:fd:c6:1e:03:ec:f7:e5:d6:8c:7d:4d:f9:ce:c9:3b:f3:3f:
        a8:16:6b:56:c2:9c:36:67:71:9c:36:8e:c8:97:d7:77:83:b6:
        de:0e:d8:18:35:c9:c5:7a:fa:d4:0d:6f:bc:e3:68:b1:3d:14:
        04:30:95:db:31:2e:d1:1e:e2:a8:c9:16:1d:85:24:7b:fa:aa:
        32:87:79:cc:44:28:ef:9f:bd:f3:1d:2a:ac:dd:5c:ee:32:cf:
        87:98:54:33
-----BEGIN CERTIFICATE-----
MIIC6jCCAdKgAwIBAgIBBTANBgkqhkiG9w0BAQsFADBjMQswCQYDVQQGEwJVUzET
MBEGA1UECAwKQ2FsaWZvcm5pYTEWMBQGA1UEBwwNTW91bnRhaW4gVmlldzEQMA4G
A1UECgwHVGVzdCBDQTEVMBMGA1UEAwwMVGVzdCBSb290IENBMB4XDTI0MDMxODA2
MDM0N1oXDTI2MDYyMTA2MDM0N1owNzEZMBcGA1UEAwwQdGVzdC5leGFtcGxlLm9y
ZzENMAsGA1UECgwEVGVzdDELMAkGA1UEBhMCVVMwWTATBgcqhkjOPQIBBggqhkjO
PQMBBwNCAATUO3SqgWApQso16sjpPkgrW4WMPqoYZXtvcohILWT33pf3nAJJ5AGk
PDN4CQymuGUXbXu7rzCAaWS3jP62Qvydo4GfMIGcMAkGA1UdEwQCMAAwEAYKKwYB
BAHWeQIBFgQCBQAwCwYDVR0PBAQDAgXgMBMGA1UdJQQMMAoGCCsGAQUFBwMBMB0G
A1UdDgQWBBTJUMIrA8MRaSat3+eCoENlkQHY9zAfBgNVHSMEGDAWgBSbJguKmKm7
HbkfHOMaQDPtjheIqzAbBgNVHREEFDASghB0ZXN0LmV4YW1wbGUub3JnMA0GCSqG
SIb3DQEBCwUAA4IBAQCB7xQBQkN89MoykesVhRg+nRMvnSPjKyaS/Az41Jt34c+w
epXMLhfv/wLO+oxZCHngnO1Yv+ZYCKOj8lH1ejbltvUsKefDaI9HqLwIHQFV48sS
3fnegZyQO4EaAHtSdoDH061Wh9EBId0epWNr/9IMrEuGBzgpniEqQ9OiNRl+5Wye
1uMcoTUez1SxfaAxVG++75HFMyoEczNfqS0YYyKyPTpC/cYeA+z35daMfU35zsk7
8z+oFmtWwpw2Z3GcNo7Il9d3g7beDtgYNcnFevrUDW+842ixPRQEMJXbMS7RHuKo
yRYdhSR7+qoyh3nMRCjvn73zHSqs3VzuMs+HmFQz
-----END CERTIFICATE-----
