Certificate:
    Data:
        Version: 3 (0x2)
        Serial Number: 2 (0x2)
        Signature Algorithm: sha256WithRSAEncryption
        Issuer: C=US, ST=California, L=Mountain View, O=Test CA, CN=Test Root CA
        Validity
            Not Before: Jun  1 00:00:00 2019 GMT
            Not After : Aug 30 00:00:00 2019 GMT
        Subject: CN=google-com.example.org, O=Test, C=US
        Subject Public Key Info:
            Public Key Algorithm: id-ecPublicKey
                Public-Key: (256 bit)
                pub:
                    04:d4:3b:74:aa:81:60:29:42:ca:35:ea:c8:e9:3e:
                    48:2b:5b:85:8c:3e:aa:18:65:7b:6f:72:88:48:2d:
                    64:f7:de:97:f7:9c:02:49:e4:01:a4:3c:33:78:09:
                    0c:a6:b8:65:17:6d:7b:bb:af:30:80:69:64:b7:8c:
                    fe:b6:42:fc:9d
                ASN1 OID: prime256v1
                NIST CURVE: P-256
        X509v3 extensions:
            X509v3 Basic Constraints: 
                CA:FALSE
            1.3.6.1.4.1.11129.2.1.22: 
                ..
            X509v3 Key Usage: 
                Digital Signature, Non Repudiation, Key Encipherment
            X509v3 Extended Key Usage: 
                TLS Web Server Authentication
            X509v3 Subject Key Identifier: 
                C9:50:C2:2B:03:C3:11:69:26:AD:DF:E7:82:A0:43:65:91:01:D8:F7
            X509v3 Authority Key Identifier: 
                9B:26:0B:8A:98:A9:BB:1D:B9:1F:1C:E3:1A:40:33:ED:8E:17:88:AB
            X509v3 Subject Alternative Name: 
                DNS:google-com.example.org
    Signature Algorithm: sha256WithRSAEncryption
    Signature Value:
        71:10:dc:b8:b6:b8:b4:76:78:c1:b0:fb:73:05:69:b6:d6:14:
        42:0f:12:73:52:d2:5b:16:c5:3a:55:78:97:65:40:9d:7d:3c:
        ae:76:91:88:64:33:93:0e:dd:fe:91:fd:9b:32:de:0a:6a:26:
        58:6f:23:7a:2a:c9:59:58:7c:8b:a6:f0:7f:09:1a:d7:c0:ce:
        6a:2e:e6:ed:d3:26:92:fd:d8:ef:c2:16:2d:77:81:8d:35:be:
        f7:6e:d3:c6:24:7b:bb:54:4d:cd:41:c2:3f:0c:4c:fe:ef:01:
        57:61:b9:05:00:05:18:27:8c:71:bd:a4:c0:8a:c5:0d:c8:45:
        51:b1:e3:e2:34:b2:83:61:36:16:bf:8c:02:e0:34:94:bc:a1:
        f7:88:27:a7:ed:35:12:0e:c3:3f:39:1c:2f:dd:fd:65:88:58:
        b0:b0:d5:45:20:f1:88:f8:45:ca:e7:bd:9e:6f:96:2d:be:1e:
        09:0e:16:55:3d:4d:0e:61:d9:67:ee:7b:f7:24:d9:cf:68:c0:
        b0:c0:9f:ec:02:74:11:16:48:06:12:40:fc:92:be:8f:fc:91:
        da:a8:c4:c4:b2:1e:f4:18:5f:76:fd:a3:14:ea:1c:eb:27:17:
        4b:c8:1b:9c:c5:20:45:b1:02:c6:c4:1e:76:51:b0:96:e2:6c:
        17:a4:c5:b2
-----BEGIN CERTIFICATE-----
MIIC9jCCAd6gAwIBAgIBAjANBgkqhkiG9w0BAQsFADBjMQswCQYDVQQGEwJVUzET
MBEGA1UECAwKQ2FsaWZvcm5pYTEWMBQGA1UEBwwNTW91bnRhaW4gVmlldzEQMA4G
A1UECgwHVGVzdCBDQTEVMBMGA1UEAwwMVGVzdCBSb290IENBMB4XDTE5MDYwMTAw
MDAwMFoXDTE5MDgzMDAwMDAwMFowPTEfMB0GA1UEAwwWZ29vZ2xlLWNvbS5leGFt
cGxlLm9yZzENMAsGA1UECgwEVGVzdDELMAkGA1UEBhMCVVMwWTATBgcqhkjOPQIB
BggqhkjOPQMBBwNCAATUO3SqgWApQso16sjpPkgrW4WMPqoYZXtvcohILWT33pf3
nAJJ5AGkPDN4CQymuGUXbXu7rzCAaWS3jP62Qvydo4GlMIGiMAkGA1UdEwQCMAAw
EAYKKwYBBAHWeQIBFgQCBQAwCwYDVR0PBAQDAgXgMBMGA1UdJQQMMAoGCCsGAQUF
BwMBMB0GA1UdDgQWBBTJUMIrA8MRaSat3+eCoENlkQHY9zAfBgNVHSMEGDAWgBSb
JguKmKm7HbkfHOMaQDPtjheIqzAhBgNVHREEGjAYghZnb29nbGUtY29tLmV4YW1w
bGUub3JnMA0GCSqGSIb3DQEBCwUAA4IBAQBxENy4tri0dnjBsPtzBWm21hRCDxJz
UtJbFsU6VXiXZUCdfTyudpGIZDOTDt3+kf2bMt4KaiZYbyN6KslZWHyLpvB/CRrX
wM5qLubt0yaS/djvwhYtd4GNNb73btPGJHu7VE3NQcI/DEz+7wFXYbkFAAUYJ4xx
vaTAisUNyEVRsePiNLKDYTYWv4wC4DSUvKH3iCen7TUSDsM/ORwv3f1liFiwsNVF
IPGI+EXK572eb5Ytvh4JDhZVPU0OYdln7nv3JNnPaMCwwJ/sAnQRFkgGEkD8kr6P
/JHaqMTEsh70GF92/aMU6hzrJxdLyBucxSBFsQLGxB52UbCW4mwXpMWy
-----END CERTIFICATE-----
