Certificate:
    Data:
        Version: 3 (0x2)
        Serial Number: 3 (0x3)
        Signature Algorithm: sha256WithRSAEncryption
        Issuer: C=US, ST=California, L=Mountain View, O=Test CA, CN=Test Root CA
        Validity
            Not Before: May  1 00:00:00 2019 GMT
            Not After : Jul 31 00:00:00 2019 GMT
        Subject: CN=test.example.org, O=Test, C=US
        Subject Public Key Info:
            Public Key Algorithm: id-ecPublicKey
                Public-Key: (256 bit)
                pub:
                    04:56:24:49:7a:0a:a9:df:1a:0a:07:e3:ad:2a:23:
                    6d:e9:33:25:68:5a:96:33:03:95:13:26:d9:44:ff:
                    a8:59:16:6d:b6:7d:50:74:6e:d9:f7:9d:48:b2:61:
                    ba:f8:6a:1e:fe:c6:1b:83:09:7f:84:9a:56:4f:68:
                    a8:3e:28:d1:10
                ASN1 OID: prime256v1
                NIST CURVE: P-256
        X509v3 extensions:
            X509v3 Basic Constraints: 
                CA:FALSE
            1.3.6.1.4.1.11129.2.1.22: 
                ..
            X509v3 Key Usage: 
                Digital Signature, Non Repudiation, Key Encipherment
            X509v3 Extended Key Usage: 
                TLS Web Server Authentication
            X509v3 Subject Key Identifier: 
                81:00:BA:FD:50:89:3A:F4:C7:7E:72:35:0A:53:4B:64:5F:02:02:7D
            X509v3 Authority Key Identifier: 
                keyid:9B:26:0B:8A:98:A9:BB:1D:B9:1F:1C:E3:1A:40:33:ED:8E:17:88:AB

            X509v3 Subject Alternative Name: 
                DNS:test.example.org
    Signature Algorithm: sha256WithRSAEncryption
         6d:d8:47:dd:13:c8:7f:06:db:71:a1:ca:d3:ca:48:b7:16:8b:
         b3:b8:c5:d0:73:16:d8:e2:ba:9e:fb:89:da:1a:21:f7:8c:46:
         30:e7:26:21:94:7e:53:d7:04:0b:95:fa:df:4a:65:85:5e:bb:
         80:43:03:62:71:3c:f7:7f:aa:06:da:7c:c7:0c:14:bf:92:7e:
         b4:d0:0b:81:2d:de:2a:a9:99:40:e3:86:da:ee:4b:61:0c:81:
         75:67:da:55:8e:4b:38:00:60:17:b0:9b:1a:d9:a2:74:8f:ac:
         e8:4d:24:7c:91:ae:41:50:7a:27:e6:da:5f:92:57:6f:9b:3a:
         ca:cd:5c:ec:55:f4:50:c9:13:c2:f3:0a:4f:53:8e:32:2b:7f:
         0e:c9:f1:bb:7b:f0:74:e0:96:d4:e1:de:4b:37:8c:f5:97:de:
         61:d2:b2:fe:77:97:fa:a2:f2:fb:d9:26:da:6b:cd:f3:68:1a:
         d0:1d:24:aa:e9:e1:32:71:3a:41:fb:00:27:03:23:5b:25:6f:
         19:bd:27:42:bb:ba:34:4e:9d:19:dc:65:e9:79:67:71:fa:28:
         d7:97:a4:f1:5a:96:42:f9:5f:07:df:95:26:43:ff:25:62:43:
         9b:c7:a2:04:7e:d6:87:a8:a5:b7:1c:e7:0a:aa:19:b5:fe:2f:
         c0:1e:55:cc
-----BEGIN CERTIFICATE-----
MIIC6jCCAdKgAwIBAgIBAzANBgkqhkiG9w0BAQsFADBjMQswCQYDVQQGEwJVUzET
MBEGA1UECAwKQ2FsaWZvcm5pYTEWMBQGA1UEBwwNTW91bnRhaW4gVmlldzEQMA4G
A1UECgwHVGVzdCBDQTEVMBMGA1UEAwwMVGVzdCBSb290IENBMB4XDTE5MDUwMTAw
MDAwMFoXDTE5MDczMTAwMDAwMFowNzEZMBcGA1UEAwwQdGVzdC5leGFtcGxlLm9y
ZzENMAsGA1UECgwEVGVzdDELMAkGA1UEBhMCVVMwWTATBgcqhkjOPQIBBggqhkjO
PQMBBwNCAARWJEl6CqnfGgoH460qI23pMyVoWpYzA5UTJtlE/6hZFm22fVB0btn3
nUiyYbr4ah7+xhuDCX+EmlZPaKg+KNEQo4GfMIGcMAkGA1UdEwQCMAAwEAYKKwYB
BAHWeQIBFgQCBQAwCwYDVR0PBAQDAgXgMBMGA1UdJQQMMAoGCCsGAQUFBwMBMB0G
A1UdDgQWBBSBALr9UIk69Md+cjUKU0tkXwICfTAfBgNVHSMEGDAWgBSbJguKmKm7
HbkfHOMaQDPtjheIqzAbBgNVHREEFDASghB0ZXN0LmV4YW1wbGUub3JnMA0GCSqG
SIb3DQEBCwUAA4IBAQBt2EfdE8h/BttxocrTyki3FouzuMXQcxbY4rqe+4naGiH3
jEYw5yYhlH5T1wQLlfrfSmWFXruAQwNicTz3f6oG2nzHDBS/kn600AuBLd4qqZlA
44ba7kthDIF1Z9pVjks4AGAXsJsa2aJ0j6zoTSR8ka5BUHon5tpfkldvmzrKzVzs
VfRQyRPC8wpPU44yK38OyfG7e/B04JbU4d5LN4z1l95h0rL+d5f6ovL72Sbaa83z
aBrQHSSq6eEycTpB+wAnAyNbJW8ZvSdCu7o0Tp0Z3GXpeWdx+ijXl6TxWpZC+V8H
35UmQ/8lYkObx6IEftaHqKW3HOcKqhm1/i/AHlXM
-----END CERTIFICATE-----
