Certificate:
    Data:
        Version: 3 (0x2)
        Serial Number: 1 (0x1)
        Signature Algorithm: sha256WithRSAEncryption
        Issuer: C=US, ST=California, L=Mountain View, O=Test CA, CN=Test Root CA
        Validity
            Not Before: Jun  1 00:00:00 2019 GMT
            Not After : Aug 30 00:00:00 2019 GMT
        Subject: CN=test.example.org, O=Test, C=US
        Subject Public Key Info:
            Public Key Algorithm: id-ecPublicKey
                Public-Key: (256 bit)
                pub:
                    04:56:24:49:7a:0a:a9:df:1a:0a:07:e3:ad:2a:23:
                    6d:e9:33:25:68:5a:96:33:03:95:13:26:d9:44:ff:
                    a8:59:16:6d:b6:7d:50:74:6e:d9:f7:9d:48:b2:61:
                    ba:f8:6a:1e:fe:c6:1b:83:09:7f:84:9a:56:4f:68:
                    a8:3e:28:d1:10
                ASN1 OID: prime256v1
                NIST CURVE: P-256
        X509v3 extensions:
            X509v3 Basic Constraints: 
                CA:FALSE
            1.3.6.1.4.1.11129.2.1.22: 
                ..
            X509v3 Key Usage: 
                Digital Signature, Non Repudiation, Key Encipherment
            X509v3 Extended Key Usage: 
                TLS Web Server Authentication
            X509v3 Subject Key Identifier: 
                81:00:BA:FD:50:89:3A:F4:C7:7E:72:35:0A:53:4B:64:5F:02:02:7D
            X509v3 Authority Key Identifier: 
                keyid:9B:26:0B:8A:98:A9:BB:1D:B9:1F:1C:E3:1A:40:33:ED:8E:17:88:AB

            X509v3 Subject Alternative Name: 
                DNS:test.example.org
    Signature Algorithm: sha256WithRSAEncryption
         1e:dd:53:10:3d:08:8a:b7:38:63:3a:67:2c:62:f9:70:65:dd:
         7d:67:7c:40:8e:ff:aa:3a:2c:75:69:87:3e:f7:3d:9d:99:4f:
         df:85:3b:10:54:44:2d:f5:3d:bf:ff:3a:8d:49:ba:08:cb:3e:
         10:ba:9f:4f:05:a0:68:ab:75:78:84:c7:0a:b6:f2:e2:d5:82:
         a7:eb:87:7c:14:07:4f:68:cb:24:f8:9d:34:cc:56:be:6b:56:
         44:0a:eb:cf:f4:35:27:32:cf:3a:6e:37:9b:8c:fb:fe:4f:d2:
         37:74:86:e8:93:a8:27:51:e1:f3:87:f2:4f:b7:c9:d8:0e:f0:
         7d:53:3f:cb:34:9e:5c:6e:84:bc:65:fb:74:a0:80:d1:ea:c4:
         2a:c3:d5:a4:e2:b0:8d:ca:c1:6c:a3:34:f8:5a:33:de:a9:e0:
         a8:a5:3d:6b:72:e4:52:4b:f9:bd:42:74:c6:47:54:80:67:81:
         36:ee:f1:ff:2a:bf:da:f3:a6:dc:12:f7:b9:41:72:4a:aa:14:
         9b:f5:d5:b5:b8:e4:73:37:03:97:55:0a:c5:89:f6:c5:d2:0c:
         7f:fc:de:4e:f6:fd:dd:8f:27:52:c8:57:b4:f1:cf:57:45:23:
         b9:45:38:ee:92:61:56:16:82:da:41:5e:70:f2:3b:2e:38:f8:
         ee:a9:ce:fe
-----BEGIN CERTIFICATE-----
MIIC6jCCAdKgAwIBAgIBATANBgkqhkiG9w0BAQsFADBjMQswCQYDVQQGEwJVUzET
MBEGA1UECAwKQ2FsaWZvcm5pYTEWMBQGA1UEBwwNTW91bnRhaW4gVmlldzEQMA4G
A1UECgwHVGVzdCBDQTEVMBMGA1UEAwwMVGVzdCBSb290IENBMB4XDTE5MDYwMTAw
MDAwMFoXDTE5MDgzMDAwMDAwMFowNzEZMBcGA1UEAwwQdGVzdC5leGFtcGxlLm9y
ZzENMAsGA1UECgwEVGVzdDELMAkGA1UEBhMCVVMwWTATBgcqhkjOPQIBBggqhkjO
PQMBBwNCAARWJEl6CqnfGgoH460qI23pMyVoWpYzA5UTJtlE/6hZFm22fVB0btn3
nUiyYbr4ah7+xhuDCX+EmlZPaKg+KNEQo4GfMIGcMAkGA1UdEwQCMAAwEAYKKwYB
BAHWeQIBFgQCBQAwCwYDVR0PBAQDAgXgMBMGA1UdJQQMMAoGCCsGAQUFBwMBMB0G
A1UdDgQWBBSBALr9UIk69Md+cjUKU0tkXwICfTAfBgNVHSMEGDAWgBSbJguKmKm7
HbkfHOMaQDPtjheIqzAbBgNVHREEFDASghB0ZXN0LmV4YW1wbGUub3JnMA0GCSqG
SIb3DQEBCwUAA4IBAQAe3VMQPQiKtzhjOmcsYvlwZd19Z3xAjv+qOix1aYc+9z2d
mU/fhTsQVEQt9T2//zqNSboIyz4Qup9PBaBoq3V4hMcKtvLi1YKn64d8FAdPaMsk
+J00zFa+a1ZECuvP9DUnMs86bjebjPv+T9I3dIbok6gnUeHzh/JPt8nYDvB9Uz/L
NJ5cboS8Zft0oIDR6sQqw9Wk4rCNysFsozT4WjPeqeCopT1rcuRSS/m9QnTGR1SA
Z4E27vH/Kr/a86bcEve5QXJKqhSb9dW1uORzNwOXVQrFifbF0gx//N5O9v3djydS
yFe08c9XRSO5RTjukmFWFoLaQV5w8jsuOPjuqc7+
-----END CERTIFICATE-----
