Certificate:
    Data:
        Version: 3 (0x2)
        Serial Number: 4 (0x4)
        Signature Algorithm: sha256WithRSAEncryption
        Issuer: C=US, ST=California, L=Mountain View, O=Test CA, CN=Test Root CA
        Validity
            Not Before: Sep 10 17:30:38 2019 GMT
            Not After : Dec 13 17:30:38 2021 GMT
        Subject: CN=test.example.org, O=Test, C=US
        Subject Public Key Info:
            Public Key Algorithm: id-ecPublicKey
                Public-Key: (256 bit)
                pub:
                    04:56:24:49:7a:0a:a9:df:1a:0a:07:e3:ad:2a:23:
                    6d:e9:33:25:68:5a:96:33:03:95:13:26:d9:44:ff:
                    a8:59:16:6d:b6:7d:50:74:6e:d9:f7:9d:48:b2:61:
                    ba:f8:6a:1e:fe:c6:1b:83:09:7f:84:9a:56:4f:68:
                    a8:3e:28:d1:10
                ASN1 OID: prime256v1
                NIST CURVE: P-256
        X509v3 extensions:
            X509v3 Basic Constraints: 
                CA:FALSE
            1.3.6.1.4.1.11129.2.1.22: 
                ..
            X509v3 Key Usage: 
                Digital Signature, Non Repudiation, Key Encipherment
            X509v3 Extended Key Usage: 
                TLS Web Server Authentication
            X509v3 Subject Key Identifier: 
                81:00:BA:FD:50:89:3A:F4:C7:7E:72:35:0A:53:4B:64:5F:02:02:7D
            X509v3 Authority Key Identifier: 
                keyid:9B:26:0B:8A:98:A9:BB:1D:B9:1F:1C:E3:1A:40:33:ED:8E:17:88:AB

            X509v3 Subject Alternative Name: 
                DNS:test.example.org
    Signature Algorithm: sha256WithRSAEncryption
         aa:c6:30:cf:6a:28:59:5a:ab:ab:f4:ad:e4:31:5c:e4:e0:95:
         9e:43:92:84:73:bb:18:f7:f9:f6:ef:ec:d2:68:01:7b:d2:87:
         0d:30:7d:13:8b:fa:42:6b:1e:ec:b7:df:a1:9a:b6:ad:23:8d:
         34:74:a6:a4:e3:0c:5f:eb:7a:12:c6:e7:fd:81:5f:40:29:1a:
         5b:00:9c:35:b5:5a:47:29:1f:7a:4b:a9:95:3c:01:b0:cc:0e:
         9d:c5:74:b5:e3:17:d5:ac:4b:86:ab:37:ba:0c:ff:6e:87:d9:
         8c:eb:45:83:01:63:04:08:eb:9b:cb:23:8f:ce:12:79:71:e4:
         64:8c:63:14:17:2d:30:e1:fa:1b:63:89:33:f6:35:96:09:8a:
         5b:21:c3:c8:40:d8:be:95:a7:13:29:fb:da:96:83:e3:0f:b2:
         ee:8b:39:05:2d:0b:34:31:e0:e7:e2:b2:e7:76:c8:79:a1:0d:
         68:72:82:20:ab:ea:6a:5e:2b:9d:a9:0e:52:be:1e:6f:ba:e0:
         dd:3b:24:d2:d8:9a:8f:f8:71:81:14:ab:e4:71:8a:20:f9:f0:
         66:ad:dd:da:a9:bf:83:ad:49:3c:13:84:05:d1:b8:1b:23:5e:
         e4:e1:1b:65:9e:da:49:1b:1d:0e:b2:ba:03:25:ca:21:6b:32:
         a5:7e:49:85
-----BEGIN CERTIFICATE-----
MIIC6jCCAdKgAwIBAgIBBDANBgkqhkiG9w0BAQsFADBjMQswCQYDVQQGEwJVUzET
MBEGA1UECAwKQ2FsaWZvcm5pYTEWMBQGA1UEBwwNTW91bnRhaW4gVmlldzEQMA4G
A1UECgwHVGVzdCBDQTEVMBMGA1UEAwwMVGVzdCBSb290IENBMB4XDTE5MDkxMDE3
MzAzOFoXDTIxMTIxMzE3MzAzOFowNzEZMBcGA1UEAwwQdGVzdC5leGFtcGxlLm9y
ZzENMAsGA1UECgwEVGVzdDELMAkGA1UEBhMCVVMwWTATBgcqhkjOPQIBBggqhkjO
PQMBBwNCAARWJEl6CqnfGgoH460qI23pMyVoWpYzA5UTJtlE/6hZFm22fVB0btn3
nUiyYbr4ah7+xhuDCX+EmlZPaKg+KNEQo4GfMIGcMAkGA1UdEwQCMAAwEAYKKwYB
BAHWeQIBFgQCBQAwCwYDVR0PBAQDAgXgMBMGA1UdJQQMMAoGCCsGAQUFBwMBMB0G
A1UdDgQWBBSBALr9UIk69Md+cjUKU0tkXwICfTAfBgNVHSMEGDAWgBSbJguKmKm7
HbkfHOMaQDPtjheIqzAbBgNVHREEFDASghB0ZXN0LmV4YW1wbGUub3JnMA0GCSqG
SIb3DQEBCwUAA4IBAQCqxjDPaihZWqur9K3kMVzk4JWeQ5KEc7sY9/n27+zSaAF7
0ocNMH0Ti/pCax7st9+hmratI400dKak4wxf63oSxuf9gV9AKRpbAJw1tVpHKR96
S6mVPAGwzA6dxXS14xfVrEuGqze6DP9uh9mM60WDAWMECOubyyOPzhJ5ceRkjGMU
Fy0w4fobY4kz9jWWCYpbIcPIQNi+lacTKfvaloPjD7LuizkFLQs0MeDn4rLndsh5
oQ1ocoIgq+pqXiudqQ5Svh5vuuDdOyTS2JqP+HGBFKvkcYog+fBmrd3aqb+DrUk8
E4QF0bgbI17k4RtlntpJGx0OsroDJcohazKlfkmF
-----END CERTIFICATE-----
