Certificate:
    Data:
        Version: 3 (0x2)
        Serial Number: 5 (0x5)
    Signature Algorithm: sha256WithRSAEncryption
        Issuer: C=US, ST=California, L=Mountain View, O=Test CA, CN=Test Root CA
        Validity
            Not Before: Dec 14 01:43:48 2021 GMT
            Not After : Mar 18 01:43:48 2024 GMT
        Subject: CN=test.example.org, O=Test, C=US
        Subject Public Key Info:
            Public Key Algorithm: id-ecPublicKey
                Public-Key: (256 bit)
                pub: 
                    04:56:24:49:7a:0a:a9:df:1a:0a:07:e3:ad:2a:23:
                    6d:e9:33:25:68:5a:96:33:03:95:13:26:d9:44:ff:
                    a8:59:16:6d:b6:7d:50:74:6e:d9:f7:9d:48:b2:61:
                    ba:f8:6a:1e:fe:c6:1b:83:09:7f:84:9a:56:4f:68:
                    a8:3e:28:d1:10
                ASN1 OID: prime256v1
                NIST CURVE: P-256
        X509v3 extensions:
            X509v3 Basic Constraints: 
                CA:FALSE
            1.3.6.1.4.1.11129.2.1.22: 
                ..
            X509v3 Key Usage: 
                Digital Signature, Non Repudiation, Key Encipherment
            X509v3 Extended Key Usage: 
                TLS Web Server Authentication
            X509v3 Subject Key Identifier: 
                81:00:BA:FD:50:89:3A:F4:C7:7E:72:35:0A:53:4B:64:5F:02:02:7D
            X509v3 Authority Key Identifier: 
                keyid:9B:26:0B:8A:98:A9:BB:1D:B9:1F:1C:E3:1A:40:33:ED:8E:17:88:AB

            X509v3 Subject Alternative Name: 
                DNS:test.example.org
    Signature Algorithm: sha256WithRSAEncryption
         b8:3e:97:bc:c4:0a:2c:78:29:9e:96:47:2f:18:04:25:00:61:
         4d:b5:28:ea:19:0b:a8:c6:17:ef:fb:81:7d:8e:08:c5:74:16:
         f0:53:5b:30:ad:29:78:ea:5a:c4:5b:34:c5:f9:3b:92:83:18:
         84:7f:62:4c:88:ff:46:23:39:82:ec:a2:ad:c8:b8:8b:a1:9a:
         b5:0d:23:82:72:78:26:25:59:20:a8:9a:9d:8d:2d:5f:c8:38:
         46:87:eb:a2:1c:a9:07:d1:8a:72:73:5d:34:87:31:07:21:20:
         a1:80:27:ba:f3:29:97:35:89:ca:65:fb:d3:ce:9a:6c:42:30:
         9f:3d:37:72:f7:d5:f8:18:1f:5a:69:eb:fa:14:75:75:1a:45:
         b8:d6:94:be:5b:b1:4a:8e:a8:b4:e3:00:fb:ab:94:70:e5:7b:
         ec:ed:74:50:98:3d:be:6f:32:f1:c0:f0:ef:c8:e2:61:c7:c6:
         7e:85:93:fd:f7:b4:e0:69:de:4c:43:7c:31:5a:6d:06:e1:d4:
         70:fc:03:62:73:5d:db:f1:d3:b2:20:d7:13:20:de:93:0c:21:
         d8:0b:00:eb:ae:48:45:a6:77:c3:74:9b:96:55:df:18:1a:40:
         0c:26:85:26:58:a6:44:75:58:ed:4b:5d:98:5b:ec:21:98:92:
         99:2f:d2:16
-----BEGIN CERTIFICATE-----
MIIC6jCCAdKgAwIBAgIBBTANBgkqhkiG9w0BAQsFADBjMQswCQYDVQQGEwJVUzET
MBEGA1UECAwKQ2FsaWZvcm5pYTEWMBQGA1UEBwwNTW91bnRhaW4gVmlldzEQMA4G
A1UECgwHVGVzdCBDQTEVMBMGA1UEAwwMVGVzdCBSb290IENBMB4XDTIxMTIxNDAx
NDM0OFoXDTI0MDMxODAxNDM0OFowNzEZMBcGA1UEAwwQdGVzdC5leGFtcGxlLm9y
ZzENMAsGA1UECgwEVGVzdDELMAkGA1UEBhMCVVMwWTATBgcqhkjOPQIBBggqhkjO
PQMBBwNCAARWJEl6CqnfGgoH460qI23pMyVoWpYzA5UTJtlE/6hZFm22fVB0btn3
nUiyYbr4ah7+xhuDCX+EmlZPaKg+KNEQo4GfMIGcMAkGA1UdEwQCMAAwEAYKKwYB
BAHWeQIBFgQCBQAwCwYDVR0PBAQDAgXgMBMGA1UdJQQMMAoGCCsGAQUFBwMBMB0G
A1UdDgQWBBSBALr9UIk69Md+cjUKU0tkXwICfTAfBgNVHSMEGDAWgBSbJguKmKm7
HbkfHOMaQDPtjheIqzAbBgNVHREEFDASghB0ZXN0LmV4YW1wbGUub3JnMA0GCSqG
SIb3DQEBCwUAA4IBAQC4Ppe8xAoseCmelkcvGAQlAGFNtSjqGQuoxhfv+4F9jgjF
dBbwU1swrSl46lrEWzTF+TuSgxiEf2JMiP9GIzmC7KKtyLiLoZq1DSOCcngmJVkg
qJqdjS1fyDhGh+uiHKkH0Ypyc100hzEHISChgCe68ymXNYnKZfvTzppsQjCfPTdy
99X4GB9aaev6FHV1GkW41pS+W7FKjqi04wD7q5Rw5Xvs7XRQmD2+bzLxwPDvyOJh
x8Z+hZP997Tgad5MQ3wxWm0G4dRw/ANic13b8dOyINcTIN6TDCHYCwDrrkhFpnfD
dJuWVd8YGkAMJoUmWKZEdVjtS12YW+whmJKZL9IW
-----END CERTIFICATE-----
