Certificate:
    Data:
        Version: 3 (0x2)
        Serial Number: 1 (0x1)
        Signature Algorithm: sha256WithRSAEncryption
        Issuer: C=US, ST=California, L=Mountain View, O=Test CA, CN=Test Root CA
        Validity
            Not Before: Jun  1 00:00:00 2019 GMT
            Not After : Aug 30 00:00:00 2019 GMT
        Subject: CN=test.example.org, O=Test, C=US
        Subject Public Key Info:
            Public Key Algorithm: id-ecPublicKey
                Public-Key: (256 bit)
                pub:
                    04:d4:3b:74:aa:81:60:29:42:ca:35:ea:c8:e9:3e:
                    48:2b:5b:85:8c:3e:aa:18:65:7b:6f:72:88:48:2d:
                    64:f7:de:97:f7:9c:02:49:e4:01:a4:3c:33:78:09:
                    0c:a6:b8:65:17:6d:7b:bb:af:30:80:69:64:b7:8c:
                    fe:b6:42:fc:9d
                ASN1 OID: prime256v1
                NIST CURVE: P-256
        X509v3 extensions:
            X509v3 Basic Constraints: 
                CA:FALSE
            1.3.6.1.4.1.11129.2.1.22: 
                ..
            X509v3 Key Usage: 
                Digital Signature, Non Repudiation, Key Encipherment
            X509v3 Extended Key Usage: 
                TLS Web Server Authentication
            X509v3 Subject Key Identifier: 
                C9:50:C2:2B:03:C3:11:69:26:AD:DF:E7:82:A0:43:65:91:01:D8:F7
            X509v3 Authority Key Identifier: 
                9B:26:0B:8A:98:A9:BB:1D:B9:1F:1C:E3:1A:40:33:ED:8E:17:88:AB
            X509v3 Subject Alternative Name: 
                DNS:test.example.org
    Signature Algorithm: sha256WithRSAEncryption
    Signature Value:
        81:e6:b3:2a:69:ba:29:39:df:a9:12:2c:86:b2:1a:8a:a7:2c:
        67:ab:53:77:35:2e:cf:bc:e4:b4:d8:6f:13:bb:54:26:a8:37:
        9d:74:83:f8:38:05:02:9e:87:bc:d8:6e:22:fe:cb:ad:9a:87:
        91:c7:e9:70:f5:f9:18:ec:78:43:b7:0d:12:de:e1:8a:85:cb:
        2f:49:4b:1f:7b:5c:d8:8f:54:86:15:f1:f5:7f:49:4b:7f:4d:
        b9:80:19:d5:6a:09:b4:e4:52:d0:e2:be:23:b9:12:56:1a:78:
        19:dc:14:1c:0c:31:75:36:d9:22:7c:54:72:44:13:b1:83:5a:
        02:a9:9b:dc:2d:de:60:67:92:19:25:b3:82:85:72:eb:5f:57:
        a9:d7:f3:50:7b:a8:ef:7b:af:ec:27:ba:11:9e:4e:06:f9:f1:
        16:ba:86:e1:60:c2:a1:dd:43:cb:f3:c7:62:fb:6d:96:2d:0e:
        b2:da:1e:62:18:f0:bf:3b:e1:46:3b:e2:ba:52:0d:19:db:9d:
        5a:fc:b8:39:fe:18:fa:ec:03:56:74:1c:e8:5c:6c:8c:01:72:
        11:93:48:98:af:1b:e2:ec:db:47:c3:36:90:73:c9:6c:40:44:
        de:e4:09:3e:4d:22:b5:a8:06:e5:0c:50:30:63:ef:fb:27:5f:
        ad:08:5e:56
-----BEGIN CERTIFICATE-----
MIIC6jCCAdKgAwIBAgIBATANBgkqhkiG9w0BAQsFADBjMQswCQYDVQQGEwJVUzET
MBEGA1UECAwKQ2FsaWZvcm5pYTEWMBQGA1UEBwwNTW91bnRhaW4gVmlldzEQMA4G
A1UECgwHVGVzdCBDQTEVMBMGA1UEAwwMVGVzdCBSb290IENBMB4XDTE5MDYwMTAw
MDAwMFoXDTE5MDgzMDAwMDAwMFowNzEZMBcGA1UEAwwQdGVzdC5leGFtcGxlLm9y
ZzENMAsGA1UECgwEVGVzdDELMAkGA1UEBhMCVVMwWTATBgcqhkjOPQIBBggqhkjO
PQMBBwNCAATUO3SqgWApQso16sjpPkgrW4WMPqoYZXtvcohILWT33pf3nAJJ5AGk
PDN4CQymuGUXbXu7rzCAaWS3jP62Qvydo4GfMIGcMAkGA1UdEwQCMAAwEAYKKwYB
BAHWeQIBFgQCBQAwCwYDVR0PBAQDAgXgMBMGA1UdJQQMMAoGCCsGAQUFBwMBMB0G
A1UdDgQWBBTJUMIrA8MRaSat3+eCoENlkQHY9zAfBgNVHSMEGDAWgBSbJguKmKm7
HbkfHOMaQDPtjheIqzAbBgNVHREEFDASghB0ZXN0LmV4YW1wbGUub3JnMA0GCSqG
SIb3DQEBCwUAA4IBAQCB5rMqabopOd+pEiyGshqKpyxnq1N3NS7PvOS02G8Tu1Qm
qDeddIP4OAUCnoe82G4i/sutmoeRx+lw9fkY7HhDtw0S3uGKhcsvSUsfe1zYj1SG
FfH1f0lLf025gBnVagm05FLQ4r4juRJWGngZ3BQcDDF1NtkifFRyRBOxg1oCqZvc
Ld5gZ5IZJbOChXLrX1ep1/NQe6jve6/sJ7oRnk4G+fEWuobhYMKh3UPL88di+22W
LQ6y2h5iGPC/O+FGO+K6Ug0Z251a/Lg5/hj67ANWdBzoXGyMAXIRk0iYrxvi7NtH
wzaQc8lsQETe5Ak+TSK1qAblDFAwY+/7J1+tCF5W
-----END CERTIFICATE-----
