Certificate:
    Data:
        Version: 3 (0x2)
        Serial Number: 6 (0x6)
        Signature Algorithm: sha256WithRSAEncryption
        Issuer: C=US, ST=California, L=Mountain View, O=Test CA, CN=Test Root CA
        Validity
            Not Before: Jun  1 00:00:00 2019 GMT
            Not After : Aug 30 00:00:00 2019 GMT
        Subject: CN=test.example.org, O=Test, C=US
        Subject Public Key Info:
            Public Key Algorithm: id-ecPublicKey
                Public-Key: (384 bit)
                pub:
                    04:9d:5d:99:ce:56:05:1a:4e:ba:99:ff:c8:df:7d:
                    dc:4e:6f:5d:58:8f:83:e9:5c:c1:10:be:0c:ac:4d:
                    66:d6:78:cf:31:1e:2a:c7:82:a0:42:5a:ff:00:02:
                    f0:81:95:6e:3c:0d:be:0e:39:5b:18:de:77:b1:1f:
                    5a:7a:90:82:b2:0b:0b:89:9e:c1:e8:f1:50:0a:f5:
                    82:6e:cb:c4:1e:05:f5:9e:f4:52:09:e5:ac:52:b8:
                    dd:5b:7c:86:78:10:0e
                ASN1 OID: secp384r1
                NIST CURVE: P-384
        X509v3 extensions:
            X509v3 Basic Constraints: 
                CA:FALSE
            1.3.6.1.4.1.11129.2.1.22: 
                ..
            X509v3 Key Usage: 
                Digital Signature, Non Repudiation, Key Encipherment
            X509v3 Extended Key Usage: 
                TLS Web Server Authentication
            X509v3 Subject Key Identifier: 
                16:99:B7:91:28:79:55:CB:4D:1D:C9:94:2E:42:39:B8:EF:74:53:AE
            X509v3 Authority Key Identifier: 
                9B:26:0B:8A:98:A9:BB:1D:B9:1F:1C:E3:1A:40:33:ED:8E:17:88:AB
            X509v3 Subject Alternative Name: 
                DNS:test.example.org
    Signature Algorithm: sha256WithRSAEncryption
    Signature Value:
        ba:38:8f:9f:e1:87:dc:27:d9:51:4a:44:c0:04:e8:20:d2:bc:
        58:91:d1:bb:b0:f3:05:8a:4a:70:3c:b3:ba:8f:06:85:c2:b7:
        31:02:88:16:c7:9c:bd:c4:c5:55:4b:e9:d2:33:c9:fc:4a:da:
        40:23:23:dd:a5:fc:90:ca:db:77:c8:ab:93:f8:c1:2a:74:39:
        38:12:29:86:92:2a:c7:35:a4:86:cc:0f:2f:9b:e4:f6:29:4e:
        5d:91:93:2f:37:7f:df:86:93:39:42:77:ea:81:06:ea:8f:67:
        39:3d:2b:c7:77:f0:1b:37:18:9c:98:ec:00:69:0d:35:51:8a:
        7c:f9:fb:f6:26:3d:83:2e:d9:4e:28:5d:67:4b:5a:b0:16:23:
        bb:b2:62:3e:dd:71:cc:66:0f:c2:49:8a:5a:ca:87:ea:f7:a0:
        3e:80:b4:ef:37:8a:66:78:12:9f:95:ae:06:f9:8a:4f:a7:b0:
        a4:f3:25:97:9c:cd:5a:02:8d:2b:10:50:6f:dc:84:f7:8e:f5:
        d3:f6:37:2a:64:03:30:44:6d:21:d2:92:c4:c5:68:bb:67:bd:
        23:43:0d:eb:4a:e0:13:d1:78:25:c4:de:d9:e3:4f:b8:a2:00:
        fa:c0:48:76:df:e3:94:91:20:fb:3f:d7:e4:62:c1:27:5a:3b:
        a4:e6:1f:a9
-----BEGIN CERTIFICATE-----
MIIDBzCCAe+gAwIBAgIBBjANBgkqhkiG9w0BAQsFADBjMQswCQYDVQQGEwJVUzET
MBEGA1UECAwKQ2FsaWZvcm5pYTEWMBQGA1UEBwwNTW91bnRhaW4gVmlldzEQMA4G
A1UECgwHVGVzdCBDQTEVMBMGA1UEAwwMVGVzdCBSb290IENBMB4XDTE5MDYwMTAw
MDAwMFoXDTE5MDgzMDAwMDAwMFowNzEZMBcGA1UEAwwQdGVzdC5leGFtcGxlLm9y
ZzENMAsGA1UECgwEVGVzdDELMAkGA1UEBhMCVVMwdjAQBgcqhkjOPQIBBgUrgQQA
IgNiAASdXZnOVgUaTrqZ/8jffdxOb11Yj4PpXMEQvgysTWbWeM8xHirHgqBCWv8A
AvCBlW48Db4OOVsY3nexH1p6kIKyCwuJnsHo8VAK9YJuy8QeBfWe9FIJ5axSuN1b
fIZ4EA6jgZ8wgZwwCQYDVR0TBAIwADAQBgorBgEEAdZ5AgEWBAIFADALBgNVHQ8E
BAMCBeAwEwYDVR0lBAwwCgYIKwYBBQUHAwEwHQYDVR0OBBYEFBaZt5EoeVXLTR3J
lC5CObjvdFOuMB8GA1UdIwQYMBaAFJsmC4qYqbsduR8c4xpAM+2OF4irMBsGA1Ud
EQQUMBKCEHRlc3QuZXhhbXBsZS5vcmcwDQYJKoZIhvcNAQELBQADggEBALo4j5/h
h9wn2VFKRMAE6CDSvFiR0buw8wWKSnA8s7qPBoXCtzECiBbHnL3ExVVL6dIzyfxK
2kAjI92l/JDK23fIq5P4wSp0OTgSKYaSKsc1pIbMDy+b5PYpTl2Rky83f9+GkzlC
d+qBBuqPZzk9K8d38Bs3GJyY7ABpDTVRinz5+/YmPYMu2U4oXWdLWrAWI7uyYj7d
ccxmD8JJilrKh+r3oD6AtO83imZ4Ep+Vrgb5ik+nsKTzJZeczVoCjSsQUG/chPeO
9dP2NypkAzBEbSHSksTFaLtnvSNDDetK4BPReCXE3tnjT7iiAPrASHbf45SRIPs/
1+RiwSdaO6TmH6k=
-----END CERTIFICATE-----
