Certificate:
    Data:
        Version: 3 (0x2)
        Serial Number: 5 (0x5)
        Signature Algorithm: sha256WithRSAEncryption
        Issuer: C=US, ST=California, L=Mountain View, O=Test CA, CN=Test Root CA
        Validity
            Not Before: Jun  1 00:00:00 2019 GMT
            Not After : Aug 30 00:00:00 2019 GMT
        Subject: CN=test.example.org, O=Test, C=US
        Subject Public Key Info:
            Public Key Algorithm: id-ecPublicKey
                Public-Key: (384 bit)
                pub:
                    04:71:9e:c7:bf:1f:ca:64:89:63:93:ec:b6:91:ed:
                    fd:0c:7f:61:30:8d:cc:0f:e0:9b:94:f2:67:b8:ae:
                    60:40:d9:f5:0f:de:24:a0:80:8a:74:26:d5:94:c1:
                    5b:4e:4f:61:8a:5b:6a:b0:19:6b:6b:5f:50:ff:55:
                    91:be:5f:6c:2d:42:36:2c:30:50:75:a2:71:d0:27:
                    4b:d6:64:0b:b6:1f:cc:15:c8:d9:db:03:a4:bf:e9:
                    ac:c8:82:cf:16:00:54
                ASN1 OID: secp384r1
                NIST CURVE: P-384
        X509v3 extensions:
            X509v3 Basic Constraints: 
                CA:FALSE
            1.3.6.1.4.1.11129.2.1.22: 
                ..
            X509v3 Key Usage: 
                Digital Signature, Non Repudiation, Key Encipherment
            X509v3 Extended Key Usage: 
                TLS Web Server Authentication
            X509v3 Subject Key Identifier: 
                93:76:D0:33:7C:F7:12:E0:D0:D8:1F:31:65:C0:97:8A:1D:34:77:1B
            X509v3 Authority Key Identifier: 
                keyid:9B:26:0B:8A:98:A9:BB:1D:B9:1F:1C:E3:1A:40:33:ED:8E:17:88:AB

            X509v3 Subject Alternative Name: 
                DNS:test.example.org
    Signature Algorithm: sha256WithRSAEncryption
         0c:6b:0c:18:98:13:4e:39:ad:0c:19:d7:62:f0:06:20:5f:75:
         5d:bd:43:f0:1a:ce:2e:fc:90:90:8f:3f:42:52:03:b9:82:ea:
         a7:5f:cc:cf:c8:a4:69:35:55:8f:8f:d1:b7:22:d6:ee:78:91:
         5d:7a:af:d7:80:55:26:f1:1d:f5:1d:c6:d1:64:f4:19:95:0c:
         bd:44:cd:bd:57:68:4e:a3:b9:ce:18:a7:5f:f8:e0:0f:a1:42:
         71:cb:b9:0e:7f:38:24:01:3c:03:45:f1:92:e1:cf:d5:ce:65:
         b6:94:e0:b2:f3:b6:26:bf:3d:cc:0a:3a:45:a3:af:fe:c9:5b:
         f5:b9:46:b9:32:87:16:5d:01:30:98:03:ea:d3:c4:3f:14:d8:
         0d:cf:e5:0a:3b:11:29:6e:3f:ad:b6:d1:cc:da:c7:14:46:21:
         1d:6a:dd:b8:3e:c4:df:fb:35:f9:63:7f:8e:51:92:5f:01:38:
         d2:fc:7f:d1:70:be:bd:69:7c:5c:75:56:1e:0c:43:35:af:04:
         ed:1b:d1:73:67:32:e3:63:c7:a5:65:a8:97:d2:4b:5e:1e:23:
         2c:12:f9:f9:ab:1f:03:0f:b5:4d:c1:c7:52:38:5a:40:34:ec:
         30:9c:6d:45:21:fa:06:7e:6d:8b:93:51:f0:36:d9:02:f6:87:
         12:03:06:2c
-----BEGIN CERTIFICATE-----
MIIDBzCCAe+gAwIBAgIBBTANBgkqhkiG9w0BAQsFADBjMQswCQYDVQQGEwJVUzET
MBEGA1UECAwKQ2FsaWZvcm5pYTEWMBQGA1UEBwwNTW91bnRhaW4gVmlldzEQMA4G
A1UECgwHVGVzdCBDQTEVMBMGA1UEAwwMVGVzdCBSb290IENBMB4XDTE5MDYwMTAw
MDAwMFoXDTE5MDgzMDAwMDAwMFowNzEZMBcGA1UEAwwQdGVzdC5leGFtcGxlLm9y
ZzENMAsGA1UECgwEVGVzdDELMAkGA1UEBhMCVVMwdjAQBgcqhkjOPQIBBgUrgQQA
IgNiAARxnse/H8pkiWOT7LaR7f0Mf2EwjcwP4JuU8me4rmBA2fUP3iSggIp0JtWU
wVtOT2GKW2qwGWtrX1D/VZG+X2wtQjYsMFB1onHQJ0vWZAu2H8wVyNnbA6S/6azI
gs8WAFSjgZ8wgZwwCQYDVR0TBAIwADAQBgorBgEEAdZ5AgEWBAIFADALBgNVHQ8E
BAMCBeAwEwYDVR0lBAwwCgYIKwYBBQUHAwEwHQYDVR0OBBYEFJN20DN89xLg0Ngf
MWXAl4odNHcbMB8GA1UdIwQYMBaAFJsmC4qYqbsduR8c4xpAM+2OF4irMBsGA1Ud
EQQUMBKCEHRlc3QuZXhhbXBsZS5vcmcwDQYJKoZIhvcNAQELBQADggEBAAxrDBiY
E045rQwZ12LwBiBfdV29Q/Aazi78kJCPP0JSA7mC6qdfzM/IpGk1VY+P0bci1u54
kV16r9eAVSbxHfUdxtFk9BmVDL1Ezb1XaE6juc4Yp1/44A+hQnHLuQ5/OCQBPANF
8ZLhz9XOZbaU4LLztia/PcwKOkWjr/7JW/W5RrkyhxZdATCYA+rTxD8U2A3P5Qo7
ESluP6220czaxxRGIR1q3bg+xN/7Nfljf45Rkl8BONL8f9Fwvr1pfFx1Vh4MQzWv
BO0b0XNnMuNjx6VlqJfSS14eIywS+fmrHwMPtU3Bx1I4WkA07DCcbUUh+gZ+bYuT
UfA22QL2hxIDBiw=
-----END CERTIFICATE-----
