$ openssl x509 -text -noout < [CERTIFICATE]
Certificate:
    Data:
        Version: 3 (0x2)
        Serial Number: 109 (0x6d)
    Signature Algorithm: sha256WithRSAEncryption
        Issuer: C=US, ST=California, L=Mountain View, O=Google Inc, OU=Cast, CN=Audio Reference Dev Model
        Validity
            Not Before: Jan 22 06:12:57 2016 GMT
            Not After : May  1 06:12:57 2016 GMT
        Subject: C=US, ST=California, L=Mountain View, O=Google Inc, OU=Cast, CN=Audio Reference Dev Test
        Subject Public Key Info:
            Public Key Algorithm: rsaEncryption
                Public-Key: (2048 bit)
                Modulus:
                    00:a5:24:b3:ec:b7:71:b4:f7:33:1b:98:ac:3d:74:
                    a4:47:c6:1d:52:9f:79:64:58:d5:ad:84:7f:a5:f2:
                    bd:24:43:df:c7:11:ae:c0:cb:cd:6f:48:11:da:5b:
                    d9:43:ac:bf:2b:ac:27:81:e9:a9:d4:04:b3:ac:5b:
                    97:6c:2e:c2:ca:98:eb:78:14:a1:67:63:91:d5:a8:
                    29:1a:33:e7:fb:ec:d1:27:e3:c1:e7:cd:ff:cc:2e:
                    c6:cf:f0:ad:5f:d4:57:27:0d:a1:8b:ef:60:2c:1d:
                    11:11:bb:4c:7a:c5:18:1f:20:20:db:ec:83:88:2f:
                    87:69:4b:0c:7d:73:26:4f:46:63:24:de:20:05:83:
                    a5:5d:3c:5a:8b:4d:28:de:57:53:18:a0:c8:54:4f:
                    a7:29:b1:2d:5d:cf:5b:da:94:88:c2:27:91:74:23:
                    24:01:2d:75:51:44:e6:a4:6a:02:21:a6:ee:fc:45:
                    ef:6f:f4:53:2c:18:ce:8b:6b:06:46:b8:54:de:cc:
                    52:c3:86:ce:53:7a:90:01:5d:14:c8:e8:af:ec:cd:
                    9e:0b:1a:ee:96:e5:2b:fd:04:c3:8b:b2:e4:f8:73:
                    18:64:0c:84:35:3b:d6:46:d3:f2:72:55:06:fc:32:
                    99:df:14:c9:1a:40:45:ee:61:8c:82:ab:62:6b:7e:
                    55:35
                Exponent: 65537 (0x10001)
        X509v3 extensions:
            X509v3 Basic Constraints: 
                CA:FALSE
            X509v3 Subject Key Identifier: 
                71:19:3F:70:2E:3C:35:18:E1:95:2A:6C:C4:EC:DF:41:99:E1:E4:FF
            X509v3 Authority Key Identifier: 
                keyid:60:2A:2F:AD:48:80:2C:77:FC:A7:44:15:7D:5B:E7:9B:63:AA:11:FE

            X509v3 Key Usage: 
                Digital Signature
            X509v3 Extended Key Usage: 
                TLS Web Client Authentication
            X509v3 Certificate Policies: 
                Policy: 1.3.6.1.4.1.11129.2.5.2

    Signature Algorithm: sha256WithRSAEncryption
         4e:c8:d5:bd:d1:68:a6:db:41:d7:2e:2f:3b:05:64:de:21:21:
         04:68:69:56:2f:da:6d:50:f9:3b:39:a1:34:e1:e4:65:2c:96:
         14:7d:68:4d:31:86:5d:26:6f:20:72:4e:f3:96:b3:3f:96:f0:
         e3:6b:f3:fe:18:3f:58:c7:2a:17:55:03:af:44:90:7d:59:34:
         51:4c:63:dc:78:b5:c0:a8:0c:3e:02:9e:f0:f2:17:60:c3:a6:
         c3:96:c5:04:8a:c0:40:81:7e:91:0a:8d:03:af:9e:f0:59:df:
         6a:bb:cd:e7:50:24:0a:f0:c6:20:8d:5e:91:8c:75:91:de:b7:
         3d:62:33:9d:96:1f:0a:21:be:a4:19:24:dc:81:b3:02:e5:6a:
         5b:2d:52:d8:c4:e0:b2:50:74:a9:37:53:3f:7d:25:f1:19:81:
         a0:40:9c:7f:6d:91:45:d0:b6:50:12:7f:bd:95:4d:70:00:cc:
         d8:c1:be:a4:8e:54:73:a8:44:50:0d:e6:f0:ee:49:cf:92:19:
         43:2f:d0:87:60:d1:dd:10:49:18:a1:03:aa:0f:40:c6:6b:14:
         79:bd:aa:81:d9:06:09:88:de:41:fe:54:3c:4e:a9:af:4a:be:
         a9:b2:c1:da:92:73:e1:fa:3b:e8:86:1b:55:31:e7:9e:f7:85:
         46:96:ad:80
-----BEGIN CERTIFICATE-----
MIIECjCCAvKgAwIBAgIBbTANBgkqhkiG9w0BAQsFADCBgjELMAkGA1UEBhMCVVMx
EzARBgNVBAgMCkNhbGlmb3JuaWExFjAUBgNVBAcMDU1vdW50YWluIFZpZXcxEzAR
BgNVBAoMCkdvb2dsZSBJbmMxDTALBgNVBAsMBENhc3QxIjAgBgNVBAMMGUF1ZGlv
IFJlZmVyZW5jZSBEZXYgTW9kZWwwHhcNMTYwMTIyMDYxMjU3WhcNMTYwNTAxMDYx
MjU3WjCBgTELMAkGA1UEBhMCVVMxEzARBgNVBAgMCkNhbGlmb3JuaWExFjAUBgNV
BAcMDU1vdW50YWluIFZpZXcxEzARBgNVBAoMCkdvb2dsZSBJbmMxDTALBgNVBAsM
BENhc3QxITAfBgNVBAMMGEF1ZGlvIFJlZmVyZW5jZSBEZXYgVGVzdDCCASIwDQYJ
KoZIhvcNAQEBBQADggEPADCCAQoCggEBAKUks+y3cbT3MxuYrD10pEfGHVKfeWRY
1a2Ef6XyvSRD38cRrsDLzW9IEdpb2UOsvyusJ4HpqdQEs6xbl2wuwsqY63gUoWdj
kdWoKRoz5/vs0SfjwefN/8wuxs/wrV/UVycNoYvvYCwdERG7THrFGB8gINvsg4gv
h2lLDH1zJk9GYyTeIAWDpV08WotNKN5XUxigyFRPpymxLV3PW9qUiMInkXQjJAEt
dVFE5qRqAiGm7vxF72/0UywYzotrBka4VN7MUsOGzlN6kAFdFMjor+zNngsa7pbl
K/0Ew4uy5PhzGGQMhDU71kbT8nJVBvwymd8UyRpARe5hjIKrYmt+VTUCAwEAAaOB
iTCBhjAJBgNVHRMEAjAAMB0GA1UdDgQWBBRxGT9wLjw1GOGVKmzE7N9BmeHk/zAf
BgNVHSMEGDAWgBRgKi+tSIAsd/ynRBV9W+ebY6oR/jALBgNVHQ8EBAMCB4AwEwYD
VR0lBAwwCgYIKwYBBQUHAwIwFwYDVR0gBBAwDjAMBgorBgEEAdZ5AgUCMA0GCSqG
SIb3DQEBCwUAA4IBAQBOyNW90Wim20HXLi87BWTeISEEaGlWL9ptUPk7OaE04eRl
LJYUfWhNMYZdJm8gck7zlrM/lvDja/P+GD9YxyoXVQOvRJB9WTRRTGPceLXAqAw+
Ap7w8hdgw6bDlsUEisBAgX6RCo0Dr57wWd9qu83nUCQK8MYgjV6RjHWR3rc9YjOd
lh8KIb6kGSTcgbMC5WpbLVLYxOCyUHSpN1M/fSXxGYGgQJx/bZFF0LZQEn+9lU1w
AMzYwb6kjlRzqERQDebw7knPkhlDL9CHYNHdEEkYoQOqD0DGaxR5vaqB2QYJiN5B
/lQ8TqmvSr6pssHaknPh+jvohhtVMeee94VGlq2A
-----END CERTIFICATE-----

$ openssl x509 -text -noout < [CERTIFICATE]
Certificate:
    Data:
        Version: 3 (0x2)
        Serial Number: 108 (0x6c)
    Signature Algorithm: sha256WithRSAEncryption
        Issuer: C=US, ST=California, L=Mountain View, O=Google Inc, OU=Cast, CN=Cast Audio Dev Root CA
        Validity
            Not Before: Jan 22 06:12:45 2016 GMT
            Not After : May  1 06:12:45 2016 GMT
        Subject: C=US, ST=California, L=Mountain View, O=Google Inc, OU=Cast, CN=Audio Reference Dev Model
        Subject Public Key Info:
            Public Key Algorithm: rsaEncryption
                Public-Key: (2048 bit)
                Modulus:
                    00:e6:94:18:c6:48:31:b5:a9:a9:b7:28:b7:17:32:
                    04:e5:0c:83:26:73:bc:97:f8:e8:e1:7c:2e:e4:23:
                    57:e6:42:0f:0b:af:2f:96:b0:d9:a5:4b:db:89:59:
                    94:9a:52:e3:10:b5:e9:4b:38:be:79:0a:4a:ec:4f:
                    90:bd:eb:3b:af:e0:83:f7:98:37:1b:57:e0:91:72:
                    9b:d8:da:82:09:3a:9c:f0:0a:c6:ef:fd:92:a3:b3:
                    e4:92:2a:68:23:37:8a:d5:a6:9b:db:9a:bd:68:ce:
                    2a:1e:83:0e:8d:4b:b0:52:f0:3c:1f:7e:dd:94:87:
                    06:45:5b:bb:0c:52:50:ed:d3:71:9b:28:51:a7:ed:
                    09:fc:2c:52:79:bb:98:a5:7e:17:48:c1:f2:33:90:
                    4b:03:1b:28:17:11:40:e1:c4:93:3f:85:51:f1:c9:
                    a1:e7:23:13:6d:81:a7:86:b9:c4:60:00:ad:51:2e:
                    96:b3:41:ac:a9:1e:9b:93:18:11:f3:6b:e8:3a:ba:
                    d3:c9:f9:7e:02:eb:c6:bf:95:dc:b6:24:fb:d7:5c:
                    8f:16:5b:14:3d:9a:31:0f:0b:a4:3e:ec:99:3f:4d:
                    bc:e4:7f:1f:66:d6:91:d7:5e:15:c9:60:b1:65:64:
                    5c:ab:a1:09:32:3f:67:9a:76:e6:fa:aa:07:05:3a:
                    0c:95
                Exponent: 65537 (0x10001)
        X509v3 extensions:
            X509v3 Basic Constraints: 
                CA:TRUE, pathlen:0
            X509v3 Subject Key Identifier: 
                60:2A:2F:AD:48:80:2C:77:FC:A7:44:15:7D:5B:E7:9B:63:AA:11:FE
            X509v3 Authority Key Identifier: 
                keyid:4F:93:EA:B8:A6:60:AF:AB:A8:B3:5E:B7:A6:37:7E:66:BD:43:BC:06

            X509v3 Key Usage: 
                Certificate Sign, CRL Sign
            X509v3 Certificate Policies: 
                Policy: 1.3.6.1.4.1.11129.2.5.2

    Signature Algorithm: sha256WithRSAEncryption
         26:69:33:c7:82:4d:fe:0e:a7:f5:5b:69:a6:1c:eb:2c:6a:48:
         2b:db:e1:ae:40:bf:fb:c4:9d:53:71:2d:e6:74:40:7c:f6:f1:
         c0:16:98:70:e2:15:94:38:66:9e:31:54:d7:99:33:e0:ca:66:
         c5:1c:dd:2d:d2:ff:9e:76:c1:7f:69:ac:b0:89:f7:45:70:ff:
         27:5f:fe:ec:10:a5:33:61:30:fc:1d:0d:4a:d2:74:69:15:7c:
         80:df:ad:ea:19:0e:99:9c:fa:22:48:e7:75:86:9e:01:4b:d2:
         d6:30:82:b2:44:82:10:4d:61:c1:01:37:68:9f:1d:01:d7:67:
         83:85:7e:6d:98:88:3b:bd:8b:08:75:0c:6f:e0:72:c1:62:33:
         12:a9:4b:79:39:d8:4e:1f:f6:db:8d:19:75:32:33:c1:8a:4b:
         0f:e0:3a:f9:fb:7a:b8:91:49:4e:db:f5:13:4b:53:dc:42:79:
         90:3c:eb:91:9a:10:4f:02:5b:59:1e:d8:80:ae:94:8d:a7:c7:
         ff:d5:a6:86:1c:a6:3a:c9:95:9f:0e:37:c4:9d:1c:13:05:a8:
         9e:2b:57:f3:1a:ba:c2:fd:d5:58:9b:e5:62:62:7a:8b:43:0c:
         c2:4b:4d:4f:35:5e:75:a1:da:f6:73:7f:ce:07:c1:61:ed:26:
         3f:3c:04:bd
-----BEGIN CERTIFICATE-----
MIID9jCCAt6gAwIBAgIBbDANBgkqhkiG9w0BAQsFADB/MQswCQYDVQQGEwJVUzET
MBEGA1UECAwKQ2FsaWZvcm5pYTEWMBQGA1UEBwwNTW91bnRhaW4gVmlldzETMBEG
A1UECgwKR29vZ2xlIEluYzENMAsGA1UECwwEQ2FzdDEfMB0GA1UEAwwWQ2FzdCBB
dWRpbyBEZXYgUm9vdCBDQTAeFw0xNjAxMjIwNjEyNDVaFw0xNjA1MDEwNjEyNDVa
MIGCMQswCQYDVQQGEwJVUzETMBEGA1UECAwKQ2FsaWZvcm5pYTEWMBQGA1UEBwwN
TW91bnRhaW4gVmlldzETMBEGA1UECgwKR29vZ2xlIEluYzENMAsGA1UECwwEQ2Fz
dDEiMCAGA1UEAwwZQXVkaW8gUmVmZXJlbmNlIERldiBNb2RlbDCCASIwDQYJKoZI
hvcNAQEBBQADggEPADCCAQoCggEBAOaUGMZIMbWpqbcotxcyBOUMgyZzvJf46OF8
LuQjV+ZCDwuvL5aw2aVL24lZlJpS4xC16Us4vnkKSuxPkL3rO6/gg/eYNxtX4JFy
m9jaggk6nPAKxu/9kqOz5JIqaCM3itWmm9uavWjOKh6DDo1LsFLwPB9+3ZSHBkVb
uwxSUO3TcZsoUaftCfwsUnm7mKV+F0jB8jOQSwMbKBcRQOHEkz+FUfHJoecjE22B
p4a5xGAArVEulrNBrKkem5MYEfNr6Dq608n5fgLrxr+V3LYk+9dcjxZbFD2aMQ8L
pD7smT9NvOR/H2bWkddeFclgsWVkXKuhCTI/Z5p25vqqBwU6DJUCAwEAAaN5MHcw
DwYDVR0TBAgwBgEB/wIBADAdBgNVHQ4EFgQUYCovrUiALHf8p0QVfVvnm2OqEf4w
HwYDVR0jBBgwFoAUT5PquKZgr6uos163pjd+Zr1DvAYwCwYDVR0PBAQDAgEGMBcG
A1UdIAQQMA4wDAYKKwYBBAHWeQIFAjANBgkqhkiG9w0BAQsFAAOCAQEAJmkzx4JN
/g6n9VtpphzrLGpIK9vhrkC/+8SdU3Et5nRAfPbxwBaYcOIVlDhmnjFU15kz4Mpm
xRzdLdL/nnbBf2mssIn3RXD/J1/+7BClM2Ew/B0NStJ0aRV8gN+t6hkOmZz6Ikjn
dYaeAUvS1jCCskSCEE1hwQE3aJ8dAddng4V+bZiIO72LCHUMb+BywWIzEqlLeTnY
Th/2240ZdTIzwYpLD+A6+ft6uJFJTtv1E0tT3EJ5kDzrkZoQTwJbWR7YgK6UjafH
/9WmhhymOsmVnw43xJ0cEwWonitX8xq6wv3VWJvlYmJ6i0MMwktNTzVedaHa9nN/
zgfBYe0mPzwEvQ==
-----END CERTIFICATE-----

$ openssl x509 -text -noout < [CERTIFICATE]
Certificate:
    Data:
        Version: 3 (0x2)
        Serial Number: 100 (0x64)
    Signature Algorithm: sha256WithRSAEncryption
        Issuer: C=US, ST=California, L=Mountain View, O=Google Inc, OU=Cast, CN=Cast Root CA
        Validity
            Not Before: Jan 22 06:10:27 2016 GMT
            Not After : May  1 06:10:27 2016 GMT
        Subject: C=US, ST=California, L=Mountain View, O=Google Inc, OU=Cast, CN=Cast Audio Dev Root CA
        Subject Public Key Info:
            Public Key Algorithm: rsaEncryption
                Public-Key: (2048 bit)
                Modulus:
                    00:b9:86:ee:81:9b:07:f1:c6:15:6a:30:1e:41:bd:
                    3b:70:f4:96:88:7d:f7:d3:29:63:3d:b8:ca:a1:ec:
                    3d:81:43:08:85:2b:30:5f:4b:6b:54:19:a9:92:46:
                    98:9a:2e:2a:ff:9d:f3:48:b2:5d:d6:0a:9c:49:81:
                    6a:63:1a:12:e7:8e:3c:39:74:67:67:c7:d5:d4:f3:
                    7c:45:65:07:84:15:b1:df:0b:16:0d:21:de:71:24:
                    b0:88:00:8a:69:cf:ae:70:24:82:64:60:48:c8:5a:
                    52:86:50:73:36:e0:24:53:5c:e8:58:13:7a:29:b8:
                    8a:a8:39:68:98:12:bf:9f:37:df:60:67:e0:3f:1f:
                    fa:de:b7:d1:a4:17:c3:c2:c5:b5:be:d7:98:e1:3d:
                    0d:59:66:e5:07:49:9a:bb:9e:4f:f3:37:38:37:df:
                    0c:19:8b:cd:fd:2c:fc:f5:a9:09:6b:4a:d3:13:22:
                    8f:fd:f9:64:e5:2c:5f:be:5a:a5:84:32:9c:e5:2a:
                    73:f5:dc:aa:57:c2:7f:3e:d6:7c:9f:55:f0:28:9c:
                    21:ba:e6:99:61:fc:39:0d:31:ac:14:9d:c1:97:b5:
                    e8:ce:97:1b:19:b8:c0:ae:52:1a:2a:46:7a:2c:f8:
                    c4:18:7d:6a:73:12:20:ec:39:47:e0:de:e3:d5:8d:
                    82:0f
                Exponent: 65537 (0x10001)
        X509v3 extensions:
            X509v3 Basic Constraints: 
                CA:TRUE, pathlen:1
            X509v3 Subject Key Identifier: 
                4F:93:EA:B8:A6:60:AF:AB:A8:B3:5E:B7:A6:37:7E:66:BD:43:BC:06
            X509v3 Authority Key Identifier: 
                keyid:7C:9A:1E:7D:DF:79:54:BC:D7:CC:5E:CA:99:86:45:79:65:74:28:19

            X509v3 Key Usage: 
                Certificate Sign, CRL Sign
            X509v3 Certificate Policies: 
                Policy: 1.3.6.1.4.1.11129.2.5.2

    Signature Algorithm: sha256WithRSAEncryption
         b8:4e:e3:75:e3:9a:5a:9c:65:d3:5a:de:c3:12:1c:bc:5b:97:
         58:a9:c1:17:53:71:1c:da:47:b4:44:51:59:eb:d3:97:56:b9:
         b6:4d:cb:ba:b7:87:b8:de:18:33:f4:78:c2:f9:7b:25:0b:cb:
         6e:6a:6c:df:a0:e0:88:4f:08:25:ec:b1:f5:5f:24:d4:47:c6:
         ca:4f:c7:86:b8:84:ea:e9:d3:f5:b2:6d:fa:b6:1e:a2:fe:af:
         ac:61:91:f0:7b:1a:9a:52:c5:8a:d6:b9:9f:1b:4c:0a:e5:0c:
         45:b9:db:d1:97:99:6f:cc:ee:a6:d6:41:ce:d4:cf:63:88:e4:
         01:ee:05:a7:61:6c:e8:41:bd:29:59:54:ab:b4:94:f7:1c:30:
         c2:ea:8b:98:9e:e7:ce:6a:02:28:a6:d6:61:e9:e9:58:23:2a:
         d5:21:2c:01:62:f8:11:dd:6e:8e:2d:c5:c6:ae:fa:89:c6:fd:
         d9:e0:62:be:f4:ff:7e:58:15:ca:db:d3:cb:da:92:45:69:d4:
         46:c6:48:ba:96:a7:ef:be:9e:27:08:75:92:94:85:c8:8e:44:
         4e:71:75:a1:e3:f6:5e:25:59:80:5d:9e:0f:01:7e:6d:41:72:
         2d:ae:2d:56:b1:6d:d6:b2:93:fc:6c:05:22:df:28:0f:09:62:
         61:65:46:2d
-----BEGIN CERTIFICATE-----
MIID6DCCAtCgAwIBAgIBZDANBgkqhkiG9w0BAQsFADB1MQswCQYDVQQGEwJVUzET
MBEGA1UECAwKQ2FsaWZvcm5pYTEWMBQGA1UEBwwNTW91bnRhaW4gVmlldzETMBEG
A1UECgwKR29vZ2xlIEluYzENMAsGA1UECwwEQ2FzdDEVMBMGA1UEAwwMQ2FzdCBS
b290IENBMB4XDTE2MDEyMjA2MTAyN1oXDTE2MDUwMTA2MTAyN1owfzELMAkGA1UE
BhMCVVMxEzARBgNVBAgMCkNhbGlmb3JuaWExFjAUBgNVBAcMDU1vdW50YWluIFZp
ZXcxEzARBgNVBAoMCkdvb2dsZSBJbmMxDTALBgNVBAsMBENhc3QxHzAdBgNVBAMM
FkNhc3QgQXVkaW8gRGV2IFJvb3QgQ0EwggEiMA0GCSqGSIb3DQEBAQUAA4IBDwAw
ggEKAoIBAQC5hu6BmwfxxhVqMB5BvTtw9JaIfffTKWM9uMqh7D2BQwiFKzBfS2tU
GamSRpiaLir/nfNIsl3WCpxJgWpjGhLnjjw5dGdnx9XU83xFZQeEFbHfCxYNId5x
JLCIAIppz65wJIJkYEjIWlKGUHM24CRTXOhYE3opuIqoOWiYEr+fN99gZ+A/H/re
t9GkF8PCxbW+15jhPQ1ZZuUHSZq7nk/zNzg33wwZi839LPz1qQlrStMTIo/9+WTl
LF++WqWEMpzlKnP13KpXwn8+1nyfVfAonCG65plh/DkNMawUncGXtejOlxsZuMCu
UhoqRnos+MQYfWpzEiDsOUfg3uPVjYIPAgMBAAGjeTB3MA8GA1UdEwQIMAYBAf8C
AQEwHQYDVR0OBBYEFE+T6rimYK+rqLNet6Y3fma9Q7wGMB8GA1UdIwQYMBaAFHya
Hn3feVS818xeypmGRXlldCgZMAsGA1UdDwQEAwIBBjAXBgNVHSAEEDAOMAwGCisG
AQQB1nkCBQIwDQYJKoZIhvcNAQELBQADggEBALhO43XjmlqcZdNa3sMSHLxbl1ip
wRdTcRzaR7REUVnr05dWubZNy7q3h7jeGDP0eML5eyULy25qbN+g4IhPCCXssfVf
JNRHxspPx4a4hOrp0/Wybfq2HqL+r6xhkfB7GppSxYrWuZ8bTArlDEW529GXmW/M
7qbWQc7Uz2OI5AHuBadhbOhBvSlZVKu0lPccMMLqi5ie585qAiim1mHp6VgjKtUh
LAFi+BHdbo4txcau+onG/dngYr70/35YFcrb08vakkVp1EbGSLqWp+++nicIdZKU
hciORE5xdaHj9l4lWYBdng8Bfm1Bci2uLVaxbdayk/xsBSLfKA8JYmFlRi0=
-----END CERTIFICATE-----
