$ openssl x509 -text -noout < [CERTIFICATE]
Certificate:
    Data:
        Version: 3 (0x2)
        Serial Number: 28 (0x1c)
    Signature Algorithm: sha256WithRSAEncryption
        Issuer: C=US, ST=California, L=Mountain View, O=Google Inc, OU=Cast, CN=Cast Test Untrusted Root CA
        Validity
            Not Before: Jan 21 23:41:26 2015 GMT
            Not After : Jan 16 23:41:26 2035 GMT
        Subject: C=US, ST=California, L=Mountain View, O=Google Inc, OU=Cast, CN=Cast Test Untrusted Root CA
        Subject Public Key Info:
            Public Key Algorithm: rsaEncryption
                Public-Key: (2048 bit)
                Modulus:
                    00:c1:e4:4c:2e:e0:ac:5c:da:e1:b7:e0:fe:f5:19:
                    2a:6b:eb:b5:8d:9c:dd:f6:d9:5f:84:64:f8:a9:4b:
                    07:55:78:73:f7:14:38:38:94:13:70:d9:87:23:d4:
                    91:c2:93:d1:3f:86:ad:a7:f6:39:e9:78:c0:b8:3e:
                    32:40:ec:83:4c:a2:47:96:75:af:fc:1d:35:1b:00:
                    da:9a:a5:6c:cd:1b:04:0a:e6:bd:a9:e4:5d:67:71:
                    7d:60:c8:e1:59:27:c3:f1:87:85:69:b1:e8:e4:39:
                    92:84:db:df:96:71:b8:5b:a9:ef:b3:de:d4:a6:c6:
                    4c:cb:4b:02:d9:84:d1:47:1a:45:d8:5d:9f:ae:09:
                    69:39:1c:4a:d1:f0:9a:88:59:54:44:8e:58:96:58:
                    24:0c:d5:9a:bc:7b:81:2c:2c:55:52:ac:06:37:7d:
                    52:89:58:19:cd:fe:f5:55:17:57:e3:c2:47:c3:be:
                    61:59:9f:86:fc:51:20:11:13:ad:62:d1:3b:b4:55:
                    83:5e:3d:26:d0:c8:0d:36:2e:6b:86:af:6c:cc:5d:
                    99:8f:93:18:47:df:f9:29:cd:6b:c6:5d:3f:01:15:
                    b5:06:0d:f4:ce:4a:21:aa:36:4f:45:a0:ca:b1:94:
                    78:49:b7:3a:c9:23:01:58:87:10:85:4f:6e:ba:90:
                    40:ef
                Exponent: 65537 (0x10001)
        X509v3 extensions:
            X509v3 Basic Constraints: 
                CA:TRUE, pathlen:2
            X509v3 Subject Key Identifier: 
                CC:C4:CE:8E:D4:73:22:4D:0F:BC:8C:FB:F5:55:F1:61:A5:38:90:C9
            X509v3 Authority Key Identifier: 
                keyid:CC:C4:CE:8E:D4:73:22:4D:0F:BC:8C:FB:F5:55:F1:61:A5:38:90:C9

            X509v3 Key Usage: 
                Certificate Sign, CRL Sign
    Signature Algorithm: sha256WithRSAEncryption
         a9:bc:38:09:a4:2b:56:2c:ad:ed:32:fb:9a:71:62:8d:12:3d:
         ff:2d:9a:84:70:9a:09:5a:0b:29:a8:7f:6f:91:93:9d:93:cc:
         4c:a3:d8:9d:75:81:27:c4:16:c4:8e:25:97:a5:ce:3e:33:2a:
         1a:6f:03:68:b9:35:0e:ee:99:d5:e0:96:d9:59:7b:a7:b9:8d:
         86:7d:5d:54:7d:b9:48:ac:fe:57:dd:50:94:c7:6b:f4:29:f4:
         eb:9a:aa:63:bb:91:64:52:b4:56:7d:e2:73:3b:65:9e:0e:c0:
         8c:2c:44:f3:12:b5:1c:4e:41:80:3f:a2:17:c6:f2:53:e6:48:
         94:5d:ae:b9:7c:72:4f:7f:77:43:37:f8:dc:05:8d:ac:0b:7d:
         61:7d:7d:fc:59:6f:04:52:35:b0:dc:ea:ad:ce:fe:15:36:0a:
         2e:79:0e:b7:a1:93:61:34:9a:47:0d:c1:6b:b6:ae:d2:9b:01:
         f3:6b:ff:5b:d4:f9:03:5e:81:1a:e7:90:28:e8:e5:7d:76:15:
         c2:73:46:a3:c2:bd:41:51:fe:57:ef:58:6e:b1:94:82:ea:c0:
         f1:9a:6f:f8:31:00:c3:ce:22:4f:28:5b:a1:e2:17:b5:1c:ba:
         d8:de:73:ec:a2:3d:cc:12:fe:f5:ae:c9:fa:a7:4e:e3:0b:4e:
         24:18:a7:f0
-----BEGIN CERTIFICATE-----
MIID5TCCAs2gAwIBAgIBHDANBgkqhkiG9w0BAQsFADCBhDELMAkGA1UEBhMCVVMx
EzARBgNVBAgMCkNhbGlmb3JuaWExFjAUBgNVBAcMDU1vdW50YWluIFZpZXcxEzAR
BgNVBAoMCkdvb2dsZSBJbmMxDTALBgNVBAsMBENhc3QxJDAiBgNVBAMMG0Nhc3Qg
VGVzdCBVbnRydXN0ZWQgUm9vdCBDQTAeFw0xNTAxMjEyMzQxMjZaFw0zNTAxMTYy
MzQxMjZaMIGEMQswCQYDVQQGEwJVUzETMBEGA1UECAwKQ2FsaWZvcm5pYTEWMBQG
A1UEBwwNTW91bnRhaW4gVmlldzETMBEGA1UECgwKR29vZ2xlIEluYzENMAsGA1UE
CwwEQ2FzdDEkMCIGA1UEAwwbQ2FzdCBUZXN0IFVudHJ1c3RlZCBSb290IENBMIIB
IjANBgkqhkiG9w0BAQEFAAOCAQ8AMIIBCgKCAQEAweRMLuCsXNrht+D+9Rkqa+u1
jZzd9tlfhGT4qUsHVXhz9xQ4OJQTcNmHI9SRwpPRP4atp/Y56XjAuD4yQOyDTKJH
lnWv/B01GwDamqVszRsECua9qeRdZ3F9YMjhWSfD8YeFabHo5DmShNvflnG4W6nv
s97UpsZMy0sC2YTRRxpF2F2frglpORxK0fCaiFlURI5YllgkDNWavHuBLCxVUqwG
N31SiVgZzf71VRdX48JHw75hWZ+G/FEgEROtYtE7tFWDXj0m0MgNNi5rhq9szF2Z
j5MYR9/5Kc1rxl0/ARW1Bg30zkohqjZPRaDKsZR4Sbc6ySMBWIcQhU9uupBA7wID
AQABo2AwXjAPBgNVHRMECDAGAQH/AgECMB0GA1UdDgQWBBTMxM6O1HMiTQ+8jPv1
VfFhpTiQyTAfBgNVHSMEGDAWgBTMxM6O1HMiTQ+8jPv1VfFhpTiQyTALBgNVHQ8E
BAMCAQYwDQYJKoZIhvcNAQELBQADggEBAKm8OAmkK1Ysre0y+5pxYo0SPf8tmoRw
mglaCymof2+Rk52TzEyj2J11gSfEFsSOJZelzj4zKhpvA2i5NQ7umdXgltlZe6e5
jYZ9XVR9uUis/lfdUJTHa/Qp9OuaqmO7kWRStFZ94nM7ZZ4OwIwsRPMStRxOQYA/
ohfG8lPmSJRdrrl8ck9/d0M3+NwFjawLfWF9ffxZbwRSNbDc6q3O/hU2Ci55Dreh
k2E0mkcNwWu2rtKbAfNr/1vU+QNegRrnkCjo5X12FcJzRqPCvUFR/lfvWG6xlILq
wPGab/gxAMPOIk8oW6HiF7Ucutjec+yiPcwS/vWuyfqnTuMLTiQYp/A=
-----END CERTIFICATE-----
