$ openssl x509 -text -noout < [CERTIFICATE]
Certificate:
    Data:
        Version: 3 (0x2)
        Serial Number: 1405898540 (0x53cc4f2c)
    Signature Algorithm: sha1WithRSAEncryption
        Issuer: C=US, ST=California, L=Mountain View, O=Google Inc, OU=Google TV, CN=Eureka Gen1 ICA
        Validity
            Not Before: Jul 20 23:22:20 2014 GMT
            Not After : Jul 15 23:22:20 2034 GMT
        Subject: C=US, ST=California, O=Google Inc, L=Mountain View, OU=Google TV, CN=2ZZBG9 FA8FCA3EF91A
        Subject Public Key Info:
            Public Key Algorithm: rsaEncryption
                Public-Key: (2048 bit)
                Modulus:
                    00:a5:79:e9:2a:de:73:67:8f:96:a0:cf:e9:ca:85:
                    3e:ec:14:e0:c3:ac:ec:c3:9c:18:3a:ef:75:ae:aa:
                    cb:ab:56:0b:b0:66:b2:a8:a9:30:0f:e1:9f:be:e2:
                    52:20:59:b3:0d:d3:6d:44:27:55:f9:8c:e1:94:36:
                    44:43:73:72:b0:09:eb:c7:26:73:e9:4f:c6:64:6b:
                    f3:1d:57:bb:91:73:67:e9:1c:c9:4f:20:94:b2:ea:
                    76:25:d8:10:a4:5b:a0:58:42:ec:13:34:e4:ed:57:
                    38:bb:f3:0a:5b:38:ce:e6:6e:32:b1:8d:14:15:be:
                    62:80:66:16:25:c5:61:60:61:6a:96:42:dd:18:61:
                    95:21:19:16:e4:16:6d:bf:cc:51:20:f3:c2:bf:c2:
                    45:b9:f8:b4:a1:cc:bf:81:64:c3:91:c0:9e:12:da:
                    fb:25:df:80:21:b0:a8:e7:7d:19:e8:ea:50:ab:0e:
                    fd:a6:a3:00:79:0c:ee:52:07:9a:f9:2d:84:8e:0c:
                    56:4d:0a:a1:cf:88:87:8f:3b:a6:0b:0e:b7:5f:0b:
                    aa:e6:d9:54:49:1b:8c:2a:a9:46:9c:75:08:66:c4:
                    ad:69:f0:da:9b:4f:bc:c0:84:0b:a7:bb:9a:b6:07:
                    71:88:26:bb:34:3b:9b:e7:94:96:1b:61:11:48:93:
                    60:2d
                Exponent: 65537 (0x10001)
        X509v3 extensions:
            X509v3 Basic Constraints: 
                CA:FALSE
            X509v3 Key Usage: 
                Digital Signature
            X509v3 Extended Key Usage: 
                TLS Web Client Authentication
    Signature Algorithm: sha1WithRSAEncryption
         6b:8a:80:65:c7:25:74:35:33:b3:f8:b9:70:7c:c0:f3:ee:4f:
         68:7a:83:6f:58:27:ad:ab:52:f6:7b:06:b9:56:4e:49:c9:4f:
         43:b0:6b:0e:bc:cd:ea:4b:84:54:38:c9:d2:33:6d:55:77:84:
         0d:88:9c:29:8f:dd:4d:b8:64:cc:4c:25:c0:3f:f6:a3:4f:02:
         a3:eb:b4:4d:59:21:03:48:42:1e:ac:94:07:59:6b:4a:8c:e9:
         4b:37:d3:fe:5f:a5:42:fa:96:00:1f:0f:54:48:27:10:38:45:
         66:19:28:fe:fc:4a:32:73:d4:bc:9b:c7:76:5b:b7:42:62:b2:
         df:46:b6:f6:89:19:98:d9:ad:d3:e7:72:72:4a:6b:21:9a:22:
         59:fc:83:31:dd:e8:c5:44:19:9a:7b:68:84:19:da:1e:0d:0e:
         59:eb:c3:28:4c:15:38:e0:d5:6b:e7:99:02:7a:dd:b1:2f:8d:
         2c:a3:30:68:58:d0:93:94:68:3a:7f:50:cc:67:13:19:fe:d7:
         e7:18:01:6f:4b:ae:8b:19:5e:d4:43:34:94:e5:d7:35:f8:6a:
         e0:27:34:c1:e4:b7:cb:82:17:c2:61:cb:cd:17:db:05:34:7e:
         3f:39:a1:86:d1:b2:6f:a3:04:cb:51:6b:2c:e7:63:54:d1:d1:
         6a:0f:04:0a
-----BEGIN CERTIFICATE-----
MIIDrDCCApSgAwIBAgIEU8xPLDANBgkqhkiG9w0BAQUFADB9MQswCQYDVQQGEwJVUzETMBEGA1U
ECAwKQ2FsaWZvcm5pYTEWMBQGA1UEBwwNTW91bnRhaW4gVmlldzETMBEGA1UECgwKR29vZ2xlIE
luYzESMBAGA1UECwwJR29vZ2xlIFRWMRgwFgYDVQQDDA9FdXJla2EgR2VuMSBJQ0EwHhcNMTQwN
zIwMjMyMjIwWhcNMzQwNzE1MjMyMjIwWjCBgTELMAkGA1UEBhMCVVMxEzARBgNVBAgTCkNhbGlm
b3JuaWExEzARBgNVBAoTCkdvb2dsZSBJbmMxFjAUBgNVBAcTDU1vdW50YWluIFZpZXcxEjAQBgN
VBAsTCUdvb2dsZSBUVjEcMBoGA1UEAxMTMlpaQkc5IEZBOEZDQTNFRjkxQTCCASIwDQYJKoZIhv
cNAQEBBQADggEPADCCAQoCggEBAKV56Srec2ePlqDP6cqFPuwU4MOs7MOcGDrvda6qy6tWC7Bms
qipMA/hn77iUiBZsw3TbUQnVfmM4ZQ2RENzcrAJ68cmc+lPxmRr8x1Xu5FzZ+kcyU8glLLqdiXY
EKRboFhC7BM05O1XOLvzCls4zuZuMrGNFBW+YoBmFiXFYWBhapZC3RhhlSEZFuQWbb/MUSDzwr/
CRbn4tKHMv4Fkw5HAnhLa+yXfgCGwqOd9GejqUKsO/aajAHkM7lIHmvkthI4MVk0Koc+Ih487pg
sOt18LqubZVEkbjCqpRpx1CGbErWnw2ptPvMCEC6e7mrYHcYgmuzQ7m+eUlhthEUiTYC0CAwEAA
aMvMC0wCQYDVR0TBAIwADALBgNVHQ8EBAMCB4AwEwYDVR0lBAwwCgYIKwYBBQUHAwIwDQYJKoZI
hvcNAQEFBQADggEBAGuKgGXHJXQ1M7P4uXB8wPPuT2h6g29YJ62rUvZ7BrlWTknJT0Owaw68zep
LhFQ4ydIzbVV3hA2InCmP3U24ZMxMJcA/9qNPAqPrtE1ZIQNIQh6slAdZa0qM6Us30/5fpUL6lg
AfD1RIJxA4RWYZKP78SjJz1Lybx3Zbt0Jist9GtvaJGZjZrdPncnJKayGaIln8gzHd6MVEGZp7a
IQZ2h4NDlnrwyhMFTjg1WvnmQJ63bEvjSyjMGhY0JOUaDp/UMxnExn+1+cYAW9LrosZXtRDNJTl
1zX4auAnNMHkt8uCF8Jhy80X2wU0fj85oYbRsm+jBMtRayznY1TR0WoPBAo=
-----END CERTIFICATE-----

$ openssl x509 -text -noout < [CERTIFICATE]
Certificate:
    Data:
        Version: 3 (0x2)
        Serial Number: 1 (0x1)
    Signature Algorithm: sha1WithRSAEncryption
        Issuer: C=US, ST=California, L=Mountain View, O=Google Inc, OU=Google TV, CN=Eureka Root CA
        Validity
            Not Before: Dec 19 00:47:12 2012 GMT
            Not After : Dec 14 00:47:12 2032 GMT
        Subject: C=US, ST=California, L=Mountain View, O=Google Inc, OU=Google TV, CN=Eureka Gen1 ICA
        Subject Public Key Info:
            Public Key Algorithm: rsaEncryption
                Public-Key: (2048 bit)
                Modulus:
                    00:bc:22:80:bd:80:f6:3a:21:00:3b:ae:76:5e:35:
                    7f:3d:c3:64:5c:55:94:86:34:2f:05:87:28:cd:f7:
                    69:8c:17:b3:50:a7:b8:82:fa:df:c7:43:2d:d6:7e:
                    ab:a0:6f:b7:13:72:80:a4:47:15:c1:20:99:50:cd:
                    ec:14:62:09:5b:a4:98:cd:d2:41:b6:36:4e:ff:e8:
                    2e:32:30:4a:81:a8:42:a3:6c:9b:33:6e:ca:b2:f5:
                    53:66:e0:27:53:86:1a:85:1e:a7:39:3f:4a:77:8e:
                    fb:54:66:66:fb:58:54:c0:5e:39:c7:f5:50:06:0b:
                    e0:8a:d4:ce:e1:6a:55:1f:8b:17:00:e6:69:a3:27:
                    e6:08:25:69:3c:12:9d:8d:05:2c:d6:2e:a2:31:de:
                    b4:52:50:d6:20:49:de:71:a0:f9:ad:20:40:12:f1:
                    dd:25:eb:d5:e6:b8:36:f4:d6:8f:7f:ca:43:dc:d7:
                    10:5b:e6:3f:51:8a:85:b3:f3:ff:f6:03:2d:cb:23:
                    4f:9c:ad:18:e7:93:05:8c:ac:52:9a:f7:4c:e9:99:
                    7a:be:6e:7e:4d:0a:e3:c6:1c:a9:93:fa:3a:a5:91:
                    5d:1c:bd:66:eb:cc:60:dc:86:74:ca:cf:f8:92:1c:
                    98:7d:57:fa:61:47:9e:ab:80:b7:e4:48:80:2a:92:
                    c5:1b
                Exponent: 65537 (0x10001)
        X509v3 extensions:
            X509v3 Basic Constraints: 
                CA:TRUE, pathlen:1
    Signature Algorithm: sha1WithRSAEncryption
         8b:d4:a1:b1:cf:5d:cd:7b:6c:48:4a:41:1f:53:2f:18:2d:32:
         45:ff:9e:ab:d3:73:3e:1f:22:d7:ea:fa:01:e6:73:03:0f:2b:
         c6:25:bb:a5:ee:c5:f5:45:cb:24:12:2a:ad:c2:5d:05:f4:7a:
         f5:c2:9b:10:16:5a:d1:0a:73:c5:16:39:a0:10:ca:d1:68:85:
         9e:fb:9e:26:83:8e:58:f3:77:a0:4e:e5:db:97:be:2d:00:5f:
         f5:94:db:b1:9d:65:6b:fd:f0:d1:04:51:df:cc:92:a6:99:2d:
         71:f5:4d:d5:23:fe:33:1c:a9:b4:ab:c5:bf:1a:b8:d1:80:ef:
         89:c9:e2:1f:9c:4c:48:3b:a2:fa:02:0a:dc:84:01:8a:87:02:
         fb:59:ee:a7:4c:04:7d:74:99:87:6a:25:44:ad:16:aa:ec:4e:
         35:1b:7c:7b:84:c9:b1:3f:e1:82:70:e5:0d:e7:d9:6d:fa:95:
         b6:c5:e4:1e:e8:11:9b:d8:b2:f3:a4:fd:13:f3:83:4f:f7:07:
         14:20:bb:22:a5:a6:8f:d6:b5:db:a9:74:78:e2:93:0d:e5:23:
         2f:05:17:e0:b2:97:67:34:4d:0f:9c:76:43:7b:a6:21:4a:56:
         05:f6:2a:7c:f2:7f:12:94:82:26:29:07:f0:0b:6c:6c:79:14:
         b0:74:d5:6c
-----BEGIN CERTIFICATE-----
MIIDhzCCAm+gAwIBAgIBATANBgkqhkiG9w0BAQUFADB8MQswCQYDVQQGEwJVUzETMBEGA1UECAw
KQ2FsaWZvcm5pYTEWMBQGA1UEBwwNTW91bnRhaW4gVmlldzETMBEGA1UECgwKR29vZ2xlIEluYz
ESMBAGA1UECwwJR29vZ2xlIFRWMRcwFQYDVQQDDA5FdXJla2EgUm9vdCBDQTAeFw0xMjEyMTkwM
DQ3MTJaFw0zMjEyMTQwMDQ3MTJaMH0xCzAJBgNVBAYTAlVTMRMwEQYDVQQIDApDYWxpZm9ybmlh
MRYwFAYDVQQHDA1Nb3VudGFpbiBWaWV3MRMwEQYDVQQKDApHb29nbGUgSW5jMRIwEAYDVQQLDAl
Hb29nbGUgVFYxGDAWBgNVBAMMD0V1cmVrYSBHZW4xIElDQTCCASIwDQYJKoZIhvcNAQEBBQADgg
EPADCCAQoCggEBALwigL2A9johADuudl41fz3DZFxVlIY0LwWHKM33aYwXs1CnuIL638dDLdZ+q
6BvtxNygKRHFcEgmVDN7BRiCVukmM3SQbY2Tv/oLjIwSoGoQqNsmzNuyrL1U2bgJ1OGGoUepzk/
SneO+1RmZvtYVMBeOcf1UAYL4IrUzuFqVR+LFwDmaaMn5gglaTwSnY0FLNYuojHetFJQ1iBJ3nG
g+a0gQBLx3SXr1ea4NvTWj3/KQ9zXEFvmP1GKhbPz//YDLcsjT5ytGOeTBYysUpr3TOmZer5ufk
0K48YcqZP6OqWRXRy9ZuvMYNyGdMrP+JIcmH1X+mFHnquAt+RIgCqSxRsCAwEAAaMTMBEwDwYDV
R0TBAgwBgEB/wIBATANBgkqhkiG9w0BAQUFAAOCAQEAi9Shsc9dzXtsSEpBH1MvGC0yRf+eq9Nz
Ph8i1+r6AeZzAw8rxiW7pe7F9UXLJBIqrcJdBfR69cKbEBZa0QpzxRY5oBDK0WiFnvueJoOOWPN
3oE7l25e+LQBf9ZTbsZ1la/3w0QRR38ySppktcfVN1SP+MxyptKvFvxq40YDvicniH5xMSDui+g
IK3IQBiocC+1nup0wEfXSZh2olRK0WquxONRt8e4TJsT/hgnDlDefZbfqVtsXkHugRm9iy86T9E
/ODT/cHFCC7IqWmj9a126l0eOKTDeUjLwUX4LKXZzRND5x2Q3umIUpWBfYqfPJ/EpSCJikH8Ats
bHkUsHTVbA==
-----END CERTIFICATE-----
