$ openssl x509 -text -noout < [CERTIFICATE]
Certificate:
    Data:
        Version: 3 (0x2)
        Serial Number: 1405898540 (0x53cc4f2c)
    Signature Algorithm: sha1WithRSAEncryption
        Issuer: C=US, ST=California, L=Mountain View, O=Google Inc, OU=Google TV, CN=Eureka Gen1 ICA
        Validity
            Not Before: Jul 20 23:22:20 2014 GMT
            Not After : Jul 15 23:22:20 2034 GMT
        Subject: C=US, ST=California, O=Google Inc, L=Mountain View, OU=Google TV, CN=2ZZBG9 FA8FCA3EF91A
        Subject Public Key Info:
            Public Key Algorithm: rsaEncryption
                Public-Key: (2048 bit)
                Modulus:
                    00:a5:79:e9:2a:de:73:67:8f:96:a0:cf:e9:ca:85:
                    3e:ec:14:e0:c3:ac:ec:c3:9c:18:3a:ef:75:ae:aa:
                    cb:ab:56:0b:b0:66:b2:a8:a9:30:0f:e1:9f:be:e2:
                    52:20:59:b3:0d:d3:6d:44:27:55:f9:8c:e1:94:36:
                    44:43:73:72:b0:09:eb:c7:26:73:e9:4f:c6:64:6b:
                    f3:1d:57:bb:91:73:67:e9:1c:c9:4f:20:94:b2:ea:
                    76:25:d8:10:a4:5b:a0:58:42:ec:13:34:e4:ed:57:
                    38:bb:f3:0a:5b:38:ce:e6:6e:32:b1:8d:14:15:be:
                    62:80:66:16:25:c5:61:60:61:6a:96:42:dd:18:61:
                    95:21:19:16:e4:16:6d:bf:cc:51:20:f3:c2:bf:c2:
                    45:b9:f8:b4:a1:cc:bf:81:64:c3:91:c0:9e:12:da:
                    fb:25:df:80:21:b0:a8:e7:7d:19:e8:ea:50:ab:0e:
                    fd:a6:a3:00:79:0c:ee:52:07:9a:f9:2d:84:8e:0c:
                    56:4d:0a:a1:cf:88:87:8f:3b:a6:0b:0e:b7:5f:0b:
                    aa:e6:d9:54:49:1b:8c:2a:a9:46:9c:75:08:66:c4:
                    ad:69:f0:da:9b:4f:bc:c0:84:0b:a7:bb:9a:b6:07:
                    71:88:26:bb:34:3b:9b:e7:94:96:1b:61:11:48:93:
                    60:2d
                Exponent: 65537 (0x10001)
        X509v3 extensions:
            X509v3 Basic Constraints: 
                CA:FALSE
            X509v3 Key Usage: 
                Digital Signature
            X509v3 Extended Key Usage: 
                TLS Web Client Authentication
    Signature Algorithm: sha1WithRSAEncryption
         6b:8a:80:65:c7:25:74:35:33:b3:f8:b9:70:7c:c0:f3:ee:4f:
         68:7a:83:6f:58:27:ad:ab:52:f6:7b:06:b9:56:4e:49:c9:4f:
         43:b0:6b:0e:bc:cd:ea:4b:84:54:38:c9:d2:33:6d:55:77:84:
         0d:88:9c:29:8f:dd:4d:b8:64:cc:4c:25:c0:3f:f6:a3:4f:02:
         a3:eb:b4:4d:59:21:03:48:42:1e:ac:94:07:59:6b:4a:8c:e9:
         4b:37:d3:fe:5f:a5:42:fa:96:00:1f:0f:54:48:27:10:38:45:
         66:19:28:fe:fc:4a:32:73:d4:bc:9b:c7:76:5b:b7:42:62:b2:
         df:46:b6:f6:89:19:98:d9:ad:d3:e7:72:72:4a:6b:21:9a:22:
         59:fc:83:31:dd:e8:c5:44:19:9a:7b:68:84:19:da:1e:0d:0e:
         59:eb:c3:28:4c:15:38:e0:d5:6b:e7:99:02:7a:dd:b1:2f:8d:
         2c:a3:30:68:58:d0:93:94:68:3a:7f:50:cc:67:13:19:fe:d7:
         e7:18:01:6f:4b:ae:8b:19:5e:d4:43:34:94:e5:d7:35:f8:6a:
         e0:27:34:c1:e4:b7:cb:82:17:c2:61:cb:cd:17:db:05:34:7e:
         3f:39:a1:86:d1:b2:6f:a3:04:cb:51:6b:2c:e7:63:54:d1:d1:
         6a:0f:04:0a
-----BEGIN CERTIFICATE-----
MIIDrDCCApSgAwIBAgIEU8xPLDANBgkqhkiG9w0BAQUFADB9MQswCQYDVQQGEwJVUzETMBEGA1U
ECAwKQ2FsaWZvcm5pYTEWMBQGA1UEBwwNTW91bnRhaW4gVmlldzETMBEGA1UECgwKR29vZ2xlIE
luYzESMBAGA1UECwwJR29vZ2xlIFRWMRgwFgYDVQQDDA9FdXJla2EgR2VuMSBJQ0EwHhcNMTQwN
zIwMjMyMjIwWhcNMzQwNzE1MjMyMjIwWjCBgTELMAkGA1UEBhMCVVMxEzARBgNVBAgTCkNhbGlm
b3JuaWExEzARBgNVBAoTCkdvb2dsZSBJbmMxFjAUBgNVBAcTDU1vdW50YWluIFZpZXcxEjAQBgN
VBAsTCUdvb2dsZSBUVjEcMBoGA1UEAxMTMlpaQkc5IEZBOEZDQTNFRjkxQTCCASIwDQYJKoZIhv
cNAQEBBQADggEPADCCAQoCggEBAKV56Srec2ePlqDP6cqFPuwU4MOs7MOcGDrvda6qy6tWC7Bms
qipMA/hn77iUiBZsw3TbUQnVfmM4ZQ2RENzcrAJ68cmc+lPxmRr8x1Xu5FzZ+kcyU8glLLqdiXY
EKRboFhC7BM05O1XOLvzCls4zuZuMrGNFBW+YoBmFiXFYWBhapZC3RhhlSEZFuQWbb/MUSDzwr/
CRbn4tKHMv4Fkw5HAnhLa+yXfgCGwqOd9GejqUKsO/aajAHkM7lIHmvkthI4MVk0Koc+Ih487pg
sOt18LqubZVEkbjCqpRpx1CGbErWnw2ptPvMCEC6e7mrYHcYgmuzQ7m+eUlhthEUiTYC0CAwEAA
aMvMC0wCQYDVR0TBAIwADALBgNVHQ8EBAMCB4AwEwYDVR0lBAwwCgYIKwYBBQUHAwIwDQYJKoZI
hvcNAQEFBQADggEBAGuKgGXHJXQ1M7P4uXB8wPPuT2h6g29YJ62rUvZ7BrlWTknJT0Owaw68zep
LhFQ4ydIzbVV3hA2InCmP3U24ZMxMJcA/9qNPAqPrtE1ZIQNIQh6slAdZa0qM6Us30/5fpUL6lg
AfD1RIJxA4RWYZKP78SjJz1Lybx3Zbt0Jist9GtvaJGZjZrdPncnJKayGaIln8gzHd6MVEGZp7a
IQZ2h4NDlnrwyhMFTjg1WvnmQJ63bEvjSyjMGhY0JOUaDp/UMxnExn+1+cYAW9LrosZXtRDNJTl
1zX4auAnNMHkt8uCF8Jhy80X2wU0fj85oYbRsm+jBMtRayznY1TR0WoPBAo=
-----END CERTIFICATE-----

$ openssl x509 -text -noout < [CERTIFICATE]
Certificate:
    Data:
        Version: 3 (0x2)
        Serial Number: 3 (0x3)
    Signature Algorithm: sha1WithRSAEncryption
        Issuer: C=US, ST=California, L=Mountain View, O=Google Inc, OU=Cast, CN=Cast Root CA
        Validity
            Not Before: Apr  2 20:58:54 2014 GMT
            Not After : Apr  2 20:58:54 2019 GMT
        Subject: C=US, ST=California, L=Mountain View, O=Google Inc, OU=Google TV, CN=Eureka Gen1 ICA
        Subject Public Key Info:
            Public Key Algorithm: rsaEncryption
                Public-Key: (2048 bit)
                Modulus:
                    00:bc:22:80:bd:80:f6:3a:21:00:3b:ae:76:5e:35:
                    7f:3d:c3:64:5c:55:94:86:34:2f:05:87:28:cd:f7:
                    69:8c:17:b3:50:a7:b8:82:fa:df:c7:43:2d:d6:7e:
                    ab:a0:6f:b7:13:72:80:a4:47:15:c1:20:99:50:cd:
                    ec:14:62:09:5b:a4:98:cd:d2:41:b6:36:4e:ff:e8:
                    2e:32:30:4a:81:a8:42:a3:6c:9b:33:6e:ca:b2:f5:
                    53:66:e0:27:53:86:1a:85:1e:a7:39:3f:4a:77:8e:
                    fb:54:66:66:fb:58:54:c0:5e:39:c7:f5:50:06:0b:
                    e0:8a:d4:ce:e1:6a:55:1f:8b:17:00:e6:69:a3:27:
                    e6:08:25:69:3c:12:9d:8d:05:2c:d6:2e:a2:31:de:
                    b4:52:50:d6:20:49:de:71:a0:f9:ad:20:40:12:f1:
                    dd:25:eb:d5:e6:b8:36:f4:d6:8f:7f:ca:43:dc:d7:
                    10:5b:e6:3f:51:8a:85:b3:f3:ff:f6:03:2d:cb:23:
                    4f:9c:ad:18:e7:93:05:8c:ac:52:9a:f7:4c:e9:99:
                    7a:be:6e:7e:4d:0a:e3:c6:1c:a9:93:fa:3a:a5:91:
                    5d:1c:bd:66:eb:cc:60:dc:86:74:ca:cf:f8:92:1c:
                    98:7d:57:fa:61:47:9e:ab:80:b7:e4:48:80:2a:92:
                    c5:1b
                Exponent: 65537 (0x10001)
        X509v3 extensions:
            X509v3 Basic Constraints: 
                CA:TRUE, pathlen:0
            X509v3 Subject Key Identifier: 
                32:AF:7E:6C:A1:DD:28:42:E5:B3:E1:59:A7:5A:39:C9:FF:8A:62:9F
            X509v3 Authority Key Identifier: 
                keyid:7C:9A:1E:7D:DF:79:54:BC:D7:CC:5E:CA:99:86:45:79:65:74:28:19

            X509v3 Key Usage: 
                Certificate Sign, CRL Sign
    Signature Algorithm: sha1WithRSAEncryption
         13:c4:35:8f:62:1a:de:aa:b1:ce:72:ab:82:4e:3b:a1:04:a9:
         86:ca:56:d9:12:7f:50:2a:5b:6c:89:73:83:38:11:9e:b9:78:
         0e:9b:a6:3f:44:54:82:af:0f:16:2a:34:8e:ea:e3:47:fb:8c:
         25:e2:4b:e6:3b:dc:e5:c5:68:2d:d7:b9:ef:3e:0d:5e:d6:56:
         30:2f:7f:d4:18:cb:bf:68:86:76:ea:69:d0:38:53:f4:9b:ee:
         fc:38:03:3c:13:28:23:25:1f:67:d4:27:93:c2:34:57:d3:8f:
         a9:40:91:e6:4e:87:1b:5e:82:71:0c:4c:80:7c:ce:f5:c4:6f:
         8d:87:d2:13:78:53:14:51:84:27:8a:4b:db:48:94:09:88:42:
         5d:62:6f:48:d3:0c:33:7a:22:04:18:b2:5a:f1:d1:dc:99:cc:
         10:2c:46:87:2a:fd:dd:f2:71:75:fb:d6:23:32:92:82:07:67:
         ba:cd:27:66:c3:31:d7:51:74:59:36:0f:42:e3:8f:87:d9:8e:
         b4:0d:c8:3e:26:a2:df:fd:9a:a4:ab:17:54:36:fc:07:56:40:
         ed:e9:24:e3:5c:5d:15:91:ca:72:78:21:a9:f7:b1:67:6a:d8:
         1e:43:ab:c2:33:92:aa:e3:33:b9:4e:ab:d6:04:43:e8:4c:45:
         d9:8e:1c:fe
-----BEGIN CERTIFICATE-----
MIIDzTCCArWgAwIBAgIBAzANBgkqhkiG9w0BAQUFADB1MQswCQYDVQQGEwJVUzETMBEGA1UECAw
KQ2FsaWZvcm5pYTEWMBQGA1UEBwwNTW91bnRhaW4gVmlldzETMBEGA1UECgwKR29vZ2xlIEluYz
ENMAsGA1UECwwEQ2FzdDEVMBMGA1UEAwwMQ2FzdCBSb290IENBMB4XDTE0MDQwMjIwNTg1NFoXD
TE5MDQwMjIwNTg1NFowfTELMAkGA1UEBhMCVVMxEzARBgNVBAgMCkNhbGlmb3JuaWExFjAUBgNV
BAcMDU1vdW50YWluIFZpZXcxEzARBgNVBAoMCkdvb2dsZSBJbmMxEjAQBgNVBAsMCUdvb2dsZSB
UVjEYMBYGA1UEAwwPRXVyZWthIEdlbjEgSUNBMIIBIjANBgkqhkiG9w0BAQEFAAOCAQ8AMIIBCg
KCAQEAvCKAvYD2OiEAO652XjV/PcNkXFWUhjQvBYcozfdpjBezUKe4gvrfx0Mt1n6roG+3E3KAp
EcVwSCZUM3sFGIJW6SYzdJBtjZO/+guMjBKgahCo2ybM27KsvVTZuAnU4YahR6nOT9Kd477VGZm
+1hUwF45x/VQBgvgitTO4WpVH4sXAOZpoyfmCCVpPBKdjQUs1i6iMd60UlDWIEnecaD5rSBAEvH
dJevV5rg29NaPf8pD3NcQW+Y/UYqFs/P/9gMtyyNPnK0Y55MFjKxSmvdM6Zl6vm5+TQrjxhypk/
o6pZFdHL1m68xg3IZ0ys/4khyYfVf6YUeeq4C35EiAKpLFGwIDAQABo2AwXjAPBgNVHRMECDAGA
QH/AgEAMB0GA1UdDgQWBBQyr35sod0oQuWz4VmnWjnJ/4pinzAfBgNVHSMEGDAWgBR8mh5933lU
vNfMXsqZhkV5ZXQoGTALBgNVHQ8EBAMCAQYwDQYJKoZIhvcNAQEFBQADggEBABPENY9iGt6qsc5
yq4JOO6EEqYbKVtkSf1AqW2yJc4M4EZ65eA6bpj9EVIKvDxYqNI7q40f7jCXiS+Y73OXFaC3Xue
8+DV7WVjAvf9QYy79ohnbqadA4U/Sb7vw4AzwTKCMlH2fUJ5PCNFfTj6lAkeZOhxtegnEMTIB8z
vXEb42H0hN4UxRRhCeKS9tIlAmIQl1ib0jTDDN6IgQYslrx0dyZzBAsRocq/d3ycXX71iMykoIH
Z7rNJ2bDMddRdFk2D0Ljj4fZjrQNyD4mot/9mqSrF1Q2/AdWQO3pJONcXRWRynJ4Ian3sWdq2B5
Dq8IzkqrjM7lOq9YEQ+hMRdmOHP4=
-----END CERTIFICATE-----
