$ openssl x509 -text -noout < [CERTIFICATE]
Certificate:
    Data:
        Version: 3 (0x2)
        Serial Number: 1433968342 (0x55789ed6)
    Signature Algorithm: sha1WithRSAEncryption
        Issuer: C=US, ST=California, L=Mountain View, O=Google Inc, OU=Cast, CN=Chromecast ICA 4 (Audio)
        Validity
            Not Before: Jun 10 20:32:22 2015 GMT
            Not After : Jun  5 20:32:22 2035 GMT
        Subject: C=US, OU=Cast, O=Google Inc, ST=California, L=Mountain View, CN=4ZZDZJ FA8FCA7EFE3C
        Subject Public Key Info:
            Public Key Algorithm: rsaEncryption
                Public-Key: (2048 bit)
                Modulus:
                    00:c4:3e:ea:f8:56:0d:71:58:f2:c0:4e:06:59:dd:
                    67:3a:14:2a:ac:f9:e9:30:5d:be:f7:e3:e0:55:c6:
                    fb:d4:25:9e:9c:5d:d0:95:7d:cd:32:54:bf:df:e9:
                    0c:f0:81:0e:bb:94:28:9d:4d:97:f7:2b:3c:2b:96:
                    a6:fe:fc:22:f4:43:4a:c3:11:0e:91:6d:3a:7a:00:
                    9c:c3:00:05:a7:05:04:7e:14:85:79:21:ef:32:e1:
                    d1:d0:98:1e:92:32:73:1a:3c:77:a3:06:14:0a:44:
                    3f:ac:f4:36:51:07:49:f4:e3:a4:5c:10:03:01:08:
                    0b:b4:4a:1b:6e:bc:ef:2a:e1:44:73:d5:84:d7:8e:
                    72:9c:e8:6a:fb:63:ee:53:fa:88:16:31:77:f9:55:
                    1a:37:31:89:15:15:66:47:74:8a:ba:0c:a6:38:cd:
                    74:00:88:fe:d5:08:f0:03:a6:e4:7a:17:4b:22:8e:
                    e9:6c:78:2c:4c:1f:f8:11:c6:aa:24:b2:68:c3:ed:
                    86:c8:bc:54:cd:cf:68:ed:48:f8:d3:64:c6:c2:4b:
                    df:eb:70:dd:97:10:9f:cf:a6:cb:bd:70:9b:44:65:
                    4f:b0:b3:78:cc:96:ac:6a:c9:f0:17:fe:d3:a5:90:
                    fc:78:7f:1e:50:0f:ce:ac:1b:05:70:dc:e5:67:30:
                    c3:bd
                Exponent: 65537 (0x10001)
        X509v3 extensions:
            X509v3 Basic Constraints: 
                CA:FALSE
            X509v3 Key Usage: 
                Digital Signature
            X509v3 Extended Key Usage: 
                TLS Web Client Authentication
            X509v3 Certificate Policies: 
                Policy: 1.3.6.1.4.1.11129.2.5.2

    Signature Algorithm: sha1WithRSAEncryption
         7b:f4:9a:9a:5f:22:0b:6b:44:14:d1:a4:11:35:53:77:25:da:
         f5:f3:bb:b8:b3:37:39:a4:30:56:ab:dc:2c:7c:ae:44:36:59:
         37:86:cb:23:01:bb:d9:60:6d:9c:e2:f5:d2:ac:b6:f3:5a:93:
         c5:3c:b1:8d:23:a9:7b:44:0d:e6:5f:cc:7b:37:29:86:20:c0:
         f9:f4:55:3d:d4:51:4d:a1:79:9b:c5:94:3b:41:3d:7f:fa:5d:
         15:8e:34:99:b4:4a:42:a1:64:7b:89:6c:f7:20:e8:af:0d:56:
         15:86:87:b2:5a:c8:22:ca:03:39:1f:6e:57:ec:bf:ad:1c:9c:
         53:24:5f:04:88:42:2e:6e:22:27:76:e8:21:b6:68:f2:ed:55:
         e2:09:8b:d9:25:53:df:46:e4:f6:5d:44:e1:d2:80:2d:25:d1:
         fd:28:0a:b4:ee:f7:af:cd:38:44:d1:d6:f4:1c:52:6c:3d:30:
         ae:54:63:72:e3:d1:2a:41:c1:ab:a8:41:f7:bc:53:63:d0:07:
         72:12:f1:5b:df:bf:7c:51:8f:d8:de:9c:bc:c5:3e:e4:31:a4:
         8f:80:42:ec:55:32:55:aa:ab:e3:60:4e:41:35:af:fd:69:bf:
         a4:f9:e4:b9:de:2a:16:bd:20:ca:84:89:26:d6:70:02:60:39:
         39:11:3e:ae
-----BEGIN CERTIFICATE-----
MIIDxDCCAqygAwIBAgIEVXie1jANBgkqhkiG9w0BAQUFADCBgTELMAkGA1UEBhMCVVMxEzARBgN
VBAgMCkNhbGlmb3JuaWExFjAUBgNVBAcMDU1vdW50YWluIFZpZXcxEzARBgNVBAoMCkdvb2dsZS
BJbmMxDTALBgNVBAsMBENhc3QxITAfBgNVBAMMGENocm9tZWNhc3QgSUNBIDQgKEF1ZGlvKTAeF
w0xNTA2MTAyMDMyMjJaFw0zNTA2MDUyMDMyMjJaMHwxCzAJBgNVBAYTAlVTMQ0wCwYDVQQLDARD
YXN0MRMwEQYDVQQKDApHb29nbGUgSW5jMRMwEQYDVQQIDApDYWxpZm9ybmlhMRYwFAYDVQQHDA1
Nb3VudGFpbiBWaWV3MRwwGgYDVQQDDBM0WlpEWkogRkE4RkNBN0VGRTNDMIIBIjANBgkqhkiG9w
0BAQEFAAOCAQ8AMIIBCgKCAQEAxD7q+FYNcVjywE4GWd1nOhQqrPnpMF2+9+PgVcb71CWenF3Ql
X3NMlS/3+kM8IEOu5QonU2X9ys8K5am/vwi9ENKwxEOkW06egCcwwAFpwUEfhSFeSHvMuHR0Jge
kjJzGjx3owYUCkQ/rPQ2UQdJ9OOkXBADAQgLtEobbrzvKuFEc9WE145ynOhq+2PuU/qIFjF3+VU
aNzGJFRVmR3SKugymOM10AIj+1QjwA6bkehdLIo7pbHgsTB/4EcaqJLJow+2GyLxUzc9o7Uj402
TGwkvf63DdlxCfz6bLvXCbRGVPsLN4zJasasnwF/7TpZD8eH8eUA/OrBsFcNzlZzDDvQIDAQABo
0gwRjAJBgNVHRMEAjAAMAsGA1UdDwQEAwIHgDATBgNVHSUEDDAKBggrBgEFBQcDAjAXBgNVHSAE
EDAOMAwGCisGAQQB1nkCBQIwDQYJKoZIhvcNAQEFBQADggEBAHv0mppfIgtrRBTRpBE1U3cl2vX
zu7izNzmkMFar3Cx8rkQ2WTeGyyMBu9lgbZzi9dKstvNak8U8sY0jqXtEDeZfzHs3KYYgwPn0VT
3UUU2heZvFlDtBPX/6XRWONJm0SkKhZHuJbPcg6K8NVhWGh7JayCLKAzkfblfsv60cnFMkXwSIQ
i5uIid26CG2aPLtVeIJi9klU99G5PZdROHSgC0l0f0oCrTu96/NOETR1vQcUmw9MK5UY3Lj0SpB
wauoQfe8U2PQB3IS8Vvfv3xRj9jenLzFPuQxpI+AQuxVMlWqq+NgTkE1r/1pv6T55LneKha9IMq
EiSbWcAJgOTkRPq4=
-----END CERTIFICATE-----

$ openssl x509 -text -noout < [CERTIFICATE]
Certificate:
    Data:
        Version: 3 (0x2)
        Serial Number: 37 (0x25)
    Signature Algorithm: sha256WithRSAEncryption
        Issuer: C=US, ST=California, L=Mountain View, O=Google Inc, OU=Cast, CN=Cast Root CA
        Validity
            Not Before: Mar 12 16:44:57 2015 GMT
            Not After : Mar  9 16:44:57 2025 GMT
        Subject: C=US, ST=California, L=Mountain View, O=Google Inc, OU=Cast, CN=Chromecast ICA 4 (Audio)
        Subject Public Key Info:
            Public Key Algorithm: rsaEncryption
                Public-Key: (2048 bit)
                Modulus:
                    00:ac:a9:bd:6d:00:4e:29:19:6a:c9:ae:3a:b4:14:
                    89:4b:e2:49:4d:33:90:2c:fb:b7:2c:0c:89:c3:a0:
                    c9:5b:40:63:e3:d1:b7:83:f9:24:dc:39:c4:6c:c4:
                    a0:9f:37:b5:1c:8e:cd:c4:c9:bb:32:cd:b5:6b:28:
                    b7:f2:18:d9:4c:b8:23:cc:a3:4d:4d:49:d6:f8:6d:
                    fe:7d:a9:ea:91:9f:d9:ae:7b:8c:7d:6a:16:56:3b:
                    ee:56:cc:0c:dd:d5:6e:42:d8:31:6d:a6:3f:99:a6:
                    40:de:01:a1:63:56:58:3d:b7:3f:39:c4:58:87:7a:
                    15:5f:2d:6d:2f:9e:e8:6a:e3:a2:7a:1b:07:f0:ab:
                    29:d0:54:7d:ed:97:8c:75:33:22:99:b7:dd:63:3b:
                    1f:d7:3e:d9:00:4a:f4:b2:03:f9:30:f4:cd:82:0b:
                    00:97:33:6b:e7:9c:04:93:39:7e:76:15:f5:3d:6c:
                    b9:81:75:b1:e6:c6:ae:80:ba:4e:dd:48:77:df:47:
                    12:99:01:ed:fc:d7:c9:8b:cb:61:f8:90:07:7b:93:
                    89:57:36:8f:bb:68:4a:1d:d7:d5:49:d6:e0:4d:c6:
                    02:7a:ee:5c:0a:2c:8c:b7:6d:13:00:cb:7f:4a:3e:
                    7c:26:1d:71:00:f5:27:a5:5b:c8:28:eb:27:51:0c:
                    15:bd
                Exponent: 65537 (0x10001)
        X509v3 extensions:
            X509v3 Basic Constraints: 
                CA:TRUE, pathlen:0
            X509v3 Subject Key Identifier: 
                13:E1:5D:44:05:FF:C8:1F:B1:53:30:2D:55:B0:85:FE:8B:2D:0D:9C
            X509v3 Authority Key Identifier: 
                keyid:7C:9A:1E:7D:DF:79:54:BC:D7:CC:5E:CA:99:86:45:79:65:74:28:19

            X509v3 Key Usage: 
                Certificate Sign, CRL Sign
            X509v3 Certificate Policies: 
                Policy: 1.3.6.1.4.1.11129.2.5.2

    Signature Algorithm: sha256WithRSAEncryption
         97:d5:df:b8:d0:47:fd:50:48:26:8b:7d:a5:16:72:d0:90:75:
         6e:8c:67:a4:8b:6f:50:7e:1c:b7:21:3c:16:40:b5:4e:74:d9:
         44:98:5c:5a:0b:ed:07:2e:f2:eb:32:05:6e:75:7f:bb:18:92:
         58:38:ae:20:71:ad:9a:50:3a:df:ec:b5:8d:11:fb:62:b7:96:
         6f:e0:32:b7:4b:66:8c:e2:ab:8c:48:d3:93:4a:be:81:4b:25:
         4e:82:54:b1:a4:3c:54:9b:16:44:14:3e:5e:bc:0f:ff:1e:12:
         2e:0c:ad:5f:40:6e:f1:92:69:57:48:00:e2:4a:23:8a:8c:06:
         bc:6e:f0:c9:90:62:48:de:a9:43:2e:cf:5f:41:24:17:d9:1d:
         4c:01:ff:42:4b:c4:a0:04:21:46:4b:c9:58:2c:03:53:69:34:
         a5:07:78:46:d7:87:32:4c:18:96:d0:8c:80:90:0a:55:ec:db:
         a5:7a:bd:88:2b:b4:2f:ce:53:a4:5f:8b:8d:b3:fb:30:0b:2d:
         40:d0:76:4e:50:b0:3a:3f:b2:d6:fa:f1:d6:42:f0:b1:0d:a3:
         db:a4:ce:4d:2a:04:24:c9:6e:f8:3a:9d:ed:f0:6a:6e:4d:de:
         50:af:56:eb:a6:ea:2b:7f:74:87:9f:85:14:c7:a9:c0:dd:c1:
         f3:25:b5:b3
-----BEGIN CERTIFICATE-----
MIID6zCCAtOgAwIBAgIBJTANBgkqhkiG9w0BAQsFADB1MQswCQYDVQQGEwJVUzETMBEGA1UECAw
KQ2FsaWZvcm5pYTEWMBQGA1UEBwwNTW91bnRhaW4gVmlldzETMBEGA1UECgwKR29vZ2xlIEluYz
ENMAsGA1UECwwEQ2FzdDEVMBMGA1UEAwwMQ2FzdCBSb290IENBMB4XDTE1MDMxMjE2NDQ1N1oXD
TI1MDMwOTE2NDQ1N1owgYExCzAJBgNVBAYTAlVTMRMwEQYDVQQIDApDYWxpZm9ybmlhMRYwFAYD
VQQHDA1Nb3VudGFpbiBWaWV3MRMwEQYDVQQKDApHb29nbGUgSW5jMQ0wCwYDVQQLDARDYXN0MSE
wHwYDVQQDDBhDaHJvbWVjYXN0IElDQSA0IChBdWRpbykwggEiMA0GCSqGSIb3DQEBAQUAA4IBDw
AwggEKAoIBAQCsqb1tAE4pGWrJrjq0FIlL4klNM5As+7csDInDoMlbQGPj0beD+STcOcRsxKCfN
7Ucjs3EybsyzbVrKLfyGNlMuCPMo01NSdb4bf59qeqRn9mue4x9ahZWO+5WzAzd1W5C2DFtpj+Z
pkDeAaFjVlg9tz85xFiHehVfLW0vnuhq46J6GwfwqynQVH3tl4x1MyKZt91jOx/XPtkASvSyA/k
w9M2CCwCXM2vnnASTOX52FfU9bLmBdbHmxq6Auk7dSHffRxKZAe3818mLy2H4kAd7k4lXNo+7aE
od19VJ1uBNxgJ67lwKLIy3bRMAy39KPnwmHXEA9SelW8go6ydRDBW9AgMBAAGjeTB3MA8GA1UdE
wQIMAYBAf8CAQAwHQYDVR0OBBYEFBPhXUQF/8gfsVMwLVWwhf6LLQ2cMB8GA1UdIwQYMBaAFHya
Hn3feVS818xeypmGRXlldCgZMAsGA1UdDwQEAwIBBjAXBgNVHSAEEDAOMAwGCisGAQQB1nkCBQI
wDQYJKoZIhvcNAQELBQADggEBAJfV37jQR/1QSCaLfaUWctCQdW6MZ6SLb1B+HLchPBZAtU502U
SYXFoL7Qcu8usyBW51f7sYklg4riBxrZpQOt/stY0R+2K3lm/gMrdLZoziq4xI05NKvoFLJU6CV
LGkPFSbFkQUPl68D/8eEi4MrV9AbvGSaVdIAOJKI4qMBrxu8MmQYkjeqUMuz19BJBfZHUwB/0JL
xKAEIUZLyVgsA1NpNKUHeEbXhzJMGJbQjICQClXs26V6vYgrtC/OU6Rfi42z+zALLUDQdk5QsDo
/stb68dZC8LENo9ukzk0qBCTJbvg6ne3wam5N3lCvVuum6it/dIefhRTHqcDdwfMltbM=
-----END CERTIFICATE-----
