Certificate chain:

CastDevice -> CastIntermediate -> Expired CastRoot

The chain is valid, however, the root has a much shorter validity range than
the other certificates:

 * Root is valid only from January 2015 - March 2015
 * The other two certificates are valid from January 2015 - January 2017


Certificate:
    Data:
        Version: 3 (0x2)
        Serial Number: 1 (0x1)
    Signature Algorithm: sha256WithRSAEncryption
        Issuer: CN=CastIntermediate
        Validity
            Not Before: Jan  1 12:00:00 2015 GMT
            Not After : Jan  1 12:00:00 2017 GMT
        Subject: CN=CastDevice
        Subject Public Key Info:
            Public Key Algorithm: rsaEncryption
                Public-Key: (2048 bit)
                Modulus:
                    00:f4:fe:d8:79:1a:e2:fc:d0:05:a8:8a:bf:c6:c7:
                    ba:2a:44:21:93:08:f4:39:af:73:0a:1b:e7:48:9c:
                    43:e3:13:b3:c4:53:51:04:c6:29:57:24:f5:77:4d:
                    53:c8:d1:b8:d1:4f:06:55:00:ed:70:2c:2e:80:09:
                    29:23:bb:f4:cc:30:d9:55:ee:54:ce:96:b0:c0:25:
                    e1:fd:12:26:f4:85:a1:56:f9:e8:58:78:3e:76:9a:
                    b5:3c:7a:00:67:b2:fb:0c:74:62:92:33:29:3b:8e:
                    c1:87:45:83:32:1f:75:a4:f4:28:7f:f0:75:85:1c:
                    5e:18:47:d7:94:24:bb:77:0a:2a:1d:26:4a:ff:7a:
                    54:31:0e:4f:57:d3:8e:01:61:57:75:f7:70:77:b5:
                    76:76:47:ab:04:6b:1d:ed:03:ee:4d:d0:d6:38:f4:
                    fa:9d:40:f2:44:2c:41:06:e0:6d:f3:94:bf:a2:5f:
                    37:ef:20:54:a6:37:fc:3c:90:f6:c9:01:20:b0:03:
                    af:f1:73:de:f0:d4:e4:32:f5:e1:a5:7e:39:22:4c:
                    53:e8:3a:5b:fc:eb:12:34:14:01:b5:03:a0:ca:71:
                    7e:89:8e:cb:79:56:f2:52:f9:8a:53:1b:35:96:99:
                    d5:e5:ce:52:e3:1c:dc:68:bb:d0:43:66:fc:d3:22:
                    78:fb
                Exponent: 65537 (0x10001)
        X509v3 extensions:
            X509v3 Subject Key Identifier: 
                E6:2E:B8:E3:AD:13:64:56:BA:BF:1B:0D:61:14:8D:3C:B1:C2:53:11
            X509v3 Authority Key Identifier: 
                keyid:FC:08:B8:7D:0B:4B:71:EC:93:02:51:CB:13:83:BD:6B:77:37:97:AF

            Authority Information Access: 
                CA Issuers - URI:http://url-for-aia/CastIntermediate.cer

            X509v3 CRL Distribution Points: 

                Full Name:
                  URI:http://url-for-crl/CastIntermediate.crl

            X509v3 Key Usage: critical
                Digital Signature, Key Encipherment
            X509v3 Extended Key Usage: 
                TLS Web Server Authentication, TLS Web Client Authentication
    Signature Algorithm: sha256WithRSAEncryption
         3b:87:2b:8d:b6:f1:30:81:46:52:b8:6f:07:4c:45:0b:44:59:
         67:02:f6:16:64:96:86:f1:7b:06:13:06:3d:1b:9c:bf:67:ad:
         6e:6c:29:7a:68:62:96:1a:02:42:04:e5:74:fb:dd:4c:de:44:
         0f:72:11:ec:17:27:b2:da:c5:ee:16:5d:de:9d:70:5b:70:2a:
         3f:76:62:54:8b:ee:3c:76:06:6d:34:b1:8a:d1:ec:d4:24:38:
         4a:0c:d1:e8:34:16:79:e4:42:e5:26:4c:b8:e7:b5:0c:1d:74:
         1f:7c:13:f4:3b:73:14:c8:0c:1f:60:a4:0e:4c:7d:b7:5e:84:
         b2:d2:13:23:0b:59:e3:d7:d1:2a:47:cd:1d:ef:eb:44:47:da:
         56:c2:75:83:11:78:d4:1a:2f:39:15:6c:13:fa:61:a7:10:5e:
         d7:5d:a1:2d:51:2c:f8:cc:d2:b9:ec:82:5c:14:d0:78:8d:ff:
         9a:83:75:54:d0:af:1a:3f:ae:fd:92:e1:e1:88:fc:e9:57:d1:
         37:35:b0:cc:77:ca:1f:a0:64:f1:2b:fe:ff:21:cd:17:9a:19:
         ad:7e:92:67:6b:b6:f5:8f:2d:42:83:1b:ac:78:23:07:64:3d:
         17:ac:06:0d:38:86:64:82:dd:ad:c1:2c:c8:63:06:fb:43:25:
         aa:df:44:b6
-----BEGIN CERTIFICATE-----
MIIDnTCCAoWgAwIBAgIBATANBgkqhkiG9w0BAQsFADAbMRkwFwYDVQQDDBBDYXN0
SW50ZXJtZWRpYXRlMB4XDTE1MDEwMTEyMDAwMFoXDTE3MDEwMTEyMDAwMFowFTET
MBEGA1UEAwwKQ2FzdERldmljZTCCASIwDQYJKoZIhvcNAQEBBQADggEPADCCAQoC
ggEBAPT+2Hka4vzQBaiKv8bHuipEIZMI9Dmvcwob50icQ+MTs8RTUQTGKVck9XdN
U8jRuNFPBlUA7XAsLoAJKSO79Mww2VXuVM6WsMAl4f0SJvSFoVb56Fh4PnaatTx6
AGey+wx0YpIzKTuOwYdFgzIfdaT0KH/wdYUcXhhH15Qku3cKKh0mSv96VDEOT1fT
jgFhV3X3cHe1dnZHqwRrHe0D7k3Q1jj0+p1A8kQsQQbgbfOUv6JfN+8gVKY3/DyQ
9skBILADr/Fz3vDU5DL14aV+OSJMU+g6W/zrEjQUAbUDoMpxfomOy3lW8lL5ilMb
NZaZ1eXOUuMc3Gi70ENm/NMiePsCAwEAAaOB8TCB7jAdBgNVHQ4EFgQU5i64460T
ZFa6vxsNYRSNPLHCUxEwHwYDVR0jBBgwFoAU/Ai4fQtLceyTAlHLE4O9a3c3l68w
QwYIKwYBBQUHAQEENzA1MDMGCCsGAQUFBzAChidodHRwOi8vdXJsLWZvci1haWEv
Q2FzdEludGVybWVkaWF0ZS5jZXIwOAYDVR0fBDEwLzAtoCugKYYnaHR0cDovL3Vy
bC1mb3ItY3JsL0Nhc3RJbnRlcm1lZGlhdGUuY3JsMA4GA1UdDwEB/wQEAwIFoDAd
BgNVHSUEFjAUBggrBgEFBQcDAQYIKwYBBQUHAwIwDQYJKoZIhvcNAQELBQADggEB
ADuHK4228TCBRlK4bwdMRQtEWWcC9hZklobxewYTBj0bnL9nrW5sKXpoYpYaAkIE
5XT73UzeRA9yEewXJ7Laxe4WXd6dcFtwKj92YlSL7jx2Bm00sYrR7NQkOEoM0eg0
FnnkQuUmTLjntQwddB98E/Q7cxTIDB9gpA5MfbdehLLSEyMLWePX0SpHzR3v60RH
2lbCdYMReNQaLzkVbBP6YacQXtddoS1RLPjM0rnsglwU0HiN/5qDdVTQrxo/rv2S
4eGI/OlX0Tc1sMx3yh+gZPEr/v8hzReaGa1+kmdrtvWPLUKDG6x4IwdkPResBg04
hmSC3a3BLMhjBvtDJarfRLY=
-----END CERTIFICATE-----

Certificate:
    Data:
        Version: 3 (0x2)
        Serial Number: 2 (0x2)
    Signature Algorithm: sha256WithRSAEncryption
        Issuer: CN=Expired CastRoot
        Validity
            Not Before: Jan  1 12:00:00 2015 GMT
            Not After : Jan  1 12:00:00 2017 GMT
        Subject: CN=CastIntermediate
        Subject Public Key Info:
            Public Key Algorithm: rsaEncryption
                Public-Key: (2048 bit)
                Modulus:
                    00:d0:e9:fc:cf:53:f5:92:54:18:6f:76:0f:f7:a7:
                    1a:ed:8e:43:e9:f2:7d:06:ff:37:02:9a:70:8b:6b:
                    80:86:0f:63:1c:8b:71:75:bf:13:a0:d0:84:f0:b1:
                    31:af:99:bf:44:8f:09:8c:ab:be:08:ef:bf:53:07:
                    d8:82:89:b1:9e:24:84:87:1f:ab:40:da:78:19:71:
                    6b:3f:93:9a:63:73:a2:47:2d:f2:54:3d:a7:a1:1c:
                    1e:f7:09:4c:3f:82:65:fd:a2:b6:d2:24:3d:99:8e:
                    87:9b:72:11:ae:65:f7:9e:0c:e3:14:dd:d6:01:b0:
                    b3:44:14:a2:1f:98:ec:72:86:4d:fe:3d:79:2b:82:
                    1a:8b:da:76:a0:3d:08:70:a5:fe:5a:50:20:c7:80:
                    2a:01:45:99:d8:a2:b1:36:88:83:dd:18:d5:38:e9:
                    b0:fc:6a:2d:c8:01:3b:a2:2d:44:3d:fb:c3:1e:74:
                    11:28:65:05:38:5d:07:c9:4a:ea:a3:de:5c:04:48:
                    67:2f:21:42:31:89:f1:89:e9:9d:34:c6:e9:c3:54:
                    c8:f9:e1:93:e4:88:7c:13:3f:99:ea:c2:ed:56:1e:
                    88:76:78:6a:ba:07:3c:7f:fb:97:5d:e3:15:8a:aa:
                    18:ba:d6:b0:9f:7c:f4:1a:65:25:15:6d:68:91:3d:
                    7a:59
                Exponent: 65537 (0x10001)
        X509v3 extensions:
            X509v3 Subject Key Identifier: 
                FC:08:B8:7D:0B:4B:71:EC:93:02:51:CB:13:83:BD:6B:77:37:97:AF
            X509v3 Authority Key Identifier: 
                keyid:5A:3F:8C:DB:8F:DC:98:CF:44:05:0C:CA:B6:69:E7:7A:96:F3:F9:43

            Authority Information Access: 
                CA Issuers - URI:http://url-for-aia/Expired CastRoot.cer

            X509v3 CRL Distribution Points: 

                Full Name:
                  URI:http://url-for-crl/Expired CastRoot.crl

            X509v3 Key Usage: critical
                Certificate Sign, CRL Sign
            X509v3 Basic Constraints: critical
                CA:TRUE
    Signature Algorithm: sha256WithRSAEncryption
         32:01:f4:33:b2:54:b9:07:d3:00:6a:84:21:43:f7:d6:99:1b:
         a2:52:1e:af:4e:89:09:e5:56:de:ae:4a:7e:8d:38:63:e6:48:
         f7:39:4a:6b:15:09:d6:a7:b2:dc:23:0e:83:c6:dc:13:9b:e7:
         f8:09:79:01:54:f0:90:b9:1c:22:22:9c:be:bd:b4:99:28:e3:
         6d:a0:d2:25:4c:f0:db:7e:d7:c6:92:d3:80:7e:1d:15:8a:ee:
         ba:26:c8:66:b2:85:d2:ae:88:b2:62:55:9b:79:e7:78:6f:c5:
         4c:60:a8:23:ab:f4:73:ac:17:e9:89:d8:a2:c6:b2:75:e3:c0:
         57:e6:a5:84:d4:20:14:2e:f1:c6:50:04:a4:6d:4b:2f:a9:39:
         ff:3d:4a:0e:57:b6:4f:f9:72:d0:82:f7:2a:10:18:a9:9f:da:
         19:eb:93:de:15:97:56:c9:0f:66:23:72:52:09:7a:e8:e9:dd:
         6f:4a:54:2d:5d:62:89:57:1d:42:99:e9:c4:3c:c8:c5:22:17:
         33:b0:7f:7d:36:f4:cf:5c:b6:08:af:42:ad:79:00:a4:e3:f3:
         57:ec:ee:d1:81:10:93:9e:7f:5e:e9:bf:11:b0:7d:8c:ec:3e:
         dc:9d:57:0c:79:55:99:65:27:62:55:5a:2d:fb:89:b5:03:83:
         b9:37:e5:17
-----BEGIN CERTIFICATE-----
MIIDlTCCAn2gAwIBAgIBAjANBgkqhkiG9w0BAQsFADAbMRkwFwYDVQQDDBBFeHBp
cmVkIENhc3RSb290MB4XDTE1MDEwMTEyMDAwMFoXDTE3MDEwMTEyMDAwMFowGzEZ
MBcGA1UEAwwQQ2FzdEludGVybWVkaWF0ZTCCASIwDQYJKoZIhvcNAQEBBQADggEP
ADCCAQoCggEBANDp/M9T9ZJUGG92D/enGu2OQ+nyfQb/NwKacItrgIYPYxyLcXW/
E6DQhPCxMa+Zv0SPCYyrvgjvv1MH2IKJsZ4khIcfq0DaeBlxaz+TmmNzokct8lQ9
p6EcHvcJTD+CZf2ittIkPZmOh5tyEa5l954M4xTd1gGws0QUoh+Y7HKGTf49eSuC
GovadqA9CHCl/lpQIMeAKgFFmdiisTaIg90Y1TjpsPxqLcgBO6ItRD37wx50EShl
BThdB8lK6qPeXARIZy8hQjGJ8YnpnTTG6cNUyPnhk+SIfBM/merC7VYeiHZ4aroH
PH/7l13jFYqqGLrWsJ989BplJRVtaJE9elkCAwEAAaOB4zCB4DAdBgNVHQ4EFgQU
/Ai4fQtLceyTAlHLE4O9a3c3l68wHwYDVR0jBBgwFoAUWj+M24/cmM9EBQzKtmnn
epbz+UMwQwYIKwYBBQUHAQEENzA1MDMGCCsGAQUFBzAChidodHRwOi8vdXJsLWZv
ci1haWEvRXhwaXJlZCBDYXN0Um9vdC5jZXIwOAYDVR0fBDEwLzAtoCugKYYnaHR0
cDovL3VybC1mb3ItY3JsL0V4cGlyZWQgQ2FzdFJvb3QuY3JsMA4GA1UdDwEB/wQE
AwIBBjAPBgNVHRMBAf8EBTADAQH/MA0GCSqGSIb3DQEBCwUAA4IBAQAyAfQzslS5
B9MAaoQhQ/fWmRuiUh6vTokJ5Vberkp+jThj5kj3OUprFQnWp7LcIw6DxtwTm+f4
CXkBVPCQuRwiIpy+vbSZKONtoNIlTPDbftfGktOAfh0Viu66JshmsoXSroiyYlWb
eed4b8VMYKgjq/RzrBfpidiixrJ148BX5qWE1CAULvHGUASkbUsvqTn/PUoOV7ZP
+XLQgvcqEBipn9oZ65PeFZdWyQ9mI3JSCXro6d1vSlQtXWKJVx1CmenEPMjFIhcz
sH99NvTPXLYIr0KteQCk4/NX7O7RgRCTnn9e6b8RsH2M7D7cnVcMeVWZZSdiVVot
+4m1A4O5N+UX
-----END CERTIFICATE-----

Certificate:
    Data:
        Version: 3 (0x2)
        Serial Number: 1 (0x1)
    Signature Algorithm: sha256WithRSAEncryption
        Issuer: CN=Expired CastRoot
        Validity
            Not Before: Jan  1 12:00:00 2015 GMT
            Not After : Mar  1 12:00:00 2015 GMT
        Subject: CN=Expired CastRoot
        Subject Public Key Info:
            Public Key Algorithm: rsaEncryption
                Public-Key: (2048 bit)
                Modulus:
                    00:c1:83:38:d1:94:d2:9e:ee:62:5d:dd:d8:fd:d0:
                    a9:de:7b:1c:5f:77:3a:73:09:11:45:c5:f7:83:58:
                    d8:ae:a0:97:dd:7f:f7:d0:6b:4a:5a:36:e2:cd:9e:
                    d3:df:97:7c:2f:92:4b:94:ff:1e:ae:af:17:47:ec:
                    3b:1b:a1:25:61:73:fa:18:e6:5c:11:bd:b1:71:fa:
                    89:a7:f5:4b:1c:de:d0:9a:5b:9b:d4:a0:a4:24:dd:
                    71:e9:21:dc:74:b2:de:00:5b:c5:9f:32:a1:56:83:
                    64:c9:a2:58:14:2d:48:f2:9d:ef:42:90:fc:18:f4:
                    33:4d:d5:62:ba:47:87:3a:52:7e:52:54:07:52:e8:
                    e3:90:24:ff:8c:66:3f:ed:16:a5:f2:a8:6b:bb:57:
                    21:07:a2:c0:c6:f6:4e:ee:94:81:a4:09:07:21:f8:
                    b0:ea:80:90:e2:64:f5:75:fd:a9:ad:65:b0:ef:1e:
                    18:3b:b8:75:8d:de:3f:c0:30:4b:ad:96:0c:aa:d6:
                    31:7d:22:c7:78:7c:e0:c5:85:6e:62:59:ef:e4:e0:
                    5c:db:d8:0b:ff:6d:47:dd:32:75:cd:21:a7:98:7b:
                    69:04:cb:57:44:71:9f:92:77:c9:e9:2d:21:92:6b:
                    7d:cf:94:50:a8:bf:ea:d1:49:43:a1:5e:09:50:e2:
                    d1:79
                Exponent: 65537 (0x10001)
        X509v3 extensions:
            X509v3 Subject Key Identifier: 
                5A:3F:8C:DB:8F:DC:98:CF:44:05:0C:CA:B6:69:E7:7A:96:F3:F9:43
            X509v3 Authority Key Identifier: 
                keyid:5A:3F:8C:DB:8F:DC:98:CF:44:05:0C:CA:B6:69:E7:7A:96:F3:F9:43

            Authority Information Access: 
                CA Issuers - URI:http://url-for-aia/Expired CastRoot.cer

            X509v3 CRL Distribution Points: 

                Full Name:
                  URI:http://url-for-crl/Expired CastRoot.crl

            X509v3 Key Usage: critical
                Certificate Sign, CRL Sign
            X509v3 Basic Constraints: critical
                CA:TRUE
    Signature Algorithm: sha256WithRSAEncryption
         6a:58:e9:0d:23:6a:02:00:2e:ed:f8:cb:a9:d8:83:1a:7f:f4:
         63:b5:e8:28:7c:a4:33:c7:10:f3:2d:c1:c5:d9:49:c7:36:91:
         99:ec:40:ce:53:46:12:82:4c:b3:36:27:57:56:01:d7:ae:40:
         e6:0f:10:32:05:b3:92:56:75:0c:13:4d:63:49:04:64:98:c0:
         27:e6:14:98:45:fd:b4:e4:3e:e7:73:52:84:c4:90:0c:4e:ed:
         8d:3c:43:af:c6:f1:2f:77:9c:30:7b:8b:ed:3e:72:d1:33:b2:
         1b:93:82:0b:98:93:62:5f:b3:c4:6a:d0:4c:85:04:fa:35:1d:
         0b:c2:50:27:9a:42:a9:cc:4a:3d:88:36:51:69:45:bb:e4:9f:
         63:1a:28:f8:fe:6f:46:fe:b0:04:b2:2a:74:cf:02:f6:24:0b:
         2e:c5:81:06:a4:ad:b0:88:b3:94:cd:2c:c0:e2:7b:9f:ca:fb:
         d0:ae:e6:42:bf:d9:54:3a:9f:6a:59:a4:18:43:76:cc:7b:d7:
         6a:2c:8d:d0:7d:21:51:2e:2d:b3:4f:15:f7:39:7e:d7:2c:8e:
         92:60:99:13:1b:74:bb:b2:11:cf:69:1b:98:7f:16:da:17:a9:
         73:7a:72:c4:64:e5:51:3c:2b:fa:a9:b3:62:fc:f9:a8:4d:d8:
         b6:01:c8:7a
-----BEGIN CERTIFICATE-----
MIIDlTCCAn2gAwIBAgIBATANBgkqhkiG9w0BAQsFADAbMRkwFwYDVQQDDBBFeHBp
cmVkIENhc3RSb290MB4XDTE1MDEwMTEyMDAwMFoXDTE1MDMwMTEyMDAwMFowGzEZ
MBcGA1UEAwwQRXhwaXJlZCBDYXN0Um9vdDCCASIwDQYJKoZIhvcNAQEBBQADggEP
ADCCAQoCggEBAMGDONGU0p7uYl3d2P3Qqd57HF93OnMJEUXF94NY2K6gl91/99Br
Slo24s2e09+XfC+SS5T/Hq6vF0fsOxuhJWFz+hjmXBG9sXH6iaf1Sxze0Jpbm9Sg
pCTdcekh3HSy3gBbxZ8yoVaDZMmiWBQtSPKd70KQ/Bj0M03VYrpHhzpSflJUB1Lo
45Ak/4xmP+0WpfKoa7tXIQeiwMb2Tu6UgaQJByH4sOqAkOJk9XX9qa1lsO8eGDu4
dY3eP8AwS62WDKrWMX0ix3h84MWFbmJZ7+TgXNvYC/9tR90ydc0hp5h7aQTLV0Rx
n5J3yektIZJrfc+UUKi/6tFJQ6FeCVDi0XkCAwEAAaOB4zCB4DAdBgNVHQ4EFgQU
Wj+M24/cmM9EBQzKtmnnepbz+UMwHwYDVR0jBBgwFoAUWj+M24/cmM9EBQzKtmnn
epbz+UMwQwYIKwYBBQUHAQEENzA1MDMGCCsGAQUFBzAChidodHRwOi8vdXJsLWZv
ci1haWEvRXhwaXJlZCBDYXN0Um9vdC5jZXIwOAYDVR0fBDEwLzAtoCugKYYnaHR0
cDovL3VybC1mb3ItY3JsL0V4cGlyZWQgQ2FzdFJvb3QuY3JsMA4GA1UdDwEB/wQE
AwIBBjAPBgNVHRMBAf8EBTADAQH/MA0GCSqGSIb3DQEBCwUAA4IBAQBqWOkNI2oC
AC7t+Mup2IMaf/RjtegofKQzxxDzLcHF2UnHNpGZ7EDOU0YSgkyzNidXVgHXrkDm
DxAyBbOSVnUME01jSQRkmMAn5hSYRf205D7nc1KExJAMTu2NPEOvxvEvd5wwe4vt
PnLRM7Ibk4ILmJNiX7PEatBMhQT6NR0LwlAnmkKpzEo9iDZRaUW75J9jGij4/m9G
/rAEsip0zwL2JAsuxYEGpK2wiLOUzSzA4nufyvvQruZCv9lUOp9qWaQYQ3bMe9dq
LI3QfSFRLi2zTxX3OX7XLI6SYJkTG3S7shHPaRuYfxbaF6lzenLEZOVRPCv6qbNi
/PmoTdi2Ach6
-----END CERTIFICATE-----

CastDevice's private key.

-----BEGIN RSA PRIVATE KEY-----
MIIEpQIBAAKCAQEA9P7YeRri/NAFqIq/xse6KkQhkwj0Oa9zChvnSJxD4xOzxFNR
BMYpVyT1d01TyNG40U8GVQDtcCwugAkpI7v0zDDZVe5UzpawwCXh/RIm9IWhVvno
WHg+dpq1PHoAZ7L7DHRikjMpO47Bh0WDMh91pPQof/B1hRxeGEfXlCS7dwoqHSZK
/3pUMQ5PV9OOAWFXdfdwd7V2dkerBGsd7QPuTdDWOPT6nUDyRCxBBuBt85S/ol83
7yBUpjf8PJD2yQEgsAOv8XPe8NTkMvXhpX45IkxT6Dpb/OsSNBQBtQOgynF+iY7L
eVbyUvmKUxs1lpnV5c5S4xzcaLvQQ2b80yJ4+wIDAQABAoIBACdl0BPxke0L2s0W
uu5RcguX9zo452VbZImMoS3ZC0W6Bl+c8lttLnq4E81CnyWdLDZkmeUTiBtQz42B
a582e5BWjqy17edm7jeIIAZdY+xQjPh6qbWIaKsUB+8Yw3Xpn1uKX8uY9JmCRHbn
Y8isrHOBW/3vAkcMn8kRzIYjPg5PQJfGhECCbA+LHASJxOdD3raNOdwK0+wcRYUI
MlIgy4D0/D3oVmPAtCKj76QsxStp+XWpWfHKcuXNqYPJG4FceXgb1aaWFDXjdzi3
J8Nb3OumU8/4iCzyzPzdTgVSy/9XlndOPMnkK+usoiUfTJLYSfQ2KP1ttPqjenlq
1tQr4oECgYEA/ItvM/BUj/2Eh43UhAcNjjmLxj2FVrIxpI5R2hNY1NmAynRun7fp
eNQdXvU5ZjxG8VyIeutkWV8pyqUkrgWWr9gAmOGdGh5ttqSRfsmdSgSi9HfAQQ2N
kz29ggiWnVOiNkGuIf/wwiPBVAROJbDuKe6mxQIj3o3Gli322fZIBsECgYEA+Fj4
Kg3Lj6MTvPbE7MFYxCYlvwm2FpwfgfKxVzn0OTVW17DiQ5MXTQzaYkwJkbtCg32Q
/CSKoV8W9HcTsFoXd8CjEx3WQ3+zcrtYWcL9XygTiU8wuChBMuROm2X2fcO5ZqvK
5S192hoSvGYJVbSIpj62VInTKTrrYutC/37CCrsCgYEA8QLgjWC+UuxOnk7skVNp
zGF+0yHDLonAdpqb4tKz4+3uy0dyi1qopXdI0GaW8Mp1qcH1PdmHWwNGju4roygS
Np6dc0lc9KA1dCh58dXXFdx253ehMnQMuIgjYwVvN5WpKL5lwGzRB3W3+sZhDfdc
Uwg+f6UbNjl3W7th6YDwHAECgYEAzWEWagDalUDx89XH6VvEQwKhOKmZUn1ueRLx
ogcld6Iq3VlE5UlhfbDhcWUcjM5mJUPUgRDfLLDs1OMc/zyiJ8DBm++S4GNdTcat
PB5LV0RXU7iPu9xefu3cLBtYi40vaD8uHfVPHO1vDSr9EUmpsIIwWx1X6cL2IuoY
kB6N7j0CgYEAgYL8rt7RUwKYrI6l1ZyTTLo8MQjxz6oBxRdcIyDtbBCwyGChThi/
+ZHpZMHmcBlV7akMwp6wGC3Qch3hE/vJTAJ3C7qXB82seM97YQ/GWvDHIuz4LGK9
XMUle6C9NAtxQ2YUbqB5zfMxEG3k2SbSefXh18Q65gGyPra7ZTfoAFI=
-----END RSA PRIVATE KEY-----
