$ openssl x509 -text -noout < [CERTIFICATE]
Certificate:
    Data:
        Version: 3 (0x2)
        Serial Number: 185805725 (0xb132b9d)
    Signature Algorithm: sha1WithRSAEncryption
        Issuer: C=US, ST=Washington, L=Kirkland, O=Google Inc, OU=Widevine, CN=Asus fugu Cast ICA
        Validity
            Not Before: Mar 18 21:43:31 2016 GMT
            Not After : Mar 18 21:43:31 2017 GMT
        Subject: C=US, ST=Washington, L=Kirkland, O=Google Inc, OU=Widevine, CN=-6394818897508095075
        Subject Public Key Info:
            Public Key Algorithm: rsaEncryption
                Public-Key: (2048 bit)
                Modulus:
                    00:dc:01:42:4d:40:19:cc:11:36:76:2f:d4:a3:bd:
                    27:dd:54:23:05:b6:63:9c:ff:08:68:ad:32:2a:05:
                    1c:df:0b:8b:2a:c5:c3:5f:2b:91:30:df:e1:cd:ce:
                    76:1d:84:f6:3c:77:48:73:c6:f4:c4:f3:f8:e3:75:
                    96:ab:6a:9d:a2:84:57:3f:a9:9d:60:02:e5:e5:df:
                    78:ac:bb:79:1a:36:e9:5d:62:db:2b:85:ff:06:87:
                    5b:b8:0f:4d:17:15:5d:0c:fc:10:75:b1:a0:5e:08:
                    df:01:7d:01:5f:7a:1c:62:36:e0:49:31:8d:e9:e8:
                    00:a1:0a:57:1d:d8:cd:e3:4a:aa:bb:0f:1d:e7:35:
                    76:9f:2f:13:00:2b:be:df:2a:83:d5:39:7c:7c:3c:
                    bc:8e:0b:0a:0a:09:f9:78:81:1d:c7:15:a2:ed:b8:
                    67:d6:76:a0:00:b4:49:93:02:ec:8e:77:fa:de:ba:
                    9a:74:43:97:4a:12:37:45:3c:db:81:87:62:22:8f:
                    2a:ee:17:a3:ff:0a:c3:3e:2b:44:79:b0:b9:be:12:
                    a3:86:1e:60:be:76:79:34:c2:12:55:89:51:b0:e7:
                    b1:68:2a:a1:e7:ac:f6:88:2b:60:92:e1:02:b0:68:
                    49:ba:cd:bb:97:23:f3:46:ee:ac:20:92:4c:fc:70:
                    9c:c7
                Exponent: 65537 (0x10001)
        X509v3 extensions:
            X509v3 Basic Constraints: critical
                CA:FALSE
            X509v3 Key Usage: 
                Digital Signature
            X509v3 Extended Key Usage: 
                TLS Web Client Authentication
            X509v3 Subject Key Identifier: 
                66:BD:7F:37:0A:9E:61:62:4F:B1:CC:04:18:97:E1:53:0A:B3:AF:94
            X509v3 Authority Key Identifier: 
                keyid:DD:CD:5D:84:BB:B5:3E:91:F6:1C:2D:D0:7B:40:2B:DB:B6:DC:9D:1F

    Signature Algorithm: sha1WithRSAEncryption
         9c:f2:99:d0:1b:11:2e:d8:71:08:8f:96:49:7f:3c:e1:fe:85:
         be:3e:72:6d:54:f3:68:a0:8a:da:3e:3c:c4:f7:7d:fe:a0:9f:
         53:70:81:a7:aa:98:62:1a:cc:c3:9d:a7:ef:a9:8f:e6:93:78:
         db:f8:33:cd:c0:c1:d8:67:e6:a1:12:93:a8:34:95:3d:0f:39:
         ef:50:0b:a4:2a:74:4e:00:6c:7d:52:f5:5e:5d:38:9c:5d:b1:
         29:6e:e6:8a:21:c1:89:cb:ca:8d:32:35:5a:f2:0b:92:1f:6c:
         09:98:45:6c:22:c8:5b:b6:53:2a:43:95:29:0d:88:a6:12:34:
         ed:e2:b1:2a:81:71:e5:ca:8d:69:65:39:5e:9d:36:50:68:ef:
         1d:b8:e4:39:5e:64:57:20:9b:d5:b6:45:ea:69:4d:5f:52:e9:
         fd:ae:af:2b:1c:8e:b5:a9:47:61:4c:46:7c:33:14:15:6a:0c:
         fd:b5:d0:f8:be:0e:d8:30:73:ef:3b:a5:54:85:35:c7:f2:12:
         e3:27:8f:d1:e0:3a:1d:c7:53:75:ed:5c:f0:eb:02:25:01:07:
         cb:81:4c:68:7b:5f:a4:b5:b2:58:48:4c:9e:47:22:10:b7:01:
         78:7d:a4:6e:af:86:10:dc:21:eb:ee:47:c1:97:11:81:80:b1:
         9d:66:42:42
-----BEGIN CERTIFICATE-----
MIID5jCCAs6gAwIBAgIECxMrnTANBgkqhkiG9w0BAQUFADB6MQswCQYDVQQGEwJVUzETMBEGA1U
ECAwKV2FzaGluZ3RvbjERMA8GA1UEBwwIS2lya2xhbmQxEzARBgNVBAoMCkdvb2dsZSBJbmMxET
APBgNVBAsMCFdpZGV2aW5lMRswGQYDVQQDDBJBc3VzIGZ1Z3UgQ2FzdCBJQ0EwHhcNMTYwMzE4M
jE0MzMxWhcNMTcwMzE4MjE0MzMxWjB8MQswCQYDVQQGEwJVUzETMBEGA1UECAwKV2FzaGluZ3Rv
bjERMA8GA1UEBwwIS2lya2xhbmQxEzARBgNVBAoMCkdvb2dsZSBJbmMxETAPBgNVBAsMCFdpZGV
2aW5lMR0wGwYDVQQDDBQtNjM5NDgxODg5NzUwODA5NTA3NTCCASIwDQYJKoZIhvcNAQEBBQADgg
EPADCCAQoCggEBANwBQk1AGcwRNnYv1KO9J91UIwW2Y5z/CGitMioFHN8LiyrFw18rkTDf4c3Od
h2E9jx3SHPG9MTz+ON1lqtqnaKEVz+pnWAC5eXfeKy7eRo26V1i2yuF/waHW7gPTRcVXQz8EHWx
oF4I3wF9AV96HGI24EkxjenoAKEKVx3YzeNKqrsPHec1dp8vEwArvt8qg9U5fHw8vI4LCgoJ+Xi
BHccVou24Z9Z2oAC0SZMC7I53+t66mnRDl0oSN0U824GHYiKPKu4Xo/8Kwz4rRHmwub4So4YeYL
52eTTCElWJUbDnsWgqoees9ogrYJLhArBoSbrNu5cj80burCCSTPxwnMcCAwEAAaNyMHAwDAYDV
R0TAQH/BAIwADALBgNVHQ8EBAMCB4AwEwYDVR0lBAwwCgYIKwYBBQUHAwIwHQYDVR0OBBYEFGa9
fzcKnmFiT7HMBBiX4VMKs6+UMB8GA1UdIwQYMBaAFN3NXYS7tT6R9hwt0HtAK9u23J0fMA0GCSq
GSIb3DQEBBQUAA4IBAQCc8pnQGxEu2HEIj5ZJfzzh/oW+PnJtVPNooIraPjzE933+oJ9TcIGnqp
hiGszDnafvqY/mk3jb+DPNwMHYZ+ahEpOoNJU9DznvUAukKnROAGx9UvVeXTicXbEpbuaKIcGJy
8qNMjVa8guSH2wJmEVsIshbtlMqQ5UpDYimEjTt4rEqgXHlyo1pZTlenTZQaO8duOQ5XmRXIJvV
tkXqaU1fUun9rq8rHI61qUdhTEZ8MxQVagz9tdD4vg7YMHPvO6VUhTXH8hLjJ4/R4Dodx1N17Vz
w6wIlAQfLgUxoe1+ktbJYSEyeRyIQtwF4faRur4YQ3CHr7kfBlxGBgLGdZkJC
-----END CERTIFICATE-----

$ openssl x509 -text -noout < [CERTIFICATE]
Certificate:
    Data:
        Version: 3 (0x2)
        Serial Number: 1 (0x1)
    Signature Algorithm: sha1WithRSAEncryption
        Issuer: C=US, ST=Washington, L=Kirkland, O=Google Inc, OU=Widevine, CN=Widevine Cast Subroot
        Validity
            Not Before: Aug 20 19:14:44 2014 GMT
            Not After : Aug 19 19:14:44 2019 GMT
        Subject: C=US, ST=Washington, L=Kirkland, O=Google Inc, OU=Widevine, CN=Asus fugu Cast ICA
        Subject Public Key Info:
            Public Key Algorithm: rsaEncryption
                Public-Key: (2048 bit)
                Modulus:
                    00:c2:f6:d5:91:dc:37:b4:9a:73:4a:e7:74:6d:03:
                    ae:27:24:41:99:96:1b:05:0e:c7:cf:09:cd:65:56:
                    02:fc:98:59:b4:bb:95:71:d7:88:66:c8:08:cb:bf:
                    5b:85:65:7e:de:c4:b5:e3:71:24:a2:fd:92:2c:77:
                    c5:08:e0:f0:b1:8a:8a:54:ca:a6:af:87:b8:cb:7d:
                    83:28:59:9c:01:f5:7b:10:d0:f3:52:09:3f:f5:7d:
                    da:21:63:8f:ac:8b:60:67:22:ef:6b:66:91:fc:97:
                    30:8d:cc:fe:de:5c:f9:19:bb:1c:25:29:2c:99:48:
                    41:c2:fc:5b:66:d6:79:84:16:8d:0d:4f:75:01:40:
                    c5:50:69:fa:a4:88:f1:d2:3b:d1:23:df:c5:ba:e3:
                    e8:ba:cc:1e:93:17:f7:97:e2:71:42:75:5b:99:55:
                    98:22:23:98:dc:10:89:f4:e8:26:bb:98:66:fd:bb:
                    9a:21:62:a2:df:90:db:48:6f:db:2a:ef:de:53:59:
                    31:5d:38:cd:80:a8:0c:6e:4e:37:65:eb:36:1c:13:
                    ba:53:d3:8f:cc:43:86:02:70:d2:91:f6:96:25:6c:
                    a4:e8:1f:d8:b3:74:20:eb:60:9d:3d:d3:3d:2e:36:
                    0f:f1:94:10:f9:7a:03:52:7e:a4:ef:e3:40:9e:74:
                    0e:df
                Exponent: 65537 (0x10001)
        X509v3 extensions:
            X509v3 Basic Constraints: critical
                CA:TRUE, pathlen:0
            X509v3 Subject Key Identifier: 
                DD:CD:5D:84:BB:B5:3E:91:F6:1C:2D:D0:7B:40:2B:DB:B6:DC:9D:1F
            X509v3 Authority Key Identifier: 
                keyid:E6:57:D0:5A:CC:E5:B7:8D:83:01:A1:58:D8:45:76:CD:8D:D8:34:C2

    Signature Algorithm: sha1WithRSAEncryption
         4c:01:30:88:f2:f6:b0:5f:0a:7d:cb:8f:7a:53:58:88:a6:2f:
         1c:e7:ae:d7:60:73:d8:d4:23:ac:17:31:6d:60:ac:b7:65:da:
         25:de:d9:d4:ce:81:2d:2b:5a:be:44:17:a1:ef:71:fa:5e:69:
         e2:e3:d8:a3:a0:69:2b:b4:7c:d9:91:c6:13:bb:87:2c:60:07:
         a7:6d:66:c4:19:61:09:e2:42:c9:e5:e2:ce:fd:72:31:bf:e6:
         79:75:d4:7f:e2:16:51:9a:2a:ce:d4:e8:b0:34:4c:2a:6e:b3:
         ef:bb:61:03:1e:86:73:40:cd:4f:e4:05:45:94:7a:fd:a9:3a:
         30:53:cc:a7:61:dc:e1:0a:b2:9d:13:51:08:b6:7d:f9:2a:09:
         1e:9e:1d:7c:ca:0b:f3:ef:47:13:75:a3:95:e4:a9:f7:fa:fd:
         91:c1:a7:40:a3:c8:32:07:f2:51:20:db:06:87:b3:30:88:eb:
         c1:d1:8d:c9:25:90:ea:e8:76:01:98:cd:6a:0e:0d:f8:5c:56:
         d5:84:5c:3e:94:0b:ff:b1:29:ee:7b:58:12:78:81:2d:98:26:
         ef:9a:2f:61:23:57:fd:a4:f5:81:e4:a7:32:96:29:03:21:7c:
         3e:2e:09:1b:5c:7f:07:d9:ca:db:89:df:64:aa:c6:bd:ff:ec:
         8d:00:5d:8f
-----BEGIN CERTIFICATE-----
MIIDyDCCArCgAwIBAgIBATANBgkqhkiG9w0BAQUFADB9MQswCQYDVQQGEwJVUzETMBEGA1UECAw
KV2FzaGluZ3RvbjERMA8GA1UEBwwIS2lya2xhbmQxEzARBgNVBAoMCkdvb2dsZSBJbmMxETAPBg
NVBAsMCFdpZGV2aW5lMR4wHAYDVQQDDBVXaWRldmluZSBDYXN0IFN1YnJvb3QwHhcNMTQwODIwM
TkxNDQ0WhcNMTkwODE5MTkxNDQ0WjB6MQswCQYDVQQGEwJVUzETMBEGA1UECAwKV2FzaGluZ3Rv
bjERMA8GA1UEBwwIS2lya2xhbmQxEzARBgNVBAoMCkdvb2dsZSBJbmMxETAPBgNVBAsMCFdpZGV
2aW5lMRswGQYDVQQDDBJBc3VzIGZ1Z3UgQ2FzdCBJQ0EwggEiMA0GCSqGSIb3DQEBAQUAA4IBDw
AwggEKAoIBAQDC9tWR3De0mnNK53RtA64nJEGZlhsFDsfPCc1lVgL8mFm0u5Vx14hmyAjLv1uFZ
X7exLXjcSSi/ZIsd8UI4PCxiopUyqavh7jLfYMoWZwB9XsQ0PNSCT/1fdohY4+si2BnIu9rZpH8
lzCNzP7eXPkZuxwlKSyZSEHC/Ftm1nmEFo0NT3UBQMVQafqkiPHSO9Ej38W64+i6zB6TF/eX4nF
CdVuZVZgiI5jcEIn06Ca7mGb9u5ohYqLfkNtIb9sq795TWTFdOM2AqAxuTjdl6zYcE7pT04/MQ4
YCcNKR9pYlbKToH9izdCDrYJ090z0uNg/xlBD5egNSfqTv40CedA7fAgMBAAGjVjBUMBIGA1UdE
wEB/wQIMAYBAf8CAQAwHQYDVR0OBBYEFN3NXYS7tT6R9hwt0HtAK9u23J0fMB8GA1UdIwQYMBaA
FOZX0FrM5beNgwGhWNhFds2N2DTCMA0GCSqGSIb3DQEBBQUAA4IBAQBMATCI8vawXwp9y496U1i
Ipi8c567XYHPY1COsFzFtYKy3Zdol3tnUzoEtK1q+RBeh73H6Xmni49ijoGkrtHzZkcYTu4csYA
enbWbEGWEJ4kLJ5eLO/XIxv+Z5ddR/4hZRmirO1OiwNEwqbrPvu2EDHoZzQM1P5AVFlHr9qTowU
8ynYdzhCrKdE1EItn35Kgkenh18ygvz70cTdaOV5Kn3+v2RwadAo8gyB/JRINsGh7MwiOvB0Y3J
JZDq6HYBmM1qDg34XFbVhFw+lAv/sSnue1gSeIEtmCbvmi9hI1f9pPWB5KcylikDIXw+LgkbXH8
H2crbid9kqsa9/+yNAF2P
-----END CERTIFICATE-----

$ openssl x509 -text -noout < [CERTIFICATE]
Certificate:
    Data:
        Version: 3 (0x2)
        Serial Number: 5 (0x5)
    Signature Algorithm: sha1WithRSAEncryption
        Issuer: C=US, ST=California, L=Mountain View, O=Google Inc, OU=Cast, CN=Cast Root CA
        Validity
            Not Before: Apr  9 05:12:21 2014 GMT
            Not After : Apr  9 05:12:21 2019 GMT
        Subject: C=US, ST=Washington, L=Kirkland, O=Google Inc, OU=Widevine, CN=Widevine Cast Subroot
        Subject Public Key Info:
            Public Key Algorithm: rsaEncryption
                Public-Key: (2048 bit)
                Modulus:
                    00:a7:8b:47:0f:b1:92:ad:50:cd:4d:c5:ad:0f:86:
                    8f:37:7b:36:28:15:5b:09:03:81:04:df:14:22:4d:
                    1f:13:56:4b:1c:33:82:36:17:8b:4e:49:1d:ff:ef:
                    18:2d:b7:54:eb:3a:fb:dd:16:7a:4c:3c:e8:1b:94:
                    08:f7:c0:d7:fd:2d:dc:39:58:bb:4a:7a:61:70:bd:
                    e9:6d:9b:07:38:8f:0f:74:45:36:b4:17:8c:19:51:
                    2f:ff:3a:09:05:b5:88:36:11:f6:c5:ec:8f:0f:1d:
                    b3:5a:42:b0:8f:2c:b2:9e:ed:ba:71:9a:81:68:d9:
                    14:8d:cb:ec:03:c9:12:a1:c1:4c:03:17:62:5f:e7:
                    7b:4d:ff:2e:45:2a:99:de:87:96:de:bc:71:da:e3:
                    e5:56:5e:d5:24:59:de:51:45:44:41:34:df:7b:6f:
                    38:9a:03:72:c8:7e:e7:94:12:bd:9a:c0:37:38:85:
                    38:93:3f:22:8c:53:43:84:3c:38:d3:b5:0a:f7:47:
                    03:51:d2:89:4b:6d:7f:b2:47:08:5d:96:38:df:d0:
                    87:d3:33:2a:53:52:c9:9b:99:d0:83:77:fe:0d:bd:
                    9e:62:a3:21:9c:cb:ba:b5:f6:5c:fe:fc:52:f1:ff:
                    f6:31:15:c8:ca:4e:ac:dc:8b:3e:84:01:cc:1e:f9:
                    e3:4f
                Exponent: 65537 (0x10001)
        X509v3 extensions:
            X509v3 Basic Constraints: 
                CA:TRUE, pathlen:1
            X509v3 Subject Key Identifier: 
                E6:57:D0:5A:CC:E5:B7:8D:83:01:A1:58:D8:45:76:CD:8D:D8:34:C2
            X509v3 Authority Key Identifier: 
                keyid:7C:9A:1E:7D:DF:79:54:BC:D7:CC:5E:CA:99:86:45:79:65:74:28:19

            X509v3 Key Usage: 
                Certificate Sign, CRL Sign
    Signature Algorithm: sha1WithRSAEncryption
         9c:bd:b9:62:6c:20:04:45:8a:22:da:a5:a4:8c:78:37:70:92:
         9f:93:a8:34:0b:6a:b1:bf:cd:46:05:e9:52:e9:df:3c:f0:b5:
         84:aa:ab:72:3d:80:4d:c3:8a:62:6d:26:5b:c6:19:af:06:79:
         5b:5b:a8:da:06:0d:a1:80:bd:58:7b:83:80:a6:0a:6e:22:85:
         85:3f:ca:6b:d2:f5:26:fc:5b:e3:67:ae:5c:16:0b:26:bf:b2:
         c6:86:69:03:92:81:96:6d:22:b2:32:4a:e3:f7:ff:7e:ce:bf:
         66:68:d7:fe:51:51:17:da:f9:8f:a7:dd:82:52:e7:ff:fc:96:
         79:58:14:74:3a:af:08:40:73:a4:f1:a9:af:b8:e7:ee:55:c5:
         2b:f2:2b:3d:9d:ef:b2:22:65:3c:b7:dc:84:7c:6f:2b:96:21:
         d9:c8:4c:f4:72:d4:71:72:62:1f:4c:64:d8:08:e7:46:dc:1b:
         a1:1a:e2:99:f0:13:03:eb:43:9b:80:c7:4b:11:d6:c2:21:19:
         7d:b5:8c:dc:5f:be:48:93:e7:d0:6a:2b:d0:84:21:fb:02:e7:
         03:92:72:1d:bb:aa:0a:d4:24:ad:ad:08:f0:14:6a:12:33:ca:
         ed:30:7f:9d:11:50:aa:ed:72:32:12:1a:5b:cb:83:81:dd:d1:
         ab:f3:94:61
-----BEGIN CERTIFICATE-----
MIIDzTCCArWgAwIBAgIBBTANBgkqhkiG9w0BAQUFADB1MQswCQYDVQQGEwJVUzETMBEGA1UECAw
KQ2FsaWZvcm5pYTEWMBQGA1UEBwwNTW91bnRhaW4gVmlldzETMBEGA1UECgwKR29vZ2xlIEluYz
ENMAsGA1UECwwEQ2FzdDEVMBMGA1UEAwwMQ2FzdCBSb290IENBMB4XDTE0MDQwOTA1MTIyMVoXD
TE5MDQwOTA1MTIyMVowfTELMAkGA1UEBhMCVVMxEzARBgNVBAgMCldhc2hpbmd0b24xETAPBgNV
BAcMCEtpcmtsYW5kMRMwEQYDVQQKDApHb29nbGUgSW5jMREwDwYDVQQLDAhXaWRldmluZTEeMBw
GA1UEAwwVV2lkZXZpbmUgQ2FzdCBTdWJyb290MIIBIjANBgkqhkiG9w0BAQEFAAOCAQ8AMIIBCg
KCAQEAp4tHD7GSrVDNTcWtD4aPN3s2KBVbCQOBBN8UIk0fE1ZLHDOCNheLTkkd/+8YLbdU6zr73
RZ6TDzoG5QI98DX/S3cOVi7SnphcL3pbZsHOI8PdEU2tBeMGVEv/zoJBbWINhH2xeyPDx2zWkKw
jyyynu26cZqBaNkUjcvsA8kSocFMAxdiX+d7Tf8uRSqZ3oeW3rxx2uPlVl7VJFneUUVEQTTfe28
4mgNyyH7nlBK9msA3OIU4kz8ijFNDhDw407UK90cDUdKJS21/skcIXZY439CH0zMqU1LJm5nQg3
f+Db2eYqMhnMu6tfZc/vxS8f/2MRXIyk6s3Is+hAHMHvnjTwIDAQABo2AwXjAPBgNVHRMECDAGA
QH/AgEBMB0GA1UdDgQWBBTmV9BazOW3jYMBoVjYRXbNjdg0wjAfBgNVHSMEGDAWgBR8mh5933lU
vNfMXsqZhkV5ZXQoGTALBgNVHQ8EBAMCAQYwDQYJKoZIhvcNAQEFBQADggEBAJy9uWJsIARFiiL
apaSMeDdwkp+TqDQLarG/zUYF6VLp3zzwtYSqq3I9gE3DimJtJlvGGa8GeVtbqNoGDaGAvVh7g4
CmCm4ihYU/ymvS9Sb8W+NnrlwWCya/ssaGaQOSgZZtIrIySuP3/37Ov2Zo1/5RURfa+Y+n3YJS5
//8lnlYFHQ6rwhAc6Txqa+45+5VxSvyKz2d77IiZTy33IR8byuWIdnITPRy1HFyYh9MZNgI50bc
G6Ea4pnwEwPrQ5uAx0sR1sIhGX21jNxfvkiT59BqK9CEIfsC5wOSch27qgrUJK2tCPAUahIzyu0
wf50RUKrtcjISGlvLg4Hd0avzlGE=
-----END CERTIFICATE-----
