The first intermediate in this chain (CN=Sony so16vic CA) has a serial number
that is 21 octets. This is not valid according to RFC 5280, which limits their
length to 20 octets.

$ openssl x509 -text -noout < [CERTIFICATE]
Certificate:
    Data:
        Version: 3 (0x2)
        Serial Number:
             (Negative)08:54:7d:b3:4f:1f:68:ab:63:ae:3a:ca:cb:ef:13:99:1c:d3:63:d6
    Signature Algorithm: sha256WithRSAEncryption
        Issuer: C=JP, ST=Tokyo, L=Minato-ku, O=Sony Corporation, OU=New Audio, CN=Sony so16vic CA
        Validity
            Not Before: Feb 22 08:17:08 2016 GMT
            Not After : Feb 17 08:17:08 2036 GMT
        Subject: CN=8C579B806FFC8A9DFFFF F8:8F:CA:6B:E6:DA
        Subject Public Key Info:
            Public Key Algorithm: rsaEncryption
                Public-Key: (2048 bit)
                Modulus:
                    00:d1:ad:a2:58:33:a0:7f:55:94:b9:17:78:de:77:
                    c8:28:ed:f3:33:b5:60:e6:2d:b7:86:97:41:ce:a2:
                    60:19:14:80:53:2a:54:7f:4a:17:8b:51:75:f4:f1:
                    41:d1:04:ed:86:1d:66:81:e3:2a:03:70:bb:9b:db:
                    b5:2c:7b:d7:dd:68:d4:dc:d9:c9:f7:6f:2b:08:d3:
                    18:b7:04:3c:00:d5:cf:f9:b1:6a:84:73:cd:dc:a2:
                    3e:f5:a0:b6:3d:26:a6:4c:21:8d:1d:00:71:cb:0d:
                    f9:2d:7c:bb:7a:b4:20:b4:85:a5:73:3a:eb:c2:d8:
                    16:ec:94:1d:1e:30:4a:38:77:78:33:12:ac:06:b6:
                    45:49:ad:f8:cd:a8:e5:61:d7:6e:92:af:dc:cb:61:
                    c1:88:ab:00:75:b1:df:23:42:dc:47:08:2f:96:9d:
                    2b:74:5d:6f:a9:3a:f4:c0:1b:07:fe:5f:06:51:fc:
                    0f:8e:b0:71:fe:60:5e:79:78:b2:a9:1c:6e:85:04:
                    e4:93:24:f4:4e:a8:cf:f7:06:95:e4:14:81:f6:19:
                    0e:ce:fe:22:c3:ae:3b:6b:8b:fe:90:61:2b:56:37:
                    8a:93:43:73:cb:22:a7:f1:ff:e0:75:0f:df:ff:72:
                    af:3f:7e:2e:5d:15:06:8e:20:1a:b6:1a:6e:93:f2:
                    eb:69
                Exponent: 65537 (0x10001)
        X509v3 extensions:
            X509v3 Basic Constraints: 
                CA:FALSE
            X509v3 Subject Key Identifier: 
                CF:E8:B7:7B:89:A2:AF:64:AA:17:83:76:0C:51:D5:22:A5:6A:DA:6C
            X509v3 Authority Key Identifier: 
                keyid:FA:1F:9C:C9:DB:9D:A6:2F:33:A7:F9:C9:8A:6A:72:63:56:3F:EF:D1

            X509v3 Key Usage: 
                Digital Signature
            X509v3 Extended Key Usage: 
                TLS Web Client Authentication
            X509v3 Certificate Policies: 
                Policy: 1.3.6.1.4.1.11129.2.5.2

    Signature Algorithm: sha256WithRSAEncryption
         00:89:21:a9:ed:50:b5:a4:1f:08:dc:ce:b7:ca:cf:e5:14:61:
         3c:5d:d3:13:c5:9c:1a:93:b5:b0:2a:78:23:23:5f:da:43:b5:
         71:25:d6:88:d7:55:97:5b:10:88:b7:80:98:a0:79:4a:3a:72:
         39:e4:57:64:3c:e4:e9:67:98:83:2e:58:43:35:af:74:7c:e5:
         ce:2d:69:85:9a:e6:0f:74:57:2f:c9:79:66:29:29:1a:05:52:
         f8:60:b9:04:31:6f:c9:75:df:98:70:15:a8:c4:c0:8d:af:73:
         f7:d2:61:b9:65:0a:01:e8:3a:b8:84:af:c3:90:d2:fd:8d:a4:
         33:4e:50:52:7c:c1:35:8b:92:0a:bf:5c:41:5c:0f:62:cd:b0:
         4d:a7:d7:be:23:1b:33:1e:5b:fc:54:0b:b3:c1:93:30:34:f3:
         5f:fb:15:4c:6d:ee:72:3d:2a:c0:73:59:1f:18:99:bc:d3:b9:
         65:08:cf:03:63:b5:88:be:a6:1b:f7:6a:b7:90:83:ab:20:73:
         bb:bd:c6:86:88:1a:a6:24:9e:1a:5a:7f:c4:e4:23:da:2b:14:
         a8:db:85:5b:3d:92:f3:5d:9a:14:19:c7:0e:19:3a:65:41:44:
         ee:5e:3e:7b:46:49:52:07:af:ee:ff:41:98:2e:e3:e3:ab:37:
         a6:35:8a:85
-----BEGIN CERTIFICATE-----
MIIDwzCCAqugAwIBAgIU96uCTLDgl1ScUcU1NBDsZuMsnCowDQYJKoZIhvcNAQEL
BQAwejELMAkGA1UEBhMCSlAxDjAMBgNVBAgTBVRva3lvMRIwEAYDVQQHEwlNaW5h
dG8ta3UxGTAXBgNVBAoTEFNvbnkgQ29ycG9yYXRpb24xEjAQBgNVBAsTCU5ldyBB
dWRpbzEYMBYGA1UEAxMPU29ueSBzbzE2dmljIENBMB4XDTE2MDIyMjA4MTcwOFoX
DTM2MDIxNzA4MTcwOFowMTEvMC0GA1UEAwwmOEM1NzlCODA2RkZDOEE5REZGRkYg
Rjg6OEY6Q0E6NkI6RTY6REEwggEiMA0GCSqGSIb3DQEBAQUAA4IBDwAwggEKAoIB
AQDRraJYM6B/VZS5F3jed8go7fMztWDmLbeGl0HOomAZFIBTKlR/SheLUXX08UHR
BO2GHWaB4yoDcLub27Use9fdaNTc2cn3bysI0xi3BDwA1c/5sWqEc83coj71oLY9
JqZMIY0dAHHLDfktfLt6tCC0haVzOuvC2BbslB0eMEo4d3gzEqwGtkVJrfjNqOVh
126Sr9zLYcGIqwB1sd8jQtxHCC+WnSt0XW+pOvTAGwf+XwZR/A+OsHH+YF55eLKp
HG6FBOSTJPROqM/3BpXkFIH2GQ7O/iLDrjtri/6QYStWN4qTQ3PLIqfx/+B1D9//
cq8/fi5dFQaOIBq2Gm6T8utpAgMBAAGjgYkwgYYwCQYDVR0TBAIwADAdBgNVHQ4E
FgQUz+i3e4mir2SqF4N2DFHVIqVq2mwwHwYDVR0jBBgwFoAU+h+cydudpi8zp/nJ
impyY1Y/79EwCwYDVR0PBAQDAgeAMBMGA1UdJQQMMAoGCCsGAQUFBwMCMBcGA1Ud
IAQQMA4wDAYKKwYBBAHWeQIFAjANBgkqhkiG9w0BAQsFAAOCAQEAAIkhqe1QtaQf
CNzOt8rP5RRhPF3TE8WcGpO1sCp4IyNf2kO1cSXWiNdVl1sQiLeAmKB5SjpyOeRX
ZDzk6WeYgy5YQzWvdHzlzi1phZrmD3RXL8l5ZikpGgVS+GC5BDFvyXXfmHAVqMTA
ja9z99JhuWUKAeg6uISvw5DS/Y2kM05QUnzBNYuSCr9cQVwPYs2wTafXviMbMx5b
/FQLs8GTMDTzX/sVTG3ucj0qwHNZHxiZvNO5ZQjPA2O1iL6mG/dqt5CDqyBzu73G
hogapiSeGlp/xOQj2isUqNuFWz2S812aFBnHDhk6ZUFE7l4+e0ZJUgev7v9BmC7j
46s3pjWKhQ==
-----END CERTIFICATE-----

$ openssl x509 -text -noout < [CERTIFICATE]
Certificate:
    Data:
        Version: 3 (0x2)
        Serial Number:
            de:84:71:ee:a7:0c:9d:4c:95:70:43:5b:ee:55:6c:da:cb:e9:4d:dd
    Signature Algorithm: sha256WithRSAEncryption
        Issuer: C=JP, ST=Tokyo, L=Minato-ku, O=Sony Corporation, OU=New Audio, CN=Cast Audio Sony CA
        Validity
            Not Before: Feb 22 08:17:08 2016 GMT
            Not After : Feb 17 08:17:08 2036 GMT
        Subject: C=JP, ST=Tokyo, L=Minato-ku, O=Sony Corporation, OU=New Audio, CN=Sony so16vic CA
        Subject Public Key Info:
            Public Key Algorithm: rsaEncryption
                Public-Key: (2048 bit)
                Modulus:
                    00:be:4e:16:38:4d:f4:82:93:e5:e6:55:f8:33:fd:
                    41:18:7b:5d:9f:2c:cf:b0:8b:b4:cf:b8:a5:d1:e6:
                    b9:65:aa:d4:d8:84:b6:0a:dd:64:be:45:5a:65:f2:
                    cd:d0:3e:cc:bd:16:e9:8a:dc:0e:15:44:85:6a:37:
                    af:f6:00:ca:7f:92:ff:64:39:07:3c:44:fd:d7:63:
                    c7:e6:09:8c:47:26:2b:01:e0:b0:16:fb:46:13:89:
                    4c:0e:2e:72:dd:d7:85:81:0d:e5:79:6f:33:ec:c4:
                    a6:7b:f3:41:ff:58:eb:73:69:41:ec:a3:a7:e1:fe:
                    99:44:6b:51:b3:4c:9a:1f:9f:9f:82:f4:aa:85:0d:
                    bd:f3:a5:53:3a:66:63:f1:d8:65:b8:bf:6e:d9:1e:
                    d7:3a:a3:a8:73:c5:55:f1:2f:58:9c:7d:b6:c0:16:
                    d2:bf:02:07:4d:e1:15:f9:d4:3b:95:6a:98:c2:25:
                    3f:4e:36:af:ea:eb:4b:cb:d6:6c:ff:22:8a:d5:0d:
                    3d:1a:e4:4d:70:fa:94:35:83:8e:a9:ad:fa:f2:8d:
                    e3:84:b4:05:29:bc:75:7b:83:f3:52:97:99:83:f1:
                    76:2f:b9:f5:80:24:15:4b:02:3f:12:d7:97:fd:13:
                    ee:00:9f:95:a3:f7:b1:13:7e:37:8a:17:1f:fb:8c:
                    ba:87
                Exponent: 65537 (0x10001)
        X509v3 extensions:
            X509v3 Basic Constraints: 
                CA:TRUE, pathlen:0
            X509v3 Subject Key Identifier: 
                FA:1F:9C:C9:DB:9D:A6:2F:33:A7:F9:C9:8A:6A:72:63:56:3F:EF:D1
            X509v3 Authority Key Identifier: 
                keyid:F5:CD:99:72:18:36:F2:F6:B5:DB:A7:FE:04:8E:CC:D0:D6:F9:6F:89

            X509v3 Key Usage: 
                Certificate Sign, CRL Sign
            X509v3 Certificate Policies: 
                Policy: 1.3.6.1.4.1.11129.2.5.2

    Signature Algorithm: sha256WithRSAEncryption
         82:01:e1:78:39:ec:b0:10:a3:f4:b9:05:07:b8:58:04:5c:52:
         69:18:47:2c:24:52:bf:9f:37:17:a4:03:1e:d8:79:9c:04:6b:
         9f:b3:96:a7:80:c5:e8:f9:ba:03:ac:98:29:5c:3c:27:b3:13:
         8f:f1:f5:1c:1f:10:ad:96:ef:80:08:2c:ee:bd:67:71:99:a9:
         bb:bb:d5:e8:93:da:06:23:1b:db:dd:91:5d:ac:43:17:60:9e:
         52:1e:d5:e4:bf:8e:61:56:d0:b1:b0:c3:e6:cc:af:43:78:77:
         26:db:4c:db:36:34:ae:6a:75:c8:8c:8c:85:64:31:89:c4:53:
         f5:49:d2:86:11:54:4b:01:c5:6a:56:a2:95:16:76:c9:e6:2b:
         3a:cf:82:b3:4e:20:64:57:74:d6:68:4b:4b:0b:cb:4a:62:ee:
         0d:a5:80:23:6d:25:c3:d3:39:d6:01:2b:d7:86:3e:47:02:e2:
         e5:b3:7a:43:86:8a:7d:7b:88:de:5d:48:b1:4e:65:56:b0:a6:
         85:f6:42:62:49:82:fc:da:50:17:a1:f9:3a:b7:b9:76:8d:1d:
         b5:76:8f:14:e5:4a:4d:bc:c5:fd:ab:dd:e4:51:2e:d9:cb:b1:
         82:6b:c4:d9:ab:7b:88:2d:4f:a8:8e:99:e9:d1:07:f9:cc:b6:
         db:dd:f0:be
-----BEGIN CERTIFICATE-----
MIID/zCCAuegAwIBAgIVAN6Ece6nDJ1MlXBDW+5VbNrL6U3dMA0GCSqGSIb3DQEB
CwUAMH0xCzAJBgNVBAYTAkpQMQ4wDAYDVQQIEwVUb2t5bzESMBAGA1UEBxMJTWlu
YXRvLWt1MRkwFwYDVQQKExBTb255IENvcnBvcmF0aW9uMRIwEAYDVQQLEwlOZXcg
QXVkaW8xGzAZBgNVBAMTEkNhc3QgQXVkaW8gU29ueSBDQTAeFw0xNjAyMjIwODE3
MDhaFw0zNjAyMTcwODE3MDhaMHoxCzAJBgNVBAYTAkpQMQ4wDAYDVQQIEwVUb2t5
bzESMBAGA1UEBxMJTWluYXRvLWt1MRkwFwYDVQQKExBTb255IENvcnBvcmF0aW9u
MRIwEAYDVQQLEwlOZXcgQXVkaW8xGDAWBgNVBAMTD1Nvbnkgc28xNnZpYyBDQTCC
ASIwDQYJKoZIhvcNAQEBBQADggEPADCCAQoCggEBAL5OFjhN9IKT5eZV+DP9QRh7
XZ8sz7CLtM+4pdHmuWWq1NiEtgrdZL5FWmXyzdA+zL0W6YrcDhVEhWo3r/YAyn+S
/2Q5BzxE/ddjx+YJjEcmKwHgsBb7RhOJTA4uct3XhYEN5XlvM+zEpnvzQf9Y63Np
Qeyjp+H+mURrUbNMmh+fn4L0qoUNvfOlUzpmY/HYZbi/btke1zqjqHPFVfEvWJx9
tsAW0r8CB03hFfnUO5VqmMIlP042r+rrS8vWbP8iitUNPRrkTXD6lDWDjqmt+vKN
44S0BSm8dXuD81KXmYPxdi+59YAkFUsCPxLXl/0T7gCflaP3sRN+N4oXH/uMuocC
AwEAAaN5MHcwDwYDVR0TBAgwBgEB/wIBADAdBgNVHQ4EFgQU+h+cydudpi8zp/nJ
impyY1Y/79EwHwYDVR0jBBgwFoAU9c2Zchg28va126f+BI7M0Nb5b4kwCwYDVR0P
BAQDAgEGMBcGA1UdIAQQMA4wDAYKKwYBBAHWeQIFAjANBgkqhkiG9w0BAQsFAAOC
AQEAggHheDnssBCj9LkFB7hYBFxSaRhHLCRSv583F6QDHth5nARrn7OWp4DF6Pm6
A6yYKVw8J7MTj/H1HB8QrZbvgAgs7r1ncZmpu7vV6JPaBiMb292RXaxDF2CeUh7V
5L+OYVbQsbDD5syvQ3h3JttM2zY0rmp1yIyMhWQxicRT9UnShhFUSwHFalailRZ2
yeYrOs+Cs04gZFd01mhLSwvLSmLuDaWAI20lw9M51gEr14Y+RwLi5bN6Q4aKfXuI
3l1IsU5lVrCmhfZCYkmC/NpQF6H5Ore5do0dtXaPFOVKTbzF/avd5FEu2cuxgmvE
2at7iC1PqI6Z6dEH+cy2293wvg==
-----END CERTIFICATE-----

$ openssl x509 -text -noout < [CERTIFICATE]
Certificate:
    Data:
        Version: 3 (0x2)
        Serial Number: 32 (0x20)
    Signature Algorithm: sha256WithRSAEncryption
        Issuer: C=US, ST=California, L=Mountain View, O=Google Inc, OU=Cast, CN=Cast Root CA
        Validity
            Not Before: Feb  6 20:36:16 2015 GMT
            Not After : Feb  1 20:36:16 2035 GMT
        Subject: C=JP, ST=Tokyo, L=Minato-ku, O=Sony Corporation, OU=New Audio, CN=Cast Audio Sony CA
        Subject Public Key Info:
            Public Key Algorithm: rsaEncryption
                Public-Key: (2048 bit)
                Modulus:
                    00:ca:4f:a1:7c:f3:31:a7:02:92:02:f7:cc:4e:1f:
                    26:2f:87:10:a9:64:62:0f:82:77:b4:1b:55:b1:4a:
                    85:bd:f8:1e:08:75:99:ed:ac:56:0f:1a:55:02:d0:
                    f9:f1:41:7c:7c:03:74:dd:c7:ad:56:ff:9a:7a:f8:
                    4a:86:b5:50:2d:b2:26:7f:bd:32:ea:66:de:17:3b:
                    38:aa:fd:05:ca:b2:84:c4:02:59:b3:b4:e9:18:ec:
                    aa:04:f1:0a:d0:70:b9:50:d8:6c:a6:bd:3b:36:ca:
                    d7:22:ec:13:54:c6:22:6f:6c:63:a4:1b:1c:76:ed:
                    0b:03:84:67:ff:ca:44:5a:e4:55:33:05:d9:7f:05:
                    07:d0:52:03:57:40:30:96:b7:94:bc:85:8a:78:84:
                    6e:f8:ea:2b:2e:a6:d9:96:c4:6a:72:be:15:49:e9:
                    4a:b6:59:76:bb:d4:79:79:6f:c0:19:99:19:e0:52:
                    21:fb:cb:cd:8e:41:be:77:b1:12:a3:7f:c9:85:4d:
                    fb:2f:50:e9:84:73:77:f8:75:98:34:b7:fe:3c:44:
                    c8:d9:96:66:75:e7:63:98:2e:ca:a1:10:8a:bc:63:
                    4d:69:4d:52:2a:6f:0e:7f:fa:05:9a:22:72:e5:6b:
                    91:72:b0:21:3b:61:e9:80:68:c3:63:c0:83:bf:51:
                    49:e9
                Exponent: 65537 (0x10001)
        X509v3 extensions:
            X509v3 Basic Constraints: 
                CA:TRUE, pathlen:1
            X509v3 Subject Key Identifier: 
                F5:CD:99:72:18:36:F2:F6:B5:DB:A7:FE:04:8E:CC:D0:D6:F9:6F:89
            X509v3 Authority Key Identifier: 
                keyid:7C:9A:1E:7D:DF:79:54:BC:D7:CC:5E:CA:99:86:45:79:65:74:28:19

            X509v3 Key Usage: 
                Certificate Sign, CRL Sign
            X509v3 Certificate Policies: 
                Policy: 1.3.6.1.4.1.11129.2.5.2

    Signature Algorithm: sha256WithRSAEncryption
         a8:99:1a:0f:31:60:6e:7b:41:94:de:09:01:eb:8b:b7:1f:72:
         54:14:96:9b:80:37:c9:62:02:b9:d9:db:26:33:53:c5:c1:ed:
         83:b4:4f:21:9d:58:e4:13:9d:cb:06:54:c7:6f:a6:e8:99:30:
         5a:cd:b0:cb:6d:81:25:d2:99:08:24:25:0e:83:a9:06:46:ec:
         56:ac:4d:ef:02:e6:c5:6f:99:3c:c5:01:8f:a7:f0:b0:af:3b:
         12:23:3a:e1:6b:e1:14:84:e3:4d:b0:e5:eb:04:8d:da:ad:01:
         13:b6:a8:37:a1:1d:99:76:78:a5:54:c8:d0:ed:16:9c:7e:e7:
         cf:eb:36:f1:96:1e:da:2a:73:9d:18:32:5a:e7:dc:03:2b:7e:
         84:fb:a5:1f:bb:13:67:34:87:49:03:2e:02:1d:0a:14:dd:58:
         b7:1d:71:34:f9:69:8a:06:9f:c5:1c:db:bf:29:aa:e4:80:11:
         a6:f6:e4:22:fd:61:5a:95:66:46:a2:8b:b1:8f:63:8d:64:76:
         d0:99:d2:43:c8:b7:df:e4:bf:08:84:7f:4b:b0:8c:e2:04:1c:
         80:08:52:7a:56:91:15:26:8d:13:5f:f0:d3:5c:ff:1e:f9:a4:
         21:11:e4:45:b3:c4:1e:63:94:68:94:c9:28:de:99:4e:61:24:
         9e:d8:f1:8b

-----BEGIN CERTIFICATE-----
MIID5jCCAs6gAwIBAgIBIDANBgkqhkiG9w0BAQsFADB1MQswCQYDVQQGEwJVUzET
MBEGA1UECAwKQ2FsaWZvcm5pYTEWMBQGA1UEBwwNTW91bnRhaW4gVmlldzETMBEG
A1UECgwKR29vZ2xlIEluYzENMAsGA1UECwwEQ2FzdDEVMBMGA1UEAwwMQ2FzdCBS
b290IENBMB4XDTE1MDIwNjIwMzYxNloXDTM1MDIwMTIwMzYxNlowfTELMAkGA1UE
BhMCSlAxDjAMBgNVBAgTBVRva3lvMRIwEAYDVQQHEwlNaW5hdG8ta3UxGTAXBgNV
BAoTEFNvbnkgQ29ycG9yYXRpb24xEjAQBgNVBAsTCU5ldyBBdWRpbzEbMBkGA1UE
AxMSQ2FzdCBBdWRpbyBTb255IENBMIIBIjANBgkqhkiG9w0BAQEFAAOCAQ8AMIIB
CgKCAQEAyk+hfPMxpwKSAvfMTh8mL4cQqWRiD4J3tBtVsUqFvfgeCHWZ7axWDxpV
AtD58UF8fAN03cetVv+aevhKhrVQLbImf70y6mbeFzs4qv0FyrKExAJZs7TpGOyq
BPEK0HC5UNhspr07NsrXIuwTVMYib2xjpBscdu0LA4Rn/8pEWuRVMwXZfwUH0FID
V0AwlreUvIWKeIRu+OorLqbZlsRqcr4VSelKtll2u9R5eW/AGZkZ4FIh+8vNjkG+
d7ESo3/JhU37L1DphHN3+HWYNLf+PETI2ZZmdedjmC7KoRCKvGNNaU1SKm8Of/oF
miJy5WuRcrAhO2HpgGjDY8CDv1FJ6QIDAQABo3kwdzAPBgNVHRMECDAGAQH/AgEB
MB0GA1UdDgQWBBT1zZlyGDby9rXbp/4EjszQ1vlviTAfBgNVHSMEGDAWgBR8mh59
33lUvNfMXsqZhkV5ZXQoGTALBgNVHQ8EBAMCAQYwFwYDVR0gBBAwDjAMBgorBgEE
AdZ5AgUCMA0GCSqGSIb3DQEBCwUAA4IBAQComRoPMWBue0GU3gkB64u3H3JUFJab
gDfJYgK52dsmM1PFwe2DtE8hnVjkE53LBlTHb6bomTBazbDLbYEl0pkIJCUOg6kG
RuxWrE3vAubFb5k8xQGPp/CwrzsSIzrha+EUhONNsOXrBI3arQETtqg3oR2Zdnil
VMjQ7RacfufP6zbxlh7aKnOdGDJa59wDK36E+6UfuxNnNIdJAy4CHQoU3Vi3HXE0
+WmKBp/FHNu/KarkgBGm9uQi/WFalWZGoouxj2ONZHbQmdJDyLff5L8IhH9LsIzi
BByACFJ6VpEVJo0TX/DTXP8e+aQhEeRFs8QeY5RolMko3plOYSSe2PGL
-----END CERTIFICATE-----
