$ openssl x509 -text -noout < [CERTIFICATE]
Certificate:
    Data:
        Version: 3 (0x2)
        Serial Number: 20 (0x14)
    Signature Algorithm: sha256WithRSAEncryption
        Issuer: C=US, ST=California, L=Mountain View, O=Google Inc, OU=Cast, CN=MediaTek Audio Dev Model
        Validity
            Not Before: Nov 17 18:22:26 2014 GMT
            Not After : Mar 31 18:22:26 2015 GMT
        Subject: C=US, ST=California, L=Mountain View, O=Google Inc, OU=Cast, CN=MediaTek Audio Dev Test
        Subject Public Key Info:
            Public Key Algorithm: rsaEncryption
                Public-Key: (2048 bit)
                Modulus:
                    00:ce:84:9f:04:38:5b:e8:93:71:45:04:32:29:80:
                    f6:64:b4:04:9f:49:5a:c5:5b:31:e3:ca:84:fa:e8:
                    14:45:a4:07:e0:c3:fa:ea:52:02:29:78:d7:75:dc:
                    3f:dd:97:43:55:97:1f:34:2e:0e:63:8b:95:c5:c0:
                    ba:ce:55:19:9d:5b:d9:c2:5f:24:49:3e:dc:cd:af:
                    3e:77:7e:aa:ad:6a:56:b7:6e:43:1b:c6:32:6a:26:
                    82:81:05:41:2e:38:65:b7:6f:22:2d:08:db:58:66:
                    bd:f5:44:1c:db:7e:be:d2:86:3e:26:1f:9c:3d:62:
                    0d:17:6d:ff:26:63:7f:04:69:56:1c:b7:64:d5:83:
                    eb:db:66:19:e7:d9:96:36:a2:0c:a8:aa:4a:cf:fe:
                    1e:3c:93:00:60:ba:0a:3c:71:a2:a8:be:46:6b:19:
                    33:ae:09:b6:70:a0:00:f5:4a:61:3c:05:b9:40:80:
                    aa:09:e9:d2:29:c1:87:69:fd:9e:59:06:70:df:f8:
                    87:7a:8e:a2:8b:97:06:fc:41:09:13:db:23:61:00:
                    aa:1f:85:d6:08:07:a9:e8:21:9c:00:ce:2c:a4:e8:
                    23:13:df:7b:63:f3:b8:a3:80:38:97:4a:98:7b:8d:
                    28:7b:4b:4b:3b:4d:89:cc:f1:43:c8:ed:73:74:54:
                    9e:4d
                Exponent: 65537 (0x10001)
        X509v3 extensions:
            X509v3 Basic Constraints: 
                CA:FALSE
            X509v3 Subject Key Identifier: 
                75:8D:69:9E:FD:5F:21:11:21:DE:17:99:5C:5C:FD:A3:88:54:07:25
            X509v3 Authority Key Identifier: 
                keyid:06:45:8E:DD:60:B7:71:EF:DD:4C:71:83:F1:58:C8:3F:85:A5:F7:F5

            X509v3 Key Usage: 
                Digital Signature
            X509v3 Extended Key Usage: 
                TLS Web Client Authentication
            X509v3 Certificate Policies: 
                Policy: 1.3.6.1.4.1.11129.2.5.2

    Signature Algorithm: sha256WithRSAEncryption
         69:dc:af:48:ce:e5:24:7b:46:a6:ac:08:d4:9e:4b:75:48:74:
         d3:c1:22:4c:51:80:8b:68:24:5a:64:12:e4:60:12:88:86:e6:
         36:85:37:9b:a7:c8:9a:92:aa:d4:75:9e:4f:29:16:12:e7:4f:
         9c:2b:65:42:39:17:3b:4b:fe:a2:2b:95:43:0d:8e:5d:10:06:
         a7:eb:a9:7b:17:aa:da:f7:12:17:b6:61:4d:03:e1:10:3c:03:
         65:46:f3:c3:b7:0d:0c:9a:a6:c1:95:91:16:f0:8b:ef:2e:84:
         6e:72:7e:32:43:94:9e:59:b6:bb:29:19:a3:14:e5:be:a2:d8:
         2e:45:45:3a:14:0b:e9:c9:af:53:4e:be:34:38:f9:94:7a:a0:
         fd:fe:49:66:a2:c3:d4:8d:ad:d4:43:e6:c2:f0:8e:e9:97:4c:
         32:06:18:80:2a:8e:9e:b9:ca:c8:34:c4:f9:f7:b6:ad:4b:8c:
         87:b6:c4:af:10:de:a8:15:64:eb:53:b7:54:88:ad:b1:92:ca:
         43:88:9c:c2:6a:86:96:45:be:fd:de:74:a8:c8:62:c3:65:87:
         a2:c2:27:9d:ea:1a:4b:1a:f7:4d:11:9b:1c:4c:d2:b9:88:1c:
         27:28:0a:17:07:8b:77:92:18:32:3c:e1:33:9d:eb:a8:94:f1:
         27:2e:9d:8b
-----BEGIN CERTIFICATE-----
MIIECDCCAvCgAwIBAgIBFDANBgkqhkiG9w0BAQsFADCBgTELMAkGA1UEBhMCVVMxEzARBgNVBAg
MCkNhbGlmb3JuaWExFjAUBgNVBAcMDU1vdW50YWluIFZpZXcxEzARBgNVBAoMCkdvb2dsZSBJbm
MxDTALBgNVBAsMBENhc3QxITAfBgNVBAMMGE1lZGlhVGVrIEF1ZGlvIERldiBNb2RlbDAeFw0xN
DExMTcxODIyMjZaFw0xNTAzMzExODIyMjZaMIGAMQswCQYDVQQGEwJVUzETMBEGA1UECAwKQ2Fs
aWZvcm5pYTEWMBQGA1UEBwwNTW91bnRhaW4gVmlldzETMBEGA1UECgwKR29vZ2xlIEluYzENMAs
GA1UECwwEQ2FzdDEgMB4GA1UEAwwXTWVkaWFUZWsgQXVkaW8gRGV2IFRlc3QwggEiMA0GCSqGSI
b3DQEBAQUAA4IBDwAwggEKAoIBAQDOhJ8EOFvok3FFBDIpgPZktASfSVrFWzHjyoT66BRFpAfgw
/rqUgIpeNd13D/dl0NVlx80Lg5ji5XFwLrOVRmdW9nCXyRJPtzNrz53fqqtala3bkMbxjJqJoKB
BUEuOGW3byItCNtYZr31RBzbfr7Shj4mH5w9Yg0Xbf8mY38EaVYct2TVg+vbZhnn2ZY2ogyoqkr
P/h48kwBgugo8caKovkZrGTOuCbZwoAD1SmE8BblAgKoJ6dIpwYdp/Z5ZBnDf+Id6jqKLlwb8QQ
kT2yNhAKofhdYIB6noIZwAziyk6CMT33tj87ijgDiXSph7jSh7S0s7TYnM8UPI7XN0VJ5NAgMBA
AGjgYkwgYYwCQYDVR0TBAIwADAdBgNVHQ4EFgQUdY1pnv1fIREh3heZXFz9o4hUByUwHwYDVR0j
BBgwFoAUBkWO3WC3ce/dTHGD8VjIP4Wl9/UwCwYDVR0PBAQDAgeAMBMGA1UdJQQMMAoGCCsGAQU
FBwMCMBcGA1UdIAQQMA4wDAYKKwYBBAHWeQIFAjANBgkqhkiG9w0BAQsFAAOCAQEAadyvSM7lJH
tGpqwI1J5LdUh008EiTFGAi2gkWmQS5GASiIbmNoU3m6fImpKq1HWeTykWEudPnCtlQjkXO0v+o
iuVQw2OXRAGp+upexeq2vcSF7ZhTQPhEDwDZUbzw7cNDJqmwZWRFvCL7y6EbnJ+MkOUnlm2uykZ
oxTlvqLYLkVFOhQL6cmvU06+NDj5lHqg/f5JZqLD1I2t1EPmwvCO6ZdMMgYYgCqOnrnKyDTE+fe
2rUuMh7bErxDeqBVk61O3VIitsZLKQ4icwmqGlkW+/d50qMhiw2WHosInneoaSxr3TRGbHEzSuY
gcJygKFweLd5IYMjzhM53rqJTxJy6diw==
-----END CERTIFICATE-----

$ openssl x509 -text -noout < [CERTIFICATE]
Certificate:
    Data:
        Version: 3 (0x2)
        Serial Number: 19 (0x13)
    Signature Algorithm: sha256WithRSAEncryption
        Issuer: C=US, ST=California, L=Mountain View, O=Google Inc, OU=Cast, CN=Cast Audio Dev Root CA
        Validity
            Not Before: Nov 17 18:21:14 2014 GMT
            Not After : Mar 31 18:21:14 2015 GMT
        Subject: C=US, ST=California, L=Mountain View, O=Google Inc, OU=Cast, CN=MediaTek Audio Dev Model
        Subject Public Key Info:
            Public Key Algorithm: rsaEncryption
                Public-Key: (2048 bit)
                Modulus:
                    00:a0:0b:b3:e2:3b:5f:40:91:e7:1b:25:2d:2b:28:
                    2a:57:6d:ef:cf:42:f8:73:de:38:fb:d3:cf:76:e4:
                    a3:64:a7:82:3a:ae:9a:2f:7d:6c:d6:46:0b:69:35:
                    6b:2c:ad:e0:a1:d9:52:93:83:04:1f:e4:ae:1a:dd:
                    9c:77:f3:22:d5:30:d8:9f:f0:8a:a0:87:b1:7f:84:
                    57:3b:60:33:8e:75:db:bf:c3:a4:74:f9:2d:df:99:
                    6f:85:88:3c:c3:ad:77:53:ef:e2:d5:2f:80:db:20:
                    9f:96:ae:5b:d7:7d:45:05:40:26:57:df:d2:3b:34:
                    c2:cd:ac:0f:5c:be:fe:70:1c:4f:ef:33:03:55:b5:
                    dc:41:bd:ef:c9:c0:e3:9c:5d:31:d7:25:01:95:d3:
                    fe:c3:99:e7:af:b3:9d:ad:aa:bc:6d:63:a8:ca:62:
                    36:f5:9c:a4:ac:da:a4:16:73:cf:e7:5e:11:27:ea:
                    21:43:0d:15:8a:26:f2:ca:63:e0:04:e1:59:f0:34:
                    3c:50:99:49:f6:fc:33:2d:ab:d2:a6:61:5d:b5:a6:
                    e2:40:b9:e8:68:72:9f:69:2c:6b:32:75:d9:40:b3:
                    71:d9:65:f9:ba:b7:d8:12:b2:cf:e7:ab:f6:cc:cc:
                    ed:8a:22:c6:61:cd:7f:9b:83:b2:8c:52:fe:24:bb:
                    9e:f7
                Exponent: 65537 (0x10001)
        X509v3 extensions:
            X509v3 Basic Constraints: 
                CA:TRUE, pathlen:0
            X509v3 Subject Key Identifier: 
                06:45:8E:DD:60:B7:71:EF:DD:4C:71:83:F1:58:C8:3F:85:A5:F7:F5
            X509v3 Authority Key Identifier: 
                keyid:4F:93:EA:B8:A6:60:AF:AB:A8:B3:5E:B7:A6:37:7E:66:BD:43:BC:06

            X509v3 Key Usage: 
                Certificate Sign, CRL Sign
            X509v3 Certificate Policies: 
                Policy: 1.3.6.1.4.1.11129.2.5.2

    Signature Algorithm: sha256WithRSAEncryption
         53:07:48:54:47:6b:e8:36:8a:28:65:90:76:53:f1:4f:a7:8c:
         c1:64:59:73:5e:74:e7:f8:b6:78:8b:f3:c1:d7:34:86:bb:ab:
         4c:58:df:e8:87:9d:29:b0:0f:5e:bd:b8:a0:7b:fe:14:77:a1:
         cc:98:4a:82:36:48:5b:b6:ce:a0:ba:bb:84:b9:f1:2d:cd:ec:
         fe:40:59:7c:5f:8e:bb:fa:1a:e2:4b:a7:3d:91:da:25:7b:ca:
         3a:22:f1:7b:32:53:49:63:51:c3:ab:42:11:e7:23:d0:99:98:
         8a:da:cc:9d:f1:1c:a9:06:68:7b:82:76:3e:a6:79:2a:2f:71:
         ee:f9:2d:48:55:f3:34:8d:1d:be:78:54:e7:c0:3b:45:3e:59:
         44:3d:b5:ba:6d:3a:14:c1:4d:fb:4f:a5:a9:e9:b0:c3:0c:b0:
         7e:cd:54:f7:df:92:8e:a4:be:e8:33:f0:c7:cf:95:cc:4a:4f:
         dd:84:7a:8c:ec:88:e3:4d:01:f6:29:1a:d8:c7:10:a6:60:f7:
         5a:95:1c:80:b5:63:c0:3d:03:5d:fa:0a:c2:53:d3:52:4b:0c:
         06:b6:bc:87:89:67:ee:39:2d:05:58:ad:d9:d5:e7:64:2b:f3:
         3d:0b:73:5f:3c:9b:9b:9f:ff:51:7f:c5:b0:c6:07:42:48:8b:
         67:e4:ac:b8
-----BEGIN CERTIFICATE-----
MIID9TCCAt2gAwIBAgIBEzANBgkqhkiG9w0BAQsFADB/MQswCQYDVQQGEwJVUzETMBEGA1UECAw
KQ2FsaWZvcm5pYTEWMBQGA1UEBwwNTW91bnRhaW4gVmlldzETMBEGA1UECgwKR29vZ2xlIEluYz
ENMAsGA1UECwwEQ2FzdDEfMB0GA1UEAwwWQ2FzdCBBdWRpbyBEZXYgUm9vdCBDQTAeFw0xNDExM
TcxODIxMTRaFw0xNTAzMzExODIxMTRaMIGBMQswCQYDVQQGEwJVUzETMBEGA1UECAwKQ2FsaWZv
cm5pYTEWMBQGA1UEBwwNTW91bnRhaW4gVmlldzETMBEGA1UECgwKR29vZ2xlIEluYzENMAsGA1U
ECwwEQ2FzdDEhMB8GA1UEAwwYTWVkaWFUZWsgQXVkaW8gRGV2IE1vZGVsMIIBIjANBgkqhkiG9w
0BAQEFAAOCAQ8AMIIBCgKCAQEAoAuz4jtfQJHnGyUtKygqV23vz0L4c944+9PPduSjZKeCOq6aL
31s1kYLaTVrLK3godlSk4MEH+SuGt2cd/Mi1TDYn/CKoIexf4RXO2AzjnXbv8OkdPkt35lvhYg8
w613U+/i1S+A2yCflq5b131FBUAmV9/SOzTCzawPXL7+cBxP7zMDVbXcQb3vycDjnF0x1yUBldP
+w5nnr7Odraq8bWOoymI29ZykrNqkFnPP514RJ+ohQw0ViibyymPgBOFZ8DQ8UJlJ9vwzLavSpm
FdtabiQLnoaHKfaSxrMnXZQLNx2WX5urfYErLP56v2zMztiiLGYc1/m4OyjFL+JLue9wIDAQABo
3kwdzAPBgNVHRMECDAGAQH/AgEAMB0GA1UdDgQWBBQGRY7dYLdx791McYPxWMg/haX39TAfBgNV
HSMEGDAWgBRPk+q4pmCvq6izXremN35mvUO8BjALBgNVHQ8EBAMCAQYwFwYDVR0gBBAwDjAMBgo
rBgEEAdZ5AgUCMA0GCSqGSIb3DQEBCwUAA4IBAQBTB0hUR2voNoooZZB2U/FPp4zBZFlzXnTn+L
Z4i/PB1zSGu6tMWN/oh50psA9evbige/4Ud6HMmEqCNkhbts6guruEufEtzez+QFl8X467+hriS
6c9kdole8o6IvF7MlNJY1HDq0IR5yPQmZiK2syd8RypBmh7gnY+pnkqL3Hu+S1IVfM0jR2+eFTn
wDtFPllEPbW6bToUwU37T6Wp6bDDDLB+zVT335KOpL7oM/DHz5XMSk/dhHqM7IjjTQH2KRrYxxC
mYPdalRyAtWPAPQNd+grCU9NSSwwGtryHiWfuOS0FWK3Z1edkK/M9C3NfPJubn/9Rf8WwxgdCSI
tn5Ky4
-----END CERTIFICATE-----

$ openssl x509 -text -noout < [CERTIFICATE]
Certificate:
    Data:
        Version: 3 (0x2)
        Serial Number: 18 (0x12)
    Signature Algorithm: sha256WithRSAEncryption
        Issuer: C=US, ST=California, L=Mountain View, O=Google Inc, OU=Cast, CN=Cast Root CA
        Validity
            Not Before: Nov 17 18:19:26 2014 GMT
            Not After : Mar 31 18:19:26 2015 GMT
        Subject: C=US, ST=California, L=Mountain View, O=Google Inc, OU=Cast, CN=Cast Audio Dev Root CA
        Subject Public Key Info:
            Public Key Algorithm: rsaEncryption
                Public-Key: (2048 bit)
                Modulus:
                    00:b9:86:ee:81:9b:07:f1:c6:15:6a:30:1e:41:bd:
                    3b:70:f4:96:88:7d:f7:d3:29:63:3d:b8:ca:a1:ec:
                    3d:81:43:08:85:2b:30:5f:4b:6b:54:19:a9:92:46:
                    98:9a:2e:2a:ff:9d:f3:48:b2:5d:d6:0a:9c:49:81:
                    6a:63:1a:12:e7:8e:3c:39:74:67:67:c7:d5:d4:f3:
                    7c:45:65:07:84:15:b1:df:0b:16:0d:21:de:71:24:
                    b0:88:00:8a:69:cf:ae:70:24:82:64:60:48:c8:5a:
                    52:86:50:73:36:e0:24:53:5c:e8:58:13:7a:29:b8:
                    8a:a8:39:68:98:12:bf:9f:37:df:60:67:e0:3f:1f:
                    fa:de:b7:d1:a4:17:c3:c2:c5:b5:be:d7:98:e1:3d:
                    0d:59:66:e5:07:49:9a:bb:9e:4f:f3:37:38:37:df:
                    0c:19:8b:cd:fd:2c:fc:f5:a9:09:6b:4a:d3:13:22:
                    8f:fd:f9:64:e5:2c:5f:be:5a:a5:84:32:9c:e5:2a:
                    73:f5:dc:aa:57:c2:7f:3e:d6:7c:9f:55:f0:28:9c:
                    21:ba:e6:99:61:fc:39:0d:31:ac:14:9d:c1:97:b5:
                    e8:ce:97:1b:19:b8:c0:ae:52:1a:2a:46:7a:2c:f8:
                    c4:18:7d:6a:73:12:20:ec:39:47:e0:de:e3:d5:8d:
                    82:0f
                Exponent: 65537 (0x10001)
        X509v3 extensions:
            X509v3 Basic Constraints: 
                CA:TRUE, pathlen:1
            X509v3 Subject Key Identifier: 
                4F:93:EA:B8:A6:60:AF:AB:A8:B3:5E:B7:A6:37:7E:66:BD:43:BC:06
            X509v3 Authority Key Identifier: 
                keyid:7C:9A:1E:7D:DF:79:54:BC:D7:CC:5E:CA:99:86:45:79:65:74:28:19

            X509v3 Key Usage: 
                Certificate Sign, CRL Sign
            X509v3 Certificate Policies: 
                Policy: 1.3.6.1.4.1.11129.2.5.2

    Signature Algorithm: sha256WithRSAEncryption
         0d:8f:39:1a:7f:65:63:9a:16:d7:7f:e0:2f:64:79:7d:0e:3f:
         cf:3a:85:fe:2b:8b:1e:54:47:c7:fe:ce:ad:ea:51:24:1d:a5:
         ea:1e:5f:31:99:c3:3f:87:ac:8e:dc:d7:8c:5e:3d:aa:42:99:
         58:07:bf:7c:87:51:7d:90:2f:e2:4d:14:03:a2:db:b9:92:51:
         3c:34:7d:00:5e:e3:3e:c1:ab:56:a1:f8:5f:59:fb:64:8d:35:
         e9:6c:de:27:c0:b4:70:82:7f:6e:20:e7:ed:d3:94:e3:c2:80:
         d0:6f:47:fd:b1:64:d0:1e:39:1e:c7:7c:65:c9:51:99:ec:7e:
         c2:ba:8a:ef:95:29:44:f1:31:33:05:fa:34:4a:50:3f:bf:69:
         91:0a:8d:98:8d:f3:1e:99:1f:6c:ea:d1:81:ce:b5:52:c0:f6:
         c6:5f:32:7c:59:88:dd:3c:45:f2:c8:1b:47:fc:f3:d4:0e:eb:
         f5:57:22:91:f7:9f:3b:88:62:c9:7a:d5:cf:1d:98:fc:f2:78:
         5a:8f:fc:e9:4d:7d:a4:9b:5c:94:07:94:8d:91:8b:c8:10:76:
         6c:16:74:90:9c:a8:bf:18:38:9a:00:2d:d0:2d:a4:6b:98:d9:
         9f:3b:68:43:c3:91:bf:93:0d:f1:12:56:9a:d5:e9:69:7b:7e:
         e3:75:37:56
-----BEGIN CERTIFICATE-----
MIID6DCCAtCgAwIBAgIBEjANBgkqhkiG9w0BAQsFADB1MQswCQYDVQQGEwJVUzETMBEGA1UECAw
KQ2FsaWZvcm5pYTEWMBQGA1UEBwwNTW91bnRhaW4gVmlldzETMBEGA1UECgwKR29vZ2xlIEluYz
ENMAsGA1UECwwEQ2FzdDEVMBMGA1UEAwwMQ2FzdCBSb290IENBMB4XDTE0MTExNzE4MTkyNloXD
TE1MDMzMTE4MTkyNlowfzELMAkGA1UEBhMCVVMxEzARBgNVBAgMCkNhbGlmb3JuaWExFjAUBgNV
BAcMDU1vdW50YWluIFZpZXcxEzARBgNVBAoMCkdvb2dsZSBJbmMxDTALBgNVBAsMBENhc3QxHzA
dBgNVBAMMFkNhc3QgQXVkaW8gRGV2IFJvb3QgQ0EwggEiMA0GCSqGSIb3DQEBAQUAA4IBDwAwgg
EKAoIBAQC5hu6BmwfxxhVqMB5BvTtw9JaIfffTKWM9uMqh7D2BQwiFKzBfS2tUGamSRpiaLir/n
fNIsl3WCpxJgWpjGhLnjjw5dGdnx9XU83xFZQeEFbHfCxYNId5xJLCIAIppz65wJIJkYEjIWlKG
UHM24CRTXOhYE3opuIqoOWiYEr+fN99gZ+A/H/ret9GkF8PCxbW+15jhPQ1ZZuUHSZq7nk/zNzg
33wwZi839LPz1qQlrStMTIo/9+WTlLF++WqWEMpzlKnP13KpXwn8+1nyfVfAonCG65plh/DkNMa
wUncGXtejOlxsZuMCuUhoqRnos+MQYfWpzEiDsOUfg3uPVjYIPAgMBAAGjeTB3MA8GA1UdEwQIM
AYBAf8CAQEwHQYDVR0OBBYEFE+T6rimYK+rqLNet6Y3fma9Q7wGMB8GA1UdIwQYMBaAFHyaHn3f
eVS818xeypmGRXlldCgZMAsGA1UdDwQEAwIBBjAXBgNVHSAEEDAOMAwGCisGAQQB1nkCBQIwDQY
JKoZIhvcNAQELBQADggEBAA2PORp/ZWOaFtd/4C9keX0OP886hf4rix5UR8f+zq3qUSQdpeoeXz
GZwz+HrI7c14xePapCmVgHv3yHUX2QL+JNFAOi27mSUTw0fQBe4z7Bq1ah+F9Z+2SNNels3ifAt
HCCf24g5+3TlOPCgNBvR/2xZNAeOR7HfGXJUZnsfsK6iu+VKUTxMTMF+jRKUD+/aZEKjZiN8x6Z
H2zq0YHOtVLA9sZfMnxZiN08RfLIG0f889QO6/VXIpH3nzuIYsl61c8dmPzyeFqP/OlNfaSbXJQ
HlI2Ri8gQdmwWdJCcqL8YOJoALdAtpGuY2Z87aEPDkb+TDfESVprV6Wl7fuN1N1Y=
-----END CERTIFICATE-----
