[Created by: ./generate_rsa_device_certs.py]

Cast certificate chain where device certificate uses a
  2048-bit RSA key

Certificate:
    Data:
        Version: 3 (0x2)
        Serial Number: 2 (0x2)
    Signature Algorithm: sha256WithRSAEncryption
        Issuer: CN=Intermediate
        Validity
            Not Before: Jan  1 12:00:00 2015 GMT
            Not After : Jan  1 12:00:00 2018 GMT
        Subject: CN=RSA 2048 Device Cert
        Subject Public Key Info:
            Public Key Algorithm: rsaEncryption
                Public-Key: (2048 bit)
                Modulus:
                    00:f6:7a:6f:33:8a:c9:b3:9d:db:a8:47:0c:2c:cd:
                    ff:27:db:37:7c:3f:8f:cf:6f:e4:f9:1c:77:6f:82:
                    38:38:76:de:bb:2f:c5:df:47:15:3e:3d:f3:ee:d9:
                    38:4e:c1:a6:2f:c4:dd:8e:ce:a9:a4:a6:4b:81:cb:
                    0d:b2:89:cb:6f:a6:2c:83:cb:72:c8:26:b3:0d:d1:
                    b4:a1:66:f3:ca:d3:74:a9:6a:61:14:d7:6d:b0:0a:
                    8f:a7:25:b5:d8:6a:0a:75:a3:e8:be:7e:6a:08:5f:
                    fc:31:46:2a:1d:e0:d3:21:6b:bf:1c:02:e8:b7:0a:
                    6c:11:f1:69:50:32:15:59:04:c6:75:fe:2c:e7:c6:
                    cc:c8:89:7d:f7:16:da:89:16:b0:1f:10:b1:73:d1:
                    00:06:c5:a5:e2:34:88:1f:8a:aa:d0:45:03:6e:82:
                    b5:ad:49:c7:ad:50:42:18:3a:35:35:88:90:68:98:
                    02:bd:cc:d7:14:51:fe:86:bb:86:76:67:f2:8e:1f:
                    f9:3d:e1:e4:a3:dc:bd:b8:b0:6f:b6:14:b8:0b:a8:
                    0d:24:cf:df:33:45:5a:0c:52:18:29:f9:94:4a:a2:
                    14:c5:b8:90:6c:b6:fc:e1:a1:c5:d3:09:c0:f7:be:
                    9b:be:84:e1:82:a9:58:7f:bc:7e:7a:0f:7d:40:e9:
                    70:b5
                Exponent: 65537 (0x10001)
        X509v3 extensions:
            X509v3 Subject Key Identifier: 
                1F:F8:92:E0:17:EB:C1:D9:58:25:A3:29:5B:7D:BF:F7:0E:3D:AE:1C
            X509v3 Authority Key Identifier: 
                keyid:66:32:63:74:0F:08:DC:E5:56:9E:6A:77:1F:94:2F:F5:10:F0:87:67

            Authority Information Access: 
                CA Issuers - URI:http://url-for-aia/Intermediate.cer

            X509v3 CRL Distribution Points: 

                Full Name:
                  URI:http://url-for-crl/Intermediate.crl

            X509v3 Key Usage: critical
                Digital Signature, Key Encipherment
            X509v3 Extended Key Usage: 
                TLS Web Client Authentication
    Signature Algorithm: sha256WithRSAEncryption
         5f:19:b5:37:ec:ec:0a:2a:6b:30:28:7c:bd:8a:b4:f9:c0:a3:
         64:ba:ce:4a:51:6b:10:09:dd:90:08:00:b8:8e:2d:37:1d:dd:
         62:3a:13:c9:2a:15:31:6e:37:b5:15:75:2f:15:72:f3:a7:30:
         8c:f1:d1:04:78:d0:6d:cd:68:22:e5:f0:45:7b:52:7d:cf:a5:
         aa:cb:a0:b0:ee:e0:a9:fe:c9:f4:3b:df:0f:49:20:bf:c1:79:
         13:65:50:b2:32:b9:4d:14:2a:7f:55:ca:82:32:e5:6e:92:19:
         3e:c9:41:fa:9b:c0:f7:0a:a8:80:8c:ac:7f:45:79:8d:24:d9:
         0f:2d:9c:65:d7:e9:83:8e:61:b1:32:01:44:8f:09:8f:b6:b2:
         aa:57:d2:e2:95:67:b7:b4:9b:ae:01:ac:3e:3e:27:d0:97:20:
         02:42:3b:47:0a:bf:a2:e6:10:a8:59:f2:df:26:30:88:29:b5:
         a4:81:a2:2a:e8:c0:d8:b8:96:d3:15:88:30:bc:7a:f0:9a:a4:
         a1:a6:49:b4:3d:e3:4b:24:9b:f7:52:50:70:74:f3:56:4f:4f:
         e3:91:bc:80:28:3b:59:b8:df:e8:23:24:67:3a:c0:c1:29:b9:
         c0:4a:ba:4b:41:35:f7:eb:6a:d7:65:b3:13:70:c6:08:74:5a:
         ba:2d:b1:bb
-----BEGIN CERTIFICATE-----
MIIDkTCCAnmgAwIBAgIBAjANBgkqhkiG9w0BAQsFADAXMRUwEwYDVQQDDAxJbnRl
cm1lZGlhdGUwHhcNMTUwMTAxMTIwMDAwWhcNMTgwMTAxMTIwMDAwWjAfMR0wGwYD
VQQDDBRSU0EgMjA0OCBEZXZpY2UgQ2VydDCCASIwDQYJKoZIhvcNAQEBBQADggEP
ADCCAQoCggEBAPZ6bzOKybOd26hHDCzN/yfbN3w/j89v5Pkcd2+CODh23rsvxd9H
FT498+7ZOE7Bpi/E3Y7OqaSmS4HLDbKJy2+mLIPLcsgmsw3RtKFm88rTdKlqYRTX
bbAKj6cltdhqCnWj6L5+aghf/DFGKh3g0yFrvxwC6LcKbBHxaVAyFVkExnX+LOfG
zMiJffcW2okWsB8QsXPRAAbFpeI0iB+KqtBFA26Cta1Jx61QQhg6NTWIkGiYAr3M
1xRR/oa7hnZn8o4f+T3h5KPcvbiwb7YUuAuoDSTP3zNFWgxSGCn5lEqiFMW4kGy2
/OGhxdMJwPe+m76E4YKpWH+8fnoPfUDpcLUCAwEAAaOB3zCB3DAdBgNVHQ4EFgQU
H/iS4BfrwdlYJaMpW32/9w49rhwwHwYDVR0jBBgwFoAUZjJjdA8I3OVWnmp3H5Qv
9RDwh2cwPwYIKwYBBQUHAQEEMzAxMC8GCCsGAQUFBzAChiNodHRwOi8vdXJsLWZv
ci1haWEvSW50ZXJtZWRpYXRlLmNlcjA0BgNVHR8ELTArMCmgJ6AlhiNodHRwOi8v
dXJsLWZvci1jcmwvSW50ZXJtZWRpYXRlLmNybDAOBgNVHQ8BAf8EBAMCBaAwEwYD
VR0lBAwwCgYIKwYBBQUHAwIwDQYJKoZIhvcNAQELBQADggEBAF8ZtTfs7AoqazAo
fL2KtPnAo2S6zkpRaxAJ3ZAIALiOLTcd3WI6E8kqFTFuN7UVdS8VcvOnMIzx0QR4
0G3NaCLl8EV7Un3PparLoLDu4Kn+yfQ73w9JIL/BeRNlULIyuU0UKn9VyoIy5W6S
GT7JQfqbwPcKqICMrH9FeY0k2Q8tnGXX6YOOYbEyAUSPCY+2sqpX0uKVZ7e0m64B
rD4+J9CXIAJCO0cKv6LmEKhZ8t8mMIgptaSBoirowNi4ltMViDC8evCapKGmSbQ9
40skm/dSUHB081ZPT+ORvIAoO1m43+gjJGc6wMEpucBKuktBNffratdlsxNwxgh0
Wrotsbs=
-----END CERTIFICATE-----

Certificate:
    Data:
        Version: 3 (0x2)
        Serial Number: 4 (0x4)
    Signature Algorithm: sha256WithRSAEncryption
        Issuer: CN=Root
        Validity
            Not Before: Jan  1 12:00:00 2015 GMT
            Not After : Jan  1 12:00:00 2018 GMT
        Subject: CN=Intermediate
        Subject Public Key Info:
            Public Key Algorithm: rsaEncryption
                Public-Key: (2048 bit)
                Modulus:
                    00:da:bd:1b:16:83:47:79:63:b4:b1:d2:d8:a7:e8:
                    d2:bc:4d:20:70:fd:e2:aa:d3:c8:12:ea:b4:b1:8d:
                    df:ed:97:70:b7:96:41:80:c0:52:7c:62:49:93:3d:
                    57:43:f2:c0:f9:17:cc:11:28:ee:49:3a:e7:56:54:
                    3b:08:ee:c8:77:9a:85:be:9a:28:d1:ba:69:3f:57:
                    5b:f1:6e:40:d0:78:22:b5:a4:41:b4:8a:00:2e:b1:
                    83:93:fc:59:dd:39:e8:77:dd:0c:a3:9a:d1:ec:c2:
                    bc:cd:1b:ec:14:96:45:e9:33:de:e6:53:f6:3a:80:
                    66:8e:b7:f2:78:7f:5a:e5:57:3e:cc:a9:12:4b:bf:
                    b6:02:30:85:1a:b7:65:6e:57:32:90:bd:64:13:c4:
                    43:9e:4a:2f:05:3d:c5:61:bf:2f:d0:56:c9:75:8f:
                    36:95:42:b4:3a:97:38:a8:41:26:34:cc:ec:41:97:
                    52:10:f9:de:2c:21:b2:52:5d:28:07:75:3a:23:2b:
                    4e:01:38:fd:f5:2d:15:f2:8c:f4:32:9e:ad:b1:da:
                    2d:3c:82:68:7b:0c:9b:f9:c1:38:4f:81:6f:29:e0:
                    ae:a7:8d:6f:69:82:24:4a:24:74:a4:fa:09:8a:bf:
                    16:5d:bc:f3:a8:6c:ec:9b:ed:1d:75:a9:f2:c4:ed:
                    ad:87
                Exponent: 65537 (0x10001)
        X509v3 extensions:
            X509v3 Subject Key Identifier: 
                66:32:63:74:0F:08:DC:E5:56:9E:6A:77:1F:94:2F:F5:10:F0:87:67
            X509v3 Authority Key Identifier: 
                keyid:7E:4B:E4:D7:F7:28:D4:4D:56:94:D8:9F:0A:C2:A7:CC:AD:4A:BD:C1

            Authority Information Access: 
                CA Issuers - URI:http://url-for-aia/Root.cer

            X509v3 CRL Distribution Points: 

                Full Name:
                  URI:http://url-for-crl/Root.crl

            X509v3 Key Usage: critical
                Certificate Sign, CRL Sign
            X509v3 Basic Constraints: critical
                CA:TRUE
    Signature Algorithm: sha256WithRSAEncryption
         58:82:68:4d:2f:e7:a1:f5:cb:16:b6:bb:52:4a:0b:34:61:ca:
         5b:d1:57:fe:11:8b:86:54:5f:9a:92:bd:31:f9:7a:16:a3:3d:
         81:7f:c9:06:63:92:5d:91:29:a7:5b:13:22:fb:99:89:78:15:
         8f:bf:67:85:ce:06:98:e7:79:03:99:fb:06:4d:88:26:c0:28:
         c5:46:91:92:94:1a:7e:2b:c2:4b:5a:b3:0c:d9:df:25:4d:ae:
         b8:b6:10:5e:54:dc:26:60:6c:17:99:e7:6c:66:d2:cb:f3:a9:
         c8:68:5d:5b:d4:71:b0:ea:35:c9:03:3f:32:d4:e2:1b:bc:05:
         36:05:62:0d:75:95:db:17:a2:a5:0b:3e:4d:b9:bf:bb:22:e0:
         4c:64:83:29:31:31:0a:e7:5a:a2:8b:07:30:1c:53:3a:f7:7d:
         12:1d:96:85:b8:f5:e2:a9:fa:36:ad:fb:5d:43:63:da:bc:68:
         01:cb:12:ff:5a:07:1d:72:4f:ad:56:f4:70:d6:44:de:80:cc:
         e5:17:77:0b:94:1b:0f:f2:5f:2a:1a:97:c0:9c:7a:61:e2:43:
         80:86:5a:62:6b:3b:2d:f5:9f:c2:a1:52:33:8e:7a:33:c2:c9:
         79:21:a2:ec:38:25:8f:44:58:c7:2e:b5:29:ae:8b:94:ed:72:
         42:22:aa:32
-----BEGIN CERTIFICATE-----
MIIDbTCCAlWgAwIBAgIBBDANBgkqhkiG9w0BAQsFADAPMQ0wCwYDVQQDDARSb290
MB4XDTE1MDEwMTEyMDAwMFoXDTE4MDEwMTEyMDAwMFowFzEVMBMGA1UEAwwMSW50
ZXJtZWRpYXRlMIIBIjANBgkqhkiG9w0BAQEFAAOCAQ8AMIIBCgKCAQEA2r0bFoNH
eWO0sdLYp+jSvE0gcP3iqtPIEuq0sY3f7Zdwt5ZBgMBSfGJJkz1XQ/LA+RfMESju
STrnVlQ7CO7Id5qFvpoo0bppP1db8W5A0HgitaRBtIoALrGDk/xZ3Tnod90Mo5rR
7MK8zRvsFJZF6TPe5lP2OoBmjrfyeH9a5Vc+zKkSS7+2AjCFGrdlblcykL1kE8RD
nkovBT3FYb8v0FbJdY82lUK0Opc4qEEmNMzsQZdSEPneLCGyUl0oB3U6IytOATj9
9S0V8oz0Mp6tsdotPIJoewyb+cE4T4FvKeCup41vaYIkSiR0pPoJir8WXbzzqGzs
m+0ddanyxO2thwIDAQABo4HLMIHIMB0GA1UdDgQWBBRmMmN0Dwjc5VaeancflC/1
EPCHZzAfBgNVHSMEGDAWgBR+S+TX9yjUTVaU2J8KwqfMrUq9wTA3BggrBgEFBQcB
AQQrMCkwJwYIKwYBBQUHMAKGG2h0dHA6Ly91cmwtZm9yLWFpYS9Sb290LmNlcjAs
BgNVHR8EJTAjMCGgH6AdhhtodHRwOi8vdXJsLWZvci1jcmwvUm9vdC5jcmwwDgYD
VR0PAQH/BAQDAgEGMA8GA1UdEwEB/wQFMAMBAf8wDQYJKoZIhvcNAQELBQADggEB
AFiCaE0v56H1yxa2u1JKCzRhylvRV/4Ri4ZUX5qSvTH5ehajPYF/yQZjkl2RKadb
EyL7mYl4FY+/Z4XOBpjneQOZ+wZNiCbAKMVGkZKUGn4rwktaswzZ3yVNrri2EF5U
3CZgbBeZ52xm0svzqchoXVvUcbDqNckDPzLU4hu8BTYFYg11ldsXoqULPk25v7si
4ExkgykxMQrnWqKLBzAcUzr3fRIdloW49eKp+jat+11DY9q8aAHLEv9aBx1yT61W
9HDWRN6AzOUXdwuUGw/yXyoal8CcemHiQ4CGWmJrOy31n8KhUjOOejPCyXkhouw4
JY9EWMcutSmui5TtckIiqjI=
-----END CERTIFICATE-----

Certificate:
    Data:
        Version: 3 (0x2)
        Serial Number: 3 (0x3)
    Signature Algorithm: sha256WithRSAEncryption
        Issuer: CN=Root
        Validity
            Not Before: Jan  1 12:00:00 2015 GMT
            Not After : Jan  1 12:00:00 2018 GMT
        Subject: CN=Root
        Subject Public Key Info:
            Public Key Algorithm: rsaEncryption
                Public-Key: (2048 bit)
                Modulus:
                    00:a8:ba:56:64:50:cb:eb:c8:c5:7a:6a:dc:72:24:
                    b9:09:22:03:5f:ca:55:51:15:eb:16:a9:4d:6c:a9:
                    a0:3d:26:88:5a:4c:0f:9c:b1:49:29:3b:ee:ad:c5:
                    8c:11:9f:c3:75:44:e9:d1:25:80:02:ec:98:c5:0e:
                    42:40:91:c3:85:cf:da:e2:98:0f:1d:66:87:c0:4a:
                    46:4f:c5:ec:ac:27:82:2f:80:cb:78:e7:a7:a1:06:
                    c5:88:d3:b8:dd:82:d4:c7:7c:52:3c:01:7a:d7:ae:
                    cc:bd:0f:00:4b:8f:23:1c:c9:ee:d8:e8:b3:b7:c5:
                    c3:23:dd:85:2f:e9:aa:4d:b7:ef:5c:58:18:59:21:
                    41:5c:40:fe:77:d9:0f:cd:5c:c8:2d:74:a2:98:c6:
                    13:d4:a1:54:3a:a7:2a:e0:42:b8:4c:89:5c:b4:5c:
                    34:7e:61:de:b2:5e:3f:1f:f2:5c:65:7c:53:14:94:
                    76:33:36:c0:cf:16:7d:6d:52:71:20:6a:9a:7a:3d:
                    0f:3d:12:ea:94:8b:eb:b0:07:61:d8:13:92:3e:e6:
                    ac:b8:0c:02:92:0b:a0:ca:9a:7b:52:08:05:cc:db:
                    1b:40:3e:b1:30:b2:7d:18:f5:2e:e0:f2:69:df:b6:
                    a2:3d:94:04:47:3e:f4:63:b4:07:a1:94:30:43:02:
                    7f:43
                Exponent: 65537 (0x10001)
        X509v3 extensions:
            X509v3 Subject Key Identifier: 
                7E:4B:E4:D7:F7:28:D4:4D:56:94:D8:9F:0A:C2:A7:CC:AD:4A:BD:C1
            X509v3 Authority Key Identifier: 
                keyid:7E:4B:E4:D7:F7:28:D4:4D:56:94:D8:9F:0A:C2:A7:CC:AD:4A:BD:C1

            Authority Information Access: 
                CA Issuers - URI:http://url-for-aia/Root.cer

            X509v3 CRL Distribution Points: 

                Full Name:
                  URI:http://url-for-crl/Root.crl

            X509v3 Key Usage: critical
                Certificate Sign, CRL Sign
            X509v3 Basic Constraints: critical
                CA:TRUE
    Signature Algorithm: sha256WithRSAEncryption
         6b:18:91:92:32:ce:f7:0e:7d:d1:87:ce:95:80:b4:6d:c5:be:
         e3:83:11:be:71:b5:0c:c0:b6:97:c8:e7:10:70:02:8a:2c:09:
         79:6a:25:42:03:ef:6b:88:07:81:8f:0f:a2:d2:d8:57:39:7e:
         a8:8c:de:33:b3:3d:cf:dc:b9:26:ad:82:95:83:67:3e:a2:8b:
         93:43:1d:39:9a:3e:fb:1d:81:84:e9:bc:33:a7:80:13:97:fc:
         a7:00:13:f4:44:aa:2c:f4:a6:1b:da:8c:fe:9d:e6:2e:04:b1:
         4d:68:cc:c6:b9:f3:52:6e:dd:ce:6a:86:ee:a1:fa:60:c7:fe:
         e0:ce:1f:14:80:dd:02:e8:08:9c:b4:d5:e3:3a:5d:5c:44:c5:
         6e:cc:99:b0:27:94:c7:56:3a:60:d9:c3:bd:e7:4c:4a:6c:0f:
         77:53:67:5f:f6:bb:3b:b9:13:dc:4f:97:ee:86:8c:17:1b:8b:
         d7:6b:2a:24:40:82:4a:5f:d6:96:cd:45:2a:c8:fc:c6:93:22:
         5d:c7:e6:bc:76:9f:1f:5a:1c:4a:64:6d:10:d9:61:28:11:11:
         7d:3b:74:2a:a9:af:77:5f:b4:02:5b:b7:18:c6:3c:cf:70:a1:
         a2:89:5a:5f:6f:fb:44:70:ab:29:6a:66:07:8a:85:3e:5a:32:
         50:70:5c:59
-----BEGIN CERTIFICATE-----
MIIDZTCCAk2gAwIBAgIBAzANBgkqhkiG9w0BAQsFADAPMQ0wCwYDVQQDDARSb290
MB4XDTE1MDEwMTEyMDAwMFoXDTE4MDEwMTEyMDAwMFowDzENMAsGA1UEAwwEUm9v
dDCCASIwDQYJKoZIhvcNAQEBBQADggEPADCCAQoCggEBAKi6VmRQy+vIxXpq3HIk
uQkiA1/KVVEV6xapTWypoD0miFpMD5yxSSk77q3FjBGfw3VE6dElgALsmMUOQkCR
w4XP2uKYDx1mh8BKRk/F7Kwngi+Ay3jnp6EGxYjTuN2C1Md8UjwBeteuzL0PAEuP
IxzJ7tjos7fFwyPdhS/pqk2371xYGFkhQVxA/nfZD81cyC10opjGE9ShVDqnKuBC
uEyJXLRcNH5h3rJePx/yXGV8UxSUdjM2wM8WfW1ScSBqmno9Dz0S6pSL67AHYdgT
kj7mrLgMApILoMqae1IIBczbG0A+sTCyfRj1LuDyad+2oj2UBEc+9GO0B6GUMEMC
f0MCAwEAAaOByzCByDAdBgNVHQ4EFgQUfkvk1/co1E1WlNifCsKnzK1KvcEwHwYD
VR0jBBgwFoAUfkvk1/co1E1WlNifCsKnzK1KvcEwNwYIKwYBBQUHAQEEKzApMCcG
CCsGAQUFBzAChhtodHRwOi8vdXJsLWZvci1haWEvUm9vdC5jZXIwLAYDVR0fBCUw
IzAhoB+gHYYbaHR0cDovL3VybC1mb3ItY3JsL1Jvb3QuY3JsMA4GA1UdDwEB/wQE
AwIBBjAPBgNVHRMBAf8EBTADAQH/MA0GCSqGSIb3DQEBCwUAA4IBAQBrGJGSMs73
Dn3Rh86VgLRtxb7jgxG+cbUMwLaXyOcQcAKKLAl5aiVCA+9riAeBjw+i0thXOX6o
jN4zsz3P3LkmrYKVg2c+oouTQx05mj77HYGE6bwzp4ATl/ynABP0RKos9KYb2oz+
neYuBLFNaMzGufNSbt3Oaobuofpgx/7gzh8UgN0C6AictNXjOl1cRMVuzJmwJ5TH
Vjpg2cO950xKbA93U2df9rs7uRPcT5fuhowXG4vXayokQIJKX9aWzUUqyPzGkyJd
x+a8dp8fWhxKZG0Q2WEoERF9O3Qqqa93X7QCW7cYxjzPcKGiiVpfb/tEcKspamYH
ioU+WjJQcFxZ
-----END CERTIFICATE-----
