$ openssl x509 -text -noout < [CERTIFICATE]
Certificate:
    Data:
        Version: 3 (0x2)
        Serial Number: 103143085 (0x625d6ad)
    Signature Algorithm: sha256WithRSAEncryption
        Issuer: CN=97429b8b-af77-422a-2a02-ebafd920c3a8
        Validity
            Not Before: Mar  1 05:57:57 2017 GMT
            Not After : Mar  3 05:57:57 2017 GMT
        Subject: CN=97429b8b-af77-422a-2a02-ebafd920c3a8
        Subject Public Key Info:
            Public Key Algorithm: rsaEncryption
                Public-Key: (2048 bit)
                Modulus:
                    00:bc:8c:0a:e9:63:c2:4b:26:74:19:5f:9b:33:00:
                    b0:de:6b:8e:af:a0:37:e8:aa:cc:9b:0e:d1:b6:e2:
                    82:ac:eb:fe:2a:6a:2b:8d:cc:05:18:aa:5c:f4:b7:
                    88:25:77:5d:80:6e:14:10:e9:e5:99:3f:4d:36:f2:
                    b5:44:6e:e3:94:fb:72:c1:48:53:09:f3:cd:70:85:
                    6d:b6:b9:5e:34:60:fe:e2:b5:df:d5:a6:78:c8:52:
                    d6:62:07:f6:c1:6a:0d:f0:80:bb:6e:b3:82:82:1d:
                    66:64:7c:85:7b:bf:aa:65:fb:18:8d:c0:2e:92:56:
                    4d:50:ac:2b:39:a3:ce:5d:e5:29:32:76:0a:71:71:
                    a9:6f:68:4b:b5:0a:f5:5c:38:50:11:4c:35:01:12:
                    a7:2f:99:a7:a4:4f:35:04:18:7e:72:03:3f:30:26:
                    d0:ff:89:e5:ae:e8:21:c8:3b:b9:ca:b2:81:e7:56:
                    c6:06:09:16:5f:47:da:54:18:ad:4b:0f:9a:48:e9:
                    22:1e:44:dc:00:78:61:2e:ef:ad:15:75:3c:d1:32:
                    16:8d:fc:c4:e7:a9:43:56:21:ce:fd:d8:9b:73:b7:
                    54:04:9e:9c:23:b7:07:0b:99:35:82:72:0f:dc:52:
                    bb:65:e0:34:04:63:4e:2e:85:88:d4:0a:b2:05:c2:
                    a4:7d
                Exponent: 65537 (0x10001)
    Signature Algorithm: sha256WithRSAEncryption
         06:ac:25:72:16:9c:39:86:f2:2e:27:d7:9f:3d:80:ae:bd:3e:
         8a:63:b7:c4:ba:d2:32:c3:15:40:38:dd:98:bd:27:a6:53:dd:
         66:29:3a:ca:50:df:f3:88:68:c1:bb:4a:41:08:b9:d7:c5:98:
         10:66:f0:6f:c5:50:f1:69:c5:37:63:ee:b9:db:b4:26:da:5e:
         43:f5:a5:66:8a:bf:5f:29:e2:dd:0a:d5:c0:51:7f:cb:07:f1:
         70:99:94:cd:77:cf:85:f2:ae:07:92:d1:f7:2d:e6:f3:2c:85:
         e8:95:29:2f:b1:44:e2:8d:36:e7:0c:82:08:2c:d8:55:ea:a2:
         1b:34:9d:37:ed:68:9c:51:c4:3a:f9:42:b0:bd:cb:4f:9d:79:
         37:a5:38:ce:80:55:9a:5f:fc:d5:9a:3b:c2:4f:3b:38:37:cd:
         aa:0f:96:3b:ea:74:b0:9c:d3:f2:ca:a0:90:61:3e:25:84:82:
         aa:18:78:a0:78:d8:85:f0:45:1d:cf:fc:3b:f6:dd:fe:3b:ef:
         3c:be:59:9d:41:23:4d:2e:b1:64:57:8c:9f:68:c3:21:97:bc:
         40:14:85:02:e1:02:17:be:34:5c:e4:d5:5f:ca:4e:7a:30:fb:
         1e:99:b0:36:18:05:ad:f2:5a:6f:7c:7e:dc:49:43:20:63:da:
         a8:84:2b:ed
-----BEGIN CERTIFICATE-----
MIIC2jCCAcKgAwIBAgIEBiXWrTANBgkqhkiG9w0BAQsFADAvMS0wKwYDVQQDDCQ5
NzQyOWI4Yi1hZjc3LTQyMmEtMmEwMi1lYmFmZDkyMGMzYTgwHhcNMTcwMzAxMDU1
NzU3WhcNMTcwMzAzMDU1NzU3WjAvMS0wKwYDVQQDDCQ5NzQyOWI4Yi1hZjc3LTQy
MmEtMmEwMi1lYmFmZDkyMGMzYTgwggEiMA0GCSqGSIb3DQEBAQUAA4IBDwAwggEK
AoIBAQC8jArpY8JLJnQZX5szALDea46voDfoqsybDtG24oKs6/4qaiuNzAUYqlz0
t4gld12AbhQQ6eWZP0028rVEbuOU+3LBSFMJ881whW22uV40YP7itd/VpnjIUtZi
B/bBag3wgLtus4KCHWZkfIV7v6pl+xiNwC6SVk1QrCs5o85d5SkydgpxcalvaEu1
CvVcOFARTDUBEqcvmaekTzUEGH5yAz8wJtD/ieWu6CHIO7nKsoHnVsYGCRZfR9pU
GK1LD5pI6SIeRNwAeGEu760VdTzRMhaN/MTnqUNWIc792Jtzt1QEnpwjtwcLmTWC
cg/cUrtl4DQEY04uhYjUCrIFwqR9AgMBAAEwDQYJKoZIhvcNAQELBQADggEBAAas
JXIWnDmG8i4n1589gK69Popjt8S60jLDFUA43Zi9J6ZT3WYpOspQ3/OIaMG7SkEI
udfFmBBm8G/FUPFpxTdj7rnbtCbaXkP1pWaKv18p4t0K1cBRf8sH8XCZlM13z4Xy
rgeS0fct5vMsheiVKS+xROKNNucMgggs2FXqohs0nTftaJxRxDr5QrC9y0+deTel
OM6AVZpf/NWaO8JPOzg3zaoPljvqdLCc0/LKoJBhPiWEgqoYeKB42IXwRR3P/Dv2
3f477zy+WZ1BI00usWRXjJ9owyGXvEAUhQLhAhe+NFzk1V/KTnow+x6ZsDYYBa3y
Wm98ftxJQyBj2qiEK+0=
-----END CERTIFICATE-----
