[Created by: generate-chains.py]

Certificate chain where the intermediate lacks a keyUsage extension.

Certificate:
    Data:
        Version: 3 (0x2)
        Serial Number:
            53:ac:3f:b9:36:25:f6:73:c5:c7:47:1c:6a:5c:69:4c:10:a5:76:ee
        Signature Algorithm: sha256WithRSAEncryption
        Issuer: CN=Intermediate
        Validity
            Not Before: Oct  5 12:00:00 2022 GMT
            Not After : Oct  5 12:00:00 2023 GMT
        Subject: CN=Target
        Subject Public Key Info:
            Public Key Algorithm: rsaEncryption
                Public-Key: (2048 bit)
                Modulus:
                    00:c7:f3:c9:3b:b8:fb:d0:c6:d9:9d:7e:a6:0c:37:
                    fb:1e:e7:a9:ec:90:b1:a2:06:2a:b0:f1:d3:81:53:
                    8c:86:ea:c3:80:04:18:04:26:b0:70:4f:6b:7c:6b:
                    5f:31:b8:8d:e7:8a:93:a1:9d:69:20:a9:5e:0a:13:
                    a1:a1:c7:7b:e9:e4:bf:d1:67:50:e4:7a:e4:db:00:
                    a6:cb:f6:2c:a8:47:9d:7b:9a:6e:69:86:06:a2:0d:
                    ad:68:86:67:ff:da:0e:a1:ae:30:57:28:27:15:f3:
                    8b:b6:e2:3e:c8:30:26:6e:f4:05:ec:eb:b5:bc:cb:
                    37:bc:5d:db:c2:6a:f8:4f:e5:7f:b8:f2:62:aa:59:
                    3b:40:ce:40:67:7d:83:bb:66:20:a5:73:82:7e:40:
                    ce:87:ae:3d:36:dc:06:26:09:c9:3e:6b:13:ed:c8:
                    44:ee:cf:f3:db:38:a1:ee:cd:02:94:18:7f:c6:d7:
                    78:65:8d:34:bb:a3:d4:c5:27:e1:b9:b5:67:ad:fb:
                    3c:ce:9a:3d:f6:c7:54:2e:7b:fa:f8:89:e9:56:2b:
                    e9:78:2e:02:14:2b:1a:18:e4:ce:f7:80:67:f7:0f:
                    88:bc:78:70:8f:1c:d5:3f:22:3b:38:22:51:d8:fd:
                    6d:93:de:05:0c:1c:a8:b7:b1:d3:a9:83:6b:8b:10:
                    ad:61
                Exponent: 65537 (0x10001)
        X509v3 extensions:
            X509v3 Subject Key Identifier: 
                C5:A1:CF:17:29:4F:62:DA:B7:74:71:6F:6A:89:D9:DE:45:66:A7:E4
            X509v3 Authority Key Identifier: 
                4C:E2:EE:E5:DC:2B:D0:74:49:43:BA:6D:6B:91:6F:A3:C0:53:89:92
            Authority Information Access: 
                CA Issuers - URI:http://url-for-aia/Intermediate.cer
            X509v3 CRL Distribution Points: 
                Full Name:
                  URI:http://url-for-crl/Intermediate.crl
            X509v3 Key Usage: critical
                Digital Signature, Key Encipherment
            X509v3 Extended Key Usage: 
                TLS Web Server Authentication, TLS Web Client Authentication
    Signature Algorithm: sha256WithRSAEncryption
    Signature Value:
        7b:7e:6b:74:b8:f6:66:d7:52:92:03:f5:d6:0e:3d:f1:c8:9d:
        e7:94:a2:ae:12:a2:63:ec:46:8d:d6:a4:16:03:25:db:b0:09:
        e6:96:c2:22:ab:e8:69:74:97:8e:b7:b8:69:0f:a2:e7:c7:9d:
        ee:e2:45:e0:92:96:37:6c:35:4d:48:27:55:18:61:5f:b0:c6:
        cd:e3:f4:49:78:3a:4f:1d:57:e3:8d:b8:96:39:3e:5f:4a:fa:
        1a:b0:ec:60:99:b6:8a:f1:d8:96:f7:2f:60:c5:6f:f1:70:76:
        27:b9:c8:6c:47:b6:e0:48:8b:49:69:5e:53:61:8c:21:da:ae:
        50:49:34:ec:f1:a4:45:87:0c:52:cf:de:8c:93:9f:44:e5:6f:
        cb:5e:be:c7:db:46:c6:3c:3f:75:89:ab:00:ba:2b:31:ee:3c:
        6d:8b:83:18:a9:2c:e8:fe:4c:06:bb:f4:98:1e:e3:f9:ff:dc:
        a5:b8:ab:25:e1:53:f3:89:13:60:18:88:7b:d1:a4:f5:48:b6:
        2a:15:c6:19:ce:4e:f3:d4:e5:c1:75:f1:31:77:e2:e9:04:83:
        91:57:72:c2:15:9c:70:fe:f6:39:ce:7f:29:4e:da:db:ab:0d:
        92:f8:73:3b:17:37:f2:68:9d:8b:11:c3:14:49:be:45:3f:23:
        27:6a:03:f2
-----BEGIN CERTIFICATE-----
MIIDoDCCAoigAwIBAgIUU6w/uTYl9nPFx0ccalxpTBCldu4wDQYJKoZIhvcNAQEL
BQAwFzEVMBMGA1UEAwwMSW50ZXJtZWRpYXRlMB4XDTIyMTAwNTEyMDAwMFoXDTIz
MTAwNTEyMDAwMFowETEPMA0GA1UEAwwGVGFyZ2V0MIIBIjANBgkqhkiG9w0BAQEF
AAOCAQ8AMIIBCgKCAQEAx/PJO7j70MbZnX6mDDf7Huep7JCxogYqsPHTgVOMhurD
gAQYBCawcE9rfGtfMbiN54qToZ1pIKleChOhocd76eS/0WdQ5Hrk2wCmy/YsqEed
e5puaYYGog2taIZn/9oOoa4wVygnFfOLtuI+yDAmbvQF7Ou1vMs3vF3bwmr4T+V/
uPJiqlk7QM5AZ32Du2YgpXOCfkDOh649NtwGJgnJPmsT7chE7s/z2zih7s0ClBh/
xtd4ZY00u6PUxSfhubVnrfs8zpo99sdULnv6+InpVivpeC4CFCsaGOTO94Bn9w+I
vHhwjxzVPyI7OCJR2P1tk94FDByot7HTqYNrixCtYQIDAQABo4HpMIHmMB0GA1Ud
DgQWBBTFoc8XKU9i2rd0cW9qidneRWan5DAfBgNVHSMEGDAWgBRM4u7l3CvQdElD
um1rkW+jwFOJkjA/BggrBgEFBQcBAQQzMDEwLwYIKwYBBQUHMAKGI2h0dHA6Ly91
cmwtZm9yLWFpYS9JbnRlcm1lZGlhdGUuY2VyMDQGA1UdHwQtMCswKaAnoCWGI2h0
dHA6Ly91cmwtZm9yLWNybC9JbnRlcm1lZGlhdGUuY3JsMA4GA1UdDwEB/wQEAwIF
oDAdBgNVHSUEFjAUBggrBgEFBQcDAQYIKwYBBQUHAwIwDQYJKoZIhvcNAQELBQAD
ggEBAHt+a3S49mbXUpID9dYOPfHIneeUoq4SomPsRo3WpBYDJduwCeaWwiKr6Gl0
l463uGkPoufHne7iReCSljdsNU1IJ1UYYV+wxs3j9El4Ok8dV+ONuJY5Pl9K+hqw
7GCZtorx2Jb3L2DFb/Fwdie5yGxHtuBIi0lpXlNhjCHarlBJNOzxpEWHDFLP3oyT
n0Tlb8tevsfbRsY8P3WJqwC6KzHuPG2LgxipLOj+TAa79Jge4/n/3KW4qyXhU/OJ
E2AYiHvRpPVItioVxhnOTvPU5cF18TF34ukEg5FXcsIVnHD+9jnOfylO2turDZL4
czsXN/JonYsRwxRJvkU/IydqA/I=
-----END CERTIFICATE-----

Certificate:
    Data:
        Version: 3 (0x2)
        Serial Number:
            0d:25:c9:a3:e4:54:8c:35:15:0b:cc:cf:a5:a6:2b:fd:97:e9:d0:de
        Signature Algorithm: sha256WithRSAEncryption
        Issuer: CN=Root
        Validity
            Not Before: Oct  5 12:00:00 2022 GMT
            Not After : Oct  5 12:00:00 2023 GMT
        Subject: CN=Intermediate
        Subject Public Key Info:
            Public Key Algorithm: rsaEncryption
                Public-Key: (2048 bit)
                Modulus:
                    00:c9:5c:c0:66:3d:c7:72:ee:18:23:d7:56:80:3c:
                    b2:c2:57:81:a3:74:9c:05:07:e7:1a:70:ba:0c:08:
                    fc:14:db:52:16:03:2b:90:bb:01:1a:61:65:52:19:
                    8a:9b:08:2e:ed:00:29:31:a3:8a:7b:30:32:89:cb:
                    3d:4e:1e:a2:4c:f6:21:ff:5e:02:9c:7f:7a:e0:0d:
                    1c:cb:d7:e9:ee:9e:64:3f:b3:ca:17:79:c1:36:9d:
                    51:87:06:2d:c1:f4:28:f2:8b:49:a9:d2:12:89:b4:
                    60:60:65:00:6f:09:83:f8:95:94:ca:8c:70:2d:1d:
                    e0:7b:42:fc:53:4b:40:8c:d3:67:a1:2c:0a:c7:53:
                    8a:af:31:91:5b:12:cd:4b:d0:19:11:22:cc:82:94:
                    10:89:f0:b2:ae:f0:11:6e:91:bb:a5:77:89:c9:fd:
                    37:ea:b0:09:9a:7a:bf:7b:e9:d5:f5:56:13:af:b3:
                    d9:3f:c4:90:5a:b1:ed:ee:de:6f:86:16:61:f6:2d:
                    15:c9:6e:94:f2:72:58:e7:5e:ab:f1:2a:42:b1:6c:
                    c7:cd:fd:b1:2d:48:e0:b3:c4:09:e6:bd:e1:f9:3b:
                    1b:a5:5c:dc:0d:b9:40:2d:55:af:70:b2:01:cf:83:
                    35:85:4f:b4:a9:fc:33:f3:3c:f7:30:0c:c0:c5:22:
                    05:85
                Exponent: 65537 (0x10001)
        X509v3 extensions:
            X509v3 Subject Key Identifier: 
                4C:E2:EE:E5:DC:2B:D0:74:49:43:BA:6D:6B:91:6F:A3:C0:53:89:92
            X509v3 Authority Key Identifier: 
                CC:94:41:CF:A9:F7:C7:58:7C:37:E3:C5:37:29:9B:12:B3:DF:D5:3B
            Authority Information Access: 
                CA Issuers - URI:http://url-for-aia/Root.cer
            X509v3 CRL Distribution Points: 
                Full Name:
                  URI:http://url-for-crl/Root.crl
            X509v3 Key Usage: critical
                Digital Signature, Key Encipherment
            X509v3 Basic Constraints: critical
                CA:TRUE
    Signature Algorithm: sha256WithRSAEncryption
    Signature Value:
        5e:6a:cd:af:bf:ac:5f:6d:73:28:10:25:3c:12:25:32:82:a2:
        ee:b2:ca:70:66:31:66:bd:84:73:ab:d2:ae:42:d5:08:8b:d6:
        23:ff:c6:d6:28:59:93:31:a3:f0:7a:03:55:7e:35:4f:c7:4d:
        0e:48:8b:6e:0b:9c:fd:f6:73:be:0d:10:7b:ea:95:93:4b:10:
        00:8e:68:e8:4a:dc:49:59:8a:4f:c1:15:91:b1:bc:f5:2d:d6:
        68:47:f7:15:42:bc:9e:a9:3b:1f:d4:f9:4b:8a:cc:45:a1:d1:
        9a:9b:7b:e8:56:6b:c3:27:77:cd:83:e6:f3:98:f1:a9:52:7b:
        ec:18:ae:13:79:e6:ae:02:ea:21:43:ca:c8:cd:22:27:fc:80:
        25:b2:5f:6b:4a:3b:f4:07:47:95:23:26:cb:84:d9:e1:d5:6d:
        48:da:23:06:b1:17:96:17:16:8b:45:e1:1a:9b:aa:c2:11:ea:
        3c:6d:68:57:26:97:47:b4:8e:4b:b8:25:b5:c6:77:49:6a:21:
        0e:d5:1d:fe:d0:bb:9d:92:5f:4c:dd:2a:14:6d:58:67:41:75:
        e1:3b:b2:86:9f:c7:16:bc:2c:e0:cf:a7:84:8a:84:95:a6:55:
        ad:4e:43:7e:48:64:69:2b:2c:56:5d:a2:93:f7:1e:25:d4:f2:
        e1:2c:e9:fc
-----BEGIN CERTIFICATE-----
MIIDgDCCAmigAwIBAgIUDSXJo+RUjDUVC8zPpaYr/Zfp0N4wDQYJKoZIhvcNAQEL
BQAwDzENMAsGA1UEAwwEUm9vdDAeFw0yMjEwMDUxMjAwMDBaFw0yMzEwMDUxMjAw
MDBaMBcxFTATBgNVBAMMDEludGVybWVkaWF0ZTCCASIwDQYJKoZIhvcNAQEBBQAD
ggEPADCCAQoCggEBAMlcwGY9x3LuGCPXVoA8ssJXgaN0nAUH5xpwugwI/BTbUhYD
K5C7ARphZVIZipsILu0AKTGjinswMonLPU4eokz2If9eApx/euANHMvX6e6eZD+z
yhd5wTadUYcGLcH0KPKLSanSEom0YGBlAG8Jg/iVlMqMcC0d4HtC/FNLQIzTZ6Es
CsdTiq8xkVsSzUvQGREizIKUEInwsq7wEW6Ru6V3icn9N+qwCZp6v3vp1fVWE6+z
2T/EkFqx7e7eb4YWYfYtFclulPJyWOdeq/EqQrFsx839sS1I4LPECea94fk7G6Vc
3A25QC1Vr3CyAc+DNYVPtKn8M/M89zAMwMUiBYUCAwEAAaOByzCByDAdBgNVHQ4E
FgQUTOLu5dwr0HRJQ7pta5Fvo8BTiZIwHwYDVR0jBBgwFoAUzJRBz6n3x1h8N+PF
NymbErPf1TswNwYIKwYBBQUHAQEEKzApMCcGCCsGAQUFBzAChhtodHRwOi8vdXJs
LWZvci1haWEvUm9vdC5jZXIwLAYDVR0fBCUwIzAhoB+gHYYbaHR0cDovL3VybC1m
b3ItY3JsL1Jvb3QuY3JsMA4GA1UdDwEB/wQEAwIFoDAPBgNVHRMBAf8EBTADAQH/
MA0GCSqGSIb3DQEBCwUAA4IBAQBeas2vv6xfbXMoECU8EiUygqLusspwZjFmvYRz
q9KuQtUIi9Yj/8bWKFmTMaPwegNVfjVPx00OSItuC5z99nO+DRB76pWTSxAAjmjo
StxJWYpPwRWRsbz1LdZoR/cVQryeqTsf1PlLisxFodGam3voVmvDJ3fNg+bzmPGp
UnvsGK4TeeauAuohQ8rIzSIn/IAlsl9rSjv0B0eVIybLhNnh1W1I2iMGsReWFxaL
ReEam6rCEeo8bWhXJpdHtI5LuCW1xndJaiEO1R3+0Ludkl9M3SoUbVhnQXXhO7KG
n8cWvCzgz6eEioSVplWtTkN+SGRpKyxWXaKT9x4l1PLhLOn8
-----END CERTIFICATE-----

Certificate:
    Data:
        Version: 3 (0x2)
        Serial Number:
            0d:25:c9:a3:e4:54:8c:35:15:0b:cc:cf:a5:a6:2b:fd:97:e9:d0:dd
        Signature Algorithm: sha256WithRSAEncryption
        Issuer: CN=Root
        Validity
            Not Before: Oct  5 12:00:00 2022 GMT
            Not After : Oct  5 12:00:00 2023 GMT
        Subject: CN=Root
        Subject Public Key Info:
            Public Key Algorithm: rsaEncryption
                Public-Key: (2048 bit)
                Modulus:
                    00:cb:b8:41:ee:d5:da:d2:45:d6:49:60:20:14:fb:
                    2c:a9:de:97:50:8e:1c:2f:82:c0:f5:ad:ae:58:ca:
                    46:cb:e5:cc:19:4f:e3:4f:15:7f:41:d4:b7:34:f3:
                    3d:da:86:6d:1a:d0:ab:f0:76:82:ea:a5:db:fb:c2:
                    e3:56:ac:4a:f0:33:57:d5:82:9e:72:db:2c:36:a3:
                    1b:d9:b1:e6:27:1c:98:7e:42:37:b6:21:bd:5a:18:
                    61:bc:6f:77:d7:0c:07:13:39:70:a1:46:08:9f:12:
                    05:c9:ac:a4:57:78:b5:8f:bc:6d:ca:b2:b0:24:ff:
                    fd:9c:61:9f:28:2f:7e:bb:d2:e3:2a:81:ed:f5:b7:
                    84:c9:be:fa:04:3c:29:e8:1f:ca:68:44:08:27:e3:
                    fc:ba:ce:74:19:59:c5:cd:9e:cb:a3:4a:e5:0f:d9:
                    78:38:b4:8c:c8:5f:a6:93:48:13:83:cc:a9:d2:60:
                    45:61:0d:00:22:84:88:ea:e3:dd:da:f0:05:c8:09:
                    3a:b2:3e:5b:6e:3e:c6:18:47:ff:18:54:b6:c0:6e:
                    fc:df:75:4b:2f:23:30:a1:8e:e2:4b:8b:63:fc:80:
                    83:62:eb:c9:a5:fe:ed:26:37:ad:59:ef:79:6a:2d:
                    67:d6:f9:5c:88:5e:19:62:05:55:9a:26:e5:61:b3:
                    f6:65
                Exponent: 65537 (0x10001)
        X509v3 extensions:
            X509v3 Subject Key Identifier: 
                CC:94:41:CF:A9:F7:C7:58:7C:37:E3:C5:37:29:9B:12:B3:DF:D5:3B
            X509v3 Authority Key Identifier: 
                CC:94:41:CF:A9:F7:C7:58:7C:37:E3:C5:37:29:9B:12:B3:DF:D5:3B
            Authority Information Access: 
                CA Issuers - URI:http://url-for-aia/Root.cer
            X509v3 CRL Distribution Points: 
                Full Name:
                  URI:http://url-for-crl/Root.crl
            X509v3 Key Usage: critical
                Certificate Sign, CRL Sign
            X509v3 Basic Constraints: critical
                CA:TRUE
    Signature Algorithm: sha256WithRSAEncryption
    Signature Value:
        84:b2:d5:2d:4f:70:59:6f:b9:ab:71:de:61:34:99:14:e7:26:
        66:63:48:b9:a3:f4:47:32:21:b0:8a:39:48:c8:68:41:e0:dc:
        b4:1c:dd:d6:6a:98:74:24:98:1f:00:49:3b:8f:78:6c:99:1e:
        ed:91:a8:45:03:bc:61:0b:c9:68:5d:2d:e3:9e:8d:b5:84:61:
        8e:09:ac:99:47:f1:f1:a1:89:ef:78:7c:9a:04:ce:63:08:96:
        c6:7d:2a:74:e8:38:ce:7c:d4:10:cf:55:1f:06:d2:26:b5:b7:
        ba:8d:a0:a1:b7:8b:84:d8:22:0f:3b:4c:41:90:55:0e:10:6f:
        ef:0c:cb:10:2f:d0:f4:fa:e0:64:20:68:7c:29:b5:d6:c4:8a:
        af:94:cd:fd:5b:2b:7a:6d:e4:bc:3e:0b:99:1b:5c:89:d7:27:
        11:ea:b4:c0:a3:2f:2e:4e:77:56:58:72:2d:f4:5b:9b:09:8e:
        c8:5b:66:f0:c4:8a:e3:5f:2e:7e:31:3d:1d:a7:6f:d7:78:74:
        72:fd:65:51:99:04:6a:17:27:41:91:22:e6:91:ea:e6:e6:6e:
        31:4b:fd:6e:4b:38:05:a1:48:ca:28:c2:5d:22:e3:e1:96:60:
        f1:41:3c:bf:f4:4f:14:34:08:f0:e6:21:72:06:5b:e2:1b:2f:
        91:de:d3:b3
-----BEGIN CERTIFICATE-----
MIIDeDCCAmCgAwIBAgIUDSXJo+RUjDUVC8zPpaYr/Zfp0N0wDQYJKoZIhvcNAQEL
BQAwDzENMAsGA1UEAwwEUm9vdDAeFw0yMjEwMDUxMjAwMDBaFw0yMzEwMDUxMjAw
MDBaMA8xDTALBgNVBAMMBFJvb3QwggEiMA0GCSqGSIb3DQEBAQUAA4IBDwAwggEK
AoIBAQDLuEHu1drSRdZJYCAU+yyp3pdQjhwvgsD1ra5YykbL5cwZT+NPFX9B1Lc0
8z3ahm0a0KvwdoLqpdv7wuNWrErwM1fVgp5y2yw2oxvZseYnHJh+Qje2Ib1aGGG8
b3fXDAcTOXChRgifEgXJrKRXeLWPvG3KsrAk//2cYZ8oL3670uMqge31t4TJvvoE
PCnoH8poRAgn4/y6znQZWcXNnsujSuUP2Xg4tIzIX6aTSBODzKnSYEVhDQAihIjq
493a8AXICTqyPltuPsYYR/8YVLbAbvzfdUsvIzChjuJLi2P8gINi68ml/u0mN61Z
73lqLWfW+VyIXhliBVWaJuVhs/ZlAgMBAAGjgcswgcgwHQYDVR0OBBYEFMyUQc+p
98dYfDfjxTcpmxKz39U7MB8GA1UdIwQYMBaAFMyUQc+p98dYfDfjxTcpmxKz39U7
MDcGCCsGAQUFBwEBBCswKTAnBggrBgEFBQcwAoYbaHR0cDovL3VybC1mb3ItYWlh
L1Jvb3QuY2VyMCwGA1UdHwQlMCMwIaAfoB2GG2h0dHA6Ly91cmwtZm9yLWNybC9S
b290LmNybDAOBgNVHQ8BAf8EBAMCAQYwDwYDVR0TAQH/BAUwAwEB/zANBgkqhkiG
9w0BAQsFAAOCAQEAhLLVLU9wWW+5q3HeYTSZFOcmZmNIuaP0RzIhsIo5SMhoQeDc
tBzd1mqYdCSYHwBJO494bJke7ZGoRQO8YQvJaF0t456NtYRhjgmsmUfx8aGJ73h8
mgTOYwiWxn0qdOg4znzUEM9VHwbSJrW3uo2gobeLhNgiDztMQZBVDhBv7wzLEC/Q
9PrgZCBofCm11sSKr5TN/Vsrem3kvD4LmRtcidcnEeq0wKMvLk53VlhyLfRbmwmO
yFtm8MSK418ufjE9Hadv13h0cv1lUZkEahcnQZEi5pHq5uZuMUv9bks4BaFIyijC
XSLj4ZZg8UE8v/RPFDQI8OYhcgZb4hsvkd7Tsw==
-----END CERTIFICATE-----
