[Created by: generate-chains.py]

Certificate chain where the intermediate lacks a keyUsage extension.

Certificate:
    Data:
        Version: 3 (0x2)
        Serial Number:
            53:ac:3f:b9:36:25:f6:73:c5:c7:47:1c:6a:5c:69:4c:10:a5:76:ee
        Signature Algorithm: sha256WithRSAEncryption
        Issuer: CN=Intermediate
        Validity
            Not Before: Nov  3 12:00:00 2020 GMT
            Not After : Nov  3 12:00:00 2021 GMT
        Subject: CN=Target
        Subject Public Key Info:
            Public Key Algorithm: rsaEncryption
                RSA Public-Key: (2048 bit)
                Modulus:
                    00:c7:f3:c9:3b:b8:fb:d0:c6:d9:9d:7e:a6:0c:37:
                    fb:1e:e7:a9:ec:90:b1:a2:06:2a:b0:f1:d3:81:53:
                    8c:86:ea:c3:80:04:18:04:26:b0:70:4f:6b:7c:6b:
                    5f:31:b8:8d:e7:8a:93:a1:9d:69:20:a9:5e:0a:13:
                    a1:a1:c7:7b:e9:e4:bf:d1:67:50:e4:7a:e4:db:00:
                    a6:cb:f6:2c:a8:47:9d:7b:9a:6e:69:86:06:a2:0d:
                    ad:68:86:67:ff:da:0e:a1:ae:30:57:28:27:15:f3:
                    8b:b6:e2:3e:c8:30:26:6e:f4:05:ec:eb:b5:bc:cb:
                    37:bc:5d:db:c2:6a:f8:4f:e5:7f:b8:f2:62:aa:59:
                    3b:40:ce:40:67:7d:83:bb:66:20:a5:73:82:7e:40:
                    ce:87:ae:3d:36:dc:06:26:09:c9:3e:6b:13:ed:c8:
                    44:ee:cf:f3:db:38:a1:ee:cd:02:94:18:7f:c6:d7:
                    78:65:8d:34:bb:a3:d4:c5:27:e1:b9:b5:67:ad:fb:
                    3c:ce:9a:3d:f6:c7:54:2e:7b:fa:f8:89:e9:56:2b:
                    e9:78:2e:02:14:2b:1a:18:e4:ce:f7:80:67:f7:0f:
                    88:bc:78:70:8f:1c:d5:3f:22:3b:38:22:51:d8:fd:
                    6d:93:de:05:0c:1c:a8:b7:b1:d3:a9:83:6b:8b:10:
                    ad:61
                Exponent: 65537 (0x10001)
        X509v3 extensions:
            X509v3 Subject Key Identifier: 
                C5:A1:CF:17:29:4F:62:DA:B7:74:71:6F:6A:89:D9:DE:45:66:A7:E4
            X509v3 Authority Key Identifier: 
                keyid:4C:E2:EE:E5:DC:2B:D0:74:49:43:BA:6D:6B:91:6F:A3:C0:53:89:92

            Authority Information Access: 
                CA Issuers - URI:http://url-for-aia/Intermediate.cer

            X509v3 CRL Distribution Points: 

                Full Name:
                  URI:http://url-for-crl/Intermediate.crl

            X509v3 Key Usage: critical
                Digital Signature, Key Encipherment
            X509v3 Extended Key Usage: 
                TLS Web Server Authentication, TLS Web Client Authentication
    Signature Algorithm: sha256WithRSAEncryption
         9d:97:04:d3:3e:1b:9a:41:8e:c4:9b:f0:37:15:e2:54:56:4c:
         42:da:59:36:92:e3:c9:60:51:d0:02:58:9d:26:07:06:ce:51:
         0b:69:c4:ee:bf:da:c9:57:fe:2c:13:87:12:17:10:0b:a7:60:
         5c:16:ec:d2:22:b9:b8:89:3b:6d:51:67:f3:42:84:71:b8:0d:
         11:db:ac:3c:ae:dd:81:f5:d2:27:59:80:c1:80:64:ee:31:d7:
         04:3d:5e:cf:21:8c:9b:ba:88:a5:56:2e:7f:15:a7:6b:c1:10:
         86:24:b6:80:ab:1e:55:72:cc:e4:69:14:d9:04:67:5e:76:3f:
         7a:93:1e:01:2b:26:2a:93:8e:ea:13:c9:61:da:d1:1f:c7:ec:
         ad:51:db:e5:80:f7:8e:7d:0f:9e:64:ee:82:76:73:fb:b6:95:
         90:8d:c0:db:7b:ce:3d:42:31:39:b5:ea:e3:42:31:65:d0:5b:
         dc:ab:ba:d0:33:66:f2:b6:68:1d:73:43:01:c4:ac:84:a4:50:
         df:ee:45:39:9c:78:03:20:d7:71:9a:f4:de:d4:b8:5c:e6:d6:
         51:7e:62:91:74:ea:5c:19:c1:1e:00:75:be:e2:6d:e1:69:56:
         e6:c3:a1:e4:a1:ac:ba:08:36:bd:16:01:d0:fa:48:63:40:b7:
         33:7e:3d:1e
-----BEGIN CERTIFICATE-----
MIIDoDCCAoigAwIBAgIUU6w/uTYl9nPFx0ccalxpTBCldu4wDQYJKoZIhvcNAQEL
BQAwFzEVMBMGA1UEAwwMSW50ZXJtZWRpYXRlMB4XDTIwMTEwMzEyMDAwMFoXDTIx
MTEwMzEyMDAwMFowETEPMA0GA1UEAwwGVGFyZ2V0MIIBIjANBgkqhkiG9w0BAQEF
AAOCAQ8AMIIBCgKCAQEAx/PJO7j70MbZnX6mDDf7Huep7JCxogYqsPHTgVOMhurD
gAQYBCawcE9rfGtfMbiN54qToZ1pIKleChOhocd76eS/0WdQ5Hrk2wCmy/YsqEed
e5puaYYGog2taIZn/9oOoa4wVygnFfOLtuI+yDAmbvQF7Ou1vMs3vF3bwmr4T+V/
uPJiqlk7QM5AZ32Du2YgpXOCfkDOh649NtwGJgnJPmsT7chE7s/z2zih7s0ClBh/
xtd4ZY00u6PUxSfhubVnrfs8zpo99sdULnv6+InpVivpeC4CFCsaGOTO94Bn9w+I
vHhwjxzVPyI7OCJR2P1tk94FDByot7HTqYNrixCtYQIDAQABo4HpMIHmMB0GA1Ud
DgQWBBTFoc8XKU9i2rd0cW9qidneRWan5DAfBgNVHSMEGDAWgBRM4u7l3CvQdElD
um1rkW+jwFOJkjA/BggrBgEFBQcBAQQzMDEwLwYIKwYBBQUHMAKGI2h0dHA6Ly91
cmwtZm9yLWFpYS9JbnRlcm1lZGlhdGUuY2VyMDQGA1UdHwQtMCswKaAnoCWGI2h0
dHA6Ly91cmwtZm9yLWNybC9JbnRlcm1lZGlhdGUuY3JsMA4GA1UdDwEB/wQEAwIF
oDAdBgNVHSUEFjAUBggrBgEFBQcDAQYIKwYBBQUHAwIwDQYJKoZIhvcNAQELBQAD
ggEBAJ2XBNM+G5pBjsSb8DcV4lRWTELaWTaS48lgUdACWJ0mBwbOUQtpxO6/2slX
/iwThxIXEAunYFwW7NIiubiJO21RZ/NChHG4DRHbrDyu3YH10idZgMGAZO4x1wQ9
Xs8hjJu6iKVWLn8Vp2vBEIYktoCrHlVyzORpFNkEZ152P3qTHgErJiqTjuoTyWHa
0R/H7K1R2+WA9459D55k7oJ2c/u2lZCNwNt7zj1CMTm16uNCMWXQW9yrutAzZvK2
aB1zQwHErISkUN/uRTmceAMg13Ga9N7UuFzm1lF+YpF06lwZwR4Adb7ibeFpVubD
oeShrLoINr0WAdD6SGNAtzN+PR4=
-----END CERTIFICATE-----

Certificate:
    Data:
        Version: 3 (0x2)
        Serial Number:
            0d:25:c9:a3:e4:54:8c:35:15:0b:cc:cf:a5:a6:2b:fd:97:e9:d0:de
        Signature Algorithm: sha256WithRSAEncryption
        Issuer: CN=Root
        Validity
            Not Before: Nov  3 12:00:00 2020 GMT
            Not After : Nov  3 12:00:00 2021 GMT
        Subject: CN=Intermediate
        Subject Public Key Info:
            Public Key Algorithm: rsaEncryption
                RSA Public-Key: (2048 bit)
                Modulus:
                    00:c9:5c:c0:66:3d:c7:72:ee:18:23:d7:56:80:3c:
                    b2:c2:57:81:a3:74:9c:05:07:e7:1a:70:ba:0c:08:
                    fc:14:db:52:16:03:2b:90:bb:01:1a:61:65:52:19:
                    8a:9b:08:2e:ed:00:29:31:a3:8a:7b:30:32:89:cb:
                    3d:4e:1e:a2:4c:f6:21:ff:5e:02:9c:7f:7a:e0:0d:
                    1c:cb:d7:e9:ee:9e:64:3f:b3:ca:17:79:c1:36:9d:
                    51:87:06:2d:c1:f4:28:f2:8b:49:a9:d2:12:89:b4:
                    60:60:65:00:6f:09:83:f8:95:94:ca:8c:70:2d:1d:
                    e0:7b:42:fc:53:4b:40:8c:d3:67:a1:2c:0a:c7:53:
                    8a:af:31:91:5b:12:cd:4b:d0:19:11:22:cc:82:94:
                    10:89:f0:b2:ae:f0:11:6e:91:bb:a5:77:89:c9:fd:
                    37:ea:b0:09:9a:7a:bf:7b:e9:d5:f5:56:13:af:b3:
                    d9:3f:c4:90:5a:b1:ed:ee:de:6f:86:16:61:f6:2d:
                    15:c9:6e:94:f2:72:58:e7:5e:ab:f1:2a:42:b1:6c:
                    c7:cd:fd:b1:2d:48:e0:b3:c4:09:e6:bd:e1:f9:3b:
                    1b:a5:5c:dc:0d:b9:40:2d:55:af:70:b2:01:cf:83:
                    35:85:4f:b4:a9:fc:33:f3:3c:f7:30:0c:c0:c5:22:
                    05:85
                Exponent: 65537 (0x10001)
        X509v3 extensions:
            X509v3 Subject Key Identifier: 
                4C:E2:EE:E5:DC:2B:D0:74:49:43:BA:6D:6B:91:6F:A3:C0:53:89:92
            X509v3 Authority Key Identifier: 
                keyid:CC:94:41:CF:A9:F7:C7:58:7C:37:E3:C5:37:29:9B:12:B3:DF:D5:3B

            Authority Information Access: 
                CA Issuers - URI:http://url-for-aia/Root.cer

            X509v3 CRL Distribution Points: 

                Full Name:
                  URI:http://url-for-crl/Root.crl

            X509v3 Key Usage: critical
                Digital Signature, Key Encipherment
            X509v3 Basic Constraints: critical
                CA:TRUE
    Signature Algorithm: sha256WithRSAEncryption
         ba:71:e8:12:ad:e1:13:c6:7e:56:f2:9e:c4:c5:bb:92:63:d2:
         c1:77:24:3c:c5:14:80:c3:bf:52:a9:c9:1c:97:b5:e9:7a:24:
         dc:58:98:ad:96:d8:97:4b:93:dc:3e:67:96:d4:1d:14:8b:e1:
         11:15:f6:7a:cf:f8:92:7d:57:67:7a:9a:8f:30:83:26:33:ff:
         a0:dd:c1:7e:e4:dd:f7:ec:4b:10:de:27:e0:60:d4:0f:76:7e:
         9a:db:91:7f:ba:3e:e9:83:57:ad:38:9c:77:fc:af:9e:9c:68:
         71:a8:14:0a:b7:4e:57:81:7d:05:b3:fb:1b:bf:08:34:7a:2f:
         ee:9b:e2:98:23:9c:87:fe:59:70:3b:fc:d5:48:77:4a:d4:c3:
         32:d0:5c:f6:a1:15:12:6c:cc:d8:66:90:fd:2c:d2:60:0e:d1:
         c3:6e:2a:a1:50:58:9f:5b:d8:36:ff:14:b7:3b:55:42:48:a2:
         0b:4b:35:0b:32:84:a7:0c:5d:60:3e:7a:2a:2d:b1:81:73:a1:
         c9:e9:36:89:9e:d7:d8:09:f7:71:4c:4d:fa:48:24:2f:85:61:
         23:9f:23:57:00:b8:da:4e:b3:f6:09:61:49:b0:c8:a9:6d:1d:
         68:6a:e4:36:37:d3:f0:8f:54:7f:0b:c7:aa:3f:c1:e2:64:99:
         7c:f6:3c:ab
-----BEGIN CERTIFICATE-----
MIIDgDCCAmigAwIBAgIUDSXJo+RUjDUVC8zPpaYr/Zfp0N4wDQYJKoZIhvcNAQEL
BQAwDzENMAsGA1UEAwwEUm9vdDAeFw0yMDExMDMxMjAwMDBaFw0yMTExMDMxMjAw
MDBaMBcxFTATBgNVBAMMDEludGVybWVkaWF0ZTCCASIwDQYJKoZIhvcNAQEBBQAD
ggEPADCCAQoCggEBAMlcwGY9x3LuGCPXVoA8ssJXgaN0nAUH5xpwugwI/BTbUhYD
K5C7ARphZVIZipsILu0AKTGjinswMonLPU4eokz2If9eApx/euANHMvX6e6eZD+z
yhd5wTadUYcGLcH0KPKLSanSEom0YGBlAG8Jg/iVlMqMcC0d4HtC/FNLQIzTZ6Es
CsdTiq8xkVsSzUvQGREizIKUEInwsq7wEW6Ru6V3icn9N+qwCZp6v3vp1fVWE6+z
2T/EkFqx7e7eb4YWYfYtFclulPJyWOdeq/EqQrFsx839sS1I4LPECea94fk7G6Vc
3A25QC1Vr3CyAc+DNYVPtKn8M/M89zAMwMUiBYUCAwEAAaOByzCByDAdBgNVHQ4E
FgQUTOLu5dwr0HRJQ7pta5Fvo8BTiZIwHwYDVR0jBBgwFoAUzJRBz6n3x1h8N+PF
NymbErPf1TswNwYIKwYBBQUHAQEEKzApMCcGCCsGAQUFBzAChhtodHRwOi8vdXJs
LWZvci1haWEvUm9vdC5jZXIwLAYDVR0fBCUwIzAhoB+gHYYbaHR0cDovL3VybC1m
b3ItY3JsL1Jvb3QuY3JsMA4GA1UdDwEB/wQEAwIFoDAPBgNVHRMBAf8EBTADAQH/
MA0GCSqGSIb3DQEBCwUAA4IBAQC6cegSreETxn5W8p7ExbuSY9LBdyQ8xRSAw79S
qckcl7XpeiTcWJitltiXS5PcPmeW1B0Ui+ERFfZ6z/iSfVdnepqPMIMmM/+g3cF+
5N337EsQ3ifgYNQPdn6a25F/uj7pg1etOJx3/K+enGhxqBQKt05XgX0Fs/sbvwg0
ei/um+KYI5yH/llwO/zVSHdK1MMy0Fz2oRUSbMzYZpD9LNJgDtHDbiqhUFifW9g2
/xS3O1VCSKILSzULMoSnDF1gPnoqLbGBc6HJ6TaJntfYCfdxTE36SCQvhWEjnyNX
ALjaTrP2CWFJsMipbR1oauQ2N9Pwj1R/C8eqP8HiZJl89jyr
-----END CERTIFICATE-----

Certificate:
    Data:
        Version: 3 (0x2)
        Serial Number:
            0d:25:c9:a3:e4:54:8c:35:15:0b:cc:cf:a5:a6:2b:fd:97:e9:d0:dd
        Signature Algorithm: sha256WithRSAEncryption
        Issuer: CN=Root
        Validity
            Not Before: Nov  3 12:00:00 2020 GMT
            Not After : Nov  3 12:00:00 2021 GMT
        Subject: CN=Root
        Subject Public Key Info:
            Public Key Algorithm: rsaEncryption
                RSA Public-Key: (2048 bit)
                Modulus:
                    00:cb:b8:41:ee:d5:da:d2:45:d6:49:60:20:14:fb:
                    2c:a9:de:97:50:8e:1c:2f:82:c0:f5:ad:ae:58:ca:
                    46:cb:e5:cc:19:4f:e3:4f:15:7f:41:d4:b7:34:f3:
                    3d:da:86:6d:1a:d0:ab:f0:76:82:ea:a5:db:fb:c2:
                    e3:56:ac:4a:f0:33:57:d5:82:9e:72:db:2c:36:a3:
                    1b:d9:b1:e6:27:1c:98:7e:42:37:b6:21:bd:5a:18:
                    61:bc:6f:77:d7:0c:07:13:39:70:a1:46:08:9f:12:
                    05:c9:ac:a4:57:78:b5:8f:bc:6d:ca:b2:b0:24:ff:
                    fd:9c:61:9f:28:2f:7e:bb:d2:e3:2a:81:ed:f5:b7:
                    84:c9:be:fa:04:3c:29:e8:1f:ca:68:44:08:27:e3:
                    fc:ba:ce:74:19:59:c5:cd:9e:cb:a3:4a:e5:0f:d9:
                    78:38:b4:8c:c8:5f:a6:93:48:13:83:cc:a9:d2:60:
                    45:61:0d:00:22:84:88:ea:e3:dd:da:f0:05:c8:09:
                    3a:b2:3e:5b:6e:3e:c6:18:47:ff:18:54:b6:c0:6e:
                    fc:df:75:4b:2f:23:30:a1:8e:e2:4b:8b:63:fc:80:
                    83:62:eb:c9:a5:fe:ed:26:37:ad:59:ef:79:6a:2d:
                    67:d6:f9:5c:88:5e:19:62:05:55:9a:26:e5:61:b3:
                    f6:65
                Exponent: 65537 (0x10001)
        X509v3 extensions:
            X509v3 Subject Key Identifier: 
                CC:94:41:CF:A9:F7:C7:58:7C:37:E3:C5:37:29:9B:12:B3:DF:D5:3B
            X509v3 Authority Key Identifier: 
                keyid:CC:94:41:CF:A9:F7:C7:58:7C:37:E3:C5:37:29:9B:12:B3:DF:D5:3B

            Authority Information Access: 
                CA Issuers - URI:http://url-for-aia/Root.cer

            X509v3 CRL Distribution Points: 

                Full Name:
                  URI:http://url-for-crl/Root.crl

            X509v3 Key Usage: critical
                Certificate Sign, CRL Sign
            X509v3 Basic Constraints: critical
                CA:TRUE
    Signature Algorithm: sha256WithRSAEncryption
         bf:b6:f0:d4:1e:24:1f:f9:e4:b9:1e:23:28:fc:98:5c:8f:e9:
         0f:84:55:66:2d:c6:24:9c:bb:98:80:f4:84:84:ea:da:48:a1:
         e0:31:1c:52:99:42:01:85:9d:e1:ae:ec:4b:12:9a:1d:89:37:
         db:60:59:4d:7d:8b:e6:b2:42:82:38:c3:1e:72:49:03:cf:f6:
         55:0b:26:f3:66:61:62:9e:d0:e6:86:1f:fa:4c:dd:b8:e5:3f:
         ad:e0:99:69:d8:3c:2f:bc:50:03:35:6c:b3:90:8c:0d:2f:a9:
         01:e7:60:32:30:ac:0a:0c:a2:79:e3:b2:a5:cc:4a:97:0a:8f:
         41:93:94:72:25:72:d2:a9:8f:81:fa:ee:77:a2:9a:b1:27:f8:
         3b:b6:be:ba:c7:9d:31:c4:1c:ee:50:c6:51:f9:dc:88:10:22:
         e0:fa:ac:5e:39:69:da:97:1d:d4:b1:c2:f4:28:7a:b9:cc:3a:
         e4:12:81:2a:1e:b9:f6:13:1c:10:1b:05:25:d4:e2:40:b8:a4:
         b8:cf:e7:7c:ce:7e:92:a1:6f:2c:9f:86:68:29:01:29:ba:50:
         30:5a:9c:ea:69:40:33:62:60:40:d0:30:a7:48:7e:8b:4c:33:
         9b:51:ac:64:07:67:7c:fe:9d:7d:62:21:80:aa:4b:42:c0:b4:
         de:e2:60:a4
-----BEGIN CERTIFICATE-----
MIIDeDCCAmCgAwIBAgIUDSXJo+RUjDUVC8zPpaYr/Zfp0N0wDQYJKoZIhvcNAQEL
BQAwDzENMAsGA1UEAwwEUm9vdDAeFw0yMDExMDMxMjAwMDBaFw0yMTExMDMxMjAw
MDBaMA8xDTALBgNVBAMMBFJvb3QwggEiMA0GCSqGSIb3DQEBAQUAA4IBDwAwggEK
AoIBAQDLuEHu1drSRdZJYCAU+yyp3pdQjhwvgsD1ra5YykbL5cwZT+NPFX9B1Lc0
8z3ahm0a0KvwdoLqpdv7wuNWrErwM1fVgp5y2yw2oxvZseYnHJh+Qje2Ib1aGGG8
b3fXDAcTOXChRgifEgXJrKRXeLWPvG3KsrAk//2cYZ8oL3670uMqge31t4TJvvoE
PCnoH8poRAgn4/y6znQZWcXNnsujSuUP2Xg4tIzIX6aTSBODzKnSYEVhDQAihIjq
493a8AXICTqyPltuPsYYR/8YVLbAbvzfdUsvIzChjuJLi2P8gINi68ml/u0mN61Z
73lqLWfW+VyIXhliBVWaJuVhs/ZlAgMBAAGjgcswgcgwHQYDVR0OBBYEFMyUQc+p
98dYfDfjxTcpmxKz39U7MB8GA1UdIwQYMBaAFMyUQc+p98dYfDfjxTcpmxKz39U7
MDcGCCsGAQUFBwEBBCswKTAnBggrBgEFBQcwAoYbaHR0cDovL3VybC1mb3ItYWlh
L1Jvb3QuY2VyMCwGA1UdHwQlMCMwIaAfoB2GG2h0dHA6Ly91cmwtZm9yLWNybC9S
b290LmNybDAOBgNVHQ8BAf8EBAMCAQYwDwYDVR0TAQH/BAUwAwEB/zANBgkqhkiG
9w0BAQsFAAOCAQEAv7bw1B4kH/nkuR4jKPyYXI/pD4RVZi3GJJy7mID0hITq2kih
4DEcUplCAYWd4a7sSxKaHYk322BZTX2L5rJCgjjDHnJJA8/2VQsm82ZhYp7Q5oYf
+kzduOU/reCZadg8L7xQAzVss5CMDS+pAedgMjCsCgyieeOypcxKlwqPQZOUciVy
0qmPgfrud6KasSf4O7a+usedMcQc7lDGUfnciBAi4PqsXjlp2pcd1LHC9Ch6ucw6
5BKBKh659hMcEBsFJdTiQLikuM/nfM5+kqFvLJ+GaCkBKbpQMFqc6mlAM2JgQNAw
p0h+i0wzm1GsZAdnfP6dfWIhgKpLQsC03uJgpA==
-----END CERTIFICATE-----
