[Created by: generate-chains.py]

Certificate chain where the intermediate has a policies extension marked as
critical, and contains an unknown policy qualifer (1.2.3.4).

Certificate:
    Data:
        Version: 3 (0x2)
        Serial Number:
            11:0a:fc:bd:a1:b1:c5:a4:95:da:e7:62:79:b3:82:f3:22:28:98:e5
        Signature Algorithm: sha256WithRSAEncryption
        Issuer: CN=Intermediate
        Validity
            Not Before: Oct  5 12:00:00 2022 GMT
            Not After : Oct  5 12:00:00 2023 GMT
        Subject: CN=Target
        Subject Public Key Info:
            Public Key Algorithm: rsaEncryption
                Public-Key: (2048 bit)
                Modulus:
                    00:c1:03:58:01:b1:2f:7b:fb:b2:71:dc:49:d0:cb:
                    06:76:30:64:f7:61:bf:da:55:93:73:29:49:0f:cb:
                    0a:33:bd:41:0b:28:03:45:35:72:a9:b4:4b:a7:ec:
                    52:77:3a:8c:ba:cb:87:56:28:3b:39:8d:47:7b:70:
                    7f:5a:8f:76:8c:7e:13:e8:61:17:19:1d:72:e3:6e:
                    69:20:bc:83:f7:5b:11:85:6e:1a:b8:fb:7b:f8:fe:
                    2b:e2:d2:bd:1a:0a:65:62:b0:84:a7:0a:ac:75:ea:
                    e6:74:c4:1d:2c:e8:04:62:76:4b:4d:04:b6:52:2f:
                    a6:ba:66:bb:fe:45:d6:6a:21:05:16:e5:f3:25:ae:
                    94:fd:17:84:80:2f:ac:62:d9:83:e3:17:b0:03:1c:
                    01:02:8b:47:7f:65:2e:f9:40:cf:ad:92:33:07:8a:
                    14:44:5e:c2:ed:68:48:a4:d1:f0:7b:f9:67:91:28:
                    d9:9f:2c:f0:5e:12:92:52:92:97:27:7b:12:dd:c5:
                    d5:7f:32:8c:9b:26:05:eb:47:e1:26:99:ea:6a:a9:
                    25:93:64:31:e5:6c:f4:cf:02:27:29:b3:9f:17:94:
                    0d:38:9c:54:f1:80:ef:b9:b0:4b:6a:12:eb:ca:53:
                    91:2a:95:ee:16:bf:12:9f:8a:32:a7:8a:81:dd:4c:
                    02:91
                Exponent: 65537 (0x10001)
        X509v3 extensions:
            X509v3 Subject Key Identifier: 
                EF:56:67:1C:5E:24:60:78:3E:F2:35:40:2E:1A:58:65:4D:B3:4E:BE
            X509v3 Authority Key Identifier: 
                47:8C:F1:C9:1E:F8:EC:25:A8:31:F3:1C:CE:BC:C5:70:9F:11:87:63
            Authority Information Access: 
                CA Issuers - URI:http://url-for-aia/Intermediate.cer
            X509v3 CRL Distribution Points: 
                Full Name:
                  URI:http://url-for-crl/Intermediate.crl
            X509v3 Key Usage: critical
                Digital Signature, Key Encipherment
            X509v3 Extended Key Usage: 
                TLS Web Server Authentication, TLS Web Client Authentication
    Signature Algorithm: sha256WithRSAEncryption
    Signature Value:
        5a:f8:a9:e5:cc:d8:aa:44:df:5e:18:76:c4:06:85:6d:ab:57:
        b2:fb:51:d1:c3:e1:da:be:c7:ae:d5:6b:fd:da:a4:f6:af:e3:
        b5:dd:ef:f0:e9:06:f1:33:32:d0:e0:ff:2e:e5:54:83:4b:79:
        f4:29:bd:2e:14:d1:fa:02:0a:b3:79:a3:95:b7:63:76:5f:4d:
        06:03:bf:1b:2d:8d:0f:00:33:5a:d5:cb:7e:c6:0e:37:15:5c:
        9e:6f:3c:90:12:6c:36:95:c7:92:14:5f:53:6e:ad:cb:72:c4:
        96:33:76:23:ec:fd:25:97:d0:5a:b2:10:ff:1f:d0:ae:fd:82:
        45:ca:43:b1:b3:14:d9:f9:df:2f:11:a5:0f:64:93:71:27:89:
        13:df:71:48:d8:fe:9c:5e:4d:b9:1a:5f:d0:7c:c0:ef:7a:76:
        69:04:b0:42:5b:b9:1c:0e:bd:74:30:a0:d6:b8:85:cb:bd:4b:
        c0:33:b8:20:9a:2d:9d:3c:ea:a0:98:1a:a6:79:c1:09:69:da:
        1c:48:a1:92:50:9e:c1:c8:8b:51:de:35:93:93:8b:b7:e3:86:
        76:69:2f:8d:e9:a0:9f:48:43:00:67:2d:5b:40:9a:14:22:d3:
        52:e3:e3:cc:d3:34:1c:c7:ca:10:1d:26:71:c9:67:d5:73:a1:
        cf:6b:cc:ee
-----BEGIN CERTIFICATE-----
MIIDoDCCAoigAwIBAgIUEQr8vaGxxaSV2udiebOC8yIomOUwDQYJKoZIhvcNAQEL
BQAwFzEVMBMGA1UEAwwMSW50ZXJtZWRpYXRlMB4XDTIyMTAwNTEyMDAwMFoXDTIz
MTAwNTEyMDAwMFowETEPMA0GA1UEAwwGVGFyZ2V0MIIBIjANBgkqhkiG9w0BAQEF
AAOCAQ8AMIIBCgKCAQEAwQNYAbEve/uycdxJ0MsGdjBk92G/2lWTcylJD8sKM71B
CygDRTVyqbRLp+xSdzqMusuHVig7OY1He3B/Wo92jH4T6GEXGR1y425pILyD91sR
hW4auPt7+P4r4tK9GgplYrCEpwqsdermdMQdLOgEYnZLTQS2Ui+muma7/kXWaiEF
FuXzJa6U/ReEgC+sYtmD4xewAxwBAotHf2Uu+UDPrZIzB4oURF7C7WhIpNHwe/ln
kSjZnyzwXhKSUpKXJ3sS3cXVfzKMmyYF60fhJpnqaqklk2Qx5Wz0zwInKbOfF5QN
OJxU8YDvubBLahLrylORKpXuFr8Sn4oyp4qB3UwCkQIDAQABo4HpMIHmMB0GA1Ud
DgQWBBTvVmccXiRgeD7yNUAuGlhlTbNOvjAfBgNVHSMEGDAWgBRHjPHJHvjsJagx
8xzOvMVwnxGHYzA/BggrBgEFBQcBAQQzMDEwLwYIKwYBBQUHMAKGI2h0dHA6Ly91
cmwtZm9yLWFpYS9JbnRlcm1lZGlhdGUuY2VyMDQGA1UdHwQtMCswKaAnoCWGI2h0
dHA6Ly91cmwtZm9yLWNybC9JbnRlcm1lZGlhdGUuY3JsMA4GA1UdDwEB/wQEAwIF
oDAdBgNVHSUEFjAUBggrBgEFBQcDAQYIKwYBBQUHAwIwDQYJKoZIhvcNAQELBQAD
ggEBAFr4qeXM2KpE314YdsQGhW2rV7L7UdHD4dq+x67Va/3apPav47Xd7/DpBvEz
MtDg/y7lVINLefQpvS4U0foCCrN5o5W3Y3ZfTQYDvxstjQ8AM1rVy37GDjcVXJ5v
PJASbDaVx5IUX1NurctyxJYzdiPs/SWX0FqyEP8f0K79gkXKQ7GzFNn53y8RpQ9k
k3EniRPfcUjY/pxeTbkaX9B8wO96dmkEsEJbuRwOvXQwoNa4hcu9S8AzuCCaLZ08
6qCYGqZ5wQlp2hxIoZJQnsHIi1HeNZOTi7fjhnZpL43poJ9IQwBnLVtAmhQi01Lj
48zTNBzHyhAdJnHJZ9Vzoc9rzO4=
-----END CERTIFICATE-----

Certificate:
    Data:
        Version: 3 (0x2)
        Serial Number:
            22:d5:d3:ab:e1:db:b6:4e:c6:30:5b:f4:c2:c2:ff:37:2e:43:2d:1a
        Signature Algorithm: sha256WithRSAEncryption
        Issuer: CN=Root
        Validity
            Not Before: Oct  5 12:00:00 2022 GMT
            Not After : Oct  5 12:00:00 2023 GMT
        Subject: CN=Intermediate
        Subject Public Key Info:
            Public Key Algorithm: rsaEncryption
                Public-Key: (2048 bit)
                Modulus:
                    00:ba:0f:08:80:56:6b:27:51:76:78:18:c5:92:b1:
                    b4:d1:7a:4f:8f:57:6a:6a:96:70:e3:ca:4a:68:9d:
                    0b:5d:2e:fd:34:1b:2a:d7:f2:a0:e0:3d:98:f8:2c:
                    88:d1:7e:25:5d:80:80:30:f0:1c:65:a5:e4:60:ed:
                    7a:31:df:97:20:c3:0c:4e:d0:2a:d8:93:54:d2:21:
                    fe:9f:85:7d:fe:9d:45:fc:66:14:10:a5:6a:38:e7:
                    e0:1e:71:fa:fe:9a:c0:79:73:98:87:80:17:a8:e3:
                    c8:84:cb:9a:a8:db:d2:59:d5:26:40:cc:8b:29:03:
                    8a:75:3d:05:01:ed:bf:05:57:27:94:e2:a3:7e:2e:
                    06:95:8b:a2:99:8d:69:d3:3a:86:35:2b:23:19:cd:
                    53:92:55:fe:7e:75:43:08:4c:05:51:db:1a:14:5d:
                    6c:bb:4f:de:ef:7f:24:53:b1:e6:fc:90:a0:8a:39:
                    22:f1:1d:1f:4a:3b:5b:c0:df:ca:a9:57:f2:c8:16:
                    f5:e0:f4:fa:79:77:9b:93:0d:b8:5a:9d:9b:48:98:
                    69:75:11:0f:2d:b9:8e:cd:34:4c:06:62:f8:a2:de:
                    07:d8:7e:a0:5a:88:b0:d1:72:0b:49:67:42:5c:08:
                    3b:bc:10:60:01:c2:15:ab:f8:31:8f:5d:bb:a2:e6:
                    da:fb
                Exponent: 65537 (0x10001)
        X509v3 extensions:
            X509v3 Subject Key Identifier: 
                47:8C:F1:C9:1E:F8:EC:25:A8:31:F3:1C:CE:BC:C5:70:9F:11:87:63
            X509v3 Authority Key Identifier: 
                BD:1A:91:15:D9:48:10:F5:7E:D3:B8:CE:06:D8:29:10:AE:43:CE:42
            Authority Information Access: 
                CA Issuers - URI:http://url-for-aia/Root.cer
            X509v3 CRL Distribution Points: 
                Full Name:
                  URI:http://url-for-crl/Root.crl
            X509v3 Key Usage: critical
                Certificate Sign, CRL Sign
            X509v3 Basic Constraints: critical
                CA:TRUE
            X509v3 Certificate Policies: critical
                Policy: 1.2.3
                    Unknown Qualifier: 1.2.3.4
    Signature Algorithm: sha256WithRSAEncryption
    Signature Value:
        91:b2:3f:61:26:a2:68:3a:15:cc:0d:96:01:33:d3:85:40:94:
        02:38:18:fb:54:5a:18:52:b2:1e:6a:98:e5:37:db:7d:82:5b:
        c4:d1:f7:d6:11:81:4a:18:67:e1:e0:d3:5e:a0:23:69:49:95:
        08:8b:0d:da:86:62:21:a2:8d:a1:ed:0e:7f:f2:b0:a8:45:a7:
        5b:fa:c4:1d:25:d9:ca:e7:06:f9:20:4a:75:d5:2e:17:5c:6c:
        f0:88:a6:26:30:ef:b6:1f:e4:26:26:f9:84:59:b5:f8:89:a6:
        33:38:44:48:56:d8:a0:80:76:08:1d:ea:c4:60:bf:14:0b:eb:
        6a:7b:7c:0a:36:8d:38:a2:2f:ae:2e:98:7f:e7:48:4f:8e:79:
        5e:d9:f0:22:81:1a:44:12:0d:c3:24:3c:70:ea:6c:bb:89:cc:
        45:56:88:97:3b:10:e8:3a:f2:03:3a:23:68:36:f4:37:f3:53:
        f0:0e:3d:6b:fa:a5:5d:63:62:6a:e2:9a:20:89:3d:9d:b1:5c:
        2f:08:42:b2:36:98:5e:36:fe:81:c7:8a:b0:38:ef:76:a2:33:
        12:81:0b:59:47:df:cb:ef:1c:51:11:9a:29:fd:5d:75:e5:cd:
        6d:8c:b0:4a:cc:eb:9c:54:c8:33:1a:f2:c7:01:bf:c6:3c:ff:
        90:f7:85:a9
-----BEGIN CERTIFICATE-----
MIIDoTCCAomgAwIBAgIUItXTq+Hbtk7GMFv0wsL/Ny5DLRowDQYJKoZIhvcNAQEL
BQAwDzENMAsGA1UEAwwEUm9vdDAeFw0yMjEwMDUxMjAwMDBaFw0yMzEwMDUxMjAw
MDBaMBcxFTATBgNVBAMMDEludGVybWVkaWF0ZTCCASIwDQYJKoZIhvcNAQEBBQAD
ggEPADCCAQoCggEBALoPCIBWaydRdngYxZKxtNF6T49XamqWcOPKSmidC10u/TQb
KtfyoOA9mPgsiNF+JV2AgDDwHGWl5GDtejHflyDDDE7QKtiTVNIh/p+Fff6dRfxm
FBClajjn4B5x+v6awHlzmIeAF6jjyITLmqjb0lnVJkDMiykDinU9BQHtvwVXJ5Ti
o34uBpWLopmNadM6hjUrIxnNU5JV/n51QwhMBVHbGhRdbLtP3u9/JFOx5vyQoIo5
IvEdH0o7W8DfyqlX8sgW9eD0+nl3m5MNuFqdm0iYaXURDy25js00TAZi+KLeB9h+
oFqIsNFyC0lnQlwIO7wQYAHCFav4MY9du6Lm2vsCAwEAAaOB7DCB6TAdBgNVHQ4E
FgQUR4zxyR747CWoMfMczrzFcJ8Rh2MwHwYDVR0jBBgwFoAUvRqRFdlIEPV+07jO
BtgpEK5DzkIwNwYIKwYBBQUHAQEEKzApMCcGCCsGAQUFBzAChhtodHRwOi8vdXJs
LWZvci1haWEvUm9vdC5jZXIwLAYDVR0fBCUwIzAhoB+gHYYbaHR0cDovL3VybC1m
b3ItY3JsL1Jvb3QuY3JsMA4GA1UdDwEB/wQEAwIBBjAPBgNVHRMBAf8EBTADAQH/
MB8GA1UdIAEB/wQVMBMwEQYCKgMwCzAJBgMqAwQMAmhpMA0GCSqGSIb3DQEBCwUA
A4IBAQCRsj9hJqJoOhXMDZYBM9OFQJQCOBj7VFoYUrIeapjlN9t9glvE0ffWEYFK
GGfh4NNeoCNpSZUIiw3ahmIhoo2h7Q5/8rCoRadb+sQdJdnK5wb5IEp11S4XXGzw
iKYmMO+2H+QmJvmEWbX4iaYzOERIVtiggHYIHerEYL8UC+tqe3wKNo04oi+uLph/
50hPjnle2fAigRpEEg3DJDxw6my7icxFVoiXOxDoOvIDOiNoNvQ381PwDj1r+qVd
Y2Jq4pogiT2dsVwvCEKyNpheNv6Bx4qwOO92ojMSgQtZR9/L7xxREZop/V115c1t
jLBKzOucVMgzGvLHAb/GPP+Q94Wp
-----END CERTIFICATE-----

Certificate:
    Data:
        Version: 3 (0x2)
        Serial Number:
            22:d5:d3:ab:e1:db:b6:4e:c6:30:5b:f4:c2:c2:ff:37:2e:43:2d:19
        Signature Algorithm: sha256WithRSAEncryption
        Issuer: CN=Root
        Validity
            Not Before: Oct  5 12:00:00 2022 GMT
            Not After : Oct  5 12:00:00 2023 GMT
        Subject: CN=Root
        Subject Public Key Info:
            Public Key Algorithm: rsaEncryption
                Public-Key: (2048 bit)
                Modulus:
                    00:ba:3d:c2:46:f3:d5:1b:65:5e:43:a3:bc:db:43:
                    94:e9:9c:20:e1:ea:84:98:c6:65:51:6d:1c:1d:5f:
                    8d:f9:81:47:1a:06:18:d9:7c:57:8f:6c:55:5c:36:
                    63:c2:c6:db:be:47:61:5c:35:46:30:ec:e1:e5:0e:
                    10:4f:9d:d4:62:58:56:83:00:3a:63:f0:cb:b2:50:
                    e5:50:52:27:60:41:3e:db:07:61:92:db:d6:60:c2:
                    66:f8:89:b6:aa:99:cb:5e:9d:74:db:cc:bc:3e:7d:
                    0b:13:87:29:b8:fa:32:11:e9:fc:9a:e9:77:0d:7c:
                    03:15:f7:7c:85:6c:f0:2c:2b:b0:32:5b:d9:6f:f8:
                    f0:82:71:9e:f4:63:5c:6d:98:c9:ea:12:ad:d3:66:
                    22:da:67:26:3c:ae:b3:23:0e:68:91:b7:28:65:81:
                    b8:2c:04:34:92:bb:a0:00:39:51:06:53:14:c7:e9:
                    ae:31:ef:5a:d7:21:28:44:9f:ca:53:cf:ac:4f:60:
                    56:a9:f4:92:20:ee:c0:db:46:da:83:bd:28:b4:dd:
                    d2:73:af:93:b5:31:84:55:e8:80:a0:6f:c5:f6:0c:
                    54:50:dc:3d:b4:26:71:f9:fd:16:3f:62:b1:96:c9:
                    de:45:b4:28:86:8d:8e:34:ce:aa:41:7c:66:e4:04:
                    72:bb
                Exponent: 65537 (0x10001)
        X509v3 extensions:
            X509v3 Subject Key Identifier: 
                BD:1A:91:15:D9:48:10:F5:7E:D3:B8:CE:06:D8:29:10:AE:43:CE:42
            X509v3 Authority Key Identifier: 
                BD:1A:91:15:D9:48:10:F5:7E:D3:B8:CE:06:D8:29:10:AE:43:CE:42
            Authority Information Access: 
                CA Issuers - URI:http://url-for-aia/Root.cer
            X509v3 CRL Distribution Points: 
                Full Name:
                  URI:http://url-for-crl/Root.crl
            X509v3 Key Usage: critical
                Certificate Sign, CRL Sign
            X509v3 Basic Constraints: critical
                CA:TRUE
    Signature Algorithm: sha256WithRSAEncryption
    Signature Value:
        5d:81:3f:3b:0d:0e:62:58:27:ec:e4:1d:1b:b4:68:93:b6:29:
        46:dd:91:82:17:51:33:a5:15:b2:d4:47:29:db:72:69:1e:15:
        aa:ec:1f:be:e2:fd:6e:57:7f:40:d1:6a:2b:57:29:23:ed:61:
        d9:f4:d7:5f:40:ab:51:22:3f:aa:a7:9c:a0:d9:07:9a:f2:08:
        75:eb:d8:b2:10:a3:a9:e7:a7:1f:7d:e9:69:86:03:d2:e2:fa:
        bf:1e:9e:12:15:60:c6:6a:da:3a:35:e8:15:5a:74:9e:17:78:
        65:9f:c9:a9:97:c8:44:32:cd:b1:6c:36:ba:67:23:f7:6a:06:
        9e:d7:cb:10:38:4c:8c:ea:1b:25:52:b8:25:8c:d8:ef:69:3a:
        71:f1:ba:86:f7:b3:2f:2a:e1:9a:5c:74:d0:fb:3d:f9:52:69:
        36:d5:af:f4:37:e5:57:72:a9:98:b6:20:a9:da:69:4d:ea:44:
        1b:ad:1d:6b:3c:3a:fb:fa:34:22:e0:70:54:74:26:a2:b9:a1:
        9b:b1:b0:8f:c5:dc:5f:4c:de:2f:9a:5d:6c:67:a8:99:62:af:
        08:f4:20:36:ce:71:3e:f9:09:45:d6:0a:75:ce:4d:ce:85:1c:
        5e:c6:1c:a3:59:c7:81:f0:e8:55:3e:9c:3c:50:76:75:c4:5a:
        ee:21:e7:a7
-----BEGIN CERTIFICATE-----
MIIDeDCCAmCgAwIBAgIUItXTq+Hbtk7GMFv0wsL/Ny5DLRkwDQYJKoZIhvcNAQEL
BQAwDzENMAsGA1UEAwwEUm9vdDAeFw0yMjEwMDUxMjAwMDBaFw0yMzEwMDUxMjAw
MDBaMA8xDTALBgNVBAMMBFJvb3QwggEiMA0GCSqGSIb3DQEBAQUAA4IBDwAwggEK
AoIBAQC6PcJG89UbZV5Do7zbQ5TpnCDh6oSYxmVRbRwdX435gUcaBhjZfFePbFVc
NmPCxtu+R2FcNUYw7OHlDhBPndRiWFaDADpj8MuyUOVQUidgQT7bB2GS29Zgwmb4
ibaqmctenXTbzLw+fQsThym4+jIR6fya6XcNfAMV93yFbPAsK7AyW9lv+PCCcZ70
Y1xtmMnqEq3TZiLaZyY8rrMjDmiRtyhlgbgsBDSSu6AAOVEGUxTH6a4x71rXIShE
n8pTz6xPYFap9JIg7sDbRtqDvSi03dJzr5O1MYRV6ICgb8X2DFRQ3D20JnH5/RY/
YrGWyd5FtCiGjY40zqpBfGbkBHK7AgMBAAGjgcswgcgwHQYDVR0OBBYEFL0akRXZ
SBD1ftO4zgbYKRCuQ85CMB8GA1UdIwQYMBaAFL0akRXZSBD1ftO4zgbYKRCuQ85C
MDcGCCsGAQUFBwEBBCswKTAnBggrBgEFBQcwAoYbaHR0cDovL3VybC1mb3ItYWlh
L1Jvb3QuY2VyMCwGA1UdHwQlMCMwIaAfoB2GG2h0dHA6Ly91cmwtZm9yLWNybC9S
b290LmNybDAOBgNVHQ8BAf8EBAMCAQYwDwYDVR0TAQH/BAUwAwEB/zANBgkqhkiG
9w0BAQsFAAOCAQEAXYE/Ow0OYlgn7OQdG7Rok7YpRt2RghdRM6UVstRHKdtyaR4V
quwfvuL9bld/QNFqK1cpI+1h2fTXX0CrUSI/qqecoNkHmvIIdevYshCjqeenH33p
aYYD0uL6vx6eEhVgxmraOjXoFVp0nhd4ZZ/JqZfIRDLNsWw2umcj92oGntfLEDhM
jOobJVK4JYzY72k6cfG6hvezLyrhmlx00Ps9+VJpNtWv9DflV3KpmLYgqdppTepE
G60dazw6+/o0IuBwVHQmormhm7Gwj8XcX0zeL5pdbGeomWKvCPQgNs5xPvkJRdYK
dc5NzoUcXsYco1nHgfDoVT6cPFB2dcRa7iHnpw==
-----END CERTIFICATE-----
