[Created by: generate-chains.py]

Certificate chain where the intermediate has a policies extension marked as
critical, and contains an unknown policy qualifer (1.2.3.4).

Certificate:
    Data:
        Version: 3 (0x2)
        Serial Number:
            11:0a:fc:bd:a1:b1:c5:a4:95:da:e7:62:79:b3:82:f3:22:28:98:e5
        Signature Algorithm: sha256WithRSAEncryption
        Issuer: CN=Intermediate
        Validity
            Not Before: Nov  3 12:00:00 2020 GMT
            Not After : Nov  3 12:00:00 2021 GMT
        Subject: CN=Target
        Subject Public Key Info:
            Public Key Algorithm: rsaEncryption
                RSA Public-Key: (2048 bit)
                Modulus:
                    00:c1:03:58:01:b1:2f:7b:fb:b2:71:dc:49:d0:cb:
                    06:76:30:64:f7:61:bf:da:55:93:73:29:49:0f:cb:
                    0a:33:bd:41:0b:28:03:45:35:72:a9:b4:4b:a7:ec:
                    52:77:3a:8c:ba:cb:87:56:28:3b:39:8d:47:7b:70:
                    7f:5a:8f:76:8c:7e:13:e8:61:17:19:1d:72:e3:6e:
                    69:20:bc:83:f7:5b:11:85:6e:1a:b8:fb:7b:f8:fe:
                    2b:e2:d2:bd:1a:0a:65:62:b0:84:a7:0a:ac:75:ea:
                    e6:74:c4:1d:2c:e8:04:62:76:4b:4d:04:b6:52:2f:
                    a6:ba:66:bb:fe:45:d6:6a:21:05:16:e5:f3:25:ae:
                    94:fd:17:84:80:2f:ac:62:d9:83:e3:17:b0:03:1c:
                    01:02:8b:47:7f:65:2e:f9:40:cf:ad:92:33:07:8a:
                    14:44:5e:c2:ed:68:48:a4:d1:f0:7b:f9:67:91:28:
                    d9:9f:2c:f0:5e:12:92:52:92:97:27:7b:12:dd:c5:
                    d5:7f:32:8c:9b:26:05:eb:47:e1:26:99:ea:6a:a9:
                    25:93:64:31:e5:6c:f4:cf:02:27:29:b3:9f:17:94:
                    0d:38:9c:54:f1:80:ef:b9:b0:4b:6a:12:eb:ca:53:
                    91:2a:95:ee:16:bf:12:9f:8a:32:a7:8a:81:dd:4c:
                    02:91
                Exponent: 65537 (0x10001)
        X509v3 extensions:
            X509v3 Subject Key Identifier: 
                EF:56:67:1C:5E:24:60:78:3E:F2:35:40:2E:1A:58:65:4D:B3:4E:BE
            X509v3 Authority Key Identifier: 
                keyid:47:8C:F1:C9:1E:F8:EC:25:A8:31:F3:1C:CE:BC:C5:70:9F:11:87:63

            Authority Information Access: 
                CA Issuers - URI:http://url-for-aia/Intermediate.cer

            X509v3 CRL Distribution Points: 

                Full Name:
                  URI:http://url-for-crl/Intermediate.crl

            X509v3 Key Usage: critical
                Digital Signature, Key Encipherment
            X509v3 Extended Key Usage: 
                TLS Web Server Authentication, TLS Web Client Authentication
    Signature Algorithm: sha256WithRSAEncryption
         a8:aa:d4:c2:39:10:eb:ea:ac:41:d5:56:72:7e:58:e2:83:5a:
         46:27:24:fe:b6:6c:76:8d:83:d9:ec:6a:dd:e2:0a:61:51:34:
         21:f2:f1:ee:1c:53:5d:06:fa:50:cf:08:e8:f6:3b:3a:29:da:
         e5:7f:07:b4:f2:f7:3d:78:c8:f7:fa:17:a7:3f:1d:2b:42:1e:
         c4:12:bb:fb:dd:1b:83:ce:c8:ec:cf:bf:d7:26:62:7c:1e:39:
         c9:c6:26:a2:f0:a5:df:c7:3c:6f:54:5b:b6:b8:a3:e3:40:59:
         72:4c:27:2e:d2:1c:fe:d1:e1:51:3f:92:af:c8:4b:6c:b5:88:
         16:17:0f:75:5a:b9:6c:bc:68:a1:7e:79:e2:65:c7:e4:a7:42:
         0f:f4:10:31:4a:9e:3f:ea:2d:5f:bd:61:70:92:3c:69:99:18:
         12:3c:c6:bc:a1:a9:07:73:2e:c9:ab:c1:88:ac:1a:f4:9d:27:
         0b:e6:bd:9d:1b:b6:9f:fc:90:21:0a:17:fa:20:ec:50:8e:53:
         0c:cd:42:34:62:46:1f:71:4c:71:60:67:d0:de:5a:ca:69:e2:
         b8:a0:36:96:a0:a3:91:20:ca:22:cb:4d:2a:b7:a8:27:0f:9b:
         4e:af:1f:13:3c:f4:f1:53:bb:f0:3e:2b:6e:0c:14:e5:a1:42:
         fd:0a:01:b5
-----BEGIN CERTIFICATE-----
MIIDoDCCAoigAwIBAgIUEQr8vaGxxaSV2udiebOC8yIomOUwDQYJKoZIhvcNAQEL
BQAwFzEVMBMGA1UEAwwMSW50ZXJtZWRpYXRlMB4XDTIwMTEwMzEyMDAwMFoXDTIx
MTEwMzEyMDAwMFowETEPMA0GA1UEAwwGVGFyZ2V0MIIBIjANBgkqhkiG9w0BAQEF
AAOCAQ8AMIIBCgKCAQEAwQNYAbEve/uycdxJ0MsGdjBk92G/2lWTcylJD8sKM71B
CygDRTVyqbRLp+xSdzqMusuHVig7OY1He3B/Wo92jH4T6GEXGR1y425pILyD91sR
hW4auPt7+P4r4tK9GgplYrCEpwqsdermdMQdLOgEYnZLTQS2Ui+muma7/kXWaiEF
FuXzJa6U/ReEgC+sYtmD4xewAxwBAotHf2Uu+UDPrZIzB4oURF7C7WhIpNHwe/ln
kSjZnyzwXhKSUpKXJ3sS3cXVfzKMmyYF60fhJpnqaqklk2Qx5Wz0zwInKbOfF5QN
OJxU8YDvubBLahLrylORKpXuFr8Sn4oyp4qB3UwCkQIDAQABo4HpMIHmMB0GA1Ud
DgQWBBTvVmccXiRgeD7yNUAuGlhlTbNOvjAfBgNVHSMEGDAWgBRHjPHJHvjsJagx
8xzOvMVwnxGHYzA/BggrBgEFBQcBAQQzMDEwLwYIKwYBBQUHMAKGI2h0dHA6Ly91
cmwtZm9yLWFpYS9JbnRlcm1lZGlhdGUuY2VyMDQGA1UdHwQtMCswKaAnoCWGI2h0
dHA6Ly91cmwtZm9yLWNybC9JbnRlcm1lZGlhdGUuY3JsMA4GA1UdDwEB/wQEAwIF
oDAdBgNVHSUEFjAUBggrBgEFBQcDAQYIKwYBBQUHAwIwDQYJKoZIhvcNAQELBQAD
ggEBAKiq1MI5EOvqrEHVVnJ+WOKDWkYnJP62bHaNg9nsat3iCmFRNCHy8e4cU10G
+lDPCOj2Ozop2uV/B7Ty9z14yPf6F6c/HStCHsQSu/vdG4POyOzPv9cmYnweOcnG
JqLwpd/HPG9UW7a4o+NAWXJMJy7SHP7R4VE/kq/IS2y1iBYXD3VauWy8aKF+eeJl
x+SnQg/0EDFKnj/qLV+9YXCSPGmZGBI8xryhqQdzLsmrwYisGvSdJwvmvZ0btp/8
kCEKF/og7FCOUwzNQjRiRh9xTHFgZ9DeWspp4rigNpago5EgyiLLTSq3qCcPm06v
HxM89PFTu/A+K24MFOWhQv0KAbU=
-----END CERTIFICATE-----

Certificate:
    Data:
        Version: 3 (0x2)
        Serial Number:
            22:d5:d3:ab:e1:db:b6:4e:c6:30:5b:f4:c2:c2:ff:37:2e:43:2d:1a
        Signature Algorithm: sha256WithRSAEncryption
        Issuer: CN=Root
        Validity
            Not Before: Nov  3 12:00:00 2020 GMT
            Not After : Nov  3 12:00:00 2021 GMT
        Subject: CN=Intermediate
        Subject Public Key Info:
            Public Key Algorithm: rsaEncryption
                RSA Public-Key: (2048 bit)
                Modulus:
                    00:ba:0f:08:80:56:6b:27:51:76:78:18:c5:92:b1:
                    b4:d1:7a:4f:8f:57:6a:6a:96:70:e3:ca:4a:68:9d:
                    0b:5d:2e:fd:34:1b:2a:d7:f2:a0:e0:3d:98:f8:2c:
                    88:d1:7e:25:5d:80:80:30:f0:1c:65:a5:e4:60:ed:
                    7a:31:df:97:20:c3:0c:4e:d0:2a:d8:93:54:d2:21:
                    fe:9f:85:7d:fe:9d:45:fc:66:14:10:a5:6a:38:e7:
                    e0:1e:71:fa:fe:9a:c0:79:73:98:87:80:17:a8:e3:
                    c8:84:cb:9a:a8:db:d2:59:d5:26:40:cc:8b:29:03:
                    8a:75:3d:05:01:ed:bf:05:57:27:94:e2:a3:7e:2e:
                    06:95:8b:a2:99:8d:69:d3:3a:86:35:2b:23:19:cd:
                    53:92:55:fe:7e:75:43:08:4c:05:51:db:1a:14:5d:
                    6c:bb:4f:de:ef:7f:24:53:b1:e6:fc:90:a0:8a:39:
                    22:f1:1d:1f:4a:3b:5b:c0:df:ca:a9:57:f2:c8:16:
                    f5:e0:f4:fa:79:77:9b:93:0d:b8:5a:9d:9b:48:98:
                    69:75:11:0f:2d:b9:8e:cd:34:4c:06:62:f8:a2:de:
                    07:d8:7e:a0:5a:88:b0:d1:72:0b:49:67:42:5c:08:
                    3b:bc:10:60:01:c2:15:ab:f8:31:8f:5d:bb:a2:e6:
                    da:fb
                Exponent: 65537 (0x10001)
        X509v3 extensions:
            X509v3 Subject Key Identifier: 
                47:8C:F1:C9:1E:F8:EC:25:A8:31:F3:1C:CE:BC:C5:70:9F:11:87:63
            X509v3 Authority Key Identifier: 
                keyid:BD:1A:91:15:D9:48:10:F5:7E:D3:B8:CE:06:D8:29:10:AE:43:CE:42

            Authority Information Access: 
                CA Issuers - URI:http://url-for-aia/Root.cer

            X509v3 CRL Distribution Points: 

                Full Name:
                  URI:http://url-for-crl/Root.crl

            X509v3 Key Usage: critical
                Certificate Sign, CRL Sign
            X509v3 Basic Constraints: critical
                CA:TRUE
            X509v3 Certificate Policies: critical
                Policy: 1.2.3
                    Unknown Qualifier: 1.2.3.4

    Signature Algorithm: sha256WithRSAEncryption
         8c:41:2c:30:83:9c:16:c8:81:2c:76:e1:02:42:97:ba:79:65:
         04:87:ad:e0:1b:d4:2a:5f:5b:78:86:bf:b7:56:0f:79:c9:d1:
         e4:5a:41:70:a8:20:a8:28:e1:97:ca:e1:9f:35:7d:87:15:48:
         c6:1f:8a:c1:07:ff:d2:03:34:3a:9e:85:e9:35:1c:dd:09:7a:
         ac:49:8b:a2:46:70:29:b4:19:5c:af:de:92:12:46:16:50:b2:
         ef:a7:d7:54:9f:65:63:44:18:c6:8a:03:0f:1b:40:3d:9a:df:
         cf:df:81:ee:23:a9:91:0e:d3:b5:76:6d:ce:db:2d:b1:63:3d:
         bb:06:1b:9f:52:d7:3d:a1:fe:de:ff:47:60:b8:2e:64:d6:fd:
         d7:2f:a7:46:4e:65:a0:d7:68:31:30:07:0a:50:f0:a7:24:af:
         ff:e9:38:06:c6:6c:e9:f7:00:c9:dc:c4:d5:a2:fd:b6:55:10:
         2f:21:5c:e9:75:61:d5:87:5c:3b:e7:a0:2b:50:63:f8:fe:06:
         61:6a:88:21:3b:b3:9d:a9:a9:f8:6b:e2:f6:26:25:ff:df:3e:
         25:78:b7:b2:f4:8b:0b:77:e5:49:61:a8:55:2c:86:a7:82:15:
         1b:a3:f7:f8:a3:68:10:96:a3:d8:c6:28:8e:ad:dd:19:f8:05:
         3e:e9:f3:71
-----BEGIN CERTIFICATE-----
MIIDoTCCAomgAwIBAgIUItXTq+Hbtk7GMFv0wsL/Ny5DLRowDQYJKoZIhvcNAQEL
BQAwDzENMAsGA1UEAwwEUm9vdDAeFw0yMDExMDMxMjAwMDBaFw0yMTExMDMxMjAw
MDBaMBcxFTATBgNVBAMMDEludGVybWVkaWF0ZTCCASIwDQYJKoZIhvcNAQEBBQAD
ggEPADCCAQoCggEBALoPCIBWaydRdngYxZKxtNF6T49XamqWcOPKSmidC10u/TQb
KtfyoOA9mPgsiNF+JV2AgDDwHGWl5GDtejHflyDDDE7QKtiTVNIh/p+Fff6dRfxm
FBClajjn4B5x+v6awHlzmIeAF6jjyITLmqjb0lnVJkDMiykDinU9BQHtvwVXJ5Ti
o34uBpWLopmNadM6hjUrIxnNU5JV/n51QwhMBVHbGhRdbLtP3u9/JFOx5vyQoIo5
IvEdH0o7W8DfyqlX8sgW9eD0+nl3m5MNuFqdm0iYaXURDy25js00TAZi+KLeB9h+
oFqIsNFyC0lnQlwIO7wQYAHCFav4MY9du6Lm2vsCAwEAAaOB7DCB6TAdBgNVHQ4E
FgQUR4zxyR747CWoMfMczrzFcJ8Rh2MwHwYDVR0jBBgwFoAUvRqRFdlIEPV+07jO
BtgpEK5DzkIwNwYIKwYBBQUHAQEEKzApMCcGCCsGAQUFBzAChhtodHRwOi8vdXJs
LWZvci1haWEvUm9vdC5jZXIwLAYDVR0fBCUwIzAhoB+gHYYbaHR0cDovL3VybC1m
b3ItY3JsL1Jvb3QuY3JsMA4GA1UdDwEB/wQEAwIBBjAPBgNVHRMBAf8EBTADAQH/
MB8GA1UdIAEB/wQVMBMwEQYCKgMwCzAJBgMqAwQMAmhpMA0GCSqGSIb3DQEBCwUA
A4IBAQCMQSwwg5wWyIEsduECQpe6eWUEh63gG9QqX1t4hr+3Vg95ydHkWkFwqCCo
KOGXyuGfNX2HFUjGH4rBB//SAzQ6noXpNRzdCXqsSYuiRnAptBlcr96SEkYWULLv
p9dUn2VjRBjGigMPG0A9mt/P34HuI6mRDtO1dm3O2y2xYz27BhufUtc9of7e/0dg
uC5k1v3XL6dGTmWg12gxMAcKUPCnJK//6TgGxmzp9wDJ3MTVov22VRAvIVzpdWHV
h1w756ArUGP4/gZhaoghO7Odqan4a+L2JiX/3z4leLey9IsLd+VJYahVLIanghUb
o/f4o2gQlqPYxiiOrd0Z+AU+6fNx
-----END CERTIFICATE-----

Certificate:
    Data:
        Version: 3 (0x2)
        Serial Number:
            22:d5:d3:ab:e1:db:b6:4e:c6:30:5b:f4:c2:c2:ff:37:2e:43:2d:19
        Signature Algorithm: sha256WithRSAEncryption
        Issuer: CN=Root
        Validity
            Not Before: Nov  3 12:00:00 2020 GMT
            Not After : Nov  3 12:00:00 2021 GMT
        Subject: CN=Root
        Subject Public Key Info:
            Public Key Algorithm: rsaEncryption
                RSA Public-Key: (2048 bit)
                Modulus:
                    00:ba:3d:c2:46:f3:d5:1b:65:5e:43:a3:bc:db:43:
                    94:e9:9c:20:e1:ea:84:98:c6:65:51:6d:1c:1d:5f:
                    8d:f9:81:47:1a:06:18:d9:7c:57:8f:6c:55:5c:36:
                    63:c2:c6:db:be:47:61:5c:35:46:30:ec:e1:e5:0e:
                    10:4f:9d:d4:62:58:56:83:00:3a:63:f0:cb:b2:50:
                    e5:50:52:27:60:41:3e:db:07:61:92:db:d6:60:c2:
                    66:f8:89:b6:aa:99:cb:5e:9d:74:db:cc:bc:3e:7d:
                    0b:13:87:29:b8:fa:32:11:e9:fc:9a:e9:77:0d:7c:
                    03:15:f7:7c:85:6c:f0:2c:2b:b0:32:5b:d9:6f:f8:
                    f0:82:71:9e:f4:63:5c:6d:98:c9:ea:12:ad:d3:66:
                    22:da:67:26:3c:ae:b3:23:0e:68:91:b7:28:65:81:
                    b8:2c:04:34:92:bb:a0:00:39:51:06:53:14:c7:e9:
                    ae:31:ef:5a:d7:21:28:44:9f:ca:53:cf:ac:4f:60:
                    56:a9:f4:92:20:ee:c0:db:46:da:83:bd:28:b4:dd:
                    d2:73:af:93:b5:31:84:55:e8:80:a0:6f:c5:f6:0c:
                    54:50:dc:3d:b4:26:71:f9:fd:16:3f:62:b1:96:c9:
                    de:45:b4:28:86:8d:8e:34:ce:aa:41:7c:66:e4:04:
                    72:bb
                Exponent: 65537 (0x10001)
        X509v3 extensions:
            X509v3 Subject Key Identifier: 
                BD:1A:91:15:D9:48:10:F5:7E:D3:B8:CE:06:D8:29:10:AE:43:CE:42
            X509v3 Authority Key Identifier: 
                keyid:BD:1A:91:15:D9:48:10:F5:7E:D3:B8:CE:06:D8:29:10:AE:43:CE:42

            Authority Information Access: 
                CA Issuers - URI:http://url-for-aia/Root.cer

            X509v3 CRL Distribution Points: 

                Full Name:
                  URI:http://url-for-crl/Root.crl

            X509v3 Key Usage: critical
                Certificate Sign, CRL Sign
            X509v3 Basic Constraints: critical
                CA:TRUE
    Signature Algorithm: sha256WithRSAEncryption
         80:ad:1c:62:40:f5:4f:ae:ee:32:32:12:28:0c:4c:3d:f4:bf:
         26:34:9e:e9:03:2e:84:e4:cd:f2:59:09:86:1c:ff:e9:e9:00:
         66:0c:9a:38:b8:73:7d:68:4b:9e:7f:00:41:2b:c4:e5:d4:5f:
         29:f7:a6:e7:d1:6d:7f:29:7f:89:71:dc:65:f5:48:f7:51:48:
         0b:3b:ca:73:44:23:ba:eb:c8:b2:d0:12:04:f1:71:85:4f:9a:
         d7:f0:90:73:c3:65:8e:16:c7:74:54:bc:e4:7b:00:79:6b:8c:
         d4:64:bf:98:54:88:c6:c9:b7:44:82:a9:c0:d9:60:50:41:42:
         5f:20:16:0e:06:08:4b:3d:52:28:42:9f:33:30:0d:44:d4:11:
         6d:48:c2:2b:aa:b3:b8:89:19:c8:15:22:02:65:3f:67:0c:5a:
         3a:74:ed:80:68:09:42:af:44:86:0b:b7:16:b9:2c:78:62:fb:
         54:bd:f0:17:6e:cd:3c:ba:03:95:4d:a0:13:77:e4:89:89:eb:
         89:3b:4e:d5:c6:e1:a1:3f:a0:54:d1:99:e8:05:c3:33:c1:d1:
         e5:c1:b7:e0:11:08:6f:d6:ba:31:a5:4b:d6:4f:cc:27:b1:d3:
         9e:a5:ae:e9:65:46:2d:ed:65:27:2d:e6:8a:44:82:70:5e:73:
         54:22:fa:71
-----BEGIN CERTIFICATE-----
MIIDeDCCAmCgAwIBAgIUItXTq+Hbtk7GMFv0wsL/Ny5DLRkwDQYJKoZIhvcNAQEL
BQAwDzENMAsGA1UEAwwEUm9vdDAeFw0yMDExMDMxMjAwMDBaFw0yMTExMDMxMjAw
MDBaMA8xDTALBgNVBAMMBFJvb3QwggEiMA0GCSqGSIb3DQEBAQUAA4IBDwAwggEK
AoIBAQC6PcJG89UbZV5Do7zbQ5TpnCDh6oSYxmVRbRwdX435gUcaBhjZfFePbFVc
NmPCxtu+R2FcNUYw7OHlDhBPndRiWFaDADpj8MuyUOVQUidgQT7bB2GS29Zgwmb4
ibaqmctenXTbzLw+fQsThym4+jIR6fya6XcNfAMV93yFbPAsK7AyW9lv+PCCcZ70
Y1xtmMnqEq3TZiLaZyY8rrMjDmiRtyhlgbgsBDSSu6AAOVEGUxTH6a4x71rXIShE
n8pTz6xPYFap9JIg7sDbRtqDvSi03dJzr5O1MYRV6ICgb8X2DFRQ3D20JnH5/RY/
YrGWyd5FtCiGjY40zqpBfGbkBHK7AgMBAAGjgcswgcgwHQYDVR0OBBYEFL0akRXZ
SBD1ftO4zgbYKRCuQ85CMB8GA1UdIwQYMBaAFL0akRXZSBD1ftO4zgbYKRCuQ85C
MDcGCCsGAQUFBwEBBCswKTAnBggrBgEFBQcwAoYbaHR0cDovL3VybC1mb3ItYWlh
L1Jvb3QuY2VyMCwGA1UdHwQlMCMwIaAfoB2GG2h0dHA6Ly91cmwtZm9yLWNybC9S
b290LmNybDAOBgNVHQ8BAf8EBAMCAQYwDwYDVR0TAQH/BAUwAwEB/zANBgkqhkiG
9w0BAQsFAAOCAQEAgK0cYkD1T67uMjISKAxMPfS/JjSe6QMuhOTN8lkJhhz/6ekA
ZgyaOLhzfWhLnn8AQSvE5dRfKfem59Ftfyl/iXHcZfVI91FICzvKc0QjuuvIstAS
BPFxhU+a1/CQc8NljhbHdFS85HsAeWuM1GS/mFSIxsm3RIKpwNlgUEFCXyAWDgYI
Sz1SKEKfMzANRNQRbUjCK6qzuIkZyBUiAmU/ZwxaOnTtgGgJQq9Ehgu3FrkseGL7
VL3wF27NPLoDlU2gE3fkiYnriTtO1cbhoT+gVNGZ6AXDM8HR5cG34BEIb9a6MaVL
1k/MJ7HTnqWu6WVGLe1lJy3mikSCcF5zVCL6cQ==
-----END CERTIFICATE-----
