+[ObjectLoadTimeLogger load]
__ZN4base6subtle28TimeTicksNowIgnoringOverrideEv
__ZN12_GLOBAL__N_122MachTimeToMicrosecondsEy
__ZZN12_GLOBAL__N_116MachTimebaseInfoEvENK3$_0clEv
+[CRWStartupOrderFile load]
+[CRWStartupOrderFile installRunLoopObserver]
_main
__ZN13IOSChromeMain13InitStartTimeEv
__ZN3ios8provider17IsPrimesSupportedEv
__ZN12crash_helper5StartEv
__ZN12crash_helper6common20CrashpadDumpLocationEv
__ZN9app_group14CrashpadFolderEv
+[AppGroupHelper applicationGroup]
__ZN4base5apple15FrameworkBundleEv
__ZN4base5apple18NSStringToFilePathEP8NSString
__ZNSt4__Cr6vectorIN4base8FilePathENS_9allocatorIS2_EEE21__push_back_slow_pathIRKS2_EEPS2_OT_
__ZNSt4__Cr6vectorIN4base8FilePathENS_9allocatorIS2_EEE26__swap_out_circular_bufferERNS_14__split_bufferIS2_RS4_EE
__ZN12crash_helper6common13StartCrashpadEv
__ZN14crash_reporter8internal30PlatformCrashpadInitializationEbbbRKNSt4__Cr12basic_stringIcNS1_11char_traitsIcEENS1_9allocatorIcEEEERKN4base8FilePathERKNS1_6vectorIS7_NS5_IS7_EEEEPSB_
__ZZN14crash_reporter12_GLOBAL__N_127GetProcessSimpleAnnotationsEvENK3$_0clEv
__ZN4base5apple11OuterBundleEv
__ZN4base17SysNSStringToUTF8EP8NSString
__ZN4base12_GLOBAL__N_129CFStringToStringWithEncodingTINSt4__Cr12basic_stringIcNS2_11char_traitsIcEENS2_9allocatorIcEEEEEET_PK10__CFStringj
__ZNSt4__Cr6__treeINS_12__value_typeINS_12basic_stringIcNS_11char_traitsIcEENS_9allocatorIcEEEES7_EENS_19__map_value_compareIS7_S8_NS_4lessIS7_EELb1EEENS5_IS8_EEE25__emplace_unique_key_argsIS7_JRKNS_21piecewise_construct_tENS_5tupleIJOS7_EEENSJ_IJEEEEEENS_4pairINS_15__tree_iteratorIS8_PNS_11__tree_nodeIS8_PvEElEEbEERKT_DpOT0_
__ZNSt4__Cr27__tree_balance_after_insertIPNS_16__tree_node_baseIPvEEEEvT_S5_
__ZNSt4__CrssIcNS_11char_traitsIcEENS_9allocatorIcEEEEDaRKNS_12basic_stringIT_T0_T1_EESB_
__ZN8crashpad8internal22IOSSystemDataCollectorC1Ev
__ZN8crashpad8internal22IOSSystemDataCollectorC2Ev
__ZN8crashpad8internal22IOSSystemDataCollector15InstallHandlersEv
__ZN8crashpad8internal22IOSSystemDataCollector35SystemTimeZoneDidChangeNotificationEv
__ZNSt4__Cr6__treeINS_12__value_typeINS_12basic_stringIcNS_11char_traitsIcEENS_9allocatorIcEEEES7_EENS_19__map_value_compareIS7_S8_NS_4lessIS7_EELb1EEENS5_IS8_EEE14__assign_multiINS_21__tree_const_iteratorIS8_PNS_11__tree_nodeIS8_PvEElEEEEvT_SM_
__ZNSt4__Cr6__treeINS_12__value_typeINS_12basic_stringIcNS_11char_traitsIcEENS_9allocatorIcEEEES7_EENS_19__map_value_compareIS7_S8_NS_4lessIS7_EELb1EEENS5_IS8_EEE15__emplace_multiIJRKNS_4pairIKS7_S7_EEEEENS_15__tree_iteratorIS8_PNS_11__tree_nodeIS8_PvEElEEDpOT_
__ZNSt4__Cr12construct_atINS_4pairIKNS_12basic_stringIcNS_11char_traitsIcEENS_9allocatorIcEEEES7_EEJRKS9_EPS9_EEPT_SE_DpOT0_
__ZN8crashpad19CrashReportDatabase10InitializeERKN4base8FilePathE
__ZN8crashpad18InitializeInternalERKN4base8FilePathEb
__ZN8crashpad22CrashReportDatabaseMac10InitializeEb
__ZN8crashpad12_GLOBAL__N_129CreateOrEnsureDirectoryExistsERKN4base8FilePathE
__ZN8crashpad12_GLOBAL__N_121EnsureDirectoryExistsERKN4base8FilePathE
__ZN8crashpad22CrashReportDatabaseMac12DatabasePathEv
__ZN8crashpad32InstallObjcExceptionPreprocessorEPNS_21ObjcExceptionDelegateE
__ZZN8crashpad12_GLOBAL__N_126ExceptionPreprocessorState3GetEvENKUlvE_clEv
__ZNSt4__Cr6__treeIiNS_4lessIiEENS_9allocatorIiEEE30__emplace_hint_unique_key_argsIiJRKiEEENS_4pairINS_15__tree_iteratorIiPNS_11__tree_nodeIiPvEElEEbEENS_21__tree_const_iteratorIiSE_lEERKT_DpOT0_
__ZNSt4__Cr6__treeIiNS_4lessIiEENS_9allocatorIiEEE12__find_equalIiEERPNS_16__tree_node_baseIPvEENS_21__tree_const_iteratorIiPNS_11__tree_nodeIiS8_EElEERPNS_15__tree_end_nodeISA_EESB_RKT_
__ZN4base7SysInfo17HardwareModelNameEv
__ZNSt4__Cr6__treeINS_12basic_stringIcNS_11char_traitsIcEENS_9allocatorIcEEEENS_4lessIS6_EENS4_IS6_EEE25__emplace_unique_key_argsIS6_JS6_EEENS_4pairINS_15__tree_iteratorIS6_PNS_11__tree_nodeIS6_PvEElEEbEERKT_DpOT0_
__ZN4base3ios22IsApplicationPreWarmedEv
+[MainThreadFreezeDetector sharedInstance]
___42+[MainThreadFreezeDetector sharedInstance]_block_invoke
-[MainThreadFreezeDetector init]
-[MainThreadFreezeDetector start]
-[MainThreadFreezeDetector delay]
-[MainThreadFreezeDetector running]
__ZN10tests_hook32DisableMainThreadFreezeDetectionEv
__ZN3ios20RegisterPathProviderEv
-[MainApplicationDelegate init]
-[MainController .cxx_construct]
-[MainController init]
__Z31ShouldPresentFirstRunExperiencev
__ZN18experimental_flags21AlwaysDisplayFirstRunEv
__ZN10tests_hook22DisableDefaultFirstRunEv
__ZN8FirstRun16IsChromeFirstRunEv
__ZN8FirstRun27GetFirstRunSentinelFilePathEPN4base8FilePathE
__ZN3ios12_GLOBAL__N_112PathProviderEiPN4base8FilePathE
__ZN3ios12_GLOBAL__N_127GetDefaultUserDataDirectoryEPN4base8FilePathE
__ZN4base15PathProviderIOSEiPNS_8FilePathE
__ZN4base5apple16GetUserDirectoryE21NSSearchPathDirectoryPNS_8FilePathE
__ZN4base5apple22GetSearchPathDirectoryE21NSSearchPathDirectorymPNS_8FilePathE
__ZN8FirstRun16LoadSentinelInfoEv
-[MainController setMetricsMediator:]
-[AppState .cxx_construct]
-[AppState initWithStartupInformation:]
+[CRBProtocolObservers observersWithProtocol:]
-[CRBProtocolObservers .cxx_construct]
-[CRBProtocolObservers initWithProtocol:]
-[CommandDispatcher .cxx_construct]
__ZN10crash_keys19SetVoiceOverRunningEb
+[CrashReportUserApplicationState sharedInstance]
-[CrashReportMultiParameter .cxx_construct]
-[CrashReportMultiParameter initWithKey:]
-[CrashReportMultiParameter removeValue:]
-[CrashReportMultiParameter updateCrashReport]
__ZN8crashpad16StringAnnotationILj256EE3SetENSt4__Cr17basic_string_viewIcNS2_11char_traitsIcEEEE
+[PreviousSessionInfo sharedInstance]
-[PreviousSessionInfo .cxx_construct]
-[PreviousSessionInfo setAvailableDeviceStorage:]
-[PreviousSessionInfo setDidSeeMemoryWarningShortlyBeforeTerminating:]
-[PreviousSessionInfo setDeviceBatteryState:]
-[PreviousSessionInfo setDeviceBatteryLevel:]
-[PreviousSessionInfo setDeviceThermalState:]
-[PreviousSessionInfo setSessionStartTime:]
-[PreviousSessionInfo setSessionEndTime:]
-[PreviousSessionInfo setOSVersion:]
__ZN4base17SysUTF8ToNSStringENSt4__Cr17basic_string_viewIcNS0_11char_traitsIcEEEE
-[PreviousSessionInfo setIsFirstSessionAfterUpgrade:]
-[PreviousSessionInfo setConnectedSceneSessionsIDs:]
-[PreviousSessionInfo setOSRestartedAfterPreviousSession:]
-[PreviousSessionInfo setIsFirstSessionAfterLanguageChange:]
-[PreviousSessionInfo setTerminatedDuringSessionRestoration:]
-[PreviousSessionInfo setReportParameters:]
-[PreviousSessionInfo setMemoryFootprint:]
-[PreviousSessionInfo setApplicationWillTerminateWasReceived:]
-[PreviousSessionInfo setTabCount:]
-[PreviousSessionInfo setInactiveTabCount:]
-[PreviousSessionInfo setOTRTabCount:]
-[PreviousSessionInfo setWarmStartCount:]
-[PreviousSessionInfo setReportParameterValue:forKey:]
-[AppState addObserver:]
-[AppState observers]
-[CRBProtocolObservers addObserver:]
-[CRBProtocolObservers protocol]
__ZNSt4__Cr6vectorIU6__weakP11objc_objectNS_9allocatorIS3_EEE21__push_back_slow_pathIRU6__weakKS2_EEPS3_OT_
-[AppState initStage]
-[PushNotificationDelegate initWithAppState:]
-[MainController setAppState:]
-[AppState addAgent:]
-[AppState agents]
-[AppMetricsAppStateAgent setAppState:]
-[SafeModeAppAgent .cxx_construct]
-[SafeModeAppAgent setAppState:]
-[SceneObservingAppAgent init]
-[SceneObservingAppAgent setAppState:]
-[ObservingAppAgent setAppState:]
-[ObservingAppAgent appState]
-[AppState connectedScenes]
-[SceneObservingAppAgent notifyOfConvenienceEventsIfNecessary]
-[AppState foregroundScenes]
-[SceneObservingAppAgent notifiedBackground]
-[SearchEngineChoiceAppAgent .cxx_construct]
-[VariationsAppStateAgent init]
-[IOSChromeVariationsSeedFetcher .cxx_construct]
-[IOSChromeVariationsSeedFetcher init]
-[IOSChromeVariationsSeedFetcher initWithArguments:]
-[VariationsAppStateAgent initWithFirstRunExperience:lastSeedFetchTime:fetcher:enabledGroupWeight:controlGroupWeight:]
__ZN4base23UmaHistogramEnumerationIN10variations20VariationsSeedExpiryEEEvPKcT_
-[IOSChromeVariationsSeedFetcher .cxx_destruct]
__ZN4base3ios25IsMultipleScenesSupportedEv
-[MainApplicationDelegate application:didFinishLaunchingWithOptions:]
-[MainApplicationDelegate setDidFinishLaunching:]
-[AppState startupInformation]
-[MainController setDidFinishLaunchingTime:]
-[AppState startInitialization]
-[AppState queueTransitionToInitStage:]
-[AppState isIncrementingInitStage]
-[AppState setIsIncrementingInitStage:]
-[AppState setInitStage:]
-[CRBProtocolObservers methodSignatureForSelector:]
-[CRBProtocolObservers forwardInvocation:]
-[VariationsAppStateAgent appState:willTransitionToInitStage:]
-[CRBProtocolObservers compact]
-[AppState appState:didTransitionFromInitStage:]
-[MainController appState:didTransitionFromInitStage:]
-[AppState queueTransitionToNextInitStage]
-[AppState needsIncrementInitStage]
-[AppState setNeedsIncrementInitStage:]
-[AppMetricsAppStateAgent appState:didTransitionFromInitStage:]
-[SafeModeAppAgent appState:didTransitionFromInitStage:]
-[FeedAppAgent appState:didTransitionFromInitStage:]
-[SceneObservingAppAgent appState:didTransitionFromInitStage:]
-[SearchEngineChoiceAppAgent appState:didTransitionFromInitStage:]
-[VariationsAppStateAgent appState:didTransitionFromInitStage:]
-[MainController startUpBrowserBasicInitialization]
__ZN13IOSChromeMain9StartTimeEv
+[SetupDebugging setUpDebuggingOptions]
__ZN13ObjcEvilDoers12ZombieEnableEbm
__ZN12_GLOBAL__N_17GetLockEv
+[ProviderRegistration registerProviders]
__ZN3ios8provider10InitializeEv
__ZN3ios8provider16IsRaccoonEnabledEv
-[MainController appState]
-[AppState appCommandDispatcher]
-[CommandDispatcher startDispatchingToTarget:forProtocol:]
-[CommandDispatcher startDispatchingToTarget:forSelector:]
-[CommandDispatcher targetForSelector:]
-[CommandDispatcher shouldFailSilentlyForSelector:]
__ZNSt4__Cr12__hash_tableINS_17__hash_value_typeIP13objc_selectorU6__weakP11objc_objectEENS_22__unordered_map_hasherIS3_S7_NS_4hashIS3_EENS_8equal_toIS3_EELb1EEENS_21__unordered_map_equalIS3_S7_SC_SA_Lb1EEENS_9allocatorIS7_EEE25__emplace_unique_key_argsIS3_JRKNS_21piecewise_construct_tENS_5tupleIJRKS3_EEENSN_IJEEEEEENS_4pairINS_15__hash_iteratorIPNS_11__hash_nodeIS7_PvEEEEbEERKT_DpOT0_
__ZNSt4__Cr12__hash_tableINS_17__hash_value_typeIP13objc_selectorU6__weakP11objc_objectEENS_22__unordered_map_hasherIS3_S7_NS_4hashIS3_EENS_8equal_toIS3_EELb1EEENS_21__unordered_map_equalIS3_S7_SC_SA_Lb1EEENS_9allocatorIS7_EEE11__do_rehashILb1EEEvm
-[FeedAppAgent maybeRegisterBackgroundRefreshTask]
__Z40IsFeedBackgroundRefreshCapabilityEnabledv
__ZN12_GLOBAL__N_113ZombieDeallocEP11objc_objectP13objc_selector
___copy_helper_block_e8_32w
-[FeedAppAgent maybeRequestUserNotificationPermissions]
__Z51IsFeedBackgroundRefreshCompletedNotificationEnabledv
__Z10GetChannelv
__ZZN12_GLOBAL__N_111AddObserverIN8crashpad8internal22IOSSystemDataCollectorETnMT_FvvEXadL_ZNS3_32OrientationDidChangeNotificationEvEEEEvPK10__CFStringPS4_ENUlP22__CFNotificationCenterPvS9_PKvPK14__CFDictionaryE_8__invokeESC_SD_S9_SF_SI_
-[SceneDelegate window]
____ZN12_GLOBAL__N_118SyncBreadcrumbsLogEv_block_invoke
___copy_helper_block_e8_32c21_ZTSKN4base8FilePathE
____ZN12_GLOBAL__N_118SyncBreadcrumbsLogEv_block_invoke_2
-[ChromeOverlayWindow initWithFrame:]
-[PreviousSessionInfo setBreadcrumbsLog:]
-[PreviousSessionInfo setBreadcrumbs:]
___destroy_helper_block_e8_32c21_ZTSKN4base8FilePathE
-[ChromeOverlayWindow setFrame:]
__ZN2ui19GetDeviceFormFactorEv
-[ChromeOverlayWindow updateCrashKeys]
__ZN10crash_keys29SetCurrentHorizontalSizeClassEi
-[CrashReportMultiParameter setValue:withValue:]
__ZN10crash_keys28SetCurrentUserInterfaceStyleEi
-[UserInterfaceStyleRecorder initWithUserInterfaceStyle:]
__Z27CustomizeUIWindowAppearanceP8UIWindow
-[ChromeOverlayWindow traitCollectionDidChange:]
-[SceneDelegate scene:willConnectToSession:options:]
-[SceneDelegate sceneState]
-[MainApplicationDelegate appState]
-[SceneState initWithAppState:]
-[SceneState addObserver:]
-[SceneState observers]
-[SceneController .cxx_construct]
-[SceneController initWithSceneState:]
-[SceneState appState]
-[SceneController appState:didTransitionFromInitStage:]
-[SceneController sceneState]
-[SceneState activationLevel]
-[SceneController transitionToSceneActivationLevel:appInitStage:]
-[SceneController setBackgroundedSinceLastActivated:]
__ZN22SceneUrlLoadingServiceC1Ev
__ZN22SceneUrlLoadingService11SetDelegateEPU41objcproto30SceneURLLoadingServiceDelegate11objc_object
__ZN26WebStateListObserverBridgeC1EPU32objcproto21WebStateListObserving11objc_object
__ZN20WebStateListObserverC2Ev
__ZNK4base6subtle24RefCountedThreadSafeBase6AddRefEv
__ZN39PolicyWatcherBrowserAgentObserverBridgeC1EPU45objcproto34PolicyWatcherBrowserAgentObserving11objc_object
-[SceneState addAgent:]
-[SceneState agents]
-[ObservingSceneAgent setSceneState:]
+[ObservingSceneAgent allowsMultipleAgentsOfSameTypePerScene]
-[SceneState connectedAgents]
-[IncognitoBlockerSceneAgent setSceneState:]
-[ReauthenticationModule init]
-[ReauthenticationModule initWithSuccessfulReauthTimeAccessor:]
-[IncognitoReauthSceneAgent initWithReauthModule:]
-[StartSurfaceSceneAgent init]
-[StartSurfaceSceneAgent setPreviousActivationLevel:]
-[StartSurfaceSceneAgent setSceneState:]
-[ObservingSceneAgent sceneState]
-[StartSurfaceSceneAgent appState:didTransitionFromInitStage:]
-[LayoutGuideSceneAgent init]
-[SceneState setController:]
-[SceneState setScene:]
-[SceneDelegate originFromSession:options:]
-[SceneState setCurrentOrigin:]
-[SceneState setActivationLevel:]
-[AppState sceneState:transitionedToActivationLevel:]
___28-[AppState foregroundScenes]_block_invoke
__ZN10crash_keys24SetForegroundScenesCountEi
-[SceneController sceneState:transitionedToActivationLevel:]
-[IncognitoBlockerSceneAgent sceneState:transitionedToActivationLevel:]
-[SceneState incognitoContentVisible]
-[SceneState sessionObjectForKey:]
-[SceneState QRScannerVisible]
-[IncognitoReauthSceneAgent sceneState:transitionedToActivationLevel:]
-[IncognitoReauthSceneAgent updateWindowHasIncognitoContent:]
-[SceneState browserProviderInterface]
-[SceneState controller]
-[SceneController browserProviderInterface]
-[SceneController browserViewWrangler]
-[IncognitoReauthSceneAgent setWindowHadIncognitoContentWhenBackgrounded:]
-[IncognitoReauthSceneAgent featureEnabled]
-[IncognitoReauthSceneAgent localState]
__Z21GetApplicationContextv
-[IncognitoReauthSceneAgent setAuthenticatedSinceLastForeground:]
-[StartSurfaceSceneAgent sceneState:transitionedToActivationLevel:]
-[StartSurfaceSceneAgent previousActivationLevel]
-[SessionSavingSceneAgent sceneState:transitionedToActivationLevel:]
-[SessionSavingSceneAgent saveSessionsIfNeeded]
-[SceneState setConnectionOptions:]
-[AppState sceneWillConnect:]
-[MainController appState:sceneConnected:]
-[SceneState window]
-[SceneState scene]
-[LaunchScreenViewController viewDidLoad]
-[LaunchScreenViewController createLogoView]
-[LaunchScreenViewController createBrandView]
-[LaunchScreenViewController detailView]
-[MainApplicationDelegate application:supportedInterfaceOrientationsForWindow:]
-[AppState portraitOnly]
-[AppMetricsAppStateAgent appState:sceneConnected:]
-[SafeModeAppAgent appState:sceneConnected:]
-[SceneObservingAppAgent appState:sceneConnected:]
__ZN10crash_keys23SetConnectedScenesCountEi
-[MainApplicationDelegate sceneWillConnect:]
-[MainApplicationDelegate foregroundSceneCount]
-[AppState applicationWillEnterForeground:metricsMediator:memoryHelper:]
-[AppState initializeUIPreSafeMode]
-[AppState saveLaunchDetailsToDefaults]
-[PreviousSessionInfo isFirstSessionAfterUpgrade]
__ZN10crash_util34IncrementFailedStartupAttemptCountEb
-[PreviousSessionInfo beginRecordingCurrentSession]
-[PreviousSessionInfo didBeginRecordingCurrentSession]
-[PreviousSessionInfo setDidBeginRecordingCurrentSession:]
__ZN4base7SysInfo22OperatingSystemVersionEv
____ZN4base7SysInfo22OperatingSystemVersionEv_block_invoke
-[PreviousSessionInfo resumeRecordingCurrentSession]
-[PreviousSessionInfo recordingCurrentSession]
-[PreviousSessionInfo setRecordingCurrentSession:]
-[PreviousSessionInfo updateApplicationState]
-[PreviousSessionInfo updateSessionEndTime]
-[PreviousSessionInfo updateStoredBatteryLevel]
-[PreviousSessionInfo updateStoredBatteryState]
-[PreviousSessionInfo updateStoredThermalState]
-[MainController addPostSafeModeAgents]
-[EnterpriseAppAgent .cxx_construct]
-[EnterpriseAppAgent setAppState:]
-[EnterpriseAppAgent appState:didTransitionFromInitStage:]
-[IncognitoUsageAppStateAgent .cxx_construct]
-[IncognitoUsageAppStateAgent init]
-[IncognitoUsageAppStateAgent setAppState:]
-[IncognitoUsageAppStateAgent updateIncognitoContentVisible]
-[IncognitoUsageAppStateAgent checkIncognitoContentVisible]
-[IncognitoUsageAppStateAgent appState]
-[IncognitoUsageAppStateAgent incognitoContentVisible]
-[FirstRunAppAgent .cxx_construct]
-[FirstRunAppAgent setAppState:]
-[FirstRunAppAgent appState:didTransitionFromInitStage:]
-[FirstRunAppAgent appState]
-[CertificatePolicyAppAgent .cxx_construct]
+[SafeModeCoordinator shouldStart]
__ZN10crash_util28GetFailedStartupAttemptCountEv
-[AppMetricsAppStateAgent appState]
-[MainController startUpBrowserBackgroundInitialization]
__ZN4base5apple15SetBaseBundleIDEPKc
+[RegisterExperimentalSettings registerExperimentalSettingsWithUserDefaults:bundle:]
+[RegisterExperimentalSettings registerExperimentalSettingsForFile:userDefaults:]
+[ClientRegistration registerClients]
__ZN15ChromeWebClientC1Ev
__ZN3web9WebClientC2Ev
__ZN3web12SetWebClientEPNS_9WebClientE
__ZN26ChromeCookieStoreIOSClientC1Ev
__ZN3net20CookieStoreIOSClientC2Ev
__ZN3net23SetCookieStoreIOSClientEPNS_20CookieStoreIOSClientE
+[ChromeMainStarter startChromeMain]
__ZN13IOSChromeMainC1Ev
__ZN13IOSChromeMainC2Ev
__ZN21IOSChromeMainDelegateC1Ev
__ZN3web13WebMainParamsC1EPNS_15WebMainDelegateE
__ZN3web13WebMainParamsC2EPNS_15WebMainDelegateE
__ZNSt4__Cr6vectorINS_12basic_stringIcNS_11char_traitsIcEENS_9allocatorIcEEEENS4_IS6_EEE8__appendEm
__ZN3web13WebMainParamsC1EOS0_
__ZN3web7WebMainC1ENS_13WebMainParamsE
__ZN3web7WebMainC2ENS_13WebMainParamsE
__ZN3web13WebMainRunner6CreateEv
__ZN3web17WebMainRunnerImplC1Ev
__ZN3web17WebMainRunnerImplC2Ev
__ZN3web9WebClientC1Ev
__ZN3web17WebMainRunnerImpl10InitializeENS_13WebMainParamsE
__ZN16ios_global_state6CreateERKNS_12CreateParamsE
____ZN16ios_global_state6CreateERKNS_12CreateParamsE_block_invoke
__ZN4base8AdoptRefINS_8internal13BindStateBaseEEE13scoped_refptrIT_EPS4_
__ZN4base18PlatformThreadBase19CanChangeThreadTypeENS_10ThreadTypeES1_
__ZN21IOSChromeMainDelegate20BasicStartupCompleteEv
__ZN3web12GetWebClientEv
__ZN3web18RegisterWebSchemesEv
__ZN3web9WebClient7SchemesC1Ev
__ZNK15ChromeWebClient20AddAdditionalSchemesEPN3web9WebClient7SchemesE
__ZNSt4__Cr6vectorINS_12basic_stringIcNS_11char_traitsIcEENS_9allocatorIcEEEENS4_IS6_EEE21__push_back_slow_pathIS6_EEPS6_OT_
__ZN3web9WebClient7SchemesD1Ev
__ZN3web9WebClient7SchemesD2Ev
__ZN4base5apple30PathForFrameworkBundleResourceEPKc
__ZN4base5apple15NSURLToFilePathEP5NSURL
__ZN4base3ios21FilePathOfEmbeddedICUEv
__ZN3web11WebMainLoopC1Ev
__ZN3web11WebMainLoopC2Ev
__ZN4base8internal9BindStateILb0ELb1ELb0EPFvvEJEE6CreateIS3_JEEEPS4_S3_OT_DpOT0_
__ZN3web11WebMainLoop4InitEv
__ZN15ChromeWebClient18CreateWebMainPartsEv
__ZN18IOSChromeMainPartsC1ERKN4base11CommandLineE
__ZN18IOSChromeMainPartsC2ERKN4base11CommandLineE
__ZN4base3ios18IsRunningOnOrLaterEiii
__ZN4base7SysInfo29OperatingSystemVersionNumbersEPiS1_S1_
__ZN3web11WebMainLoop19EarlyInitializationEv
__ZN3web12WebMainParts22PreEarlyInitializationEv
__ZN3web12WebMainParts23PostEarlyInitializationEv
__ZN3web11WebMainLoop21CreateMainMessageLoopEv
__ZN18IOSChromeMainParts24PreCreateMainMessageLoopEv
__ZN9l10n_util29OverrideLocaleWithCocoaLocaleEv
__ZN4base12LazyInstanceINSt4__Cr12basic_stringIcNS1_11char_traitsIcEENS1_9allocatorIcEEEENS_8internal34DestructorAtExitLazyInstanceTraitsIS7_EEE7PointerEv
__ZN4base22LazyInstanceTraitsBaseINSt4__Cr12basic_stringIcNS1_11char_traitsIcEENS1_9allocatorIcEEEEE3NewEPv
__ZN7display18CreateNativeScreenEv
-[ScreenObserver .cxx_construct]
-[ScreenObserver initWithNotifier:]
__ZN4base11FeatureList9IsEnabledERKNS_7FeatureB15logically_constE
__ZN4base12_GLOBAL__N_125EarlyFeatureAccessTracker15AccessedFeatureERKNS_7FeatureB15logically_constEb
__ZN7display12_GLOBAL__N_19ScreenIos13ScreenChangedEv
__ZNK7display12_GLOBAL__N_19ScreenIos19GetAllActiveScreensEv
__ZNK4base6subtle24RefCountedThreadSafeBase7ReleaseEv
__ZN2ui14ResourceBundle19LoadCommonResourcesEv
__ZN2ui12_GLOBAL__N_123GetResourcesPakFilePathEP8NSStringS2_
__ZN9l10n_util17GetLocaleOverrideEv
__ZN2ui14ResourceBundle17GetLocaleFilePathERKNSt4__Cr12basic_stringIcNS1_11char_traitsIcEENS1_9allocatorIcEEEE
__ZN4base5apple19FrameworkBundlePathEv
__ZN16ios_global_state29BuildSingleThreadTaskExecutorEv
____ZN16ios_global_state29BuildSingleThreadTaskExecutorEv_block_invoke
__ZN4base18message_pump_apple6CreateEv
__ZN4base24MessagePumpCFRunLoopBaseC2Ei
__ZN4base24MessagePumpCFRunLoopBase11SetModeMaskEi
__ZN4base24MessagePumpCFRunLoopBase17ScopedModeEnablerC2EPS0_i
__ZN4base24MessagePumpUIApplication6AttachEPNS_11MessagePump8DelegateE
__ZN4base24MessagePumpCFRunLoopBase11SetDelegateEPNS_11MessagePump8DelegateE
__ZN4base24MessagePumpCFRunLoopBase8OnAttachEv
__ZN4base24MessagePumpCFRunLoopBase17PushWorkItemScopeEv
__ZN4base14circular_dequeINSt4__Cr8optionalINS_11MessagePump8Delegate16ScopedDoWorkItemEEEE12emplace_backIJS6_EEERS6_DpOT_
__ZN4base14circular_dequeINSt4__Cr8optionalINS_11MessagePump8Delegate16ScopedDoWorkItemEEEE13SetCapacityToEm
__ZN4base14circular_dequeINSt4__Cr8optionalINS_11MessagePump8Delegate16ScopedDoWorkItemEEEE10MoveBufferERNS_8internal12VectorBufferIS6_EEmmPSA_PmSD_
__ZN4base8internal12VectorBufferINSt4__Cr8optionalINS_11MessagePump8Delegate16ScopedDoWorkItemEEEEixEm
__ZN4base14circular_dequeINSt4__Cr8optionalINS_11MessagePump8Delegate16ScopedDoWorkItemEEEE4backEv
__ZNK4base8internal29circular_deque_const_iteratorINSt4__Cr8optionalINS_11MessagePump8Delegate16ScopedDoWorkItemEEEE18CheckUnstableUsageEv
__ZNK4base14circular_dequeINSt4__Cr8optionalINS_11MessagePump8Delegate16ScopedDoWorkItemEEEE15CheckValidIndexEm
__ZNK4base8internal12VectorBufferINSt4__Cr8optionalINS_11MessagePump8Delegate16ScopedDoWorkItemEEEEixEm
__ZN3web11WebMainLoop20InitializeMainThreadEv
__ZN4base18PlatformThreadBase7SetNameERKNSt4__Cr12basic_stringIcNS1_11char_traitsIcEENS1_9allocatorIcEEEE
__ZN16ios_global_state25GetMainThreadTaskExecutorEv
__ZN16ios_global_state27CreateNetworkChangeNotifierEv
____ZN16ios_global_state27CreateNetworkChangeNotifierEv_block_invoke
__ZN3net26NetworkChangeNotifierAppleC1Ev
__ZN3net26NetworkChangeNotifierAppleC2Ev
__ZN3net26NetworkChangeNotifierApple9ForwarderC2EPS0_
__ZN4base13InitThreadingEv
__ZN4base25GetDefaultThreadStackSizeERK22_opaque_pthread_attr_t
__ZN3web12WebMainParts25PostCreateMainMessageLoopEv
__ZN3web11WebMainLoop18CreateStartupTasksEv
__ZN18IOSChromeMainParts16PreCreateThreadsEv
__ZN4base18PlatformThreadBase8Delegate17GetRealtimePeriodEv
__ZN4base19PlatformThreadApple35SetCurrentThreadRealtimePeriodValueENS_9TimeDeltaE
__ZN4base8internal24SetCurrentThreadTypeImplENS_10ThreadTypeENS_15MessagePumpTypeE
__ZN4base20MessagePumpNSRunLoopC2Ev
__ZN22ApplicationContextImplC1EPN4base19SequencedTaskRunnerERKNS0_11CommandLineERKNSt4__Cr12basic_stringIcNS6_11char_traitsIcEENS6_9allocatorIcEEEESE_
__ZN22ApplicationContextImplC2EPN4base19SequencedTaskRunnerERKNS0_11CommandLineERKNSt4__Cr12basic_stringIcNS6_11char_traitsIcEENS6_9allocatorIcEEEESE_
__ZN18ApplicationContextC2Ev
__ZN18ApplicationContext21SetApplicationContextEPS_
__ZN22ApplicationContextImpl20SetApplicationLocaleERKNSt4__Cr12basic_stringIcNS0_11char_traitsIcEENS0_9allocatorIcEEEE
__ZN4base24MessagePumpCFRunLoopBase6AttachEPNS_11MessagePump8DelegateE
__ZN3net26NetworkChangeNotifierApple9Forwarder4InitEv
__ZN3net26NetworkChangeNotifierApple24SetInitialConnectionTypeEv
__ZN3net26NetworkChangeNotifierApple23CalculateConnectionTypeEj
__ZN4base24MessagePumpCFRunLoopBase20AdjustDelayedRunTimeENS_9TimeTicksES1_S1_
__ZN4base24MessagePumpCFRunLoopBase19ScheduleDelayedWorkERKNS_11MessagePump8Delegate12NextWorkInfoE
__ZNK4base11MessagePump8Delegate12NextWorkInfo15remaining_delayEv
__ZN9translate24TranslateDownloadManager22set_application_localeERKNSt4__Cr12basic_stringIcNS1_11char_traitsIcEENS1_9allocatorIcEEEE
__ZN34IOSChromeUpdateQueryParamsDelegate11GetInstanceEv
__ZN4base24MessagePumpCFRunLoopBase3RunEPNS_11MessagePump8DelegateE
__ZN4base24MessagePumpCFRunLoopBase12ScheduleWorkEv
__ZN4base20MessagePumpNSRunLoop5DoRunEPNS_11MessagePump8DelegateE
__ZN4base24MessagePumpCFRunLoopBase17EnterExitObserverEP19__CFRunLoopObservermPv
____ZN4base24MessagePumpCFRunLoopBase17EnterExitObserverEP19__CFRunLoopObservermPv_block_invoke_2
__ZN4base24MessagePumpCFRunLoopBase16EnterExitRunLoopEm
__ZN4base24MessagePumpCFRunLoopBase17PreSourceObserverEP19__CFRunLoopObservermPv
____ZN4base24MessagePumpCFRunLoopBase17PreSourceObserverEP19__CFRunLoopObservermPv_block_invoke
__ZN4base24MessagePumpCFRunLoopBase13RunWorkSourceEPv
____ZN4base24MessagePumpCFRunLoopBase13RunWorkSourceEPv_block_invoke
__ZN4base24MessagePumpCFRunLoopBase7RunWorkEv
__ZN4base24MessagePumpCFRunLoopBase27ShouldCreateAutoreleasePoolEv
__ZN4base5apple23ScopedNSAutoreleasePoolC1Ev
__ZN4base5apple23ScopedNSAutoreleasePool8PushImplEv
__ZN4base24MessagePumpCFRunLoopBase16PopWorkItemScopeEv
__ZN4base14circular_dequeINSt4__Cr8optionalINS_11MessagePump8Delegate16ScopedDoWorkItemEEEE8pop_backEv
__ZN4base8internal12VectorBufferINSt4__Cr8optionalINS_11MessagePump8Delegate16ScopedDoWorkItemEEEE13DestructRangeEPS7_S9_
__ZN4base5apple23ScopedNSAutoreleasePoolD1Ev
__ZN4base5apple23ScopedNSAutoreleasePool7PopImplEv
____ZN4base24MessagePumpCFRunLoopBase17EnterExitObserverEP19__CFRunLoopObservermPv_block_invoke
__ZN4base24MessagePumpCFRunLoopBase15PreWaitObserverEP19__CFRunLoopObservermPv
____ZN4base24MessagePumpCFRunLoopBase15PreWaitObserverEP19__CFRunLoopObservermPv_block_invoke
__ZN4base24MessagePumpCFRunLoopBase11RunIdleWorkEv
__ZN4base24MessagePumpCFRunLoopBase10BeforeWaitEv
__Z32IsFirstSessionAfterDeviceRestorev
__ZN18experimental_flags25SimulatePostDeviceRestoreEv
____Z32IsFirstSessionAfterDeviceRestorev_block_invoke
__Z40IsFirstSessionAfterDeviceRestoreInternalv
__Z15PathForSentinelPKc
___copy_helper_block_e8_32c21_ZTSKN4base8FilePathE56c21_ZTSKN4base8FilePathE
__Z38AppendSwitchesFromExperimentalSettingsPN4base11CommandLineE
____Z40IsFirstSessionAfterDeviceRestoreInternalv_block_invoke
___destroy_helper_block_e8_32c21_ZTSKN4base8FilePathE56c21_ZTSKN4base8FilePathE
__ZN3ios8provider38AppendSwitchesFromExperimentalSettingsEP14NSUserDefaultsPN4base11CommandLineE
__ZN22ApplicationContextImpl13GetLocalStateEv
__ZN22ApplicationContextImpl16CreateLocalStateEv
__Z23RegisterLocalStatePrefsP18PrefRegistrySimple
__ZN29IOSChromeMetricsServiceClient13RegisterPrefsEP18PrefRegistrySimple
__ZN17set_up_list_prefs13RegisterPrefsEP18PrefRegistrySimple
__ZN20tab_resumption_prefs23RegisterLocalStatePrefsEP18PrefRegistrySimple
__ZN18safety_check_prefs13RegisterPrefsEP18PrefRegistrySimple
__Z27RegisterParcelTrackingPrefsP18PrefRegistrySimple
__ZNK4base6subtle14RefCountedBase7ReleaseEv
__ZN23PushNotificationService23RegisterLocalStatePrefsEP18PrefRegistrySimple
__ZN22TipsNotificationClient23RegisterLocalStatePrefsEP18PrefRegistrySimple
+[MemoryDebuggerManager registerLocalState:]
+[IncognitoReauthSceneAgent registerLocalState:]
+[VariationsAppStateAgent registerLocalState:]
__ZN22ApplicationContextImpl25GetBrowserPolicyConnectorEv
__ZN10tests_hook35GetOverriddenPlatformPolicyProviderEv
__ZN4base8internal9BindStateILb0ELb1ELb0EPFNSt4__Cr10unique_ptrIN6policy30ConfigurationPolicyHandlerListENS2_14default_deleteIS5_EEEEbRKNS4_6SchemaEEJbEE6CreateISD_JRbEEEPSE_PFvvEOT_DpOT0_
__ZN25BrowserPolicyConnectorIOSC1ERKN4base17RepeatingCallbackIFNSt4__Cr10unique_ptrIN6policy30ConfigurationPolicyHandlerListENS2_14default_deleteIS5_EEEERKNS4_6SchemaEEEE
__ZN25BrowserPolicyConnectorIOSC2ERKN4base17RepeatingCallbackIFNSt4__Cr10unique_ptrIN6policy30ConfigurationPolicyHandlerListENS2_14default_deleteIS5_EEEERKNS4_6SchemaEEEE
__ZNK4base6subtle24RefCountedThreadSafeBase15AddRefWithCheckEv
__ZN4base8internal7InvokerINS0_13FunctorTraitsIRKPFNSt4__Cr10unique_ptrIN6policy30ConfigurationPolicyHandlerListENS3_14default_deleteIS6_EEEEbRKNS5_6SchemaEEJRKbEEENS0_9BindStateILb0ELb1ELb0ESE_JbEEEFS9_SC_EE3RunEPNS0_13BindStateBaseESC_
__Z22BuildPolicyHandlerListbRKN6policy6SchemaE
__ZN4base8internal9BindStateILb0ELb1ELb0EPFvPN6policy23PolicyHandlerParametersEEJEE6CreateIS6_JEEEPS7_PFvvEOT_DpOT0_
__ZN4base8internal9BindStateILb0ELb1ELb0EPFPKN6policy13PolicyDetailsERKNSt4__Cr12basic_stringIcNS6_11char_traitsIcEENS6_9allocatorIcEEEEEJEE6CreateISG_JEEEPSH_PFvvEOT_DpOT0_
__ZN6policy41ChromeBrowserCloudManagementControllerIOSC1Ev
__ZN6policy41ChromeBrowserCloudManagementControllerIOS24CreateClientDataDelegateEv
__ZN6policy41ChromeBrowserCloudManagementControllerIOS25SetDMTokenStorageDelegateEv
__ZN6policy24BrowserDMTokenStorageIOSC1Ev
__ZN4base8internal9BindStateILb0ELb1ELb0EPFNSt4__Cr10unique_ptrIN6policy30ConfigurationPolicyHandlerListENS2_14default_deleteIS5_EEEEbRKNS4_6SchemaEEJbEE7DestroyEPKNS0_13BindStateBaseE
__ZN25BrowserPolicyConnectorIOS21CreatePolicyProvidersEv
__ZN25BrowserPolicyConnectorIOS22CreatePlatformProviderEv
__ZN6policy15PolicyLoaderIOSC1EPNS_14SchemaRegistryE13scoped_refptrIN4base19SequencedTaskRunnerEE
__ZN6policy15PolicyLoaderIOSC2EPNS_14SchemaRegistryE13scoped_refptrIN4base19SequencedTaskRunnerEE
__ZN6policy15PolicyLoaderIOS4LoadEv
__ZN6policy15PolicyLoaderIOS30LoadNSDictionaryToPolicyBundleEP12NSDictionaryPNS_12PolicyBundleE
__ZN4base5apple6CFCastIPK8__CFNullEET_RKPKv
__ZN4base5apple6CFCastIPK11__CFBooleanEET_RKPKv
__ZN4base5apple6CFCastIPK10__CFNumberEET_RKPKv
__ZN4base5apple6CFCastIPK10__CFStringEET_RKPKv
__ZN4base5apple6CFCastIPK14__CFDictionaryEET_RKPKv
__ZN4base5apple6CFCastIPK9__CFArrayEET_RKPKv
__ZNSt4__Cr6vectorINS_10unique_ptrIN6policy27ConfigurationPolicyProviderENS_14default_deleteIS3_EEEENS_9allocatorIS6_EEE6insertENS_11__wrap_iterIPKS6_EEOS6_
__ZNSt4__Cr14__split_bufferINS_10unique_ptrIN6policy27ConfigurationPolicyProviderENS_14default_deleteIS3_EEEERNS_9allocatorIS6_EEE9push_backEOS6_
__ZN4base11FeatureList11GetInstanceEv
__ZNSt4__Cr6vectorINS_10unique_ptrIN6policy27ConfigurationPolicyProviderENS_14default_deleteIS3_EEEENS_9allocatorIS6_EEE21__push_back_slow_pathIS6_EEPS6_OT_
__Z16CreateLocalStateRKN4base8FilePathEPNS_19SequencedTaskRunnerERK13scoped_refptrI12PrefRegistryEPN6policy13PolicyServiceEPNSA_22BrowserPolicyConnectorE
__ZN12_GLOBAL__N_114PrepareFactoryEPN16sync_preferences26PrefServiceSyncableFactoryERKN4base8FilePathEPNS3_19SequencedTaskRunnerEPN6policy13PolicyServiceEPNS9_22BrowserPolicyConnectorERK13scoped_refptrI9PrefStoreE
__ZNSt4__Cr6__treeINS_12basic_stringIcNS_11char_traitsIcEENS_9allocatorIcEEEENS_4lessIS6_EENS4_IS6_EEE7destroyEPNS_11__tree_nodeIS6_PvEE
__ZN4base8internal7InvokerINS0_13FunctorTraitsIRKPFvPN6policy23PolicyHandlerParametersEEJEEENS0_9BindStateILb0ELb1ELb0ES7_JEEES6_E3RunEPNS0_13BindStateBaseES5_
__ZN12_GLOBAL__N_131PopulatePolicyHandlerParametersEPN6policy23PolicyHandlerParametersE
__ZN4base6subtle23TimeNowIgnoringOverrideEv
__ZN4base14MakeRefCountedI13JsonPrefStoreJRKNS_8FilePathENSt4__Cr10unique_ptrI10PrefFilterNS5_14default_deleteIS7_EEEERPNS_19SequencedTaskRunnerEEEE13scoped_refptrIT_EDpOT0_
__Z30MigrateObsoleteLocalStatePrefsP11PrefService
__ZN12_GLOBAL__N_141MigrateNSStringPreferenceFromUserDefaultsENSt4__Cr17basic_string_viewIcNS0_11char_traitsIcEEEEP11PrefServiceP14NSUserDefaults
__ZN12_GLOBAL__N_139MigrateNSDatePreferenceFromUserDefaultsENSt4__Cr17basic_string_viewIcNS0_11char_traitsIcEEEEP11PrefServiceP14NSUserDefaults
__Z26MigrateObsoleteUserDefaultv
__Z22ConvertFlagsToSwitchesPN8flags_ui12FlagsStorageEPN4base11CommandLineE
__ZN18IOSChromeMainParts16SetUpFieldTrialsERKNSt4__Cr12basic_stringIcNS0_11char_traitsIcEENS0_9allocatorIcEEEE
__ZN22ApplicationContextImpl25GetMetricsServicesManagerEv
__ZN37IOSChromeMetricsServicesManagerClientC1EP11PrefService
__ZN37IOSChromeMetricsServicesManagerClientC2EP11PrefService
__ZN37IOSChromeMetricsServicesManagerClient22GetMetricsStateManagerEv
__ZNK37IOSChromeMetricsServicesManagerClient29IOSChromeEnabledStateProvider14IsConsentGivenEv
__ZN31IOSChromeMetricsServiceAccessor33IsMetricsAndCrashReportingEnabledEv
__ZN7metrics15CleanExitBeacon21HasUserDefaultsBeaconEv
__ZN7metrics15CleanExitBeacon21GetUserDefaultsBeaconEv
__ZN7metrics15CleanExitBeacon27ShouldUseUserDefaultsBeaconEv
__ZN4base11FeatureListC1Ev
__Z37RegisterAllFeatureVariationParametersPN8flags_ui12FlagsStorageEPN4base11FeatureListE
__ZN22ApplicationContextImpl20GetVariationsServiceEv
__ZN37IOSChromeMetricsServicesManagerClient23CreateVariationsServiceEPN10variations22SyntheticTrialRegistryE
__ZN32IOSChromeVariationsServiceClientC1Ev
__ZN4base8internal17UnretainedWrapperI18ApplicationContextNS_17unretained_traits12MayNotDangleELN15partition_alloc8internal12RawPtrTraitsE0EEC2EPS2_QeqT1_LS7_0E
__ZN4base8internal9BindStateILb1ELb1ELb0EM18ApplicationContextFPN7network24NetworkConnectionTrackerEvEJNS0_17UnretainedWrapperIS2_NS_17unretained_traits12MayNotDangleELN15partition_alloc8internal12RawPtrTraitsE0EEEEEC2IS7_JSE_EQntsr18CancellationTraitsE14is_cancellableEEPFvvEOT_DpOT0_
__ZN32IOSChromeVariationsServiceClient37TakeSeedFromNativeVariationsSeedStoreEv
+[IOSChromeVariationsSeedStore popSeed]
__ZN12_GLOBAL__N_128SeedApplicationStageAccessorEbb
__ZN7metrics15CleanExitBeacon21SetUserDefaultsBeaconEb
__ZN4base11FeatureList19InitFromCommandLineERKNSt4__Cr12basic_stringIcNS1_11char_traitsIcEENS1_9allocatorIcEEEES9_
__ZN4base11FeatureList32RegisterOverridesFromCommandLineERKNSt4__Cr12basic_stringIcNS1_11char_traitsIcEENS1_9allocatorIcEEEENS0_13OverrideStateE
__ZN4base11FeatureList29RegisterExtraFeatureOverridesERKNSt4__Cr6vectorINS1_4pairIKNS1_17reference_wrapperIKNS_7FeatureB15logically_constEEENS0_13OverrideStateEEENS1_9allocatorISA_EEEE
__ZNK4base11FeatureList19IsFeatureOverriddenERKNSt4__Cr12basic_stringIcNS1_11char_traitsIcEENS1_9allocatorIcEEEE
__ZN4base11FeatureList26RegisterFieldTrialOverrideERKNSt4__Cr12basic_stringIcNS1_11char_traitsIcEENS1_9allocatorIcEEEENS0_13OverrideStateEPNS_10FieldTrialE
__ZNK4base8internal9flat_treeINSt4__Cr12basic_stringIcNS2_11char_traitsIcEENS2_9allocatorIcEEEENS0_8GetFirstENS2_4lessIvEENS2_6vectorINS2_4pairIS8_NS_11FeatureList13OverrideEntryEEENS6_ISG_EEEEE11equal_rangeINS2_17basic_string_viewIcS5_EEEENSD_INS2_11__wrap_iterIPKSG_EESQ_EERKT_
__ZNSt4__Cr13__lower_boundINS_17_ClassicAlgPolicyENS_11__wrap_iterIPKNS_4pairINS_12basic_stringIcNS_11char_traitsIcEENS_9allocatorIcEEEEN4base11FeatureList13OverrideEntryEEEEESG_NS_17basic_string_viewIcS6_EENS_10__identityENSA_8internal24BinaryPredicateProjectorINSK_9flat_treeIS9_NSK_8GetFirstENS_4lessIvEENS_6vectorISD_NS7_ISD_EEEEE15KeyValueCompareENS_8identityESV_Lb0EEEEET0_SX_T1_RKT2_RT4_RT3_
__ZN4base11FeatureList16RegisterOverrideENSt4__Cr17basic_string_viewIcNS1_11char_traitsIcEEEENS0_13OverrideStateEPNS_10FieldTrialE
__ZN4base11FeatureList13OverrideEntryC2ENS0_13OverrideStateEPNS_10FieldTrialE
__ZN4base8internal9flat_treeINSt4__Cr12basic_stringIcNS2_11char_traitsIcEENS2_9allocatorIcEEEENS0_8GetFirstENS2_4lessIvEENS2_6vectorINS2_4pairIS8_NS_11FeatureList13OverrideEntryEEENS6_ISG_EEEEE7emplaceIJS8_SF_EEENSD_INS2_11__wrap_iterIPSG_EEbEEDpOT_
__ZN4base8internal9flat_treeINSt4__Cr12basic_stringIcNS2_11char_traitsIcEENS2_9allocatorIcEEEENS0_8GetFirstENS2_4lessIvEENS2_6vectorINS2_4pairIS8_NS_11FeatureList13OverrideEntryEEENS6_ISG_EEEEE16emplace_key_argsIS8_JSG_EEENSD_INS2_11__wrap_iterIPSG_EEbEERKT_DpOT0_
__ZNSt4__Cr6vectorINS_4pairINS_12basic_stringIcNS_11char_traitsIcEENS_9allocatorIcEEEEN4base11FeatureList13OverrideEntryEEENS5_ISB_EEE7emplaceIJSB_EEENS_11__wrap_iterIPSB_EENSF_IPKSB_EEDpOT_
__ZNSt4__Cr14__split_bufferINS_4pairINS_12basic_stringIcNS_11char_traitsIcEENS_9allocatorIcEEEEN4base11FeatureList13OverrideEntryEEERNS5_ISB_EEE12emplace_backIJSB_EEEvDpOT_
__ZNSt4__Cr6vectorINS_4pairINS_12basic_stringIcNS_11char_traitsIcEENS_9allocatorIcEEEEN4base11FeatureList13OverrideEntryEEENS5_ISB_EEE26__swap_out_circular_bufferERNS_14__split_bufferISB_RSC_EEPSB_
__ZNSt4__Cr6__treeINS_12__value_typeINS_12basic_stringIcNS_11char_traitsIcEENS_9allocatorIcEEEES7_EENS_19__map_value_compareIS7_S8_NS_4lessIS7_EELb1EEENS5_IS8_EEE7destroyEPNS_11__tree_nodeIS8_PvEE
__ZNSt4__Cr12__destroy_atINS_4pairINS_12basic_stringIcNS_11char_traitsIcEENS_9allocatorIcEEEEN4base11FeatureList13OverrideEntryEEETnNS_9enable_ifIXntsr8is_arrayIT_EE5valueEiE4typeELi0EEEvPSD_
__ZNSt4__Cr4pairINS_12basic_stringIcNS_11char_traitsIcEENS_9allocatorIcEEEEN4base11FeatureList13OverrideEntryEEaSEOSA_
__ZN32IOSChromeVariationsServiceClient10GetChannelEv
__ZN20IOSChromeFieldTrials26SetUpClientSideFieldTrialsEbRKN10variations16EntropyProvidersEPN4base11FeatureListE
__ZN10tests_hook28DisableClientSideFieldTrialsEv
__ZN10variations19PlatformFieldTrials24RegisterFeatureOverridesEPN4base11FeatureListE
__ZN4base11FeatureList11SetInstanceENSt4__Cr10unique_ptrIS0_NS1_14default_deleteIS0_EEEE
__ZN4base11FeatureList22FinalizeInitializationEv
__ZN4base12_GLOBAL__N_125EarlyFeatureAccessTracker14AssertNoAccessEv
__ZNK4base11FeatureList18AllowFeatureAccessERKNS_7FeatureB15logically_constE
__ZNK4base11FeatureList16GetOverrideStateERKNS_7FeatureB15logically_constE
__ZNK4base11FeatureList20CheckFeatureIdentityERKNS_7FeatureB15logically_constE
__ZNSt4__Cr6__treeINS_12__value_typeINS_12basic_stringIcNS_11char_traitsIcEENS_9allocatorIcEEEEPKN4base7FeatureB15logically_constEEENS_19__map_value_compareIS7_SC_NS_4lessIS7_EELb1EEENS5_ISC_EEE25__emplace_unique_key_argsIS7_JRKNS_21piecewise_construct_tENS_5tupleIJOS7_EEENSN_IJEEEEEENS_4pairINS_15__tree_iteratorISC_PNS_11__tree_nodeISC_PvEElEEbEERKT_DpOT0_
__ZNK4base11FeatureList29GetOverrideStateByFeatureNameENSt4__Cr17basic_string_viewIcNS1_11char_traitsIcEEEE
__ZN20IOSChromeFieldTrials25OnVariationsSetupCompleteEv
__ZN4base11FeatureList13GetFieldTrialERKNS_7FeatureB15logically_constE
__ZNK4base11FeatureList23GetAssociatedFieldTrialERKNS_7FeatureB15logically_constE
__ZNK4base11FeatureList29GetOverrideEntryByFeatureNameENSt4__Cr17basic_string_viewIcNS1_11char_traitsIcEEEE
__ZN4base8internal9BindStateILb0ELb1ELb0EPFvNS_9TimeTicksEN7metrics14SampledProfileEEJEE6CreateIS6_JEEEPS7_PFvvEOT_DpOT0_
__ZN7metrics15CleanExitBeacon25SyncUseUserDefaultsBeaconEv
__ZN14allocator_shim25AreMallocZonesInterceptedEv
__ZN8crashpad16StringAnnotationILj32EE3SetENSt4__Cr17basic_string_viewIcNS2_11char_traitsIcEEEE
__ZN22ApplicationContextImpl16PreCreateThreadsEv
__ZN22ApplicationContextImpl9GetNetLogEv
__ZN17IOSChromeIOThreadC1EP11PrefServicePN3net6NetLogE
__ZN17IOSChromeIOThreadC2EP11PrefServicePN3net6NetLogE
__ZN9io_thread11IOSIOThreadC2EP11PrefServicePN3net6NetLogE
__ZN4quic17ParsedQuicVersionC2ENS_17HandshakeProtocolENS_20QuicTransportVersionE
__ZN4quic24ParsedQuicVersionIsValidENS_17HandshakeProtocolENS_20QuicTransportVersionE
__ZN4base24PowerMonitorDeviceSource12PlatformInitEv
__ZNSt4__Cr6vectorIU8__strongP11objc_objectNS_9allocatorIS3_EEE21__push_back_slow_pathIRU8__strongKS2_EEPS3_OT_
__ZN4base24PowerMonitorDeviceSource16IsOnBatteryPowerEv
__ZN3web11WebMainLoop13CreateThreadsEv
__ZN16ios_global_state15StartThreadPoolEv
____ZN16ios_global_state15StartThreadPoolEv_block_invoke
__ZN4base7SysInfo31NumberOfEfficientProcessorsImplEv
__ZN4base8internal17GetSysctlIntValueEPKc
__ZN18IOSChromeMainParts17PostCreateThreadsEv
__ZN22ApplicationContextImpl17PostCreateThreadsEv
__ZN4base8internal17UnretainedWrapperI17IOSChromeIOThreadNS_17unretained_traits12MayNotDangleELN15partition_alloc8internal12RawPtrTraitsE0EEC2EPS2_QeqT1_LS7_0E
__ZN4base8internal9BindStateILb1ELb1ELb0EMN9io_thread11IOSIOThreadEFvvEJNS0_17UnretainedWrapperI17IOSChromeIOThreadNS_17unretained_traits12MayNotDangleELN15partition_alloc8internal12RawPtrTraitsE0EEEEEC2IS5_JSD_EQntsr18CancellationTraitsE14is_cancellableEEPFvvEOT_DpOT0_
__ZN3web24CookieNotificationBridgeC1Ev
__ZNKR4base17RepeatingCallbackIFvvEE3RunEv
__ZN4base8internal7InvokerINS0_13FunctorTraitsIOMN9io_thread11IOSIOThreadEFvvEJP17IOSChromeIOThreadEEENS0_9BindStateILb1ELb1ELb0ES6_JNS0_17UnretainedWrapperIS8_NS_17unretained_traits12MayNotDangleELN15partition_alloc8internal12RawPtrTraitsE0EEEEEEFvvEE7RunOnceEPNS0_13BindStateBaseE
__ZN9io_thread11IOSIOThread8InitOnIOEv
__ZN9io_thread11IOSIOThread4InitEv
__ZN9io_thread11IOSIOThread7Globals31SystemRequestContextLeakCheckerC2EPS1_
__ZN9io_thread11IOSIOThread28CreateDefaultAuthPreferencesEv
__ZN18IOSChromeMainParts21PreMainMessageLoopRunEv
__ZN22ApplicationContextImpl21PreMainMessageLoopRunEv
__ZN22ApplicationContextImpl25GetSharedURLLoaderFactoryEv
__ZN17IOSChromeIOThread25GetSharedURLLoaderFactoryEv
__ZN9io_thread11IOSIOThread29ConstructSystemRequestContextEv
__ZN17IOSChromeIOThread27CreateSystemNetworkDelegateEv
__ZN3net24URLRequestContextBuilder11set_net_logEPNS_6NetLogE
__ZN9io_thread24CreateGlobalHostResolverEPN3net6NetLogE
__ZN17IOSChromeIOThread23GetSystemNetworkContextEv
__ZNK3net26NetworkChangeNotifierApple24GetCurrentConnectionTypeEv
__ZN9io_thread11IOSIOThread33system_url_request_context_getterEv
__ZN9io_thread29SystemURLRequestContextGetterC2EPNS_11IOSIOThreadE
__ZN4mojo11MessagePipeC2Ev
__ZN4mojo17CreateMessagePipeEPK28MojoCreateMessagePipeOptionsPNS_16ScopedHandleBaseINS_17MessagePipeHandleEEES6_
__ZN9io_thread11IOSIOThread28CreateHttpAuthHandlerFactoryEv
__ZN4mojo8internal17InterfacePtrStateIN7network5mojom14NetworkContextEE25ConfigureProxyIfNecessaryEv
__ZNSt4__Cr6vectorIN4quic17ParsedQuicVersionENS_9allocatorIS2_EEE18__assign_with_sizeIPS2_S7_EEvT_T0_l
__ZN4quic17ParsedQuicVersionaSERKS0_
__ZNSt4__Cr6__treeIN3net12HostPortPairENS_4lessIS2_EENS_9allocatorIS2_EEE14__assign_multiINS_21__tree_const_iteratorIS2_PNS_11__tree_nodeIS2_PvEElEEEEvT_SF_
__ZNK15ChromeWebClient12GetUserAgentEN3web13UserAgentTypeE
__ZN3web20BuildMobileUserAgentERKNSt4__Cr12basic_stringIcNS0_11char_traitsIcEENS0_9allocatorIcEEEE
__ZN3web14BuildOSCpuInfoEv
__ZNK4mojo6RemoteIN7network5mojom14NetworkContextEE3getEv
__ZN4mojo6RemoteIN7network5mojom16URLLoaderFactoryEE26BindNewPipeAndPassReceiverEv
__ZN4mojo6RemoteIN7network5mojom16URLLoaderFactoryEE26BindNewPipeAndPassReceiverE13scoped_refptrIN4base19SequencedTaskRunnerEE
__ZN4mojo6RemoteIN7network5mojom16URLLoaderFactoryEE4BindENS_13PendingRemoteIS3_EE13scoped_refptrIN4base19SequencedTaskRunnerEE
__ZN4mojo8internal17InterfacePtrStateIN7network5mojom16URLLoaderFactoryEE4BindEPNS0_18PendingRemoteStateE13scoped_refptrIN4base19SequencedTaskRunnerEE
__ZN4mojo8internal17InterfacePtrStateIN7network5mojom16URLLoaderFactoryEE25ConfigureProxyIfNecessaryEv
__ZN3net24URLRequestContextBuilder31set_http_network_session_paramsERKNS_24HttpNetworkSessionParamsE
__ZNSt4__Cr6__treeINS_12__value_typeItjEENS_19__map_value_compareItS2_NS_4lessItEELb1EEENS_9allocatorIS2_EEE14__assign_multiINS_21__tree_const_iteratorIS2_PNS_11__tree_nodeIS2_PvEElEEEEvT_SH_
__ZNSt4__Cr23__optional_storage_baseIN3net15SpdySessionPool17GreasedHttp2FrameELb0EE13__assign_fromIRKNS_27__optional_copy_assign_baseIS3_Lb0EEEEEvOT_
__ZNK4mojo6RemoteIN7network5mojom16URLLoaderFactoryEE3getEv
__ZN25BrowserPolicyConnectorIOS4InitEP11PrefService13scoped_refptrIN7network22SharedURLLoaderFactoryEE
__ZN6policy39DeviceManagementServiceConfigurationIOSC1ERKNSt4__Cr12basic_stringIcNS1_11char_traitsIcEENS1_9allocatorIcEEEES9_S9_
__ZN6policy39DeviceManagementServiceConfigurationIOSC2ERKNSt4__Cr12basic_stringIcNS1_11char_traitsIcEENS1_9allocatorIcEEEES9_S9_
__ZN25BrowserPolicyConnectorIOS27MaybeApplyLocalTestPoliciesEP11PrefService
__Z31CreateClipboardRecentContentIOSv
__ZN9app_group20GetGroupUserDefaultsEv
+[AppGroupHelper groupUserDefaults]
__ZN25ClipboardRecentContentIOSC1ERKNSt4__Cr12basic_stringIcNS0_11char_traitsIcEENS0_9allocatorIcEEEEP14NSUserDefaultsb
__ZN12_GLOBAL__N_123getAuthorizedSchemeListERKNSt4__Cr12basic_stringIcNS0_11char_traitsIcEENS0_9allocatorIcEEEE
-[ClipboardRecentContentImplIOS initWithMaxAge:authorizedSchemes:userDefaults:onlyUseClipboardAsync:delegate:]
-[ClipboardRecentContentImplIOS loadFromUserDefaults]
-[ClipboardRecentContentImplIOS sharedUserDefaults]
__ZNSt4__Cr11__introsortINS_17_ClassicAlgPolicyERNS_6__lessIvvEEPNS_12basic_stringIcNS_11char_traitsIcEENS_9allocatorIcEEEELb0EEEvT1_SC_T0_NS_15iterator_traitsISC_E15difference_typeEb
__ZNSt4__Cr7__sort3INS_17_ClassicAlgPolicyERNS_6__lessIvvEEPNS_12basic_stringIcNS_11char_traitsIcEENS_9allocatorIcEEEEEEjT1_SC_SC_T0_
__ZNSt4__Cr32__partition_with_equals_on_rightINS_17_ClassicAlgPolicyEPNS_12basic_stringIcNS_11char_traitsIcEENS_9allocatorIcEEEERNS_6__lessIvvEEEENS_4pairIT0_bEESD_SD_T1_
__ZNSt4__Cr16__insertion_sortINS_17_ClassicAlgPolicyERNS_6__lessIvvEEPNS_12basic_stringIcNS_11char_traitsIcEENS_9allocatorIcEEEEEEvT1_SC_T0_
__ZNSt4__Cr26__insertion_sort_unguardedINS_17_ClassicAlgPolicyERNS_6__lessIvvEEPNS_12basic_stringIcNS_11char_traitsIcEENS_9allocatorIcEEEEEEvT1_SC_T0_
__ZNSt4__Cr6__treeINS_12__value_typeINS_12basic_stringIcNS_11char_traitsIcEENS_9allocatorIcEEEENS_10unique_ptrIN3net20URLRequestJobFactory15ProtocolHandlerENS_14default_deleteISB_EEEEEENS_19__map_value_compareIS7_SF_NS_4lessIS7_EELb1EEENS5_ISF_EEE7destroyEPNS_11__tree_nodeISF_PvEE
__ZN4base8internal9BindStateILb1ELb1ELb0EMN9io_thread11IOSIOThreadEFvvEJNS0_17UnretainedWrapperI17IOSChromeIOThreadNS_17unretained_traits12MayNotDangleELN15partition_alloc8internal12RawPtrTraitsE0EEEEE7DestroyEPKNS0_13BindStateBaseE
__ZN4base8internal9BindStateILb1ELb1ELb0EMN9io_thread11IOSIOThreadEFvvEJNS0_17UnretainedWrapperI17IOSChromeIOThreadNS_17unretained_traits12MayNotDangleELN15partition_alloc8internal12RawPtrTraitsE0EEEEED2Ev
__ZN9io_thread29SystemURLRequestContextGetter20GetURLRequestContextEv
__ZN9io_thread11IOSIOThread7globalsEv
-[ClipboardRecentContentImplIOS setLastPasteboardChangeCount:]
-[ClipboardRecentContentImplIOS setLastPasteboardChangeDate:]
-[ClipboardRecentContentImplIOS updateCachedClipboardState]
-[ClipboardRecentContentImplIOS setCachedContentTypes:]
-[ClipboardRecentContentImplIOS hasContentMatchingTypes:completionHandler:]
-[ClipboardRecentContentImplIOS onlyUseClipboardAsync]
___copy_helper_block_e8_32s40b48w
__ZN4base8internal9BindStateILb0ELb1ELb0EU8__strongU13block_pointerFvP12UIPasteboardEJEE6CreateIS6_JEEEPS7_PFvvEOT_DpOT0_
__Z20GetGeneralPasteboardbN4base12OnceCallbackIFvP12UIPasteboardEEE
__ZN4base8internal9BindStateILb0ELb1ELb0EU8__strongU13block_pointerFP12UIPasteboardvEJEE6CreateIS6_JEEEPS7_PFvvEOT_DpOT0_
__ZN4base10ThreadPool26PostTaskAndReplyWithResultINS_12OnceCallbackEU8__strongP12UIPasteboardS5_Q14IsBaseCallbackIT_IFvvEEEEEbRKNS_8LocationERKNS_10TaskTraitsES6_IFT0_vEES6_IFvT1_EE
__ZN4base8internal9BindStateILb0ELb1ELb0EPFvNS_12OnceCallbackIFP12UIPasteboardvEEEPNSt4__Cr10unique_ptrIU8__strongS4_NS7_14default_deleteIS9_EEEEEJS6_NS0_17UnretainedWrapperISC_NS_17unretained_traits12MayNotDangleELN15partition_alloc8internal12RawPtrTraitsE0EEEEEC2ISF_JS6_RSD_EQntsr18CancellationTraitsE14is_cancellableEEPFvvEOT_DpOT0_
__ZN4base8internal17UnretainedWrapperINSt4__Cr10unique_ptrIU8__strongP12UIPasteboardNS2_14default_deleteIS6_EEEENS_17unretained_traits12MayNotDangleELN15partition_alloc8internal12RawPtrTraitsE0EEC2EPS9_QeqT1_LSE_0E
__ZN4base8internal9BindStateILb0ELb1ELb0EPFvNS_12OnceCallbackIFvP12UIPasteboardEEEPNSt4__Cr10unique_ptrIU8__strongS4_NS7_14default_deleteIS9_EEEEEJS6_NS0_12OwnedWrapperISC_NSA_ISC_EEEEEEC2ISF_JS6_SI_EQntsr18CancellationTraitsE14is_cancellableEEPFvvEOT_DpOT0_
__ZN4base8internal7InvokerINS0_13FunctorTraitsIOPFvNS_12OnceCallbackIFP12UIPasteboardvEEEPNSt4__Cr10unique_ptrIU8__strongS5_NS8_14default_deleteISA_EEEEEJOS7_OSE_EEENS0_9BindStateILb0ELb1ELb0ESG_JS7_NS0_17UnretainedWrapperISD_NS_17unretained_traits12MayNotDangleELN15partition_alloc8internal12RawPtrTraitsE0EEEEEEFvvEE7RunOnceEPNS0_13BindStateBaseE
__ZN4base8internal20ReturnAsParamAdapterIU8__strongP12UIPasteboardEEvNS_12OnceCallbackIFT_vEEEPNSt4__Cr10unique_ptrIS6_NS9_14default_deleteIS6_EEEE
__ZNO4base12OnceCallbackIFP12UIPasteboardvEE3RunEv
__ZN4base8internal7InvokerINS0_13FunctorTraitsIOU8__strongU13block_pointerFP12UIPasteboardvEJEEENS0_9BindStateILb0ELb1ELb0ES7_JEEES5_E7RunOnceEPNS0_13BindStateBaseE
____Z20GetGeneralPasteboardbN4base12OnceCallbackIFvP12UIPasteboardEEE_block_invoke
__ZN31OptimizationGuideServiceFactory30InitializePredictionModelStoreEv
__ZN18optimization_guide29IOSChromePredictionModelStore11GetInstanceEv
__ZNK9io_thread29SystemURLRequestContextGetter20GetNetworkTaskRunnerEv
__ZN4base8internal7InvokerINS0_13FunctorTraitsIRKPFvRKNS_17RepeatingCallbackIFvjEEEjRKN4mojo18HandleSignalsStateEEJS7_EEENS0_9BindStateILb0ELb1ELb0ESD_JS5_EEEFvjSB_EE3RunEPNS0_13BindStateBaseEjSB_
__ZN4mojo13SimpleWatcher17DiscardReadyStateERKN4base17RepeatingCallbackIFvjEEEjRKNS_18HandleSignalsStateE
__ZNKR4base17RepeatingCallbackIFvjEE3RunEj
__ZNK18optimization_guide29IOSChromePredictionModelStore13GetLocalStateEv
__ZNSt4__Cr6__treeIN4base8FilePathENS_4lessIS2_EENS_9allocatorIS2_EEE7destroyEPNS_11__tree_nodeIS2_PvEE
__ZN21segmentation_platform23UkmDatabaseClientHolder17GetClientInstanceEP18ChromeBrowserState
__ZN4base12NoDestructorIN21segmentation_platform23UkmDatabaseClientHolderEEC1IJEEEDpOT_
__ZN21segmentation_platform17UkmDatabaseClientC2Ev
__ZN4mojo9StructPtrIN7network5mojom22URLLoaderFactoryParamsEED1Ev
__ZN21segmentation_platform17UkmDatabaseClient14PreProfileInitEb
__Z44EnsureBrowserStateKeyedServiceFactoriesBuiltv
__ZN8autofill26PersonalDataManagerFactory11GetInstanceEv
__ZN8autofill26PersonalDataManagerFactoryC2Ev
__ZN22IdentityManagerFactory11GetInstanceEv
__ZN22IdentityManagerFactoryC2Ev
__ZN34ChromeAccountManagerServiceFactory11GetInstanceEv
__ZN4base12NoDestructorI34ChromeAccountManagerServiceFactoryEC1IJEEEDpOT_
__ZN3ios41LocalOrSyncableBookmarkSyncServiceFactory11GetInstanceEv
__ZN4base12NoDestructorIN3ios41LocalOrSyncableBookmarkSyncServiceFactoryEEC1IJEEEDpOT_
__ZN29ManagedBookmarkServiceFactory11GetInstanceEv
__ZN4base12NoDestructorI29ManagedBookmarkServiceFactoryEC1IJEEEDpOT_
__ZN3ios21WebDataServiceFactory11GetInstanceEv
__ZN4base12NoDestructorIN3ios21WebDataServiceFactoryEEC1IJEEEDpOT_
__ZN18SyncServiceFactory11GetInstanceEv
__ZN18SyncServiceFactoryC2Ev
__ZN21ConsentAuditorFactory11GetInstanceEv
__ZN4base12NoDestructorI21ConsentAuditorFactoryEC1IJEEEDpOT_
__ZN28DeviceInfoSyncServiceFactory11GetInstanceEv
__ZN4base9SingletonI28DeviceInfoSyncServiceFactoryNS_22DefaultSingletonTraitsIS1_EES1_E3getEv
__ZN28DeviceInfoSyncServiceFactoryC2Ev
__ZN31SyncInvalidationsServiceFactory11GetInstanceEv
__ZN31SyncInvalidationsServiceFactoryC2Ev
__ZN33IOSChromeGCMProfileServiceFactory11GetInstanceEv
__ZN4base12NoDestructorI33IOSChromeGCMProfileServiceFactoryEC1IJEEEDpOT_
__ZN31SendTabToSelfSyncServiceFactory11GetInstanceEv
__ZN31SendTabToSelfSyncServiceFactoryC2Ev
__ZN33GoogleGroupsUpdaterServiceFactory11GetInstanceEv
__ZN4base12NoDestructorI33GoogleGroupsUpdaterServiceFactoryEC1IJEEEDpOT_
__ZN3ios25TemplateURLServiceFactory11GetInstanceEv
__ZN3ios25TemplateURLServiceFactoryC2Ev
__ZN39IOSChromePasswordReceiverServiceFactory11GetInstanceEv
__ZN39IOSChromePasswordReceiverServiceFactoryC2Ev
__ZN36IOSChromeAccountPasswordStoreFactory11GetInstanceEv
__ZN4base12NoDestructorI36IOSChromeAccountPasswordStoreFactoryEC1IJEEEDpOT_
__ZN36IOSChromeProfilePasswordStoreFactory11GetInstanceEv
__ZN36IOSChromeProfilePasswordStoreFactoryC2Ev
__ZN34IOSChromeAffiliationServiceFactory11GetInstanceEv
__ZN4base12NoDestructorI34IOSChromeAffiliationServiceFactoryEC1IJEEEDpOT_
__ZN29IOSTrustedVaultServiceFactory11GetInstanceEv
__ZN29IOSTrustedVaultServiceFactoryC2Ev
__ZN32TrustedVaultClientBackendFactory11GetInstanceEv
__ZN4base12NoDestructorI32TrustedVaultClientBackendFactoryEC1IJEEEDpOT_
__ZN25SessionSyncServiceFactory11GetInstanceEv
__ZN25SessionSyncServiceFactoryC2Ev
__ZN23ReadingListModelFactory11GetInstanceEv
__ZN4base12NoDestructorI23ReadingListModelFactoryEC1IJEEEDpOT_
__ZN36SupervisedUserSettingsServiceFactory11GetInstanceEv
__ZN4base12NoDestructorI36SupervisedUserSettingsServiceFactoryEC1IJEEEDpOT_
__ZN8commerce22ShoppingServiceFactory11GetInstanceEv
__ZN8commerce22ShoppingServiceFactoryC2Ev
__ZN31OptimizationGuideServiceFactory11GetInstanceEv
__ZN31OptimizationGuideServiceFactoryC2Ev
__ZN18BrowserListFactory11GetInstanceEv
__ZN4base12NoDestructorI18BrowserListFactoryEC1IJEEEDpOT_
__ZN27PowerBookmarkServiceFactory11GetInstanceEv
__ZN4base9SingletonI27PowerBookmarkServiceFactoryNS_22DefaultSingletonTraitsIS1_EES1_E3getEv
__ZN27PowerBookmarkServiceFactoryC2Ev
__ZN21SessionProtoDBFactoryIN24commerce_subscription_db32CommerceSubscriptionContentProtoEE11GetInstanceEv
__ZN4base12NoDestructorI21SessionProtoDBFactoryIN24commerce_subscription_db32CommerceSubscriptionContentProtoEEEC1IJEEEDpOT_
__ZN21SessionProtoDBFactoryIN18parcel_tracking_db21ParcelTrackingContentEE11GetInstanceEv
__ZN4base12NoDestructorI21SessionProtoDBFactoryIN18parcel_tracking_db21ParcelTrackingContentEEEC1IJEEEDpOT_
__ZN15enterprise_idle18IdleServiceFactory11GetInstanceEv
__ZN4base12NoDestructorIN15enterprise_idle18IdleServiceFactoryEEC1IJEEEDpOT_
__ZN18feature_engagement14TrackerFactory11GetInstanceEv
__ZN4base12NoDestructorIN18feature_engagement14TrackerFactoryEEC1IJEEEDpOT_
__ZN3ios32AccountConsistencyServiceFactory11GetInstanceEv
__ZN3ios32AccountConsistencyServiceFactoryC2Ev
__ZN3ios23ShortcutsBackendFactory11GetInstanceEv
__ZN3ios23ShortcutsBackendFactoryC2Ev
__ZN9translate22TranslateRankerFactory11GetInstanceEv
__ZN4base12NoDestructorIN9translate22TranslateRankerFactoryEEC1IJEEEDpOT_
__ZN27AboutThisSiteServiceFactory11GetInstanceEv
__ZN27AboutThisSiteServiceFactoryC2Ev
__ZN4base8internal9BindStateILb0ELb1ELb0EU8__strongU13block_pointerFP12UIPasteboardvEJEE7DestroyEPKNS0_13BindStateBaseE
__ZN4base8internal9BindStateILb0ELb1ELb0EPFvNS_12OnceCallbackIFP12UIPasteboardvEEEPNSt4__Cr10unique_ptrIU8__strongS4_NS7_14default_deleteIS9_EEEEEJS6_NS0_17UnretainedWrapperISC_NS_17unretained_traits12MayNotDangleELN15partition_alloc8internal12RawPtrTraitsE0EEEEE7DestroyEPKNS0_13BindStateBaseE
__ZN4base8internal9BindStateILb0ELb1ELb0EPFvNS_12OnceCallbackIFP12UIPasteboardvEEEPNSt4__Cr10unique_ptrIU8__strongS4_NS7_14default_deleteIS9_EEEEEJS6_NS0_17UnretainedWrapperISC_NS_17unretained_traits12MayNotDangleELN15partition_alloc8internal12RawPtrTraitsE0EEEEED2Ev
__ZN28AuthenticationServiceFactory11GetInstanceEv
__ZN28AuthenticationServiceFactoryC2Ev
__ZN35BringAndroidTabsToIOSServiceFactory11GetInstanceEv
__ZN4base12NoDestructorI35BringAndroidTabsToIOSServiceFactoryEC1IJEEEDpOT_
__ZN29BrowserDownloadServiceFactory11GetInstanceEv
__ZN4base12NoDestructorI29BrowserDownloadServiceFactoryEC1IJEEEDpOT_
__ZN26BrowsingDataRemoverFactory11GetInstanceEv
__ZN4base12NoDestructorI26BrowsingDataRemoverFactoryEC1IJEEEDpOT_
__ZN26ChildAccountServiceFactory11GetInstanceEv
__ZN26ChildAccountServiceFactoryC2Ev
__ZN28SupervisedUserServiceFactory11GetInstanceEv
__ZN28SupervisedUserServiceFactoryC2Ev
__ZN31ListFamilyMembersServiceFactory11GetInstanceEv
__ZN4base12NoDestructorI31ListFamilyMembersServiceFactoryEC1IJEEEDpOT_
__ZN38ChromePasswordProtectionServiceFactory11GetInstanceEv
__ZN38ChromePasswordProtectionServiceFactoryC2Ev
__ZN35SafeBrowsingMetricsCollectorFactory11GetInstanceEv
__ZN4base12NoDestructorI35SafeBrowsingMetricsCollectorFactoryEC1IJEEEDpOT_
__ZN34ContextualPanelModelServiceFactory11GetInstanceEv
__ZN4base12NoDestructorI34ContextualPanelModelServiceFactoryEC1IJEEEDpOT_
__ZN27DeviceSharingManagerFactory11GetInstanceEv
__ZN4base12NoDestructorI27DeviceSharingManagerFactoryEC1IJEEEDpOT_
__ZN26DiscoverFeedServiceFactory11GetInstanceEv
__ZN26DiscoverFeedServiceFactoryC2Ev
__ZN30DomainDiversityReporterFactory11GetInstanceEv
__ZN4base12NoDestructorI30DomainDiversityReporterFactoryEC1IJEEEDpOT_
__ZN20FollowServiceFactory11GetInstanceEv
__ZN4base12NoDestructorI20FollowServiceFactoryEC1IJEEEDpOT_
__ZN24GoogleLogoServiceFactory11GetInstanceEv
__ZN24GoogleLogoServiceFactoryC2Ev
__ZN29IOSChromeFaviconLoaderFactory11GetInstanceEv
__ZN4base12NoDestructorI29IOSChromeFaviconLoaderFactoryEC1IJEEEDpOT_
__ZN36IOSChromePasswordCheckManagerFactory11GetInstanceEv
__ZN36IOSChromePasswordCheckManagerFactoryC2Ev
__ZN43IOSChromeProfileInvalidationProviderFactory11GetInstanceEv
__ZN43IOSChromeProfileInvalidationProviderFactoryC2Ev
__ZN34IOSChromeSafetyCheckManagerFactory11GetInstanceEv
__ZN4base12NoDestructorI34IOSChromeSafetyCheckManagerFactoryEC1IJEEEDpOT_
__ZN40IOSProfileSessionDurationsServiceFactory11GetInstanceEv
__ZN40IOSProfileSessionDurationsServiceFactoryC2Ev
__ZN27LanguageModelManagerFactory11GetInstanceEv
__ZN4base12NoDestructorI27LanguageModelManagerFactoryEC1IJEEEDpOT_
__ZN27MailtoHandlerServiceFactory11GetInstanceEv
__ZN4base12NoDestructorI27MailtoHandlerServiceFactoryEC1IJEEEDpOT_
__ZN20PhotosServiceFactory11GetInstanceEv
__ZN20PhotosServiceFactoryC2Ev
__ZN25PlusAddressServiceFactory11GetInstanceEv
__ZN25PlusAddressServiceFactoryC2Ev
__ZN6policy30UserPolicySigninServiceFactory11GetInstanceEv
__ZN4base9SingletonIN6policy30UserPolicySigninServiceFactoryENS_22DefaultSingletonTraitsIS2_EES2_E3getEv
__ZN4base22DefaultSingletonTraitsIN6policy30UserPolicySigninServiceFactoryEE3NewEv
__ZN29PolicyBlocklistServiceFactory11GetInstanceEv
__ZN4base12NoDestructorI29PolicyBlocklistServiceFactoryEC1IJEEEDpOT_
__ZN20PromosManagerFactory11GetInstanceEv
__ZN4base12NoDestructorI20PromosManagerFactoryEC1IJEEEDpOT_
__ZN42PushNotificationBrowserStateServiceFactory11GetInstanceEv
__ZN4base12NoDestructorI42PushNotificationBrowserStateServiceFactoryEC1IJEEEDpOT_
__ZN31RealTimeUrlLookupServiceFactory11GetInstanceEv
__ZN31RealTimeUrlLookupServiceFactoryC2Ev
__ZN26VerdictCacheManagerFactory11GetInstanceEv
__ZN26VerdictCacheManagerFactoryC2Ev
__ZN25SafeBrowsingClientFactory11GetInstanceEv
__ZN25SafeBrowsingClientFactoryC2Ev
__ZN26HashRealTimeServiceFactory11GetInstanceEv
__ZN26HashRealTimeServiceFactoryC2Ev
__ZN22OhttpKeyServiceFactory11GetInstanceEv
__ZN4base12NoDestructorI22OhttpKeyServiceFactoryEC1IJEEEDpOT_
__ZN23PrerenderServiceFactory11GetInstanceEv
__ZN4base12NoDestructorI23PrerenderServiceFactoryEC1IJEEEDpOT_
__ZN21segmentation_platform34SegmentationPlatformServiceFactory11GetInstanceEv
__ZN21segmentation_platform34SegmentationPlatformServiceFactoryC2Ev
__ZN32SessionRestorationServiceFactory11GetInstanceEv
__ZN4base12NoDestructorI32SessionRestorationServiceFactoryEC1IJEEEDpOT_
__ZN27WebSessionStateCacheFactory11GetInstanceEv
__ZN4base12NoDestructorI27WebSessionStateCacheFactoryEC1IJEEEDpOT_
__ZN36SigninBrowserStateInfoUpdaterFactory11GetInstanceEv
__ZN36SigninBrowserStateInfoUpdaterFactoryC2Ev
__ZN35SupervisedUserMetricsServiceFactory11GetInstanceEv
__ZN4base12NoDestructorI35SupervisedUserMetricsServiceFactoryEC1IJEEEDpOT_
__ZN24TabsSearchServiceFactory11GetInstanceEv
__ZN24TabsSearchServiceFactoryC2Ev
__ZN33TextClassifierModelServiceFactory11GetInstanceEv
__ZN4base12NoDestructorI33TextClassifierModelServiceFactoryEC1IJEEEDpOT_
__ZN37TextToSpeechPlaybackControllerFactory11GetInstanceEv
__ZN4base12NoDestructorI37TextToSpeechPlaybackControllerFactoryEC1IJEEEDpOT_
__ZN28UnifiedConsentServiceFactory11GetInstanceEv
__ZN28UnifiedConsentServiceFactoryC2Ev
__ZN28UnitConversionServiceFactory11GetInstanceEv
__ZN4base12NoDestructorI28UnitConversionServiceFactoryEC1IJEEEDpOT_
__ZN5drive19DriveServiceFactory11GetInstanceEv
__ZN5drive19DriveServiceFactoryC2Ev
__ZN22ApplicationContextImpl28GetChromeBrowserStateManagerEv
__ZN29ChromeBrowserStateManagerImplC1Ev
__ZN29ChromeBrowserStateManagerImpl17LoadBrowserStatesEv
__ZN12_GLOBAL__N_114GetUserDataDirEv
__ZN29ChromeBrowserStateManagerImpl15GetBrowserStateERKN4base8FilePathE
__ZN22ChromeBrowserStateImplC1ERKN4base8FilePathE13scoped_refptrINS0_19SequencedTaskRunnerEE
__ZN22ChromeBrowserStateImplC2ERKN4base8FilePathE13scoped_refptrINS0_19SequencedTaskRunnerEE
__ZN18ChromeBrowserStateC2ERKN4base8FilePathE13scoped_refptrINS0_19SequencedTaskRunnerEE
__ZN3web12BrowserStateC2Ev
__ZN4base8internal17UnretainedWrapperIN3web12BrowserStateENS_17unretained_traits12MayNotDangleELN15partition_alloc8internal12RawPtrTraitsE0EEC2EPS3_QeqT1_LS8_0E
__ZN4base8internal9BindStateILb1ELb1ELb0EMN3web12BrowserStateEFPN7network5mojom16URLLoaderFactoryEvEJNS0_17UnretainedWrapperIS3_NS_17unretained_traits12MayNotDangleELN15partition_alloc8internal12RawPtrTraitsE0EEEEEC2IS9_JSG_EQntsr18CancellationTraitsE14is_cancellableEEPFvvEOT_DpOT0_
__ZN28ChromeBrowserStateImplIOData6HandleC1EP18ChromeBrowserState
__ZN28ChromeBrowserStateImplIOData6HandleC2EP18ChromeBrowserState
__ZN28ChromeBrowserStateImplIODataC2Ev
__ZN24ChromeBrowserStateIODataC2E22ChromeBrowserStateType
__ZN3ios21GetUserCacheDirectoryERKN4base8FilePathEPS1_
__ZNK18ChromeBrowserState24GetOffTheRecordStatePathEv
__ZNK22ChromeBrowserStateImpl14IsOffTheRecordEv
__Z36EnsureBrowserStateDirectoriesCreatedRKN4base8FilePathES2_S2_
__ZN4base5apple18SetBackupExclusionERKNS_8FilePathE
__ZN4base5apple12_GLOBAL__N_114SetBackupStateERKNS_8FilePathEb
__ZN4base5apple15FilePathToNSURLERKNS_8FilePathE
__Z34BuildSchemaRegistryForBrowserStateP18ChromeBrowserStateRKN6policy6SchemaEPNS1_22CombinedSchemaRegistryE
__ZN18ChromeBrowserState15GetIOTaskRunnerEv
__Z32BuildBrowserStatePolicyConnectorPN6policy14SchemaRegistryEP25BrowserPolicyConnectorIOSPNS_22UserCloudPolicyManagerE
__ZN27BrowserStatePolicyConnectorC1Ev
__ZN27BrowserStatePolicyConnector4InitEPN6policy14SchemaRegistryEP25BrowserPolicyConnectorIOSPNS0_27ConfigurationPolicyProviderE
__ZN25BrowserPolicyConnectorIOS19GetPlatformProviderEv
__ZNSt4__Cr6vectorIN4base7raw_ptrIN6policy27ConfigurationPolicyProviderELN15partition_alloc8internal12RawPtrTraitsE1EEENS_9allocatorIS8_EEE21__push_back_slow_pathIS8_EEPS8_OT_
__ZNSt4__Cr11make_uniqueIN6policy17PolicyServiceImplEJRNS_6vectorIN4base7raw_ptrINS1_27ConfigurationPolicyProviderELN15partition_alloc8internal12RawPtrTraitsE1EEENS_9allocatorISA_EEEEEEENS_11__unique_ifIT_E15__unique_singleEDpOT0_
__ZNSt4__Cr12construct_atIN4base7raw_ptrIN6policy27ConfigurationPolicyProviderELN15partition_alloc8internal12RawPtrTraitsE1EEEJRS8_EPS8_EEPT_SC_DpOT0_
__Z25RegisterBrowserStatePrefsPN10user_prefs20PrefRegistrySyncableE
__ZN8FirstRun20RegisterProfilePrefsEPN10user_prefs20PrefRegistrySyncableE
__ZN17FontSizeTabHelper25RegisterBrowserStatePrefsEPN10user_prefs20PrefRegistrySyncableE
__ZN7logging11CheckEQImplINSt4__Cr12basic_stringIcNS1_11char_traitsIcEENS1_9allocatorIcEEEES7_Qoontsr3stdE16is_fundamental_vIT_Entsr3stdE16is_fundamental_vIT0_EEEPcRKS8_RKS9_PKc
__ZN9ntp_tiles20GetDeviceCountryCodeEv
__ZN23PushNotificationService25RegisterBrowserStatePrefsEPN10user_prefs20PrefRegistrySyncableE
__ZN4base7EnumSetIN6syncer9ModelTypeELS2_1ELS2_51EE3AllEv
__ZN4base7EnumSetIN6syncer9ModelTypeELS2_1ELS2_51EE9FromIndexEm
__ZN4base7EnumSetIN6syncer9ModelTypeELS2_1ELS2_51EE8Iterator8FindNextEm
__ZNK4base7EnumSetIN6syncer9ModelTypeELS2_1ELS2_51EE8Iterator4GoodEv
__ZN20tab_resumption_prefs20RegisterProfilePrefsEPN10user_prefs20PrefRegistrySyncableE
+[BookmarkMediator registerBrowserStatePrefs:]
+[BookmarkPathCache registerBrowserStatePrefs:]
+[BookmarksHomeMediator registerBrowserStatePrefs:]
+[ContentSuggestionsMediator registerBrowserStatePrefs:]
+[HandoffManager registerBrowserStatePrefs:]
+[SigninCoordinator registerBrowserStatePrefs:]
+[SigninPromoViewMediator registerBrowserStatePrefs:]
__ZN12history_sync25RegisterBrowserStatePrefsEPN10user_prefs20PrefRegistrySyncableE
__ZN33GoogleGroupsUpdaterServiceFactory25RegisterBrowserStatePrefsEPN10user_prefs20PrefRegistrySyncableE
__ZN15enterprise_idle18IdleServiceFactory25RegisterBrowserStatePrefsEPN10user_prefs20PrefRegistrySyncableE
__ZN35BringAndroidTabsToIOSServiceFactory25RegisterBrowserStatePrefsEPN10user_prefs20PrefRegistrySyncableE
__ZN32SessionRestorationServiceFactory25RegisterBrowserStatePrefsEPN10user_prefs20PrefRegistrySyncableE
__ZN22IdentityManagerFactory25RegisterBrowserStatePrefsEPN10user_prefs20PrefRegistrySyncableE
__ZN6policy30UserPolicySigninServiceFactory25RegisterBrowserStatePrefsEPN10user_prefs20PrefRegistrySyncableE
__ZN3ios25TemplateURLServiceFactory25RegisterBrowserStatePrefsEPN10user_prefs20PrefRegistrySyncableE
__ZN30DomainDiversityReporterFactory25RegisterBrowserStatePrefsEPN10user_prefs20PrefRegistrySyncableE
__ZN43IOSChromeProfileInvalidationProviderFactory25RegisterBrowserStatePrefsEPN10user_prefs20PrefRegistrySyncableE
__ZN28AuthenticationServiceFactory25RegisterBrowserStatePrefsEPN10user_prefs20PrefRegistrySyncableE
__ZN21AuthenticationService13RegisterPrefsEPN10user_prefs20PrefRegistrySyncableE
__ZN20FollowServiceFactory25RegisterBrowserStatePrefsEPN10user_prefs20PrefRegistrySyncableE
__Z23CreateBrowserStatePrefsRKN4base8FilePathEPNS_19SequencedTaskRunnerERK13scoped_refptrIN10user_prefs20PrefRegistrySyncableEEPN6policy13PolicyServiceEPNSB_22BrowserPolicyConnectorERKS5_I9PrefStoreE
__ZN4base14MakeRefCountedI13JsonPrefStoreJNS_8FilePathEDnRPNS_19SequencedTaskRunnerEEEE13scoped_refptrIT_EDpOT0_
__Z32MigrateObsoleteBrowserStatePrefsRKN4base8FilePathEP11PrefService
__ZN12_GLOBAL__N_140MigrateIntegerPreferenceFromUserDefaultsENSt4__Cr17basic_string_viewIcNS0_11char_traitsIcEEEEP11PrefServiceP14NSUserDefaults
__ZN12_GLOBAL__N_139MigrateDoublePreferenceFromUserDefaultsENSt4__Cr17basic_string_viewIcNS0_11char_traitsIcEEEEP11PrefServiceP14NSUserDefaults
__ZN12_GLOBAL__N_150MigrateStringPrefFromLocalStatePrefsToProfilePrefsENSt4__Cr17basic_string_viewIcNS0_11char_traitsIcEEEEP11PrefService
__ZNK33GoogleGroupsUpdaterServiceFactory32ServiceIsCreatedWithBrowserStateEv
__ZNK33GoogleGroupsUpdaterServiceFactory23BuildServiceInstanceForEPN3web12BrowserStateE
__ZN18ChromeBrowserState16FromBrowserStateEPN3web12BrowserStateE
__ZNK18ChromeBrowserState12GetStatePathEv
__ZN18ChromeBrowserState8GetPrefsEv
__ZN22ChromeBrowserStateImpl16GetSyncablePrefsEv
__ZNK29BrowserDownloadServiceFactory32ServiceIsCreatedWithBrowserStateEv
__ZNK29BrowserDownloadServiceFactory20GetBrowserStateToUseEPN3web12BrowserStateE
__ZNK29BrowserDownloadServiceFactory23BuildServiceInstanceForEPN3web12BrowserStateE
__ZN3web18DownloadController16FromBrowserStateEPNS_12BrowserStateE
__ZN3web22DownloadControllerImplC2Ev
__ZN22BrowserDownloadServiceC1EPN3web18DownloadControllerE
__ZN22BrowserDownloadServiceC2EPN3web18DownloadControllerE
__ZNK3web22DownloadControllerImpl11GetDelegateEv
__ZN3web22DownloadControllerImpl11SetDelegateEPNS_26DownloadControllerDelegateE
__ZNK22OhttpKeyServiceFactory32ServiceIsCreatedWithBrowserStateEv
__ZNK22OhttpKeyServiceFactory23BuildServiceInstanceForEPN3web12BrowserStateE
__ZN22ApplicationContextImpl22GetSafeBrowsingServiceEv
__ZN23SafeBrowsingServiceImplC1Ev
__ZN23SafeBrowsingServiceImplC2Ev
__ZNK27PowerBookmarkServiceFactory32ServiceIsCreatedWithBrowserStateEv
__ZNK27PowerBookmarkServiceFactory20GetBrowserStateToUseEPN3web12BrowserStateE
__ZN22ChromeBrowserStateImpl29GetOriginalChromeBrowserStateEv
__ZNK27PowerBookmarkServiceFactory23BuildServiceInstanceForEPN3web12BrowserStateE
__ZN29ManagedBookmarkServiceFactory18GetForBrowserStateEP18ChromeBrowserState
__ZNK29ManagedBookmarkServiceFactory23BuildServiceInstanceForEPN3web12BrowserStateE
__ZN12_GLOBAL__N_125BuildManagedBookmarkModelEPN3web12BrowserStateE
__ZN4base8internal17UnretainedWrapperI18ChromeBrowserStateNS_17unretained_traits12MayNotDangleELN15partition_alloc8internal12RawPtrTraitsE0EEC2EPS2_QeqT1_LS7_0E
__ZN4base8internal9BindStateILb0ELb1ELb0EPFNSt4__Cr12basic_stringIcNS2_11char_traitsIcEENS2_9allocatorIcEEEEP18ChromeBrowserStateEJNS0_17UnretainedWrapperIS9_NS_17unretained_traits12MayNotDangleELN15partition_alloc8internal12RawPtrTraitsE0EEEEEC2ISC_JSJ_EQntsr18CancellationTraitsE14is_cancellableEEPFvvEOT_DpOT0_
__ZN3ios41LocalOrSyncableBookmarkSyncServiceFactory18GetForBrowserStateEP18ChromeBrowserState
__ZNK3ios41LocalOrSyncableBookmarkSyncServiceFactory20GetBrowserStateToUseEPN3web12BrowserStateE
__ZNK3ios41LocalOrSyncableBookmarkSyncServiceFactory23BuildServiceInstanceForEPN3web12BrowserStateE
__ZN4base19MakeCriticalClosureENSt4__Cr17basic_string_viewIcNS0_11char_traitsIcEEEENS_12OnceCallbackIFvvEEEb
__ZN4base8internal24ImmediateCriticalClosureC1ENSt4__Cr17basic_string_viewIcNS2_11char_traitsIcEEEENS_12OnceCallbackIFvvEEE
__ZN4base8internal24ImmediateCriticalClosureC2ENSt4__Cr17basic_string_viewIcNS2_11char_traitsIcEEEENS_12OnceCallbackIFvvEEE
__ZN4base3ios20ScopedCriticalActionC1ENSt4__Cr17basic_string_viewIcNS2_11char_traitsIcEEEE
__ZN4base6subtle22GetOrCreateLazyPointerINS_3ios20ScopedCriticalAction25ActiveBackgroundTaskCacheEEEPT_RNSt4__Cr6atomicImEEPFS6_PvESB_PFvSB_ESB_
__ZN4base9SingletonINS_3ios20ScopedCriticalAction25ActiveBackgroundTaskCacheENS_20LeakySingletonTraitsIS3_EES3_E11CreatorFuncEPv
__ZN4base3ios20ScopedCriticalAction25ActiveBackgroundTaskCache34EnsureBackgroundTaskExistsWithNameENSt4__Cr17basic_string_viewIcNS3_11char_traitsIcEEEE
__ZNSt4__Cr6__treeINS_12__value_typeINS_4pairINS_12basic_stringIcNS_11char_traitsIcEENS_9allocatorIcEEEEN4base9TimeTicksEEENS9_3ios20ScopedCriticalAction25ActiveBackgroundTaskCache13InternalEntryEEENS_19__map_value_compareISB_SG_NS_4lessISB_EELb1EEENS6_ISG_EEE30__emplace_hint_unique_key_argsISB_JSB_SF_EEENS2_INS_15__tree_iteratorISG_PNS_11__tree_nodeISG_PvEElEEbEENS_21__tree_const_iteratorISG_SS_lEERKT_DpOT0_
__ZNSt4__Cr6__treeINS_12__value_typeINS_4pairINS_12basic_stringIcNS_11char_traitsIcEENS_9allocatorIcEEEEN4base9TimeTicksEEENS9_3ios20ScopedCriticalAction25ActiveBackgroundTaskCache13InternalEntryEEENS_19__map_value_compareISB_SG_NS_4lessISB_EELb1EEENS6_ISG_EEE12__find_equalISB_EERPNS_16__tree_node_baseIPvEENS_21__tree_const_iteratorISG_PNS_11__tree_nodeISG_SP_EElEERPNS_15__tree_end_nodeISR_EESS_RKT_
__ZN4base3ios20ScopedCriticalAction4Core19StartBackgroundTaskE13scoped_refptrIS2_ENSt4__Cr17basic_string_viewIcNS5_11char_traitsIcEEEE
___copy_helper_block_e8_32s40c59_ZTS13scoped_refptrIN4base3ios20ScopedCriticalAction4CoreEE
___destroy_helper_block_e8_32s40c59_ZTS13scoped_refptrIN4base3ios20ScopedCriticalAction4CoreEE
__ZNSt4__Cr12basic_stringIDsNS_11char_traitsIDsEENS_9allocatorIDsEEE21__grow_by_and_replaceEmmmmmmPKDs
__ZNSt4__Cr12basic_stringIDsNS_11char_traitsIDsEENS_9allocatorIDsEEE17__assign_no_aliasILb1EEERS5_PKDsm
__ZN4base8internal9BindStateILb1ELb1ELb0EMNS0_24ImmediateCriticalClosureEFvvEJNS0_12OwnedWrapperIS2_NSt4__Cr14default_deleteIS2_EEEEEEC2IS4_JS9_EQntsr18CancellationTraitsE14is_cancellableEEPFvvEOT_DpOT0_
__ZNK31OptimizationGuideServiceFactory32ServiceIsCreatedWithBrowserStateEv
__ZNK31OptimizationGuideServiceFactory20GetBrowserStateToUseEPN3web12BrowserStateE
__ZNK31OptimizationGuideServiceFactory23BuildServiceInstanceForEPN3web12BrowserStateE
__ZN12_GLOBAL__N_129BuildOptimizationGuideServiceEPN3web12BrowserStateE
__ZN3web12BrowserState24GetProtoDatabaseProviderEv
__ZN4base8internal7InvokerINS0_13FunctorTraitsIOMNS0_24ImmediateCriticalClosureEFvvEJPS3_EEENS0_9BindStateILb1ELb1ELb0ES5_JNS0_12OwnedWrapperIS3_NSt4__Cr14default_deleteIS3_EEEEEEEFvvEE7RunOnceEPNS0_13BindStateBaseE
__ZN4base8internal24ImmediateCriticalClosure3RunEv
__ZN22ApplicationContextImpl20GetApplicationLocaleEv
__ZN18BrowserListFactory18GetForBrowserStateEP18ChromeBrowserState
__ZNK18BrowserListFactory20GetBrowserStateToUseEPN3web12BrowserStateE
__ZNK18BrowserListFactory23BuildServiceInstanceForEPN3web12BrowserStateE
__ZN15BrowserListImplC1Ev
__ZN15BrowserListImplC2Ev
__ZN3web12BrowserState25GetSharedURLLoaderFactoryEv
__ZN22IdentityManagerFactory18GetForBrowserStateEP18ChromeBrowserState
__ZNK22IdentityManagerFactory23BuildServiceInstanceForEPN3web12BrowserStateE
__ZN34ChromeAccountManagerServiceFactory18GetForBrowserStateEP18ChromeBrowserState
__ZNK34ChromeAccountManagerServiceFactory23BuildServiceInstanceForEPN3web12BrowserStateE
__ZN27ChromeAccountManagerServiceC1EP11PrefService
__ZN27ChromeAccountManagerServiceC2EP11PrefService
__ZN25PatternAccountRestrictionC1Ev
__ZN4base17ScopedObservationI21SystemIdentityManager29SystemIdentityManagerObserverEC2EPS2_
__ZN4base8internal17UnretainedWrapperI27ChromeAccountManagerServiceNS_17unretained_traits12MayNotDangleELN15partition_alloc8internal12RawPtrTraitsE0EEC2EPS2_QeqT1_LS7_0E
__ZN4base8internal9BindStateILb1ELb1ELb0EM27ChromeAccountManagerServiceFvvEJNS0_17UnretainedWrapperIS2_NS_17unretained_traits12MayNotDangleELN15partition_alloc8internal12RawPtrTraitsE0EEEEEC2IS4_JSB_EQntsr18CancellationTraitsE14is_cancellableEEPFvvEOT_DpOT0_
__ZN27ChromeAccountManagerService17UpdateRestrictionEv
__Z34PatternAccountRestrictionFromValueRKN4base5Value4ListE
__ZNSt4__Cr6vectorI7PatternNS_9allocatorIS1_EEE7reserveEm
__ZN25PatternAccountRestrictionC1EOS_
__ZN25PatternAccountRestrictionD1Ev
__ZN25PatternAccountRestrictionaSEOS_
__ZN27ChromeAccountManagerService21OnIdentityListChangedEb
__ZNK4base12ObserverListIN27ChromeAccountManagerService8ObserverELb1ELb1ENS_8internal22CheckedObserverAdapterEE4ItereqERKS6_
__ZNK4base12ObserverListIN27ChromeAccountManagerService8ObserverELb1ELb1ENS_8internal22CheckedObserverAdapterEE4Iter6is_endEv
__ZN4base12ObserverListIN27ChromeAccountManagerService8ObserverELb1ELb1ENS_8internal22CheckedObserverAdapterEE4IterD2Ev
__ZN22ApplicationContextImpl24GetSystemIdentityManagerEv
__ZN10tests_hook27CreateSystemIdentityManagerEv
__ZN22ApplicationContextImpl13GetSSOServiceEv
__ZN3ios8provider16CreateSSOServiceEv
__ZN3ios8provider27CreateSystemIdentityManagerEPU30objcproto19SingleSignOnService11objc_object
__ZN21SystemIdentityManagerC2Ev
__ZN4base17ScopedObservationI21SystemIdentityManager29SystemIdentityManagerObserverE7ObserveEPS1_
__ZN21SystemIdentityManager11AddObserverEP29SystemIdentityManagerObserver
__ZN4base12ObserverListI29SystemIdentityManagerObserverLb1ELb1ENS_8internal22CheckedObserverAdapterEE11AddObserverEPS1_
__ZN26DeviceAccountsProviderImplC1EP27ChromeAccountManagerService
__ZN26DeviceAccountsProviderImplC2EP27ChromeAccountManagerService
__ZN3ios36AccountCapabilitiesFetcherFactoryIOSC1EP27ChromeAccountManagerService
__ZN3ios36AccountCapabilitiesFetcherFactoryIOSC2EP27ChromeAccountManagerService
__ZN13image_fetcher21CreateIOSImageDecoderEv
__ZNSt4__Cr12basic_stringIDsNS_11char_traitsIDsEENS_9allocatorIDsEEEC2EPKDsm
__ZN4base17ScopedObservationI22HostContentSettingsMapN16content_settings8ObserverEE7ObserveEPS1_
__ZN21IOSChromeSigninClientC1EP18ChromeBrowserState13scoped_refptrIN16content_settings14CookieSettingsEES2_I22HostContentSettingsMapE
__ZN21IOSChromeSigninClientC2EP18ChromeBrowserState13scoped_refptrIN16content_settings14CookieSettingsEES2_I22HostContentSettingsMapE
__ZN4base5apple18GetBackupExclusionERKNS_8FilePathE
__ZN10tests_hook25GetOverriddenTokenServiceEP11PrefServiceNSt4__Cr10unique_ptrI33ProfileOAuth2TokenServiceDelegateNS2_14default_deleteIS4_EEEE
__ZN26DeviceAccountsProviderImplD0Ev
__ZN26DeviceAccountsProviderImplD2Ev
__ZN21IOSChromeSigninClient8GetPrefsEv
__ZNK4base12ObserverListI30IdentityManagerFactoryObserverLb1ELb0ENS_8internal22CheckedObserverAdapterEE4ItereqERKS5_
__ZNK4base12ObserverListI30IdentityManagerFactoryObserverLb1ELb0ENS_8internal22CheckedObserverAdapterEE4Iter6is_endEv
__ZN4base12ObserverListI30IdentityManagerFactoryObserverLb1ELb0ENS_8internal22CheckedObserverAdapterEE4IterD2Ev
__ZN24OptimizationGuideServiceC1EPN13leveldb_proto21ProtoDatabaseProviderERKN4base8FilePathEbRKNSt4__Cr12basic_stringIcNS7_11char_traitsIcEENS7_9allocatorIcEEEENS3_7WeakPtrIN18optimization_guide22OptimizationGuideStoreEEEP11PrefServiceP11BrowserList13scoped_refptrIN7network22SharedURLLoaderFactoryEENS3_12OnceCallbackIFPN8download25BackgroundDownloadServiceEvEEEPN6signin15IdentityManagerE
__ZN24OptimizationGuideServiceC2EPN13leveldb_proto21ProtoDatabaseProviderERKN4base8FilePathEbRKNSt4__Cr12basic_stringIcNS7_11char_traitsIcEENS7_9allocatorIcEEEENS3_7WeakPtrIN18optimization_guide22OptimizationGuideStoreEEEP11PrefServiceP11BrowserList13scoped_refptrIN7network22SharedURLLoaderFactoryEENS3_12OnceCallbackIFPN8download25BackgroundDownloadServiceEvEEEPN6signin15IdentityManagerE
__ZN18TabUrlProviderImplC1EP11BrowserListPN4base5ClockE
__ZN18TabUrlProviderImplC2EP11BrowserListPN4base5ClockE
__ZN4base14WeakPtrFactoryIN18optimization_guide22OptimizationGuideStoreEE10GetWeakPtrEvQntsr3stdE10is_const_vIT_E
__ZN18optimization_guide21IOSChromeHintsManagerC1EbRKNSt4__Cr12basic_stringIcNS1_11char_traitsIcEENS1_9allocatorIcEEEEP11PrefServiceN4base7WeakPtrINS_22OptimizationGuideStoreEEEPNS_15TopHostProviderEPNS_14TabUrlProviderE13scoped_refptrIN7network22SharedURLLoaderFactoryEEPN6signin15IdentityManagerEP23OptimizationGuideLogger
__ZN18optimization_guide21IOSChromeHintsManagerC2EbRKNSt4__Cr12basic_stringIcNS1_11char_traitsIcEENS1_9allocatorIcEEEEP11PrefServiceN4base7WeakPtrINS_22OptimizationGuideStoreEEEPNS_15TopHostProviderEPNS_14TabUrlProviderE13scoped_refptrIN7network22SharedURLLoaderFactoryEEPN6signin15IdentityManagerEP23OptimizationGuideLogger
__ZN4base7SysInfo26AmountOfPhysicalMemoryImplEv
__ZN4base8internal9BindStateILb0ELb0ELb0EZN12_GLOBAL__N_129BuildOptimizationGuideServiceEPN3web12BrowserStateEE3$_0JNS0_17UnretainedWrapperI18ChromeBrowserStateNS_17unretained_traits12MayNotDangleELN15partition_alloc8internal12RawPtrTraitsE0EEEEE7DestroyEPKNS0_13BindStateBaseE
__ZNK20PhotosServiceFactory32ServiceIsCreatedWithBrowserStateEv
__ZNK20PhotosServiceFactory20GetBrowserStateToUseEPN3web12BrowserStateE
__ZNK20PhotosServiceFactory23BuildServiceInstanceForEPN3web12BrowserStateE
-[PhotosServiceConfiguration setSsoService:]
-[PhotosServiceConfiguration setPrefService:]
-[PhotosServiceConfiguration setIdentityManager:]
-[PhotosServiceConfiguration setAccountManagerService:]
__ZN3ios8provider19CreatePhotosServiceEP26PhotosServiceConfiguration
__ZN13PhotosServiceC2Ev
-[PhotosServiceConfiguration .cxx_destruct]
__ZNK25PlusAddressServiceFactory32ServiceIsCreatedWithBrowserStateEv
__ZNK25PlusAddressServiceFactory20GetBrowserStateToUseEPN3web12BrowserStateE
__ZNK25PlusAddressServiceFactory23BuildServiceInstanceForEPN3web12BrowserStateE
__ZNK6policy30UserPolicySigninServiceFactory32ServiceIsCreatedWithBrowserStateEv
__ZNK6policy30UserPolicySigninServiceFactory23BuildServiceInstanceForEPN3web12BrowserStateE
__ZN22ChromeBrowserStateImpl25GetUserCloudPolicyManagerEv
__ZN6policy23UserPolicySigninServiceC1EP11PrefServiceS2_PNS_23DeviceManagementServiceEPNS_22UserCloudPolicyManagerEPN6signin15IdentityManagerE13scoped_refptrIN7network22SharedURLLoaderFactoryEE
__ZN6policy23UserPolicySigninServiceC2EP11PrefServiceS2_PNS_23DeviceManagementServiceEPNS_22UserCloudPolicyManagerEPN6signin15IdentityManagerE13scoped_refptrIN7network22SharedURLLoaderFactoryEE
__ZN4base17ScopedObservationIN6signin15IdentityManagerENS2_8ObserverEEC2EPS3_
__ZN6policy23UserPolicySigninService13TryInitializeEv
__ZN6policy29IsAnyUserPolicyFeatureEnabledEv
__ZN6policy23UserPolicySigninService16CanApplyPoliciesEb
__ZN6policy46IsUserPolicyEnabledForSigninOrSyncConsentLevelEv
__ZN6policy23UserPolicySigninService30GetConsentLevelForRegistrationEv
__ZNK36SigninBrowserStateInfoUpdaterFactory32ServiceIsCreatedWithBrowserStateEv
__ZNK36SigninBrowserStateInfoUpdaterFactory23BuildServiceInstanceForEPN3web12BrowserStateE
__ZN29SigninBrowserStateInfoUpdaterC1EPN6signin15IdentityManagerEP21SigninErrorControllerRKN4base8FilePathE
__ZN29SigninBrowserStateInfoUpdaterC2EPN6signin15IdentityManagerEP21SigninErrorControllerRKN4base8FilePathE
__ZN4base17ScopedObservationI21SigninErrorControllerNS1_8ObserverEEC2EPS2_
__ZN4base17ScopedObservationI21SigninErrorControllerNS1_8ObserverEE7ObserveEPS1_
__ZN29SigninBrowserStateInfoUpdater22UpdateBrowserStateInfoEv
__ZN29ChromeBrowserStateManagerImpl24GetBrowserStateInfoCacheEv
__ZNK33TextClassifierModelServiceFactory32ServiceIsCreatedWithBrowserStateEv
__ZNK33TextClassifierModelServiceFactory20GetBrowserStateToUseEPN3web12BrowserStateE
__ZNK33TextClassifierModelServiceFactory23BuildServiceInstanceForEPN3web12BrowserStateE
__ZN4base8internal7InvokerINS0_13FunctorTraitsIOPFbRKNS_8FilePathEEJOS3_EEENS0_9BindStateILb0ELb1ELb0ES7_JS3_EEEFbvEE7RunOnceEPNS0_13BindStateBaseE
__ZNK30DomainDiversityReporterFactory32ServiceIsCreatedWithBrowserStateEv
__ZNK30DomainDiversityReporterFactory20GetBrowserStateToUseEPN3web12BrowserStateE
__ZNK30DomainDiversityReporterFactory23BuildServiceInstanceForEPN3web12BrowserStateE
__ZN4base8internal9BindStateILb0ELb1ELb0EPFbRKNS_8FilePathEEJS2_EE7DestroyEPKNS0_13BindStateBaseE
__ZN4base8internal9BindStateILb1ELb1ELb0EMNS0_24ImmediateCriticalClosureEFvvEJNS0_12OwnedWrapperIS2_NSt4__Cr14default_deleteIS2_EEEEEE7DestroyEPKNS0_13BindStateBaseE
__ZN4base8internal24ImmediateCriticalClosureD1Ev
__ZN4base3ios20ScopedCriticalActionD1Ev
__ZN4base3ios20ScopedCriticalAction25ActiveBackgroundTaskCache13ReleaseHandleENSt4__Cr14__map_iteratorINS3_15__tree_iteratorINS3_12__value_typeINS3_4pairINS3_12basic_stringIcNS3_11char_traitsIcEENS3_9allocatorIcEEEENS_9TimeTicksEEENS2_13InternalEntryEEEPNS3_11__tree_nodeISH_PvEElEEEE
__ZNSt4__Cr6__treeINS_12__value_typeINS_4pairINS_12basic_stringIcNS_11char_traitsIcEENS_9allocatorIcEEEEN4base9TimeTicksEEENS9_3ios20ScopedCriticalAction25ActiveBackgroundTaskCache13InternalEntryEEENS_19__map_value_compareISB_SG_NS_4lessISB_EELb1EEENS6_ISG_EEE5eraseENS_21__tree_const_iteratorISG_PNS_11__tree_nodeISG_PvEElEE
__ZN4base3ios20ScopedCriticalAction4Core17EndBackgroundTaskE13scoped_refptrIS2_E
__ZN4base3ios20ScopedCriticalAction4CoreD2Ev
__ZNK38ChromePasswordProtectionServiceFactory32ServiceIsCreatedWithBrowserStateEv
__ZN36SupervisedUserSettingsServiceFactory18GetForBrowserStateEP18ChromeBrowserState
__ZNK36SupervisedUserSettingsServiceFactory20GetBrowserStateToUseEPN3web12BrowserStateE
__ZNK36SupervisedUserSettingsServiceFactory23BuildServiceInstanceForEPN3web12BrowserStateE
__ZN28ChromeBrowserStateImplIOData6Handle4InitERKN4base8FilePathES4_iS4_
__ZN24ChromeBrowserStateIOData39InitializeMetricsEnabledStateOnUIThreadEv
__ZN10PrefMemberIbE14MoveToSequenceE13scoped_refptrIN4base19SequencedTaskRunnerEE
__ZNK10PrefMemberIbE8internalEv
__ZNK10PrefMemberIbE14CreateInternalEv
__ZNSt4__Cr6__treeINS_12__value_typeIN4base8FilePathENS_10unique_ptrI22ChromeBrowserStateImplNS_14default_deleteIS5_EEEEEENS_19__map_value_compareIS3_S9_NS_4lessIS3_EELb1EEENS_9allocatorIS9_EEE25__emplace_unique_key_argsIS3_JNS_4pairIS3_S8_EEEEENSI_INS_15__tree_iteratorIS9_PNS_11__tree_nodeIS9_PvEElEEbEERKT_DpOT0_
__ZN29ChromeBrowserStateManagerImpl11DoFinalInitEP18ChromeBrowserState
__ZN29ChromeBrowserStateManagerImpl22DoFinalInitForServicesEP18ChromeBrowserState
__ZN3ios32AccountConsistencyServiceFactory18GetForBrowserStateEP18ChromeBrowserState
__ZNK3ios32AccountConsistencyServiceFactory23BuildServiceInstanceForEPN3web12BrowserStateE
__ZN25AccountConsistencyServiceC1EPN3web12BrowserStateEP17AccountReconcilor13scoped_refptrIN16content_settings14CookieSettingsEEPN6signin15IdentityManagerE
__ZN25AccountConsistencyServiceC2EPN3web12BrowserStateEP17AccountReconcilor13scoped_refptrIN16content_settings14CookieSettingsEEPN6signin15IdentityManagerE
__ZN25AccountConsistencyService31RemoveAllChromeConnectedCookiesEN4base12OnceCallbackIFvvEEE
__ZN3web12BrowserState16GetCookieManagerEv
__ZN3web12BrowserState31CreateNetworkContextIfNecessaryEv
__ZN18ChromeBrowserState17GetRequestContextEv
__ZN3web24URLDataManagerIOSBackend21CreateProtocolHandlerEPNS_12BrowserStateE
__ZNSt4__Cr6__treeINS_12__value_typeINS_12basic_stringIcNS_11char_traitsIcEENS_9allocatorIcEEEENS_10unique_ptrIN3net20URLRequestJobFactory15ProtocolHandlerENS_14default_deleteISB_EEEEEENS_19__map_value_compareIS7_SF_NS_4lessIS7_EELb1EEENS5_ISF_EEE25__emplace_unique_key_argsIS7_JRKNS_21piecewise_construct_tENS_5tupleIJOS7_EEENSQ_IJEEEEEENS_4pairINS_15__tree_iteratorISF_PNS_11__tree_nodeISF_PvEElEEbEERKT_DpOT0_
__ZN22ChromeBrowserStateImpl20CreateRequestContextEPNSt4__Cr3mapINS0_12basic_stringIcNS0_11char_traitsIcEENS0_9allocatorIcEEEENS0_10unique_ptrIN3net20URLRequestJobFactory15ProtocolHandlerENS0_14default_deleteISB_EEEENS0_4lessIS7_EENS5_INS0_4pairIKS7_SE_EEEEEE
__ZN22ApplicationContextImpl20GetIOSChromeIOThreadEv
__ZNK28ChromeBrowserStateImplIOData6Handle30CreateMainRequestContextGetterEPNSt4__Cr3mapINS1_12basic_stringIcNS1_11char_traitsIcEENS1_9allocatorIcEEEENS1_10unique_ptrIN3net20URLRequestJobFactory15ProtocolHandlerENS1_14default_deleteISC_EEEENS1_4lessIS8_EENS6_INS1_4pairIKS8_SF_EEEEEEP11PrefServiceP17IOSChromeIOThread
__ZNK28ChromeBrowserStateImplIOData6Handle14LazyInitializeEv
__ZN24ChromeBrowserStateIOData20InitializeOnUIThreadEP18ChromeBrowserState
__ZN22ChromeBrowserStateImpl21GetProxyConfigTrackerEv
__ZN3web23CreateSystemCookieStoreEPNS_12BrowserStateE
__ZN3web30WKWebViewConfigurationProvider16FromBrowserStateEPNS_12BrowserStateE
__ZN3web30WKWebViewConfigurationProviderC2EPNS_12BrowserStateE
__ZNK15ChromeWebClient32IsMixedContentAutoupgradeEnabledEPN3web12BrowserStateE
__ZN3web25WKContentRuleListProviderC1Eb
__ZN3web25WKContentRuleListProviderC2Eb
__ZN4base14WeakPtrFactoryIN3web25WKContentRuleListProviderEE10GetWeakPtrEvQntsr3stdE10is_const_vIT_E
__ZN3web31CreateLocalBlockingJsonRuleListEv
__ZN15ChromeWebClient25GetAdditionalWebUISchemesEPNSt4__Cr6vectorINS0_12basic_stringIcNS0_11char_traitsIcEENS0_9allocatorIcEEEENS5_IS7_EEEE
___copy_helper_block_e8_40c54_ZTSN4base7WeakPtrIN3web25WKContentRuleListProviderEEE
____ZN3web25WKContentRuleListProviderC2Eb_block_invoke
___destroy_helper_block_e8_40c54_ZTSN4base7WeakPtrIN3web25WKContentRuleListProviderEEE
__ZN3web41CreateMixedContentAutoUpgradeJsonRuleListEv
__ZN3web23WKHTTPSystemCookieStoreC1EPNS_30WKWebViewConfigurationProviderE
__ZN3web23WKHTTPSystemCookieStoreC2EPNS_30WKWebViewConfigurationProviderE
__ZN3net17SystemCookieStoreC2Ev
__ZN3net25CookieCreationTimeManagerC1Ev
__ZN3net25CookieCreationTimeManagerC2Ev
__ZN3web30WKWebViewConfigurationProvider23GetWebViewConfigurationEv
__ZN3web30WKWebViewConfigurationProvider29ResetWithWebViewConfigurationEP22WKWebViewConfiguration
__ZNK15ChromeWebClient19EnableFullscreenAPIEv
__ZN3web30WKWebViewConfigurationProvider13UpdateScriptsEv
__ZN3web24JavaScriptFeatureManager16FromBrowserStateEPNS_12BrowserStateE
__ZN3web24JavaScriptFeatureManagerC2EPNS_12BrowserStateE
__ZN3web20java_script_features28GetBuiltInJavaScriptFeaturesEPNS_12BrowserStateE
__ZN3web20java_script_features24GetBaseJavaScriptFeatureEv
__ZN3web17JavaScriptFeature13FeatureScript18CreateWithFilenameERKNSt4__Cr12basic_stringIcNS2_11char_traitsIcEENS2_9allocatorIcEEEENS1_13InjectionTimeENS1_12TargetFramesENS1_19ReinjectionBehaviorERKN4base17RepeatingCallbackIFP12NSDictionaryIP8NSStringSI_EvEEE
__ZN12_GLOBAL__N_123InjectionTokenForScriptEP8NSString
__ZN3web17JavaScriptFeature13FeatureScriptC2ENSt4__Cr8optionalINS2_12basic_stringIcNS2_11char_traitsIcEENS2_9allocatorIcEEEEEESA_P8NSStringNS1_13InjectionTimeENS1_12TargetFramesENS1_19ReinjectionBehaviorERKN4base17RepeatingCallbackIFP12NSDictionaryISC_SC_EvEEE
__ZNSt4__Cr6vectorIN3web17JavaScriptFeature13FeatureScriptENS_9allocatorIS3_EEEC1ESt16initializer_listIS3_E
__ZN3web17JavaScriptFeature13FeatureScriptC1ERKS1_
__ZN3web17JavaScriptFeature13FeatureScriptC2ERKS1_
__ZN4base12NoDestructorIN3web17JavaScriptFeatureEEC2IJNS1_12ContentWorldENSt4__Cr6vectorINS2_13FeatureScriptENS6_9allocatorIS8_EEEEEEEDpOT_
__ZN3web17JavaScriptFeatureC1ENS_12ContentWorldENSt4__Cr6vectorINS0_13FeatureScriptENS2_9allocatorIS4_EEEE
__ZN3web17JavaScriptFeatureC2ENS_12ContentWorldENSt4__Cr6vectorINS0_13FeatureScriptENS2_9allocatorIS4_EEEE
__ZN3web17JavaScriptFeature13FeatureScriptD1Ev
__ZNSt4__Cr6vectorIN3web17JavaScriptFeature13FeatureScriptENS_9allocatorIS3_EEED1Ev
__ZN3web20java_script_features26GetCommonJavaScriptFeatureEv
__ZNSt4__Cr6vectorIPKN3web17JavaScriptFeatureENS_9allocatorIS4_EEEC1ESt16initializer_listIS4_E
__ZN4base12NoDestructorIN3web17JavaScriptFeatureEEC2IJNS1_12ContentWorldENSt4__Cr6vectorINS2_13FeatureScriptENS6_9allocatorIS8_EEEENS7_IPKS2_NS9_ISD_EEEEEEEDpOT_
__ZN3web17JavaScriptFeatureC1ENS_12ContentWorldENSt4__Cr6vectorINS0_13FeatureScriptENS2_9allocatorIS4_EEEENS3_IPKS0_NS5_IS9_EEEE
__ZN3web17JavaScriptFeatureC2ENS_12ContentWorldENSt4__Cr6vectorINS0_13FeatureScriptENS2_9allocatorIS4_EEEENS3_IPKS0_NS5_IS9_EEEE
__ZNSt4__Cr6vectorIPKN3web17JavaScriptFeatureENS_9allocatorIS4_EEED1Ev
__ZN3web20java_script_features27GetMessageJavaScriptFeatureEv
__ZN3web28ContextMenuJavaScriptFeature16FromBrowserStateEPNS_12BrowserStateE
__ZN3web28ContextMenuJavaScriptFeatureC2Ev
__ZN3web26ErrorPageJavaScriptFeature11GetInstanceEv
__ZN3web26ErrorPageJavaScriptFeatureC2Ev
__ZN3web27FindInPageJavaScriptFeature11GetInstanceEv
__ZN3web27FindInPageJavaScriptFeatureC2Ev
__ZN3web27FullscreenJavaScriptFeature11GetInstanceEv
__ZN3web27FullscreenJavaScriptFeatureC2Ev
__ZN3web24FaviconJavaScriptFeatureC1Ev
__ZN3web24FaviconJavaScriptFeatureC2Ev
__ZN3web29ScrollHelperJavaScriptFeatureC1Ev
__ZN3web29ScrollHelperJavaScriptFeatureC2Ev
__ZN4base8internal9BindStateILb0ELb1ELb0EU8__strongU13block_pointerFvN3web28WindowErrorJavaScriptFeature12ErrorDetailsEEJEE6CreateIS7_JEEEPS8_PFvvEOT_DpOT0_
__ZN3web28WindowErrorJavaScriptFeatureC1EN4base17RepeatingCallbackIFvNS0_12ErrorDetailsEEEE
__ZN3web28WindowErrorJavaScriptFeatureC2EN4base17RepeatingCallbackIFvNS0_12ErrorDetailsEEEE
__ZN3web27NavigationJavaScriptFeature11GetInstanceEv
__ZN3web27NavigationJavaScriptFeatureC2Ev
__ZN3web31SessionRestoreJavaScriptFeature16FromBrowserStateEPNS_12BrowserStateE
__ZN3web31SessionRestoreJavaScriptFeatureC2EPNS_12BrowserStateE
__ZN3web30TextFragmentsJavaScriptFeature11GetInstanceEv
__ZN3web30TextFragmentsJavaScriptFeatureC2Ev
__ZN3web31WebUIMessagingJavaScriptFeature11GetInstanceEv
__ZN3web31WebUIMessagingJavaScriptFeatureC2Ev
__ZN3web28AnnotationsJavaScriptFeature11GetInstanceEv
__ZN3web28AnnotationsJavaScriptFeatureC2Ev
__ZN3web33WebFramesManagerJavaScriptFeature39AllContentWorldFeaturesFromBrowserStateEPNS_12BrowserStateE
__ZN3web24JavaScriptFeatureManager23GetAllContentWorldEnumsEv
__ZN3web33WebFramesManagerJavaScriptFeature9Container16FromBrowserStateEPNS_12BrowserStateE
__ZN3web33WebFramesManagerJavaScriptFeature9ContainerC2EPNS_12BrowserStateE
__ZN3web33WebFramesManagerJavaScriptFeature9Container22FeatureForContentWorldENS_12ContentWorldE
__ZNSt4__Cr6__treeINS_12__value_typeIN3web12ContentWorldENS_10unique_ptrINS2_33WebFramesManagerJavaScriptFeatureENS_14default_deleteIS5_EEEEEENS_19__map_value_compareIS3_S9_NS_4lessIS3_EELb1EEENS_9allocatorIS9_EEE25__emplace_unique_key_argsIS3_JRKNS_21piecewise_construct_tENS_5tupleIJRKS3_EEENSL_IJEEEEEENS_4pairINS_15__tree_iteratorIS9_PNS_11__tree_nodeIS9_PvEElEEbEERKT_DpOT0_
__ZN3web33WebFramesManagerJavaScriptFeatureC2ENS_12ContentWorldEPNS_12BrowserStateE
__ZNSt4__Cr6vectorIPN3web33WebFramesManagerJavaScriptFeatureENS_9allocatorIS3_EEE21__push_back_slow_pathIS3_EEPS3_OT_
__ZNSt4__Cr6vectorIPN3web17JavaScriptFeatureENS_9allocatorIS3_EEE18__insert_with_sizeINS_11__wrap_iterIPPNS1_33WebFramesManagerJavaScriptFeatureEEESC_EENS8_IPS3_EENS8_IPKS3_EET_T0_l
__ZNSt4__Cr6vectorIPN3web17JavaScriptFeatureENS_9allocatorIS3_EEE21__push_back_slow_pathIRKS3_EEPS3_OT_
__ZNK15ChromeWebClient21GetJavaScriptFeaturesEPN3web12BrowserStateE
__ZN22PrintJavaScriptFeatureC1Ev
__ZN22PrintJavaScriptFeatureC2Ev
__ZN35PasswordProtectionJavaScriptFeature11GetInstanceEv
__ZN35PasswordProtectionJavaScriptFeatureC2Ev
__ZNSt4__Cr6vectorIPN3web17JavaScriptFeatureENS_9allocatorIS3_EEE21__push_back_slow_pathIS3_EEPS3_OT_
__ZN31JavaScriptConsoleFeatureFactory11GetInstanceEv
__ZN4base12NoDestructorI31JavaScriptConsoleFeatureFactoryEC1IJEEEDpOT_
__ZN31JavaScriptConsoleFeatureFactory18GetForBrowserStateEPN3web12BrowserStateE
__ZNK31JavaScriptConsoleFeatureFactory20GetBrowserStateToUseEPN3web12BrowserStateE
__ZNK31JavaScriptConsoleFeatureFactory23BuildServiceInstanceForEPN3web12BrowserStateE
__ZN24JavaScriptConsoleFeatureC1Ev
__ZN24JavaScriptConsoleFeatureC2Ev
__ZN8autofill25AutofillJavaScriptFeature11GetInstanceEv
__ZN8autofill25AutofillJavaScriptFeatureC2Ev
__Z41ContentWorldForAutofillJavascriptFeaturesv
__ZN8autofill25FormUtilJavaScriptFeature11GetInstanceEv
__ZN8autofill25FormUtilJavaScriptFeatureC2Ev
__ZN8autofill29FormHandlersJavaScriptFeature11GetInstanceEv
__ZN8autofill29FormHandlersJavaScriptFeatureC2Ev
__ZN16password_manager32PasswordManagerJavaScriptFeature11GetInstanceEv
__ZN16password_manager32PasswordManagerJavaScriptFeatureC2Ev
__ZN8autofill37SuggestionControllerJavaScriptFeature11GetInstanceEv
__ZN8autofill37SuggestionControllerJavaScriptFeatureC2Ev
__ZN36AutofillBottomSheetJavaScriptFeature11GetInstanceEv
__ZN36AutofillBottomSheetJavaScriptFeatureC2Ev
__ZN25FontSizeJavaScriptFeature11GetInstanceEv
__ZN25FontSizeJavaScriptFeatureC2Ev
__ZN27ImageFetchJavaScriptFeature11GetInstanceEv
__ZN4base8internal9BindStateILb0ELb1ELb0EPFPN27ImageFetchJavaScriptFeature7HandlerEPN3web8WebStateEEJEE6CreateIS9_JEEEPSA_PFvvEOT_DpOT0_
__ZN27ImageFetchJavaScriptFeatureC2EN4base17RepeatingCallbackIFPNS_7HandlerEPN3web8WebStateEEEE
__ZN27LinkToTextJavaScriptFeature11GetInstanceEv
__ZN27LinkToTextJavaScriptFeatureC2Ev
__Z25IsPartialTranslateEnabledv
__ZN29WebSelectionJavaScriptFeature11GetInstanceEv
__ZN29WebSelectionJavaScriptFeatureC2Ev
__ZN29SearchEngineJavaScriptFeature11GetInstanceEv
__ZN29SearchEngineJavaScriptFeatureC2Ev
__ZN28SearchEngineTabHelperFactory11GetInstanceEv
__ZN29SearchEngineJavaScriptFeature11SetDelegateEP37SearchEngineJavaScriptFeatureDelegate
__ZN22security_interstitials40IOSSecurityInterstitialJavaScriptFeature11GetInstanceEv
__ZN22security_interstitials40IOSSecurityInterstitialJavaScriptFeatureC2Ev
__ZN8language34LanguageDetectionJavaScriptFeature11GetInstanceEv
__ZN8language34LanguageDetectionJavaScriptFeatureC2Ev
__ZN9translate26TranslateJavaScriptFeature11GetInstanceEv
__ZN9translate26TranslateJavaScriptFeatureC2Ev
__ZN38WebPerformanceMetricsJavaScriptFeature11GetInstanceEv
__ZN38WebPerformanceMetricsJavaScriptFeatureC2Ev
__ZN23FollowJavaScriptFeature11GetInstanceEv
__ZN23FollowJavaScriptFeatureC2Ev
__ZN27ChooseFileJavaScriptFeature11GetInstanceEv
__ZN27ChooseFileJavaScriptFeatureC2Ev
__ZN43SupervisedUserInterstitialJavaScriptFeature11GetInstanceEv
__ZN43SupervisedUserInterstitialJavaScriptFeatureC2Ev
__ZN3web24JavaScriptFeatureManager17ConfigureFeaturesENSt4__Cr6vectorIPNS_17JavaScriptFeatureENS1_9allocatorIS4_EEEE
__ZN3web22JavaScriptContentWorldC1EPNS_12BrowserStateEP14WKContentWorld
__ZN3web22JavaScriptContentWorldC2EPNS_12BrowserStateEP14WKContentWorld
__ZNK3web17JavaScriptFeature24GetSupportedContentWorldEv
__ZN3web22JavaScriptContentWorld10AddFeatureEPKNS_17JavaScriptFeatureE
__ZNSt4__Cr6__treeIPKN3web17JavaScriptFeatureENS_4lessIS4_EENS_9allocatorIS4_EEE25__emplace_unique_key_argsIS4_JRKS4_EEENS_4pairINS_15__tree_iteratorIS4_PNS_11__tree_nodeIS4_PvEElEEbEERKT_DpOT0_
__ZNK3web17JavaScriptFeature20GetDependentFeaturesEv
__ZNK3web17JavaScriptFeature10GetScriptsEv
__ZNK3web17JavaScriptFeature13FeatureScript15GetScriptStringEv
__ZN3web13GetPageScriptEP8NSString
__ZNK3web17JavaScriptFeature13FeatureScript19ReplacePlaceholdersEP8NSString
__ZN3web24MakeScriptInjectableOnceEP8NSStringS1_
__ZNK3web17JavaScriptFeature27GetScriptMessageHandlerNameEv
__ZNK3web28ContextMenuJavaScriptFeature27GetScriptMessageHandlerNameEv
__ZNK3web17JavaScriptFeature23GetScriptMessageHandlerEv
__ZNK4base14WeakPtrFactoryIN3web17JavaScriptFeatureEE17GetMutableWeakPtrEvQntsr3stdE10is_const_vIT_E
__ZN4base8internal9BindStateILb1ELb1ELb0EMN3web17JavaScriptFeatureEFvPNS2_8WebStateERKNS2_13ScriptMessageEEJNS_7WeakPtrIS3_EEEEC2ISA_JSC_EQsr18CancellationTraitsE14is_cancellableEEPFvvEOT_DpOT0_
__ZN4base14WeakPtrFactoryIN3web22JavaScriptContentWorldEE10GetWeakPtrEvQntsr3stdE10is_const_vIT_E
__ZN4base8internal9BindStateILb1ELb1ELb0EMN3web22JavaScriptContentWorldEFvNS_17RepeatingCallbackIFvPNS2_8WebStateERKNS2_13ScriptMessageEEEEPNS2_12BrowserStateEP15WKScriptMessageEJNS_7WeakPtrIS3_EESB_NS0_17UnretainedWrapperISC_NS_17unretained_traits12MayNotDangleELN15partition_alloc8internal12RawPtrTraitsE0EEEEEC2ISH_JSJ_RSB_RNS_7raw_ptrISC_LSP_0EEEEQsr18CancellationTraitsE14is_cancellableEEPFvvEOT_DpOT0_
__ZN4base8internal17UnretainedWrapperIN3web12BrowserStateENS_17unretained_traits12MayNotDangleELN15partition_alloc8internal12RawPtrTraitsE0EEC2ERKNS_7raw_ptrIS3_LS8_0EEEQsr14raw_ptr_traits15IsSupportedTypeIT_EE5value
__ZN28ScopedWKScriptMessageHandlerC1EP23WKUserContentControllerP8NSStringP14WKContentWorldN4base17RepeatingCallbackIFvP15WKScriptMessageEEE
__ZN28ScopedWKScriptMessageHandlerC2EP23WKUserContentControllerP8NSStringP14WKContentWorldN4base17RepeatingCallbackIFvP15WKScriptMessageEEE
-[CRWScriptMessageHandler .cxx_construct]
-[CRWScriptMessageHandler initWithCallback:]
__ZNSt4__Cr6__treeINS_12__value_typeIPKN3web17JavaScriptFeatureENS_10unique_ptrI28ScopedWKScriptMessageHandlerNS_14default_deleteIS7_EEEEEENS_19__map_value_compareIS5_SB_NS_4lessIS5_EELb1EEENS_9allocatorISB_EEE25__emplace_unique_key_argsIS5_JRKNS_21piecewise_construct_tENS_5tupleIJRKS5_EEENSN_IJEEEEEENS_4pairINS_15__tree_iteratorISB_PNS_11__tree_nodeISB_PvEElEEbEERKT_DpOT0_
__ZNK3web26ErrorPageJavaScriptFeature27GetScriptMessageHandlerNameEv
__ZNK3web27FullscreenJavaScriptFeature27GetScriptMessageHandlerNameEv
__ZNK3web24FaviconJavaScriptFeature27GetScriptMessageHandlerNameEv
__ZNK3web28WindowErrorJavaScriptFeature27GetScriptMessageHandlerNameEv
__ZNK3web27NavigationJavaScriptFeature27GetScriptMessageHandlerNameEv
__ZNK3web30TextFragmentsJavaScriptFeature27GetScriptMessageHandlerNameEv
__ZNK3web31WebUIMessagingJavaScriptFeature27GetScriptMessageHandlerNameEv
__ZNK3web28AnnotationsJavaScriptFeature27GetScriptMessageHandlerNameEv
__ZNK35PasswordProtectionJavaScriptFeature27GetScriptMessageHandlerNameEv
__ZThn8_NK24JavaScriptConsoleFeature27GetScriptMessageHandlerNameEv
__ZNK22PrintJavaScriptFeature27GetScriptMessageHandlerNameEv
__ZNK16password_manager32PasswordManagerJavaScriptFeature27GetScriptMessageHandlerNameEv
__ZNK8autofill29FormHandlersJavaScriptFeature27GetScriptMessageHandlerNameEv
__ZNK36AutofillBottomSheetJavaScriptFeature27GetScriptMessageHandlerNameEv
__ZNK27ImageFetchJavaScriptFeature27GetScriptMessageHandlerNameEv
__ZNK29WebSelectionJavaScriptFeature27GetScriptMessageHandlerNameEv
__ZNK29SearchEngineJavaScriptFeature27GetScriptMessageHandlerNameEv
__ZNK22security_interstitials40IOSSecurityInterstitialJavaScriptFeature27GetScriptMessageHandlerNameEv
__ZNK8language34LanguageDetectionJavaScriptFeature27GetScriptMessageHandlerNameEv
__ZNK9translate26TranslateJavaScriptFeature27GetScriptMessageHandlerNameEv
__ZNK38WebPerformanceMetricsJavaScriptFeature27GetScriptMessageHandlerNameEv
__ZNK27ChooseFileJavaScriptFeature27GetScriptMessageHandlerNameEv
__ZNK43SupervisedUserInterstitialJavaScriptFeature27GetScriptMessageHandlerNameEv
__ZN3web33WebFramesManagerJavaScriptFeature17ConfigureHandlersEP23WKUserContentController
__ZN3web39WKContentWorldForContentWorldIdentifierENS_12ContentWorldE
__ZN4base14WeakPtrFactoryIN3web33WebFramesManagerJavaScriptFeatureEE10GetWeakPtrEvQntsr3stdE10is_const_vIT_E
__ZN4base8internal9BindStateILb1ELb1ELb0EMN3web33WebFramesManagerJavaScriptFeatureEFvP15WKScriptMessageEJNS_7WeakPtrIS3_EEEEC2IS7_JS9_EQsr18CancellationTraitsE14is_cancellableEEPFvvEOT_DpOT0_
__ZN3web31SessionRestoreJavaScriptFeature17ConfigureHandlersEP23WKUserContentController
__ZN4base14WeakPtrFactoryIN3web31SessionRestoreJavaScriptFeatureEE10GetWeakPtrEvQntsr3stdE10is_const_vIT_E
__ZN4base8internal9BindStateILb1ELb1ELb0EMN3web31SessionRestoreJavaScriptFeatureEFvP15WKScriptMessageEJNS_7WeakPtrIS3_EEEEC2IS7_JS9_EQsr18CancellationTraitsE14is_cancellableEEPFvvEOT_DpOT0_
__ZN28ScopedWKScriptMessageHandlerC1EP23WKUserContentControllerP8NSStringN4base17RepeatingCallbackIFvP15WKScriptMessageEEE
__ZN28ScopedWKScriptMessageHandlerC2EP23WKUserContentControllerP8NSStringN4base17RepeatingCallbackIFvP15WKScriptMessageEEE
-[CRWWebUISchemeHandler .cxx_construct]
-[CRWWebUISchemeHandler initWithURLLoaderFactory:]
__ZN3web25WKContentRuleListProvider24SetUserContentControllerEP23WKUserContentController
__ZNK4base12ObserverListIN3web38WKWebViewConfigurationProviderObserverELb0ELb1ENS_8internal24UncheckedObserverAdapterILN15partition_alloc8internal12RawPtrTraitsE0EEEE4ItereqERKSA_
__ZNK4base12ObserverListIN3web38WKWebViewConfigurationProviderObserverELb0ELb1ENS_8internal24UncheckedObserverAdapterILN15partition_alloc8internal12RawPtrTraitsE0EEEE4Iter6is_endEv
__ZN4base12ObserverListIN3web38WKWebViewConfigurationProviderObserverELb0ELb1ENS_8internal24UncheckedObserverAdapterILN15partition_alloc8internal12RawPtrTraitsE0EEEE4IterD2Ev
-[CRWWKHTTPCookieStore setHTTPCookieStore:]
__ZN3web30WKWebViewConfigurationProvider11AddObserverEPNS_38WKWebViewConfigurationProviderObserverE
__ZN4base12ObserverListIN3web38WKWebViewConfigurationProviderObserverELb0ELb1ENS_8internal24UncheckedObserverAdapterILN15partition_alloc8internal12RawPtrTraitsE0EEEE11AddObserverEPS2_
__ZNSt4__Cr6vectorIN4base8internal24UncheckedObserverAdapterILN15partition_alloc8internal12RawPtrTraitsE0EEENS_9allocatorIS7_EEE24__emplace_back_slow_pathIJS7_EEEPS7_DpOT_
__ZN25AcceptLanguagePrefWatcherC1EP11PrefService
__ZN25AcceptLanguagePrefWatcherC2EP11PrefService
__ZN4base14MakeRefCountedIN25AcceptLanguagePrefWatcher6HandleEJRKNSt4__Cr12basic_stringIcNS3_11char_traitsIcEENS3_9allocatorIcEEEEEEE13scoped_refptrIT_EDpOT0_
__ZN25AcceptLanguagePrefWatcher6Handle31SetAcceptLanguageHeaderFromPrefERKNSt4__Cr12basic_stringIcNS1_11char_traitsIcEENS1_9allocatorIcEEEE
__ZN4base8internal17UnretainedWrapperI25AcceptLanguagePrefWatcherNS_17unretained_traits12MayNotDangleELN15partition_alloc8internal12RawPtrTraitsE0EEC2EPS2_QeqT1_LS7_0E
__ZN4base8internal9BindStateILb1ELb1ELb0EM25AcceptLanguagePrefWatcherFvRKNSt4__Cr12basic_stringIcNS3_11char_traitsIcEENS3_9allocatorIcEEEEEJNS0_17UnretainedWrapperIS2_NS_17unretained_traits12MayNotDangleELN15partition_alloc8internal12RawPtrTraitsE0EEEEEC2ISD_JSK_EQntsr18CancellationTraitsE14is_cancellableEEPFvvEOT_DpOT0_
__ZN25AcceptLanguagePrefWatcher9GetHandleEv
__ZN30IOSChromeHttpUserAgentSettingsC1E13scoped_refptrIN25AcceptLanguagePrefWatcher6HandleEE
__ZN30IOSChromeHttpUserAgentSettingsC2E13scoped_refptrIN25AcceptLanguagePrefWatcher6HandleEE
__ZN18ChromeBrowserState22UpdateCorsExemptHeaderEPN7network5mojom20NetworkContextParamsE
__ZN4mojo6RemoteIN7network5mojom13CookieManagerEE26BindNewPipeAndPassReceiverEv
__ZN4mojo6RemoteIN7network5mojom13CookieManagerEE26BindNewPipeAndPassReceiverE13scoped_refptrIN4base19SequencedTaskRunnerEE
__ZN4mojo6RemoteIN7network5mojom13CookieManagerEE4BindENS_13PendingRemoteIS3_EE13scoped_refptrIN4base19SequencedTaskRunnerEE
__ZN4mojo8internal17InterfacePtrStateIN7network5mojom13CookieManagerEE4BindEPNS0_18PendingRemoteStateE13scoped_refptrIN4base19SequencedTaskRunnerEE
__ZN4mojo8internal17InterfacePtrStateIN7network5mojom13CookieManagerEE25ConfigureProxyIfNecessaryEv
__ZNK4mojo6RemoteIN7network5mojom13CookieManagerEE3getEv
__ZN4base8internal17UnretainedWrapperI25AccountConsistencyServiceNS_17unretained_traits12MayNotDangleELN15partition_alloc8internal12RawPtrTraitsE0EEC2EPS2_QeqT1_LS7_0E
__ZN4base8internal9BindStateILb1ELb1ELb0EM25AccountConsistencyServiceFvNS_12OnceCallbackIFvvEEEjEJNS0_17UnretainedWrapperIS2_NS_17unretained_traits12MayNotDangleELN15partition_alloc8internal12RawPtrTraitsE0EEES5_EEC2IS7_JSE_S5_EQntsr18CancellationTraitsE14is_cancellableEEPS4_OT_DpOT0_
__ZNK24ChromeBrowserStateIOData4InitEPNSt4__Cr3mapINS0_12basic_stringIcNS0_11char_traitsIcEENS0_9allocatorIcEEEENS0_10unique_ptrIN3net20URLRequestJobFactory15ProtocolHandlerENS0_14default_deleteISB_EEEENS0_4lessIS7_EENS5_INS0_4pairIKS7_SE_EEEEEE
__ZN21IOSChromeSigninClient16GetCookieManagerEv
__ZN11google_apis22GetAPIKeyFromInfoPlistERKNSt4__Cr12basic_stringIcNS0_11char_traitsIcEENS0_9allocatorIcEEEE
__ZN9io_thread11IOSIOThread7net_logEv
__ZN24IOSChromeNetworkDelegate23set_enable_do_not_trackEP10PrefMemberIbE
__ZNK9io_thread11IOSIOThread20NetworkSessionParamsEv
__ZNK28ChromeBrowserStateImplIOData18InitializeInternalEPN3net24URLRequestContextBuilderEPN24ChromeBrowserStateIOData13ProfileParamsE
__ZN28UnifiedConsentServiceFactory18GetForBrowserStateEP18ChromeBrowserState
__ZNK28UnifiedConsentServiceFactory23BuildServiceInstanceForEPN3web12BrowserStateE
__ZN18SyncServiceFactory18GetForBrowserStateEP18ChromeBrowserState
__ZNK18SyncServiceFactory23BuildServiceInstanceForEPN3web12BrowserStateE
__ZN12_GLOBAL__N_116BuildSyncServiceEPN3web12BrowserStateE
__ZN33IOSChromeGCMProfileServiceFactory18GetForBrowserStateEP18ChromeBrowserState
__ZNK33IOSChromeGCMProfileServiceFactory23BuildServiceInstanceForEPN3web12BrowserStateE
__ZN4base8internal9BindStateILb0ELb1ELb0EPFvPN3web12BrowserStateENS_7WeakPtrIN3gcm17GCMProfileServiceEEEN4mojo15PendingReceiverIN7network5mojom27ProxyResolvingSocketFactoryEEEEJNS0_17UnretainedWrapperIS3_NS_17unretained_traits12MayNotDangleELN15partition_alloc8internal12RawPtrTraitsE0EEEEEC2ISG_JRS4_EQntsr18CancellationTraitsE14is_cancellableEEPFvvEOT_DpOT0_
__ZN22ApplicationContextImpl27GetNetworkConnectionTrackerEv
__ZN4base8internal17UnretainedWrapperIN7network20NetworkChangeManagerENS_17unretained_traits12MayNotDangleELN15partition_alloc8internal12RawPtrTraitsE0EEC2EPS3_QeqT1_LS8_0E
__ZN4base8internal9BindStateILb0ELb1ELb0EPFvPN7network20NetworkChangeManagerEN4mojo15PendingReceiverINS2_5mojom20NetworkChangeManagerEEEEJNS0_17UnretainedWrapperIS3_NS_17unretained_traits12MayNotDangleELN15partition_alloc8internal12RawPtrTraitsE0EEEEEC2ISB_JSI_EQntsr18CancellationTraitsE14is_cancellableEEPFvvEOT_DpOT0_
__ZN4base8internal7InvokerINS0_13FunctorTraitsIRKPFvPN7network20NetworkChangeManagerEN4mojo15PendingReceiverINS3_5mojom20NetworkChangeManagerEEEEJS5_EEENS0_9BindStateILb0ELb1ELb0ESC_JNS0_17UnretainedWrapperIS4_NS_17unretained_traits12MayNotDangleELN15partition_alloc8internal12RawPtrTraitsE0EEEEEEFvSA_EE3RunEPNS0_13BindStateBaseEOSA_
__ZN12_GLOBAL__N_132BindNetworkChangeManagerReceiverEPN7network20NetworkChangeManagerEN4mojo15PendingReceiverINS0_5mojom20NetworkChangeManagerEEE
__ZN4base8internal9BindStateILb0ELb1ELb0EPFvRKNS_17RepeatingCallbackIFvjEEEjRKN4mojo18HandleSignalsStateEEJS4_EE7DestroyEPKNS0_13BindStateBaseE
__ZN4mojo6Handle5CloseEv
__ZN11cookie_util17CookieStoreConfigC1ERKN4base8FilePathENS0_17SessionCookieModeENS0_15CookieStoreTypeE
__ZN11cookie_util17CookieStoreConfigC2ERKN4base8FilePathENS0_17SessionCookieModeENS0_15CookieStoreTypeE
__ZN11cookie_util17CreateCookieStoreERKNS_17CookieStoreConfigENSt4__Cr10unique_ptrIN3net17SystemCookieStoreENS3_14default_deleteIS6_EEEEPNS5_6NetLogE
__ZN3net14CookieStoreIOSC1ENSt4__Cr10unique_ptrINS_17SystemCookieStoreENS1_14default_deleteIS3_EEEEPNS_6NetLogE
__ZN3net14CookieStoreIOSC2EPNS_13CookieMonster21PersistentCookieStoreENSt4__Cr10unique_ptrINS_17SystemCookieStoreENS4_14default_deleteIS6_EEEEPNS_6NetLogE
__ZN3net14CookieStoreIOS25CookieChangeDispatcherIOSC2EPS0_
__ZN3net12_GLOBAL__N_122NotificationTrampoline11GetInstanceEv
__ZN4base12ObserverListI26CookieNotificationObserverLb1ELb1ENS_8internal22CheckedObserverAdapterEE11AddObserverEPS1_
__ZN11cookie_util17CookieStoreConfigD1Ev
__ZNSt4__Cr11make_uniqueIN3gcm17GCMProfileServiceEJP11PrefServiceN4base8FilePathENS5_17RepeatingCallbackIFvNS5_7WeakPtrIS2_EEN4mojo15PendingReceiverIN7network5mojom27ProxyResolvingSocketFactoryEEEEEE13scoped_refptrINSC_22SharedURLLoaderFactoryEEPNSC_24NetworkConnectionTrackerEN12version_info7ChannelENS_12basic_stringIcNS_11char_traitsIcEENS_9allocatorIcEEEEPN6signin15IdentityManagerENS_10unique_ptrINS1_16GCMClientFactoryENS_14default_deleteISZ_EEEESI_INS5_22SingleThreadTaskRunnerEES14_RSI_INS5_19SequencedTaskRunnerEEEEENS_11__unique_ifIT_E15__unique_singleEDpOT0_
__ZN4base8internal7InvokerINS0_13FunctorTraitsIOMN3web12BrowserStateEFPN7network5mojom16URLLoaderFactoryEvEJPS4_EEENS0_9BindStateILb1ELb1ELb0ESA_JNS0_17UnretainedWrapperIS4_NS_17unretained_traits12MayNotDangleELN15partition_alloc8internal12RawPtrTraitsE0EEEEEEFS8_vEE7RunOnceEPNS0_13BindStateBaseE
__ZN3web12BrowserState19GetURLLoaderFactoryEv
__ZN4base8internal9BindStateILb1ELb1ELb0EMN3web12BrowserStateEFPN7network5mojom16URLLoaderFactoryEvEJNS0_17UnretainedWrapperIS3_NS_17unretained_traits12MayNotDangleELN15partition_alloc8internal12RawPtrTraitsE0EEEEE7DestroyEPKNS0_13BindStateBaseE
__ZN4base8internal9BindStateILb1ELb1ELb0EMN3web12BrowserStateEFPN7network5mojom16URLLoaderFactoryEvEJNS0_17UnretainedWrapperIS3_NS_17unretained_traits12MayNotDangleELN15partition_alloc8internal12RawPtrTraitsE0EEEEED2Ev
__ZN21IOSChromeSigninClient26AddContentSettingsObserverEPN16content_settings8ObserverE
__ZN19IOSChromeSyncClientC1EP18ChromeBrowserState
__ZN19IOSChromeSyncClientC2EP18ChromeBrowserState
__ZN3ios21WebDataServiceFactory33GetAutofillWebDataForBrowserStateEP18ChromeBrowserState17ServiceAccessType
__ZN3ios21WebDataServiceFactory18GetForBrowserStateEP18ChromeBrowserState17ServiceAccessType
__ZNK3ios21WebDataServiceFactory20GetBrowserStateToUseEPN3web12BrowserStateE
__ZNK3ios21WebDataServiceFactory23BuildServiceInstanceForEPN3web12BrowserStateE
__ZN3ios12_GLOBAL__N_119BuildWebDataServiceEPN3web12BrowserStateE
__ZNSt4__Cr11make_uniqueI21WebDataServiceWrapperJRKN4base8FilePathERKNS_12basic_stringIcNS_11char_traitsIcEENS_9allocatorIcEEEE13scoped_refptrINS2_22SingleThreadTaskRunnerEENS2_8internal20DoNothingCallbackTagEEEENS_11__unique_ifIT_E15__unique_singleEDpOT0_
__ZN24ChromeBrowserStateIOData13ProfileParamsD2Ev
__ZNK24ChromeBrowserStateIOData21GetMainRequestContextEv
__ZN3net14CookieStoreIOS26DeleteAllMatchingInfoAsyncENS_18CookieDeletionInfoEN4base12OnceCallbackIFvjEEE
__ZN3web23WKHTTPSystemCookieStore21GetCookieAcceptPolicyEv
__ZN3net14CookieStoreIOS30DeleteCookiesMatchingInfoAsyncENS_18CookieDeletionInfoEN4base12OnceCallbackIFvjEEE
__ZN3net14CookieStoreIOS35DeleteCookiesMatchingPredicateAsyncERKN4base17RepeatingCallbackIFbRKNS_15CanonicalCookieEEEENS1_12OnceCallbackIFvjEEE
__ZN3net17SystemCookieStore10GetWeakPtrEv
__ZN4base14WeakPtrFactoryIN3net17SystemCookieStoreEE10GetWeakPtrEvQntsr3stdE10is_const_vIT_E
___copy_helper_block_e8_32r40r48c46_ZTSN4base7WeakPtrIN3net17SystemCookieStoreEEE
___Block_byref_object_copy_
___Block_byref_object_copy_.24
__ZN4base8internal9BindStateILb0ELb1ELb0EU8__strongU13block_pointerFvP7NSArrayIP12NSHTTPCookieEEJEE6CreateIS9_JEEEPSA_PFvvEOT_DpOT0_
__ZN3web23WKHTTPSystemCookieStore18GetAllCookiesAsyncEN4base12OnceCallbackIFvP7NSArrayIP12NSHTTPCookieEEEE
__ZN3web23WKHTTPSystemCookieStore23GetCookiesAsyncInternalERK4GURLN4base12OnceCallbackIFvP7NSArrayIP12NSHTTPCookieEEEE
__ZN3net25CookieCreationTimeManager10GetWeakPtrEv
__ZN4base14WeakPtrFactoryIN3net25CookieCreationTimeManagerEE10GetWeakPtrEvQntsr3stdE10is_const_vIT_E
___copy_helper_block_e8_32r40w48c54_ZTSN4base7WeakPtrIN3net25CookieCreationTimeManagerEEE64c9_ZTS4GURL
___Block_byref_object_copy_.33
__ZN4base8internal9BindStateILb0ELb1ELb0EU8__strongU13block_pointerFvvEJEE6CreateIS4_JEEEPS5_PS2_OT_DpOT0_
__ZN3net14CookieStoreIOS19GetChangeDispatcherEv
__ZN3net14CookieStoreIOS25CookieChangeDispatcherIOS17AddCallbackForUrlERK4GURLRKNSt4__Cr8optionalINS_18CookiePartitionKeyEEEN4base17RepeatingCallbackIFvRKNS_16CookieChangeInfoEEEE
__ZN3ios21WebDataServiceFactory28GetAutofillWebDataForAccountEP18ChromeBrowserState17ServiceAccessType
__ZN36IOSChromeProfilePasswordStoreFactory18GetForBrowserStateEP18ChromeBrowserState17ServiceAccessType
__ZNK36IOSChromeProfilePasswordStoreFactory20GetBrowserStateToUseEPN3web12BrowserStateE
__ZNK36IOSChromeProfilePasswordStoreFactory23BuildServiceInstanceForEPN3web12BrowserStateE
__ZN34IOSChromeAffiliationServiceFactory18GetForBrowserStateEPN3web12BrowserStateE
__ZNK34IOSChromeAffiliationServiceFactory23BuildServiceInstanceForEPN3web12BrowserStateE
__ZN4base12BindPostTaskIvJEQsr3stdE9is_void_vIT_EEENS_17RepeatingCallbackIFvDpT0_EEE13scoped_refptrINS_10TaskRunnerEENS2_IFS1_S4_EEERKNS_8LocationE
__ZN4base8internal22BindPostTaskTrampolineINS_17RepeatingCallbackIFvvEEEEC2E13scoped_refptrINS_10TaskRunnerEERKNS_8LocationES4_
__ZN4base8internal9BindStateILb1ELb1ELb0EMNS0_22BindPostTaskTrampolineINS_17RepeatingCallbackIFvvEEEEEFvvEJNSt4__Cr10unique_ptrIS6_NS9_14default_deleteIS6_EEEEEEC2IS8_JSD_EQntsr18CancellationTraitsE14is_cancellableEEPS4_OT_DpOT0_
__Z34DelayReportingPasswordStoreMetricsP18ChromeBrowserState
__ZN4base14WeakPtrFactoryIN12_GLOBAL__N_125StoreMetricReporterHelperEE10GetWeakPtrEvQntsr3stdE10is_const_vIT_E
__ZN4base8BindOnceIMN12_GLOBAL__N_125StoreMetricReporterHelperEFvvEJNS_7WeakPtrIS2_EEEEEDaOT_DpOT0_
__ZN36IOSChromeAccountPasswordStoreFactory18GetForBrowserStateEP18ChromeBrowserState17ServiceAccessType
__ZNK36IOSChromeAccountPasswordStoreFactory20GetBrowserStateToUseEPN3web12BrowserStateE
__ZNK36IOSChromeAccountPasswordStoreFactory23BuildServiceInstanceForEPN3web12BrowserStateE
__ZN27PowerBookmarkServiceFactory18GetForBrowserStateEPN3web12BrowserStateE
__ZN3ios21WebDataServiceFactory36GetPlusAddressWebDataForBrowserStateEP18ChromeBrowserState17ServiceAccessType
__ZN23ReadingListModelFactory40GetAsDualReadingListModelForBrowserStateEP18ChromeBrowserState
__ZNK23ReadingListModelFactory20GetBrowserStateToUseEPN3web12BrowserStateE
__ZNK23ReadingListModelFactory23BuildServiceInstanceForEPN3web12BrowserStateE
__ZN18ChromeBrowserState12GetDebugNameEv
__ZN19IOSChromeSyncClient14GetPrefServiceEv
__ZN19IOSChromeSyncClient21GetTrustedVaultClientEv
__ZN29IOSTrustedVaultServiceFactory18GetForBrowserStateEP18ChromeBrowserState
__ZNK29IOSTrustedVaultServiceFactory23BuildServiceInstanceForEPN3web12BrowserStateE
__ZN32TrustedVaultClientBackendFactory18GetForBrowserStateEP18ChromeBrowserState
__ZNK32TrustedVaultClientBackendFactory23BuildServiceInstanceForEPN3web12BrowserStateE
-[TrustedVaultConfiguration setSsoService:]
__ZN3ios8provider31CreateTrustedVaultClientBackendEP25TrustedVaultConfiguration
__ZN25TrustedVaultClientBackendC2Ev
-[TrustedVaultConfiguration .cxx_destruct]
__ZN21IOSTrustedVaultClientC1EP27ChromeAccountManagerServicePN6signin15IdentityManagerEP25TrustedVaultClientBackend13scoped_refptrIN7network22SharedURLLoaderFactoryEE
__ZN21IOSTrustedVaultClientC2EP27ChromeAccountManagerServicePN6signin15IdentityManagerEP25TrustedVaultClientBackend13scoped_refptrIN7network22SharedURLLoaderFactoryEE
__ZN21IOSTrustedVaultClient11AddObserverEPN13trusted_vault18TrustedVaultClient8ObserverE
__ZN3ios8provider12_GLOBAL__N_133ChromiumTrustedVaultClientBackend11AddObserverEPN13trusted_vault18TrustedVaultClient8ObserverE
__ZN19IOSChromeSyncClient21IsPasswordSyncAllowedEv
__ZN19IOSChromeSyncClient30SetPasswordSyncAllowedChangeCbERKN4base17RepeatingCallbackIFvvEEE
__ZNK4GURL4pathEv
__ZN19IOSChromeSyncClient25CreateDataTypeControllersEPN6syncer11SyncServiceE
__ZN19IOSChromeSyncClient24GetDeviceInfoSyncServiceEv
__ZN28DeviceInfoSyncServiceFactory18GetForBrowserStateEP18ChromeBrowserState
__ZNK28DeviceInfoSyncServiceFactory23BuildServiceInstanceForEPN3web12BrowserStateE
__ZN31SyncInvalidationsServiceFactory18GetForBrowserStateEP18ChromeBrowserState
__ZNK31SyncInvalidationsServiceFactory23BuildServiceInstanceForEPN3web12BrowserStateE
__Z16GetVersionStringv
__ZN19IOSChromeSyncClient18GetIdentityManagerEv
__ZN19IOSChromeSyncClient17GetFaviconServiceEv
__ZN17FaviconClientImplC1Ev
__ZN19IOSChromeSyncClient17GetHistoryServiceEv
__ZN19IOSChromeSyncClient24GetModelTypeStoreServiceEv
__ZN19IOSChromeSyncClient21GetSessionSyncServiceEv
__ZN25SessionSyncServiceFactory18GetForBrowserStateEP18ChromeBrowserState
__ZNK25SessionSyncServiceFactory23BuildServiceInstanceForEPN3web12BrowserStateE
__ZN30IOSSyncedWindowDelegatesGetterC1EP11BrowserList
__ZNSt4__Cr6__treeIN4base8FilePathENS_4lessIS2_EENS_9allocatorIS2_EEE25__emplace_unique_key_argsIS2_JS2_EEENS_4pairINS_15__tree_iteratorIS2_PNS_11__tree_nodeIS2_PvEElEEbEERKT_DpOT0_
__ZN30IOSSyncedWindowDelegatesGetterC2EP11BrowserList
__ZN3ios15sync_start_util26GetFlareForSyncableServiceERKN4base8FilePathE
__ZN4base8internal9BindStateILb0ELb1ELb0EPFvRKNS_8FilePathEN6syncer9ModelTypeEEJS2_EEC2IS8_JS4_EQntsr18CancellationTraitsE14is_cancellableEEPFvvEOT_DpOT0_
__ZN32IOSChromeLocalSessionEventRouterC1EP11BrowserListPN13sync_sessions18SyncSessionsClientERKN4base17RepeatingCallbackIFvN6syncer9ModelTypeEEEE
__ZN32IOSChromeLocalSessionEventRouterC2EP11BrowserListPN13sync_sessions18SyncSessionsClientERKN4base17RepeatingCallbackIFvN6syncer9ModelTypeEEEE
__ZN32IOSChromeLocalSessionEventRouter8ObserverC2EPS_
__ZN3web16WebStateObserverC2Ev
__ZN35AllWebStateListObservationRegistrarC1EP11BrowserListNSt4__Cr10unique_ptrI20WebStateListObserverNS2_14default_deleteIS4_EEEENS_4ModeE
__ZN35AllWebStateListObservationRegistrarC2EP11BrowserListNSt4__Cr10unique_ptrI20WebStateListObserverNS2_14default_deleteIS4_EEEENS_4ModeE
__ZN4base28ScopedMultiSourceObservationI12WebStateList20WebStateListObserverEC2EPS2_
__ZN15BrowserListImpl11AddObserverEP19BrowserListObserver
__ZN4base12ObserverListI19BrowserListObserverLb1ELb1ENS_8internal22CheckedObserverAdapterEE11AddObserverEPS1_
__ZNK15BrowserListImpl18AllRegularBrowsersEv
__ZNSt4__Cr6__treeIP7BrowserNS_4lessIS2_EENS_9allocatorIS2_EEE7destroyEPNS_11__tree_nodeIS2_PvEE
__ZN4base8internal17UnretainedWrapperI32IOSChromeLocalSessionEventRouterNS_17unretained_traits12MayNotDangleELN15partition_alloc8internal12RawPtrTraitsE0EEC2EPS2_QeqT1_LS7_0E
__ZN4base8internal9BindStateILb1ELb1ELb0EM32IOSChromeLocalSessionEventRouterFvPN3web8WebStateEEJNS0_17UnretainedWrapperIS2_NS_17unretained_traits12MayNotDangleELN15partition_alloc8internal12RawPtrTraitsE0EEEEEC2IS7_JSE_EQntsr18CancellationTraitsE14is_cancellableEEPFvvEOT_DpOT0_
__ZN12_GLOBAL__N_122SyncSessionsClientImpl26GetLocalSessionEventRouterEv
__ZN19IOSChromeSyncClient26GetPasswordReceiverServiceEv
__ZN39IOSChromePasswordReceiverServiceFactory18GetForBrowserStateEP18ChromeBrowserState
__ZNK39IOSChromePasswordReceiverServiceFactory23BuildServiceInstanceForEPN3web12BrowserStateE
__ZN4base8internal9BindStateILb0ELb1ELb0EPFvN12version_info7ChannelEEJS3_EE6CreateIS5_JS3_EEEPS6_PFvvEOT_DpOT0_
__ZN19IOSChromeSyncClient24GetPasswordSenderServiceEv
__ZN19IOSChromeSyncClient22GetPrefServiceSyncableEv
__ZN19IOSChromeSyncClient19GetReadingListModelEv
__ZN23ReadingListModelFactory18GetForBrowserStateEP18ChromeBrowserState
__ZN19IOSChromeSyncClient33GetControllerDelegateForModelTypeEN6syncer9ModelTypeE
__ZN19IOSChromeSyncClient27GetSendTabToSelfSyncServiceEv
__ZN31SendTabToSelfSyncServiceFactory18GetForBrowserStateEP18ChromeBrowserState
__ZNK31SendTabToSelfSyncServiceFactory23BuildServiceInstanceForEPN3web12BrowserStateE
__Z25BuildSendTabToSelfServicePN3web12BrowserStateE
__ZN21ConsentAuditorFactory18GetForBrowserStateEP18ChromeBrowserState
__ZNK21ConsentAuditorFactory23BuildServiceInstanceForEPN3web12BrowserStateE
__ZN19IOSChromeSyncClient27GetSyncInvalidationsServiceEv
__ZN19IOSChromeSyncClient26GetSyncApiComponentFactoryEv
__ZN19IOSChromeSyncClient31OnLocalSyncTransportDataClearedEv
__ZN33GoogleGroupsUpdaterServiceFactory18GetForBrowserStateEP18ChromeBrowserState
__ZN4base8internal7InvokerINS0_13FunctorTraitsIOZNS_12OnceCallbackIFvvEEC1ENS0_20DoNothingCallbackTagEQsr3stdE9is_void_vIT_EEUlvE_JEEENS0_9BindStateILb0ELb0ELb0ES8_JEEES4_E7RunOnceEPNS0_13BindStateBaseE
__ZN4base8internal9BindStateILb0ELb0ELb0EZNS_12OnceCallbackIFvvEEC1ENS0_20DoNothingCallbackTagEQsr3stdE9is_void_vIT_EEUlvE_JEE7DestroyEPKNS0_13BindStateBaseE
__ZN31OptimizationGuideServiceFactory18GetForBrowserStateEP18ChromeBrowserState
__ZN18optimization_guide29PredictionModelDownloadClientC1EP18ChromeBrowserState
__ZN18optimization_guide29PredictionModelDownloadClientC2EP18ChromeBrowserState
__ZN8download28BackgroundDownloadTaskHelper6CreateEv
__ZN24OptimizationGuideService11DoFinalInitEPN8download25BackgroundDownloadServiceE
__ZN31IOSChromeMetricsServiceAccessor27RegisterSyntheticFieldTrialENSt4__Cr17basic_string_viewIcNS0_11char_traitsIcEEEES4_N10variations28SyntheticTrialAnnotationModeE
__ZN22ApplicationContextImpl17GetMetricsServiceEv
__ZN37IOSChromeMetricsServicesManagerClient26CreateMetricsServiceClientEPN10variations22SyntheticTrialRegistryE
__ZN29IOSChromeMetricsServiceClient6CreateEPN7metrics19MetricsStateManagerEPN10variations22SyntheticTrialRegistryE
__ZN29IOSChromeMetricsServiceClientC2EPN7metrics19MetricsStateManagerEPN10variations22SyntheticTrialRegistryE
__ZN25IncognitoWebStateObserverC2Ev
__ZN29ChromeBrowserStateManagerImpl22GetLoadedBrowserStatesEv
__ZNSt4__Cr6vectorIP18ChromeBrowserStateNS_9allocatorIS2_EEE21__push_back_slow_pathIS2_EEPS2_OT_
__ZN25IncognitoWebStateObserver8ObserverC2EPS_
__ZNK15BrowserListImpl20AllIncognitoBrowsersEv
__ZNSt4__Cr6__treeINS_10unique_ptrI35AllWebStateListObservationRegistrarNS_14default_deleteIS2_EEEENS_4lessIS5_EENS_9allocatorIS5_EEE25__emplace_unique_key_argsIS5_JS5_EEENS_4pairINS_15__tree_iteratorIS5_PNS_11__tree_nodeIS5_PvEElEEbEERKT_DpOT0_
__ZN3web22GlobalWebStateObserverC2Ev
__ZN3web26GlobalWebStateEventTracker11GetInstanceEv
__ZN3web26GlobalWebStateEventTrackerC2Ev
__ZN4base28ScopedMultiSourceObservationIN3web8WebStateENS1_16WebStateObserverEEC2EPS3_
__ZN3web26GlobalWebStateEventTracker11AddObserverEPNS_22GlobalWebStateObserverE
__ZN4base12ObserverListIN3web22GlobalWebStateObserverELb1ELb1ENS_8internal22CheckedObserverAdapterEE11AddObserverEPS2_
__ZN4base17ScopedObservationIN10variations22SyntheticTrialRegistryENS1_22SyntheticTrialObserverEEC2EPS3_
__ZN29IOSChromeMetricsServiceClient24RegisterForNotificationsEv
__ZN4base8internal17UnretainedWrapperI29IOSChromeMetricsServiceClientNS_17unretained_traits12MayNotDangleELN15partition_alloc8internal12RawPtrTraitsE0EEC2EPS2_QeqT1_LS7_0E
__ZN4base8internal9BindStateILb1ELb1ELb0EM29IOSChromeMetricsServiceClientFvPN3web8WebStateEEJNS0_17UnretainedWrapperIS2_NS_17unretained_traits12MayNotDangleELN15partition_alloc8internal12RawPtrTraitsE0EEEEEC2IS7_JSE_EQntsr18CancellationTraitsE14is_cancellableEEPFvvEOT_DpOT0_
__ZN4base8internal9BindStateILb1ELb1ELb0EM29IOSChromeMetricsServiceClientFvP10OmniboxLogEJNS0_17UnretainedWrapperIS2_NS_17unretained_traits12MayNotDangleELN15partition_alloc8internal12RawPtrTraitsE0EEEEEC2IS6_JSD_EQntsr18CancellationTraitsE14is_cancellableEEPFvvEOT_DpOT0_
__ZN29IOSChromeMetricsServiceClient10InitializeEv
__ZN4base17ScopedObservationIN10variations22SyntheticTrialRegistryENS1_22SyntheticTrialObserverEE7ObserveEPS2_
__ZThn32_N29IOSChromeMetricsServiceClient19GetUploadSigningKeyEv
__ZN29IOSChromeMetricsServiceClient19GetUploadSigningKeyEv
__ZN29IOSChromeMetricsServiceClient31RegisterMetricsServiceProvidersEv
__ZN4base8internal9BindStateILb0ELb1ELb0EPFvNS_12OnceCallbackIFvPN7network24NetworkConnectionTrackerEEEEEJEE6CreateIS9_JEEEPSA_PFvvEOT_DpOT0_
__ZN4base8internal7InvokerINS0_13FunctorTraitsIRKPFvNS_12OnceCallbackIFvPN7network24NetworkConnectionTrackerEEEEEJEEENS0_9BindStateILb0ELb1ELb0ESA_JEEES9_E3RunEPNS0_13BindStateBaseEOS8_
__ZN12_GLOBAL__N_132GetNetworkConnectionTrackerAsyncEN4base12OnceCallbackIFvPN7network24NetworkConnectionTrackerEEEE
__ZNO4base12OnceCallbackIFvPN7network24NetworkConnectionTrackerEEE3RunES3_
__ZN4base8internal9BindStateILb0ELb1ELb0EPFvNS_12OnceCallbackIFvPN7network24NetworkConnectionTrackerEEEEEJEE7DestroyEPKNS0_13BindStateBaseE
__ZN33IOSChromeStabilityMetricsProviderC1EP11PrefService
__ZN38IOSChromeDefaultBrowserMetricsProviderC1EN7metrics18MetricsLogUploader17MetricServiceTypeE
__ZN43IOSChromeSigninAndSyncStatusMetricsProviderC1Ev
__ZN32IOSFamilyLinkUserMetricsProviderC1Ev
__ZN36MobileSessionShutdownMetricsProviderC1EPN7metrics14MetricsServiceE
__ZN36MobileSessionShutdownMetricsProviderC2EPN7metrics14MetricsServiceE
__ZN4base8internal9BindStateILb0ELb1ELb0EPFvPNSt4__Cr6vectorIPKN6syncer17DeviceInfoTrackerENS2_9allocatorIS7_EEEEEJEE6CreateISD_JEEEPSE_PFvvEOT_DpOT0_
__ZN30IOSFeedActivityMetricsProviderC1EP11PrefService
__ZN30IOSFeedActivityMetricsProviderC2EP11PrefService
__Z38CreateIOSProfileSessionMetricsProviderv
__ZN29IOSFeedEnabledMetricsProviderC1EP11PrefService
__ZN29IOSFeedEnabledMetricsProviderC2EP11PrefService
__ZN35IOSPushNotificationsMetricsProviderC1EPN6signin15IdentityManagerE
__ZN35IOSPushNotificationsMetricsProviderC2EPN6signin15IdentityManagerE
__ZN29IOSChromeMetricsServiceClient24OnUkmAllowedStateChangedEbN4base7EnumSetIN3ukm14UkmConsentTypeELS3_0ELS3_2EEE
__ZThn32_N29IOSChromeMetricsServiceClient16GetVersionStringEv
__ZN29IOSChromeMetricsServiceClient20RegisterUKMProvidersEv
__ZThn32_N29IOSChromeMetricsServiceClient17GetMetricsServiceEv
__ZThn32_N29IOSChromeMetricsServiceClient25GetSyntheticTrialRegistryEv
__ZN21segmentation_platform34SegmentationPlatformServiceFactory18GetForBrowserStateEP18ChromeBrowserState
__ZNK21segmentation_platform34SegmentationPlatformServiceFactory23BuildServiceInstanceForEPN3web12BrowserStateE
__ZN21segmentation_platform12_GLOBAL__N_132BuildSegmentationPlatformServiceEPN3web12BrowserStateE
__ZN21segmentation_platform17UkmDatabaseClient17GetUkmDataManagerEv
__ZN21segmentation_platform29GetSegmentationPlatformConfigEv
__ZNSt4__Cr6vectorINS_10unique_ptrIN21segmentation_platform6ConfigENS_14default_deleteIS3_EEEENS_9allocatorIS6_EEE24__emplace_back_slow_pathIJS6_EEEPS6_DpOT_
__ZNSt4__Cr6vectorINS_10unique_ptrIN21segmentation_platform6ConfigENS_14default_deleteIS3_EEEENS_9allocatorIS6_EEE5eraseENS_11__wrap_iterIPKS6_EESD_
__ZN21segmentation_platform25IOSFieldTrialRegisterImplC1Ev
__ZN21segmentation_platform25IOSFieldTrialRegisterImpl18RegisterFieldTrialENSt4__Cr17basic_string_viewIcNS1_11char_traitsIcEEEES5_
__ZN22ApplicationContextImpl34GetSegmentationOTRWebStateObserverEv
__ZN21segmentation_platform19OTRWebStateObserverC1EPN3ios25ChromeBrowserStateManagerE
__ZN21segmentation_platform19OTRWebStateObserverC2EPN3ios25ChromeBrowserStateManagerE
__ZN21segmentation_platform19OTRWebStateObserver19OnBrowserStateAddedERKN4base8FilePathE
__ZN4base8internal9flat_treeINS_8FilePathENS0_8GetFirstENSt4__Cr4lessIvEENS4_6vectorINS4_4pairIS2_NS4_10unique_ptrIN21segmentation_platform19OTRWebStateObserver16BrowserStateDataENS4_14default_deleteISC_EEEEEENS4_9allocatorISG_EEEEE7emplaceIJSG_EEENS8_INS4_11__wrap_iterIPSG_EEbEEDpOT_
__ZN4base8internal9flat_treeINS_8FilePathENS0_8GetFirstENSt4__Cr4lessIvEENS4_6vectorINS4_4pairIS2_NS4_10unique_ptrIN21segmentation_platform19OTRWebStateObserver16BrowserStateDataENS4_14default_deleteISC_EEEEEENS4_9allocatorISG_EEEEE16emplace_key_argsIS2_JSG_EEENS8_INS4_11__wrap_iterIPSG_EEbEERKT_DpOT0_
__ZNSt4__Cr6vectorINS_4pairIN4base8FilePathENS_10unique_ptrIN21segmentation_platform19OTRWebStateObserver16BrowserStateDataENS_14default_deleteIS7_EEEEEENS_9allocatorISB_EEE7emplaceIJSB_EEENS_11__wrap_iterIPSB_EENSG_IPKSB_EEDpOT_
__ZNSt4__Cr14__split_bufferINS_4pairIN4base8FilePathENS_10unique_ptrIN21segmentation_platform19OTRWebStateObserver16BrowserStateDataENS_14default_deleteIS7_EEEEEERNS_9allocatorISB_EEE12emplace_backIJSB_EEEvDpOT_
__ZNSt4__Cr34__uninitialized_allocator_relocateINS_9allocatorINS_4pairIN4base8FilePathENS_10unique_ptrIN21segmentation_platform19OTRWebStateObserver16BrowserStateDataENS_14default_deleteIS8_EEEEEEEESC_EEvRT_PT0_SH_SH_
__ZN21segmentation_platform19OTRWebStateObserver16WebStateObserverC2ERKN4base8FilePathEPS0_P11BrowserList
__ZN21segmentation_platform19OTRWebStateObserver16WebStateObserver22UpdateOtrWebStateCountEv
__ZN21segmentation_platform19OTRWebStateObserver21OnWebStateListChangedERKN4base8FilePathEi
__ZN4base8flat_mapINS_8FilePathENSt4__Cr10unique_ptrIN21segmentation_platform19OTRWebStateObserver16BrowserStateDataENS2_14default_deleteIS6_EEEENS2_4lessIvEENS2_6vectorINS2_4pairIS1_S9_EENS2_9allocatorISE_EEEEEixERKS1_
__ZNK4base12ObserverListIN21segmentation_platform19OTRWebStateObserver14ObserverClientELb1ELb1ENS_8internal22CheckedObserverAdapterEE4ItereqERKS7_
__ZNK4base12ObserverListIN21segmentation_platform19OTRWebStateObserver14ObserverClientELb1ELb1ENS_8internal22CheckedObserverAdapterEE4Iter6is_endEv
__ZN4base12ObserverListIN21segmentation_platform19OTRWebStateObserver14ObserverClientELb1ELb1ENS_8internal22CheckedObserverAdapterEE4IterD2Ev
__ZN4base17ScopedObservationIN21segmentation_platform19OTRWebStateObserverENS2_14ObserverClientEEC2EPS3_
__ZN4base17ScopedObservationIN21segmentation_platform19OTRWebStateObserverENS2_14ObserverClientEE7ObserveEPS2_
__ZN21segmentation_platform19OTRWebStateObserver11AddObserverEPNS0_14ObserverClientE
__ZN4base12ObserverListIN21segmentation_platform19OTRWebStateObserver14ObserverClientELb1ELb1ENS_8internal22CheckedObserverAdapterEE11AddObserverEPS3_
__ZN21segmentation_platform12_GLOBAL__N_117IncognitoObserver25OnOTRWebStateCountChangedEb
__ZN42PushNotificationBrowserStateServiceFactory18GetForBrowserStateEP18ChromeBrowserState
__ZNK42PushNotificationBrowserStateServiceFactory23BuildServiceInstanceForEPN3web12BrowserStateE
__ZN35PushNotificationBrowserStateServiceC1EPN6signin15IdentityManagerEN4base8FilePathE
__ZN35PushNotificationBrowserStateServiceC2EPN6signin15IdentityManagerEN4base8FilePathE
__ZN26ChildAccountServiceFactory18GetForBrowserStateEP18ChromeBrowserState
__ZNK26ChildAccountServiceFactory23BuildServiceInstanceForEPN3web12BrowserStateE
__ZN28SupervisedUserServiceFactory18GetForBrowserStateEP18ChromeBrowserState
__ZNK28SupervisedUserServiceFactory23BuildServiceInstanceForEPN3web12BrowserStateE
__ZN37SupervisedUserServicePlatformDelegateC1EP18ChromeBrowserState
__ZN37SupervisedUserServicePlatformDelegateC2EP18ChromeBrowserState
__ZN12_GLOBAL__N_118FilterDelegateImpl14GetCountryCodeEv
__ZN12_GLOBAL__N_118FilterDelegateImplD0Ev
__ZN31ListFamilyMembersServiceFactory18GetForBrowserStateEP18ChromeBrowserState
__ZNK31ListFamilyMembersServiceFactory23BuildServiceInstanceForEPN3web12BrowserStateE
__ZN4base8internal9BindStateILb0ELb1ELb0EPFNSt4__Cr10unique_ptrIN15supervised_user24PermissionRequestCreatorENS2_14default_deleteIS5_EEEEP18ChromeBrowserStateEJNS0_17UnretainedWrapperIS9_NS_17unretained_traits12MayNotDangleELN15partition_alloc8internal12RawPtrTraitsE0EEEEEC2ISC_JRSA_EQntsr18CancellationTraitsE14is_cancellableEEPFvvEOT_DpOT0_
__ZNSt4__Cr11make_uniqueIN15supervised_user19ChildAccountServiceEJR11PrefServiceRNS1_21SupervisedUserServiceEPN6signin15IdentityManagerE13scoped_refptrIN7network22SharedURLLoaderFactoryEEN4base17RepeatingCallbackIFNS_10unique_ptrINS1_24PermissionRequestCreatorENS_14default_deleteISH_EEEEvEEENSE_8internal20DoNothingCallbackTagERNS1_24ListFamilyMembersServiceEEEENS_11__unique_ifIT_E15__unique_singleEDpOT0_
__ZN27AboutThisSiteServiceFactory18GetForBrowserStateEP18ChromeBrowserState
__ZNK27AboutThisSiteServiceFactory23BuildServiceInstanceForEPN3web12BrowserStateE
__ZN3ios25TemplateURLServiceFactory18GetForBrowserStateEP18ChromeBrowserState
__ZNK3ios25TemplateURLServiceFactory20GetBrowserStateToUseEPN3web12BrowserStateE
__ZNK3ios25TemplateURLServiceFactory23BuildServiceInstanceForEPN3web12BrowserStateE
__ZN3ios12_GLOBAL__N_123BuildTemplateURLServiceEPN3web12BrowserStateE
__ZN3ios23UIThreadSearchTermsDataC1Ev
__ZN3ios23UIThreadSearchTermsDataC2Ev
__ZN3ios21WebDataServiceFactory32GetKeywordWebDataForBrowserStateEP18ChromeBrowserState17ServiceAccessType
__ZNK3ios23UIThreadSearchTermsData18GoogleBaseURLValueEv
__ZThn8_N24OptimizationGuideService25RegisterOptimizationTypesERKNSt4__Cr6vectorIN18optimization_guide5proto16OptimizationTypeENS0_9allocatorIS4_EEEE
__ZN29ChromeBrowserStateManagerImpl22AddBrowserStateToCacheEP18ChromeBrowserState
__ZN4base8internal9BindStateILb0ELb1ELb0EPFvRKNS_8FilePathEEJS2_EEC2IS6_JRS2_EQntsr18CancellationTraitsE14is_cancellableEEPFvvEOT_DpOT0_
__ZN29ChromeBrowserStateManagerImpl23GetLastUsedBrowserStateEv
__ZN29ChromeBrowserStateManagerImpl26GetLastUsedBrowserStateDirERKN4base8FilePathE
__ZN36MobileSessionShutdownMetricsProvider22HasPreviousSessionDataEv
__ZN4base9TimeTicks16IsHighResolutionEv
__ZN4base10ThreadPool26PostTaskAndReplyWithResultINS_12OnceCallbackENSt4__Cr12basic_stringIcNS3_11char_traitsIcEENS3_9allocatorIcEEEERKS9_Q14IsBaseCallbackIT_IFvvEEEEEbRKNS_8LocationERKNS_10TaskTraitsESC_IFT0_vEESC_IFvT1_EE
__ZN4base8internal9BindStateILb0ELb1ELb0EPFvNS_12OnceCallbackIFvRKNSt4__Cr12basic_stringIcNS3_11char_traitsIcEENS3_9allocatorIcEEEEEEEPNS3_10unique_ptrIS9_NS3_14default_deleteIS9_EEEEEJSD_NS0_12OwnedWrapperISH_NSF_ISH_EEEEEEC2ISK_JSD_SN_EQntsr18CancellationTraitsE14is_cancellableEEPFvvEOT_DpOT0_
__ZN37IOSChromeMetricsServicesManagerClient25IsMetricsReportingEnabledEv
__ZN37IOSChromeMetricsServicesManagerClient21IsMetricsConsentGivenEv
__ZN24metrics_services_manager28MetricsServicesManagerClient21UpdateRunningServicesEbb
__ZN33IOSChromeStabilityMetricsProvider19OnRecordingDisabledEv
__ZN9translate30TranslateRankerMetricsProvider19OnRecordingDisabledEv
__ZN9translate30TranslateRankerMetricsProvider18UpdateLoggingStateEv
__ZN9translate22TranslateRankerFactory18GetForBrowserStateEP18ChromeBrowserState
__ZNK9translate22TranslateRankerFactory20GetBrowserStateToUseEPN3web12BrowserStateE
__ZNK9translate22TranslateRankerFactory23BuildServiceInstanceForEPN3web12BrowserStateE
__ZN22ApplicationContextImpl14GetUkmRecorderEv
__ZThn32_N29IOSChromeMetricsServiceClient13GetUkmServiceEv
__ZN38IOSChromeDefaultBrowserMetricsProvider21OnDidCreateMetricsLogEv
__ZN12_GLOBAL__N_120ProvideUmaHistogramsEv
__Z33IsChromeLikelyDefaultBrowser7Daysv
__ZN12_GLOBAL__N_126GetObjectFromStorageForKeyI6NSDateEEPT_P8NSString
__Z28IsChromeLikelyDefaultBrowserv
__Z36IsLikelyInterestedDefaultBrowserUser16DefaultPromoType
__ZN12_GLOBAL__N_126LoadTimestampsForPromoTypeE16DefaultPromoType
__ZN12_GLOBAL__N_126LoadActiveTimestampsForKeyEP8NSStringN4base9TimeDeltaE
__ZN12_GLOBAL__N_126GetObjectFromStorageForKeyI7NSArrayEEPT_P8NSString
__Z33IsChromeLikelyDefaultBrowserXDaysi
__Z41IsChromePotentiallyNoLongerDefaultBrowserii
__ZN32IOSFamilyLinkUserMetricsProvider17ProvideHistogramsEv
__ZNSt4__Cr6vectorIN15supervised_user23FamilyLinkUserLogRecordENS_9allocatorIS2_EEE21__push_back_slow_pathIS2_EEPS2_OT_
__ZThn32_N29IOSChromeMetricsServiceClient44AreNotificationListenersEnabledOnAllProfilesEv
__ZThn32_N29IOSChromeMetricsServiceClient26IsUkmAllowedForAllProfilesEv
__ZN37IOSChromeMetricsServicesManagerClient27IsOffTheRecordSessionActiveEv
__ZN37IOSChromeMetricsServicesManagerClient23AreIncognitoTabsPresentEv
__ZN21segmentation_platform17UkmDatabaseClient16StartObservationEv
__ZN19TranslateServiceIOS10InitializeEv
__ZN19TranslateServiceIOSC2Ev
__ZN4base8internal7InvokerINS0_13FunctorTraitsIOM18ApplicationContextFPN7network24NetworkConnectionTrackerEvEJPS3_EEENS0_9BindStateILb1ELb1ELb0ES8_JNS0_17UnretainedWrapperIS3_NS_17unretained_traits12MayNotDangleELN15partition_alloc8internal12RawPtrTraitsE0EEEEEEFS6_vEE7RunOnceEPNS0_13BindStateBaseE
__ZN4base8internal9BindStateILb1ELb1ELb0EM18ApplicationContextFPN7network24NetworkConnectionTrackerEvEJNS0_17UnretainedWrapperIS2_NS_17unretained_traits12MayNotDangleELN15partition_alloc8internal12RawPtrTraitsE0EEEEE7DestroyEPKNS0_13BindStateBaseE
__ZN4base8internal9BindStateILb1ELb1ELb0EM18ApplicationContextFPN7network24NetworkConnectionTrackerEvEJNS0_17UnretainedWrapperIS2_NS_17unretained_traits12MayNotDangleELN15partition_alloc8internal12RawPtrTraitsE0EEEEED2Ev
__ZN19TranslateServiceIOS25OnResourceRequestsAllowedEv
__ZN24ChromeIOSTranslateClient20CreateTranslatePrefsEP11PrefService
__ZN10variations17VariationsService23set_policy_pref_serviceEP11PrefService
__ZN35SafeBrowsingMetricsCollectorFactory18GetForBrowserStateEP18ChromeBrowserState
__ZNK35SafeBrowsingMetricsCollectorFactory23BuildServiceInstanceForEPN3web12BrowserStateE
__ZN23SafeBrowsingServiceImpl10InitializeEP11PrefServiceRKN4base8FilePathEPN13safe_browsing28SafeBrowsingMetricsCollectorE
__ZN4base14MakeRefCountedIN23SafeBrowsingServiceImpl15IOThreadEnablerEJR13scoped_refptrIN13safe_browsing27SafeBrowsingDatabaseManagerEEEEES3_IT_EDpOT0_
__ZN23SafeBrowsingServiceImpl15IOThreadEnablerC2E13scoped_refptrIN13safe_browsing27SafeBrowsingDatabaseManagerEE
__ZN4base8internal9BindStateILb1ELb1ELb0EMN23SafeBrowsingServiceImpl15IOThreadEnablerEFv13scoped_refptrIS2_EN4mojo15PendingReceiverIN7network5mojom14NetworkContextEEERKNS_8FilePathEEJS4_IS3_ES5_SB_SC_EEC2ISG_JRSH_S5_SB_RSC_EQntsr18CancellationTraitsE14is_cancellableEEPFvvEOT_DpOT0_
__ZN4base8internal7InvokerINS0_13FunctorTraitsIOMN23SafeBrowsingServiceImpl15IOThreadEnablerEFv13scoped_refptrIS3_EN4mojo15PendingReceiverIN7network5mojom14NetworkContextEEERKNS_8FilePathEEJOS5_IS4_EOS6_OSC_OSD_EEENS0_9BindStateILb1ELb1ELb0ESH_JSJ_S6_SC_SD_EEEFvvEE7RunOnceEPNS0_13BindStateBaseE
__ZN4base8internal20DecayedFunctorTraitsIMN23SafeBrowsingServiceImpl15IOThreadEnablerEFv13scoped_refptrIS2_EN4mojo15PendingReceiverIN7network5mojom14NetworkContextEEERKNS_8FilePathEEJOS4_IS3_EOS5_OSB_OSC_EE6InvokeISG_SH_JS5_SB_SC_EEEvT_OT0_DpOT1_
__ZN23SafeBrowsingServiceImpl15IOThreadEnabler10InitializeE13scoped_refptrIS_EN4mojo15PendingReceiverIN7network5mojom14NetworkContextEEERKN4base8FilePathE
__ZN23SafeBrowsingServiceImpl15IOThreadEnabler22SetUpURLRequestContextERKN4base8FilePathE
__ZN4base8internal17UnretainedWrapperI23SafeBrowsingServiceImplNS_17unretained_traits12MayNotDangleELN15partition_alloc8internal12RawPtrTraitsE0EEC2EPS2_QeqT1_LS7_0E
__ZN4base8internal9BindStateILb1ELb1ELb0EM23SafeBrowsingServiceImplFvvEJNS0_17UnretainedWrapperIS2_NS_17unretained_traits12MayNotDangleELN15partition_alloc8internal12RawPtrTraitsE0EEEEEC2IS4_JSB_EQntsr18CancellationTraitsE14is_cancellableEEPFvvEOT_DpOT0_
__ZN23SafeBrowsingServiceImpl30UpdateSafeBrowsingEnabledStateEv
__ZN4base8internal9BindStateILb1ELb1ELb0EMN23SafeBrowsingServiceImpl15IOThreadEnablerEFvbEJ13scoped_refptrIS3_EbEEC2IS5_JRS7_RbEQntsr18CancellationTraitsE14is_cancellableEEPFvvEOT_DpOT0_
__ZN3web13WebMainParamsD2Ev
__ZN3web13WebMainParamsD1Ev
-[PreviousSessionInfo beginRecordingFieldTrials]
-[AppState setMainBrowserState:]
-[MainController initializeBrowserState:]
__ZN28AuthenticationServiceFactory34CreateAndInitializeForBrowserStateEP18ChromeBrowserStateNSt4__Cr10unique_ptrI29AuthenticationServiceDelegateNS2_14default_deleteIS4_EEEE
__ZNK28AuthenticationServiceFactory23BuildServiceInstanceForEPN3web12BrowserStateE
__ZN12_GLOBAL__N_126BuildAuthenticationServiceEPN3web12BrowserStateE
__ZN21AuthenticationServiceC1EP11PrefServiceP16SyncSetupServiceP27ChromeAccountManagerServicePN6signin15IdentityManagerEPN6syncer11SyncServiceE
__ZN21AuthenticationServiceC2EP11PrefServiceP16SyncSetupServiceP27ChromeAccountManagerServicePN6signin15IdentityManagerEPN6syncer11SyncServiceE
__ZN4base17ScopedObservationI27ChromeAccountManagerServiceNS1_8ObserverEEC2EPS2_
__ZN21AuthenticationService10InitializeENSt4__Cr10unique_ptrI29AuthenticationServiceDelegateNS0_14default_deleteIS2_EEEE
__ZN21AuthenticationService23HandleForgottenIdentityEPU25objcproto14SystemIdentity11objc_objectbb
__ZN21AuthenticationService42ClearAccountSettingsPrefsOfRemovedAccountsEv
__ZNK27ChromeAccountManagerService16GetAllIdentitiesEv
__ZN12_GLOBAL__N_114SkipRestrictedC1ERK25PatternAccountRestriction
__ZN12_GLOBAL__N_114SkipRestrictedC1EOS0_
__ZN12_GLOBAL__N_114SkipRestrictedC1ERKS0_
__ZN3ios8provider12_GLOBAL__N_129ChromiumSystemIdentityManager21IterateOverIdentitiesEN4base17RepeatingCallbackIFN21SystemIdentityManager14IteratorResultEPU25objcproto14SystemIdentity11objc_objectEEE
__ZN4base8internal9BindStateILb1ELb1ELb0EMN12_GLOBAL__N_18IteratorINS2_17CollectIdentitiesENS2_14SkipRestrictedEEEFN21SystemIdentityManager14IteratorResultEPU25objcproto14SystemIdentity11objc_objectEJNS0_17UnretainedWrapperIS6_NS_17unretained_traits12MayNotDangleELN15partition_alloc8internal12RawPtrTraitsE0EEEEE7DestroyEPKNS0_13BindStateBaseE
__ZNK21AuthenticationService18GetPrimaryIdentityEN6signin12ConsentLevelE
__ZN10crash_keys20SetCurrentlySignedInEb
__ZN4base17ScopedObservationI27ChromeAccountManagerServiceNS1_8ObserverEE7ObserveEPS1_
__ZN27ChromeAccountManagerService11AddObserverEPNS_8ObserverE
__ZN4base12ObserverListIN27ChromeAccountManagerService8ObserverELb1ELb1ENS_8internal22CheckedObserverAdapterEE11AddObserverEPS2_
__ZN4base8internal17UnretainedWrapperI21AuthenticationServiceNS_17unretained_traits12MayNotDangleELN15partition_alloc8internal12RawPtrTraitsE0EEC2EPS2_QeqT1_LS7_0E
__ZN4base8internal9BindStateILb1ELb1ELb0EM21AuthenticationServiceFvRKNSt4__Cr12basic_stringIcNS3_11char_traitsIcEENS3_9allocatorIcEEEEEJNS0_17UnretainedWrapperIS2_NS_17unretained_traits12MayNotDangleELN15partition_alloc8internal12RawPtrTraitsE0EEEEEC2ISD_JSK_EQntsr18CancellationTraitsE14is_cancellableEEPFvvEOT_DpOT0_
__ZN21AuthenticationService31ReloadCredentialsFromIdentitiesEb
__ZN21AuthenticationService32OnApplicationWillEnterForegroundEv
__ZN21AuthenticationService16GetServiceStatusEv
__ZNK27ChromeAccountManagerService18IsServiceSupportedEv
__ZN3ios8provider12_GLOBAL__N_129ChromiumSystemIdentityManager17IsSigninSupportedEv
__ZNSt4__Cr6__treeINS_12__value_typeI13CoreAccountIdU8__strongPU34objcproto23RefreshAccessTokenError11objc_objectEENS_19__map_value_compareIS2_S6_NS_4lessIS2_EELb1EEENS_9allocatorIS6_EEE7destroyEPNS_11__tree_nodeIS6_PvEE
__ZN10tests_hook19SetUpTestsIfPresentEv
__ZN3ios8provider12InitializeUIEv
-[AppState userInteracted]
__ZN31ChromeWebUIIOSControllerFactory11GetInstanceEv
__ZN3web25WebUIIOSControllerFactory15RegisterFactoryEPS0_
__ZNSt4__Cr6vectorIPN3web25WebUIIOSControllerFactoryENS_9allocatorIS3_EEE21__push_back_slow_pathIRKS3_EEPS3_OT_
+[EmptyNSURLCache emptyNSURLCache]
-[AppState mainBrowserState]
-[PostRestoreAppAgent .cxx_construct]
__ZN20PromosManagerFactory18GetForBrowserStateEP18ChromeBrowserState
__ZNK20PromosManagerFactory20GetBrowserStateToUseEPN3web12BrowserStateE
__ZNK20PromosManagerFactory23BuildServiceInstanceForEPN3web12BrowserStateE
__ZN18feature_engagement14TrackerFactory18GetForBrowserStateEP18ChromeBrowserState
__ZNK18feature_engagement14TrackerFactory20GetBrowserStateToUseEPN3web12BrowserStateE
__ZNK18feature_engagement14TrackerFactory23BuildServiceInstanceForEPN3web12BrowserStateE
__ZN18feature_engagement30CreateFeatureEngagementTrackerEPN3web12BrowserStateE
__ZN10tests_hook19FETDemoModeOverrideEv
__ZN27DefaultBrowserEventExporterC1Ev
__ZNSt4__Cr11make_uniqueI27IOSTrackerSessionControllerJEEENS_11__unique_ifIT_E15__unique_singleEDpOT0_
__ZN27IOSTrackerSessionControllerC1EN4base7raw_ptrINS0_5ClockELN15partition_alloc8internal12RawPtrTraitsE0EEE
__ZN27IOSTrackerSessionControllerC2EN4base7raw_ptrINS0_5ClockELN15partition_alloc8internal12RawPtrTraitsE0EEE
__ZN23SafeBrowsingServiceImpl15IOThreadEnabler21SetUpURLLoaderFactoryE13scoped_refptrIS_E
__ZN4base8internal9BindStateILb1ELb1ELb0EM23SafeBrowsingServiceImplFvN4mojo15PendingReceiverIN7network5mojom16URLLoaderFactoryEEEEJ13scoped_refptrIS2_ES8_EEC2ISA_JRSC_S8_EQntsr18CancellationTraitsE14is_cancellableEEPFvvEOT_DpOT0_
__ZN4base8internal9BindStateILb1ELb1ELb0EMN23SafeBrowsingServiceImpl15IOThreadEnablerEFv13scoped_refptrIS2_EN4mojo15PendingReceiverIN7network5mojom14NetworkContextEEERKNS_8FilePathEEJS4_IS3_ES5_SB_SC_EE7DestroyEPKNS0_13BindStateBaseE
__ZN4base8internal9BindStateILb1ELb1ELb0EMN23SafeBrowsingServiceImpl15IOThreadEnablerEFv13scoped_refptrIS2_EN4mojo15PendingReceiverIN7network5mojom14NetworkContextEEERKNS_8FilePathEEJS4_IS3_ES5_SB_SC_EED2Ev
__ZN4base8internal7InvokerINS0_13FunctorTraitsIOMN23SafeBrowsingServiceImpl15IOThreadEnablerEFvbEJO13scoped_refptrIS4_EObEEENS0_9BindStateILb1ELb1ELb0ES6_JS9_bEEEFvvEE7RunOnceEPNS0_13BindStateBaseE
__ZN23SafeBrowsingServiceImpl15IOThreadEnabler22SetSafeBrowsingEnabledEb
__ZN23SafeBrowsingServiceImpl15IOThreadEnabler26StartSafeBrowsingDBManagerEv
__ZN12_GLOBAL__N_134StartSafeBrowsingDBManagerInternalE13scoped_refptrIN13safe_browsing27SafeBrowsingDatabaseManagerEES0_IN7network33WeakWrapperSharedURLLoaderFactoryEE
__ZN4base8internal9BindStateILb1ELb1ELb0EMN23SafeBrowsingServiceImpl15IOThreadEnablerEFvbEJ13scoped_refptrIS3_EbEE7DestroyEPKNS0_13BindStateBaseE
__ZN12_GLOBAL__N_128FieldTrialListObserverBridge26OnFieldTrialGroupFinalizedERKN4base10FieldTrialERKNSt4__Cr12basic_stringIcNS5_11char_traitsIcEENS5_9allocatorIcEEEE
__ZNSt4__Cr6__treeINS_12__value_typeINS_12basic_stringIcNS_11char_traitsIcEENS_9allocatorIcEEEES7_EENS_19__map_value_compareIS7_S8_NS_4lessIS7_EELb1EEENS5_IS8_EEE30__emplace_hint_unique_key_argsIS7_JRKNS_4pairIKS7_S7_EEEEENSG_INS_15__tree_iteratorIS8_PNS_11__tree_nodeIS8_PvEElEEbEENS_21__tree_const_iteratorIS8_SP_lEERKT_DpOT0_
__ZNSt4__Cr6__treeINS_12__value_typeINS_12basic_stringIcNS_11char_traitsIcEENS_9allocatorIcEEEES7_EENS_19__map_value_compareIS7_S8_NS_4lessIS7_EELb1EEENS5_IS8_EEE12__find_equalIS7_EERPNS_16__tree_node_baseIPvEENS_21__tree_const_iteratorIS8_PNS_11__tree_nodeIS8_SH_EElEERPNS_15__tree_end_nodeISJ_EESK_RKT_
__ZN17PromosManagerImplC1EP11PrefServicePN4base5ClockEPN18feature_engagement7TrackerE
__ZN17PromosManagerImplC2EP11PrefServicePN4base5ClockEPN18feature_engagement7TrackerE
__ZN13PromosManagerC2Ev
__ZN17PromosManagerImpl4InitEv
__ZNK17PromosManagerImpl12ActivePromosERKN4base5Value4ListE
__ZNSt4__Cr6__treeIN14promos_manager5PromoENS_4lessIS2_EENS_9allocatorIS2_EEE25__emplace_unique_key_argsIS2_JRKS2_EEENS_4pairINS_15__tree_iteratorIS2_PNS_11__tree_nodeIS2_PvEElEEbEERKT_DpOT0_
__ZNSt4__Cr6__treeIN14promos_manager5PromoENS_4lessIS2_EENS_9allocatorIS2_EEE7destroyEPNS_11__tree_nodeIS2_PvEE
__ZN17PromosManagerImpl23InitializePendingPromosEv
__ZNSt4__Cr6__treeINS_12__value_typeIN14promos_manager5PromoEN4base4TimeEEENS_19__map_value_compareIS3_S6_NS_4lessIS3_EELb1EEENS_9allocatorIS6_EEE7destroyEPNS_11__tree_nodeIS6_PvEE
__ZN28AuthenticationServiceFactory18GetForBrowserStateEP18ChromeBrowserState
-[PostRestoreAppAgent initWithPromosManager:authenticationService:identityManager:localState:]
-[PostRestoreAppAgent setAppState:]
-[PostRestoreAppAgent appState:didTransitionFromInitStage:]
-[PostRestoreAppAgent appState]
__Z21IsDockingPromoEnabledv
__Z33DockingPromoExperimentTypeEnabledv
__ZN4base6subtle30ThreadTicksNowIgnoringOverrideEv
-[DockingPromoAppAgent setAppState:]
-[DockingPromoAppAgent appState:didTransitionFromInitStage:]
-[MainController performBrowserBackgroundInitialisation:]
__ZN4base8internal9BindStateILb0ELb1ELb0EU8__strongU13block_pointerFvvEJEE6CreateIRS4_JEEEPS5_PS2_OT_DpOT0_
__ZN32SessionRestorationServiceFactory27MigrateSessionStorageFormatEP18ChromeBrowserStateNS_13StorageFormatEN4base12OnceCallbackIFvvEEE
__ZNK32SessionRestorationServiceFactory20GetBrowserStateToUseEPN3web12BrowserStateE
__ZN4base23UmaHistogramEnumerationI29SessionHistogramStorageFormatEEvPKcT_
__ZN4base8internal7InvokerINS0_13FunctorTraitsIOU8__strongU13block_pointerFvvEJEEENS0_9BindStateILb0ELb1ELb0ES5_JEEES3_E7RunOnceEPNS0_13BindStateBaseE
___56-[MainController startUpBrowserBackgroundInitialization]_block_invoke
__ZN4base8internal9BindStateILb0ELb1ELb0EU8__strongU13block_pointerFvvEJEE7DestroyEPKNS0_13BindStateBaseE
___destroy_helper_block_e8_32w
__Z58SaveFeedBackgroundRefreshCapabilityEnabledForNextColdStartv
-[EnterpriseAppAgent shouldShowEnterpriseLoadScreen]
-[EnterpriseAppAgent setPolicyConnector:]
-[EnterpriseAppAgent policyConnector]
-[EnterpriseAppAgent appState]
-[MainController isFirstRun]
-[MainController maybeContinueForegroundInitialization]
-[AppState removeAgent:]
-[EnterpriseAppAgent dealloc]
-[SceneState removeObserver:]
-[CRBProtocolObservers removeObserver:]
-[AppState removeObserver:]
-[EnterpriseAppAgent .cxx_destruct]
-[SceneDelegate sceneWillEnterForeground:]
-[IncognitoBlockerSceneAgent hideOverlay]
-[IncognitoReauthSceneAgent closeMediaPresentations]
-[StartSurfaceSceneAgent logBackgroundDurationMetricForActivationLevel:]
__Z45GetTimeSinceMostRecentTabWasOpenForSceneStateP10SceneState
-[MainController isColdStart]
-[StartSurfaceSceneAgent showStartSurfaceIfNecessary]
-[StartSurfaceSceneAgent setWaitingForAppStateAfterSceneStateReady:]
-[MainController sceneState:transitionedToActivationLevel:]
-[MainController startUpBrowserForegroundInitialization]
-[MainController postCrashAction]
-[AppState resumingFromSafeMode]
__ZN22ApplicationContextImpl20WasLastShutdownCleanEv
-[AppState setPostCrashAction:]
-[MainController startUpBeforeFirstWindowCreated]
__ZN22ApplicationContextImpl20OnAppEnterForegroundEv
__ZN22ApplicationContextImpl15OnAppEnterStateENS_8AppStateE
-[MetricsMediator updateMetricsStateBasedOnPrefsUserTriggered:]
-[MetricsMediator areMetricsEnabled]
__ZN18experimental_flags21IsStartupCrashEnabledEv
-[MetricsMediator setMetricsEnabled:]
__ZN12crash_helper10SetEnabledEb
__ZN12crash_helper6common23SetUserEnabledUploadingEb
-[MainThreadFreezeDetector setEnabled:]
___39-[MainThreadFreezeDetector setEnabled:]_block_invoke
___copy_helper_block_e8_32s
-[MainThreadFreezeDetector stop]
-[MainThreadFreezeDetector setRunning:]
-[MetricsMediator setAppGroupMetricsEnabled:]
__ZN9app_group8main_app14DisableMetricsEv
__ZN9app_group16ApplicationGroupEv
___39-[MainThreadFreezeDetector setEnabled:]_block_invoke_2
-[MainThreadFreezeDetector handleLastSessionReport]
-[MainThreadFreezeDetector restoreLastSessionReportIfNeeded]
__ZN16metrics_mediator17RecordWidgetUsageEN4base4spanIKNS_22HistogramNameCountPairELm18446744073709551615EPS3_EE
__ZN4base25CheckedContiguousIteratorIKN16metrics_mediator22HistogramNameCountPairEEC2EPS3_S5_S5_
__ZNK4base25CheckedContiguousIteratorIKN16metrics_mediator22HistogramNameCountPairEE15CheckComparableERKS4_
__ZNK4base25CheckedContiguousIteratorIKN16metrics_mediator22HistogramNameCountPairEEdeEv
__ZN9app_group17HistogramCountKeyEP8NSStringi
__ZN4base25CheckedContiguousIteratorIKN16metrics_mediator22HistogramNameCountPairEEppEv
+[MetricKitSubscriber sharedInstance]
-[MetricKitSubscriber setEnabled:]
-[MainController crashIfRequested]
__ZN18experimental_flags32MustClearApplicationGroupSandboxEv
__ZN4base5apple12BaseBundleIDEv
__ZN22ApplicationContextImpl25GetComponentUpdateServiceEv
__ZN17component_updater35MakeIOSComponentUpdaterConfiguratorEPKN4base11CommandLineE
__ZNK17component_updater12_GLOBAL__N_115IOSConfigurator15GetCrxCachePathEv
__ZNK17component_updater12_GLOBAL__N_115IOSConfigurator16GetPersistedDataEv
___destroy_helper_block_e8_32s
-[PreviousSessionInfo resetConnectedSceneSessionIDs]
-[PreviousSessionInfo synchronizeSceneSessionIDs]
-[PreviousSessionInfo connectedSceneSessionsIDs]
+[SpotlightManager spotlightManagerWithBrowserState:]
__ZN9spotlight20IsSpotlightAvailableEv
____ZN9spotlight20IsSpotlightAvailableEv_block_invoke
-[SpotlightManager .cxx_construct]
-[SpotlightManager initWithBrowserState:]
+[TopSitesSpotlightManager topSitesSpotlightManagerWithBrowserState:]
-[TopSitesSpotlightManager .cxx_construct]
+[SpotlightInterface defaultInterface]
-[SpotlightInterface initWithSearchableIndex:maxAttempts:]
-[SearchableItemFactory .cxx_construct]
-[SearchableItemFactory initWithLargeIconService:domain:useTitleInIdentifiers:]
-[TopSitesSpotlightManager initWithLargeIconService:topSites:spotlightInterface:searchableItemFactory:]
-[BaseSpotlightManager initWithSpotlightInterface:searchableItemFactory:]
__ZN23SpotlightTopSitesBridgeC2EP24TopSitesSpotlightManagerPN7history8TopSitesE
+[BookmarksSpotlightManager bookmarksSpotlightManagerWithBrowserState:]
-[BookmarksSpotlightManager .cxx_construct]
-[BookmarksSpotlightManager initWithLargeIconService:localOrSyncableBookmarkModel:accountBookmarkModel:spotlightInterface:searchableItemFactory:]
-[BookmarksSpotlightManager attachBookmarkModel]
__ZN19BookmarkModelBridgeC1EPU38objcproto27BookmarkModelBridgeObserver11objc_objectP19LegacyBookmarkModel
__ZN19BookmarkModelBridgeC2EPU38objcproto27BookmarkModelBridgeObserver11objc_objectP19LegacyBookmarkModel
__ZN4base17ScopedObservationI19LegacyBookmarkModelN9bookmarks21BookmarkModelObserverEEC2EPS3_
__ZN4base17ScopedObservationI19LegacyBookmarkModelN9bookmarks21BookmarkModelObserverEE7ObserveEPS1_
+[ActionsSpotlightManager actionsSpotlightManager]
-[ActionsSpotlightManager initWithSpotlightInterface:searchableItemFactory:]
+[ReadingListSpotlightManager readingListSpotlightManagerWithBrowserState:]
-[ReadingListSpotlightManager .cxx_construct]
-[ReadingListSpotlightManager initWithLargeIconService:readingListModel:spotlightInterface:searchableItemFactory:]
__ZN22ReadingListModelBridgeC1EPU41objcproto30ReadingListModelBridgeObserver11objc_objectP16ReadingListModel
__ZN22ReadingListModelBridgeC2EPU41objcproto30ReadingListModelBridgeObserver11objc_objectP16ReadingListModel
+[OpenTabsSpotlightManager openTabsSpotlightManagerWithBrowserState:]
-[OpenTabsSpotlightManager .cxx_construct]
-[OpenTabsSpotlightManager initWithLargeIconService:browserList:spotlightInterface:searchableItemFactory:]
__ZNSt4__Cr5dequeIN4base7WeakPtrIN3web8WebStateEEENS_9allocatorIS5_EEE13__move_assignERS8_NS_17integral_constantIbLb1EEE
__ZNSt4__Cr5dequeIN4base7WeakPtrIN3web8WebStateEEENS_9allocatorIS5_EEE13shrink_to_fitEv
__ZNSt4__Cr14__split_bufferIPN4base7WeakPtrIN3web8WebStateEEENS_9allocatorIS6_EEE13shrink_to_fitEv
__ZNSt4__Cr5dequeIN4base7WeakPtrIN3web8WebStateEEENS_9allocatorIS5_EEED2Ev
__ZN25BrowserListObserverBridgeC1EPU30objcproto19BrowserListObserver11objc_object
__ZN3web22WebStateObserverBridgeC1EPU30objcproto19CRWWebStateObserver11objc_object
-[OpenTabsSpotlightManager startObservingAllWebStates]
-[OpenTabsSpotlightManager startObservingAllWebStateLists]
__ZN28ShareExtensionServiceFactory18GetForBrowserStateEP18ChromeBrowserState
__ZN28ShareExtensionServiceFactoryC2Ev
__ZNK28ShareExtensionServiceFactory20GetBrowserStateToUseEPN3web12BrowserStateE
__ZNK28ShareExtensionServiceFactory23BuildServiceInstanceForEPN3web12BrowserStateE
__ZN21ShareExtensionServiceC1EPN9bookmarks13BookmarkModelEP16ReadingListModel
__ZN21ShareExtensionServiceC2EPN9bookmarks13BookmarkModelEP16ReadingListModel
__ZN21ShareExtensionService10InitializeEv
-[WindowConfigurationRecorder .cxx_construct]
-[WindowConfigurationRecorder init]
-[WindowConfigurationRecorder scheduleRecordConfiguration]
-[AppState postCrashAction]
__ZN4base23UmaHistogramEnumerationI15PostCrashActionEEvPKcT_
-[AppState completeUIInitialization]
__Z20IsWebChannelsEnabledv
__Z33IsDiscoverFeedServiceCreatedEarlyv
__Z16IsFirstRunRecentRKN4base9TimeDeltaE
__ZN18experimental_flags18GetFirstRunRecencyEv
__ZN8FirstRun15GetSentinelInfoEv
__Z43IsContentPushNotificationsProvisionalBypassv
__Z41ContentNotificationsExperimentTypeEnabledv
-[SceneState UIEnabled]
-[SceneController initializeUI]
-[SceneController startUpChromeUI]
-[BrowserViewWrangler .cxx_construct]
-[SceneController browsingDataCommandsHandler]
-[CommandDispatcher strictCallableForProtocol:]
-[CommandDispatcher dispatchingForProtocol:]
-[BrowserViewWrangler initWithBrowserState:sceneState:applicationEndpoint:settingsEndpoint:browsingDataEndpoint:]
__ZN7Browser6CreateEP18ChromeBrowserStateP10SceneState
__ZN11BrowserImplC2EP18ChromeBrowserStateP10SceneStateP17CommandDispatcherPS_N27BrowserWebStateListDelegate15InsertionPolicyENS7_16ActivationPolicyE
__ZN27BrowserWebStateListDelegateC2ENS_15InsertionPolicyENS_16ActivationPolicyE
__ZN12WebStateListC1EP20WebStateListDelegate
__ZN12WebStateListC2EP20WebStateListDelegate
__Z19AttachBrowserAgentsP7Browser
__ZN11BrowserImpl15GetBrowserStateEv
__ZNK11BrowserImpl10IsInactiveEv
__ZN15BrowserUserDataI26LiveTabContextBrowserAgentE16CreateForBrowserIJEEEvP7BrowserDpOT_
__ZN26LiveTabContextBrowserAgentC1EP7Browser
__ZN26LiveTabContextBrowserAgentC2EP7Browser
__ZN11BrowserImpl15GetWebStateListEv
__ZN15BrowserUserDataI24TabInsertionBrowserAgentE16CreateForBrowserIJEEEvP7BrowserDpOT_
__ZN24TabInsertionBrowserAgentC1EP7Browser
__ZN24TabInsertionBrowserAgentC2EP7Browser
__Z32AttachInfobarOverlayBrowserAgentP7Browser
__ZN15BrowserUserDataI26InfobarOverlayBrowserAgentE16CreateForBrowserIJEEEvP7BrowserDpOT_
__ZN26InfobarOverlayBrowserAgentC1EP7Browser
__ZN23OverlayBrowserAgentBaseC2EP7Browser
__ZN23OverlayBrowserAgentBase26CallbackInstallationDriverC2EP7BrowserPS_
__ZN4base28ScopedMultiSourceObservationI16OverlayPresenter24OverlayPresenterObserverEC2EPS2_
__ZN26InfobarOverlayBrowserAgent25OverlayVisibilityObserverC2EP7BrowserPS_
__ZN16OverlayPresenter11FromBrowserEP7Browser15OverlayModality
__ZN15OverlayUserDataIN20OverlayPresenterImpl9ContainerEE17CreateForUserDataIJRP7BrowserEEEvPN4base16SupportsUserDataEDpOT_
__ZN20OverlayPresenterImpl9ContainerC2EP7Browser
__ZN15OverlayUserDataIN20OverlayPresenterImpl9ContainerEE19CreateAuxiliaryDataEPN4base16SupportsUserDataE
__ZN20OverlayPresenterImpl9Container20PresenterForModalityE15OverlayModality
__ZNSt4__Cr6__treeINS_12__value_typeI15OverlayModalityNS_10unique_ptrI20OverlayPresenterImplNS_14default_deleteIS4_EEEEEENS_19__map_value_compareIS2_S8_NS_4lessIS2_EELb1EEENS_9allocatorIS8_EEE25__emplace_unique_key_argsIS2_JRKNS_21piecewise_construct_tENS_5tupleIJRKS2_EEENSK_IJEEEEEENS_4pairINS_15__tree_iteratorIS8_PNS_11__tree_nodeIS8_PvEElEEbEERKT_DpOT0_
__ZN20OverlayPresenterImplC2EP7Browser15OverlayModality
__ZN4base17ScopedObservationI7Browser15BrowserObserverEC2EPS2_
__ZN4base17ScopedObservationI7Browser15BrowserObserverE7ObserveEPS1_
__ZN11BrowserImpl11AddObserverEP15BrowserObserver
__ZN4base12ObserverListI15BrowserObserverLb1ELb1ENS_8internal22CheckedObserverAdapterEE11AddObserverEPS1_
__ZN12WebStateList11AddObserverEP20WebStateListObserver
__ZN4base12ObserverListI20WebStateListObserverLb1ELb1ENS_8internal22CheckedObserverAdapterEE11AddObserverEPS1_
__ZNK12WebStateList17GetActiveWebStateEv
__ZN20OverlayPresenterImpl17SetActiveWebStateEPN3web8WebStateEb
__ZN4base28ScopedMultiSourceObservationI16OverlayPresenter24OverlayPresenterObserverE14AddObservationEPS1_
__ZNSt4__Cr6vectorIN4base7raw_ptrI16OverlayPresenterLN15partition_alloc8internal12RawPtrTraitsE0EEENS_9allocatorIS7_EEE21__push_back_slow_pathIS7_EEPS7_OT_
__ZThn24_N20OverlayPresenterImpl11AddObserverEP24OverlayPresenterObserver
__ZN4base12ObserverListI24OverlayPresenterObserverLb1ELb1ENS_8internal22CheckedObserverAdapterEE11AddObserverEPS1_
__ZN26InfobarOverlayBrowserAgent49AddDefaultInfobarInteractionHandlerForInfobarTypeE11InfobarType
__ZN38DefaultInfobarBannerInteractionHandlerC1E11InfobarType
__ZN31InfobarBannerInteractionHandlerC2EPK21OverlayRequestSupport
__ZN25InfobarInteractionHandlerC1E11InfobarTypeNSt4__Cr10unique_ptrINS_7HandlerENS1_14default_deleteIS3_EEEES6_
__ZN26InfobarOverlayBrowserAgent28AddInfobarInteractionHandlerENSt4__Cr10unique_ptrI25InfobarInteractionHandlerNS0_14default_deleteIS2_EEEE
__ZNSt4__Cr6__treeINS_12__value_typeI11InfobarTypeNS_10unique_ptrI25InfobarInteractionHandlerNS_14default_deleteIS4_EEEEEENS_19__map_value_compareIS2_S8_NS_4lessIS2_EELb1EEENS_9allocatorIS8_EEE25__emplace_unique_key_argsIS2_JRKNS_21piecewise_construct_tENS_5tupleIJRKS2_EEENSK_IJEEEEEENS_4pairINS_15__tree_iteratorIS8_PNS_11__tree_nodeIS8_PvEElEEbEERKT_DpOT0_
__ZN25InfobarInteractionHandler29CreateBannerCallbackInstallerEv
__ZN31InfobarBannerInteractionHandler15CreateInstallerEv
__ZN31InfobarBannerInteractionHandler21CreateBannerInstallerEv
__ZN44InfobarBannerOverlayRequestCallbackInstallerC1EPK21OverlayRequestSupportP31InfobarBannerInteractionHandler
__ZN44InfobarBannerOverlayRequestCallbackInstallerC2EPK21OverlayRequestSupportP31InfobarBannerInteractionHandler
__ZN23OverlayBrowserAgentBase12AddInstallerENSt4__Cr10unique_ptrI31OverlayRequestCallbackInstallerNS0_14default_deleteIS2_EEEE15OverlayModality
__ZNSt4__Cr6__treeINS_12__value_typeI15OverlayModalityN23OverlayBrowserAgentBase24CallbackInstallerStorageEEENS_19__map_value_compareIS2_S5_NS_4lessIS2_EELb1EEENS_9allocatorIS5_EEE25__emplace_unique_key_argsIS2_JRKNS_21piecewise_construct_tENS_5tupleIJRKS2_EEENSH_IJEEEEEENS_4pairINS_15__tree_iteratorIS5_PNS_11__tree_nodeIS5_PvEElEEbEERKT_DpOT0_
__ZNSt4__Cr6vectorINS_10unique_ptrI31OverlayRequestCallbackInstallerNS_14default_deleteIS2_EEEENS_9allocatorIS5_EEE21__push_back_slow_pathIS5_EEPS5_OT_
__ZN23OverlayBrowserAgentBase26CallbackInstallationDriver24StartInstallingCallbacksE15OverlayModality
__ZN25InfobarInteractionHandler28CreateModalCallbackInstallerEv
__ZN38ConfirmInfobarBannerInteractionHandlerC1Ev
__ZN49SaveAddressProfileInfobarBannerInteractionHandlerC1Ev
__ZN48SaveAddressProfileInfobarModalInteractionHandlerC1Ev
__ZN30InfobarModalInteractionHandlerC2Ev
__ZN30InfobarModalInteractionHandler15CreateInstallerEv
__ZN48SaveAddressProfileInfobarModalInteractionHandler20CreateModalInstallerEv
__ZN61SaveAddressProfileInfobarModalOverlayRequestCallbackInstallerC1EP48SaveAddressProfileInfobarModalInteractionHandler
__ZN61SaveAddressProfileInfobarModalOverlayRequestCallbackInstallerC2EP48SaveAddressProfileInfobarModalInteractionHandler
__ZN43InfobarModalOverlayRequestCallbackInstallerC2EPK21OverlayRequestSupportP30InfobarModalInteractionHandler
__ZN15BrowserUserDataI32SyncedWindowDelegateBrowserAgentE16CreateForBrowserIJEEEvP7BrowserDpOT_
__ZN32SyncedWindowDelegateBrowserAgentC1EP7Browser
__ZN32SyncedWindowDelegateBrowserAgentC2EP7Browser
__ZN15BrowserUserDataI27WebUsageEnablerBrowserAgentE16CreateForBrowserIJEEEvP7BrowserDpOT_
__ZN27WebUsageEnablerBrowserAgentC1EP7Browser
__ZN27WebUsageEnablerBrowserAgentC2EP7Browser
__ZN4base17ScopedObservationI12WebStateList20WebStateListObserverEC2EPS2_
__ZN4base17ScopedObservationI12WebStateList20WebStateListObserverE7ObserveEPS1_
__ZN15BrowserUserDataI25DeviceSharingBrowserAgentE16CreateForBrowserIJEEEvP7BrowserDpOT_
__ZN25DeviceSharingBrowserAgentC1EP7Browser
__ZN25DeviceSharingBrowserAgentC2EP7Browser
__ZN34ActiveWebStateObservationForwarderC1EP12WebStateListPN3web16WebStateObserverE
__ZN34ActiveWebStateObservationForwarderC2EP12WebStateListPN3web16WebStateObserverE
__ZN4base17ScopedObservationIN3web8WebStateENS1_16WebStateObserverEEC2EPS3_
__ZN15BrowserUserDataI30UrlLoadingNotifierBrowserAgentE16CreateForBrowserIJEEEvP7BrowserDpOT_
__ZN30UrlLoadingNotifierBrowserAgentC1EP7Browser
__ZN15BrowserUserDataI23AppLauncherBrowserAgentE16CreateForBrowserIJEEEvP7BrowserDpOT_
__ZN23AppLauncherBrowserAgentC1EP7Browser
__ZN23AppLauncherBrowserAgentC2EP7Browser
__ZN23AppLauncherBrowserAgent17TabHelperDelegateC2EP7Browser
__ZN26TabHelperDelegateInstallerI20AppLauncherTabHelper28AppLauncherTabHelperDelegateXadL_ZNS0_11SetDelegateEPS1_EEE9InstallerC2ES2_P12WebStateList
__ZN26TabHelperDelegateInstallerI20AppLauncherTabHelper28AppLauncherTabHelperDelegateXadL_ZNS0_11SetDelegateEPS1_EEE21BrowserShutdownHelperC2EPNS3_9InstallerEP7Browser
-[AppLauncherSceneStateObserver .cxx_construct]
__ZN4base14WeakPtrFactoryIN23AppLauncherBrowserAgent17TabHelperDelegateEE10GetWeakPtrEvQntsr3stdE10is_const_vIT_E
__ZN4base8internal9BindStateILb1ELb1ELb0EMN23AppLauncherBrowserAgent17TabHelperDelegateEFvvEJNS_7WeakPtrIS3_EEEEC2IS5_JS7_EQsr18CancellationTraitsE14is_cancellableEEPFvvEOT_DpOT0_
-[AppLauncherSceneStateObserver initWithTransitionCallback:]
__ZN11BrowserImpl13GetSceneStateEv
__ZN15BrowserUserDataI16LensBrowserAgentE16CreateForBrowserIJEEEvP7BrowserDpOT_
__ZN16LensBrowserAgentC1EP7Browser
__ZN16LensBrowserAgentC2EP7Browser
__ZN15BrowserUserDataI25WebNavigationBrowserAgentE16CreateForBrowserIJEEEvP7BrowserDpOT_
__ZN25WebNavigationBrowserAgentC1EP7Browser
__ZN25WebNavigationBrowserAgentC2EP7Browser
__ZN15BrowserUserDataI24TabParentingBrowserAgentE16CreateForBrowserIJEEEvP7BrowserDpOT_
__ZN24TabParentingBrowserAgentC1EP7Browser
__ZN24TabParentingBrowserAgentC2EP7Browser
__ZN15BrowserUserDataI35ClosingWebStateObserverBrowserAgentE16CreateForBrowserIJEEEvP7BrowserDpOT_
__ZN35ClosingWebStateObserverBrowserAgentC1EP7Browser
__ZN35ClosingWebStateObserverBrowserAgentC2EP7Browser
__ZN15BrowserUserDataI20SnapshotBrowserAgentE16CreateForBrowserIJEEEvP7BrowserDpOT_
__ZN20SnapshotBrowserAgentC1EP7Browser
__ZN20SnapshotBrowserAgentC2EP7Browser
__ZN15BrowserUserDataI21TabPickupBrowserAgentE16CreateForBrowserIJEEEvP7BrowserDpOT_
__ZN21TabPickupBrowserAgentC1EP7Browser
__ZN21TabPickupBrowserAgentC2EP7Browser
__ZN4base17ScopedObservationIN8infobars14InfoBarManagerENS2_8ObserverEEC2EPS3_
__ZN4base8internal17UnretainedWrapperI21TabPickupBrowserAgentNS_17unretained_traits12MayNotDangleELN15partition_alloc8internal12RawPtrTraitsE0EEC2EPS2_QeqT1_LS7_0E
__ZN4base8internal9BindStateILb1ELb1ELb0EM21TabPickupBrowserAgentFvvEJNS0_17UnretainedWrapperIS2_NS_17unretained_traits12MayNotDangleELN15partition_alloc8internal12RawPtrTraitsE0EEEEEC2IS4_JSB_EQntsr18CancellationTraitsE14is_cancellableEEPFvvEOT_DpOT0_
__ZN15BrowserUserDataI18FollowBrowserAgentE16CreateForBrowserIJEEEvP7BrowserDpOT_
__ZN18FollowBrowserAgentC1EP7Browser
__ZN18FollowBrowserAgentC2EP7Browser
__ZN15BrowserUserDataI25PolicyWatcherBrowserAgentE16CreateForBrowserIJEEEvP7BrowserDpOT_
__ZN25PolicyWatcherBrowserAgentC1EP7Browser
__ZN25PolicyWatcherBrowserAgentC2EP7Browser
__ZN4base17ScopedObservationI21AuthenticationService29AuthenticationServiceObserverEC2EPS2_
__ZN15BrowserUserDataI25SendTabToSelfBrowserAgentE16CreateForBrowserIJEEEvP7BrowserDpOT_
__ZN25SendTabToSelfBrowserAgentC1EP7Browser
__ZN25SendTabToSelfBrowserAgentC2EP7Browser
__ZN4base17ScopedObservationIN16send_tab_to_self18SendTabToSelfModelENS1_26SendTabToSelfModelObserverEEC2EPS3_
__ZN4base17ScopedObservationIN16send_tab_to_self18SendTabToSelfModelENS1_26SendTabToSelfModelObserverEE7ObserveEPS2_
__ZN15BrowserUserDataI28WebStateDelegateBrowserAgentE16CreateForBrowserIJP24TabInsertionBrowserAgentEEEvP7BrowserDpOT_
__ZN28WebStateDelegateBrowserAgentC1EP7BrowserP24TabInsertionBrowserAgent
__ZN28WebStateDelegateBrowserAgentC2EP7BrowserP24TabInsertionBrowserAgent
__ZN3web16WebStateDelegateC2Ev
__ZN32OverlayJavaScriptDialogPresenterC1Ev
__ZN15BrowserUserDataI22UrlLoadingBrowserAgentE16CreateForBrowserIJEEEvP7BrowserDpOT_
__ZN22UrlLoadingBrowserAgentC1EP7Browser
__ZN22UrlLoadingBrowserAgentC2EP7Browser
__ZN15BrowserUserDataI31WebStateListMetricsBrowserAgentE16CreateForBrowserIJP14SessionMetricsEEEvP7BrowserDpOT_
__ZN31WebStateListMetricsBrowserAgentC1EP7BrowserP14SessionMetrics
__ZN31WebStateListMetricsBrowserAgentC2EP7BrowserP14SessionMetrics
__ZN4base17ScopedObservationI25SessionRestorationService26SessionRestorationObserverEC2EPS2_
__ZN31AllWebStateObservationForwarderC1EP12WebStateListPN3web16WebStateObserverE
__ZN31AllWebStateObservationForwarderC2EP12WebStateListPN3web16WebStateObserverE
__ZN32SessionRestorationServiceFactory18GetForBrowserStateEP18ChromeBrowserState
__ZNK32SessionRestorationServiceFactory23BuildServiceInstanceForEPN3web12BrowserStateE
__ZN29SessionRestorationServiceImplC1EN4base9TimeDeltaEbRKNS0_8FilePathE13scoped_refptrINS0_19SequencedTaskRunnerEE
__ZN29SessionRestorationServiceImplC2EN4base9TimeDeltaEbRKNS0_8FilePathE13scoped_refptrINS0_19SequencedTaskRunnerEE
__ZN4base17ScopedObservationI25SessionRestorationService26SessionRestorationObserverE7ObserveEPS1_
__ZN29SessionRestorationServiceImpl11AddObserverEP26SessionRestorationObserver
__ZN4base12ObserverListI26SessionRestorationObserverLb1ELb1ENS_8internal22CheckedObserverAdapterEE11AddObserverEPS1_
__ZN15BrowserUserDataI28TabUsageRecorderBrowserAgentE16CreateForBrowserIJEEEvP7BrowserDpOT_
__ZN28TabUsageRecorderBrowserAgentC1EP7Browser
__ZN28TabUsageRecorderBrowserAgentC2EP7Browser
__ZN23PrerenderServiceFactory18GetForBrowserStateEP18ChromeBrowserState
__ZNK23PrerenderServiceFactory23BuildServiceInstanceForEPN3web12BrowserStateE
__ZN20PrerenderServiceImplC1EP18ChromeBrowserState
-[PreloadController .cxx_construct]
-[PreloadController initWithBrowserState:]
__ZN3web22WebStateDelegateBridgeC1EPU30objcproto19CRWWebStateDelegate11objc_object
__ZN18PrefObserverBridgeC1EPU31objcproto20PrefObserverDelegate11objc_object
__ZN18PrefObserverBridge27ObserveChangesForPreferenceERKNSt4__Cr12basic_stringIcNS0_11char_traitsIcEENS0_9allocatorIcEEEEP19PrefChangeRegistrar
__ZN4base8internal17UnretainedWrapperI18PrefObserverBridgeNS_17unretained_traits12MayNotDangleELN15partition_alloc8internal12RawPtrTraitsE0EEC2EPS2_QeqT1_LS7_0E
__ZN4base8internal9BindStateILb1ELb1ELb0EM18PrefObserverBridgeFvRKNSt4__Cr12basic_stringIcNS3_11char_traitsIcEENS3_9allocatorIcEEEEEJNS0_17UnretainedWrapperIS2_NS_17unretained_traits12MayNotDangleELN15partition_alloc8internal12RawPtrTraitsE0EEEEEC2ISD_JSK_EQntsr18CancellationTraitsE14is_cancellableEEPFvvEOT_DpOT0_
__ZN28ConnectionTypeObserverBridgeC1EPU41objcproto30CRConnectionTypeObserverBridge11objc_object
__ZN28ConnectionTypeObserverBridgeC2EPU41objcproto30CRConnectionTypeObserverBridge11objc_object
__ZN15BrowserUserDataI33StartSurfaceRecentTabBrowserAgentE16CreateForBrowserIJEEEvP7BrowserDpOT_
__ZN33StartSurfaceRecentTabBrowserAgentC1EP7Browser
__ZN33StartSurfaceRecentTabBrowserAgentC2EP7Browser
__ZN4base17ScopedObservationIN7favicon13FaviconDriverENS1_21FaviconDriverObserverEEC2EPS3_
__ZN15BrowserUserDataI21SyncErrorBrowserAgentE16CreateForBrowserIJEEEvP7BrowserDpOT_
__ZN21SyncErrorBrowserAgentC1EP7Browser
__ZN21SyncErrorBrowserAgentC2EP7Browser
__ZN22ApplicationContextImpl16GetUpgradeCenterEv
-[UpgradeCenter init]
-[UpgradeCenter shouldShowInfoBar]
-[UpgradeCenter isCurrentVersionObsolete]
__ZN15BrowserUserDataI25UpgradeCenterBrowserAgentE16CreateForBrowserIJRU8__strongP13UpgradeCenterEEEvP7BrowserDpOT_
__ZN25UpgradeCenterBrowserAgentC1EP7BrowserP13UpgradeCenter
__ZN25UpgradeCenterBrowserAgentC2EP7BrowserP13UpgradeCenter
__ZN15BrowserUserDataI26WebStateUpdateBrowserAgentE16CreateForBrowserIJEEEvP7BrowserDpOT_
__ZN26WebStateUpdateBrowserAgentC1EP7Browser
__ZN26WebStateUpdateBrowserAgentC2EP7Browser
__ZN15BrowserUserDataI23ReadingListBrowserAgentE16CreateForBrowserIJEEEvP7BrowserDpOT_
__ZN23ReadingListBrowserAgentC1EP7Browser
__ZN23ReadingListBrowserAgentC2EP7Browser
__ZN15BrowserUserDataI27PagePlaceholderBrowserAgentE16CreateForBrowserIJEEEvP7BrowserDpOT_
__ZN27PagePlaceholderBrowserAgentC1EP7Browser
__ZN27PagePlaceholderBrowserAgentC2EP7Browser
__ZN15BrowserUserDataI19FaviconBrowserAgentE16CreateForBrowserIJEEEvP7BrowserDpOT_
__ZN19FaviconBrowserAgentC1EP7Browser
__ZN19FaviconBrowserAgentC2EP7Browser
__ZN15BrowserUserDataI24UserActivityBrowserAgentE16CreateForBrowserIJEEEvP7BrowserDpOT_
__ZN24UserActivityBrowserAgentC1EP7Browser
__ZN24UserActivityBrowserAgentC2EP7Browser
__ZN15BrowserUserDataI23TabBasedIPHBrowserAgentE16CreateForBrowserIJEEEvP7BrowserDpOT_
__ZN23TabBasedIPHBrowserAgentC1EP7Browser
__ZN23TabBasedIPHBrowserAgentC2EP7Browser
__ZN18UrlLoadingObserverC2Ev
__ZN11BrowserImpl20GetCommandDispatcherEv
__ZN30UrlLoadingNotifierBrowserAgent11AddObserverEP18UrlLoadingObserver
__ZN4base12ObserverListI18UrlLoadingObserverLb1ELb1ENS_8internal22CheckedObserverAdapterEE11AddObserverEPS1_
__Z24IsContextualPanelEnabledv
__ZN3ios8provider19AttachBrowserAgentsEP7Browser
-[BrowserViewWrangler setupBrowser:]
__ZN15BrowserListImpl10AddBrowserEP7Browser
__ZNSt4__Cr6__treeIP7BrowserNS_4lessIS2_EENS_9allocatorIS2_EEE25__emplace_unique_key_argsIS2_JRKS2_EEENS_4pairINS_15__tree_iteratorIS2_PNS_11__tree_nodeIS2_PvEElEEbEERKT_DpOT0_
__ZN4base12ObserverListI19BrowserListObserverLb1ELb1ENS_8internal22CheckedObserverAdapterEE4IterC2EPKS4_
__ZN4base8internal12WeakLinkNodeINS_12ObserverListI19BrowserListObserverLb1ELb1ENS0_22CheckedObserverAdapterEEEE7SetListEPS5_
__ZN4base12ObserverListI19BrowserListObserverLb1ELb1ENS_8internal22CheckedObserverAdapterEE4Iter16EnsureValidIndexEv
__ZNK4base12ObserverListI19BrowserListObserverLb1ELb1ENS_8internal22CheckedObserverAdapterEE4ItereqERKS5_
__ZNK4base12ObserverListI19BrowserListObserverLb1ELb1ENS_8internal22CheckedObserverAdapterEE4Iter6is_endEv
__ZNK4base12ObserverListI19BrowserListObserverLb1ELb1ENS_8internal22CheckedObserverAdapterEE4Iter10GetCurrentEv
__ZN35AllWebStateListObservationRegistrar14OnBrowserAddedEPK11BrowserListP7Browser
__ZN4base28ScopedMultiSourceObservationI12WebStateList20WebStateListObserverE14AddObservationEPS1_
__ZNSt4__Cr6vectorIN4base7raw_ptrI12WebStateListLN15partition_alloc8internal12RawPtrTraitsE0EEENS_9allocatorIS7_EEE21__push_back_slow_pathIS7_EEPS7_OT_
__ZN25BrowserListObserverBridge14OnBrowserAddedEPK11BrowserListP7Browser
-[OpenTabsSpotlightManager browserList:browserAdded:]
-[BaseSpotlightManager isAppInBackground]
-[OpenTabsSpotlightManager addAllURLsFromWebStateList:]
-[BaseSpotlightManager isShuttingDown]
__ZN4base12ObserverListI19BrowserListObserverLb1ELb1ENS_8internal22CheckedObserverAdapterEE4IterD2Ev
__ZN4base12ObserverListI19BrowserListObserverLb1ELb1ENS_8internal22CheckedObserverAdapterEE7CompactEv
__ZNSt4__Cr9remove_ifINS_11__wrap_iterIPN4base8internal22CheckedObserverAdapterEEEZNS2_12ObserverListI19BrowserListObserverLb1ELb1ES4_E7CompactEvEUlRKT_E_EESA_SA_SA_T0_
-[BrowserViewWrangler dispatchToEndpointsForBrowser:]
+[ObservingSceneAgent agentFromScene:]
-[BrowserViewWrangler setSessionIDForBrowser:]
__ZN12session_util20GetSessionIdentifierEP7Browser
-[SceneState sceneSessionID]
__Z25SessionIdentifierForSceneP7UIScene
__ZN20SnapshotBrowserAgent12SetSessionIDERKNSt4__Cr12basic_stringIcNS0_11char_traitsIcEENS0_9allocatorIcEEEE
-[SnapshotStorage initWithStoragePath:legacyPath:]
-[LegacySnapshotLRUCache .cxx_construct]
-[LegacySnapshotLRUCache initWithCacheSize:]
__ZNSt4__Cr10unique_ptrIN4base8internal12LRUCacheBaseINS_4pairI10SnapshotIDU8__strongP11objc_objectEENS2_16GetKeyFromKVPairENS2_16LRUCacheKeyIndexIS5_NS_4lessIS5_EEEEEENS_14default_deleteISF_EEE5resetEPSF_
-[LegacyImageFileManager .cxx_construct]
-[LegacyImageFileManager initWithStoragePath:legacyPath:]
+[SnapshotImageScale imageScaleForDevice]
__ZN4base8internal9BindStateILb0ELb1ELb0EPFvRKNS_8FilePathES4_EJS2_S2_EEC2IRS5_JRS2_S4_EQntsr18CancellationTraitsE14is_cancellableEEPFvvEOT_DpOT0_
__ZN4base8internal9BindStateILb0ELb1ELb0EPFvRKNS_8FilePathEEJS2_EEC2IRS5_JRS2_EQntsr18CancellationTraitsE14is_cancellableEEPFvvEOT_DpOT0_
+[SnapshotStorageObservers observers]
__ZN4base8internal7InvokerINS0_13FunctorTraitsIOPFvRKNS_8FilePathES5_EJOS3_S9_EEENS0_9BindStateILb0ELb1ELb0ES7_JS3_S3_EEEFvvEE7RunOnceEPNS0_13BindStateBaseE
__ZN29SessionRestorationServiceImpl12SetSessionIDEP7BrowserRKNSt4__Cr12basic_stringIcNS2_11char_traitsIcEENS2_9allocatorIcEEEE
__ZN4base8internal17UnretainedWrapperI29SessionRestorationServiceImplNS_17unretained_traits12MayNotDangleELN15partition_alloc8internal12RawPtrTraitsE0EEC2EPS2_QeqT1_LS7_0E
__ZN4base8internal9BindStateILb1ELb1ELb0EM29SessionRestorationServiceImplFvP12WebStateListEJNS0_17UnretainedWrapperIS2_NS_17unretained_traits12MayNotDangleELN15partition_alloc8internal12RawPtrTraitsE0EEEEEC2IS6_JSD_EQntsr18CancellationTraitsE14is_cancellableEEPFvvEOT_DpOT0_
__ZN29SessionRestorationServiceImpl16WebStateListInfoC2ERKNSt4__Cr12basic_stringIcNS1_11char_traitsIcEENS1_9allocatorIcEEEEP12WebStateListPS0_N4base17RepeatingCallbackIFvSB_EEE
__ZN38SessionRestorationWebStateListObserverC1EP12WebStateListN4base17RepeatingCallbackIFvS1_EEE
__ZN12_GLOBAL__N_122CreateStorageDirectoryERKN4base8FilePathES3_
__ZN38SessionRestorationWebStateListObserverC2EP12WebStateListN4base17RepeatingCallbackIFvS1_EEE
__ZNSt4__Cr6__treeINS_12__value_typeIP12WebStateListNS_10unique_ptrIN29SessionRestorationServiceImpl16WebStateListInfoENS_14default_deleteIS6_EEEEEENS_19__map_value_compareIS3_SA_NS_4lessIS3_EELb1EEENS_9allocatorISA_EEE25__emplace_unique_key_argsIS3_JNS_4pairIS3_S9_EEEEENSJ_INS_15__tree_iteratorISA_PNS_11__tree_nodeISA_PvEElEEbEERKT_DpOT0_
__ZN19crash_report_helper30MonitorTabStateForWebStateListEP12WebStateList
+[CrashReporterTabStateObserver uniqueInstance]
-[CrashReporterTabStateObserver .cxx_construct]
-[CrashReporterTabStateObserver init]
-[CrashReporterTabStateObserver observeWebStateList:]
__ZNSt4__Cr6__treeINS_12__value_typeIP12WebStateListNS_10unique_ptrI31AllWebStateObservationForwarderNS_14default_deleteIS5_EEEEEENS_19__map_value_compareIS3_S9_NS_4lessIS3_EELb1EEENS_9allocatorIS9_EEE25__emplace_unique_key_argsIS3_JRKNS_21piecewise_construct_tENS_5tupleIJRKS3_EEENSL_IJEEEEEENS_4pairINS_15__tree_iteratorIS9_PNS_11__tree_nodeIS9_PvEElEEbEERKT_DpOT0_
__ZN19crash_report_helper26MonitorURLsForWebStateListEP12WebStateList
__ZN24CrashReporterURLObserver17GetSharedInstanceEv
__ZN24CrashReporterURLObserverC2EPU39objcproto28CrashReporterParameterSetter11objc_object
__ZN24CrashReporterURLObserver19ObserveWebStateListEP12WebStateList
__ZN11BrowserImpl21CreateInactiveBrowserEv
__ZN4base8internal9BindStateILb0ELb1ELb0EPFvRKNS_8FilePathES4_EJS2_S2_EE7DestroyEPKNS0_13BindStateBaseE
__ZN22ChromeBrowserStateImpl33GetOffTheRecordChromeBrowserStateEv
__ZN34OffTheRecordChromeBrowserStateImplC1E13scoped_refptrIN4base19SequencedTaskRunnerEEP18ChromeBrowserStateRKNS1_8FilePathE
__ZN34OffTheRecordChromeBrowserStateImplC2E13scoped_refptrIN4base19SequencedTaskRunnerEEP18ChromeBrowserStateRKNS1_8FilePathE
__Z32CreateIncognitoBrowserStatePrefsPN16sync_preferences19PrefServiceSyncableE
__ZNSt4__Cr6vectorIPKcNS_9allocatorIS2_EEE21__push_back_slow_pathIS2_EEPS2_OT_
__ZN12_GLOBAL__N_119DeleteAllGreyImagesERKN4base8FilePathE
__ZN34OffTheRecordChromeBrowserStateImpl16GetSyncablePrefsEv
__ZN36OffTheRecordChromeBrowserStateIOData6HandleC1EP18ChromeBrowserState
__ZN36OffTheRecordChromeBrowserStateIOData6HandleC2EP18ChromeBrowserState
__ZNK34OffTheRecordChromeBrowserStateImpl14IsOffTheRecordEv
__ZN34OffTheRecordChromeBrowserStateImpl29GetOriginalChromeBrowserStateEv
__ZN24OptimizationGuideService15GetHintsManagerEv
__ZN15BrowserListImpl19AddIncognitoBrowserEP7Browser
__ZN35AllWebStateListObservationRegistrar23OnIncognitoBrowserAddedEPK11BrowserListP7Browser
__ZN25BrowserListObserverBridge23OnIncognitoBrowserAddedEPK11BrowserListP7Browser
-[SceneController setBrowserViewWrangler:]
-[BrowserViewWrangler createMainCoordinatorAndInterface]
-[ChromeCoordinator .cxx_construct]
-[BrowserCoordinator .cxx_construct]
__ZN33BrowserViewControllerDependenciesC2Ev
-[ChromeCoordinator initWithBaseViewController:browser:]
__ZN11BrowserImpl9AsWeakPtrEv
__ZN4base14WeakPtrFactoryI7BrowserE10GetWeakPtrEvQntsr3stdE10is_const_vIT_E
-[BrowserCoordinator start]
-[BrowserCoordinator isStarted]
-[BrowserCoordinator viewController]
-[ChromeCoordinator browser]
__ZN41WebUsageEnablerBrowserAgentObserverBridgeC1EP27WebUsageEnablerBrowserAgentPU47objcproto36WebUsageEnablerBrowserAgentObserving11objc_object
__ZN4base17ScopedObservationI27WebUsageEnablerBrowserAgent35WebUsageEnablerBrowserAgentObserverEC2EPS2_
__ZN4base17ScopedObservationI27WebUsageEnablerBrowserAgent35WebUsageEnablerBrowserAgentObserverE7ObserveEPS1_
__ZN27WebUsageEnablerBrowserAgent11AddObserverEP35WebUsageEnablerBrowserAgentObserver
__ZN4base12ObserverListI35WebUsageEnablerBrowserAgentObserverLb1ELb1ENS_8internal22CheckedObserverAdapterEE11AddObserverEPS1_
-[BrowserCoordinator startTabLifeCycleMediator]
-[TabLifecycleMediator .cxx_construct]
-[TabLifecycleMediator initWithWebStateList:]
__ZN33WebStateDependencyInstallerBridgeC1EPU31objcproto20DependencyInstalling11objc_objectP12WebStateList
__ZN38WebStateDependencyInstallationObserverC1EP12WebStateListP19DependencyInstaller
__ZN38WebStateDependencyInstallationObserverC2EP12WebStateListP19DependencyInstaller
-[TabLifecycleMediator setPrerenderService:]
-[TabLifecycleMediator setCommandDispatcher:]
-[TabLifecycleMediator setTabHelperDelegate:]
-[TabLifecycleMediator setRepostFormDelegate:]
-[TabLifecycleMediator setTabInsertionBrowserAgent:]
-[TabLifecycleMediator setSnapshotGeneratorDelegate:]
-[TabLifecycleMediator setOverscrollActionsDelegate:]
-[TabLifecycleMediator setAppLauncherBrowserPresentationProvider:]
-[BrowserCoordinator setTabLifecycleMediator:]
-[BrowserCoordinator createViewControllerDependencies]
-[KeyCommandsProvider .cxx_construct]
-[KeyCommandsProvider initWithBrowser:]
-[KeyCommandsProvider setApplicationHandler:]
-[KeyCommandsProvider setSettingsHandler:]
-[KeyCommandsProvider setFindInPageHandler:]
-[KeyCommandsProvider setBrowserCoordinatorHandler:]
-[KeyCommandsProvider setBookmarksHandler:]
__ZN20PrerenderServiceImpl11SetDelegateEPU36objcproto25PreloadControllerDelegate11objc_object
-[PreloadController setDelegate:]
__ZN20FullscreenController11FromBrowserEP7Browser
__ZN20FullscreenController11UserDataKeyEv
__ZN24FullscreenControllerImplC2EP7Browser
-[ChromeBroadcaster init]
__ZN15FullscreenModelC1Ev
__ZN15FullscreenModelC2Ev
__ZN18FullscreenMediatorC1EP20FullscreenControllerP15FullscreenModel
__ZN18FullscreenMediatorC2EP20FullscreenControllerP15FullscreenModel
-[FullscreenWebViewResizer initWithModel:]
__ZN15FullscreenModel11AddObserverEP23FullscreenModelObserver
__ZN4base12ObserverListI23FullscreenModelObserverLb1ELb1ENS_8internal22CheckedObserverAdapterEE11AddObserverEPS1_
__ZN30FullscreenWebStateListObserverC1EP20FullscreenControllerP15FullscreenModelP18FullscreenMediator
__ZN30FullscreenWebStateListObserverC2EP20FullscreenControllerP15FullscreenModelP18FullscreenMediator
__ZN26FullscreenWebStateObserverC1EP20FullscreenControllerP15FullscreenModelP18FullscreenMediator
__ZN26FullscreenWebStateObserverC2EP20FullscreenControllerP15FullscreenModelP18FullscreenMediator
-[FullscreenWebViewProxyObserver initWithModel:mediator:]
__ZN25FullscreenBrowserObserverC1EP30FullscreenWebStateListObserverP7Browser
__ZN25FullscreenBrowserObserverC2EP30FullscreenWebStateListObserverP7Browser
__ZN30FullscreenWebStateListObserver15SetWebStateListEP12WebStateList
__ZN30FullscreenWebStateListObserver20WebStateWasActivatedEPN3web8WebStateE
__ZN26FullscreenWebStateObserver11SetWebStateEPN3web8WebStateE
-[ChromeBroadcastOberverBridge initWithObserver:]
-[FullscreenSystemNotificationObserver .cxx_construct]
-[FullscreenSystemNotificationObserver initWithController:mediator:]
-[ChromeBroadcaster addObserver:forSelector:]
-[ChromeBroadcaster observerInvocations]
-[ChromeBroadcaster observers]
+[BroadcastObservers observers]
-[ChromeBroadcaster items]
__Z27LayoutGuideCenterForBrowserP7Browser
-[LayoutGuideSceneAgent layoutGuideCenter]
__ZN21segmentation_platform34SegmentationPlatformServiceFactory28GetDispatcherForBrowserStateEP18ChromeBrowserState
-[BubblePresenter .cxx_construct]
-[BubblePresenter initWithDeviceSwitcherResultDispatcher:hostContentSettingsMap:prefService:tabStripCommandsHandler:tracker:webStateList:]
-[BubblePresenter setStarted:]
-[BubblePresenter setLayoutGuideCenter:]
-[BubblePresenter setDelegate:]
-[ToolbarCoordinator .cxx_construct]
-[ToolbarCoordinator initWithBrowser:]
-[AdaptiveToolbarCoordinator .cxx_construct]
-[AdaptiveToolbarCoordinator initWithBrowser:]
-[ToolbarAccessoryPresenter initWithIsIncognito:]
-[ToolbarAccessoryPresenter setToolbarLayoutGuide:]
-[SideSwipeMediator .cxx_construct]
-[SideSwipeMediator initWithFullscreenController:webStateList:]
-[SideSwipeMediator activeWebState]
-[SideSwipeMediator webStateList]
-[SideSwipeMediator setToolbarInteractionHandler:]
-[SideSwipeMediator setToolbarSnapshotProvider:]
-[SideSwipeMediator setEngagementTracker:]
-[BookmarksCoordinator .cxx_construct]
-[BookmarksCoordinator initWithBrowser:]
__ZN22ChromeBrowserStateImpl9AsWeakPtrEv
__ZN4base14WeakPtrFactoryI22ChromeBrowserStateImplE10GetWeakPtrEvQntsr3stdE10is_const_vIT_E
-[BookmarkMediator .cxx_construct]
-[BookmarkMediator initWithWithLocalOrSyncableBookmarkModel:accountBookmarkModel:prefs:authenticationService:syncService:]
__ZN21AuthenticationService10GetWeakPtrEv
__ZN4base14WeakPtrFactoryI21AuthenticationServiceE10GetWeakPtrEvQntsr3stdE10is_const_vIT_E
-[BrowserCoordinator setBrowserContainerCoordinator:]
-[BrowserCoordinator browserContainerCoordinator]
-[BrowserContainerCoordinator start]
-[BrowserContainerCoordinator isStarted]
-[BrowserContainerCoordinator setStarted:]
-[BrowserContainerCoordinator setViewController:]
-[BrowserContainerCoordinator viewController]
-[OverlayContainerCoordinator initWithBaseViewController:browser:modality:]
__ZN30OverlayPresentationContextImpl11FromBrowserEP7Browser15OverlayModality
__ZN15OverlayUserDataIN30OverlayPresentationContextImpl9ContainerEE17CreateForUserDataIJRP7BrowserEEEvPN4base16SupportsUserDataEDpOT_
__ZN30OverlayPresentationContextImpl9ContainerC2EP7Browser
__ZN15OverlayUserDataIN30OverlayPresentationContextImpl9ContainerEE19CreateAuxiliaryDataEPN4base16SupportsUserDataE
__ZN30OverlayPresentationContextImpl9Container30PresentationContextForModalityE15OverlayModality
__ZNSt4__Cr6__treeINS_12__value_typeI15OverlayModalityNS_10unique_ptrI30OverlayPresentationContextImplNS_14default_deleteIS4_EEEEEENS_19__map_value_compareIS2_S8_NS_4lessIS2_EELb1EEENS_9allocatorIS8_EEE25__emplace_unique_key_argsIS2_JRKNS_21piecewise_construct_tENS_5tupleIJRKS2_EEENSK_IJEEEEEENS_4pairINS_15__tree_iteratorIS8_PNS_11__tree_nodeIS8_PvEElEEbEERKT_DpOT0_
-[OverlayRequestCoordinatorFactory .cxx_construct]
-[OverlayRequestCoordinatorFactory initWithBrowser:modality:]
__ZN30OverlayPresentationContextImplC2EP7Browser15OverlayModalityP32OverlayRequestCoordinatorFactory
__ZN30OverlayPresentationContextImpl21BrowserShutdownHelperC2EP7BrowserP16OverlayPresenterPS_
__ZN30OverlayPresentationContextImpl37OverlayRequestCoordinatorDelegateImplC2EPS_
__ZN34OverlayContainerFullscreenDisablerC1EP7Browser15OverlayModality
__ZN34OverlayContainerFullscreenDisabler18FullscreenDisablerC2EP20FullscreenControllerP16OverlayPresenter
__ZN4base17ScopedObservationI16OverlayPresenter24OverlayPresenterObserverEC2EPS2_
__ZN4base17ScopedObservationI16OverlayPresenter24OverlayPresenterObserverE7ObserveEPS1_
__ZThn24_N20OverlayPresenterImpl22SetPresentationContextEP26OverlayPresentationContext
__ZN20OverlayPresenterImpl22SetPresentationContextEP26OverlayPresentationContext
__ZNSt4__Cr6__treeIP14OverlayRequestNS_4lessIS2_EENS_9allocatorIS2_EEE7destroyEPNS_11__tree_nodeIS2_PvEE
__ZN30OverlayPresentationContextImpl11AddObserverEP34OverlayPresentationContextObserver
__ZN4base12ObserverListI34OverlayPresentationContextObserverLb1ELb1ENS_8internal22CheckedObserverAdapterEE11AddObserverEPS1_
__ZN20OverlayPresenterImpl30PresentOverlayForActiveRequestEv
__ZNK30OverlayPresentationContextImpl18IsShowingOverlayUIEv
__ZNK20OverlayPresenterImpl19GetQueueForWebStateEPN3web8WebStateE
-[OverlayContainerCoordinator(Initialization) initWithBaseViewController:browser:presentationContext:]
-[BrowserContainerCoordinator setWebContentAreaOverlayContainerCoordinator:]
-[LinkToTextMediator .cxx_construct]
-[LinkToTextMediator initWithWebStateList:]
__ZN12WebStateList9AsWeakPtrEv
__ZN4base14WeakPtrFactoryI12WebStateListE10GetWeakPtrEvQntsr3stdE10is_const_vIT_E
-[BrowserContainerCoordinator setLinkToTextMediator:]
-[BrowserContainerCoordinator linkToTextMediator]
-[LinkToTextMediator setAlertDelegate:]
-[LinkToTextMediator setActivityServiceHandler:]
-[BrowserContainerCoordinator setBrowserEditMenuHandler:]
-[BrowserContainerCoordinator browserEditMenuHandler]
-[BrowserContainerViewController setBrowserEditMenuHandler:]
-[BrowserEditMenuHandler setLinkToTextDelegate:]
-[BrowserContainerViewController setLinkToTextDelegate:]
-[PartialTranslateMediator .cxx_construct]
-[PartialTranslateMediator initWithWebStateList:withBaseViewController:prefService:fullscreenController:incognito:]
-[BrowserContainerCoordinator setPartialTranslateMediator:]
-[BrowserContainerCoordinator partialTranslateMediator]
-[PartialTranslateMediator setAlertDelegate:]
-[PartialTranslateMediator setBrowserHandler:]
-[BrowserEditMenuHandler setPartialTranslateDelegate:]
__Z19IsSearchWithEnabledv
-[SearchWithMediator .cxx_construct]
-[SearchWithMediator initWithWebStateList:templateURLService:incognito:]
-[BrowserContainerCoordinator setSearchWithMediator:]
-[BrowserContainerCoordinator searchWithMediator]
-[SearchWithMediator setApplicationCommandHandler:]
-[BrowserEditMenuHandler setSearchWithDelegate:]
-[BrowserContainerCoordinator webContentAreaOverlayContainerCoordinator]
-[OverlayContainerCoordinator start]
-[OverlayContainerCoordinator isStarted]
-[OverlayContainerCoordinator setStarted:]
-[OverlayContainerViewController setDelegate:]
-[OverlayContainerCoordinator presentationContext]
__ZN30OverlayPresentationContextImpl11SetDelegateEPU49objcproto38OverlayPresentationContextImplDelegate11objc_object
__ZN30OverlayPresentationContextImpl30UpdatePresentationCapabilitiesEv
__ZN20OverlayPresenterImpl18CancelAllOverlayUIEv
__ZN30OverlayPresentationContextImpl14RemoveObserverEP34OverlayPresentationContextObserver
__ZN4base12ObserverListI34OverlayPresentationContextObserverLb1ELb1ENS_8internal22CheckedObserverAdapterEE14RemoveObserverEPKS1_
-[OverlayPresentationContextCoordinator initWithBaseViewController:browser:presentationContext:]
-[OverlayContainerCoordinator setPresentationContextCoordinator:]
-[OverlayContainerViewController loadView]
-[OverlayContainerView setViewController:]
-[ChromeCoordinator baseViewController]
-[BrowserContainerViewController viewDidLoad]
__Z18AddSameConstraintsPU34objcproto23EdgeLayoutGuideProvider11objc_objectS0_
-[OverlayContainerCoordinator viewController]
-[BrowserContainerViewController setWebContentsOverlayContainerViewController:]
-[BrowserContainerMediator .cxx_construct]
-[BrowserContainerMediator initWithWebStateList:webContentAreaOverlayPresenter:]
__ZThn24_NK20OverlayPresenterImpl11GetModalityEv
__ZN30OverlayPresenterObserverBridgeC1EPU36objcproto25OverlayPresenterObserving11objc_object
__ZN30OverlayPresenterObserverBridgeC2EPU36objcproto25OverlayPresenterObserving11objc_object
__ZN12_GLOBAL__N_155IsActiveOverlayRequestForNonCommittedHttpAuthenticationEP12WebStateList
-[BrowserContainerCoordinator setMediator:]
-[BrowserContainerCoordinator mediator]
-[BrowserContainerMediator setConsumer:]
-[BrowserContainerMediator updateConsumer]
-[BrowserContainerMediator consumer]
-[BrowserContainerMediator isShowingAuthDialogForNonCommittedURL]
-[BrowserContainerViewController setContentBlocked:]
-[BrowserContainerCoordinator setUpScreenTimeIfEnabled]
-[ChromeCoordinator start]
-[DownloadManagerCoordinator .cxx_construct]
__ZN23DownloadManagerMediatorC1Ev
__ZN23DownloadManagerMediatorC2Ev
__ZN18UploadTaskObserverC2Ev
__ZN24UnopenedDownloadsTrackerC1Ev
-[BrowserCoordinator setDownloadManagerCoordinator:]
-[BrowserCoordinator downloadManagerCoordinator]
-[DownloadManagerCoordinator setPresenter:]
-[BrowserCoordinator tabLifecycleMediator]
-[TabLifecycleMediator setDownloadManagerTabHelperDelegate:]
-[QRScannerLegacyCoordinator initWithBrowser:]
-[BrowserCoordinator setQrScannerCoordinator:]
-[PopupMenuCoordinator .cxx_construct]
-[PopupMenuCoordinator initWithBrowser:]
-[BrowserCoordinator setPopupMenuCoordinator:]
-[BrowserCoordinator popupMenuCoordinator]
-[PopupMenuCoordinator setBubblePresenter:]
-[PopupMenuCoordinator setUIUpdater:]
-[PopupMenuCoordinator start]
-[NewTabPageCoordinator .cxx_construct]
-[NewTabPageCoordinator initWithBrowser:componentFactory:]
-[NewTabPageCoordinator setToolbarDelegate:]
-[NewTabPageCoordinator setBubblePresenter:]
-[TabLifecycleMediator setNTPCoordinator:]
-[LensCoordinator .cxx_construct]
-[LensCoordinator initWithBrowser:]
__ZN3ios8provider27CreateVoiceSearchControllerEP7Browser
-[SafeAreaProvider .cxx_construct]
-[SafeAreaProvider initWithBrowser:]
-[BrowserCoordinator createViewController]
-[BrowserViewController .cxx_construct]
__ZN33BrowserViewControllerDependenciesC2ERKS_
-[BrowserViewController initWithBrowserContainerViewController:keyCommandsProvider:dependencies:]
-[SideSwipeMediator setSwipeDelegate:]
-[BrowserViewController setBubblePresenter:]
-[BrowserViewController setToolbarAccessoryPresenter:]
-[BrowserViewController setNtpCoordinator:]
-[BrowserViewController setPopupMenuCoordinator:]
-[BrowserViewController setToolbarCoordinator:]
-[BrowserViewController setTabStripCoordinator:]
-[BrowserViewController setLegacyTabStripCoordinator:]
-[BrowserViewController setTextZoomHandler:]
-[BrowserViewController setHelpHandler:]
-[BrowserViewController setPopupMenuCommandsHandler:]
-[BrowserViewController setApplicationCommandsHandler:]
-[BrowserViewController setFindInPageCommandsHandler:]
-[BrowserViewController setSafeAreaProvider:]
-[BrowserViewController setInNewTabAnimation:]
-[BrowserViewController setFullscreenController:]
-[BrowserViewController currentWebState]
-[BrowserViewController webStateList]
__ZN33BrowserViewControllerDependenciesD2Ev
-[TabLifecycleMediator setBaseViewController:]
-[TabLifecycleMediator setPasswordControllerDelegate:]
__ZN25WebNavigationBrowserAgent11SetDelegateEPU35objcproto24WebNavigationNTPDelegate11objc_object
-[ContextMenuConfigurationProvider .cxx_construct]
-[ContextMenuConfigurationProvider initWithBrowser:baseViewController:]
-[ContextMenuConfigurationProvider browser]
-[ImageSaver initWithBrowser:]
-[ImageCopier initWithBrowser:]
-[BrowserCoordinator setContextMenuProvider:]
-[BrowserCoordinator updateViewControllerDependencies]
-[BookmarksCoordinator setBaseViewController:]
-[BubblePresenter setRootViewController:]
-[ToolbarAccessoryPresenter setBaseViewController:]
-[BrowserCoordinator qrScannerCoordinator]
-[QRScannerLegacyCoordinator setBaseViewController:]
-[QRScannerLegacyCoordinator start]
-[PopupMenuCoordinator setBaseViewController:]
-[LensCoordinator setBaseViewController:]
-[LensCoordinator setDelegate:]
-[LensCoordinator start]
-[LensCoordinator setTemplateURLService:]
-[LensCoordinator setTracker:]
-[LensCoordinator setLoadingWebState:]
__ZN4base17ScopedObservationIN3web8WebStateENS1_16WebStateObserverEE5ResetEv
-[LensCoordinator setLensWebPageLoadTriggeredFromInputSelection:]
-[LensCoordinator setTransitionAnimator:]
-[LensCoordinator updateLensAvailabilityForWidgets]
__ZN3ios8provider15IsLensSupportedEv
-[LensCoordinator updateQRCodeOrLensAppShortcutItem]
-[LensCoordinator isGoogleDefaultSearchEngine]
-[LensCoordinator templateURLService]
__ZNK3ios23UIThreadSearchTermsData15GetSearchClientEv
__ZNK3ios23UIThreadSearchTermsData20GetApplicationLocaleEv
__ZNK3ios23UIThreadSearchTermsData20GetRlzParameterValueEb
__ZNK4GURL5queryEv
__ZN17lens_availability40CheckAndLogAvailabilityForLensEntryPointE14LensEntrypointb
__ZN9l10n_util20GetNSStringWithFixupEi
__ZN9l10n_util22FixUpWindowsStyleLabelERKNSt4__Cr12basic_stringIDsNS0_11char_traitsIDsEENS0_9allocatorIDsEEEE
__ZN4base18SysUTF16ToNSStringENSt4__Cr17basic_string_viewIDsNS0_11char_traitsIDsEEEE
-[ToolbarCoordinator setOmniboxFocusDelegate:]
-[ToolbarCoordinator setPopupPresenterDelegate:]
-[ToolbarCoordinator setToolbarHeightDelegate:]
-[ToolbarCoordinator start]
-[ToolbarCoordinator started]
-[ToolbarMediator .cxx_construct]
-[ToolbarMediator initWithWebStateList:isIncognito:]
__Z33IsBottomOmniboxSteadyStateEnabledv
__Z10IsFirstRunv
-[ToolbarCoordinator setToolbarMediator:]
-[ToolbarCoordinator toolbarMediator]
-[ToolbarMediator setDelegate:]
-[ToolbarMediator setDeviceSwitcherResultDispatcher:]
-[ToolbarMediator setOriginalPrefService:]
-[PrefBackedBoolean .cxx_construct]
-[PrefBackedBoolean initWithPrefService:prefName:]
__ZN10PrefMemberIbE4InitERKNSt4__Cr12basic_stringIcNS1_11char_traitsIcEENS1_9allocatorIcEEEEP11PrefServiceRKN4base17RepeatingCallbackIFvvEEE
__ZN4base8internal9BindStateILb0ELb1ELb0EPFvRKNS_17RepeatingCallbackIFvvEEERKNSt4__Cr12basic_stringIcNS7_11char_traitsIcEENS7_9allocatorIcEEEEEJS4_EEC2ISH_JS6_EQntsr18CancellationTraitsE14is_cancellableEEPS3_OT_DpOT0_
-[PrefBackedBoolean setObserver:]
-[ToolbarMediator booleanDidChange:]
-[PrefBackedBoolean value]
-[ToolbarMediator updateOmniboxPosition]
-[ToolbarMediator omniboxPositionInCurrentState]
-[ToolbarMediator steadyStateOmniboxPositionInCurrentState]
-[ToolbarMediator setOmniboxPosition:]
-[ToolbarMediator setSteadyStateOmniboxPosition:]
-[ToolbarMediator updateOmniboxDefaultPosition]
-[ToolbarMediator originalPrefService]
-[ToolbarMediator deviceSwitcherResultDispatcher]
-[ToolbarMediator isSafariSwitcherAtStartup:]
__ZN7omnibox9IsNewUserEv
__ZN7omnibox16IsSafariSwitcherERKN21segmentation_platform20ClassificationResultE
__ZNSt4__Cr7__sort4INS_17_ClassicAlgPolicyERNS_6__lessIvvEEPNS_12basic_stringIcNS_11char_traitsIcEENS_9allocatorIcEEEEEEvT1_SC_SC_SC_T0_
__ZNSt4__Cr6vectorINS_12basic_stringIcNS_11char_traitsIcEENS_9allocatorIcEEEENS4_IS6_EEE16__init_with_sizeIPS6_SA_EEvT_T0_m
__ZN4base18STLSetIntersectionINSt4__Cr6vectorINS1_12basic_stringIcNS1_11char_traitsIcEENS1_9allocatorIcEEEENS6_IS8_EEEESA_SA_EET_RKT0_RKT1_
-[ToolbarMediator logOmniboxPosition]
___37-[ToolbarMediator logOmniboxPosition]_block_invoke
__ZN4base23UmaHistogramEnumerationI19OmniboxPositionTypeEEvPKcT_
-[LocationBarCoordinator .cxx_construct]
-[LocationBarCoordinator initWithBrowser:]
-[ToolbarCoordinator setLocationBarCoordinator:]
-[ToolbarCoordinator omniboxFocusDelegate]
-[ToolbarCoordinator locationBarCoordinator]
-[LocationBarCoordinator setDelegate:]
-[ToolbarCoordinator bubblePresenter]
-[LocationBarCoordinator setBubblePresenter:]
-[ToolbarCoordinator popupPresenterDelegate]
-[LocationBarCoordinator setPopupPresenterDelegate:]
-[LocationBarCoordinator start]
-[LocationBarCoordinator isStarted]
-[LocationBarCoordinator browserState]
-[LocationBarViewController init]
-[LocationBarSteadyView init]
__Z31SetA11yLabelAndUiAutomationNamePU40objcproto29UIAccessibilityIdentification8NSObjectiP8NSString
__ZN9l10n_util11GetNSStringEi
-[ExtendedTouchTargetButton initWithFrame:]
__Z42CreateLiftEffectCirclePointerStyleProviderv
-[CustomHighlightableButton setCustomHighlightHandler:]
-[LocationBarSteadyView locationLabelFont]
__Z25LocationBarSteadyViewFontP8NSString
__Z40PreferredFontForTextStyleWithMaxCategoryP8NSStringS0_S0_
-[LocationBarSteadyButton initWithFrame:]
__Z24AddSameCenterConstraintsPU30objcproto19LayoutGuideProvider11objc_objectS0_
-[LocationBarSteadyView trailingButton]
-[LocationBarSteadyView trailingButtonTrailingSpacing]
__Z18IsSplitToolbarModePU29objcproto18UITraitEnvironment11objc_object
-[LocationBarSteadyView updateAccessibility]
-[LocationBarSteadyView securityLevelAccessibilityString]
-[LocationBarSteadyView locationLabel]
-[LocationBarSteadyView locationButton]
-[LocationBarSteadyView accessibleElements]
-[LocationBarCoordinator setViewController:]
-[LocationBarCoordinator viewController]
-[LocationBarViewController setIncognito:]
+[LocationBarSteadyViewColorScheme standardScheme]
-[LocationBarSteadyViewColorScheme setFontColor:]
__ZN19content_suggestions20SearchHintLabelColorEv
__Z24IsIOSLargeFakeboxEnabledv
-[LocationBarSteadyViewColorScheme setPlaceholderColor:]
-[LocationBarSteadyViewColorScheme setTrailingButtonColor:]
-[LocationBarViewController locationBarSteadyView]
-[LocationBarSteadyView setColorScheme:]
-[LocationBarSteadyView colorScheme]
-[LocationBarSteadyViewColorScheme trailingButtonColor]
-[LocationBarSteadyViewColorScheme fontColor]
-[LocationBarSteadyView locationIconImageView]
-[LocationBarViewController setDelegate:]
-[LocationBarViewController setDispatcher:]
__ZN3ios8provider20IsVoiceSearchEnabledEv
-[LocationBarViewController setVoiceSearchEnabled:]
-[LocationBarViewController setLayoutGuideCenter:]
-[LocationBarViewController setOriginalPrefService:]
-[LocationBarCoordinator delegate]
__ZN18WebLocationBarImplC1EPU36objcproto25OmniboxControllerDelegate11objc_objectPU31objcproto20OmniboxFocusDelegate11objc_object
__ZN27LocationBarModelDelegateIOSC1EP12WebStateListP18ChromeBrowserState
__ZN27LocationBarModelDelegateIOSC2EP12WebStateListP18ChromeBrowserState
-[OmniboxCoordinator .cxx_construct]
-[LocationBarCoordinator setOmniboxCoordinator:]
-[LocationBarCoordinator bubblePresenter]
-[LocationBarCoordinator omniboxCoordinator]
-[OmniboxCoordinator setBubblePresenter:]
-[OmniboxCoordinator setLocationBar:]
-[LocationBarCoordinator popupPresenterDelegate]
-[OmniboxCoordinator setPresenterDelegate:]
-[OmniboxCoordinator start]
-[OmniboxCoordinator popupCoordinator]
-[OmniboxViewController .cxx_construct]
-[OmniboxViewController initWithIncognito:]
-[OmniboxCoordinator setViewController:]
__Z24GetOmniboxSuggestionIcon25OmniboxSuggestionIconType
_DefaultSymbolWithPointSize
-[OmniboxCoordinator viewController]
-[OmniboxViewController setDefaultLeadingImage:]
-[OmniboxViewController setTextInputDelegate:]
-[OmniboxViewController setLayoutGuideCenter:]
-[OmniboxMediator .cxx_construct]
-[OmniboxMediator initWithIncognito:tracker:]
-[OmniboxCoordinator setMediator:]
-[OmniboxCoordinator mediator]
-[OmniboxMediator setTemplateURLService:]
-[OmniboxMediator setSearchEngineSupportsSearchByImage:]
-[OmniboxMediator searchEngineSupportsSearchByImage]
-[OmniboxMediator consumer]
-[OmniboxMediator setSearchEngineSupportsLens:]
-[OmniboxMediator searchEngineSupportsLens]
__ZN26SearchEngineObserverBridgeC1EPU32objcproto21SearchEngineObserving11objc_objectP18TemplateURLService
__ZN26SearchEngineObserverBridgeC2EPU32objcproto21SearchEngineObserving11objc_objectP18TemplateURLService
__ZN29IOSChromeFaviconLoaderFactory18GetForBrowserStateEP18ChromeBrowserState
__ZNK29IOSChromeFaviconLoaderFactory20GetBrowserStateToUseEPN3web12BrowserStateE
__ZNK29IOSChromeFaviconLoaderFactory23BuildServiceInstanceForEPN3web12BrowserStateE
__ZN13FaviconLoaderC1EPN7favicon16LargeIconServiceE
__ZN13FaviconLoaderC2EPN7favicon16LargeIconServiceE
-[OmniboxMediator setFaviconLoader:]
-[OmniboxMediator setConsumer:]
-[OmniboxMediator updateConsumerEmptyTextImage]
-[OmniboxViewController updateSearchByImageSupported:]
-[OmniboxViewController setSearchByImageEnabled:]
-[OmniboxViewController updateLensImageSupported:]
-[OmniboxViewController setLensImageEnabled:]
-[OmniboxMediator loadDefaultSearchEngineFaviconWithCompletion:]
-[OmniboxMediator currentDefaultSearchEngineFavicon]
-[OmniboxMediator templateURLService]
__ZN3ios8provider15GetBrandedImageENS0_12BrandedImageE
-[OmniboxMediator faviconLoader]
-[OmniboxMediator setLatestDefaultSearchEngine:]
___copy_helper_block_e8_32b40w
__ZN13FaviconLoader17FaviconForPageUrlERK4GURLffbU13block_pointerFvP17FaviconAttributesE
___copy_helper_block_e8_32s40b64c9_ZTS4GURL
+[FaviconAttributes attributesWithDefaultImage]
-[FaviconAttributes initWithImage:monogram:textColor:backgroundColor:defaultBackgroundColor:usesDefaultImage:]
___64-[OmniboxMediator loadDefaultSearchEngineFaviconWithCompletion:]_block_invoke
-[FaviconAttributes faviconImage]
-[OmniboxMediator latestDefaultSearchEngine]
-[FaviconAttributes usesDefaultImage]
-[FaviconAttributes .cxx_destruct]
__ZN4base8internal9BindStateILb0ELb1ELb0EU8__strongU13block_pointerFvRKN12favicon_base15LargeIconResultEEJEE6CreateIRS8_JEEEPS9_PFvvEOT_DpOT0_
__ZN17FaviconClientImpl22IsNativeApplicationURLERK4GURL
__ZN17FaviconClientImpl15IsReaderModeURLERK4GURL
-[OmniboxMediator setOmniboxCommandsHandler:]
-[OmniboxMediator setLensCommandsHandler:]
-[OmniboxMediator setLoadQueryCommandsHandler:]
-[OmniboxMediator setSceneState:]
-[OmniboxMediator setURLLoadingBrowserAgent:]
-[OmniboxViewController setPasteDelegate:]
-[OmniboxCoordinator locationBar]
-[OmniboxCoordinator textField]
-[OmniboxViewController textField]
-[OmniboxViewController loadView]
-[OmniboxContainerView initWithFrame:textColor:textFieldTint:iconTint:]
-[OmniboxTextFieldExperimental initWithFrame:textColor:tintColor:]
-[OmniboxTextFieldExperimental currentFont]
__Z14IsCompactWidthPU29objcproto18UITraitEnvironment11objc_object
-[OmniboxTextFieldExperimental normalFont]
-[OmniboxTextFieldExperimental setTapGestureRecognizer:]
-[OmniboxTextFieldExperimental tapGestureRecognizer]
__Z28AddSameConstraintsWithInsetsPU34objcproto23EdgeLayoutGuideProvider11objc_objectS0_23NSDirectionalEdgeInsets
__Z35AddSameConstraintsToSidesWithInsetsPU34objcproto23EdgeLayoutGuideProvider11objc_objectS0_11LayoutSides23NSDirectionalEdgeInsets
__Z25AddSameConstraintsToSidesPU34objcproto23EdgeLayoutGuideProvider11objc_objectS0_11LayoutSides
-[OmniboxViewController incognito]
-[OmniboxContainerView setIncognito:]
-[OmniboxContainerView textField]
-[OmniboxTextFieldIOS setIncognito:]
-[OmniboxViewController layoutGuideCenter]
-[OmniboxContainerView setLayoutGuideCenter:]
-[OmniboxContainerView clearButton]
-[OmniboxTextFieldIOS setOmniboxKeyboardDelegate:]
-[OmniboxViewController viewDidLoad]
__Z20RegisterEditMenuItemP10UIMenuItem
-[OmniboxTextFieldIOS setPlaceholderTextColor:]
-[OmniboxTextFieldExperimental setPlaceholder:]
-[OmniboxTextFieldIOS placeholderTextColor]
-[OmniboxViewController additionalTextConsumer]
__ZN14OmniboxViewIOSC1EP19OmniboxTextFieldIOSP14WebLocationBarP18ChromeBrowserStatePU26objcproto15OmniboxCommands11objc_objectPU26objcproto15ToolbarCommands11objc_objectPU40objcproto29OmniboxAdditionalTextConsumer11objc_object
__ZN14OmniboxViewIOSC2EP19OmniboxTextFieldIOSP14WebLocationBarP18ChromeBrowserStatePU26objcproto15OmniboxCommands11objc_objectPU26objcproto15ToolbarCommands11objc_objectPU40objcproto29OmniboxAdditionalTextConsumer11objc_object
__ZN22ChromeOmniboxClientIOSC1EP14WebLocationBarP18ChromeBrowserStatePN18feature_engagement7TrackerE
__ZN22ChromeOmniboxClientIOSC2EP14WebLocationBarP18ChromeBrowserStatePN18feature_engagement7TrackerE
__ZN32AutocompleteSchemeClassifierImplC1Ev
__ZN22ChromeOmniboxClientIOS32CreateAutocompleteProviderClientEv
__ZN30AutocompleteProviderClientImplC1EP18ChromeBrowserState
__ZN30AutocompleteProviderClientImplC2EP18ChromeBrowserState
__ZN14TabMatcherImplC1EP18ChromeBrowserState
__ZN14TabMatcherImplC2EP18ChromeBrowserState
__ZNK30AutocompleteProviderClientImpl14IsOffTheRecordEv
__Z23GetPedalImplementationsbb
__ZN29OmniboxPedalClearBrowsingDataC2Eb
__ZZ23GetPedalImplementationsbbENK3$_0clEP12OmniboxPedal
__ZNSt4__Cr12__hash_tableINS_17__hash_value_typeI14OmniboxPedalId13scoped_refptrI12OmniboxPedalEEENS_22__unordered_map_hasherIS2_S6_NS_4hashIS2_EENS_8equal_toIS2_EELb1EEENS_21__unordered_map_equalIS2_S6_SB_S9_Lb1EEENS_9allocatorIS6_EEE25__emplace_unique_key_argsIS2_JNS_4pairIS2_S5_EEEEENSJ_INS_15__hash_iteratorIPNS_11__hash_nodeIS6_PvEEEEbEERKT_DpOT0_
__ZNSt4__Cr12__hash_tableINS_17__hash_value_typeI14OmniboxPedalId13scoped_refptrI12OmniboxPedalEEENS_22__unordered_map_hasherIS2_S6_NS_4hashIS2_EENS_8equal_toIS2_EELb1EEENS_21__unordered_map_equalIS2_S6_SB_S9_Lb1EEENS_9allocatorIS6_EEE11__do_rehashILb1EEEvm
__ZN29OmniboxPedalViewChromeHistoryC2Ev
__ZN27OmniboxPedalManagePasswordsC2Ev
__ZN37OmniboxPedalSetChromeAsDefaultBrowserC2Ev
__ZN28OmniboxPedalUpdateCreditCardC2Ev
__ZN27OmniboxPedalLaunchIncognitoC2Ev
__ZN32OmniboxPedalRunChromeSafetyCheckC2Ev
__ZN32OmniboxPedalManageChromeSettingsC2Ev
__ZN30OmniboxPedalPlayChromeDinoGameC2Ev
__ZNSt4__Cr11make_uniqueI20OmniboxPedalProviderJR30AutocompleteProviderClientImplNS_13unordered_mapI14OmniboxPedalId13scoped_refptrI12OmniboxPedalENS_4hashIS5_EENS_8equal_toIS5_EENS_9allocatorINS_4pairIKS5_S8_EEEEEEEEENS_11__unique_ifIT_E15__unique_singleEDpOT0_
__ZNK30OmniboxPedalPlayChromeDinoGame20SpecifySynonymGroupsEb
__ZNK32OmniboxPedalManageChromeSettings20SpecifySynonymGroupsEb
__ZNK27OmniboxPedalLaunchIncognito20SpecifySynonymGroupsEb
__ZNK32OmniboxPedalRunChromeSafetyCheck20SpecifySynonymGroupsEb
__ZNK37OmniboxPedalSetChromeAsDefaultBrowser20SpecifySynonymGroupsEb
__ZNK27OmniboxPedalManagePasswords20SpecifySynonymGroupsEb
__ZNK28OmniboxPedalUpdateCreditCard20SpecifySynonymGroupsEb
__ZNK29OmniboxPedalViewChromeHistory20SpecifySynonymGroupsEb
__ZNK29OmniboxPedalClearBrowsingData20SpecifySynonymGroupsEb
__ZN30AutocompleteProviderClientImpl21GetTemplateURLServiceEv
__ZNK30AutocompleteProviderClientImpl33GetOmniboxTriggeredFeatureServiceEv
__ZN30AutocompleteProviderClientImpl16GetBookmarkModelEv
__ZN30AutocompleteProviderClientImpl14GetBuiltinURLsEv
__ZNSt4__Cr6vectorINS_12basic_stringIDsNS_11char_traitsIDsEENS_9allocatorIDsEEEENS4_IS6_EEE21__push_back_slow_pathIS6_EEPS6_OT_
__ZN30AutocompleteProviderClientImpl19GetInMemoryURLIndexEv
__ZN30AutocompleteProviderClientImpl19GetShortcutsBackendEv
__ZN3ios23ShortcutsBackendFactory18GetForBrowserStateEP18ChromeBrowserState
__ZNK3ios23ShortcutsBackendFactory23BuildServiceInstanceForEPN3web12BrowserStateE
__ZN3ios12_GLOBAL__N_121BuildShortcutsBackendEPN3web12BrowserStateE
__ZN30AutocompleteProviderClientImpl11GetTopSitesEv
__ZN30AutocompleteProviderClientImpl17GetHistoryServiceEv
__ZN22ChromeOmniboxClientIOS32GetAutocompleteControllerEmitterEv
__ZN22ChromeOmniboxClientIOS8GetPrefsEv
-[OmniboxCoordinator setPasteDelegate:]
-[OmniboxCoordinator pasteDelegate]
-[OmniboxViewController setTextChangeDelegate:]
-[OmniboxAssistiveKeyboardMediator setApplicationCommandsHandler:]
-[OmniboxAssistiveKeyboardMediator setLensCommandsHandler:]
-[OmniboxAssistiveKeyboardMediator setQrScannerCommandsHandler:]
-[OmniboxAssistiveKeyboardMediator setLayoutGuideCenter:]
-[OmniboxAssistiveKeyboardMediator setBrowserCoordinatorCommandsHandler:]
-[OmniboxAssistiveKeyboardMediator setOmniboxTextField:]
-[OmniboxAssistiveKeyboardMediator setDelegate:]
-[ZeroSuggestPrefetchHelper .cxx_construct]
-[ZeroSuggestPrefetchHelper initWithWebStateList:controller:]
-[ZeroSuggestPrefetchHelper startPrefetchIfNecessary]
-[OmniboxCoordinator setZeroSuggestPrefetchHelper:]
-[OmniboxCoordinator presenterDelegate]
-[OmniboxCoordinator createPopupCoordinator:]
__ZN19OmniboxPopupViewIOSC1EP17OmniboxControllerP14WebLocationBarP35OmniboxPopupViewSuggestionsDelegate
__ZN19OmniboxPopupViewIOSC2EP17OmniboxControllerP14WebLocationBarP35OmniboxPopupViewSuggestionsDelegate
__ZN14OmniboxViewIOS16SetPopupProviderEP20OmniboxPopupProvider
-[OmniboxPopupCoordinator .cxx_construct]
-[OmniboxPopupCoordinator initWithBaseViewController:browser:autocompleteController:popupView:]
-[OmniboxPopupViewController .cxx_construct]
-[OmniboxPopupViewController init]
-[OmniboxPopupCoordinator setPresenterDelegate:]
-[ForwardingReturnDelegate .cxx_construct]
-[OmniboxCoordinator setReturnDelegate:]
-[OmniboxCoordinator returnDelegate]
-[ForwardingReturnDelegate setAcceptDelegate:]
-[OmniboxPopupCoordinator setPopupMatchPreviewDelegate:]
-[OmniboxPopupCoordinator setAcceptReturnDelegate:]
-[OmniboxPopupCoordinator popupReturnDelegate]
-[OmniboxViewController setReturnKeyDelegate:]
-[OmniboxPopupCoordinator KeyboardDelegate]
-[OmniboxViewController setPopupKeyboardDelegate:]
-[OmniboxCoordinator setPopupCoordinator:]
-[OmniboxPopupCoordinator start]
__ZN31RemoteSuggestionsServiceFactory18GetForBrowserStateEP18ChromeBrowserStateb
__ZN4base12NoDestructorI31RemoteSuggestionsServiceFactoryEC1IJEEEDpOT_
__ZNK31RemoteSuggestionsServiceFactory23BuildServiceInstanceForEPN3web12BrowserStateE
-[OmniboxPopupMediator .cxx_construct]
-[OmniboxPopupCoordinator autocompleteController]
-[OmniboxPopupMediator initWithFetcher:faviconLoader:autocompleteController:remoteSuggestionsService:delegate:tracker:]
-[PedalSectionExtractor setDelegate:]
-[OmniboxPopupCoordinator setMediator:]
-[OmniboxPopupCoordinator mediator]
-[OmniboxPopupMediator setDefaultSearchEngineIsGoogle:]
-[OmniboxPopupMediator setProtocolProvider:]
-[OmniboxPopupMediator setSharingDelegate:]
-[BrowserActionFactory initWithBrowser:scenario:]
-[ActionFactory initWithScenario:]
__Z23GetActionsHistogramName21MenuScenarioHistogram
-[OmniboxPopupMediator setMostVisitedActionFactory:]
-[OmniboxPopupCoordinator popupViewController]
-[OmniboxPopupViewController setImageRetriever:]
-[OmniboxPopupViewController setFaviconRetriever:]
-[OmniboxPopupViewController setDelegate:]
-[OmniboxPopupViewController setDataSource:]
-[OmniboxPopupViewController setIncognito:]
-[OmniboxPopupViewController setLargeIconService:]
-[OmniboxPopupViewController setLargeIconCache:]
-[OmniboxPopupViewController setCarouselMenuProvider:]
-[OmniboxPopupViewController setLayoutGuideCenter:]
-[OmniboxPopupMediator setConsumer:]
-[OmniboxPopupCoordinator popupMatchPreviewDelegate]
-[OmniboxPopupViewController setMatchPreviewDelegate:]
-[OmniboxPopupCoordinator acceptReturnDelegate]
-[OmniboxPopupViewController setAcceptReturnDelegate:]
-[OmniboxPopupMediator setCarouselItemConsumer:]
__Z23IsIncognitoModeDisabledP11PrefService
__Z24IsIncognitoPolicyAppliedP11PrefService
-[OmniboxPopupMediator setAllowIncognitoActions:]
-[OmniboxPedalAnnotator setApplicationHandler:]
-[OmniboxPedalAnnotator setSettingsHandler:]
-[OmniboxPedalAnnotator setOmniboxHandler:]
-[OmniboxPopupMediator setPedalAnnotator:]
-[OmniboxPopupMediator setApplicationCommandsHandler:]
-[OmniboxPopupMediator setIncognito:]
-[OmniboxPopupMediator setSceneState:]
-[OmniboxPopupCoordinator presenterDelegate]
-[OmniboxPopupPresenter initWithPopupPresenterDelegate:popupViewController:layoutGuideCenter:incognito:]
-[ToolbarConfiguration initWithStyle:]
-[OmniboxPopupViewController loadView]
-[OmniboxPopupViewController largeIconService]
-[FaviconAttributesProvider .cxx_construct]
-[FaviconAttributesProvider initWithFaviconSize:minFaviconSize:largeIconService:]
-[OmniboxPopupViewController largeIconCache]
-[FaviconAttributesProvider setCache:]
-[OmniboxPopupViewController setTableView:]
-[OmniboxPopupViewController tableView]
-[OmniboxPopupViewController viewDidLoad]
-[OmniboxPopupViewController updateBackgroundColor]
-[OmniboxPopupViewController incognito]
__Z26IsRegularXRegularSizeClassPU29objcproto18UITraitEnvironment11objc_object
-[OmniboxPopupViewController setShouldUpdateVisibleSuggestionCount:]
-[ToolbarConfiguration backgroundColor]
-[OmniboxPopupPresenter bottomSeparator]
__ZN2ui22AlignValueToUpperPixelEd
-[OmniboxPopupMediator setPresenter:]
-[OmniboxPopupMediator setOriginalPrefService:]
-[OmniboxPopupMediator booleanDidChange:]
-[OmniboxPopupMediator autocompleteController]
__ZN18experimental_flags25IsOmniboxDebuggingEnabledEv
-[OmniboxCoordinator managedViewController]
-[OmniboxCoordinator editView]
-[OmniboxViewController viewContainingTextField]
-[LocationBarViewController setEditView:]
-[LocationBarViewController editView]
-[OmniboxContainerView textFieldView]
-[OmniboxCoordinator offsetProvider]
-[LocationBarViewController setOffsetProvider:]
-[BadgeViewController initWithButtonFactory:]
-[LocationBarCoordinator setBadgeViewController:]
-[LocationBarCoordinator badgeViewController]
-[BadgeViewController setLayoutGuideCenter:]
-[BadgeViewController viewDidLoad]
-[BadgeViewController stackView]
-[LocationBarViewController setBadgeView:]
-[LocationBarViewController badgeView]
-[BadgeMediator .cxx_construct]
-[LocationBarCoordinator webStateList]
-[BadgeMediator initWithWebStateList:overlayPresenter:isIncognito:]
-[LocationBarCoordinator setBadgeMediator:]
-[LocationBarCoordinator badgeMediator]
-[BadgeMediator setConsumer:]
-[BadgeMediator updateConsumer]
-[BadgeMediator consumer]
-[BadgeMediator badges]
-[BadgeMediator badgeTabHelper]
-[BadgeMediator webState]
-[BadgeMediator offTheRecordBadge]
-[BadgeViewController setupWithDisplayedBadge:fullScreenBadge:]
-[BadgeViewController setDisplayedBadge:]
-[BadgeViewController displayedBadge]
-[BadgeViewController setFullScreenBadge:]
-[BadgeMediator setDispatcher:]
-[BadgeButtonFactory setDelegate:]
__ZN19FullscreenUIUpdaterC1EP20FullscreenControllerPU30objcproto19FullscreenUIElement11objc_object
__ZN19FullscreenUIUpdaterC2EP20FullscreenControllerPU30objcproto19FullscreenUIElement11objc_object
__ZN19FullscreenUIUpdater37FullscreenControllerObserverForwarderC2EPS_PU30objcproto19FullscreenUIElement11objc_object
__ZN4base17ScopedObservationI20FullscreenController28FullscreenControllerObserverEC2EPS2_
__ZN4base17ScopedObservationI20FullscreenController28FullscreenControllerObserverE7ObserveEPS1_
__ZN24FullscreenControllerImpl11AddObserverEP28FullscreenControllerObserver
__ZN4base12ObserverListI28FullscreenControllerObserverLb1ELb1ENS_8internal22CheckedObserverAdapterEE11AddObserverEPS1_
-[LocationBarMediator .cxx_construct]
-[LocationBarMediator init]
-[LocationBarCoordinator setMediator:]
-[LocationBarCoordinator mediator]
-[LocationBarMediator setTemplateURLService:]
-[LocationBarMediator setSearchEngineSupportsSearchByImage:]
-[LocationBarMediator consumer]
-[LocationBarMediator setConsumer:]
-[LocationBarMediator searchEngineSupportsSearchByImage]
-[LocationBarCoordinator updateSearchByImageSupported:]
-[LocationBarViewController setSearchByImageEnabled:]
-[LocationBarMediator searchEngineSupportsLens]
-[LocationBarCoordinator updateLensImageSupported:]
-[LocationBarViewController setLensImageEnabled:]
-[LocationBarMediator setWebStateList:]
-[LocationBarSteadyViewMediator .cxx_construct]
-[LocationBarCoordinator locationBarModel]
-[LocationBarSteadyViewMediator initWithLocationBarModel:]
-[LocationBarCoordinator setSteadyViewMediator:]
-[LocationBarCoordinator steadyViewMediator]
-[LocationBarSteadyViewMediator setWebStateList:]
-[LocationBarSteadyViewMediator setWebContentAreaOverlayPresenter:]
-[LocationBarSteadyViewMediator setConsumer:]
-[LocationBarSteadyViewMediator webStateList]
-[LocationBarSteadyViewMediator notifyConsumerOfChangedLocation]
-[LocationBarSteadyViewMediator consumer]
-[LocationBarSteadyViewMediator currentLocationString]
-[LocationBarSteadyViewMediator isWebContentAreaShowingHTTPAuthDialog]
-[LocationBarSteadyViewMediator locationBarModel]
__ZNK27LocationBarModelDelegateIOS16ShouldDisplayURLEv
__ZNK27LocationBarModelDelegateIOS17GetActiveWebStateEv
__ZNK27LocationBarModelDelegateIOS6GetURLEP4GURL
__ZNK27LocationBarModelDelegateIOS36FormattedStringWithEquivalentMeaningERK4GURLRKNSt4__Cr12basic_stringIDsNS3_11char_traitsIDsEENS3_9allocatorIDsEEEE
__ZN32AutocompleteSchemeClassifierImplD1Ev
-[LocationBarSteadyViewMediator locationShouldClipTail]
-[LocationBarCoordinator updateLocationText:clipTail:]
-[OmniboxCoordinator updateOmniboxState]
__ZN14OmniboxViewIOS16UpdateAppearanceEv
__ZNK22ChromeOmniboxClientIOS19GetFormattedFullURLEv
__ZN18WebLocationBarImpl19GetLocationBarModelEv
__ZN14OmniboxViewIOS9RevertAllEv
__ZN14OmniboxViewIOS31OnInlineAutocompleteTextClearedEv
__ZNK14OmniboxViewIOS18GetSelectionBoundsEPmS0_
__ZN14OmniboxViewIOS24SetWindowTextAndCaretPosERKNSt4__Cr12basic_stringIDsNS0_11char_traitsIDsEENS0_9allocatorIDsEEEEmbb
-[OmniboxTextFieldExperimental setText:]
-[OmniboxTextFieldExperimental setTextInternal:autocompleteLength:]
__ZN18experimental_flags37IsThirdPartyKeyboardWorkaroundEnabledEv
-[OmniboxTextFieldExperimental setAttributedText:]
-[OmniboxTextFieldExperimental textRectForBounds:]
__Z31LayoutRectForRectInBoundingRect6CGRectS_
__ZN4base3ios13IsInForcedRTLEv
__Z17LayoutRectGetRect10LayoutRect
__Z31LayoutRectGetRectUsingDirection10LayoutRectN4base4i18n13TextDirectionE
-[OmniboxTextFieldExperimental updateTextDirection]
-[OmniboxTextFieldExperimental setText:userTextLength:]
-[OmniboxTextFieldExperimental setAutocompleteTextLength:]
-[OmniboxTextFieldExperimental exitPreEditState]
-[OmniboxTextFieldExperimental setPreEditing:]
__ZN13OmniboxClient13OnTextChangedERK17AutocompleteMatchbRKNSt4__Cr12basic_stringIDsNS3_11char_traitsIDsEENS3_9allocatorIDsEEEERK18AutocompleteResultb
__ZN14OmniboxViewIOS11SetCaretPosEm
__ZN13OmniboxClient8OnRevertEv
__ZN14OmniboxViewIOS22EmphasizeURLComponentsEv
-[LocationBarViewController updateLocationText:clipTail:]
-[LocationBarSteadyView setLocationLabelText:]
-[LocationBarViewController updateForNTP:]
-[LocationBarSteadyView setCentered:]
-[LocationBarViewController setHideShareButtonWhileOnIncognitoNTP:]
-[LocationBarSteadyViewMediator currentWebState]
__Z15IsURLNewTabPageRK4GURL
-[LocationBarSteadyViewMediator isSharingEnabled]
-[LocationBarSteadyViewMediator isWebContentAreaShowingOverlay]
-[LocationBarCoordinator updateLocationShareable:]
-[LocationBarViewController setShareButtonEnabled:]
-[LocationBarViewController trailingButtonState]
-[LocationBarSteadyViewMediator notifyConsumerOfChangedSecurityIcon]
-[LocationBarSteadyViewMediator currentLocationIcon]
__ZNK27LocationBarModelDelegateIOS13IsOfflinePageEv
__ZNK27LocationBarModelDelegateIOS16GetSecurityLevelEv
__ZN14security_state27GetSecurityLevelForWebStateEPKN3web8WebStateE
__Z42GetLocationBarSecurityIconForSecurityStateN14security_state13SecurityLevelE
__Z46GetLocationBarSecurityIconTypeForSecurityStateN14security_state13SecurityLevelE
__Z32GetLocationBarSecuritySymbolName27LocationBarSecurityIconType
_DefaultSymbolTemplateWithPointSize
-[LocationBarSteadyViewMediator securityStatusText]
-[LocationBarCoordinator updateLocationIcon:securityStatusText:]
-[LocationBarViewController updateLocationIcon:securityStatusText:]
-[LocationBarSteadyView setLocationImage:]
-[LocationBarSteadyView locationContainerView]
-[LocationBarSteadyView hideLocationImageConstraints]
-[LocationBarSteadyView showLocationImageConstraints]
-[LocationBarSteadyView setSecurityLevelAccessibilityString:]
-[LocationBarCoordinator setStarted:]
-[LocationBarCoordinator setUpDragAndDrop]
-[LocationBarCoordinator toolbarOmniboxConsumer]
-[OmniboxCoordinator toolbarOmniboxConsumer]
-[OmniboxPopupCoordinator toolbarOmniboxConsumer]
-[OmniboxPopupMediator presenter]
-[ToolbarMediator setOmniboxConsumer:]
-[ToolbarCoordinator primaryToolbarCoordinator]
-[PrimaryToolbarCoordinator setViewControllerDelegate:]
-[PrimaryToolbarCoordinator start]
-[PrimaryToolbarCoordinator isStarted]
-[AdaptiveToolbarCoordinator setViewController:]
-[AdaptiveToolbarCoordinator viewController]
-[PrimaryToolbarViewController setShouldHideOmniboxOnNTP:]
-[AdaptiveToolbarViewController setOmniboxCommandsHandler:]
-[AdaptiveToolbarViewController setPopupMenuCommandsHandler:]
-[PrimaryToolbarCoordinator viewControllerDelegate]
-[PrimaryToolbarViewController setDelegate:]
-[AdaptiveToolbarViewController setLayoutGuideCenter:]
-[AdaptiveToolbarCoordinator buttonFactoryWithType:]
-[ToolbarButtonActionsHandler .cxx_construct]
-[ToolbarButtonActionsHandler initWithEngagementTracker:]
-[ToolbarButtonActionsHandler setApplicationHandler:]
-[ToolbarButtonActionsHandler setActivityHandler:]
-[ToolbarButtonActionsHandler setMenuHandler:]
-[ToolbarButtonActionsHandler setOmniboxHandler:]
-[ToolbarButtonActionsHandler setIncognito:]
-[ToolbarButtonActionsHandler setNavigationAgent:]
-[ToolbarButtonActionsHandler setTabBasedIPHAgent:]
-[AdaptiveToolbarCoordinator setActionHandler:]
-[ToolbarButtonFactory initWithStyle:]
-[ToolbarButtonFactory setActionHandler:]
-[ToolbarButtonVisibilityConfiguration initWithType:]
-[ToolbarButtonFactory setVisibilityConfiguration:]
-[AdaptiveToolbarViewController setButtonFactory:]
-[AdaptiveToolbarCoordinator start]
-[AdaptiveToolbarViewController setAdaptiveDelegate:]
-[AdaptiveToolbarMediator .cxx_construct]
-[AdaptiveToolbarMediator init]
-[AdaptiveToolbarCoordinator setMediator:]
-[AdaptiveToolbarCoordinator mediator]
-[AdaptiveToolbarMediator setIncognito:]
-[AdaptiveToolbarMediator setConsumer:]
-[AdaptiveToolbarViewController setVoiceSearchEnabled:]
-[AdaptiveToolbarMediator webState]
-[AdaptiveToolbarMediator webStateList]
-[AdaptiveToolbarMediator setNavigationBrowserAgent:]
-[AdaptiveToolbarMediator setWebStateList:]
-[AdaptiveToolbarMediator setWebState:]
-[AdaptiveToolbarMediator consumer]
-[AdaptiveToolbarViewController setTabCount:addedInBackground:]
-[PrimaryToolbarViewController loadView]
-[AdaptiveToolbarViewController buttonFactory]
-[PrimaryToolbarViewController setPreviousFullscreenProgress:]
-[PrimaryToolbarView initWithButtonFactory:]
-[AdaptiveToolbarViewController layoutGuideCenter]
-[PrimaryToolbarView setUp]
-[PrimaryToolbarView buttonFactory]
-[PrimaryToolbarView setUpToolbarBackground]
-[ToolbarButtonFactory toolbarConfiguration]
-[PrimaryToolbarView setContentView:]
-[PrimaryToolbarView setUpLeadingStackView]
-[ToolbarButtonFactory backButton]
-[ToolbarButton initWithImage:]
-[ToolbarButton initWithImage:IPHHighlightedImage:]
-[ToolbarButton .cxx_destruct]
-[CustomHighlightableButton .cxx_destruct]
-[ToolbarButton setImage:]
-[ToolbarButton setIPHHighlightedImage:]
-[ToolbarButton initializeButton]
-[ToolbarButton createSpotlightViewIfNeeded]
-[ToolbarButton toolbarConfiguration]
-[ToolbarButtonFactory configureButton:width:]
-[ToolbarButton setToolbarConfiguration:]
-[ToolbarConfiguration buttonsIPHHighlightColor]
-[ToolbarButton spotlightView]
-[ToolbarButton updateTintColor]
-[ToolbarButton iphHighlighted]
-[ToolbarConfiguration buttonsTintColor]
-[ToolbarButtonFactory actionHandler]
-[ToolbarButtonFactory visibilityConfiguration]
-[ToolbarButtonVisibilityConfiguration backButtonVisibility]
-[ToolbarButtonVisibilityConfiguration type]
-[ToolbarButton setVisibilityMask:]
-[PrimaryToolbarView setBackButton:]
-[ToolbarButtonFactory forwardButton]
-[ToolbarButtonVisibilityConfiguration forwardButtonVisibility]
-[PrimaryToolbarView setForwardButton:]
-[ToolbarButtonFactory stopButton]
-[ToolbarButtonVisibilityConfiguration stopButtonVisibility]
-[PrimaryToolbarView setStopButton:]
-[PrimaryToolbarView stopButton]
-[ToolbarButton setHiddenInCurrentState:]
-[ToolbarButton setHiddenForCurrentStateAndSizeClass]
-[ToolbarButton hiddenInCurrentState]
-[ToolbarButton checkNamedGuide]
-[ToolbarButtonFactory reloadButton]
_CustomSymbolWithPointSize
-[ToolbarButtonVisibilityConfiguration reloadButtonVisibility]
-[PrimaryToolbarView setReloadButton:]
-[PrimaryToolbarView backButton]
-[PrimaryToolbarView forwardButton]
-[PrimaryToolbarView reloadButton]
-[PrimaryToolbarView setLeadingStackViewButtons:]
-[PrimaryToolbarView leadingStackViewButtons]
-[PrimaryToolbarView setLeadingStackView:]
-[PrimaryToolbarView leadingStackView]
-[PrimaryToolbarView contentView]
-[PrimaryToolbarView setUpTrailingStackView]
-[ToolbarButtonFactory shareButton]
-[ToolbarButtonVisibilityConfiguration shareButtonVisibility]
-[PrimaryToolbarView setShareButton:]
-[ToolbarButtonFactory tabGridButton]
-[ToolbarTabGridButton .cxx_destruct]
-[ToolbarButtonVisibilityConfiguration tabGridButtonVisibility]
-[PrimaryToolbarView setTabGridButton:]
-[ToolbarButtonFactory toolsMenuButton]
-[ToolbarButtonVisibilityConfiguration toolsMenuButtonVisibility]
-[PrimaryToolbarView setToolsMenuButton:]
-[PrimaryToolbarView shareButton]
-[PrimaryToolbarView tabGridButton]
-[PrimaryToolbarView toolsMenuButton]
-[PrimaryToolbarView setTrailingStackViewButtons:]
-[PrimaryToolbarView trailingStackViewButtons]
-[PrimaryToolbarView setTrailingStackView:]
-[PrimaryToolbarView trailingStackView]
-[PrimaryToolbarView setUpCancelButton]
-[ToolbarButtonFactory cancelButton]
-[PrimaryToolbarView setCancelButton:]
-[PrimaryToolbarView cancelButton]
-[PrimaryToolbarView setUpLocationBar]
-[PrimaryToolbarView setLocationBarContainer:]
-[ToolbarConfiguration locationBarBackgroundColorWithVisibility:]
-[ToolbarConfiguration style]
-[PrimaryToolbarView locationBarContainer]
-[PrimaryToolbarView setUpProgressBar]
-[PrimaryToolbarView setProgressBar:]
-[PrimaryToolbarView progressBar]
-[PrimaryToolbarView setUpCollapsedToolbarButton]
-[PrimaryToolbarView setCollapsedToolbarButton:]
-[PrimaryToolbarView collapsedToolbarButton]
-[PrimaryToolbarView setUpSeparator]
-[PrimaryToolbarView setSeparator:]
-[PrimaryToolbarView separator]
-[PrimaryToolbarView setUpConstraints]
-[PrimaryToolbarView setExpandedConstraints:]
-[PrimaryToolbarView setContractedConstraints:]
-[PrimaryToolbarView setContractedNoMarginConstraints:]
-[PrimaryToolbarView setLocationBarContainerHeight:]
-[PrimaryToolbarView setLocationBarBottomConstraint:]
-[PrimaryToolbarView locationBarBottomConstraint]
-[PrimaryToolbarView locationBarContainerHeight]
-[PrimaryToolbarView contractedConstraints]
-[PrimaryToolbarView contractedNoMarginConstraints]
-[PrimaryToolbarView expandedConstraints]
-[PrimaryToolbarView locationBarView]
-[PrimaryToolbarViewController verticalMarginForLocationBarForFullscreenProgress:]
__Z15IsCompactHeightPU29objcproto18UITraitEnvironment11objc_object
-[PrimaryToolbarViewController clampedFontSizeMultiplier]
__Z32ToolbarClampedFontSizeMultiplierP8NSString
__ZN7ui_util33SystemSuggestedFontSizeMultiplierEP8NSStringS1_S1_
__ZN7ui_util33SystemSuggestedFontSizeMultiplierEP8NSString
____ZN7ui_util33SystemSuggestedFontSizeMultiplierEP8NSString_block_invoke
__Z17AlignValueToPixeld
-[AdaptiveToolbarViewController viewDidLoad]
-[AdaptiveToolbarViewController addStandardActionsForAllButtons]
-[PrimaryToolbarView allButtons]
-[PrimaryToolbarView openNewTabButton]
-[AdaptiveToolbarViewController omniboxCommandsHandler]
-[ToolbarButton setGuideName:]
-[AdaptiveToolbarViewController addLayoutGuideCenterToButtons]
-[ToolbarButton setLayoutGuideCenter:]
-[AdaptiveToolbarViewController configureMenuProviderForButton:buttonType:]
___copy_helper_block_e8_32w40w
___destroy_helper_block_e8_32w40w
-[AdaptiveToolbarViewController updateLocationBarHeightForFullscreenProgress:]
__Z17LocationBarHeightP8NSString
__Z22ToolbarCollapsedHeightP8NSString
-[PrimaryToolbarViewController traitCollectionDidChange:]
-[AdaptiveToolbarViewController traitCollectionDidChange:]
-[AdaptiveToolbarViewController updateAllButtonsVisibility]
-[ToolbarButton updateHiddenInCurrentSizeClass]
-[ToolbarButton visibilityMask]
-[ToolbarButton hiddenInCurrentSizeClass]
-[ToolbarButton setHiddenInCurrentSizeClass:]
-[AdaptiveToolbarViewController isLoading]
-[PrimaryToolbarViewController previousFullscreenProgress]
-[PrimaryToolbarView setTopCornersRounded:]
-[PrimaryToolbarViewController delegate]
-[ToolbarCoordinator viewControllerTraitCollectionDidChange:]
-[ToolbarTabGridButton tabCount]
-[AdaptiveToolbarMediator setWebContentAreaOverlayPresenter:]
-[AdaptiveToolbarMediator setTemplateURLService:]
-[AdaptiveToolbarMediator setActionFactory:]
-[AdaptiveToolbarViewController setMenuProvider:]
-[PrimaryToolbarCoordinator setStarted:]
-[ToolbarCoordinator toolbarHeightDelegate]
-[ToolbarCoordinator secondaryToolbarCoordinator]
-[SecondaryToolbarCoordinator setToolbarHeightDelegate:]
-[SecondaryToolbarCoordinator start]
-[SecondaryToolbarMediator .cxx_construct]
-[SecondaryToolbarMediator initWithWebStateList:]
-[SecondaryToolbarViewController setKeyboardStateProvider:]
-[SecondaryToolbarViewController setFullscreenController:]
-[SecondaryToolbarCoordinator toolbarHeightDelegate]
-[SecondaryToolbarViewController setToolbarHeightDelegate:]
-[SecondaryToolbarViewController loadView]
-[SecondaryToolbarView initWithButtonFactory:]
-[SecondaryToolbarView setUp]
-[SecondaryToolbarView buttonFactory]
-[SecondaryToolbarView setBackButton:]
-[SecondaryToolbarView setForwardButton:]
-[ToolbarButtonFactory openNewTabButton]
_SymbolWithPalette
-[ToolbarConfiguration buttonsTintColorIPHHighlighted]
-[ToolbarButtonFactory style]
-[ToolbarButtonVisibilityConfiguration newTabButtonVisibility]
-[SecondaryToolbarView setOpenNewTabButton:]
-[SecondaryToolbarView setTabGridButton:]
-[SecondaryToolbarView setToolsMenuButton:]
-[SecondaryToolbarView toolsMenuButton]
-[SecondaryToolbarView backButton]
-[SecondaryToolbarView forwardButton]
-[SecondaryToolbarView openNewTabButton]
-[SecondaryToolbarView tabGridButton]
-[SecondaryToolbarView setAllButtons:]
-[SecondaryToolbarView setSeparator:]
-[SecondaryToolbarView separator]
-[SecondaryToolbarView allButtons]
-[SecondaryToolbarView setButtonStackView:]
-[SecondaryToolbarView buttonStackView]
-[SecondaryToolbarView setCollapsedToolbarButton:]
-[SecondaryToolbarView setLocationBarContainer:]
-[SecondaryToolbarView locationBarContainer]
-[SecondaryToolbarView collapsedToolbarButton]
-[SecondaryToolbarView locationBarView]
-[SecondaryToolbarView setLocationBarContainerHeight:]
-[SecondaryToolbarView setLocationBarTopConstraint:]
-[SecondaryToolbarView updateButtonStackViewConstraint]
-[SecondaryToolbarView setBottomSeparator:]
-[SecondaryToolbarView bottomSeparator]
-[SecondaryToolbarView locationBarTopConstraint]
-[SecondaryToolbarView locationBarContainerHeight]
-[AdaptiveToolbarViewController setPreviousFullscreenProgress:]
-[SecondaryToolbarView shareButton]
-[ToolbarButton guideName]
-[ToolbarButton layoutGuideCenter]
-[AdaptiveToolbarViewController previousFullscreenProgress]
-[ToolbarCoordinator setOrchestrator:]
-[PrimaryToolbarCoordinator toolbarAnimatee]
-[ToolbarCoordinator orchestrator]
-[OmniboxFocusOrchestrator setToolbarAnimatee:]
-[LocationBarCoordinator locationBarAnimatee]
-[OmniboxFocusOrchestrator setLocationBarAnimatee:]
-[LocationBarCoordinator editViewAnimatee]
-[OmniboxCoordinator animatee]
-[OmniboxFocusOrchestrator setEditViewAnimatee:]
-[ToolbarMediator setInitialOmniboxPosition]
-[ToolbarMediator delegate]
-[ToolbarMediator omniboxPosition]
-[ToolbarCoordinator transitionOmniboxToToolbarType:]
-[LocationBarCoordinator locationBarViewController]
-[AdaptiveToolbarCoordinator setLocationBarViewController:]
-[PrimaryToolbarViewController setLocationBarViewController:]
-[AdaptiveToolbarViewController setLocationBarViewController:]
-[LocationBarViewController viewDidLoad]
-[LocationBarSteadyView setBadgeView:]
-[LocationBarSteadyView badgeView]
-[LocationBarSteadyView setBadgeViewFullScreenEnabledConstraints:]
-[LocationBarSteadyView setBadgeViewFullScreenDisabledConstraints:]
-[LocationBarSteadyView locationContainerViewLeadingAnchorConstraint]
-[LocationBarSteadyView badgeViewFullScreenDisabledConstraints]
-[LocationBarViewController updateTrailingButtonState]
-[LocationBarViewController setTrailingButtonState:]
-[LocationBarViewController updateTrailingButton]
-[LocationBarViewController layoutGuideCenter]
-[LocationBarViewController hideShareButtonWhileOnIncognitoNTP]
-[LocationBarViewController dispatcher]
-[LocationBarViewController shareButtonEnabled]
-[LocationBarSteadyView enableTrailingButton:]
-[LocationBarViewController switchToEditing:]
-[PrimaryToolbarView setLocationBarView:]
-[OmniboxTextFieldExperimental caretRectForPosition:]
-[OmniboxTextFieldExperimental hasAutocompleteText]
-[OmniboxTextFieldExperimental autocompleteTextLength]
-[AdaptiveToolbarViewController updateProgressBarVisibility]
-[AdaptiveToolbarViewController locationBarViewController]
-[AdaptiveToolbarViewController hasOmnibox]
-[PrimaryToolbarViewController updateBackgroundColor]
-[SecondaryToolbarView setLocationBarView:]
-[SecondaryToolbarView progressBar]
-[BrowserViewController toolbarsHeightChanged]
-[BrowserViewController updateToolbarState]
-[BrowserViewController collapsedTopToolbarHeight]
-[BrowserViewController rootSafeAreaInsets]
-[BrowserViewController safeAreaProvider]
-[SafeAreaProvider safeArea]
-[SafeAreaProvider sceneState]
-[BrowserViewController toolbarCoordinator]
-[ToolbarCoordinator collapsedPrimaryToolbarHeight]
-[ToolbarCoordinator traitEnvironment]
-[ToolbarCoordinator primaryToolbarViewController]
-[BrowserViewController expandedTopToolbarHeight]
-[BrowserViewController primaryToolbarHeightWithInset]
-[ToolbarCoordinator expandedPrimaryToolbarHeight]
-[PrimaryToolbarView intrinsicContentSize]
-[PrimaryToolbarView matchNTPHeight]
__Z21ToolbarExpandedHeightP8NSString
-[BrowserViewController headerViews]
-[BrowserViewController headerOffset]
-[BrowserViewController collapsedBottomToolbarHeight]
-[ToolbarCoordinator collapsedSecondaryToolbarHeight]
-[BrowserViewController secondaryToolbarHeightWithInset]
-[ToolbarCoordinator expandedSecondaryToolbarHeight]
-[ToolbarCoordinator secondaryToolbarViewController]
-[SecondaryToolbarView intrinsicContentSize]
-[BrowserViewController primaryToolbarHeightConstraint]
-[BrowserViewController secondaryToolbarHeightConstraint]
-[BrowserViewController footerFullscreenProgress]
-[BrowserViewController updateForFullscreenProgress:]
-[BrowserViewController updateHeadersForFullscreenProgress:]
-[BrowserViewController primaryToolbarHeightDelta]
-[BrowserViewController fullscreenController]
__ZNK24FullscreenControllerImpl20GetMaxViewportInsetsEv
__ZNK15FullscreenModel28GetCollapsedTopToolbarHeightEv
__ZNK15FullscreenModel27GetExpandedTopToolbarHeightEv
__ZNK15FullscreenModel31GetCollapsedBottomToolbarHeightEv
__ZNK15FullscreenModel30GetExpandedBottomToolbarHeightEv
__ZNK24FullscreenControllerImpl20GetMinViewportInsetsEv
-[BrowserViewController setFramesForHeaders:atOffset:]
-[BrowserViewController updateFootersForFullscreenProgress:]
-[BrowserViewController setFooterFullscreenProgress:]
__ZN3ios8provider36IsFullscreenSmoothScrollingSupportedEv
-[BrowserViewController updateBrowserViewportForFullscreenProgress:]
-[ToolbarMediator steadyStateOmniboxPosition]
-[ToolbarCoordinator transitionSteadyStateOmniboxToToolbarType:]
-[ToolbarMediator omniboxConsumer]
-[OmniboxPopupPresenter steadyStateOmniboxMovedToToolbar:]
-[ToolbarCoordinator updateToolbarsLayout]
-[ToolbarMediator toolbarTraitCollectionChangedTo:]
-[ToolbarCoordinator isOmniboxFirstResponder]
-[LocationBarCoordinator isOmniboxFirstResponder]
-[OmniboxCoordinator isOmniboxFirstResponder]
-[ToolbarCoordinator showingOmniboxPopup]
-[LocationBarCoordinator showingOmniboxPopup]
-[OmniboxPopupCoordinator isOpen]
-[OmniboxPopupMediator isOpen]
-[ToolbarCoordinator omniboxFocusTrigger]
-[OmniboxFocusOrchestrator transitionToStateOmniboxFocused:toolbarExpanded:trigger:animated:completion:]
-[OmniboxFocusOrchestrator isAnimating]
-[OmniboxFocusOrchestrator setIsAnimating:]
-[OmniboxFocusOrchestrator setAreOmniboxChangesQueued:]
-[OmniboxFocusOrchestrator setInProgressAnimationCount:]
-[OmniboxFocusOrchestrator updateUIToContractedState:]
-[OmniboxFocusOrchestrator contraction:]
-[OmniboxFocusOrchestrator toolbarAnimatee]
-[PrimaryToolbarViewController contractLocationBar:]
-[PrimaryToolbarViewController deactivateViewLocationBarConstraints]
-[PrimaryToolbarViewController showControlButtons]
-[PrimaryToolbarViewController hideCancelButton]
-[ToolbarCoordinator setStarted:]
-[BrowserViewController setLoadQueryCommandsHandler:]
-[KeyCommandsProvider setOmniboxHandler:]
-[BrowserViewController setOmniboxCommandsHandler:]
-[NewTabPageCoordinator setBaseViewController:]
-[BubblePresenter setToolbarCommandsHandler:]
-[BrowserCoordinator ensureViewIsCreated]
-[BrowserViewController viewDidLoad]
-[BrowserViewController contentArea]
-[BrowserViewController browserContainerViewController]
-[BrowserViewController setTypingShield:]
-[BrowserViewController typingShield]
-[BrowserViewController installFakeStatusBar]
__ZN8ntp_home18NTPBackgroundColorEv
-[BrowserViewController buildToolbarAndTabStrip]
-[BrowserViewController updateBroadcastState]
-[BrowserViewController isActive]
-[BrowserViewController setBroadcasting:]
-[BrowserViewController setUpViewLayout:]
-[BrowserViewController setupStatusBarLayout]
-[SecondaryToolbarView willMoveToSuperview:]
-[NamedGuide initWithName:]
+[NamedGuide guideWithName:view:]
-[NamedGuide name]
__Z24ViewHierarchyRootForViewP6UIView
-[BrowserViewController tabStripCoordinator]
-[AdaptiveToolbarViewController didMoveToParentViewController:]
-[BrowserViewController updateOverlayContainerOrder]
-[BrowserViewController infobarBannerOverlayContainerViewController]
-[BrowserViewController bringOverlayContainerToFront:]
-[BrowserViewController infobarModalOverlayContainerViewController]
-[BrowserViewController addConstraintsToToolbar]
-[BrowserViewController addConstraintsToPrimaryToolbar]
-[BrowserViewController primaryToolbarOffsetConstraint]
-[BrowserViewController setPrimaryToolbarOffsetConstraint:]
+[HeaderDefinition definitionWithView:headerBehaviour:]
-[HeaderDefinition initWithView:headerBehaviour:]
-[HeaderDefinition view]
-[HeaderDefinition .cxx_destruct]
-[BrowserViewController setPrimaryToolbarHeightConstraint:]
-[BrowserViewController addConstraintsToSecondaryToolbar]
-[BrowserViewController setSecondaryToolbarHeightConstraint:]
-[BrowserViewController viewDidLayoutSubviews]
-[BrowserViewController ntpCoordinator]
-[NewTabPageCoordinator isNTPActiveForCurrentWebState]
-[NewTabPageCoordinator webState]
-[AdaptiveToolbarViewController viewDidLayoutSubviews]
-[LocationBarSteadyView layoutSubviews]
-[LocationBarSteadyButton layoutSubviews]
-[OmniboxTextFieldExperimental editingRectForBounds:]
-[BrowserContainerViewController viewDidLayoutSubviews]
-[BrowserContainerViewController webContentsOverlayContainerViewController]
-[BrowserContainerViewController screenTimeViewController]
-[SideSwipeMediator addHorizontalGesturesToView:]
-[SideSwipeGestureRecognizer initWithTarget:action:]
-[SideSwipeGestureRecognizer setSwipeThreshold:]
-[SideSwipeGestureRecognizer setSwipeEdge:]
-[BrowserViewController setContentAreaGestureRecognizer:]
-[BrowserViewController contentAreaGestureRecognizer]
-[BrowserCoordinator startIndependentMediators]
-[TabEventsMediator .cxx_construct]
-[TabEventsMediator initWithWebStateList:ntpCoordinator:browserState:loadingNotifier:]
__ZN24UrlLoadingObserverBridgeC1EPU30objcproto19URLLoadingObserving11objc_object
-[BrowserCoordinator setTabEventsMediator:]
-[BrowserCoordinator tabEventsMediator]
-[TabEventsMediator setToolbarSnapshotProvider:]
-[TabEventsMediator setConsumer:]
-[TabLifecycleMediator setNTPTabHelperDelegate:]
-[BrowserCoordinator dispatcher]
-[BrowserViewController setReauthHandler:]
-[BrowserViewController setNonModalPromoPresentationDelegate:]
-[BrowserCoordinator startChildCoordinators]
-[ARQuickLookCoordinator .cxx_construct]
-[ARQuickLookCoordinator initWithBaseViewController:browser:]
-[BrowserCoordinator setARQuickLookCoordinator:]
-[BrowserCoordinator ARQuickLookCoordinator]
-[BrowserCoordinator setFollowIPHCoordinator:]
-[BrowserCoordinator followIPHCoordinator]
-[TabLifecycleMediator setFollowIPHPresenter:]
-[SafariDownloadCoordinator .cxx_construct]
-[SafariDownloadCoordinator initWithBaseViewController:browser:]
-[BrowserCoordinator setSafariDownloadCoordinator:]
-[BrowserCoordinator SafariDownloadCoordinator]
-[VcardCoordinator .cxx_construct]
-[VcardCoordinator initWithBaseViewController:browser:]
-[BrowserCoordinator setVcardCoordinator:]
-[BrowserCoordinator vcardCoordinator]
-[PrintCoordinator initWithBaseViewController:]
-[BrowserCoordinator setPrintCoordinator:]
-[BrowserCoordinator printCoordinator]
-[TabLifecycleMediator setPrintCoordinator:]
-[PopupMenuCoordinator startPopupMenuHelpCoordinator]
-[PopupMenuHelpCoordinator .cxx_construct]
-[PopupMenuCoordinator baseViewController]
-[PopupMenuHelpCoordinator initWithBaseViewController:browser:]
-[PopupMenuCoordinator setPopupMenuHelpCoordinator:]
-[PopupMenuCoordinator UIUpdater]
-[PopupMenuCoordinator popupMenuHelpCoordinator]
-[PopupMenuHelpCoordinator setUIUpdater:]
-[PopupMenuHelpCoordinator start]
-[PopupMenuHelpCoordinator setLayoutGuide:]
-[PopupMenuHelpCoordinator layoutGuide]
-[SadTabCoordinator .cxx_construct]
-[SadTabCoordinator initWithBaseViewController:browser:]
-[BrowserCoordinator setSadTabCoordinator:]
-[BrowserCoordinator sadTabCoordinator]
-[SadTabCoordinator setOverscrollDelegate:]
-[SafeBrowsingCoordinator .cxx_construct]
-[SafeBrowsingCoordinator initWithBaseViewController:browser:]
-[BrowserCoordinator setSafeBrowsingCoordinator:]
-[BrowserCoordinator safeBrowsingCoordinator]
-[TextFragmentsCoordinator .cxx_construct]
-[TextFragmentsCoordinator initWithBaseViewController:browser:]
-[TextFragmentsMediator initWithConsumer:]
-[BrowserCoordinator setTextFragmentsCoordinator:]
-[BrowserCoordinator textFragmentsCoordinator]
-[FormInputAccessoryCoordinator initWithBaseViewController:browser:]
-[ManualFillInjectionHandler .cxx_construct]
-[ManualFillInjectionHandler initWithWebStateList:securityAlertHandler:reauthenticationModule:]
-[FormObserverHelper .cxx_construct]
-[FormObserverHelper initWithWebStateList:]
-[FormObserverHelper setDelegate:]
-[BrowserCoordinator setFormInputAccessoryCoordinator:]
-[BrowserCoordinator formInputAccessoryCoordinator]
-[FormInputAccessoryCoordinator setNavigator:]
-[FormInputAccessoryCoordinator start]
-[FormInputAccessoryCoordinator brandingCoordinator]
-[BrandingCoordinator start]
-[BrandingViewController .cxx_construct]
-[BrandingMediator .cxx_construct]
-[BrandingMediator initWithLocalState:]
-[BrandingViewController setDelegate:]
-[BrandingMediator setConsumer:]
-[BrandingViewController setVisible:]
-[BrandingViewController setShouldPerformPopAnimation:]
-[FormInputAccessoryViewController .cxx_construct]
-[FormInputAccessoryViewController initWithFormInputAccessoryViewControllerDelegate:]
-[ManualFillAccessoryViewController initWithDelegate:]
__Z33IsKeyboardAccessoryUpgradeEnabledv
-[ManualFillAccessoryViewController loadView]
-[ManualFillAccessoryViewController manualFillButtonWithAction:symbolNamed:defaultSymbol:accessibilityIdentifier:accessibilityLabel:]
_DefaultSymbolWithConfiguration
-[ManualFillAccessoryViewController setKeyboardButton:]
-[ManualFillAccessoryViewController keyboardButton]
_CustomSymbolWithConfiguration
-[ManualFillAccessoryViewController setPasswordButton:]
-[ManualFillAccessoryViewController isPasswordButtonHidden]
-[ManualFillAccessoryViewController passwordButton]
-[ManualFillAccessoryViewController setCardsButton:]
-[ManualFillAccessoryViewController isCreditCardButtonHidden]
-[ManualFillAccessoryViewController cardsButton]
-[ManualFillAccessoryViewController setAccountButton:]
-[ManualFillAccessoryViewController isAddressButtonHidden]
-[ManualFillAccessoryViewController accountButton]
-[FormInputAccessoryCoordinator setFormInputAccessoryViewController:]
-[BrandingCoordinator viewController]
-[FormInputAccessoryCoordinator formInputAccessoryViewController]
-[FormInputAccessoryViewController setBrandingViewController:]
-[FormInputAccessoryViewController setLayoutGuideCenter:]
-[FormInputAccessoryCoordinator browserState]
__ZN8autofill26PersonalDataManagerFactory18GetForBrowserStateEP18ChromeBrowserState
__ZNK8autofill26PersonalDataManagerFactory23BuildServiceInstanceForEPN3web12BrowserStateE
__ZN8autofill21StrikeDatabaseFactory18GetForBrowserStateEP18ChromeBrowserState
__ZN4base12NoDestructorIN8autofill21StrikeDatabaseFactoryEEC1IJEEEDpOT_
__ZNK8autofill21StrikeDatabaseFactory23BuildServiceInstanceForEPN3web12BrowserStateE
__ZN8autofill27AutofillImageFetcherFactory18GetForBrowserStateEP18ChromeBrowserState
__ZN4base12NoDestructorIN8autofill27AutofillImageFetcherFactoryEEC1IJEEEDpOT_
__ZNK8autofill27AutofillImageFetcherFactory23BuildServiceInstanceForEPN3web12BrowserStateE
__ZN8autofill24AutofillImageFetcherImplC1E13scoped_refptrIN7network22SharedURLLoaderFactoryEE
__ZN8autofill24AutofillImageFetcherImplC2E13scoped_refptrIN7network22SharedURLLoaderFactoryEE
__ZN4base17ScopedObservationIN8autofill19PersonalDataManagerENS1_27PersonalDataManagerObserverEE7ObserveEPS2_
-[FormInputAccessoryMediator .cxx_construct]
__ZN8autofill18FormActivityParamsC1Ev
-[FormInputAccessoryCoordinator reauthenticationModule]
-[FormInputAccessoryMediator initWithConsumer:handler:webStateList:personalDataManager:profilePasswordStore:accountPasswordStore:securityAlertHandler:reauthenticationModule:]
-[FormInputAccessoryViewController setNavigationDelegate:]
-[FormInputAccessoryViewHandler init]
-[FormInputAccessoryViewHandler setWebState:]
__ZN8autofill33PersonalDataManagerObserverBridgeC1EPU38objcproto27PersonalDataManagerObserver11objc_object
-[FormInputAccessoryViewController setCreditCardButtonHidden:]
-[FormInputAccessoryViewController manualFillAccessoryViewController]
-[ManualFillAccessoryViewController setCreditCardButtonHidden:]
-[FormInputAccessoryViewController isFormAccessoryVisible]
-[ManualFillAccessoryViewController allButtonsHidden]
-[FormInputAccessoryViewController brandingViewController]
-[BrandingViewController setKeyboardAccessoryVisible:]
-[FormInputAccessoryViewController setAddressButtonHidden:]
-[ManualFillAccessoryViewController setAddressButtonHidden:]
-[FormInputAccessoryCoordinator setFormInputAccessoryMediator:]
-[FormInputAccessoryCoordinator formInputAccessoryMediator]
-[FormInputAccessoryViewController setFormSuggestionClient:]
-[FormInputAccessoryCoordinator setLayoutGuide:]
-[FormInputAccessoryCoordinator layoutGuide]
-[FormInputAccessoryMediator setOriginalPrefService:]
-[FormInputAccessoryMediator booleanDidChange:]
-[FormInputAccessoryMediator consumer]
-[FormInputAccessoryViewController newOmniboxPositionIsBottom:]
-[FormInputAccessoryViewController updateOmniboxTypingShieldVisibility]
-[FormInputAccessoryViewController formInputAccessoryView]
-[BrowserCoordinator setInfobarModalOverlayContainerCoordinator:]
-[BrowserCoordinator infobarModalOverlayContainerCoordinator]
-[BrowserViewController setInfobarModalOverlayContainerViewController:]
-[BrowserCoordinator setInfobarBannerOverlayContainerCoordinator:]
-[BrowserCoordinator infobarBannerOverlayContainerCoordinator]
-[BrowserViewController setInfobarBannerOverlayContainerViewController:]
-[BrowserCoordinator setPriceNotificationsIPHCoordinator:]
-[BrowserCoordinator priceNotificationsIPHCoordinator]
-[TabLifecycleMediator setPriceNotificationsIPHPresenter:]
-[CredentialProviderPromoCoordinator setPromosUIHandler:]
-[CredentialProviderPromoCoordinator start]
-[CredentialProviderPromoMediator initWithPromosManager:prefService:]
-[CredentialProviderPromoCoordinator setMediator:]
-[DockingPromoCoordinator initWithBaseViewController:browser:]
-[DockingPromoCoordinator setPromosUIHandler:]
-[DockingPromoCoordinator start]
-[AppState lastTimeInForeground]
-[DockingPromoMediator .cxx_construct]
-[DockingPromoMediator initWithPromosManager:timeSinceLastForeground:]
-[DockingPromoCoordinator setMediator:]
-[BrowserCoordinator installDelegatesForBrowser]
__ZN21SyncErrorBrowserAgent14SetUIProvidersEPU26objcproto15SigninPresenter11objc_objectPU24objcproto13SyncPresenter11objc_object
-[BrowserCoordinator contextMenuProvider]
__ZN28WebStateDelegateBrowserAgent14SetUIProvidersEP32ContextMenuConfigurationProviderPU32objcproto21CRWResponderInputView11objc_objectPU40objcproto29WebStateContainerViewProvider11objc_object
__ZN22UrlLoadingBrowserAgent11SetDelegateEPU29objcproto18URLLoadingDelegate11objc_object
__ZN15BrowserUserDataI30AccountConsistencyBrowserAgentE16CreateForBrowserIJU8__strongP21BrowserViewControllerEEEvP7BrowserDpOT_
__ZN30AccountConsistencyBrowserAgentC1EP7BrowserP16UIViewController
__ZN30AccountConsistencyBrowserAgentC2EP7BrowserP16UIViewController
__ZN18FollowBrowserAgent14SetUIProvidersEPU29objcproto18NewTabPageCommands11objc_objectPU27objcproto16SnackbarCommands11objc_objectPU23objcproto12FeedCommands11objc_object
-[BrowserCoordinator installDelegatesForBrowserState]
__ZN37TextToSpeechPlaybackControllerFactory18GetForBrowserStateEP18ChromeBrowserState
__ZNK37TextToSpeechPlaybackControllerFactory20GetBrowserStateToUseEPN3web12BrowserStateE
__ZNK37TextToSpeechPlaybackControllerFactory23BuildServiceInstanceForEPN3web12BrowserStateE
__ZN30TextToSpeechPlaybackControllerC1Ev
__ZN30TextToSpeechPlaybackController15SetWebStateListEP12WebStateList
__ZN30TextToSpeechPlaybackController11SetWebStateEPN3web8WebStateE
-[BrowserCoordinator setStarted:]
-[WrangledBrowser initWithCoordinator:]
__ZN11BrowserImpl18GetInactiveBrowserEv
-[WrangledBrowser setInactiveBrowser:]
-[BrowserViewWrangler createOTRInterface]
-[LayoutGuideSceneAgent incognitoLayoutGuideCenter]
__ZN34OffTheRecordChromeBrowserStateImpl9AsWeakPtrEv
__ZN4base14WeakPtrFactoryI34OffTheRecordChromeBrowserStateImplE10GetWeakPtrEvQntsr3stdE10is_const_vIT_E
-[OmniboxPopupViewController traitCollectionDidChange:]
-[BadgeStaticItem initWithBadgeType:]
-[BadgeViewController buttonFactory]
-[BadgeStaticItem badgeType]
-[BadgeButtonFactory badgeButtonForBadgeType:usingInfoBar:]
-[BadgeButtonFactory incognitoBadgeButton]
__Z21SmallIncognitoPalettev
-[BadgeButtonFactory createButtonForType:image:]
+[BadgeButton badgeButtonWithType:]
-[BadgeButton setBadgeType:]
__Z45CreateDefaultEffectCirclePointerStyleProviderv
-[BadgeButton setImage:]
-[BadgeButton fullScreenOn]
-[BadgeButton configureImage]
-[BadgeButton image]
-[BadgeButton setFullScreenOn:]
-[BadgeButton layoutSubviews]
_CustomSymbolTemplateWithPointSize
-[BadgeButton setFullScreenImage:]
-[LocationBarViewController traitCollectionDidChange:]
-[IncognitoReauthMediator initWithReauthAgent:]
-[IncognitoReauthSceneAgent addObserver:]
-[IncognitoReauthSceneAgent observers]
-[BrowserCoordinator setIncognitoAuthMediator:]
-[BrowserCoordinator incognitoAuthMediator]
-[IncognitoReauthMediator setConsumer:]
-[IncognitoReauthSceneAgent isAuthenticationRequired]
-[BrowserViewController setItemsRequireAuthentication:]
___55-[BrowserViewController setItemsRequireAuthentication:]_block_invoke
-[BrowserViewController blockingView]
-[BrowserViewWrangler mainInterface]
-[WrangledBrowser browser]
-[WrangledBrowser coordinator]
-[DefaultBrowserPromoSceneAgent setPromosManager:]
-[BaseDefaultBrowserPromoSchedulerSceneAgent .cxx_construct]
-[BaseDefaultBrowserPromoSchedulerSceneAgent init]
-[SigninPolicySceneAgent .cxx_construct]
-[SigninPolicySceneAgent initWithSceneUIProvider:applicationCommandsHandler:policyChangeCommandsHandler:]
-[SigninPolicySceneAgent setSceneState:]
-[SigninPolicySceneAgent appState:didTransitionFromInitStage:]
-[SigninPolicySceneAgent handleSigninPromptsIfUIAvailable]
-[SigninPolicySceneAgent isUIAvailableToPrompt]
__Z30IsUserPolicyNotificationNeededP21AuthenticationServiceP11PrefServicePKN6policy22UserCloudPolicyManagerE
__ZN25BrowserPolicyConnectorIOS23HasMachineLevelPoliciesEv
__ZN15enterprise_idle18IdleServiceFactory18GetForBrowserStateEP18ChromeBrowserState
__ZNK15enterprise_idle18IdleServiceFactory23BuildServiceInstanceForEPN3web12BrowserStateE
__ZN15enterprise_idle11IdleServiceC1EP18ChromeBrowserState
__ZN15enterprise_idle11IdleServiceC2EP18ChromeBrowserState
__ZN15enterprise_idle16ActionRunnerImplC1EP18ChromeBrowserState
__ZN15enterprise_idle16ActionRunnerImplC2EP18ChromeBrowserState
__ZN15enterprise_idle13ActionFactoryC1Ev
__ZN4base8internal17UnretainedWrapperIN15enterprise_idle11IdleServiceENS_17unretained_traits12MayNotDangleELN15partition_alloc8internal12RawPtrTraitsE0EEC2EPS3_QeqT1_LS8_0E
__ZN4base8internal9BindStateILb1ELb1ELb0EMN15enterprise_idle11IdleServiceEFvvEJNS0_17UnretainedWrapperIS3_NS_17unretained_traits12MayNotDangleELN15partition_alloc8internal12RawPtrTraitsE0EEEEEC2IS5_JSC_EQntsr18CancellationTraitsE14is_cancellableEEPFvvEOT_DpOT0_
-[IdleTimeoutPolicySceneAgent .cxx_construct]
-[IdleTimeoutPolicySceneAgent initWithSceneUIProvider:applicationCommandsHandler:snackbarCommandsHandler:idleService:mainBrowser:]
-[IdleTimeoutPolicySceneAgent setSceneState:]
-[SceneController mainInterface]
__ZN4base17ScopedObservationI25PolicyWatcherBrowserAgent39PolicyWatcherBrowserAgentObserverBridgeEC2EPS2_
__ZN4base17ScopedObservationI25PolicyWatcherBrowserAgent39PolicyWatcherBrowserAgentObserverBridgeE7ObserveEPS1_
__ZN25PolicyWatcherBrowserAgent11AddObserverEP33PolicyWatcherBrowserAgentObserver
__ZN4base12ObserverListI33PolicyWatcherBrowserAgentObserverLb1ELb1ENS_8internal22CheckedObserverAdapterEE11AddObserverEPS1_
__ZN25PolicyWatcherBrowserAgent10InitializeEPU31objcproto20PolicyChangeCommands11objc_object
__ZN4base17ScopedObservationI21AuthenticationService29AuthenticationServiceObserverE7ObserveEPS1_
__ZN21AuthenticationService11AddObserverEP29AuthenticationServiceObserver
__ZN4base12ObserverListI29AuthenticationServiceObserverLb1ELb1ENS_8internal22CheckedObserverAdapterEE11AddObserverEPS1_
__ZN4base8internal17UnretainedWrapperI25PolicyWatcherBrowserAgentNS_17unretained_traits12MayNotDangleELN15partition_alloc8internal12RawPtrTraitsE0EEC2EPS2_QeqT1_LS7_0E
__ZN4base8internal9BindStateILb1ELb1ELb0EM25PolicyWatcherBrowserAgentFvvEJNS0_17UnretainedWrapperIS2_NS_17unretained_traits12MayNotDangleELN15partition_alloc8internal12RawPtrTraitsE0EEEEEC2IS4_JSB_EQntsr18CancellationTraitsE14is_cancellableEEPFvvEOT_DpOT0_
__ZN25PolicyWatcherBrowserAgent28ForceSignOutIfSigninDisabledEv
__ZN4base14WeakPtrFactoryI25PolicyWatcherBrowserAgentE10GetWeakPtrEvQntsr3stdE10is_const_vIT_E
__ZN4base8internal9BindStateILb1ELb1ELb0EM25PolicyWatcherBrowserAgentFvvEJNS_7WeakPtrIS2_EEEEC2IS4_JS6_EQsr18CancellationTraitsE14is_cancellableEEPFvvEOT_DpOT0_
-[ScreenshotDelegate initWithBrowserProviderInterface:]
-[SceneController setScreenshotDelegate:]
-[SceneController screenshotDelegate]
-[SceneController activateBVCAndMakeCurrentBVCPrimary]
-[SceneController currentInterface]
-[BrowserViewWrangler currentInterface]
__ZN26BrowsingDataRemoverFactory26GetForBrowserStateIfExistsEP18ChromeBrowserState
__ZNK26BrowsingDataRemoverFactory20GetBrowserStateToUseEPN3web12BrowserStateE
__ZN27WebUsageEnablerBrowserAgent18SetWebUsageEnabledEb
__ZN27WebUsageEnablerBrowserAgent29UpdateWebUsageForAllWebStatesEv
__ZN4base12ObserverListI35WebUsageEnablerBrowserAgentObserverLb1ELb1ENS_8internal22CheckedObserverAdapterEE4IterC2EPKS4_
__ZN4base8internal12WeakLinkNodeINS_12ObserverListI35WebUsageEnablerBrowserAgentObserverLb1ELb1ENS0_22CheckedObserverAdapterEEEE7SetListEPS5_
__ZN4base12ObserverListI35WebUsageEnablerBrowserAgentObserverLb1ELb1ENS_8internal22CheckedObserverAdapterEE4Iter16EnsureValidIndexEv
__ZNK4base12ObserverListI35WebUsageEnablerBrowserAgentObserverLb1ELb1ENS_8internal22CheckedObserverAdapterEE4ItereqERKS5_
__ZNK4base12ObserverListI35WebUsageEnablerBrowserAgentObserverLb1ELb1ENS_8internal22CheckedObserverAdapterEE4Iter6is_endEv
__ZNK4base12ObserverListI35WebUsageEnablerBrowserAgentObserverLb1ELb1ENS_8internal22CheckedObserverAdapterEE4Iter10GetCurrentEv
__ZN41WebUsageEnablerBrowserAgentObserverBridge27WebUsageEnablerValueChangedEP27WebUsageEnablerBrowserAgent
-[BrowserCoordinator webUsageEnablerValueChanged:]
__ZNK27WebUsageEnablerBrowserAgent17IsWebUsageEnabledEv
-[BrowserCoordinator setActive:]
-[BrowserCoordinator hideActivityOverlay]
-[BrowserCoordinator activityOverlayCoordinator]
-[BrowserCoordinator setActivityOverlayCoordinator:]
__ZN30TextToSpeechPlaybackController10SetEnabledEb
-[TextToSpeechNotificationHandler setEnabled:]
-[BrowserCoordinator setWebUsageEnabled:]
-[BrowserViewController setWebUsageEnabled:]
-[BrowserViewController setActive:]
-[BrowserViewController viewVisible]
__ZN27PagePlaceholderBrowserAgent18AddPagePlaceholderEv
-[BrowserViewController viewForCurrentWebState]
-[BrowserViewController viewForWebState:]
__ZN4base12ObserverListI35WebUsageEnablerBrowserAgentObserverLb1ELb1ENS_8internal22CheckedObserverAdapterEE4IterD2Ev
__ZN4base12ObserverListI35WebUsageEnablerBrowserAgentObserverLb1ELb1ENS_8internal22CheckedObserverAdapterEE7CompactEv
__ZNSt4__Cr9remove_ifINS_11__wrap_iterIPN4base8internal22CheckedObserverAdapterEEEZNS2_12ObserverListI35WebUsageEnablerBrowserAgentObserverLb1ELb1ES4_E7CompactEvEUlRKT_E_EESA_SA_SA_T0_
-[SceneController incognitoInterface]
-[BrowserViewWrangler incognitoInterface]
-[BrowserViewWrangler loadSession]
-[BrowserViewWrangler loadSessionForBrowser:]
__ZN29SessionRestorationServiceImpl11LoadSessionEP7Browser
__ZNSt4__Cr6__treeINS_12__value_typeIP12WebStateListNS_10unique_ptrIN29SessionRestorationServiceImpl16WebStateListInfoENS_14default_deleteIS6_EEEEEENS_19__map_value_compareIS3_SA_NS_4lessIS3_EELb1EEENS_9allocatorISA_EEE25__emplace_unique_key_argsIS3_JRKNS_21piecewise_construct_tENS_5tupleIJOS3_EEENSM_IJEEEEEENS_4pairINS_15__tree_iteratorISA_PNS_11__tree_nodeISA_PvEElEEbEERKT_DpOT0_
__ZN4base12ObserverListI26SessionRestorationObserverLb1ELb1ENS_8internal22CheckedObserverAdapterEE4IterC2EPKS4_
__ZN4base8internal12WeakLinkNodeINS_12ObserverListI26SessionRestorationObserverLb1ELb1ENS0_22CheckedObserverAdapterEEEE7SetListEPS5_
__ZN4base12ObserverListI26SessionRestorationObserverLb1ELb1ENS_8internal22CheckedObserverAdapterEE4Iter16EnsureValidIndexEv
__ZNK4base12ObserverListI26SessionRestorationObserverLb1ELb1ENS_8internal22CheckedObserverAdapterEE4ItereqERKS5_
__ZNK4base12ObserverListI26SessionRestorationObserverLb1ELb1ENS_8internal22CheckedObserverAdapterEE4Iter6is_endEv
__ZNK4base12ObserverListI26SessionRestorationObserverLb1ELb1ENS_8internal22CheckedObserverAdapterEE4Iter10GetCurrentEv
__ZThn48_N31WebStateListMetricsBrowserAgent27WillStartSessionRestorationEP7Browser
__ZThn80_N28TabUsageRecorderBrowserAgent27WillStartSessionRestorationEP7Browser
__ZThn8_N27PagePlaceholderBrowserAgent27WillStartSessionRestorationEP7Browser
__ZThn8_N19FaviconBrowserAgent27WillStartSessionRestorationEP7Browser
__ZN4base12ObserverListI26SessionRestorationObserverLb1ELb1ENS_8internal22CheckedObserverAdapterEE4IterD2Ev
__ZN4base12ObserverListI26SessionRestorationObserverLb1ELb1ENS_8internal22CheckedObserverAdapterEE7CompactEv
__ZNSt4__Cr9remove_ifINS_11__wrap_iterIPN4base8internal22CheckedObserverAdapterEEEZNS2_12ObserverListI26SessionRestorationObserverLb1ELb1ES4_E7CompactEvEUlRKT_E_EESA_SA_SA_T0_
__ZN3ios8sessions18LoadSessionStorageERKN4base8FilePathE
__ZN3ios8sessions10ParseProtoERKN4base8FilePathERN6google8protobuf11MessageLiteE
__ZN4base5apple18FilePathToNSStringERKNS_8FilePathE
__ZN3ios8sessions8internal8ReadFileEP8NSString
__ZN3ios8sessions17WebStateDirectoryERKN4base8FilePathEN3web10WebStateIDE
__ZN3ios8sessions10FileExistsERKN4base8FilePathE
__ZN15RemovingIndexesC1ENSt4__Cr6vectorIiNS0_9allocatorIiEEEE
__ZN15RemovingIndexes17StorageFromVectorENSt4__Cr6vectorIiNS0_9allocatorIiEEEE
__ZN3ios8sessions11FilterItemsENS_5proto19WebStateListStorageERK15RemovingIndexes
__ZNK15RemovingIndexes5countEv
__ZN15RemovingIndexesD1Ev
__ZNSt4__Cr6__treeIN3web10WebStateIDENS_4lessIS2_EENS_9allocatorIS2_EEE7destroyEPNS_11__tree_nodeIS2_PvEE
__ZNSt4__Cr6__treeINS_12__value_typeIN3web10WebStateIDENS2_5proto23WebStateMetadataStorageEEENS_19__map_value_compareIS3_S6_NS_4lessIS3_EELb1EEENS_9allocatorIS6_EEE25__emplace_unique_key_argsIS3_JNS_4pairIS3_S5_EEEEENSF_INS_15__tree_iteratorIS6_PNS_11__tree_nodeIS6_PvEElEEbEERKT_DpOT0_
__ZNSt4__Cr12construct_atINS_4pairIKN3web10WebStateIDENS2_5proto23WebStateMetadataStorageEEEJNS1_IS3_S6_EEEPS7_EEPT_SB_DpOT0_
__ZNSt4__Cr6__treeINS_12__value_typeIN3web10WebStateIDENS2_5proto23WebStateMetadataStorageEEENS_19__map_value_compareIS3_S6_NS_4lessIS3_EELb1EEENS_9allocatorIS6_EEE7destroyEPNS_11__tree_nodeIS6_PvEE
__ZN4base8internal9BindStateILb0ELb1ELb0EPFvRKNS_8FilePathERKNSt4__Cr3setIS2_NS5_4lessIS2_EENS5_9allocatorIS2_EEEEEJS2_SB_EEC2ISF_JS4_SB_EQntsr18CancellationTraitsE14is_cancellableEEPFvvEOT_DpOT0_
__ZN4base8internal9BindStateILb0ELb1ELb0EPFNSt4__Cr10unique_ptrIN3web8WebStateENS2_14default_deleteIS5_EEEERKNS_8FilePathEP18ChromeBrowserStateNS4_10WebStateIDENS4_5proto23WebStateMetadataStorageEEJS9_NS0_17UnretainedWrapperISC_NS_17unretained_traits12MayNotDangleELN15partition_alloc8internal12RawPtrTraitsE0EEEEEC2ISI_JSB_SD_EQntsr18CancellationTraitsE14is_cancellableEEPFvvEOT_DpOT0_
__ZN4base8internal7InvokerINS0_13FunctorTraitsIOPFvRKNS_8FilePathERKNSt4__Cr3setIS3_NS6_4lessIS3_EENS6_9allocatorIS3_EEEEEJOS3_OSC_EEENS0_9BindStateILb0ELb1ELb0ESG_JS3_SC_EEEFvvEE7RunOnceEPNS0_13BindStateBaseE
__ZN12_GLOBAL__N_120DeleteUnknownContentERKN4base8FilePathERKNSt4__Cr3setIS1_NS4_4lessIS1_EENS4_9allocatorIS1_EEEE
__Z23DeserializeWebStateListP12WebStateListN3ios5proto19WebStateListStorageEbRKN4base17RepeatingCallbackIFNSt4__Cr10unique_ptrIN3web8WebStateENS6_14default_deleteIS9_EEEENS8_10WebStateIDENS8_5proto23WebStateMetadataStorageEEEE
__ZN12_GLOBAL__N_131DeserializeWebStateListInternalEP12WebStateListbRKNS_12DeserializerE
__ZN12WebStateList19StartBatchOperationEv
__ZN12WebStateList20ScopedBatchOperationC2EPS_
__ZN4base12ObserverListI20WebStateListObserverLb1ELb1ENS_8internal22CheckedObserverAdapterEE4IterC2EPKS4_
__ZN4base8internal12WeakLinkNodeINS_12ObserverListI20WebStateListObserverLb1ELb1ENS0_22CheckedObserverAdapterEEEE7SetListEPS5_
__ZN4base12ObserverListI20WebStateListObserverLb1ELb1ENS_8internal22CheckedObserverAdapterEE4Iter16EnsureValidIndexEv
__ZNK4base12ObserverListI20WebStateListObserverLb1ELb1ENS_8internal22CheckedObserverAdapterEE4ItereqERKS5_
__ZNK4base12ObserverListI20WebStateListObserverLb1ELb1ENS_8internal22CheckedObserverAdapterEE4Iter6is_endEv
__ZNK4base12ObserverListI20WebStateListObserverLb1ELb1ENS_8internal22CheckedObserverAdapterEE4Iter10GetCurrentEv
__ZN20WebStateListObserver23WillBeginBatchOperationEP12WebStateList
__ZThn24_N20SnapshotBrowserAgent23WillBeginBatchOperationEP12WebStateList
__ZN4base8internal9BindStateILb0ELb1ELb0EPFvRKNS_8FilePathERKNSt4__Cr3setIS2_NS5_4lessIS2_EENS5_9allocatorIS2_EEEEEJS2_SB_EE7DestroyEPKNS0_13BindStateBaseE
__ZN32IOSChromeLocalSessionEventRouter8Observer23WillBeginBatchOperationEP12WebStateList
__ZN26WebStateListObserverBridge23WillBeginBatchOperationEP12WebStateList
__ZN38SessionRestorationWebStateListObserver23WillBeginBatchOperationEP12WebStateList
__ZN4base12ObserverListI20WebStateListObserverLb1ELb1ENS_8internal22CheckedObserverAdapterEE4IterD2Ev
__ZN4base12ObserverListI20WebStateListObserverLb1ELb1ENS_8internal22CheckedObserverAdapterEE7CompactEv
__ZNSt4__Cr9remove_ifINS_11__wrap_iterIPN4base8internal22CheckedObserverAdapterEEEZNS2_12ObserverListI20WebStateListObserverLb1ELb1ES4_E7CompactEvEUlRKT_E_EESA_SA_SA_T0_
__ZNK12_GLOBAL__N_120DeserializeFromProto20GetRestoredTabsCountEv
__ZNK12_GLOBAL__N_120DeserializeFromProto26GetRestoredPinnedTabsCountEv
__ZNK12_GLOBAL__N_120DeserializeFromProto14GetActiveIndexEv
__ZNK12_GLOBAL__N_120DeserializeFromProto12RestoreTabAtEi
__ZNKR4base17RepeatingCallbackIFNSt4__Cr10unique_ptrIN3web8WebStateENS1_14default_deleteIS4_EEEENS3_10WebStateIDENS3_5proto23WebStateMetadataStorageEEE3RunES8_SA_
__ZN4base8internal7InvokerINS0_13FunctorTraitsIRKPFNSt4__Cr10unique_ptrIN3web8WebStateENS3_14default_deleteIS6_EEEERKNS_8FilePathEP18ChromeBrowserStateNS5_10WebStateIDENS5_5proto23WebStateMetadataStorageEEJSC_RKSE_EEENS0_9BindStateILb0ELb1ELb0ESJ_JSA_NS0_17UnretainedWrapperISD_NS_17unretained_traits12MayNotDangleELN15partition_alloc8internal12RawPtrTraitsE0EEEEEEFS9_SF_SH_EE3RunEPNS0_13BindStateBaseEOSF_OSH_
__ZN4base8internal20DecayedFunctorTraitsIPFNSt4__Cr10unique_ptrIN3web8WebStateENS2_14default_deleteIS5_EEEERKNS_8FilePathEP18ChromeBrowserStateNS4_10WebStateIDENS4_5proto23WebStateMetadataStorageEEJSB_RKSD_EE6InvokeIRKSI_JSB_SD_SE_SG_EEES8_OT_DpOT0_
__ZN12_GLOBAL__N_114CreateWebStateERKN4base8FilePathEP18ChromeBrowserStateN3web10WebStateIDENS6_5proto23WebStateMetadataStorageE
__ZN4base8internal9BindStateILb0ELb1ELb0EPFN3web5proto15WebStateStorageERKNS_8FilePathEEJS5_EEC2IS9_JS7_EQntsr18CancellationTraitsE14is_cancellableEEPFvvEOT_DpOT0_
__ZN4base8internal9BindStateILb0ELb1ELb0EPFP6NSDataRKNS_8FilePathEEJS4_EEC2IS8_JS6_EQntsr18CancellationTraitsE14is_cancellableEEPFvvEOT_DpOT0_
__ZN3web8WebState17CreateWithStorageEPNS_12BrowserStateENS_10WebStateIDENS_5proto23WebStateMetadataStorageEN4base12OnceCallbackIFNS4_15WebStateStorageEvEEENS7_IFP6NSDatavEEE
__ZNSt4__Cr11make_uniqueIN3web12WebStateImplEJRPNS1_12BrowserStateERNS1_10WebStateIDENS1_5proto23WebStateMetadataStorageEN4base12OnceCallbackIFNS8_15WebStateStorageEvEEENSB_IFP6NSDatavEEEEEENS_11__unique_ifIT_E15__unique_singleEDpOT0_
__ZN3web12WebStateImplC1EPNS_12BrowserStateENS_10WebStateIDENS_5proto23WebStateMetadataStorageEN4base12OnceCallbackIFNS4_15WebStateStorageEvEEENS7_IFP6NSDatavEEE
__ZN3web12WebStateImplC2EPNS_12BrowserStateENS_10WebStateIDENS_5proto23WebStateMetadataStorageEN4base12OnceCallbackIFNS4_15WebStateStorageEvEEENS7_IFP6NSDatavEEE
__ZNSt4__Cr11make_uniqueIN3web12WebStateImpl14SerializedDataEJPS2_RPNS1_12BrowserStateEU8__strongP8NSStringRNS1_10WebStateIDENS1_5proto23WebStateMetadataStorageEN4base12OnceCallbackIFNSD_15WebStateStorageEvEEENSG_IFP6NSDatavEEEEEENS_11__unique_ifIT_E15__unique_singleEDpOT0_
__ZN3web12WebStateImpl14SerializedDataC1EPS0_PNS_12BrowserStateEP8NSStringNS_10WebStateIDENS_5proto23WebStateMetadataStorageEN4base12OnceCallbackIFNS8_15WebStateStorageEvEEENSB_IFP6NSDatavEEE
__ZN3web12WebStateImpl14SerializedDataC2EPS0_PNS_12BrowserStateEP8NSStringNS_10WebStateIDENS_5proto23WebStateMetadataStorageEN4base12OnceCallbackIFNS8_15WebStateStorageEvEEENSB_IFP6NSDatavEEE
__ZN3web26GlobalWebStateEventTracker17OnWebStateCreatedEPNS_8WebStateE
__ZN4base28ScopedMultiSourceObservationIN3web8WebStateENS1_16WebStateObserverEE14AddObservationEPS2_
__ZNSt4__Cr6vectorIN4base7raw_ptrIN3web8WebStateELN15partition_alloc8internal12RawPtrTraitsE0EEENS_9allocatorIS8_EEE21__push_back_slow_pathIS8_EEPS8_OT_
__ZN3web12WebStateImpl11AddObserverEPNS_16WebStateObserverE
__ZN4base12ObserverListIN3web16WebStateObserverELb1ELb1ENS_8internal22CheckedObserverAdapterEE11AddObserverEPS2_
__ZNK3web12WebStateImpl19GetUniqueIdentifierEv
__ZNK3web12WebStateImpl14SerializedData19GetUniqueIdentifierEv
__ZN12WebStateList15InsertionParamsC1Ev
__ZN14WebStateOpenerC1Ev
__ZN12WebStateList15InsertionParamsC1ERKS0_
__ZN12WebStateList15InsertionParamsC2ERKS0_
__ZN12WebStateList14InsertWebStateENSt4__Cr10unique_ptrIN3web8WebStateENS0_14default_deleteIS3_EEEENS_15InsertionParamsE
__ZN12WebStateList15LockForMutationEv
__ZN12WebStateList18InsertWebStateImplENSt4__Cr10unique_ptrIN3web8WebStateENS0_14default_deleteIS3_EEEENS_15InsertionParamsE
__ZN37OrderControllerSourceFromWebStateListC1ERK12WebStateList
__ZN37OrderControllerSourceFromWebStateListC2ERK12WebStateList
__ZN15OrderControllerC1ERK21OrderControllerSource
__ZN15OrderControllerC2ERK21OrderControllerSource
__ZN15OrderController15InsertionParams10ForceIndexEiNS_5RangeE
__ZNK15OrderController23DetermineInsertionIndexENS_15InsertionParamsE
__ZNK37OrderControllerSourceFromWebStateList8GetCountEv
__ZN27BrowserWebStateListDelegate15WillAddWebStateEPN3web8WebStateE
__Z16AttachTabHelpersPN3web8WebStateEb
__ZNK3web12WebStateImpl15GetBrowserStateEv
__ZNK3web12WebStateImpl14SerializedData15GetBrowserStateEv
__ZN3web16WebStateUserDataI25IOSChromeSessionTabHelperE17CreateForWebStateIJEEEvPNS_8WebStateEDpOT_
__ZN25IOSChromeSessionTabHelperC1EPN3web8WebStateE
__ZN3web16WebStateUserDataI30VoiceSearchNavigationTabHelperE17CreateForWebStateIJEEEvPNS_8WebStateEDpOT_
__ZN30VoiceSearchNavigationTabHelperC1EPN3web8WebStateE
__ZN30VoiceSearchNavigationTabHelperC2EPN3web8WebStateE
__ZN3web16WebStateUserDataI26IOSChromeSyncedTabDelegateE17CreateForWebStateIJEEEvPNS_8WebStateEDpOT_
__ZN26IOSChromeSyncedTabDelegateC1EPN3web8WebStateE
__ZN26IOSChromeSyncedTabDelegateC2EPN3web8WebStateE
__ZNK29SessionRestorationServiceImpl22PlaceholderTabsEnabledEv
__ZN3web16WebStateUserDataI18InfoBarManagerImplE17CreateForWebStateIJEEEvPNS_8WebStateEDpOT_
__ZN18InfoBarManagerImplC1EPN3web8WebStateE
__ZN18InfoBarManagerImplC2EPN3web8WebStateE
__Z27IsNativeFindInPageAvailablev
__ZN3web16WebStateUserDataI13FindTabHelperE17CreateForWebStateIJEEEvPNS_8WebStateEDpOT_
__ZN13FindTabHelperC1EPN3web8WebStateE
__ZN13FindTabHelperC2EPN3web8WebStateE
__ZN4base17ScopedObservationIN3web8WebStateENS1_16WebStateObserverEE7ObserveEPS2_
__ZNK3web12WebStateImpl10IsRealizedEv
__ZN3web16WebStateUserDataI16HistoryTabHelperE17CreateForWebStateIJEEEvPNS_8WebStateEDpOT_
__ZN16HistoryTabHelperC1EPN3web8WebStateE
__ZN16HistoryTabHelperC2EPN3web8WebStateE
__ZN4base17ScopedObservationIN9translate15TranslateDriverENS2_25LanguageDetectionObserverEEC2EPS3_
__ZN3web16WebStateUserDataI19LoadTimingTabHelperE17CreateForWebStateIJEEEvPNS_8WebStateEDpOT_
__ZN19LoadTimingTabHelperC1EPN3web8WebStateE
__ZN19LoadTimingTabHelperC2EPN3web8WebStateE
__ZN3web16WebStateUserDataI26OverscrollActionsTabHelperE17CreateForWebStateIJEEEvPNS_8WebStateEDpOT_
__ZN26OverscrollActionsTabHelperC1EPN3web8WebStateE
__ZN26OverscrollActionsTabHelperC2EPN3web8WebStateE
__ZN3web16WebStateUserDataI16IOSTaskTabHelperE17CreateForWebStateIJEEEvPNS_8WebStateEDpOT_
__ZN16IOSTaskTabHelperC1EPN3web8WebStateE
__ZN16IOSTaskTabHelperC2EPN3web8WebStateE
__Z21IsPriceAlertsEligiblePN3web12BrowserStateE
__ZNK21AuthenticationService18HasPrimaryIdentityEN6signin12ConsentLevelE
__ZN8commerce22ShoppingServiceFactory18GetForBrowserStateEPN3web12BrowserStateE
__ZNK8commerce22ShoppingServiceFactory23BuildServiceInstanceForEPN3web12BrowserStateE
__ZNK21SessionProtoDBFactoryIN24commerce_subscription_db32CommerceSubscriptionContentProtoEE23BuildServiceInstanceForEPN3web12BrowserStateE
__ZN16session_proto_db8internal19BuildSessionProtoDBIN24commerce_subscription_db32CommerceSubscriptionContentProtoEEENSt4__Cr10unique_ptrI12KeyedServiceNS4_14default_deleteIS6_EEEEPN3web12BrowserStateE
__ZN14SessionProtoDBIN24commerce_subscription_db32CommerceSubscriptionContentProtoEEC2EPN13leveldb_proto21ProtoDatabaseProviderERKN4base8FilePathENS3_11ProtoDbTypeE13scoped_refptrINS6_22SingleThreadTaskRunnerEE
__ZN13leveldb_proto21ProtoDatabaseProvider5GetDBIN24commerce_subscription_db32CommerceSubscriptionContentProtoES3_EENSt4__Cr10unique_ptrINS_13ProtoDatabaseIT_T0_EENS4_14default_deleteIS9_EEEENS_11ProtoDbTypeERKN4base8FilePathERK13scoped_refptrINSE_19SequencedTaskRunnerEE
__ZN13leveldb_proto17ProtoDatabaseImplIN24commerce_subscription_db32CommerceSubscriptionContentProtoES2_EC2ENS_11ProtoDbTypeERKN4base8FilePathERK13scoped_refptrINS5_19SequencedTaskRunnerEENSt4__Cr10unique_ptrINS_27SharedProtoDatabaseProviderENSE_14default_deleteISG_EEEE
__ZN4base14WeakPtrFactoryI14SessionProtoDBIN24commerce_subscription_db32CommerceSubscriptionContentProtoEEE10GetWeakPtrEvQntsr3stdE10is_const_vIT_E
__ZN4base8internal9BindStateILb1ELb1ELb0EM14SessionProtoDBIN24commerce_subscription_db32CommerceSubscriptionContentProtoEEFvN13leveldb_proto5Enums10InitStatusEEJNS_7WeakPtrIS5_EEEEC2ISA_JSC_EQsr18CancellationTraitsE14is_cancellableEEPFvvEOT_DpOT0_
__ZN13leveldb_proto17ProtoDatabaseImplIN24commerce_subscription_db32CommerceSubscriptionContentProtoES2_E4InitEN4base12OnceCallbackIFvNS_5Enums10InitStatusEEEE
__ZN13leveldb_proto17ProtoDatabaseImplIN24commerce_subscription_db32CommerceSubscriptionContentProtoES2_E12InitInternalERKNSt4__Cr12basic_stringIcNS4_11char_traitsIcEENS4_9allocatorIcEEEERKN11leveldb_env7OptionsEbN4base12OnceCallbackIFvNS_5Enums10InitStatusEEEE
__ZN4base8internal9BindStateILb1ELb1ELb0EMN13leveldb_proto21ProtoDatabaseSelectorEFvRKNSt4__Cr12basic_stringIcNS4_11char_traitsIcEENS4_9allocatorIcEEEENS_8FilePathERKN11leveldb_env7OptionsEb13scoped_refptrINS_19SequencedTaskRunnerEENS_12OnceCallbackIFvNS2_5Enums10InitStatusEEEEEJSI_IS3_ESA_SD_SF_bSK_SP_EEC2ISR_JRSS_SC_RSD_SH_RbRKSK_SP_EQntsr18CancellationTraitsE14is_cancellableEEPFvvEOT_DpOT0_
__ZNK21SessionProtoDBFactoryIN18parcel_tracking_db21ParcelTrackingContentEE23BuildServiceInstanceForEPN3web12BrowserStateE
__ZN16session_proto_db8internal19BuildSessionProtoDBIN18parcel_tracking_db21ParcelTrackingContentEEENSt4__Cr10unique_ptrI12KeyedServiceNS4_14default_deleteIS6_EEEEPN3web12BrowserStateE
__ZN14SessionProtoDBIN18parcel_tracking_db21ParcelTrackingContentEEC2EPN13leveldb_proto21ProtoDatabaseProviderERKN4base8FilePathENS3_11ProtoDbTypeE13scoped_refptrINS6_22SingleThreadTaskRunnerEE
__ZN13leveldb_proto21ProtoDatabaseProvider5GetDBIN18parcel_tracking_db21ParcelTrackingContentES3_EENSt4__Cr10unique_ptrINS_13ProtoDatabaseIT_T0_EENS4_14default_deleteIS9_EEEENS_11ProtoDbTypeERKN4base8FilePathERK13scoped_refptrINSE_19SequencedTaskRunnerEE
__ZN13leveldb_proto17ProtoDatabaseImplIN18parcel_tracking_db21ParcelTrackingContentES2_EC2ENS_11ProtoDbTypeERKN4base8FilePathERK13scoped_refptrINS5_19SequencedTaskRunnerEENSt4__Cr10unique_ptrINS_27SharedProtoDatabaseProviderENSE_14default_deleteISG_EEEE
__ZN4base14WeakPtrFactoryI14SessionProtoDBIN18parcel_tracking_db21ParcelTrackingContentEEE10GetWeakPtrEvQntsr3stdE10is_const_vIT_E
__ZN4base8internal9BindStateILb1ELb1ELb0EM14SessionProtoDBIN18parcel_tracking_db21ParcelTrackingContentEEFvN13leveldb_proto5Enums10InitStatusEEJNS_7WeakPtrIS5_EEEEC2ISA_JSC_EQsr18CancellationTraitsE14is_cancellableEEPFvvEOT_DpOT0_
__ZN13leveldb_proto17ProtoDatabaseImplIN18parcel_tracking_db21ParcelTrackingContentES2_E4InitEN4base12OnceCallbackIFvNS_5Enums10InitStatusEEEE
__ZN13leveldb_proto17ProtoDatabaseImplIN18parcel_tracking_db21ParcelTrackingContentES2_E12InitInternalERKNSt4__Cr12basic_stringIcNS4_11char_traitsIcEENS4_9allocatorIcEEEERKN11leveldb_env7OptionsEbN4base12OnceCallbackIFvNS_5Enums10InitStatusEEEE
__ZN8commerce16WebExtractorImplC1Ev
__ZThn8_N14SessionProtoDBIN24commerce_subscription_db32CommerceSubscriptionContentProtoEE14LoadAllEntriesEN4base12OnceCallbackIFvbNSt4__Cr6vectorINS5_4pairINS5_12basic_stringIcNS5_11char_traitsIcEENS5_9allocatorIcEEEES1_EENSB_ISE_EEEEEEE
__ZN14SessionProtoDBIN24commerce_subscription_db32CommerceSubscriptionContentProtoEE14LoadAllEntriesEN4base12OnceCallbackIFvbNSt4__Cr6vectorINS5_4pairINS5_12basic_stringIcNS5_11char_traitsIcEENS5_9allocatorIcEEEES1_EENSB_ISE_EEEEEEE
__ZN4base8internal9BindStateILb1ELb1ELb0EM14SessionProtoDBIN24commerce_subscription_db32CommerceSubscriptionContentProtoEEFvNS_12OnceCallbackIFvbNSt4__Cr6vectorINS7_4pairINS7_12basic_stringIcNS7_11char_traitsIcEENS7_9allocatorIcEEEES4_EENSD_ISG_EEEEEEEEJNS_7WeakPtrIS5_EESK_EEC2ISM_JSO_SK_EQsr18CancellationTraitsE14is_cancellableEEPFvvEOT_DpOT0_
__ZNSt4__Cr6vectorIN4base12OnceCallbackIFvvEEENS_9allocatorIS4_EEE21__push_back_slow_pathIS4_EEPS4_OT_
__ZN3web16WebStateUserDataIN8commerce17CommerceTabHelperEE17CreateForWebStateIJRKbPNS1_15ShoppingServiceEEEEvPNS_8WebStateEDpOT_
__ZN8commerce17CommerceTabHelperC1EPN3web8WebStateEbPNS_15ShoppingServiceE
__ZN8commerce17CommerceTabHelperC2EPN3web8WebStateEbPNS_15ShoppingServiceE
__ZN8commerce15WebStateWrapperC1EPN3web8WebStateE
__ZN8commerce15WebStateWrapperC2EPN3web8WebStateE
__ZN3web16WebStateUserDataI13LensTabHelperE17CreateForWebStateIJEEEvPNS_8WebStateEDpOT_
__ZN13LensTabHelperC1EPN3web8WebStateE
__ZN3web21WebStatePolicyDeciderC2EPNS_8WebStateE
__ZN3web12WebStateImpl16AddPolicyDeciderEPNS_21WebStatePolicyDeciderE
__ZN4base12ObserverListIN3web21WebStatePolicyDeciderELb1ELb1ENS_8internal22CheckedObserverAdapterEE11AddObserverEPS2_
-[AppLauncherAbuseDetector init]
__ZN3web16WebStateUserDataI20AppLauncherTabHelperE17CreateForWebStateIJU8__strongP24AppLauncherAbuseDetectorRKbEEEvPNS_8WebStateEDpOT_
__ZN20AppLauncherTabHelperC1EPN3web8WebStateEP24AppLauncherAbuseDetectorb
__ZN20AppLauncherTabHelperC2EPN3web8WebStateEP24AppLauncherAbuseDetectorb
__ZN3web16WebStateUserDataIN22security_interstitials24IOSBlockingPageTabHelperEE17CreateForWebStateIJEEEvPNS_8WebStateEDpOT_
__ZN22security_interstitials24IOSBlockingPageTabHelperC1EPN3web8WebStateE
__ZN22security_interstitials24IOSBlockingPageTabHelper29CommittedNavigationIDListenerC2EPN3web8WebStateEPS0_
__ZN3web16WebStateUserDataIN16password_manager32WellKnownChangePasswordTabHelperEE17CreateForWebStateIJEEEvPNS_8WebStateEDpOT_
__ZN16password_manager32WellKnownChangePasswordTabHelperC1EPN3web8WebStateE
__ZN16password_manager32WellKnownChangePasswordTabHelperC2EPN3web8WebStateE
__ZN3web16WebStateUserDataI19InvalidUrlTabHelperE17CreateForWebStateIJEEEvPNS_8WebStateEDpOT_
__ZN19InvalidUrlTabHelperC1EPN3web8WebStateE
__ZN3web16WebStateUserDataI29InfobarOverlayRequestInserterE17CreateForWebStateIJPFNSt4__Cr10unique_ptrI14OverlayRequestNS4_14default_deleteIS6_EEEEP10InfoBarIOS18InfobarOverlayTypeEEEEvPNS_8WebStateEDpOT_
__ZN29InfobarOverlayRequestInserterC1EPN3web8WebStateEPFNSt4__Cr10unique_ptrI14OverlayRequestNS3_14default_deleteIS5_EEEEP10InfoBarIOS18InfobarOverlayTypeE
__ZN29InfobarOverlayRequestInserterC2EPN3web8WebStateEPFNSt4__Cr10unique_ptrI14OverlayRequestNS3_14default_deleteIS5_EEEEP10InfoBarIOS18InfobarOverlayTypeE
__ZN30InfobarModalCompletionNotifierC1EPN3web8WebStateE
__ZN30InfobarModalCompletionNotifierC2EPN3web8WebStateE
__ZN36OverlayRequestQueueCallbackInstaller6CreateEPN3web8WebStateE15OverlayModality
__ZN40OverlayRequestQueueCallbackInstallerImpl20RequestAddedObserverC2EPN3web8WebStateE15OverlayModality
__ZN4base17ScopedObservationI23OverlayRequestQueueImplNS1_8ObserverEEC2EPS2_
__ZN23OverlayRequestQueueImpl12FromWebStateEPN3web8WebStateE15OverlayModality
__ZN3web16WebStateUserDataIN23OverlayRequestQueueImpl9ContainerEE17CreateForWebStateIJEEEvPNS_8WebStateEDpOT_
__ZN23OverlayRequestQueueImpl9ContainerC2EPN3web8WebStateE
__ZN23OverlayRequestQueueImpl9Container16QueueForModalityE15OverlayModality
__ZNSt4__Cr6__treeINS_12__value_typeI15OverlayModalityNS_10unique_ptrI23OverlayRequestQueueImplNS_14default_deleteIS4_EEEEEENS_19__map_value_compareIS2_S8_NS_4lessIS2_EELb1EEENS_9allocatorIS8_EEE25__emplace_unique_key_argsIS2_JRKNS_21piecewise_construct_tENS_5tupleIJRKS2_EEENSK_IJEEEEEENS_4pairINS_15__tree_iteratorIS8_PNS_11__tree_nodeIS8_PvEElEEbEERKT_DpOT0_
__ZN23OverlayRequestQueueImplC2EPN3web8WebStateE
__ZN4base17ScopedObservationI23OverlayRequestQueueImplNS1_8ObserverEE7ObserveEPS1_
__ZN23OverlayRequestQueueImpl11AddObserverEPNS_8ObserverE
__ZN4base12ObserverListIN23OverlayRequestQueueImpl8ObserverELb1ELb1ENS_8internal22CheckedObserverAdapterEE11AddObserverEPS2_
__ZN30InfobarModalCompletionNotifier24ModalCompletionInstallerC2EPS_
__ZN40OverlayRequestQueueCallbackInstallerImpl27AddRequestCallbackInstallerENSt4__Cr10unique_ptrI31OverlayRequestCallbackInstallerNS0_14default_deleteIS2_EEEE
__ZN40OverlayRequestQueueCallbackInstallerImpl20RequestAddedObserver12AddInstallerENSt4__Cr10unique_ptrI31OverlayRequestCallbackInstallerNS1_14default_deleteIS3_EEEE
__ZN19OverlayRequestQueue12FromWebStateEPN3web8WebStateE15OverlayModality
__ZNSt4__Cr6__treeINS_12__value_typeI18InfobarOverlayTypeP19OverlayRequestQueueEENS_19__map_value_compareIS2_S5_NS_4lessIS2_EELb1EEENS_9allocatorIS5_EEE25__emplace_unique_key_argsIS2_JRKNS_21piecewise_construct_tENS_5tupleIJOS2_EEENSH_IJEEEEEENS_4pairINS_15__tree_iteratorIS5_PNS_11__tree_nodeIS5_PvEElEEbEERKT_DpOT0_
__ZN3web16WebStateUserDataI23InfobarOverlayTabHelperE17CreateForWebStateIJEEEvPNS_8WebStateEDpOT_
__ZN23InfobarOverlayTabHelperC1EPN3web8WebStateE
__ZN23InfobarOverlayTabHelperC2EPN3web8WebStateE
__ZN23InfobarOverlayTabHelper23OverlayRequestSchedulerC2EPN3web8WebStateEPS_
__ZN3web16WebStateUserDataI25TranslateOverlayTabHelperE17CreateForWebStateIJEEEvPNS_8WebStateEDpOT_
__ZN25TranslateOverlayTabHelperC1EPN3web8WebStateE
__ZN25TranslateOverlayTabHelperC2EPN3web8WebStateE
__ZN25TranslateOverlayTabHelper21TranslateStepObserverC2EPS_
__ZN4base17ScopedObservationIN9translate24TranslateInfoBarDelegateENS2_8ObserverEEC2EPS3_
__ZN25TranslateOverlayTabHelper24TranslateInfobarObserverC2EPN3web8WebStateEPS_
__ZN25TranslateOverlayTabHelper25WebStateDestroyedObserverC2EPN3web8WebStateEPS_
__ZN3ios8provider17IsTextZoomEnabledEv
__ZN3web16WebStateUserDataI17FontSizeTabHelperE17CreateForWebStateIJEEEvPNS_8WebStateEDpOT_
__ZN17FontSizeTabHelperC1EPN3web8WebStateE
__ZN17FontSizeTabHelperC2EPN3web8WebStateE
__ZN3web16WebStateUserDataI20AnnotationsTabHelperE17CreateForWebStateIJEEEvPNS_8WebStateEDpOT_
__ZN20AnnotationsTabHelperC1EPN3web8WebStateE
__ZN20AnnotationsTabHelperC2EPN3web8WebStateE
__ZN3web22AnnotationsTextManager17CreateForWebStateEPNS_8WebStateE
__ZN3web26AnnotationsTextManagerImplC1EPNS_8WebStateE
__ZN3web26AnnotationsTextManagerImplC2EPNS_8WebStateE
__ZN3web26AnnotationsTextManagerImpl11AddObserverEPNS_23AnnotationsTextObserverE
__ZN4base12ObserverListIN3web23AnnotationsTextObserverELb1ELb1ENS_8internal22CheckedObserverAdapterEE11AddObserverEPS2_
__ZN3ios8provider30GetHandledIntentTypesForOneTapEPN3web8WebStateE
__ZN3web26AnnotationsTextManagerImpl17SetSupportedTypesEy
__ZN25SafeBrowsingClientFactory18GetForBrowserStateEPN3web12BrowserStateE
__ZNK25SafeBrowsingClientFactory20GetBrowserStateToUseEPN3web12BrowserStateE
__ZNK25SafeBrowsingClientFactory23BuildServiceInstanceForEPN3web12BrowserStateE
__ZN31RealTimeUrlLookupServiceFactory18GetForBrowserStateEP18ChromeBrowserState
__ZNK31RealTimeUrlLookupServiceFactory23BuildServiceInstanceForEPN3web12BrowserStateE
__ZN23SafeBrowsingServiceImpl19GetURLLoaderFactoryEv
__ZN26VerdictCacheManagerFactory18GetForBrowserStateEP18ChromeBrowserState
__ZNK26VerdictCacheManagerFactory20GetBrowserStateToUseEPN3web12BrowserStateE
__ZNK26VerdictCacheManagerFactory23BuildServiceInstanceForEPN3web12BrowserStateE
__ZN4base8internal9BindStateILb0ELb1ELb0EPFN13safe_browsing20ChromeUserPopulationEP18ChromeBrowserStateEJNS0_17UnretainedWrapperIS4_NS_17unretained_traits12MayNotDangleELN15partition_alloc8internal12RawPtrTraitsE0EEEEEC2IS7_JRS5_EQntsr18CancellationTraitsE14is_cancellableEEPFvvEOT_DpOT0_
__ZN4base8internal9BindStateILb0ELb1ELb0EPFbPN6syncer11SyncServiceEPN6signin15IdentityManagerEbEJNS0_17UnretainedWrapperIS3_NS_17unretained_traits12MayNotDangleELN15partition_alloc8internal12RawPtrTraitsE0EEENSA_IS6_SC_LSF_0EEEEEC2IS9_JS4_S7_EQntsr18CancellationTraitsE14is_cancellableEEPFvvEOT_DpOT0_
__ZN4base8internal17UnretainedWrapperIN6syncer11SyncServiceENS_17unretained_traits12MayNotDangleELN15partition_alloc8internal12RawPtrTraitsE0EEC2EPS3_QeqT1_LS8_0E
__ZN4base8internal17UnretainedWrapperIN6signin15IdentityManagerENS_17unretained_traits12MayNotDangleELN15partition_alloc8internal12RawPtrTraitsE0EEC2EPS3_QeqT1_LS8_0E
__ZN26HashRealTimeServiceFactory18GetForBrowserStateEP18ChromeBrowserState
__ZNK26HashRealTimeServiceFactory23BuildServiceInstanceForEPN3web12BrowserStateE
__ZN4base8internal9BindStateILb0ELb1ELb0EPFPN7network5mojom14NetworkContextEvEJEE6CreateIS7_JEEEPS8_PFvvEOT_DpOT0_
__ZN22OhttpKeyServiceFactory18GetForBrowserStateEPN3web12BrowserStateE
__ZN22SafeBrowsingClientImplC1EPN13safe_browsing24RealTimeUrlLookupServiceEPNS0_19HashRealTimeServiceEP16PrerenderService
__ZN22SafeBrowsingClientImplC2EPN13safe_browsing24RealTimeUrlLookupServiceEPNS0_19HashRealTimeServiceEP16PrerenderService
__ZN3web16WebStateUserDataI24SafeBrowsingQueryManagerE17CreateForWebStateIJRP18SafeBrowsingClientEEEvPNS_8WebStateEDpOT_
__ZN24SafeBrowsingQueryManagerC1EPN3web8WebStateEP18SafeBrowsingClient
__ZN24SafeBrowsingQueryManagerC2EPN3web8WebStateEP18SafeBrowsingClient
__ZN3web16WebStateUserDataI21SafeBrowsingTabHelperE17CreateForWebStateIJRP18SafeBrowsingClientEEEvPNS_8WebStateEDpOT_
__ZN21SafeBrowsingTabHelperC1EPN3web8WebStateEP18SafeBrowsingClient
__ZN21SafeBrowsingTabHelper13PolicyDeciderC2EPN3web8WebStateEP18SafeBrowsingClient
__ZN21SafeBrowsingTabHelper13QueryObserverC2EPN3web8WebStateEPNS_13PolicyDeciderE
__ZN4base17ScopedObservationI24SafeBrowsingQueryManagerNS1_8ObserverEEC2EPS2_
__ZN4base17ScopedObservationI24SafeBrowsingQueryManagerNS1_8ObserverEE7ObserveEPS1_
__ZN24SafeBrowsingQueryManager11AddObserverEPNS_8ObserverE
__ZN4base12ObserverListIN24SafeBrowsingQueryManager8ObserverELb1ELb1ENS_8internal22CheckedObserverAdapterEE11AddObserverEPS2_
__ZN21SafeBrowsingTabHelper18NavigationObserverC2EPN3web8WebStateEPNS_13PolicyDeciderE
__ZN3web16WebStateUserDataI24SafeBrowsingUrlAllowListE17CreateForWebStateIJEEEvPNS_8WebStateEDpOT_
__ZN24SafeBrowsingUrlAllowListC1EPN3web8WebStateE
__ZN24SafeBrowsingUrlAllowListC2EPN3web8WebStateE
__ZN3web16WebStateUserDataI35SafeBrowsingUnsafeResourceContainerE17CreateForWebStateIJEEEvPNS_8WebStateEDpOT_
__ZN35SafeBrowsingUnsafeResourceContainerC1EPN3web8WebStateE
__ZN35SafeBrowsingUnsafeResourceContainerC2EPN3web8WebStateE
__ZN28PendingUnsafeResourceStorageC1Ev
__ZN30TailoredSecurityServiceFactory18GetForBrowserStateEP18ChromeBrowserState
__ZN30TailoredSecurityServiceFactoryC2Ev
__ZNK30TailoredSecurityServiceFactory23BuildServiceInstanceForEPN3web12BrowserStateE
__ZN13safe_browsing29ChromeTailoredSecurityServiceC1EP18ChromeBrowserStatePN6signin15IdentityManagerEPN6syncer11SyncServiceE
__ZN13safe_browsing29ChromeTailoredSecurityServiceC2EP18ChromeBrowserStatePN6signin15IdentityManagerEPN6syncer11SyncServiceE
__ZN4base14WeakPtrFactoryIN13safe_browsing29ChromeTailoredSecurityServiceEE10GetWeakPtrEvQntsr3stdE10is_const_vIT_E
___copy_helper_block_e8_32c69_ZTSN4base7WeakPtrIN13safe_browsing29ChromeTailoredSecurityServiceEEE
__ZN3web16WebStateUserDataI25TailoredSecurityTabHelperE17CreateForWebStateIJPN13safe_browsing23TailoredSecurityServiceEEEEvPNS_8WebStateEDpOT_
__ZN25TailoredSecurityTabHelperC1EPN3web8WebStateEPN13safe_browsing23TailoredSecurityServiceE
__ZN25TailoredSecurityTabHelperC2EPN3web8WebStateEPN13safe_browsing23TailoredSecurityServiceE
__ZNK3web12WebStateImpl9IsVisibleEv
__ZNK3web12WebStateImpl19GetLastCommittedURLEv
__ZNK3web12WebStateImpl14SerializedData19GetLastCommittedURLEv
__ZN25TailoredSecurityTabHelper17UpdateFocusAndURLEbRK4GURL
__ZN3web16WebStateUserDataI26PolicyUrlBlockingTabHelperE17CreateForWebStateIJEEEvPNS_8WebStateEDpOT_
__ZN26PolicyUrlBlockingTabHelperC1EPN3web8WebStateE
__ZN3web16WebStateUserDataI32SupervisedUserURLFilterTabHelperE17CreateForWebStateIJEEEvPNS_8WebStateEDpOT_
__ZN32SupervisedUserURLFilterTabHelperC1EPN3web8WebStateE
__ZN3web16WebStateUserDataI28SupervisedUserErrorContainerE17CreateForWebStateIJEEEvPNS_8WebStateEDpOT_
__ZN28SupervisedUserErrorContainerC1EPN3web8WebStateE
__ZN28SupervisedUserErrorContainerC2EPN3web8WebStateE
__ZN3web16WebStateUserDataI19ImageFetchTabHelperE17CreateForWebStateIJEEEvPNS_8WebStateEDpOT_
__ZN19ImageFetchTabHelperC1EPN3web8WebStateE
__ZN19ImageFetchTabHelperC2EPN3web8WebStateE
__ZN3web16WebStateUserDataI19NewTabPageTabHelperE17CreateForWebStateIJEEEvPNS_8WebStateEDpOT_
__ZN19NewTabPageTabHelperC1EPN3web8WebStateE
__ZN19NewTabPageTabHelperC2EPN3web8WebStateE
__ZNK3web12WebStateImpl13GetVisibleURLEv
__ZNK3web12WebStateImpl14SerializedData13GetVisibleURLEv
__Z8IsUrlNtpRK4GURL
-[NewTabPageState init]
-[NewTabPageState defaultScrollPosition]
-[NewTabPageState defaultFeedType]
__ZN3web16WebStateUserDataI26ShareFileDownloadTabHelperE17CreateForWebStateIJEEEvPNS_8WebStateEDpOT_
__ZN26ShareFileDownloadTabHelperC1EPN3web8WebStateE
__ZN26ShareFileDownloadTabHelperC2EPN3web8WebStateE
__ZN3web16WebStateUserDataI26OptimizationGuideTabHelperE17CreateForWebStateIJEEEvPNS_8WebStateEDpOT_
__ZN26OptimizationGuideTabHelperC1EPN3web8WebStateE
__ZN26OptimizationGuideTabHelperC2EPN3web8WebStateE
__ZN3web16WebStateUserDataI36OptimizationGuideValidationTabHelperE17CreateForWebStateIJEEEvPNS_8WebStateEDpOT_
__ZN36OptimizationGuideValidationTabHelperC1EPN3web8WebStateE
__ZN36OptimizationGuideValidationTabHelperC2EPN3web8WebStateE
__ZN24OptimizationGuideService25RegisterOptimizationTypesERKNSt4__Cr6vectorIN18optimization_guide5proto16OptimizationTypeENS0_9allocatorIS4_EEEE
__ZN3web16WebStateUserDataIN7favicon16WebFaviconDriverEE17CreateForWebStateIJPNS1_14FaviconServiceEEEEvPNS_8WebStateEDpOT_
__ZN7favicon16WebFaviconDriverC1EPN3web8WebStateEPNS_18CoreFaviconServiceE
__ZN7favicon16WebFaviconDriverC2EPN3web8WebStateEPNS_18CoreFaviconServiceE
__ZN13image_fetcher26IOSImageDataFetcherWrapperC1E13scoped_refptrIN7network22SharedURLLoaderFactoryEE
__ZN13image_fetcher26IOSImageDataFetcherWrapperC2E13scoped_refptrIN7network22SharedURLLoaderFactoryEE
__ZN3web16WebStateUserDataIN7history24WebStateTopSitesObserverEE17CreateForWebStateIJPNS1_8TopSitesEEEEvPNS_8WebStateEDpOT_
__ZN7history24WebStateTopSitesObserverC1EPN3web8WebStateEPNS_8TopSitesE
__ZN7history24WebStateTopSitesObserverC2EPN3web8WebStateEPNS_8TopSitesE
__ZN3web16WebStateUserDataI21UniqueIDDataTabHelperE17CreateForWebStateIJEEEvPNS_8WebStateEDpOT_
__ZN21UniqueIDDataTabHelperC1EPN3web8WebStateE
__ZN21UniqueIDDataTabHelperC2EPN3web8WebStateE
__ZN3web16WebStateUserDataI21SearchEngineTabHelperE17CreateForWebStateIJEEEvPNS_8WebStateEDpOT_
__ZN21SearchEngineTabHelperC1EPN3web8WebStateE
__ZN21SearchEngineTabHelperC2EPN3web8WebStateE
__ZN4base17ScopedObservationIN7favicon13FaviconDriverENS1_21FaviconDriverObserverEE7ObserveEPS2_
__ZN3ukm38InitializeSourceUrlRecorderForWebStateEPN3web8WebStateE
__ZN3web16WebStateUserDataIN3ukm8internal33SourceUrlRecorderWebStateObserverEE17CreateForWebStateIJEEEvPNS_8WebStateEDpOT_
__ZN3web16WebStateUserDataI24DownloadManagerTabHelperE17CreateForWebStateIJEEEvPNS_8WebStateEDpOT_
__ZN24DownloadManagerTabHelperC1EPN3web8WebStateE
__ZN24DownloadManagerTabHelperC2EPN3web8WebStateE
__ZN3web16WebStateUserDataI23SafariDownloadTabHelperE17CreateForWebStateIJEEEvPNS_8WebStateEDpOT_
__ZN23SafariDownloadTabHelperC1EPN3web8WebStateE
__ZN3web16WebStateUserDataI14VcardTabHelperE17CreateForWebStateIJEEEvPNS_8WebStateEDpOT_
__ZN14VcardTabHelperC1EPN3web8WebStateE
__ZN14VcardTabHelperC2EPN3web8WebStateE
__ZN3web16WebStateUserDataI25DocumentDownloadTabHelperE17CreateForWebStateIJEEEvPNS_8WebStateEDpOT_
__ZN25DocumentDownloadTabHelperC1EPN3web8WebStateE
__ZN25DocumentDownloadTabHelperC2EPN3web8WebStateE
__ZN3web16WebStateUserDataI35PageloadForegroundDurationTabHelperE17CreateForWebStateIJEEEvPNS_8WebStateEDpOT_
__ZN35PageloadForegroundDurationTabHelperC1EPN3web8WebStateE
__ZN35PageloadForegroundDurationTabHelperC2EPN3web8WebStateE
__ZN3web16WebStateUserDataI21LookalikeUrlTabHelperE17CreateForWebStateIJEEEvPNS_8WebStateEDpOT_
__ZN21LookalikeUrlTabHelperC1EPN3web8WebStateE
__ZN3web16WebStateUserDataI24LookalikeUrlTabAllowListE17CreateForWebStateIJEEEvPNS_8WebStateEDpOT_
__ZN24LookalikeUrlTabAllowListC1EPN3web8WebStateE
__ZN3web16WebStateUserDataI21LookalikeUrlContainerE17CreateForWebStateIJEEEvPNS_8WebStateEDpOT_
__ZN21LookalikeUrlContainerC1EPN3web8WebStateE
__ZN3web16WebStateUserDataI15SadTabTabHelperE17CreateForWebStateIJRKN4base9TimeDeltaEEEEvPNS_8WebStateEDpOT_
__ZN15SadTabTabHelperC1EPN3web8WebStateEN4base9TimeDeltaE
__ZN15SadTabTabHelperC2EPN3web8WebStateEN4base9TimeDeltaE
__ZN3web16WebStateUserDataI17SnapshotTabHelperE17CreateForWebStateIJEEEvPNS_8WebStateEDpOT_
__ZN17SnapshotTabHelperC1EPN3web8WebStateE
__ZN17SnapshotTabHelperC2EPN3web8WebStateE
-[SnapshotManager .cxx_construct]
-[LegacySnapshotGenerator .cxx_construct]
-[LegacySnapshotGenerator initWithWebState:]
__ZN3web12WebStateImpl10GetWeakPtrEv
__ZN4base14WeakPtrFactoryIN3web12WebStateImplEE10GetWeakPtrEvQntsr3stdE10is_const_vIT_E
-[SnapshotManager initWithGenerator:snapshotID:]
__ZN3web16WebStateUserDataI24PagePlaceholderTabHelperE17CreateForWebStateIJEEEvPNS_8WebStateEDpOT_
__ZN24PagePlaceholderTabHelperC1EPN3web8WebStateE
__ZN24PagePlaceholderTabHelperC2EPN3web8WebStateE
__ZN3web16WebStateUserDataI24ChromeIOSTranslateClientE17CreateForWebStateIJEEEvPNS_8WebStateEDpOT_
__ZN24ChromeIOSTranslateClientC1EPN3web8WebStateE
__ZN24ChromeIOSTranslateClientC2EPN3web8WebStateE
__ZN36LanguageDetectionModelServiceFactory18GetForBrowserStateEP18ChromeBrowserState
__ZN4base12NoDestructorI36LanguageDetectionModelServiceFactoryEC1IJEEEDpOT_
__ZN28TranslateModelServiceFactory11GetInstanceEv
__ZN4base12NoDestructorI28TranslateModelServiceFactoryEC1IJEEEDpOT_
__ZNK36LanguageDetectionModelServiceFactory20GetBrowserStateToUseEPN3web12BrowserStateE
__ZNK36LanguageDetectionModelServiceFactory23BuildServiceInstanceForEPN3web12BrowserStateE
__ZN28TranslateModelServiceFactory18GetForBrowserStateEP18ChromeBrowserState
__ZNK28TranslateModelServiceFactory20GetBrowserStateToUseEPN3web12BrowserStateE
__ZNK28TranslateModelServiceFactory23BuildServiceInstanceForEPN3web12BrowserStateE
__ZThn16_N24OptimizationGuideService37AddObserverForOptimizationTargetModelEN18optimization_guide5proto18OptimizationTargetERKNSt4__Cr8optionalINS1_3AnyEEEPNS0_31OptimizationTargetModelObserverE
__ZN4base8internal7InvokerINS0_13FunctorTraitsIRKZN24OptimizationGuideServiceC1EPN13leveldb_proto21ProtoDatabaseProviderERKNS_8FilePathEbRKNSt4__Cr12basic_stringIcNSA_11char_traitsIcEENSA_9allocatorIcEEEENS_7WeakPtrIN18optimization_guide22OptimizationGuideStoreEEEP11PrefServiceP11BrowserList13scoped_refptrIN7network22SharedURLLoaderFactoryEENS_12OnceCallbackIFPN8download25BackgroundDownloadServiceEvEEEPN6signin15IdentityManagerEE3$_0JEEENS0_9BindStateILb0ELb0ELb0ES14_JEEEFbvEE3RunEPNS0_13BindStateBaseE
__ZN9translate29LanguageDetectionModelServiceC1EPNS_21TranslateModelServiceERK13scoped_refptrIN4base19SequencedTaskRunnerEE
__ZN9translate29LanguageDetectionModelServiceC2EPNS_21TranslateModelServiceERK13scoped_refptrIN4base19SequencedTaskRunnerEE
__ZN4base14WeakPtrFactoryIN9translate29LanguageDetectionModelServiceEE10GetWeakPtrEvQntsr3stdE10is_const_vIT_E
__ZN4base8internal9BindStateILb1ELb1ELb0EMN9translate29LanguageDetectionModelServiceEFvbEJNS_7WeakPtrIS3_EEEEC2IS5_JS7_EQsr18CancellationTraitsE14is_cancellableEEPFvvEOT_DpOT0_
__ZN9translate18IOSTranslateDriverC1EPN3web8WebStateEPNS_29LanguageDetectionModelServiceE
__ZN9translate18IOSTranslateDriverC2EPN3web8WebStateEPNS_29LanguageDetectionModelServiceE
__ZN27LanguageModelManagerFactory18GetForBrowserStateEP18ChromeBrowserState
__ZNK27LanguageModelManagerFactory20GetBrowserStateToUseEPN3web12BrowserStateE
__ZNK27LanguageModelManagerFactory23BuildServiceInstanceForEPN3web12BrowserStateE
__ZN24ChromeIOSTranslateClient18GetTranslateDriverEv
__ZN9translate18IOSTranslateDriver10InitializeEPN8language20UrlLanguageHistogramEPNS_16TranslateManagerE
__ZN9translate29LanguageDetectionModelService25GetLanguageDetectionModelEv
__ZN24ChromeIOSTranslateClient8GetPrefsEv
__ZN3web16WebStateUserDataIN8language29IOSLanguageDetectionTabHelperEE17CreateForWebStateIJRPNS1_20UrlLanguageHistogramERPN9translate22LanguageDetectionModelEP11PrefServiceEEEvPNS_8WebStateEDpOT_
__ZN8language29IOSLanguageDetectionTabHelperC1EPN3web8WebStateEPNS_20UrlLanguageHistogramEPN9translate22LanguageDetectionModelEP11PrefService
__ZN8language29IOSLanguageDetectionTabHelperC2EPN3web8WebStateEPNS_20UrlLanguageHistogramEPN9translate22LanguageDetectionModelEP11PrefService
__ZN8language29IOSLanguageDetectionTabHelper22StartLanguageDetectionEv
__ZN3web15UrlHasWebSchemeERK4GURL
__ZN3web17JavaScriptFeature19GetWebFramesManagerEPNS_8WebStateE
__ZN3web12WebStateImpl19GetWebFramesManagerENS_12ContentWorldE
__ZN3web12WebStateImpl23GetWebFramesManagerImplENS_12ContentWorldE
__ZNSt4__Cr6__treeINS_12__value_typeIN3web12ContentWorldENS_10unique_ptrINS2_20WebFramesManagerImplENS_14default_deleteIS5_EEEEEENS_19__map_value_compareIS3_S9_NS_4lessIS3_EELb1EEENS_9allocatorIS9_EEE25__emplace_unique_key_argsIS3_JRKNS_21piecewise_construct_tENS_5tupleIJRKS3_EEENSL_IJEEEEEENS_4pairINS_15__tree_iteratorIS9_PNS_11__tree_nodeIS9_PvEElEEbEERKT_DpOT0_
__ZN3web20WebFramesManagerImplC1Ev
__ZN3web20WebFramesManagerImplC2Ev
__ZN3web20WebFramesManagerImpl11AddObserverEPNS_16WebFramesManager8ObserverE
__ZN4base12ObserverListIN3web16WebFramesManager8ObserverELb0ELb1ENS_8internal22CheckedObserverAdapterEE11AddObserverEPS3_
__ZN8language29IOSLanguageDetectionTabHelper11AddObserverEPNS0_8ObserverE
__ZN4base12ObserverListIN8language29IOSLanguageDetectionTabHelper8ObserverELb1ELb1ENS_8internal24UncheckedObserverAdapterILN15partition_alloc8internal12RawPtrTraitsE0EEEE11AddObserverEPS3_
__ZN3web16WebStateUserDataIN9translate19TranslateControllerEE17CreateForWebStateIJEEEvPNS_8WebStateEDpOT_
__ZN9translate19TranslateControllerC1EPN3web8WebStateE
__ZN9translate19TranslateControllerC2EPN3web8WebStateE
__ZN9translate19TranslateController12set_observerEPNS0_8ObserverE
__ZN3web16WebStateUserDataI17PasswordTabHelperE17CreateForWebStateIJEEEvPNS_8WebStateEDpOT_
__ZN17PasswordTabHelperC1EPN3web8WebStateE
__ZN17PasswordTabHelperC2EPN3web8WebStateE
-[PasswordController .cxx_construct]
-[PasswordController initWithWebState:]
-[PasswordController initWithWebState:client:reuseDetectionClient:]
__ZN30IOSChromePasswordManagerClientC1EPU47objcproto36IOSChromePasswordManagerClientBridge11objc_object
__ZN30IOSChromePasswordManagerClientC2EPU47objcproto36IOSChromePasswordManagerClientBridge11objc_object
__ZNK30IOSChromePasswordManagerClient8GetPrefsEv
-[PasswordController browserState]
__ZNK30IOSChromePasswordManagerClient18GetLocalStatePrefsEv
__ZN18SyncServiceFactory26GetForBrowserStateIfExistsEP18ChromeBrowserState
__ZN44IOSChromePasswordReuseDetectionManagerClientC1EPU61objcproto50IOSChromePasswordReuseDetectionManagerClientBridge11objc_object
__ZN44IOSChromePasswordReuseDetectionManagerClientC2EPU61objcproto50IOSChromePasswordReuseDetectionManagerClientBridge11objc_object
__ZN4base17ScopedObservationI35PasswordProtectionJavaScriptFeature18InputEventObserverEC2EPS2_
__Z31IsPasswordReuseDetectionEnabledv
-[PasswordController webState]
__ZN4base17ScopedObservationI35PasswordProtectionJavaScriptFeature18InputEventObserverE7ObserveEPS1_
__ZN35PasswordProtectionJavaScriptFeature11AddObserverEP18InputEventObserver
__ZNSt4__Cr6__treeINS_12__value_typeIP18InputEventObserverPN3web8WebStateEEENS_19__map_value_compareIS3_S7_NS_4lessIS3_EELb1EEENS_9allocatorIS7_EEE25__emplace_unique_key_argsIS3_JRKNS_21piecewise_construct_tENS_5tupleIJRKS3_EEENSJ_IJEEEEEENS_4pairINS_15__tree_iteratorIS7_PNS_11__tree_nodeIS7_PvEElEEbEERKT_DpOT0_
__ZThn32_NK44IOSChromePasswordReuseDetectionManagerClient9web_stateEv
__ZNSt4__Cr6__treeINS_12__value_typeIPN3web8WebStateEP18InputEventObserverEENS_19__map_value_compareIS4_S7_NS_4lessIS4_EELb1EEENS_9allocatorIS7_EEE25__emplace_unique_key_argsIS4_JRKNS_21piecewise_construct_tENS_5tupleIJRKS4_EEENSJ_IJEEEEEENS_4pairINS_15__tree_iteratorIS7_PNS_11__tree_nodeIS7_PvEElEEbEERKT_DpOT0_
__ZNK30IOSChromePasswordManagerClient23GetAccountPasswordStoreEv
-[PasswordFormHelper .cxx_construct]
-[PasswordFormHelper initWithWebState:]
__ZN8autofill26FormActivityObserverBridgeC1EPN3web8WebStateEPU31objcproto20FormActivityObserver11objc_object
__ZN8autofill26FormActivityObserverBridgeC2EPN3web8WebStateEPU31objcproto20FormActivityObserver11objc_object
__ZN8autofill21FormActivityTabHelper22GetOrCreateForWebStateEPN3web8WebStateE
__ZN3web16WebStateUserDataIN8autofill21FormActivityTabHelperEE17CreateForWebStateIJEEEvPNS_8WebStateEDpOT_
__ZN8autofill21FormActivityTabHelper11AddObserverEPNS_20FormActivityObserverE
__ZN4base12ObserverListIN8autofill20FormActivityObserverELb0ELb1ENS_8internal24UncheckedObserverAdapterILN15partition_alloc8internal12RawPtrTraitsE0EEEE11AddObserverEPS2_
__ZN21UniqueIDDataTabHelper19GetFieldDataManagerEv
__ZN16password_manager24PasswordManagerTabHelper22GetOrCreateForWebStateEPN3web8WebStateE
__ZN3web16WebStateUserDataIN16password_manager24PasswordManagerTabHelperEE17CreateForWebStateIJEEEvPNS_8WebStateEDpOT_
__ZN16password_manager24PasswordManagerTabHelper13SetFormHelperEP18PasswordFormHelper
-[PasswordSuggestionHelper .cxx_construct]
-[PasswordSuggestionHelper initWithWebState:]
-[PasswordControllerDriverHelper .cxx_construct]
-[PasswordControllerDriverHelper initWithWebState:]
-[SharedPasswordController .cxx_construct]
-[SharedPasswordController initWithWebState:manager:formHelper:suggestionHelper:driverHelper:]
__ZN3web16WebStateUserDataI31IOSPasswordManagerDriverFactoryE17CreateForWebStateIJRU8__strongP24SharedPasswordControllerRPN16password_manager24PasswordManagerInterfaceEEEEvPNS_8WebStateEDpOT_
__ZN31IOSPasswordManagerDriverFactoryC1EPN3web8WebStateEPU38objcproto27PasswordManagerDriverBridge11objc_objectPN16password_manager24PasswordManagerInterfaceE
__ZN31IOSPasswordManagerDriverFactoryC2EPN3web8WebStateEPU38objcproto27PasswordManagerDriverBridge11objc_objectPN16password_manager24PasswordManagerInterfaceE
__ZN3web30WebFramesManagerObserverBridgeC1EPU38objcproto27CRWWebFramesManagerObserver11objc_object
__ZN8autofill29AutofillManagerObserverBridgeC1EPU34objcproto23AutofillManagerObserver11objc_object
__ZN4base28ScopedMultiSourceObservationIN8autofill15AutofillManagerENS2_8ObserverEEC2EPS3_
-[PasswordFormHelper setDelegate:]
-[PasswordSuggestionHelper setDelegate:]
-[SharedPasswordController setDelegate:]
__ZN17PasswordTabHelper39GetPasswordsAccountStorageNoticeHandlerEv
__ZN3web16WebStateUserDataI28AutofillBottomSheetTabHelperE17CreateForWebStateIJU8__strongPU47objcproto36PasswordsAccountStorageNoticeHandler11objc_objectEEEvPNS_8WebStateEDpOT_
__ZN28AutofillBottomSheetTabHelperC1EPN3web8WebStateEPU47objcproto36PasswordsAccountStorageNoticeHandler11objc_object
__ZN28AutofillBottomSheetTabHelperC2EPN3web8WebStateEPU47objcproto36PasswordsAccountStorageNoticeHandler11objc_object
__ZN4base17ScopedObservationIN3web16WebFramesManagerENS2_8ObserverEEC2EPS3_
__ZN4base17ScopedObservationIN3web16WebFramesManagerENS2_8ObserverEE7ObserveEPS2_
__ZN3web16WebStateUserDataI17AutofillTabHelperE17CreateForWebStateIJEEEvPNS_8WebStateEDpOT_
__ZN17AutofillTabHelperC1EPN3web8WebStateE
__ZN17AutofillTabHelperC2EPN3web8WebStateE
-[AutofillAgent .cxx_construct]
-[AutofillAgent initWithPrefService:webState:]
__ZN8autofill23ChromeAutofillClientIOSC1EP18ChromeBrowserStatePN3web8WebStateEPN8infobars14InfoBarManagerEPU34objcproto23AutofillClientIOSBridge11objc_object
__ZN8autofill23ChromeAutofillClientIOSC2EP18ChromeBrowserStatePN3web8WebStateEPN8infobars14InfoBarManagerEPU34objcproto23AutofillClientIOSBridge11objc_object
__ZN8autofill33AutocompleteHistoryManagerFactory18GetForBrowserStateEP18ChromeBrowserState
__ZN4base12NoDestructorIN8autofill33AutocompleteHistoryManagerFactoryEEC1IJEEEDpOT_
__ZNK8autofill33AutocompleteHistoryManagerFactory20GetBrowserStateToUseEPN3web12BrowserStateE
__ZNK8autofill33AutocompleteHistoryManagerFactory23BuildServiceInstanceForEPN3web12BrowserStateE
__ZN8autofill23ChromeAutofillClientIOS25GetPaymentsAutofillClientEv
__ZN8autofill8payments31IOSChromePaymentsAutofillClientC1EPNS_23ChromeAutofillClientIOSEP18ChromeBrowserState
__ZN8autofill8payments31IOSChromePaymentsAutofillClientC2EPNS_23ChromeAutofillClientIOSEP18ChromeBrowserState
__ZN8autofill23ChromeAutofillClientIOS18GetIdentityManagerEv
__ZN8autofill23ChromeAutofillClientIOS22GetPersonalDataManagerEv
__ZN8autofill8payments31IOSChromePaymentsAutofillClient27GetPaymentsNetworkInterfaceEv
__ZNK8autofill23ChromeAutofillClientIOS29GetVariationConfigCountryCodeEv
__ZN3web16WebStateUserDataIN8autofill24AutofillDriverIOSFactoryEE17CreateForWebStateIJPNS1_23ChromeAutofillClientIOSERU8__strongP13AutofillAgentRKNSt4__Cr12basic_stringIcNSB_11char_traitsIcEENSB_9allocatorIcEEEEEEEvPNS_8WebStateEDpOT_
__ZN8autofill24AutofillDriverIOSFactoryC1EPN3web8WebStateEPNS_14AutofillClientEPU34objcproto23AutofillDriverIOSBridge11objc_objectRKNSt4__Cr12basic_stringIcNS8_11char_traitsIcEENS8_9allocatorIcEEEE
__ZN8autofill24AutofillDriverIOSFactoryC2EPN3web8WebStateEPNS_14AutofillClientEPU34objcproto23AutofillDriverIOSBridge11objc_objectRKNSt4__Cr12basic_stringIcNS8_11char_traitsIcEENS8_9allocatorIcEEEE
__ZN17PasswordTabHelper21GetSuggestionProviderEv
-[PasswordController suggestionProvider]
__ZN17AutofillTabHelper21GetSuggestionProviderEv
__ZN3web16WebStateUserDataI23FormSuggestionTabHelperE17CreateForWebStateIJU8__strongP7NSArrayEEEvPNS_8WebStateEDpOT_
__ZN23FormSuggestionTabHelperC1EPN3web8WebStateEP7NSArrayIPU33objcproto22FormSuggestionProvider11objc_objectE
-[FormSuggestionController .cxx_construct]
-[FormSuggestionController initWithWebState:providers:]
__ZNK3web12WebStateImpl15GetWebViewProxyEv
__ZN3web16WebStateUserDataI19LinkToTextTabHelperE17CreateForWebStateIJEEEvPNS_8WebStateEDpOT_
__ZN19LinkToTextTabHelperC1EPN3web8WebStateE
__ZN19LinkToTextTabHelperC2EPN3web8WebStateE
__ZN3web16WebStateUserDataI21WebSelectionTabHelperE17CreateForWebStateIJEEEvPNS_8WebStateEDpOT_
__ZN21WebSelectionTabHelperC1EPN3web8WebStateE
__ZN21WebSelectionTabHelperC2EPN3web8WebStateE
__ZN3web16WebStateUserDataI30WebPerformanceMetricsTabHelperE17CreateForWebStateIJEEEvPNS_8WebStateEDpOT_
__ZN30WebPerformanceMetricsTabHelperC1EPN3web8WebStateE
__ZN3web16WebStateUserDataI20OfflinePageTabHelperE17CreateForWebStateIJP16ReadingListModelEEEvPNS_8WebStateEDpOT_
__ZN20OfflinePageTabHelperC1EPN3web8WebStateEP16ReadingListModel
__ZN20OfflinePageTabHelperC2EPN3web8WebStateEP16ReadingListModel
__ZN3web16WebStateUserDataI20PermissionsTabHelperE17CreateForWebStateIJEEEvPNS_8WebStateEDpOT_
__ZN20PermissionsTabHelperC1EPN3web8WebStateE
__ZN20PermissionsTabHelperC2EPN3web8WebStateE
__ZNK3web12WebStateImpl26GetStatesForAllPermissionsEv
__ZN3web16WebStateUserDataI19RepostFormTabHelperE17CreateForWebStateIJEEEvPNS_8WebStateEDpOT_
__ZN19RepostFormTabHelperC1EPN3web8WebStateE
__ZN19RepostFormTabHelperC2EPN3web8WebStateE
__ZN26HttpsUpgradeServiceFactory18GetForBrowserStateEPN3web12BrowserStateE
__ZN4base12NoDestructorI26HttpsUpgradeServiceFactoryEC1IJEEEDpOT_
__ZNK26HttpsUpgradeServiceFactory20GetBrowserStateToUseEPN3web12BrowserStateE
__ZNK26HttpsUpgradeServiceFactory23BuildServiceInstanceForEPN3web12BrowserStateE
__ZN23HttpsUpgradeServiceImplC1EP18ChromeBrowserState
__ZN23HttpsUpgradeServiceImplC2EP18ChromeBrowserState
__ZN3web16WebStateUserDataI29HttpsOnlyModeUpgradeTabHelperE17CreateForWebStateIJP11PrefServiceP16PrerenderServiceP19HttpsUpgradeServiceEEEvPNS_8WebStateEDpOT_
__ZN29HttpsOnlyModeUpgradeTabHelperC1EPN3web8WebStateEP11PrefServiceP16PrerenderServiceP19HttpsUpgradeService
__ZN29HttpsOnlyModeUpgradeTabHelperC2EPN3web8WebStateEP11PrefServiceP16PrerenderServiceP19HttpsUpgradeService
__ZN3web16WebStateUserDataI22HttpsOnlyModeContainerE17CreateForWebStateIJEEEvPNS_8WebStateEDpOT_
__ZN22HttpsOnlyModeContainerC1EPN3web8WebStateE
__ZN3web16WebStateUserDataI31TypedNavigationUpgradeTabHelperE17CreateForWebStateIJP16PrerenderServiceP19HttpsUpgradeServiceEEEvPNS_8WebStateEDpOT_
__ZN31TypedNavigationUpgradeTabHelperC1EPN3web8WebStateEP16PrerenderServiceP19HttpsUpgradeService
__ZN31TypedNavigationUpgradeTabHelperC2EPN3web8WebStateEP16PrerenderServiceP19HttpsUpgradeService
__ZN3web16WebStateUserDataI15FollowTabHelperE17CreateForWebStateIJEEEvPNS_8WebStateEDpOT_
__ZN15FollowTabHelperC1EPN3web8WebStateE
__ZN15FollowTabHelperC2EPN3web8WebStateE
__ZN3web16WebStateUserDataI27PriceNotificationsTabHelperE17CreateForWebStateIJEEEvPNS_8WebStateEDpOT_
__ZN27PriceNotificationsTabHelperC1EPN3web8WebStateE
__ZN27PriceNotificationsTabHelperC2EPN3web8WebStateE
__Z29IsAboutThisSiteFeatureEnabledv
__ZN12WebStateList15WebStateWrapperC2ENSt4__Cr10unique_ptrIN3web8WebStateENS1_14default_deleteIS4_EEEE
__ZN14WebStateOpenerC1EPN3web8WebStateE
__ZN14WebStateOpenerC2EPN3web8WebStateEi
__ZNSt4__Cr6vectorINS_10unique_ptrIN12WebStateList15WebStateWrapperENS_14default_deleteIS3_EEEENS_9allocatorIS6_EEE6insertENS_11__wrap_iterIPKS6_EEOS6_
__ZNSt4__Cr14__split_bufferINS_10unique_ptrIN12WebStateList15WebStateWrapperENS_14default_deleteIS3_EEEERNS_9allocatorIS6_EEE9push_backEOS6_
__ZN12WebStateList14SetActiveIndexEi
__ZN12WebStateList23OnActiveWebStateChangedEv
__ZNK12WebStateList20GetWebStateWrapperAtEi
__ZN27BrowserWebStateListDelegate20WillActivateWebStateEPN3web8WebStateE
__ZN3web26IgnoreOverRealizationCheckEv
__ZN3web12WebStateImpl13ForceRealizedEv
__ZNK3web12WebStateImpl14SerializedData15GetCreationTimeEv
__ZNK3web12WebStateImpl14SerializedData19GetStableIdentifierEv
__ZNSt4__Cr11make_uniqueIN3web12WebStateImpl16RealizedWebStateEJPS2_N4base4TimeEU8__strongP8NSStringNS1_10WebStateIDEEEENS_11__unique_ifIT_E15__unique_singleEDpOT0_
__ZN3web12WebStateImpl16RealizedWebStateC1EPS0_N4base4TimeEP8NSStringNS_10WebStateIDE
__ZN3web12WebStateImpl16RealizedWebStateC2EPS0_N4base4TimeEP8NSStringNS_10WebStateIDE
__ZN3web8WebState15InterfaceBinderC1EPS0_
__ZN3web8WebState15InterfaceBinderC2EPS0_
__ZNSt4__Cr10unique_ptrIN3web12WebStateImpl16RealizedWebStateENS_14default_deleteIS3_EEEaSEOS6_
__ZNSt4__Cr10unique_ptrIN3web12WebStateImpl16RealizedWebStateENS_14default_deleteIS3_EEED1Ev
__ZN3web12WebStateImpl14SerializedData17TakeStorageLoaderEv
__ZNO4base12OnceCallbackIFN3web5proto15WebStateStorageEvEE3RunEv
__ZN4base8internal7InvokerINS0_13FunctorTraitsIOPFN3web5proto15WebStateStorageERKNS_8FilePathEEJOS6_EEENS0_9BindStateILb0ELb1ELb0ESA_JS6_EEEFS5_vEE7RunOnceEPNS0_13BindStateBaseE
__ZN12_GLOBAL__N_119LoadWebStateStorageERKN4base8FilePathE
__ZN4base8internal9BindStateILb0ELb1ELb0EPFN3web5proto15WebStateStorageERKNS_8FilePathEEJS5_EE7DestroyEPKNS0_13BindStateBaseE
__ZNK3web12WebStateImpl14SerializedData17GetLastActiveTimeEv
__ZNK3web12WebStateImpl14SerializedData8GetTitleEv
__ZNK3web12WebStateImpl14SerializedData16GetFaviconStatusEv
__ZN3web13FaviconStatusC1ERKS0_
__ZN3web5proto15WebStateStorageC1EOS1_
__ZN3web12WebStateImpl14SerializedData24TakeNativeSessionFetcherEv
__ZN3web12WebStateImpl16RealizedWebState13InitWithProtoEPNS_12BrowserStateEN4base4TimeENSt4__Cr12basic_stringIDsNS6_11char_traitsIDsEENS6_9allocatorIDsEEEE4GURLNS_13FaviconStatusENS_5proto15WebStateStorageENS4_12OnceCallbackIFP6NSDatavEEE
__ZNSt4__Cr11make_uniqueIN3web12WebStateImpl16RealizedWebState14PendingSessionEJNS1_5proto15WebStateStorageENS_12basic_stringIDsNS_11char_traitsIDsEENS_9allocatorIDsEEEE4GURLNS1_13FaviconStatusEEEENS_11__unique_ifIT_E15__unique_singleEDpOT0_
__ZN3web12WebStateImpl16RealizedWebState14PendingSessionC2ENS_5proto15WebStateStorageENSt4__Cr12basic_stringIDsNS5_11char_traitsIDsEENS5_9allocatorIDsEEEE4GURLNS_13FaviconStatusE
__ZN3web21NavigationManagerImplC1EPNS_12BrowserStateEPNS_25NavigationManagerDelegateE
__ZN3web21NavigationManagerImplC2EPNS_12BrowserStateEPNS_25NavigationManagerDelegateE
__ZN3web21NavigationManagerImpl14WKWebViewCacheC2EPS0_
-[CRWWebController .cxx_construct]
__ZN3web20UserInteractionStateC1Ev
-[CRWWebController initWithWebState:]
-[CRWWebRequestController setDelegate:]
-[CRWWebViewProxyImpl initWithWebController:]
-[CRWWebViewScrollViewProxy init]
-[CRWWebViewScrollViewDelegateProxy initWithScrollViewProxy:]
+[CRWWebViewScrollViewProxy startObservingScrollView:proxy:]
+[CRWWebViewScrollViewProxy scrollViewObserverKeyPaths]
-[CRWWebViewScrollViewProxy isKindOfClass:]
-[CRWWebViewScrollViewProxy respondsToSelector:]
-[CRWWebViewScrollViewProxy keyValueObserverForwarders]
-[CRWWebViewProxyImpl scrollViewProxy]
-[CRWWebViewScrollViewProxy addObserver:]
__ZNK3web12WebStateImpl16RealizedWebState15GetBrowserStateEv
__ZNK3web21NavigationManagerImpl15GetBrowserStateEv
-[CRWCertVerificationController .cxx_construct]
-[CRWCertVerificationController initWithBrowserState:]
__ZN3web12BrowserState25GetCertificatePolicyCacheEPS0_
__ZN3web27JavaScriptFindInPageManager17CreateForWebStateEPNS_8WebStateE
__ZN3web31JavaScriptFindInPageManagerImplC2EPNS_8WebStateE
__ZN3web27JavaScriptFindInPageRequestC1Ev
__ZN3web24TextFragmentsManagerImpl17CreateForWebStateEPNS_8WebStateE
__ZN3web24TextFragmentsManagerImplC2EPNS_8WebStateE
-[CRWWKNavigationHandler .cxx_construct]
-[CRWWKNavigationHandler initWithDelegate:]
-[CRWWKNavigationStates init]
-[CRWWKUIHandler .cxx_construct]
-[CRWWKUIHandler init]
-[CRWWKUIHandler setDelegate:]
-[CRWWebViewNavigationObserver setDelegate:]
__ZN3web21NavigationManagerImpl23SetNativeSessionFetcherEN4base12OnceCallbackIFP6NSDatavEEE
__ZN3web21NavigationManagerImpl28AppendSessionDataBlobFetcherEN4base12OnceCallbackIFP6NSDatavEEENS0_21SessionDataBlobSourceE
__ZNSt4__Cr6vectorINS_4pairIN4base12OnceCallbackIFP6NSDatavEEEN3web21NavigationManagerImpl21SessionDataBlobSourceEEENS_9allocatorISB_EEE21__push_back_slow_pathISB_EEPSB_OT_
__ZN3web21NavigationManagerImpl16RestoreFromProtoERKNS_5proto17NavigationStorageE
__ZN3web18NavigationItemImplC1ERKNS_5proto21NavigationItemStorageE
__ZN3web18NavigationItemImplC2ERKNS_5proto21NavigationItemStorageE
__ZN3web27HttpRequestHeadersFromProtoERKNS_5proto21HttpHeaderListStorageE
__ZNK3web21NavigationManagerImpl25RewriteItemURLIfNecessaryEPNS_14NavigationItemE
__ZNK3web18NavigationItemImpl6GetURLEv
__ZN3web18BrowserURLRewriter11GetInstanceEv
__ZN4base12NoDestructorIN3web22BrowserURLRewriterImplEEC1IJEEEDpOT_
__ZN15ChromeWebClient30PostBrowserURLRewriterCreationEPN3web18BrowserURLRewriterE
__ZN3web22BrowserURLRewriterImpl14AddURLRewriterEPFbP4GURLPNS_12BrowserStateEE
__ZNSt4__Cr6vectorIPFbP4GURLPN3web12BrowserStateEENS_9allocatorIS7_EEE21__push_back_slow_pathIRKS7_EEPS7_OT_
__ZN3web22BrowserURLRewriterImpl21RewriteURLIfNecessaryEP4GURLPNS_12BrowserStateE
__Z42WillHandleWebBrowserNewTabPageURLForPolicyP4GURLPN3web12BrowserStateE
__ZN3web18NavigationItemImpl6SetURLERK4GURL
__ZN3web18NavigationItemImpl13SetVirtualURLERK4GURL
__ZN3web21NavigationManagerImpl7RestoreEiNSt4__Cr6vectorINS1_10unique_ptrINS_14NavigationItemENS1_14default_deleteIS4_EEEENS1_9allocatorIS7_EEEE
__ZNK3web21NavigationManagerImpl14WKWebViewCache27GetBackForwardListItemCountEv
__ZNK3web12WebStateImpl16RealizedWebState25GetWebViewNavigationProxyEv
-[CRWWebController webViewNavigationProxy]
-[CRWWebController webView]
__ZN3web12_GLOBAL__N_116HandleViewSourceEP4GURLPNS_12BrowserStateE
__ZN3web25SynthesizedSessionRestoreEiRKNSt4__Cr6vectorINS0_10unique_ptrINS_14NavigationItemENS0_14default_deleteIS3_EEEENS0_9allocatorIS6_EEEEb
__ZN3web27SynthesizedHistoryEntryDataC1Ev
__ZNK3web18NavigationItemImpl11GetReferrerEv
__ZN3web27SynthesizedHistoryEntryData8AsNSDataEv
__ZN3web27SynthesizedHistoryEntryData12PushBackGURLERK4GURL
__ZNK3web18NavigationItemImpl8GetTitleEv
__ZN3web27SynthesizedHistoryEntryDataD1Ev
__ZN3web21NavigationManagerImpl20RestoreNativeSessionEv
__ZNO4base12OnceCallbackIFP6NSDatavEE3RunEv
__ZN4base8internal7InvokerINS0_13FunctorTraitsIOPFP6NSDataRKNS_8FilePathEEJOS5_EEENS0_9BindStateILb0ELb1ELb0ES9_JS5_EEEFS4_vEE7RunOnceEPNS0_13BindStateBaseE
__ZN12_GLOBAL__N_119LoadWebStateSessionERKN4base8FilePathE
__ZN3ios8sessions8ReadFileERKN4base8FilePathE
__ZN4base8internal9BindStateILb0ELb1ELb0EPFP6NSDataRKNS_8FilePathEEJS4_EE7DestroyEPKNS0_13BindStateBaseE
__ZNK3web21NavigationManagerImpl11GetWebStateEv
__ZN3web12WebStateImpl16RealizedWebState11GetWebStateEv
__ZN3web12WebStateImpl19SetSessionStateDataEP6NSData
__ZN3web12WebStateImpl16RealizedWebState19SetSessionStateDataEP6NSData
-[CRWWebController setSessionStateData:]
-[CRWWebController ensureWebViewCreated]
-[CRWWebController webViewConfigurationProvider]
-[CRWWebController webStateImpl]
-[CRWWebController ensureWebViewCreatedWithConfiguration:]
-[CRWWebController ensureContainerViewCreated]
-[CRWWebControllerContainerView initWithDelegate:]
__ZN3web12WebStateImpl19GetWebViewContainerEv
__ZN3web12WebStateImpl16RealizedWebState19GetWebViewContainerEv
__Z15GetAnyKeyWindowv
-[CRWWebController touchTrackingRecognizer]
-[CRWTouchTrackingRecognizer initWithTouchTrackingDelegate:]
-[CRWWebController webViewWithConfiguration:]
-[CRWWebController currentNavItem]
-[CRWWebController navigationManagerImpl]
__ZN3web12WebStateImpl24GetNavigationManagerImplEv
__ZN3web12WebStateImpl16RealizedWebState20GetNavigationManagerEv
__ZNK3web21NavigationManagerImpl18GetCurrentItemImplEv
__ZNK3web21NavigationManagerImpl40GetPendingItemInCurrentOrRestoredSessionEv
__ZN3web12WebStateImpl16RealizedWebState14GetPendingItemEv
-[CRWWebController lastPendingItemForNewNavigation]
-[CRWWebController navigationHandler]
-[CRWWKNavigationHandler navigationStates]
-[CRWWKNavigationStates lastNavigationWithPendingItemInNavigationContext]
__ZNK3web21NavigationManagerImpl46GetLastCommittedItemInCurrentOrRestoredSessionEv
__ZNK3web21NavigationManagerImpl14WKWebViewCache19GetCurrentItemIndexEv
__ZNK15ChromeWebClient19GetDefaultUserAgentEPN3web8WebStateERK4GURL
__Z26ShouldLoadUrlInDesktopModeRK4GURLP22HostContentSettingsMap
__ZN3web14BuildWKWebViewE6CGRectP22WKWebViewConfigurationPNS_12BrowserStateENS_13UserAgentTypeEPU31objcproto20CRWInputViewProvider11objc_object
__ZN3web12_GLOBAL__N_136VerifyWKWebViewCreationPreConditionsEPNS_12BrowserStateEP22WKWebViewConfiguration
__ZNK15ChromeWebClient18PreWebViewCreationEv
-[CRWWebView setInputViewProvider:]
__ZNK15ChromeWebClient18EnableWebInspectorEPN3web12BrowserStateE
__ZN3web8features28IsWebInspectorSupportEnabledEv
-[CRWWebController setWebView:]
-[CRWWebController WKWebViewObservers]
-[CRWWebController webViewNavigationObserver]
-[CRWWebViewNavigationObserver setWebView:]
-[CRWWebViewNavigationObserver WKWebViewObservers]
__ZN3web18WebViewWebStateMap16FromBrowserStateEPNS_12BrowserStateE
__ZN3web18WebViewWebStateMap31SetAssociatedWebViewForWebStateEP9WKWebViewPNS_8WebStateE
-[CRWWebController UIHandler]
-[CRWWebController setDocumentURL:context:]
__ZN3web20UserInteractionState46SetUserInteractionRegisteredSinceLastUrlChangeEb
__ZNK15ChromeWebClient28EnableLongPressUIContextMenuEv
-[CRWContextMenuController initWithWebView:webState:]
-[CRWContextMenuElementFetcher .cxx_construct]
-[CRWContextMenuElementFetcher initWithWebView:webState:]
-[CRWWebController setContextMenuController:]
-[CRWWebControllerContainerView webViewContentView]
-[CRWWebController displayWebView]
-[CRWWebController webScrollView]
-[CRWWebViewContentView initWithWebView:scrollView:fullscreenState:]
-[CRWWebControllerContainerView displayWebViewContentView:]
-[CRWWebControllerContainerView setWebViewContentView:]
-[CRWWebControllerContainerView updateWebViewContentViewFrame]
-[CRWWebViewContentView didMoveToSuperview]
-[CRWWebControllerContainerView contentViewProxy]
-[CRWWebController contentViewProxyForContainerView:]
-[CRWWebViewProxyImpl setContentView:]
-[CRWWebViewContentView scrollView]
-[CRWWebViewScrollViewProxy setScrollView:]
-[CRWWebViewScrollViewProxy underlyingScrollView]
+[CRWWebViewScrollViewProxy stopObservingScrollView:proxy:]
-[CRWWebViewScrollViewProxy delegateProxy]
-[CRWWebViewScrollViewDelegateProxy respondsToSelector:]
-[CRWWebViewScrollViewDelegateProxy delegateOfProxy]
-[CRWWebViewScrollViewDelegateProxy scrollViewProxy]
-[CRWWebViewScrollViewProxy asUIScrollView]
-[CRWWebViewScrollViewProxy delegate]
-[CRWWebViewScrollViewProxy preservePropertiesFromOldScrollView:toNewScrollView:]
-[CRWWebViewScrollViewProxy setUnderlyingScrollView:]
-[CRWWebControllerContainerView updateWebViewContentViewForContainerWindow:]
-[CRWWKNavigationHandler setBlockUniversalLinksOnNextDecidePolicy:]
-[CRWWebViewNavigationObserver observeValueForKeyPath:ofObject:change:context:]
-[CRWWebViewHandler isBeingDestroyed]
-[CRWWebViewNavigationObserver webViewEstimatedProgressDidChange]
-[CRWWebViewNavigationObserver webStateImpl]
-[CRWWebViewNavigationObserver delegate]
-[CRWWebController webStateImplForWebViewHandler:]
-[CRWWebViewNavigationObserver webView]
__ZN3web12WebStateImpl22SendChangeLoadProgressEd
__ZN3web12WebStateImpl16RealizedWebState22SendChangeLoadProgressEd
__ZN3web12WebStateImpl16RealizedWebState9observersEv
__ZN4base12ObserverListIN3web16WebStateObserverELb1ELb1ENS_8internal22CheckedObserverAdapterEE4IterC2EPKS5_
__ZN4base8internal12WeakLinkNodeINS_12ObserverListIN3web16WebStateObserverELb1ELb1ENS0_22CheckedObserverAdapterEEEE7SetListEPS6_
__ZN4base12ObserverListIN3web16WebStateObserverELb1ELb1ENS_8internal22CheckedObserverAdapterEE4Iter16EnsureValidIndexEv
__ZNK4base12ObserverListIN3web16WebStateObserverELb1ELb1ENS_8internal22CheckedObserverAdapterEE4ItereqERKS6_
__ZNK4base12ObserverListIN3web16WebStateObserverELb1ELb1ENS_8internal22CheckedObserverAdapterEE4Iter6is_endEv
__ZNK4base12ObserverListIN3web16WebStateObserverELb1ELb1ENS_8internal22CheckedObserverAdapterEE4Iter10GetCurrentEv
__ZN3web16WebStateObserver19LoadProgressChangedEPNS_8WebStateEd
__ZN3web22WebStateObserverBridge19LoadProgressChangedEPNS_8WebStateEd
__ZN4base12ObserverListIN3web16WebStateObserverELb1ELb1ENS_8internal22CheckedObserverAdapterEE4IterD2Ev
__ZN4base12ObserverListIN3web16WebStateObserverELb1ELb1ENS_8internal22CheckedObserverAdapterEE7CompactEv
__ZNSt4__Cr9remove_ifINS_11__wrap_iterIPN4base8internal22CheckedObserverAdapterEEEZNS2_12ObserverListIN3web16WebStateObserverELb1ELb1ES4_E7CompactEvEUlRKT_E_EESB_SB_SB_T0_
-[CRWWebViewNavigationObserver webViewURLDidChange]
__ZN3net13GURLWithNSURLEP5NSURL
-[CRWWebViewNavigationObserver isKVOChangePotentialSameDocumentNavigationToURL:]
-[CRWWebViewNavigationObserver documentURL]
-[CRWWebController documentURLForWebViewHandler:]
-[CRWWebViewNavigationObserver webViewLoadingStateDidChange]
__ZN3web12WebStateImpl12SetIsLoadingEb
__ZN3web12WebStateImpl16RealizedWebState12SetIsLoadingEb
__ZN3web26GlobalWebStateEventTracker15DidStartLoadingEPNS_8WebStateE
__ZN4base12ObserverListIN3web22GlobalWebStateObserverELb1ELb1ENS_8internal22CheckedObserverAdapterEE4IterC2EPKS5_
__ZN4base8internal12WeakLinkNodeINS_12ObserverListIN3web22GlobalWebStateObserverELb1ELb1ENS0_22CheckedObserverAdapterEEEE7SetListEPS6_
__ZN4base12ObserverListIN3web22GlobalWebStateObserverELb1ELb1ENS_8internal22CheckedObserverAdapterEE4Iter16EnsureValidIndexEv
__ZNK4base12ObserverListIN3web22GlobalWebStateObserverELb1ELb1ENS_8internal22CheckedObserverAdapterEE4ItereqERKS6_
__ZNK4base12ObserverListIN3web22GlobalWebStateObserverELb1ELb1ENS_8internal22CheckedObserverAdapterEE4Iter6is_endEv
__ZNK4base12ObserverListIN3web22GlobalWebStateObserverELb1ELb1ENS_8internal22CheckedObserverAdapterEE4Iter10GetCurrentEv
__ZThn192_N29IOSChromeMetricsServiceClient23WebStateDidStartLoadingEPN3web8WebStateE
__ZThn16_N33IOSChromeStabilityMetricsProvider23WebStateDidStartLoadingEPN3web8WebStateE
__ZN4base12ObserverListIN3web22GlobalWebStateObserverELb1ELb1ENS_8internal22CheckedObserverAdapterEE4IterD2Ev
__ZN4base12ObserverListIN3web22GlobalWebStateObserverELb1ELb1ENS_8internal22CheckedObserverAdapterEE7CompactEv
__ZNSt4__Cr9remove_ifINS_11__wrap_iterIPN4base8internal22CheckedObserverAdapterEEEZNS2_12ObserverListIN3web22GlobalWebStateObserverELb1ELb1ES4_E7CompactEvEUlRKT_E_EESB_SB_SB_T0_
__ZN3web16WebStateObserver15DidStartLoadingEPNS_8WebStateE
__ZN3web22WebStateObserverBridge15DidStartLoadingEPNS_8WebStateE
__ZNK3web21NavigationManagerImpl12GetItemCountEv
__ZNK3web21NavigationManagerImpl14GetItemAtIndexEm
__ZNK3web21NavigationManagerImpl14WKWebViewCache28GetNavigationItemImplAtIndexEmb
__ZNK3web21NavigationManagerImpl14WKWebViewCache16GetWKItemAtIndexEm
+[CRWNavigationItemHolder holderForBackForwardListItem:]
-[CRWNavigationItemHolder .cxx_construct]
-[CRWNavigationItemHolder initWithBackForwardListItem:]
-[CRWNavigationItemHolder navigationItem]
__ZNK3web21NavigationManagerImpl33CreateNavigationItemWithRewritersERK4GURLRKNS_8ReferrerEN2ui14PageTransitionENS_24NavigationInitiationTypeENS_16HttpsUpgradeTypeES3_PKNSt4__Cr6vectorIPFbPS1_PNS_12BrowserStateEENSB_9allocatorISH_EEEE
__ZN3web18NavigationItemImplC1Ev
__ZN3web18NavigationItemImplC2Ev
__ZN3web18NavigationItemImpl21SetOriginalRequestURLERK4GURL
__ZN3web18NavigationItemImpl11SetReferrerERKNS_8ReferrerE
__ZN3web18NavigationItemImpl17SetTransitionTypeEN2ui14PageTransitionE
__ZN3web18NavigationItemImpl27SetNavigationInitiationTypeENS_24NavigationInitiationTypeE
__ZN3web18NavigationItemImpl19SetHttpsUpgradeTypeENS_16HttpsUpgradeTypeE
__ZN3web18NavigationItemImpl12SetTimestampEN4base4TimeE
__ZN4base18SysNSStringToUTF16EP8NSString
__ZN4base21SysCFStringRefToUTF16EPK10__CFString
__ZN3web18NavigationItemImpl8SetTitleERKNSt4__Cr12basic_stringIDsNS1_11char_traitsIDsEENS1_9allocatorIDsEEEE
__ZN3web18wk_navigation_util19IsRestoreSessionUrlERK4GURL
-[CRWNavigationItemHolder setNavigationItem:]
+[CRWErrorPageHelper isErrorPageFileURL:]
+[CRWErrorPageHelper failedNavigationURLFromErrorPageFileURL:]
__ZNK15ChromeWebClient24CleanupNativeRestoreURLsEPN3web8WebStateE
__ZN3web12WebStateImpl20GetNavigationManagerEv
__ZNK3web12WebStateImpl22GetNavigationItemCountEv
__ZNK3web12WebStateImpl16RealizedWebState22GetNavigationItemCountEv
__ZN19NewTabPageTabHelper10UpdateItemEPN3web14NavigationItemE
__ZNK3web18NavigationItemImpl13GetVirtualURLEv
__ZNK3web18NavigationItemImpl16GetUserAgentTypeEv
__ZN3web18NavigationItemImplD0Ev
__ZN3web18NavigationItemImplD2Ev
__ZN3web21NavigationManagerImpl22FinalizeSessionRestoreEv
__ZN4base8internal9BindStateILb0ELb0ELb0EZN3web21NavigationManagerImpl7RestoreEiNSt4__Cr6vectorINS4_10unique_ptrINS2_14NavigationItemENS4_14default_deleteIS7_EEEENS4_9allocatorISA_EEEEE3$_0JNS0_17UnretainedWrapperI6NSDataNS_17unretained_traits12MayNotDangleELN15partition_alloc8internal12RawPtrTraitsE0EEEEE7DestroyEPKNS0_13BindStateBaseE
__ZN3web21NavigationManagerImpl15LoadIfNecessaryEv
__ZN3web21NavigationManagerImpl17RestoreItemsStateENS0_19RestoreItemListTypeENSt4__Cr6vectorINS2_10unique_ptrINS_14NavigationItemENS2_14default_deleteIS5_EEEENS2_9allocatorIS8_EEEE
__ZN3web29SessionCertificatePolicyCacheC2EPNS_12BrowserStateE
__ZNK3web29SessionCertificatePolicyCache25GetCertificatePolicyCacheEv
__ZN3web12WebStateImpl14SerializedDataD1Ev
__ZN3web12WebStateImpl14SerializedDataD2Ev
__ZNK4base12ObserverListIN3web16WebStateObserverELb1ELb1ENS_8internal22CheckedObserverAdapterEE5beginEv
__ZNK4base12ObserverListIN3web16WebStateObserverELb1ELb1ENS_8internal22CheckedObserverAdapterEE4IterdeEv
__ZN3web16WebStateObserver16WebStateRealizedEPNS_8WebStateE
__ZN4base12ObserverListIN3web16WebStateObserverELb1ELb1ENS_8internal22CheckedObserverAdapterEE4IterppEv
__ZThn8_N13FindTabHelper16WebStateRealizedEPN3web8WebStateE
-[FindInPageController .cxx_construct]
-[FindInPageController initWithWebState:]
__ZN3web17FindInPageManager17CreateForWebStateEPNS_8WebStateE
__ZN3web21FindInPageManagerImplC1EPNS_8WebStateE
__ZN3web21FindInPageManagerImplC2EPNS_8WebStateE
__ZN3web31FindInPageManagerDelegateBridgeC1EPU39objcproto28CRWFindInPageManagerDelegate11objc_object
__ZN3web21FindInPageManagerImpl11SetDelegateEPNS_25FindInPageManagerDelegateE
__ZN26OverscrollActionsTabHelper16WebStateRealizedEPN3web8WebStateE
__ZThn24_N17FontSizeTabHelper16WebStateRealizedEPN3web8WebStateE
__ZN17FontSizeTabHelper26CreateNotificationObserverEv
__ZN4base14WeakPtrFactoryI17FontSizeTabHelperE10GetWeakPtrEvQntsr3stdE10is_const_vIT_E
__ZN4base8internal9BindStateILb1ELb1ELb0EM17FontSizeTabHelperFvvEJNS_7WeakPtrIS2_EEEEC2IS4_JS6_EQsr18CancellationTraitsE14is_cancellableEEPFvvEOT_DpOT0_
__ZN4base10IgnoreArgsIJU8__strongP14NSNotificationEJEEENS_17RepeatingCallbackIFvDpT_DpT0_EEENS4_IFvS8_EEE
___copy_helper_block_e8_32c52_ZTSN4base17RepeatingCallbackIFvP14NSNotificationEEE
__ZThn8_N35PageloadForegroundDurationTabHelper16WebStateRealizedEPN3web8WebStateE
__ZN35PageloadForegroundDurationTabHelper27CreateNotificationObserversEv
__ZN4base14WeakPtrFactoryI35PageloadForegroundDurationTabHelperE10GetWeakPtrEvQntsr3stdE10is_const_vIT_E
__ZN4base8internal9BindStateILb1ELb1ELb0EM35PageloadForegroundDurationTabHelperFvvEJNS_7WeakPtrIS2_EEEEC2IS4_JS6_EQsr18CancellationTraitsE14is_cancellableEEPFvvEOT_DpOT0_
__ZThn8_N15SadTabTabHelper16WebStateRealizedEPN3web8WebStateE
__ZN15SadTabTabHelper26CreateNotificationObserverEv
__ZN4base14WeakPtrFactoryI15SadTabTabHelperE10GetWeakPtrEvQntsr3stdE10is_const_vIT_E
__ZN4base8internal9BindStateILb1ELb1ELb0EM15SadTabTabHelperFvvEJNS_7WeakPtrIS2_EEEEC2IS4_JS6_EQsr18CancellationTraitsE14is_cancellableEEPFvvEOT_DpOT0_
__ZThn24_N9translate19TranslateController16WebStateRealizedEPN3web8WebStateE
__ZN3web22WebStateObserverBridge16WebStateRealizedEPNS_8WebStateE
__ZN3web12_GLOBAL__N_123CheckForOverRealizationEv
__ZNSt4__Cr10unique_ptrIN3web12WebStateImpl14SerializedDataENS_14default_deleteIS3_EEED1Ev
__ZN12WebStateList15WebStateWrapper8SetGroupEPK8TabGroup
__ZN24WebStateListChangeInsertC1EN4base7raw_ptrIN3web8WebStateELN15partition_alloc8internal12RawPtrTraitsE0EEEiNS1_IK8TabGroupLS6_0EEE
__ZN24WebStateListChangeInsertC2EN4base7raw_ptrIN3web8WebStateELN15partition_alloc8internal12RawPtrTraitsE0EEEiNS1_IK8TabGroupLS6_0EEE
__ZThn88_N20OverlayPresenterImpl21WebStateListDidChangeEP12WebStateListRK18WebStateListChangeRK18WebStateListStatus
__ZN20OverlayPresenterImpl21WebStateListDidChangeEP12WebStateListRK18WebStateListChangeRK18WebStateListStatus
__ZNK24WebStateListChangeInsert4typeEv
__ZNK24WebStateListChangeInsert18inserted_web_stateEv
__ZN23OverlayRequestQueueImpl11SetDelegateEPNS_8DelegateE
__ZNK23OverlayRequestQueueImpl13front_requestEv
__ZNK23OverlayRequestQueueImpl4sizeEv
__ZThn40_N32SyncedWindowDelegateBrowserAgent21WebStateListDidChangeEP12WebStateListRK18WebStateListChangeRK18WebStateListStatus
__ZN32SyncedWindowDelegateBrowserAgent21WebStateListDidChangeEP12WebStateListRK18WebStateListChangeRK18WebStateListStatus
__ZN25IOSChromeSessionTabHelper11SetWindowIDE9SessionID
__ZN26IOSChromeSyncedTabDelegate25ResetCachedLastActiveTimeEv
__ZThn56_N27WebUsageEnablerBrowserAgent21WebStateListDidChangeEP12WebStateListRK18WebStateListChangeRK18WebStateListStatus
__ZN27WebUsageEnablerBrowserAgent21WebStateListDidChangeEP12WebStateListRK18WebStateListChangeRK18WebStateListStatus
__ZN27WebUsageEnablerBrowserAgent30UpdateWebUsageForAddedWebStateEPN3web8WebStateEb
__ZN3web12WebStateImpl18SetWebUsageEnabledEb
__ZNK3web12WebStateImpl16RealizedWebState17IsWebUsageEnabledEv
-[CRWWebController webUsageEnabled]
__ZN34ActiveWebStateObservationForwarder21WebStateListDidChangeEP12WebStateListRK18WebStateListChangeRK18WebStateListStatus
__ZThn8_N25DeviceSharingBrowserAgent21WebStateListDidChangeEP12WebStateListRK18WebStateListChangeRK18WebStateListStatus
__ZN25DeviceSharingBrowserAgent23UpdateForActiveWebStateEPN3web8WebStateE
__ZN27DeviceSharingManagerFactory18GetForBrowserStateEP18ChromeBrowserState
__ZNK27DeviceSharingManagerFactory20GetBrowserStateToUseEPN3web12BrowserStateE
__ZNK27DeviceSharingManagerFactory23BuildServiceInstanceForEPN3web12BrowserStateE
__ZN24DeviceSharingManagerImplC1EP18ChromeBrowserState
__ZN24DeviceSharingManagerImplC2EP18ChromeBrowserState
__ZN4base8internal17UnretainedWrapperI24DeviceSharingManagerImplNS_17unretained_traits12MayNotDangleELN15partition_alloc8internal12RawPtrTraitsE0EEC2EPS2_QeqT1_LS7_0E
__ZN4base8internal9BindStateILb1ELb1ELb0EM24DeviceSharingManagerImplFvvEJNS0_17UnretainedWrapperIS2_NS_17unretained_traits12MayNotDangleELN15partition_alloc8internal12RawPtrTraitsE0EEEEEC2IS4_JSB_EQntsr18CancellationTraitsE14is_cancellableEEPFvvEOT_DpOT0_
__ZN24DeviceSharingManagerImpl20UpdateHandoffManagerEv
-[HandoffManager .cxx_construct]
-[HandoffManager init]
-[HandoffManager updateActiveURL:]
-[HandoffManager updateUserActivity]
-[HandoffManager shouldUseActiveURL]
-[HandoffManager userActivity]
-[HandoffManager setUserActivity:]
-[HandoffManager updateActiveTitle:]
__ZNK3web12WebStateImpl16RealizedWebState13GetVisibleURLEv
__ZN24DeviceSharingManagerImpl15UpdateActiveUrlEP7BrowserRK4GURL
__ZNK3web12WebStateImpl8GetTitleEv
__ZNK3web12WebStateImpl16RealizedWebState8GetTitleEv
__ZN24DeviceSharingManagerImpl17UpdateActiveTitleEP7BrowserRKNSt4__Cr12basic_stringIDsNS2_11char_traitsIDsEENS2_9allocatorIDsEEEE
__ZN26TabHelperDelegateInstallerI20AppLauncherTabHelper28AppLauncherTabHelperDelegateXadL_ZNS0_11SetDelegateEPS1_EEE9Installer21WebStateListDidChangeEP12WebStateListRK18WebStateListChangeRK18WebStateListStatus
__ZN20AppLauncherTabHelper11SetDelegateEP28AppLauncherTabHelperDelegate
__ZThn32_N24TabParentingBrowserAgent21WebStateListDidChangeEP12WebStateListRK18WebStateListChangeRK18WebStateListStatus
__ZN24TabParentingBrowserAgent21WebStateListDidChangeEP12WebStateListRK18WebStateListChangeRK18WebStateListStatus
__ZN4base8internal7InvokerINS0_13FunctorTraitsIRKM32IOSChromeLocalSessionEventRouterFvPN3web8WebStateEEJPS3_EEENS0_9BindStateILb1ELb1ELb0ES8_JNS0_17UnretainedWrapperIS3_NS_17unretained_traits12MayNotDangleELN15partition_alloc8internal12RawPtrTraitsE0EEEEEEFvS6_EE3RunEPNS0_13BindStateBaseES6_
__ZN32IOSChromeLocalSessionEventRouter13OnTabParentedEPN3web8WebStateE
__ZN32IOSChromeLocalSessionEventRouter16OnWebStateChangeEPN3web8WebStateE
__ZN4base8internal7InvokerINS0_13FunctorTraitsIRKM29IOSChromeMetricsServiceClientFvPN3web8WebStateEEJPS3_EEENS0_9BindStateILb1ELb1ELb0ES8_JNS0_17UnretainedWrapperIS3_NS_17unretained_traits12MayNotDangleELN15partition_alloc8internal12RawPtrTraitsE0EEEEEEFvS6_EE3RunEPNS0_13BindStateBaseES6_
__ZN29IOSChromeMetricsServiceClient13OnTabParentedEPN3web8WebStateE
__ZThn32_N35ClosingWebStateObserverBrowserAgent21WebStateListDidChangeEP12WebStateListRK18WebStateListChangeRK18WebStateListStatus
__ZN35ClosingWebStateObserverBrowserAgent21WebStateListDidChangeEP12WebStateListRK18WebStateListChangeRK18WebStateListStatus
__ZThn24_N20SnapshotBrowserAgent21WebStateListDidChangeEP12WebStateListRK18WebStateListChangeRK18WebStateListStatus
__ZN20SnapshotBrowserAgent21WebStateListDidChangeEP12WebStateListRK18WebStateListChangeRK18WebStateListStatus
__ZN17SnapshotTabHelper18SetSnapshotStorageEP15SnapshotStorage
-[SnapshotManager setSnapshotStorage:]
__ZThn40_N21TabPickupBrowserAgent21WebStateListDidChangeEP12WebStateListRK18WebStateListChangeRK18WebStateListStatus
__ZN21TabPickupBrowserAgent21WebStateListDidChangeEP12WebStateListRK18WebStateListChangeRK18WebStateListStatus
__ZThn32_N28WebStateDelegateBrowserAgent21WebStateListDidChangeEP12WebStateListRK18WebStateListChangeRK18WebStateListStatus
__ZN28WebStateDelegateBrowserAgent21WebStateListDidChangeEP12WebStateListRK18WebStateListChangeRK18WebStateListStatus
__ZN3web12WebStateImpl11SetDelegateEPNS_16WebStateDelegateE
__ZN3web12WebStateImpl16RealizedWebState11SetDelegateEPNS_16WebStateDelegateE
__ZN3web16WebStateDelegate6AttachEPNS_8WebStateE
__ZNSt4__Cr6__treeIPN3web8WebStateENS_4lessIS3_EENS_9allocatorIS3_EEE25__emplace_unique_key_argsIS3_JRKS3_EEENS_4pairINS_15__tree_iteratorIS3_PNS_11__tree_nodeIS3_PvEElEEbEERKT_DpOT0_
__ZThn24_N31WebStateListMetricsBrowserAgent21WebStateListDidChangeEP12WebStateListRK18WebStateListChangeRK18WebStateListStatus
__ZN31WebStateListMetricsBrowserAgent21WebStateListDidChangeEP12WebStateListRK18WebStateListChangeRK18WebStateListStatus
__ZN31AllWebStateObservationForwarder21WebStateListDidChangeEP12WebStateListRK18WebStateListChangeRK18WebStateListStatus
__ZThn56_N28TabUsageRecorderBrowserAgent21WebStateListDidChangeEP12WebStateListRK18WebStateListChangeRK18WebStateListStatus
__ZN28TabUsageRecorderBrowserAgent21WebStateListDidChangeEP12WebStateListRK18WebStateListChangeRK18WebStateListStatus
__ZN28TabUsageRecorderBrowserAgent17RecordTabSwitchedEPN3web8WebStateES2_
__ZThn32_N33StartSurfaceRecentTabBrowserAgent21WebStateListDidChangeEP12WebStateListRK18WebStateListChangeRK18WebStateListStatus
__ZN33StartSurfaceRecentTabBrowserAgent21WebStateListDidChangeEP12WebStateListRK18WebStateListChangeRK18WebStateListStatus
__ZThn24_N21SyncErrorBrowserAgent21WebStateListDidChangeEP12WebStateListRK18WebStateListChangeRK18WebStateListStatus
__ZN21SyncErrorBrowserAgent21WebStateListDidChangeEP12WebStateListRK18WebStateListChangeRK18WebStateListStatus
__ZN21SyncErrorBrowserAgent29CreateReSignInInfoBarDelegateEPN3web8WebStateE
__ZN23ReSignInInfoBarDelegate6CreateEP18ChromeBrowserStatePN3web8WebStateEPU26objcproto15SigninPresenter11objc_object
__ZN23ReSignInInfoBarDelegate21CreateInfoBarDelegateEP18ChromeBrowserStatePU26objcproto15SigninPresenter11objc_object
__Z17DisplaySyncErrorsP18ChromeBrowserStatePN3web8WebStateEPU24objcproto13SyncPresenter11objc_object
__Z21GetAccountErrorUIInfoPN6syncer11SyncServiceE
__ZN25UpgradeCenterBrowserAgent21WebStateListDidChangeEP12WebStateListRK18WebStateListChangeRK18WebStateListStatus
__ZN25UpgradeCenterBrowserAgent16WebStateAttachedEPN3web8WebStateE
__ZNK3web12WebStateImpl19GetStableIdentifierEv
__ZNK3web12WebStateImpl16RealizedWebState19GetStableIdentifierEv
-[UpgradeCenter addInfoBarToManager:forTabId:]
__ZThn8_N26WebStateUpdateBrowserAgent21WebStateListDidChangeEP12WebStateListRK18WebStateListChangeRK18WebStateListStatus
__ZN26WebStateUpdateBrowserAgent21WebStateListDidChangeEP12WebStateListRK18WebStateListChangeRK18WebStateListStatus
__ZNK3web12WebStateImpl16RealizedWebState15GetWebViewProxyEv
-[CRWWebController webViewProxy]
-[CRWWebViewScrollViewProxy setClipsToBounds:]
__ZN32IOSChromeLocalSessionEventRouter8Observer21WebStateListDidChangeEP12WebStateListRK18WebStateListChangeRK18WebStateListStatus
__ZN26WebStateListObserverBridge21WebStateListDidChangeEP12WebStateListRK18WebStateListChangeRK18WebStateListStatus
-[OpenTabsSpotlightManager didChangeWebStateList:change:status:]
__ZN38SessionRestorationWebStateListObserver21WebStateListDidChangeEP12WebStateListRK18WebStateListChangeRK18WebStateListStatus
__ZN38SessionRestorationWebStateListObserver14AttachWebStateEPN3web8WebStateE
__ZN4base8internal17UnretainedWrapperI38SessionRestorationWebStateListObserverNS_17unretained_traits12MayNotDangleELN15partition_alloc8internal12RawPtrTraitsE0EEC2EPS2_QeqT1_LS7_0E
__ZN4base8internal9BindStateILb1ELb1ELb0EM38SessionRestorationWebStateListObserverFvPN3web8WebStateEEJNS0_17UnretainedWrapperIS2_NS_17unretained_traits12MayNotDangleELN15partition_alloc8internal12RawPtrTraitsE0EEEEEC2IS7_JSE_EQntsr18CancellationTraitsE14is_cancellableEEPFvvEOT_DpOT0_
__ZN3web16WebStateUserDataI34SessionRestorationWebStateObserverE17CreateForWebStateIJN4base17RepeatingCallbackIFvPNS_8WebStateEEEEEEEvS7_DpOT_
__ZN34SessionRestorationWebStateObserverC1EPN3web8WebStateEN4base17RepeatingCallbackIFvS2_EEE
__ZN34SessionRestorationWebStateObserverC2EPN3web8WebStateEN4base17RepeatingCallbackIFvS2_EEE
__ZN34SessionRestorationWebStateObserver16WebStateRealizedEPN3web8WebStateE
-[SessionRestorationScrollObserver .cxx_construct]
__ZN4base8internal17UnretainedWrapperI34SessionRestorationWebStateObserverNS_17unretained_traits12MayNotDangleELN15partition_alloc8internal12RawPtrTraitsE0EEC2EPS2_QeqT1_LS7_0E
__ZN4base8internal9BindStateILb1ELb1ELb0EM34SessionRestorationWebStateObserverFvvEJNS0_17UnretainedWrapperIS2_NS_17unretained_traits12MayNotDangleELN15partition_alloc8internal12RawPtrTraitsE0EEEEEC2IS4_JSB_EQntsr18CancellationTraitsE14is_cancellableEEPFvvEOT_DpOT0_
-[SessionRestorationScrollObserver initWithClosure:]
__ZN3web12WebStateImpl28GetPageWorldWebFramesManagerEv
__ZN38SessionRestorationWebStateListObserver17MarkWebStateDirtyEPN3web8WebStateE
__ZNK3web12WebStateImpl16RealizedWebState19GetUniqueIdentifierEv
__ZNSt4__Cr6__treeIN3web10WebStateIDENS_4lessIS2_EENS_9allocatorIS2_EEE14__erase_uniqueIS2_EEmRKT_
__ZNKR4base17RepeatingCallbackIFvP12WebStateListEE3RunES2_
__ZN4base8internal7InvokerINS0_13FunctorTraitsIRKM29SessionRestorationServiceImplFvP12WebStateListEJPS3_EEENS0_9BindStateILb1ELb1ELb0ES7_JNS0_17UnretainedWrapperIS3_NS_17unretained_traits12MayNotDangleELN15partition_alloc8internal12RawPtrTraitsE0EEEEEEFvS5_EE3RunEPNS0_13BindStateBaseES5_
__ZN29SessionRestorationServiceImpl21MarkWebStateListDirtyEP12WebStateList
__ZNSt4__Cr6__treeIP12WebStateListNS_4lessIS2_EENS_9allocatorIS2_EEE25__emplace_unique_key_argsIS2_JRKS2_EEENS_4pairINS_15__tree_iteratorIS2_PNS_11__tree_nodeIS2_PvEElEEbEERKT_DpOT0_
__ZN4base8internal9BindStateILb1ELb1ELb0EM29SessionRestorationServiceImplFvvEJNS0_17UnretainedWrapperIS2_NS_17unretained_traits12MayNotDangleELN15partition_alloc8internal12RawPtrTraitsE0EEEEEC2IS4_JSB_EQntsr18CancellationTraitsE14is_cancellableEEPFvvEOT_DpOT0_
__ZNK12WebStateList17IsBatchInProgressEv
-[CrashReporterTabStateObserver didChangeWebStateList:change:status:]
__ZN24CrashReporterURLObserver21WebStateListDidChangeEP12WebStateListRK18WebStateListChangeRK18WebStateListStatus
__ZNSt4__Cr6__treeINS_12__value_typeIPKN3web8WebStateENS_12basic_stringIcNS_11char_traitsIcEENS_9allocatorIcEEEEEENS_19__map_value_compareIS5_SC_NS_4lessIS5_EELb1EEENS9_ISC_EEE25__emplace_unique_key_argsIS5_JRKNS_21piecewise_construct_tENS_5tupleIJRKS5_EEENSN_IJEEEEEENS_4pairINS_15__tree_iteratorISC_PNS_11__tree_nodeISC_PvEElEEbEERKT_DpOT0_
__ZNK3web12WebStateImpl20GetNavigationManagerEv
__ZNK3web21NavigationManagerImpl14GetPendingItemEv
__ZNK3web12WebStateImpl16RealizedWebState19GetLastCommittedURLEv
__ZN24CrashReporterURLObserver9RecordURLERK4GURLPKN3web8WebStateEb
__ZNSt4__Cr6__treeINS_12__value_typeINS_12basic_stringIcNS_11char_traitsIcEENS_9allocatorIcEEEEPKN3web8WebStateEEENS_19__map_value_compareIS7_SC_NS_4lessIS7_EELb1EEENS5_ISC_EEE25__emplace_unique_key_argsIS7_JRKNS_21piecewise_construct_tENS_5tupleIJRKS7_EEENSN_IJEEEEEENS_4pairINS_15__tree_iteratorISC_PNS_11__tree_nodeISC_PvEElEEbEERKT_DpOT0_
-[CrashReporterParameterSetter setReportParameterURL:forKey:pending:]
__ZN8crashpad16StringAnnotationILj1024EE3SetENSt4__Cr17basic_string_viewIcNS2_11char_traitsIcEEEE
-[CrashReporterParameterSetter removeReportParameter:pending:]
__ZNSt4__Cr6__treeINS_12__value_typeIPKN3web8WebStateENS_12basic_stringIcNS_11char_traitsIcEENS_9allocatorIcEEEEEENS_19__map_value_compareIS5_SC_NS_4lessIS5_EELb1EEENS9_ISC_EEE25__emplace_unique_key_argsIS5_JRKNS_21piecewise_construct_tENS_5tupleIJOS5_EEENSN_IJEEEEEENS_4pairINS_15__tree_iteratorISC_PNS_11__tree_nodeISC_PvEElEEbEERKT_DpOT0_
__ZN38WebStateDependencyInstallationObserver21WebStateListDidChangeEP12WebStateListRK18WebStateListChangeRK18WebStateListStatus
__ZN38WebStateDependencyInstallationObserver15OnWebStateAddedEPN3web8WebStateE
__ZN33WebStateDependencyInstallerBridge17InstallDependencyEPN3web8WebStateE
-[TabLifecycleMediator installDependencyForWebState:]
__ZN20PrerenderServiceImpl21IsWebStatePrerenderedEPN3web8WebStateE
-[PreloadController isWebStatePrerendered:]
__ZN17SnapshotTabHelper11SetDelegateEPU36objcproto25SnapshotGeneratorDelegate11objc_object
-[SnapshotManager setDelegate:]
-[LegacySnapshotGenerator setDelegate:]
__ZN17PasswordTabHelper29SetPasswordControllerDelegateEPU37objcproto26PasswordControllerDelegate11objc_object
-[PasswordController setDelegate:]
__ZN17PasswordTabHelper13SetDispatcherEP17CommandDispatcher
-[PasswordController setDispatcher:]
__ZN28AutofillBottomSheetTabHelper29SetAutofillBottomSheetHandlerEPU27objcproto16AutofillCommands11objc_object
__ZN26OverscrollActionsTabHelper11SetDelegateEPU46objcproto35OverscrollActionsControllerDelegate11objc_object
-[OverscrollActionsController .cxx_construct]
-[OverscrollActionsController initWithWebViewProxy:]
-[OverscrollActionsController initWithScrollView:webViewProxy:]
-[OverscrollActionsView .cxx_construct]
-[OverscrollActionsView initWithFrame:]
-[OverscrollActionsView newSelectionCircleLayer]
__Z12UseRTLLayoutv
-[OverscrollActionsView setDelegate:]
-[OverscrollActionsController registerNotifications]
-[OverscrollActionsController enableOverscrollActions]
-[OverscrollActionsController setup]
-[OverscrollActionsController scrollView]
-[CRWWebViewScrollViewProxy methodSignatureForSelector:]
-[CRWWebViewScrollViewProxy forwardInvocation:]
-[OverscrollActionsController setPanGestureRecognizer:]
-[OverscrollActionsController setStyle:]
-[OverscrollActionsController overscrollActionView]
-[OverscrollActionsView setStyle:]
-[OverscrollActionsView style]
-[OverscrollActionsView updateLayerColors]
___42-[OverscrollActionsView updateLayerColors]_block_invoke
-[OverscrollActionsController setDelegate:]
__ZN24DownloadManagerTabHelper11SetDelegateEPU43objcproto32DownloadManagerTabHelperDelegate11objc_object
__ZN3web20LazyWebStateUserDataI18NetExportTabHelperE22GetOrCreateForWebStateIJEEEPS1_PNS_8WebStateEDpOT_
__ZN18NetExportTabHelperC1EPN3web8WebStateE
__ZN18NetExportTabHelper11SetDelegateEPU37objcproto26NetExportTabHelperDelegate11objc_object
__ZN3web20LazyWebStateUserDataI26ITunesUrlsHandlerTabHelperE22GetOrCreateForWebStateIJEEEPS1_PNS_8WebStateEDpOT_
__ZN26ITunesUrlsHandlerTabHelperC1EPN3web8WebStateE
__ZN26ITunesUrlsHandlerTabHelper21SetWebContentsHandlerEPU29objcproto18WebContentCommands11objc_object
__ZN3web20LazyWebStateUserDataI16PassKitTabHelperE22GetOrCreateForWebStateIJEEEPS1_PNS_8WebStateEDpOT_
__ZN16PassKitTabHelperC1EPN3web8WebStateE
__ZN16PassKitTabHelperC2EPN3web8WebStateE
__ZN16PassKitTabHelper21SetWebContentsHandlerEPU29objcproto18WebContentCommands11objc_object
__ZN17AutofillTabHelper21SetBaseViewControllerEP16UIViewController
__ZN8autofill23ChromeAutofillClientIOS21SetBaseViewControllerEP16UIViewController
__ZN17AutofillTabHelper18SetCommandsHandlerEPU27objcproto16AutofillCommands11objc_object
__ZN3web20LazyWebStateUserDataI14PrintTabHelperE22GetOrCreateForWebStateIJEEEPS1_PNS_8WebStateEDpOT_
__ZN14PrintTabHelperC1EPN3web8WebStateE
__ZN14PrintTabHelperC2EPN3web8WebStateE
__ZN14PrintTabHelper11set_printerEPU26objcproto15WebStatePrinter11objc_object
__ZN19RepostFormTabHelper11SetDelegateEPU38objcproto27RepostFormTabHelperDelegate11objc_object
__ZN15FollowTabHelper24set_follow_iph_presenterEPU29objcproto18FollowIPHPresenter11objc_object
__ZN3web20LazyWebStateUserDataI22CaptivePortalTabHelperE22GetOrCreateForWebStateIJEEEPS1_PNS_8WebStateEDpOT_
__ZN22CaptivePortalTabHelperC1EPN3web8WebStateE
__ZN22CaptivePortalTabHelper27SetTabInsertionBrowserAgentEP24TabInsertionBrowserAgent
__ZN19NewTabPageTabHelper11SetDelegateEPU38objcproto27NewTabPageTabHelperDelegate11objc_object
__ZN20AnnotationsTabHelper21SetBaseViewControllerEP16UIViewController
__ZN20AnnotationsTabHelper18SetMiniMapCommandsEPU26objcproto15MiniMapCommands11objc_object
__ZN20AnnotationsTabHelper25SetUnitConversionCommandsEPU33objcproto22UnitConversionCommands11objc_object
__Z26IsIOSParcelTrackingEnabledv
__Z24IsParcelTrackingDisabledP11PrefService
__ZN20AnnotationsTabHelper30SetParcelTrackingOptInCommandsEPU38objcproto27ParcelTrackingOptInCommands11objc_object
__ZN20AppLauncherTabHelper30SetBrowserPresentationProviderEPU58objcproto47AppLauncherTabHelperBrowserPresentationProvider11objc_object
__ZN30FullscreenWebStateListObserver21WebStateListDidChangeEP12WebStateListRK18WebStateListChangeRK18WebStateListStatus
__ZN24FullscreenControllerImpl30ExitFullscreenWithoutAnimationEv
__ZN18FullscreenMediator30ExitFullscreenWithoutAnimationEv
__ZN15FullscreenModel18ResetForNavigationEv
__ZN12_GLOBAL__N_117ScopedIncrementerC1EPm
__ZN4base12ObserverListI23FullscreenModelObserverLb1ELb1ENS_8internal22CheckedObserverAdapterEE4IterC2EPKS4_
__ZN4base8internal12WeakLinkNodeINS_12ObserverListI23FullscreenModelObserverLb1ELb1ENS0_22CheckedObserverAdapterEEEE7SetListEPS5_
__ZN4base12ObserverListI23FullscreenModelObserverLb1ELb1ENS_8internal22CheckedObserverAdapterEE4Iter16EnsureValidIndexEv
__ZNK4base12ObserverListI23FullscreenModelObserverLb1ELb1ENS_8internal22CheckedObserverAdapterEE4ItereqERKS5_
__ZNK4base12ObserverListI23FullscreenModelObserverLb1ELb1ENS_8internal22CheckedObserverAdapterEE4Iter6is_endEv
__ZNK4base12ObserverListI23FullscreenModelObserverLb1ELb1ENS_8internal22CheckedObserverAdapterEE4Iter10GetCurrentEv
__ZN18FullscreenMediator23FullscreenModelWasResetEP15FullscreenModel
__ZN18FullscreenMediator13StopAnimatingEb
__ZN4base12ObserverListI28FullscreenControllerObserverLb1ELb1ENS_8internal22CheckedObserverAdapterEE4IterC2EPKS4_
__ZN4base8internal12WeakLinkNodeINS_12ObserverListI28FullscreenControllerObserverLb1ELb1ENS0_22CheckedObserverAdapterEEEE7SetListEPS5_
__ZN4base12ObserverListI28FullscreenControllerObserverLb1ELb1ENS_8internal22CheckedObserverAdapterEE4Iter16EnsureValidIndexEv
__ZNK4base12ObserverListI28FullscreenControllerObserverLb1ELb1ENS_8internal22CheckedObserverAdapterEE4ItereqERKS5_
__ZNK4base12ObserverListI28FullscreenControllerObserverLb1ELb1ENS_8internal22CheckedObserverAdapterEE4Iter6is_endEv
__ZNK4base12ObserverListI28FullscreenControllerObserverLb1ELb1ENS_8internal22CheckedObserverAdapterEE4Iter10GetCurrentEv
__ZN19FullscreenUIUpdater37FullscreenControllerObserverForwarder35FullscreenViewportInsetRangeChangedEP20FullscreenController12UIEdgeInsetsS3_
__ZN19FullscreenUIUpdater37FullscreenControllerObserverForwarder25FullscreenProgressUpdatedEP20FullscreenControllerd
-[BadgeViewController updateForFullscreenProgress:]
-[BadgeViewController fullScreenBadge]
-[LocationBarViewController updateForFullscreenProgress:]
-[LocationBarSteadyView setFullScreenCollapsedMode:]
-[LocationBarSteadyView badgeViewFullScreenEnabledConstraints]
-[PrimaryToolbarViewController updateForFullscreenProgress:]
-[AdaptiveToolbarViewController updateForFullscreenProgress:]
-[SecondaryToolbarViewController updateForFullscreenProgress:]
-[SecondaryToolbarViewController verticalMarginForLocationBarForFullscreenProgress:]
__ZN4base12ObserverListI28FullscreenControllerObserverLb1ELb1ENS_8internal22CheckedObserverAdapterEE4IterD2Ev
__ZN4base12ObserverListI28FullscreenControllerObserverLb1ELb1ENS_8internal22CheckedObserverAdapterEE7CompactEv
__ZNSt4__Cr9remove_ifINS_11__wrap_iterIPN4base8internal22CheckedObserverAdapterEEEZNS2_12ObserverListI28FullscreenControllerObserverLb1ELb1ES4_E7CompactEvEUlRKT_E_EESA_SA_SA_T0_
-[FullscreenWebViewResizer updateForCurrentState]
-[FullscreenWebViewResizer webState]
__ZN4base12ObserverListI23FullscreenModelObserverLb1ELb1ENS_8internal22CheckedObserverAdapterEE4IterD2Ev
__ZN4base12ObserverListI23FullscreenModelObserverLb1ELb1ENS_8internal22CheckedObserverAdapterEE7CompactEv
__ZNSt4__Cr9remove_ifINS_11__wrap_iterIPN4base8internal22CheckedObserverAdapterEEEZNS2_12ObserverListI23FullscreenModelObserverLb1ELb1ES4_E7CompactEvEUlRKT_E_EESA_SA_SA_T0_
__ZN12_GLOBAL__N_117ScopedIncrementerD1Ev
__ZN18FullscreenMediator11SetWebStateEPN3web8WebStateE
-[FullscreenWebViewResizer setWebState:]
-[FullscreenWebViewResizer stopObservingWebStateViewFrame]
-[FullscreenWebViewResizer observeWebStateViewFrame:]
-[FullscreenWebViewResizer setCompensateFrameChangeByOffset:]
-[FullscreenWebViewResizer model]
-[FullscreenWebViewResizer updateForFullscreenProgress:]
__ZN3web12WebStateImpl7GetViewEv
__ZN3web12WebStateImpl16RealizedWebState7GetViewEv
-[CRWWebController view]
-[FullscreenWebViewProxyObserver setProxy:]
__Z22MoveContentBelowHeaderPU26objcproto15CRWWebViewProxy11objc_objectP15FullscreenModel
-[SideSwipeMediator didChangeWebStateList:change:status:]
-[SideSwipeMediator dismissCurtain]
-[SideSwipeMediator updateNavigationEdgeSwipeForWebState:]
-[SideSwipeMediator setLeadingEdgeNavigationEnabled:]
-[SideSwipeMediator setTrailingEdgeNavigationEnabled:]
__ZNK3web21NavigationManagerImpl14GetVisibleItemEv
__ZNK3web21NavigationManagerImpl25CanTrustLastCommittedItemEPKNS_14NavigationItemE
__Z14UseNativeSwipePN3web14NavigationItemE
__ZNK3web21NavigationManagerImpl16GetBackwardItemsEv
__ZNK3web21NavigationManagerImpl15GetForwardItemsEv
-[LensCoordinator didChangeWebStateList:change:status:]
-[LensCoordinator lensWebPageLoadTriggeredFromInputSelection]
-[ToolbarMediator didChangeWebStateList:change:status:]
-[ToolbarMediator updateForWebState:]
-[ToolbarCoordinator updateToolbar]
__ZNK3web12WebStateImpl9IsLoadingEv
__ZNK3web12WebStateImpl16RealizedWebState9IsLoadingEv
-[ToolbarCoordinator isLoadingPrerenderer]
__ZN20PrerenderServiceImpl18IsLoadingPrerenderEv
-[CommandDispatcher forwardingTargetForSelector:]
-[BrowserCoordinator showFindUIIfActive]
-[BrowserCoordinator activeWebState]
__Z36GetConcreteFindTabHelperFromWebStatePN3web8WebStateE
__ZNK13FindTabHelper14IsFindUIActiveEv
-[FindInPageController findInPageModel]
-[FindInPageModel enabled]
-[BrowserCoordinator showTextZoomUIIfActive]
__ZNK17FontSizeTabHelper18IsTextZoomUIActiveEv
__ZNK19NewTabPageTabHelper8IsActiveEv
-[PrimaryToolbarView setHidden:]
-[ZeroSuggestPrefetchHelper didChangeWebStateList:change:status:]
-[ZeroSuggestPrefetchHelper controller]
__ZN22ChromeOmniboxClientIOS21GetPageClassificationE18OmniboxFocusSourceb
__ZNK27LocationBarModelDelegateIOS12IsNewTabPageEv
__ZNK22ChromeOmniboxClientIOS6GetURLEv
__ZNK22ChromeOmniboxClientIOS17CurrentPageExistsEv
__ZN18WebLocationBarImpl11GetWebStateEv
-[LocationBarCoordinator webState]
__ZNK22ChromeOmniboxClientIOS19GetSchemeClassifierEv
__ZNK30AutocompleteProviderClientImpl21GetTemplateURLServiceEv
__ZNK3ios23UIThreadSearchTermsData27GetSuggestRequestIdentifierEN15SearchTermsData13RequestSourceE
__ZNK3ios23UIThreadSearchTermsData16GetSuggestClientEN15SearchTermsData13RequestSourceE
__ZNK30AutocompleteProviderClientImpl20SearchSuggestEnabledEv
__ZNK30AutocompleteProviderClientImpl19in_background_stateEv
__ZNK30AutocompleteProviderClientImpl27GetRemoteSuggestionsServiceEb
-[BadgeMediator didChangeWebStateList:change:status:]
-[BadgeMediator webStateList]
-[BadgeMediator setWebState:]
__ZN3web20LazyWebStateUserDataI21InfobarBadgeTabHelperE22GetOrCreateForWebStateIJEEEPS1_PNS_8WebStateEDpOT_
__ZN21InfobarBadgeTabHelperC1EPN3web8WebStateE
__ZN21InfobarBadgeTabHelperC2EPN3web8WebStateE
__ZN21InfobarBadgeTabHelper25InfobarAcceptanceObserverC2EPS_
__ZN4base28ScopedMultiSourceObservationI10InfoBarIOSNS1_8ObserverEEC2EPS2_
__ZN21InfobarBadgeTabHelper22InfobarManagerObserverC2EPS_PN3web8WebStateEPNS_25InfobarAcceptanceObserverE
__ZN21InfobarBadgeTabHelper11SetDelegateEPU40objcproto29InfobarBadgeTabHelperDelegate11objc_object
-[BadgeMediator updateBadgesShownForWebState:]
__ZNK21InfobarBadgeTabHelper21GetInfobarBadgeStatesEv
__ZNSt4__Cr6__treeINS_12__value_typeI11InfobarTypemEENS_19__map_value_compareIS2_S3_NS_4lessIS2_EELb1EEENS_9allocatorIS3_EEE7destroyEPNS_11__tree_nodeIS3_PvEE
-[BadgeViewController updateDisplayedBadge:fullScreenBadge:infoBar:]
-[BadgeMediator updateConsumerReadStatus]
-[BadgeViewController markDisplayedBadgeAsRead:]
-[BadgeViewController unreadIndicatorView]
-[LocationBarMediator didChangeWebStateList:change:status:]
-[LocationBarCoordinator defocusOmnibox]
-[LocationBarCoordinator cancelOmniboxEdit]
-[LocationBarCoordinator isCancellingOmniboxEdit]
-[LocationBarCoordinator setIsCancellingOmniboxEdit:]
-[OmniboxCoordinator endEditing]
-[BrowserViewController nextResponder]
-[BrowserViewController shouldSupportKeyCommands]
__ZN14OmniboxViewIOS10EndEditingEv
-[LocationBarSteadyViewMediator didChangeWebStateList:change:status:]
__ZNK22security_interstitials24IOSBlockingPageTabHelper22GetCurrentBlockingPageEv
__ZNSt4__Cr12basic_stringIDsNS_11char_traitsIDsEENS_9allocatorIDsEEE17__assign_no_aliasILb0EEERS5_PKDsm
-[OmniboxTextFieldExperimental cleanUpFadeAnimations]
-[OmniboxTextFieldExperimental fadeAnimationLayers]
__Z31RemoveAnimationForKeyFromLayersP8NSStringP7NSArray
__ZNSt4__Cr6vectorI4GURLNS_9allocatorIS1_EEE18__assign_with_sizeIPS1_S6_EEvT_T0_l
-[LocationBarCoordinator updateAfterNavigatingToNTP]
-[LocationBarSteadyView setLocationLabelPlaceholderText:]
-[LocationBarSteadyViewColorScheme placeholderColor]
-[LocationBarViewController incognito]
__ZNK15ChromeWebClient16IsAppSpecificURLERK4GURL
-[AdaptiveToolbarMediator didChangeWebStateList:change:status:]
-[AdaptiveToolbarMediator updateConsumer]
-[AdaptiveToolbarMediator updateConsumerForWebState:]
-[AdaptiveToolbarMediator updateNavigationBackAndForwardStateForWebState:]
-[AdaptiveToolbarMediator navigationBrowserAgent]
__ZN25WebNavigationBrowserAgent12CanGoForwardEPKN3web8WebStateE
__ZNK3web21NavigationManagerImpl12CanGoForwardEv
-[AdaptiveToolbarViewController setCanGoForward:]
__ZN25WebNavigationBrowserAgent9CanGoBackEPKN3web8WebStateE
__ZNK3web21NavigationManagerImpl9CanGoBackEv
__ZNK16LensBrowserAgent25CanGoBackToLensViewFinderEv
__ZNK16LensBrowserAgent24CurrentResultsEntrypointEv
-[AdaptiveToolbarViewController setCanGoBack:]
-[AdaptiveToolbarMediator updateShareMenuForWebState:]
-[AdaptiveToolbarViewController setShareMenuEnabled:]
__Z22IsVisibleURLNewTabPagePN3web8WebStateE
-[PrimaryToolbarViewController setIsNTP:]
-[AdaptiveToolbarViewController setIsNTP:]
-[AdaptiveToolbarViewController setLoadingState:]
-[TabEventsMediator didChangeWebStateList:change:status:]
-[TabEventsMediator didChangeActiveWebState:oldActiveWebState:isInserted:]
-[TabEventsMediator startNTPIfNeededForActiveWebState:]
__ZNK30IOSChromeHttpUserAgentSettings12GetUserAgentEv
__ZNK30IOSChromeHttpUserAgentSettings17GetAcceptLanguageEv
__ZNK25AcceptLanguagePrefWatcher6Handle23GetAcceptLanguageHeaderEv
__ZN3net14CookieStoreIOS29GetCookieListWithOptionsAsyncERK4GURLRKNS_13CookieOptionsERKNS_28CookiePartitionKeyCollectionEN4base12OnceCallbackIFvRKNSt4__Cr6vectorINS_22CookieWithAccessResultENSC_9allocatorISE_EEEESJ_EEE
__ZN4base14WeakPtrFactoryIN3net14CookieStoreIOSEE10GetWeakPtrEvQntsr3stdE10is_const_vIT_E
__ZN4base8internal9BindStateILb1ELb1ELb0EMN3net14CookieStoreIOSEFvNS_12OnceCallbackIFvRKNSt4__Cr6vectorINS2_22CookieWithAccessResultENS5_9allocatorIS7_EEEESC_EEEP7NSArrayIP12NSHTTPCookieEEJNS_7WeakPtrIS3_EESE_EEC2ISL_JSN_SE_EQsr18CancellationTraitsE14is_cancellableEEPFvvEOT_DpOT0_
__ZN3web23WKHTTPSystemCookieStore21GetCookiesForURLAsyncERK4GURLN4base12OnceCallbackIFvP7NSArrayIP12NSHTTPCookieEEEE
-[NewTabPageCoordinator started]
-[NewTabPageCoordinator start]
-[NewTabPageCoordinator toolbarDelegate]
-[NewTabPageCoordinator contentSuggestionsCoordinator]
-[NewTabPageCoordinator setWebState:]
-[NewTabPageCoordinator logoVendor]
__ZN19NewTabPageTabHelper11GetNTPStateEv
-[NewTabPageState selectedFeed]
-[NewTabPageCoordinator setSelectedFeed:]
-[NewTabPageCoordinator initializeServices]
-[NewTabPageCoordinator setAuthService:]
-[NewTabPageCoordinator setTemplateURLService:]
__ZN26DiscoverFeedServiceFactory18GetForBrowserStateEP18ChromeBrowserStateb
__ZNK26DiscoverFeedServiceFactory23BuildServiceInstanceForEPN3web12BrowserStateE
-[DiscoverFeedConfiguration setBrowserStatePrefService:]
-[DiscoverFeedConfiguration setLocalStatePrefService:]
-[DiscoverFeedConfiguration setAuthService:]
-[DiscoverFeedConfiguration setIdentityManager:]
-[FeedMetricsRecorder .cxx_construct]
-[FeedMetricsRecorder initWithPrefService:]
-[DiscoverFeedConfiguration setMetricsRecorder:]
-[DiscoverFeedConfiguration setSsoService:]
-[DiscoverFeedConfiguration setTemplateURLService:]
-[DiscoverFeedConfiguration setSyncService:]
__ZN3ios8provider25CreateDiscoverFeedServiceEP25DiscoverFeedConfiguration
__ZN19DiscoverFeedServiceC2Ev
-[DiscoverFeedConfiguration .cxx_destruct]
-[FeedMetricsRecorder .cxx_destruct]
-[NewTabPageCoordinator setDiscoverFeedService:]
-[NewTabPageCoordinator setPrefService:]
-[NewTabPageCoordinator initializeNTPComponents]
-[NewTabPageCoordinator componentFactory]
__ZN3ios8provider16CreateLogoVendorEP7BrowserPN3web8WebStateE
-[ChromiumLogoController init]
-[NewTabPageCoordinator setLogoVendor:]
-[NewTabPageComponentFactory NTPViewController]
-[NewTabPageViewController init]
-[NewTabPageCoordinator setNTPViewController:]
-[NewTabPageComponentFactory headerViewControllerForBrowser:]
-[NewTabPageHeaderViewController initWithUseNewBadgeForLensButton:]
-[NewTabPageCoordinator setHeaderViewController:]
-[NewTabPageCoordinator headerViewController]
-[NewTabPageComponentFactory NTPMediatorForBrowser:identityDiscImageUpdater:]
-[NewTabPageMediator .cxx_construct]
-[NewTabPageMediator initWithTemplateURLService:URLLoader:authService:identityManager:accountManagerService:identityDiscImageUpdater:isIncognito:discoverFeedService:prefService:isSafeMode:]
__ZN41ChromeAccountManagerServiceObserverBridgeC1EPU46objcproto35ChromeAccountManagerServiceObserver11objc_objectP27ChromeAccountManagerService
__ZN41ChromeAccountManagerServiceObserverBridgeC2EPU46objcproto35ChromeAccountManagerServiceObserver11objc_objectP27ChromeAccountManagerService
__ZN6signin29IdentityManagerObserverBridgeC1EPNS_15IdentityManagerEPU48objcproto37IdentityManagerObserverBridgeDelegate11objc_object
__ZN6signin29IdentityManagerObserverBridgeC2EPNS_15IdentityManagerEPU48objcproto37IdentityManagerObserverBridgeDelegate11objc_object
-[NewTabPageMediator templateURLService]
-[NewTabPageCoordinator setNTPMediator:]
-[NewTabPageComponentFactory contentSuggestionsCoordinatorForBrowser:]
-[NewTabPageCoordinator setContentSuggestionsCoordinator:]
-[NewTabPageComponentFactory feedMetricsRecorderForBrowser:]
__ZN3ios8provider12_GLOBAL__N_127ChromiumDiscoverFeedService22GetFeedMetricsRecorderEv
-[NewTabPageCoordinator setFeedMetricsRecorder:]
-[NewTabPageCoordinator setNTPMetricsRecorder:]
-[NewTabPageCoordinator startObservers]
-[NewTabPageCoordinator prefService]
-[NewTabPageCoordinator setFeedExpandedPref:]
-[NewTabPageCoordinator feedExpandedPref]
-[NewTabPageCoordinator discoverFeedService]
__ZN26DiscoverFeedObserverBridgeC1EPU45objcproto34DiscoverFeedObserverBridgeDelegate11objc_objectP19DiscoverFeedService
__ZN4base17ScopedObservationI19DiscoverFeedService20DiscoverFeedObserverEC2EPS2_
__ZN4base17ScopedObservationI19DiscoverFeedService20DiscoverFeedObserverE7ObserveEPS1_
__ZN19DiscoverFeedService11AddObserverEP20DiscoverFeedObserver
__ZN4base12ObserverListI20DiscoverFeedObserverLb1ELb1ENS_8internal22CheckedObserverAdapterEE11AddObserverEPS1_
-[NewTabPageCoordinator authService]
__ZN35AuthenticationServiceObserverBridgeC1EP21AuthenticationServicePU41objcproto30AuthenticationServiceObserving11objc_object
__ZN35AuthenticationServiceObserverBridgeC2EP21AuthenticationServicePU41objcproto30AuthenticationServiceObserving11objc_object
-[NewTabPageCoordinator appState:didTransitionFromInitStage:]
-[NewTabPageCoordinator NTPViewController]
-[NewTabPageViewController setFocusAccessibilityOmniboxWhenViewAppears:]
-[NewTabPageCoordinator updateFeedVisibilityForSupervision]
-[NewTabPageCoordinator updateFeedWithIsSupervisedUser:]
-[NewTabPageCoordinator configureNTPMediator]
-[NewTabPageCoordinator NTPMediator]
-[NewTabPageMediator setFeedControlDelegate:]
-[NewTabPageMediator setNTPContentDelegate:]
-[NewTabPageMediator setHeaderConsumer:]
-[NewTabPageMediator setConsumer:]
-[NewTabPageMediator setUp]
-[NewTabPageMediator updatedFeedHeaderVisible]
__Z21IsFeedAblationEnabledv
__Z44IsContentSuggestionsForSupervisedUserEnabledP11PrefService
__Z30ShouldHideFeedWithSearchChoiceP18TemplateURLService
__Z36IsIOSHideFeedWithSearchChoiceEnabledv
-[NewTabPageMediator headerConsumer]
-[NewTabPageHeaderViewController setLogoIsShowing:]
-[NewTabPageHeaderViewController updateLogoAndFakeboxDisplay]
-[NewTabPageHeaderViewController logoVendor]
-[NewTabPageHeaderViewController logoIsShowing]
-[NewTabPageHeaderViewController updateFakeboxDisplay]
__ZN19content_suggestions15DoodleTopMarginEdP17UITraitCollection
__Z26IsRegularXRegularSizeClassP17UITraitCollection
__ZN7ui_util33SystemSuggestedFontSizeMultiplierEv
__Z37ReducedNTPTopMarginSpaceForMagicStackv
-[NewTabPageHeaderViewController doodleTopMarginConstraint]
-[NewTabPageHeaderViewController doodleHeightConstraint]
__ZN19content_suggestions12DoodleHeightEbbP17UITraitCollection
-[NewTabPageHeaderViewController fakeOmnibox]
-[NewTabPageHeaderViewController headerView]
__ZN19content_suggestions19HeightForLogoHeaderEbbP17UITraitCollection
-[NewTabPageHeaderViewController headerViewHeightConstraint]
-[NewTabPageHeaderViewController setVoiceSearchIsEnabled:]
-[NewTabPageMediator updateAccountImage]
-[NewTabPageMediator authService]
-[NewTabPageMediator imageUpdater]
-[NewTabPageHeaderViewController setSignedOutAccountImage]
-[NewTabPageHeaderViewController setIdentityDiscImage:]
-[NewTabPageHeaderViewController setIdentityDiscAccessibilityLabel:]
-[NewTabPageHeaderViewController identityDiscButton]
-[NewTabPageMediator startObservingPrefs]
-[NewTabPageMediator isFeedHeaderVisible]
-[NewTabPageCoordinator configureFeedAndHeader]
-[NewTabPageCoordinator feedHeaderViewController]
__Z33IsDotEnabledForNewFollowedContentv
-[NewTabPageComponentFactory feedHeaderViewControllerWithFollowingDotVisible:]
-[FeedHeaderViewController initWithFollowingDotVisible:]
-[NewTabPageCoordinator setFeedHeaderViewController:]
-[NewTabPageCoordinator setFeedMenuCoordinator:]
-[NewTabPageCoordinator feedMenuCoordinator]
-[FeedMenuCoordinator setDelegate:]
-[FeedMenuCoordinator start]
-[FeedHeaderViewController setFeedMenuHandler:]
-[FeedHeaderViewController setFeedControlDelegate:]
-[FeedHeaderViewController setNTPDelegate:]
-[NewTabPageCoordinator feedMetricsRecorder]
-[FeedHeaderViewController setFeedMetricsRecorder:]
__Z23IsFollowUIUpdateEnabledv
-[NewTabPageViewController setFeedHeaderViewController:]
-[NewTabPageCoordinator shouldFeedBeVisible]
-[NewTabPageCoordinator isFollowingFeedAvailable]
-[NewTabPageCoordinator feedViewControllerConfiguration]
-[DiscoverFeedViewControllerConfiguration setBrowser:]
-[DiscoverFeedViewControllerConfiguration setScrollDelegate:]
-[DiscoverFeedViewControllerConfiguration setPreviewDelegate:]
-[DiscoverFeedViewControllerConfiguration setManageDelegate:]
-[DiscoverFeedViewControllerConfiguration setSignInPromoDelegate:]
-[NewTabPageComponentFactory discoverFeedForBrowser:viewControllerConfiguration:]
__ZN10tests_hook19DisableDiscoverFeedEv
+[FeedModelConfiguration discoverFeedModelConfiguration]
-[FeedModelConfiguration initWithFeedType:followingFeedSortType:]
__ZN3ios8provider12_GLOBAL__N_127ChromiumDiscoverFeedService15CreateFeedModelEP22FeedModelConfiguration
__ZN3ios8provider12_GLOBAL__N_127ChromiumDiscoverFeedService46NewDiscoverFeedViewControllerWithConfigurationEP39DiscoverFeedViewControllerConfiguration
-[NewTabPageCoordinator setFeedViewController:]
-[DiscoverFeedViewControllerConfiguration .cxx_destruct]
-[NewTabPageCoordinator isFeedVisible]
-[NewTabPageCoordinator feedViewController]
-[NewTabPageCoordinator configureHeaderViewController]
-[NewTabPageCoordinator NTPMetricsRecorder]
-[NewTabPageCoordinator isGoogleDefaultSearchEngine]
-[NewTabPageCoordinator templateURLService]
-[NewTabPageHeaderViewController setIsGoogleDefaultSearchEngine:]
-[NewTabPageHeaderViewController setDispatcher:]
-[NewTabPageHeaderViewController setCommandHandler:]
-[NewTabPageHeaderViewController setDelegate:]
-[NewTabPageHeaderViewController setLayoutGuideCenter:]
-[NewTabPageHeaderViewController setToolbarDelegate:]
-[NewTabPageCoordinator baseViewController]
-[NewTabPageHeaderViewController setBaseViewController:]
-[NewTabPageHeaderViewController setNTPMetricsRecorder:]
-[NewTabPageHeaderViewController setLogoVendor:]
-[ChromiumLogoController setDoodleObserver:]
-[ChromiumLogoController isShowingLogo]
-[ChromiumLogoController setShowingLogo:]
-[ChromiumLogoController isShowingDoodle]
-[NewTabPageCoordinator configureContentSuggestionsCoordinator]
-[ContentSuggestionsCoordinator setWebState:]
-[ContentSuggestionsCoordinator setNTPDelegate:]
-[ContentSuggestionsCoordinator setDelegate:]
-[ContentSuggestionsCoordinator setNTPMetricsDelegate:]
-[ContentSuggestionsCoordinator start]
-[ContentSuggestionsCoordinator NTPMetricsDelegate]
-[ContentSuggestionsCoordinator started]
-[ContentSuggestionsCoordinator setAuthService:]
__ZN22IOSPopularSitesFactory18NewForBrowserStateEP18ChromeBrowserState
-[ContentSuggestionsMetricsRecorder .cxx_construct]
-[ContentSuggestionsMetricsRecorder initWithLocalState:]
-[ContentSuggestionsCoordinator setContentSuggestionsMetricsRecorder:]
-[ContentSuggestionsMediator .cxx_construct]
-[ContentSuggestionsMediator init]
-[ContentSuggestionsCoordinator setContentSuggestionsMediator:]
-[MostVisitedTilesMediator .cxx_construct]
-[MostVisitedTilesMediator initWithMostVisitedSite:prefService:largeIconService:largeIconCache:URLLoadingBrowserAgent:]
__ZN9ntp_tiles30MostVisitedSitesObserverBridgeC1EPU36objcproto25MostVisitedSitesObserving11objc_object
-[ContentSuggestionsCoordinator delegate]
-[MostVisitedTilesMediator setContentSuggestionsDelegate:]
-[MostVisitedTilesMediator setActionFactory:]
-[MostVisitedTilesMediator setSnackbarHandler:]
-[MostVisitedTilesMediator setNTPMetricsDelegate:]
-[ContentSuggestionsCoordinator contentSuggestionsMediator]
-[ContentSuggestionsMediator setMostVisitedTilesMediator:]
-[ShortcutsMediator .cxx_construct]
-[ShortcutsMediator initWithReadingListModel:featureEngagementTracker:authService:]
-[ShortcutsMediator shortcutItems]
-[ContentSuggestionsMostVisitedActionItem initWithCollectionShortcutType:]
__Z30TitleForCollectionShortcutType25NTPCollectionShortcutType
-[ContentSuggestionsMostVisitedActionItem setTitle:]
-[ContentSuggestionsMostVisitedActionItem updateAccessibilityLabel]
-[ContentSuggestionsMostVisitedActionItem disabled]
-[ContentSuggestionsMostVisitedActionItem collectionShortcutType]
-[ContentSuggestionsMostVisitedActionItem count]
-[ContentSuggestionsMostVisitedActionItem setAccessibilityLabel:]
-[ContentSuggestionsMostVisitedActionItem setCount:]
-[ContentSuggestionsMostVisitedActionItem setDisabled:]
-[ShortcutsMediator shouldShowWhatsNewActionItem]
__Z15WasWhatsNewUsedv
__ZN27IOSTrackerSessionController18ShouldResetSessionEv
-[ShortcutsConfig setShortcutItems:]
-[ShortcutsConfig setConsumerSource:]
-[ShortcutsConfig setCommandHandler:]
__Z36IsIOSMagicStackCollectionViewEnabledv
-[ContentSuggestionsCoordinator contentSuggestionsMetricsRecorder]
-[ShortcutsMediator setContentSuggestionsMetricsRecorder:]
-[ShortcutsMediator setDispatcher:]
-[ContentSuggestionsMediator setShortcutsMediator:]
__ZN17set_up_list_utils17IsSetUpListActiveEP11PrefServiceb
__ZN17set_up_list_prefs19IsSetUpListDisabledEP11PrefService
-[SetUpListMediator .cxx_construct]
-[SetUpListMediator initWithPrefService:syncService:identityManager:authenticationService:sceneState:]
__ZN18SyncObserverBridgeC1EPU34objcproto23SyncObserverModelBridge11objc_objectPN6syncer11SyncServiceE
__ZN18SyncObserverBridgeC2EPU34objcproto23SyncObserverModelBridge11objc_objectPN6syncer11SyncServiceE
__ZN4base17ScopedObservationIN6syncer11SyncServiceENS1_19SyncServiceObserverEEC2EPS3_
__Z29IsIOSTipsNotificationsEnabledv
-[SetUpListMediator checkIfCPEEnabled]
___copy_helper_block_e8_32w40c49_ZTS13scoped_refptrIN4base19SequencedTaskRunnerEE
+[SetUpList buildFromPrefs:localState:syncService:authenticationService:]
__ZN12_GLOBAL__N_19BuildItemE17SetUpListItemTypeP11PrefServiceS2_P21AuthenticationService
__ZN17set_up_list_prefs12GetItemStateEP11PrefService17SetUpListItemType
__ZN17set_up_list_prefs12SetItemStateEP11PrefService17SetUpListItemTypeNS_18SetUpListItemStateE
-[SetUpListItem initWithType:complete:]
__Z42IsContentPushNotificationsSetUpListEnabledv
___73+[SetUpList buildFromPrefs:localState:syncService:authenticationService:]_block_invoke
-[SetUpList .cxx_construct]
-[SetUpList initWithItems:localState:authenticationService:]
-[SetUpList setDelegate:]
-[SetUpListMediator setCommandHandler:]
-[SetUpListMediator setContentSuggestionsMetricsRecorder:]
-[SetUpListMediator setDelegate:]
-[ContentSuggestionsMediator setSetUpListMediator:]
__Z22IsTabResumptionEnabledv
-[TabResumptionMediator .cxx_construct]
-[TabResumptionMediator initWithLocalState:prefService:identityManager:browser:]
__ZN35StartSurfaceRecentTabObserverBridgeC1EPU41objcproto30StartSurfaceRecentTabObserving11objc_object
__ZN33StartSurfaceRecentTabBrowserAgent11AddObserverEP29StartSurfaceRecentTabObserver
__ZN4base12ObserverListI29StartSurfaceRecentTabObserverLb1ELb1ENS_8internal22CheckedObserverAdapterEE11AddObserverEPS1_
__Z42IsTabResumptionEnabledForMostRecentTabOnlyv
-[TabResumptionMediator setNTPMetricsDelegate:]
-[TabResumptionMediator setContentSuggestionsMetricsRecorder:]
-[ParcelTrackingMediator initWithShoppingService:URLLoadingBrowserAgent:]
__ZN4base8internal9BindStateILb0ELb1ELb0EU8__strongU13block_pointerFvbNSt4__Cr10unique_ptrINS2_6vectorIN8commerce20ParcelTrackingStatusENS2_9allocatorIS6_EEEENS2_14default_deleteIS9_EEEEEJEE6CreateISF_JEEEPSG_PFvvEOT_DpOT0_
__ZThn8_N14SessionProtoDBIN18parcel_tracking_db21ParcelTrackingContentEE14LoadAllEntriesEN4base12OnceCallbackIFvbNSt4__Cr6vectorINS5_4pairINS5_12basic_stringIcNS5_11char_traitsIcEENS5_9allocatorIcEEEES1_EENSB_ISE_EEEEEEE
__ZN14SessionProtoDBIN18parcel_tracking_db21ParcelTrackingContentEE14LoadAllEntriesEN4base12OnceCallbackIFvbNSt4__Cr6vectorINS5_4pairINS5_12basic_stringIcNS5_11char_traitsIcEENS5_9allocatorIcEEEES1_EENSB_ISE_EEEEEEE
__ZN4base8internal9BindStateILb1ELb1ELb0EM14SessionProtoDBIN18parcel_tracking_db21ParcelTrackingContentEEFvNS_12OnceCallbackIFvbNSt4__Cr6vectorINS7_4pairINS7_12basic_stringIcNS7_11char_traitsIcEENS7_9allocatorIcEEEES4_EENSD_ISG_EEEEEEEEJNS_7WeakPtrIS5_EESK_EEC2ISM_JSO_SK_EQsr18CancellationTraitsE14is_cancellableEEPFvvEOT_DpOT0_
-[ParcelTrackingMediator setNTPMetricsDelegate:]
__Z30IsSafetyCheckMagicStackEnabledv
-[MagicStackRankingModel initWithSegmentationService:prefService:localState:moduleMediators:]
-[MostVisitedTilesMediator setDelegate:]
-[ShortcutsMediator setDelegate:]
-[SetUpListMediator setAudience:]
-[TabResumptionMediator setDelegate:]
-[TabResumptionMediator fetchLastTabResumptionItem]
__ZN20tab_resumption_prefs23IsTabResumptionDisabledEP11PrefService
__ZN15synced_sessions14SyncedSessionsC1EPN13sync_sessions18SessionSyncServiceE
__ZN15synced_sessions14SyncedSessionsC2EPN13sync_sessions18SessionSyncServiceE
__ZNSt4__Cr11__introsortINS_17_ClassicAlgPolicyERPFbRNS_10unique_ptrIKN15synced_sessions14DistantSessionENS_14default_deleteIS5_EEEES9_EPS8_Lb0EEEvT1_SE_T0_NS_15iterator_traitsISE_E15difference_typeEb
__ZNK19NewTabPageTabHelper22ShouldShowStartSurfaceEv
__ZN15synced_sessions14SyncedSessionsD1Ev
-[ParcelTrackingMediator setDelegate:]
-[MagicStackRankingModel setContentSuggestionsMetricsRecorder:]
-[ContentSuggestionsMediator setMagicStackRankingModel:]
-[ContentSuggestionsViewController init]
-[ContentSuggestionsCoordinator setContentSuggestionsViewController:]
-[ContentSuggestionsCoordinator contentSuggestionsViewController]
-[ContentSuggestionsViewController setAudience:]
-[ContentSuggestionsViewController setUrlLoadingBrowserAgent:]
-[ContentSuggestionsViewController setContentSuggestionsMetricsRecorder:]
-[ContentSuggestionsViewController setLayoutGuideCenter:]
-[ContentSuggestionsViewController setParcelTrackingCommandHandler:]
-[MagicStackRankingModel setConsumer:]
-[ShortcutsMediator setConsumer:]
-[MostVisitedTilesMediator setConsumer:]
-[SetUpListMediator setConsumer:]
-[ContentSuggestionsMediator setConsumer:]
-[ContentSuggestionsMediator configureConsumer]
-[ContentSuggestionsMediator consumer]
-[ContentSuggestionsMediator magicStackRankingModel]
-[MagicStackRankingModel fetchLatestMagicStackRanking]
-[MagicStackRankingModel fetchMagicStackModuleRankingFromSegmentationPlatform]
__ZN4base8internal9flat_treeINSt4__Cr12basic_stringIcNS2_11char_traitsIcEENS2_9allocatorIcEEEENS0_8GetFirstENS2_4lessIvEENS2_6vectorINS2_4pairIS8_N21segmentation_platform10processing14ProcessedValueEEENS6_ISH_EEEEE7emplaceIJRA29_KcSG_EEENSD_INS2_11__wrap_iterIPSH_EEbEEDpOT_
__ZN4base8internal9flat_treeINSt4__Cr12basic_stringIcNS2_11char_traitsIcEENS2_9allocatorIcEEEENS0_8GetFirstENS2_4lessIvEENS2_6vectorINS2_4pairIS8_N21segmentation_platform10processing14ProcessedValueEEENS6_ISH_EEEEE7emplaceIJRA20_KcSG_EEENSD_INS2_11__wrap_iterIPSH_EEbEEDpOT_
__ZN4base8internal9flat_treeINSt4__Cr12basic_stringIcNS2_11char_traitsIcEENS2_9allocatorIcEEEENS0_8GetFirstENS2_4lessIvEENS2_6vectorINS2_4pairIS8_N21segmentation_platform10processing14ProcessedValueEEENS6_ISH_EEEEE7emplaceIJRA23_KcSG_EEENSD_INS2_11__wrap_iterIPSH_EEbEEDpOT_
__ZN4base8internal9flat_treeINSt4__Cr12basic_stringIcNS2_11char_traitsIcEENS2_9allocatorIcEEEENS0_8GetFirstENS2_4lessIvEENS2_6vectorINS2_4pairIS8_N21segmentation_platform10processing14ProcessedValueEEENS6_ISH_EEEEE7emplaceIJRA25_KcSG_EEENSD_INS2_11__wrap_iterIPSH_EEbEEDpOT_
__ZN4base8internal9flat_treeINSt4__Cr12basic_stringIcNS2_11char_traitsIcEENS2_9allocatorIcEEEENS0_8GetFirstENS2_4lessIvEENS2_6vectorINS2_4pairIS8_N21segmentation_platform10processing14ProcessedValueEEENS6_ISH_EEEEE7emplaceIJRA26_KcSG_EEENSD_INS2_11__wrap_iterIPSH_EEbEEDpOT_
__ZN4base8internal9BindStateILb0ELb1ELb0EU8__strongU13block_pointerFvRKN21segmentation_platform20ClassificationResultEEJEE6CreateIS8_JEEEPS9_PFvvEOT_DpOT0_
-[TabResumptionMediator itemConfig]
__Z37ShouldPutMostVisitedSitesInMagicStackv
-[SetUpListMediator shouldShowSetUpList]
-[SetUpListMediator setUpListItems]
-[SetUpList items]
-[SetUpListItem type]
-[SetUpListItem complete]
-[SetUpListItemViewData initWithType:complete:]
-[SetUpListMediator showSetUpList]
-[SetUpListMediator consumer]
-[SetUpListMediator setUpListConfigs]
-[SetUpListMediator allItemsComplete]
-[SetUpList allItemsComplete]
__ZN17set_up_list_utils34ShouldShowCompactedSetUpListModuleEv
__Z34TimeUntilShowingCompactedSetUpListv
-[SetUpListConfig setShouldShowCompactModule:]
-[MagicStackModule setShouldShowSeeMore:]
-[SetUpListConfig setSetUpListConsumerSource:]
-[SetUpListMediator commandHandler]
-[SetUpListConfig setCommandHandler:]
-[SetUpListItemViewData setCompactLayout:]
-[SetUpListItemViewData setHeroCellMagicStackLayout:]
-[SetUpListConfig setSetUpListItems:]
-[ContentSuggestionsViewController showSetUpListModuleWithConfigs:]
-[SetUpListConfig shouldShowCompactModule]
-[MagicStackModuleContainer initWithFrame:]
+[MagicStackModuleContainer fontForTitle]
__Z17CreateDynamicFontP8NSStringd
+[MagicStackModuleContainer fontForSubtitle]
-[MagicStackModuleContainer setDelegate:]
-[MagicStackModuleContainer configureWithConfig:]
-[MagicStackModuleContainer resetCell]
-[SetUpListConfig type]
-[MagicStackModuleContainer allowsLongPress]
+[MagicStackModuleContainer titleStringForModule:]
__ZN19content_suggestions20SetUpListTitleStringEv
+[MagicStackModuleContainer accessibilityIdentifierForModule:]
-[MagicStackModule shouldShowSeeMore]
-[MagicStackModuleContainer shouldShowSubtitle]
-[MagicStackModuleContainer shouldShowSeparator]
-[MagicStackModuleContentsFactory contentViewForConfig:traitCollection:]
-[MagicStackModuleContentsFactory setUpListViewForConfig:]
-[SetUpListConfig setUpListItems]
-[SetUpListItemView .cxx_construct]
-[SetUpListItemView initWithData:]
-[SetUpListItemViewData type]
-[SetUpListItemViewData complete]
-[SetUpListItemViewData compactLayout]
-[SetUpListConfig setUpListConsumerSource]
-[SetUpListMediator addConsumer:]
-[SetUpListConfig commandHandler]
-[SetUpListItemView setCommandHandler:]
-[MultiRowContainerView initWithViews:]
-[SetUpListItemView willMoveToSuperview:]
-[SetUpListItemView createSubviews]
-[SetUpListItemView itemAccessibilityIdentifier]
-[SetUpListItemIcon initWithType:complete:compactLayout:inSquare:]
-[SetUpListItemView createTitle]
-[SetUpListItemView titleText]
-[SetUpListItemView createDescription]
-[CrossfadeLabel .cxx_destruct]
-[SetUpListItemView descriptionText]
-[SetUpListItemIcon willMoveToSuperview:]
-[SetUpListItemIcon createSubviews]
-[SetUpListItemIcon createTypeIcon]
__ZN12_GLOBAL__N_113IconForSymbolEP8NSStringbP7NSArrayIP7UIColorE
-[SetUpListItemIcon createSparkle]
__ZN12_GLOBAL__N_112IconInCircleEP8NSStringbS1_
-[MagicStackModuleContainer updateBottomContentMarginsForConfig:]
-[SetUpListMediator contentSuggestionsMetricsRecorder]
-[ContentSuggestionsMetricsRecorder recordSetUpListShown]
__ZN19set_up_list_metrics15RecordDisplayedEv
-[ContentSuggestionsMetricsRecorder recordSetUpListItemShown:]
__ZN19set_up_list_metrics19RecordItemDisplayedE17SetUpListItemType
__ZN4base23UmaHistogramEnumerationI17SetUpListItemTypeEEvPKcT_
-[MagicStackRankingModel consumer]
-[ShortcutsMediator shortcutsConfig]
-[ContentSuggestionsViewController setShortcutTilesConfig:]
-[ContentSuggestionsViewController shortcutsModuleContainer]
-[ContentSuggestionsViewController setShortcutsModuleContainer:]
-[ShortcutsConfig type]
__Z40ContentSuggestionsTilesHorizontalSpacingP17UITraitCollection
-[MagicStackModuleContentsFactory shortcutsStackViewForConfig:tileSpacing:]
-[ShortcutsConfig shortcutItems]
-[ContentSuggestionsShortcutTileView initWithConfiguration:]
-[ContentSuggestionsShortcutTileView initWithFrame:]
-[ContentSuggestionsTileView initWithFrame:tileType:]
-[ContentSuggestionsShortcutTileView titleLabelFont]
-[ContentSuggestionsTileView updateTitleLabelNumberOfLines]
-[ContentSuggestionsTileView titleLabel]
__Z33ApplyVisualConstraintsWithMetricsP7NSArrayP12NSDictionaryS2_
__Z38VisualConstraintsWithMetricsAndOptionsP7NSArrayP12NSDictionaryS2_m
-[ContentSuggestionsTileView pointerInteraction]
-[ContentSuggestionsTileView imageContainerView]
-[ContentSuggestionsTileView imageBackgroundView]
-[ContentSuggestionsShortcutTileView updateConfiguration:]
-[ContentSuggestionsMostVisitedActionItem title]
-[ContentSuggestionsMostVisitedActionItem accessibilityLabel]
__Z31SymbolForCollectionShortcutType25NTPCollectionShortcutType
-[ContentSuggestionsShortcutTileView iconView]
-[ContentSuggestionsShortcutTileView countContainer]
-[ShortcutsConfig commandHandler]
-[ContentSuggestionsShortcutTileView setTapRecognizer:]
-[ContentSuggestionsViewController hasMagicStackLoaded]
-[ContentSuggestionsMediator mostVisitedTilesMediator]
-[MostVisitedTilesMediator mostVisitedConfig]
-[NewTabPageCoordinator configureFeedMetricsRecorder]
-[NewTabPageCoordinator configureNTPViewController]
-[ContentSuggestionsCoordinator viewController]
-[NewTabPageViewController setContentSuggestionsViewController:]
-[NewTabPageViewController setFeedVisible:]
-[NewTabPageComponentFactory feedWrapperViewControllerWithDelegate:feedViewController:]
-[FeedWrapperViewController initWithDelegate:feedViewController:]
-[NewTabPageCoordinator setFeedWrapperViewController:]
-[NewTabPageCoordinator feedWrapperViewController]
-[NewTabPageViewController setFeedWrapperViewController:]
-[NewTabPageViewController setOverscrollDelegate:]
-[NewTabPageViewController setNTPContentDelegate:]
-[NewTabPageViewController setHeaderViewController:]
-[NewTabPageCoordinator configureMainViewControllerUsing:]
-[NewTabPageCoordinator containerViewController]
-[NewTabPageViewController viewDidLoad]
-[NewTabPageViewController feedWrapperViewController]
-[NewTabPageViewController contentSuggestionsViewController]
-[FeedWrapperViewController viewDidLoad]
-[FeedWrapperViewController feedViewController]
-[FeedWrapperViewController configureEmptyCollectionAsWrapper]
-[FeedWrapperViewController setContentCollectionView:]
-[FeedWrapperViewController contentCollectionView]
-[ContentSuggestionsViewController viewDidLoad]
-[ContentSuggestionsViewController setDragDropHandler:]
-[ContentSuggestionsViewController dragDropHandler]
-[URLDragDropHandler setDropDelegate:]
-[ContentSuggestionsViewController setVerticalStackView:]
-[ContentSuggestionsViewController verticalStackView]
__ZN19content_suggestions19HeaderBottomPaddingEv
-[ContentSuggestionsViewController createMagicStack]
-[ContentSuggestionsViewController addUIElement:withCustomBottomSpacing:]
-[ContentSuggestionsViewController updateMagicStackMasking]
-[ContentSuggestionsViewController magicStackPeekInset]
-[ContentSuggestionsViewController shouldMaskMagicStack]
__Z11IsLandscapeP8UIWindow
-[ContentSuggestionsViewController layoutGuideCenter]
-[ContentSuggestionsViewController populateMagicStackWithPlaceholders]
-[PlaceholderConfig type]
-[GradientView initWithTopColor:bottomColor:]
-[GradientView initWithStartColor:endColor:startPoint:endPoint:]
+[GradientView layerClass]
-[GradientView setStartColor:]
-[GradientView setEndColor:]
-[GradientView gradientLayer]
-[GradientView updateColors]
-[GradientView startColor]
-[GradientView endColor]
-[NewTabPageViewController updateModularHomeBackgroundColorForUserInterfaceStyle:]
-[NewTabPageViewController registerNotifications]
-[NewTabPageViewController layoutContentInParentCollectionView]
-[NewTabPageViewController collectionView]
-[NewTabPageViewController isFeedVisible]
-[NewTabPageViewController feedTopSectionViewController]
-[NewTabPageViewController feedHeaderViewController]
-[NewTabPageViewController addViewControllerAboveFeed:]
-[FeedHeaderViewController viewDidLoad]
-[FeedHeaderViewController setContainer:]
-[FeedHeaderViewController container]
-[FeedHeaderViewController menuButton]
-[FeedHeaderViewController configureMenuButton:]
-[FeedHeaderViewController feedControlDelegate]
-[FeedHeaderViewController configureHeaderViews]
-[FeedHeaderViewController createTitleLabel]
-[FeedHeaderViewController fontForTitle]
__ZN8ntp_home34DiscoverHeaderTitleAccessibilityIDEv
-[FeedHeaderViewController feedHeaderTitleText]
-[FeedHeaderViewController NTPDelegate]
-[FeedHeaderViewController setTitleLabel:]
-[FeedHeaderViewController titleLabel]
-[FeedHeaderViewController applyHeaderConstraints]
-[FeedHeaderViewController feedHeaderConstraints]
-[FeedHeaderViewController setFeedHeaderConstraints:]
-[FeedHeaderViewController feedHeaderHeight]
-[FeedHeaderViewController customSearchEngineViewHeight]
__Z24IsFeedContainmentEnabledv
-[NewTabPageViewController viewControllersAboveFeed]
-[NewTabPageViewController headerViewController]
-[NewTabPageHeaderViewController viewDidLoad]
-[NewTabPageHeaderView initWithUseNewBadgeForLensButton:]
-[NewTabPageHeaderViewController setHeaderView:]
-[NewTabPageHeaderViewController isGoogleDefaultSearchEngine]
-[NewTabPageHeaderView setIsGoogleDefaultSearchEngine:]
-[NewTabPageHeaderViewController addFakeOmnibox]
-[NewTabPageHeaderViewController setFakeOmnibox:]
__ZN8ntp_home26FakeOmniboxAccessibilityIDEv
-[NewTabPageHeaderViewController setAccessibilityButton:]
-[NewTabPageHeaderViewController accessibilityButton]
__ZN19content_suggestions17FakeOmniboxHeightEv
-[NewTabPageHeaderView addViewsToSearchField:]
-[NewTabPageHeaderView setFakeToolbar:]
-[NewTabPageHeaderView fakeToolbar]
-[NewTabPageHeaderView fakeLocationBar]
-[NewTabPageHeaderView setOmnibox:]
-[NewTabPageHeaderView setCancelButton:]
-[NewTabPageHeaderView cancelButton]
-[NewTabPageHeaderView setSearchHintLabel:]
-[NewTabPageHeaderView searchHintLabel]
__ZN19content_suggestions24ConfigureSearchHintLabelEP7UILabelP6UIView
-[NewTabPageHeaderView updateHintLabelFonts]
-[NewTabPageHeaderView hintLabelFontForPercent:]
-[NewTabPageHeaderView setHintLabelLeadingMarginConstraint:]
-[NewTabPageHeaderView hintLabelLeadingMarginConstraint]
-[NewTabPageHeaderView setHintLabelLeadingConstraint:]
-[NewTabPageHeaderView hintLabelLeadingConstraint]
-[NewTabPageHeaderView setVoiceSearchButton:]
-[NewTabPageHeaderView voiceSearchButton]
-[NewTabPageHeaderView isGoogleDefaultSearchEngine]
__ZN4base23UmaHistogramEnumerationI17LensSupportStatusEEvPKcT_
-[NewTabPageHeaderView updateButtonsForUserInterfaceStyle:]
__ZN19content_suggestions26ConfigureVoiceSearchButtonEP8UIButtonb
_MakeSymbolMonochrome
-[NewTabPageHeaderView lensButton]
-[NewTabPageHeaderView setFakeLocationBarTopConstraint:]
-[NewTabPageHeaderView setFakeLocationBarLeadingConstraint:]
-[NewTabPageHeaderView setFakeLocationBarTrailingConstraint:]
-[NewTabPageHeaderView setFakeLocationBarHeightConstraint:]
-[NewTabPageHeaderView fakeLocationBarTopConstraint]
-[NewTabPageHeaderView fakeLocationBarLeadingConstraint]
-[NewTabPageHeaderView fakeLocationBarTrailingConstraint]
-[NewTabPageHeaderView fakeLocationBarHeightConstraint]
-[NewTabPageHeaderView setEndButtonTrailingMarginConstraint:]
-[NewTabPageHeaderView endButtonTrailingMarginConstraint]
-[NewTabPageHeaderView setEndButtonTrailingConstraint:]
-[NewTabPageHeaderView setHintLabelTrailingConstraint:]
-[NewTabPageHeaderView hintLabelTrailingConstraint]
-[NewTabPageHeaderView endButtonTrailingConstraint]
-[ToolbarButtonFactory .cxx_destruct]
-[NewTabPageHeaderViewController updateVoiceSearchDisplay]
-[NewTabPageHeaderViewController voiceSearchIsEnabled]
-[ChromiumLogoController view]
-[NewTabPageHeaderViewController addFakeTapView]
-[NewTabPageHeaderViewController setFakeTapButton:]
-[NewTabPageHeaderViewController fakeTapButton]
-[NewTabPageHeaderView addToolbarView:]
__ZN19content_suggestions17FakeToolbarHeightEv
___48-[NewTabPageHeaderViewController addFakeOmnibox]_block_invoke
__ZN8ntp_home22NTPLogoAccessibilityIDEv
-[NewTabPageHeaderView addSeparatorToSearchField:]
-[NewTabPageHeaderView setSeparator:]
-[NewTabPageHeaderView separator]
__ZN19content_suggestions21HeaderSeparatorHeightEv
-[NewTabPageHeaderViewController addIdentityDisc]
-[NewTabPageHeaderViewController setIdentityDiscButton:]
-[NewTabPageHeaderViewController commandHandler]
-[NewTabPageHeaderViewController identityDiscImage]
-[NewTabPageHeaderViewController updateIdentityDiscState]
-[NewTabPageHeaderViewController identityDiscAccessibilityLabel]
-[NewTabPageHeaderView setIdentityDiscView:]
-[NewTabPageHeaderView toolBarView]
-[NewTabPageHeaderView identityDiscView]
-[NewTabPageHeaderViewController baseViewController]
__ZN19content_suggestions16SearchFieldWidthEdP17UITraitCollection
__Z14IsCompactWidthP17UITraitCollection
-[NewTabPageHeaderViewController setFakeOmniboxWidthConstraint:]
-[NewTabPageHeaderViewController addConstraintsForLogoView:fakeOmnibox:andHeaderView:]
-[NewTabPageHeaderViewController setDoodleTopMarginConstraint:]
-[NewTabPageHeaderViewController setDoodleHeightConstraint:]
-[NewTabPageHeaderViewController setFakeOmniboxHeightConstraint:]
__ZN19content_suggestions20SearchFieldTopMarginEv
-[NewTabPageHeaderViewController setFakeOmniboxTopMarginConstraint:]
-[NewTabPageHeaderViewController headerHeight]
-[NewTabPageHeaderViewController setHeaderViewHeightConstraint:]
-[NewTabPageHeaderViewController fakeOmniboxWidthConstraint]
-[NewTabPageHeaderViewController fakeOmniboxHeightConstraint]
-[NewTabPageHeaderViewController fakeOmniboxTopMarginConstraint]
-[ChromiumLogoController fetchDoodle]
-[NewTabPageViewController containerView]
-[NewTabPageViewController overscrollActionsController]
-[NewTabPageViewController applyCollectionViewConstraints]
-[NewTabPageViewController cleanUpCollectionViewConstraints]
-[NewTabPageViewController moduleLayoutGuide]
-[NewTabPageViewController updateModuleWidth]
-[NewTabPageViewController viewWillLayoutSubviews]
-[ContentSuggestionsViewController moduleWidthDidUpdate]
-[ContentSuggestionsViewController snapToNearestMagicStackModule]
-[ContentSuggestionsViewController magicStackModuleWidth]
-[ContentSuggestionsViewController peekOffsetForMagicStackPage:]
-[NewTabPageViewController setInitialFeedHeaderConstraints]
-[NewTabPageViewController feedHeaderConstraints]
-[NewTabPageViewController setFeedHeaderConstraints:]
-[FeedHeaderViewController toggleBackgroundBlur:animated:]
-[NewTabPageViewController setInitialFakeOmniboxConstraints]
-[NewTabPageViewController fakeOmniboxConstraints]
-[NewTabPageViewController setFakeOmniboxConstraints:]
-[NewTabPageViewController setMinimumHeight]
-[NewTabPageViewController minimumNTPHeight]
-[NewTabPageViewController stickyOmniboxHeight]
-[NewTabPageViewController heightAboveFeed]
-[NewTabPageViewController updateAccessibilityElements]
-[NewTabPageViewController setIdentityDiscButton:]
-[NewTabPageViewController identityDiscButton]
-[NewTabPageViewController setViewDidFinishLoading:]
-[NewTabPageCoordinator setContainedViewController:]
-[NewTabPageViewController setFeedMetricsRecorder:]
-[NewTabPageCoordinator bubblePresenter]
-[NewTabPageViewController setBubblePresenter:]
-[NewTabPageViewController setMutator:]
-[NewTabPageCoordinator setStarted:]
-[NewTabPageCoordinator didNavigateToNTPInWebState:]
-[NewTabPageCoordinator restoreNTPState]
-[NewTabPageMediator restoreNTPStateForWebState:]
-[NewTabPageMediator feedControlDelegate]
-[NewTabPageState shouldScrollToTopOfFeed]
-[NewTabPageMediator consumer]
-[NewTabPageState scrollPosition]
-[NewTabPageViewController restoreScrollPosition:]
-[NewTabPageViewController setContentOffsetToTop]
-[NewTabPageViewController omniboxFocused]
-[NewTabPageViewController setContentOffset:]
-[NewTabPageViewController scrollViewDidScroll:]
-[NewTabPageViewController updateFakeOmniboxForScrollPosition]
-[NewTabPageViewController shouldAnimateHeader]
-[NewTabPageViewController adjustedOffset]
-[NewTabPageViewController disableScrollAnimation]
-[NewTabPageHeaderViewController updateFakeOmniboxForOffset:screenWidth:safeAreaInsets:animateScrollAnimation:]
-[NewTabPageHeaderViewController isShowing]
-[NewTabPageHeaderView updateSearchFieldWidth:height:topMargin:forOffset:screenWidth:safeAreaInsets:]
-[NewTabPageHeaderView searchFieldProgressForOffset:]
-[NewTabPageHeaderView offsetToBeginFakeOmniboxExpansion]
-[NewTabPageHeaderView setFakeboxBackgroundWithProgress:]
__ZN12_GLOBAL__N_111BlendColorsEP7UIColorS1_d
-[GradientView setStartColor:endColor:]
-[NewTabPageHeaderView scaleHintLabelForPercent:]
__ZN19content_suggestions23PinnedFakeOmniboxHeightEv
-[NewTabPageViewController updateScrolledToMinimumHeight]
-[NewTabPageViewController scrollPosition]
-[NewTabPageViewController pinnedOffsetY]
-[NewTabPageHeaderViewController pinnedOffsetY]
-[NewTabPageViewController setScrolledToMinimumHeight:]
-[NewTabPageViewController handleStickyElementsForScrollPosition:force:]
-[NewTabPageViewController offsetToStickOmnibox]
-[NewTabPageViewController shouldPinFakeOmnibox]
-[NewTabPageViewController isFakeboxPinned]
-[NewTabPageViewController NTPContentDelegate]
-[NewTabPageCoordinator isContentHeaderSticky]
-[NewTabPageViewController isNTPScrolledToTop]
-[NewTabPageViewController viewDidAppear]
-[NewTabPageViewController updateScrollPositionToSave]
-[NewTabPageViewController inhibitScrollPositionUpdates]
-[NewTabPageViewController collectionShiftingOffset]
-[NewTabPageViewController mutator]
-[NewTabPageMediator setScrollPositionToSave:]
-[NewTabPageViewController offsetWhenScrolledIntoFeed]
-[NewTabPageViewController feedHeaderHeight]
-[NewTabPageViewController setScrolledIntoFeed:]
-[NewTabPageViewController resetFakeOmniboxConstraints]
-[NewTabPageViewController setIsFakeboxPinned:]
-[NewTabPageViewController isScrolledIntoFeed]
-[NewTabPageViewController setHasSavedOffsetFromPreviousScrollState:]
-[NewTabPageCoordinator refreshNTPContent]
-[ContentSuggestionsCoordinator refresh]
-[MostVisitedTilesMediator refreshMostVisitedTiles]
__ZN3ios8provider12_GLOBAL__N_127ChromiumDiscoverFeedService11RefreshFeedE18FeedRefreshTrigger
-[NewTabPageCoordinator updateNTPIsVisible:]
-[NewTabPageCoordinator visible]
-[NewTabPageCoordinator setVisible:]
-[NewTabPageCoordinator setDidAppearTime:]
-[NewTabPageCoordinator isStartSurface]
-[NewTabPageMetricsRecorder recordHomeImpression:isStartSurface:]
-[NewTabPageCoordinator updateStartForVisibilityChange:]
-[ToolbarCoordinator didNavigateToNTPOnActiveWebState]
-[ToolbarMediator didNavigateToNTPOnActiveWebState]
-[TabEventsMediator consumer]
-[BrowserViewController webStateSelected]
-[BrowserViewController isVisible]
-[ARQuickLookCoordinator installDependencyForWebState:]
__ZN3web20LazyWebStateUserDataI20ARQuickLookTabHelperE22GetOrCreateForWebStateIJEEEPS1_PNS_8WebStateEDpOT_
__ZN20ARQuickLookTabHelperC1EPN3web8WebStateE
__ZN20ARQuickLookTabHelperC2EPN3web8WebStateE
-[SafariDownloadCoordinator installDependencyForWebState:]
-[VcardCoordinator installDependencyForWebState:]
-[SadTabCoordinator installDependencyForWebState:]
__ZN15SadTabTabHelper11SetDelegateEPU34objcproto23SadTabTabHelperDelegate11objc_object
-[SafeBrowsingCoordinator didChangeWebStateList:change:status:]
__ZN21SafeBrowsingTabHelper11SetDelegateEPU40objcproto29SafeBrowsingTabHelperDelegate11objc_object
-[TextFragmentsCoordinator installDependencyForWebState:]
-[TextFragmentsCoordinator mediator]
-[TextFragmentsMediator registerWithWebState:]
__ZN3web24TextFragmentsManagerImpl16RegisterDelegateEPU32objcproto21TextFragmentsDelegate11objc_object
-[FormObserverHelper didChangeWebStateList:change:status:]
-[FormObserverHelper setWebState:]
-[FormInputAccessoryMediator didChangeWebStateList:change:status:]
-[FormInputAccessoryMediator reset]
__ZN8autofill18FormActivityParamsaSERKS0_
__ZN8autofill18FormActivityParamsD1Ev
__ZN8autofill18FormActivityParamsD2Ev
-[FormInputAccessoryViewController showAccessorySuggestions:]
-[FormInputAccessoryViewController createFormSuggestionViewIfNeeded]
-[FormInputAccessoryViewController formSuggestionView]
-[FormInputAccessoryViewController setFormSuggestionView:]
-[FormSuggestionView setFormSuggestionViewDelegate:]
-[FormInputAccessoryViewController layoutGuideCenter]
-[FormSuggestionView setLayoutGuideCenter:]
-[FormInputAccessoryViewController showScrollHint]
-[FormSuggestionView updateSuggestions:showScrollHint:accessoryTrailingView:completion:]
-[FormSuggestionView suggestions]
-[FormSuggestionView setSuggestions:]
-[FormSuggestionView stackView]
___61-[FormInputAccessoryViewController showAccessorySuggestions:]_block_invoke
-[FormInputAccessoryViewController announceVoiceOverMessageIfNeeded:]
-[FormInputAccessoryViewController setLastAnnouncedFieldId:]
-[FormInputAccessoryMediator handler]
-[FormInputAccessoryCoordinator resetFormInputView]
-[FormInputAccessoryCoordinator reset]
-[FormInputAccessoryCoordinator stopChildren]
-[ChromeCoordinator childCoordinators]
-[FormInputAccessoryCoordinator resetInputViews]
-[FormInputAccessoryMediator enableSuggestions]
-[FormInputAccessoryMediator setSuggestionsDisabled:]
-[FormInputAccessoryMediator updateSuggestionsIfNeeded]
-[FormInputAccessoryViewController reset]
-[FormInputAccessoryViewController resetAnimated:]
-[FormSuggestionView resetContentInsetAndDelegateAnimated:]
___59-[FormSuggestionView resetContentInsetAndDelegateAnimated:]_block_invoke
-[ManualFillAccessoryViewController resetAnimated:]
___51-[ManualFillAccessoryViewController resetAnimated:]_block_invoke
-[ManualFillAccessoryViewController resetIcons]
-[FormInputAccessoryCoordinator setFormInputViewController:]
__Z17GetFirstResponderv
__Z24GetFirstResponderSubviewP6UIView
-[FormInputAccessoryMediator setCurrentProvider:]
-[FormInputAccessoryMediator updateWithNewWebState:]
-[FormInputAccessoryMediator detachFromWebState]
-[FormInputAccessoryMediator setWebState:]
__ZN8autofill33AutofillBottomSheetObserverBridgeC1EPU39objcproto28AutofillBottomSheetObserving11objc_objectP28AutofillBottomSheetTabHelper
__ZN4base17ScopedObservationI28AutofillBottomSheetTabHelperN8autofill27AutofillBottomSheetObserverEEC2EPS3_
__ZN4base17ScopedObservationI28AutofillBottomSheetTabHelperN8autofill27AutofillBottomSheetObserverEE7ObserveEPS1_
__ZN28AutofillBottomSheetTabHelper11AddObserverEPN8autofill27AutofillBottomSheetObserverE
__ZN4base12ObserverListIN8autofill27AutofillBottomSheetObserverELb0ELb1ENS_8internal24UncheckedObserverAdapterILN15partition_alloc8internal12RawPtrTraitsE0EEEE11AddObserverEPS2_
__ZN23FormSuggestionTabHelper24GetAccessoryViewProviderEv
-[FormInputAccessoryMediator setProvider:]
__ZThn8_N30AccountConsistencyBrowserAgent17InstallDependencyEPN3web8WebStateE
__ZN30AccountConsistencyBrowserAgent17InstallDependencyEPN3web8WebStateE
__ZN25AccountConsistencyService18SetWebStateHandlerEPN3web8WebStateEP22ManageAccountsDelegate
__ZN25AccountConsistencyService25AccountConsistencyHandlerC2EPN3web8WebStateEPS_P17AccountReconcilorPN6signin15IdentityManagerEP22ManageAccountsDelegate
__ZNSt4__Cr6__treeINS_12__value_typeIPN3web8WebStateENS_10unique_ptrIN25AccountConsistencyService25AccountConsistencyHandlerENS_14default_deleteIS7_EEEEEENS_19__map_value_compareIS4_SB_NS_4lessIS4_EELb1EEENS_9allocatorISB_EEE25__emplace_unique_key_argsIS4_JNS_4pairIS4_SA_EEEEENSK_INS_15__tree_iteratorISB_PNS_11__tree_nodeISB_PvEElEEbEERKT_DpOT0_
__ZThn8_N30TextToSpeechPlaybackController21WebStateListDidChangeEP12WebStateListRK18WebStateListChangeRK18WebStateListStatus
__ZN30TextToSpeechPlaybackController21WebStateListDidChangeEP12WebStateListRK18WebStateListChangeRK18WebStateListStatus
__ZN18WebStateListStatusD2Ev
__ZN24WebStateListChangeInsertD2Ev
__ZN15OrderControllerD1Ev
__ZN15OrderControllerD2Ev
__ZN12WebStateList15InsertionParamsD2Ev
__ZNK12_GLOBAL__N_120DeserializeFromProto17GetOpenerForTabAtEi
__ZN12WebStateList20ScopedBatchOperationD1Ev
__ZN12WebStateList20ScopedBatchOperationD2Ev
__ZN20WebStateListObserver19BatchOperationEndedEP12WebStateList
__ZThn24_N20SnapshotBrowserAgent19BatchOperationEndedEP12WebStateList
__ZNK12WebStateList13GetWebStateAtEi
__ZN32IOSChromeLocalSessionEventRouter8Observer19BatchOperationEndedEP12WebStateList
__ZN32IOSChromeLocalSessionEventRouter19OnSessionEventEndedEv
__ZNO4base17RepeatingCallbackIFvN6syncer9ModelTypeEEE3RunES2_
__ZN4base8internal7InvokerINS0_13FunctorTraitsIRKPFvRKNS_8FilePathEN6syncer9ModelTypeEEJS5_EEENS0_9BindStateILb0ELb1ELb0ES9_JS3_EEEFvS7_EE3RunEPNS0_13BindStateBaseES7_
__ZN3ios12_GLOBAL__N_114StartSyncProxyERKN4base8FilePathEN6syncer9ModelTypeE
__ZN4base8internal9BindStateILb0ELb1ELb0EPFvRKNS_8FilePathEN6syncer9ModelTypeEEJS2_S6_EEC2IS8_JS4_RS6_EQntsr18CancellationTraitsE14is_cancellableEEPFvvEOT_DpOT0_
__ZN4base8internal9BindStateILb0ELb1ELb0EPFvRKNS_8FilePathEN6syncer9ModelTypeEEJS2_EE7DestroyEPKNS0_13BindStateBaseE
__ZN26WebStateListObserverBridge19BatchOperationEndedEP12WebStateList
__ZN38SessionRestorationWebStateListObserver19BatchOperationEndedEP12WebStateList
-[AdaptiveToolbarMediator webStateListBatchOperationEnded:]
-[ToolbarTabGridButton setTabCount:]
__Z15TextForTabCountid
-[ToolbarTabGridButton tabCountLabel]
___63-[AdaptiveToolbarViewController setTabCount:addedInBackground:]_block_invoke
___63-[AdaptiveToolbarViewController setTabCount:addedInBackground:]_block_invoke_2
___63-[AdaptiveToolbarViewController setTabCount:addedInBackground:]_block_invoke.123
__ZN4base8internal9BindStateILb0ELb1ELb0EPFNSt4__Cr10unique_ptrIN3web8WebStateENS2_14default_deleteIS5_EEEERKNS_8FilePathEP18ChromeBrowserStateNS4_10WebStateIDENS4_5proto23WebStateMetadataStorageEEJS9_NS0_17UnretainedWrapperISC_NS_17unretained_traits12MayNotDangleELN15partition_alloc8internal12RawPtrTraitsE0EEEEE7DestroyEPKNS0_13BindStateBaseE
__ZN4base8internal9BindStateILb0ELb1ELb0EPFNSt4__Cr10unique_ptrIN3web8WebStateENS2_14default_deleteIS5_EEEERKNS_8FilePathEP18ChromeBrowserStateNS4_10WebStateIDENS4_5proto23WebStateMetadataStorageEEJS9_NS0_17UnretainedWrapperISC_NS_17unretained_traits12MayNotDangleELN15partition_alloc8internal12RawPtrTraitsE0EEEEED2Ev
__ZN38SessionRestorationWebStateListObserver10ClearDirtyEv
__ZNSt4__Cr6__treeIPN3web8WebStateENS_4lessIS3_EENS_9allocatorIS3_EEE7destroyEPNS_11__tree_nodeIS3_PvEE
__ZNSt4__Cr6__treeIP12WebStateListNS_4lessIS2_EENS_9allocatorIS2_EEE14__erase_uniqueIS2_EEmRKT_
__ZN4base8internal9BindStateILb1ELb1ELb0EM29SessionRestorationServiceImplFvvEJNS0_17UnretainedWrapperIS2_NS_17unretained_traits12MayNotDangleELN15partition_alloc8internal12RawPtrTraitsE0EEEEE7DestroyEPKNS0_13BindStateBaseE
__ZN4base8internal9BindStateILb1ELb1ELb0EM29SessionRestorationServiceImplFvvEJNS0_17UnretainedWrapperIS2_NS_17unretained_traits12MayNotDangleELN15partition_alloc8internal12RawPtrTraitsE0EEEEED2Ev
__ZThn48_N31WebStateListMetricsBrowserAgent26SessionRestorationFinishedEP7BrowserRKNSt4__Cr6vectorIPN3web8WebStateENS2_9allocatorIS6_EEEE
__ZThn80_N28TabUsageRecorderBrowserAgent26SessionRestorationFinishedEP7BrowserRKNSt4__Cr6vectorIPN3web8WebStateENS2_9allocatorIS6_EEEE
__ZN28TabUsageRecorderBrowserAgent26SessionRestorationFinishedEP7BrowserRKNSt4__Cr6vectorIPN3web8WebStateENS2_9allocatorIS6_EEEE
__ZThn8_N27PagePlaceholderBrowserAgent26SessionRestorationFinishedEP7BrowserRKNSt4__Cr6vectorIPN3web8WebStateENS2_9allocatorIS6_EEEE
__ZThn8_N19FaviconBrowserAgent26SessionRestorationFinishedEP7BrowserRKNSt4__Cr6vectorIPN3web8WebStateENS2_9allocatorIS6_EEEE
__ZN17FaviconClientImpl33GetFaviconForNativeApplicationURLERK4GURLRKNSt4__Cr6vectorIiNS3_9allocatorIiEEEEN4base12OnceCallbackIFvRKNS4_IN12favicon_base22FaviconRawBitmapResultENS5_ISD_EEEEEEEPNSA_21CancelableTaskTrackerE
__ZN4base8internal9BindStateILb0ELb1ELb1ENS_12OnceCallbackIFvRKNSt4__Cr6vectorIN12favicon_base22FaviconRawBitmapResultENS3_9allocatorIS6_EEEEEEEJS9_EEC2ISD_JS9_EQsr18CancellationTraitsE14is_cancellableEEPFvvEOT_DpOT0_
__ZN21segmentation_platform19OTRWebStateObserver16WebStateObserver19BatchOperationEndedEP12WebStateList
__ZNSt4__Cr6__treeIP7BrowserNS_4lessIS2_EENS_9allocatorIS2_EEE30__emplace_hint_unique_key_argsIS2_JRKS2_EEENS_4pairINS_15__tree_iteratorIS2_PNS_11__tree_nodeIS2_PvEElEEbEENS_21__tree_const_iteratorIS2_SG_lEERKT_DpOT0_
__ZNSt4__Cr6__treeIP7BrowserNS_4lessIS2_EENS_9allocatorIS2_EEE12__find_equalIS2_EERPNS_16__tree_node_baseIPvEENS_21__tree_const_iteratorIS2_PNS_11__tree_nodeIS2_SA_EElEERPNS_15__tree_end_nodeISC_EESD_RKT_
__ZN4base12ObserverListIN21segmentation_platform19OTRWebStateObserver14ObserverClientELb1ELb1ENS_8internal22CheckedObserverAdapterEE4IterC2EPKS6_
__ZN4base8internal12WeakLinkNodeINS_12ObserverListIN21segmentation_platform19OTRWebStateObserver14ObserverClientELb1ELb1ENS0_22CheckedObserverAdapterEEEE7SetListEPS7_
__ZN4base12ObserverListIN21segmentation_platform19OTRWebStateObserver14ObserverClientELb1ELb1ENS_8internal22CheckedObserverAdapterEE4Iter16EnsureValidIndexEv
__ZNK4base12ObserverListIN21segmentation_platform19OTRWebStateObserver14ObserverClientELb1ELb1ENS_8internal22CheckedObserverAdapterEE4Iter10GetCurrentEv
__ZN4base12ObserverListIN21segmentation_platform19OTRWebStateObserver14ObserverClientELb1ELb1ENS_8internal22CheckedObserverAdapterEE7CompactEv
__ZNSt4__Cr9remove_ifINS_11__wrap_iterIPN4base8internal22CheckedObserverAdapterEEEZNS2_12ObserverListIN21segmentation_platform19OTRWebStateObserver14ObserverClientELb1ELb1ES4_E7CompactEvEUlRKT_E_EESC_SC_SC_T0_
__Z21IsInactiveTabsEnabledv
__Z37IsInactiveTabsExplictlyDisabledByUserv
__Z28MoveTabsFromInactiveToActiveP7BrowserS0_
__Z25InactiveTabsTimeThresholdv
__ZN12_GLOBAL__N_125MoveTabsAccordingToPolicyEP7BrowserS1_NS_10MovePolicyEPKc
__ZNSt4__Cr6vectorIN3web10WebStateIDENS_9allocatorIS2_EEE21__push_back_slow_pathIS2_EEPS2_OT_
__ZNSt4__Cr11__introsortINS_17_ClassicAlgPolicyERNS_6__lessIvvEEPN3web10WebStateIDELb0EEEvT1_S8_T0_NS_15iterator_traitsIS8_E15difference_typeEb
__Z28MoveTabsFromActiveToInactiveP7BrowserS0_
-[SceneController initialUIMode]
-[SceneController isIncognitoForced]
__Z21IsIncognitoModeForcedP11PrefService
-[SceneController isIncognitoDisabled]
-[SceneState connectionOptions]
-[SceneController createInitialUI:]
__ZN22UrlLoadingBrowserAgent15SetSceneServiceEP22SceneUrlLoadingService
__ZN4base17ScopedObservationI12WebStateList26WebStateListObserverBridgeEC2EPS2_
__ZN4base17ScopedObservationI12WebStateList26WebStateListObserverBridgeE7ObserveEPS1_
-[SceneController mainCoordinator]
-[TabGridCoordinator .cxx_construct]
-[WrangledBrowser inactiveBrowser]
-[TabGridCoordinator initWithWindow:applicationCommandEndpoint:browsingDataCommandEndpoint:regularBrowser:inactiveBrowser:incognitoBrowser:]
-[TabGridCoordinator setDelegate:]
-[TabGridCoordinator start]
-[TabGridCoordinator regularBrowser]
-[TabGridMediator .cxx_construct]
-[TabGridMediator initWithPrefService:featureEngagementTracker:]
-[TabGridCoordinator dispatcher]
-[TabGridViewController .cxx_construct]
-[TabGridViewController initWithPageConfiguration:]
-[RecentTabsTableViewController .cxx_construct]
-[RecentTabsTableViewController init]
__Z20ChromeTableViewStylev
__Z13IsSmallDevicev
-[LegacyChromeTableViewController initWithStyle:]
-[ChromeTableViewStyler init]
__ZN15synced_sessions14SyncedSessionsC1Ev
-[TabGridViewController setHandler:]
-[TabGridViewController setTabPresentationDelegate:]
____ZN12_GLOBAL__N_114SharedInstanceEv_block_invoke
-[TabGridViewController setLayoutGuideCenter:]
-[TabGridViewController setDelegate:]
-[TabGridViewController setMutator:]
-[TabGridViewController setProvider:]
-[TabGridMediator setConsumer:]
-[TabGridViewController updateParentalControlStatus:]
-[TabGridCoordinator baseViewController]
-[TabGridToolbarsCoordinator setSearchDelegate:]
-[TabGridToolbarsCoordinator setToolbarTabGridDelegate:]
-[TabGridToolbarsCoordinator start]
-[TabGridToolbarsCoordinator setupTopToolbar]
-[TabGridTopToolbar initWithFrame:]
-[TabGridTopToolbar setupViews]
-[TabGridTopToolbar createScrolledBackgrounds]
__Z34CreateTabGridOverContentBackgroundv
__Z37CreateTabGridScrolledToEdgeBackgroundv
-[TabGridTopToolbar useUndoCloseAll:]
-[TabGridPageControl init]
-[TabGridPageControl setupViews]
-[TabGridPageControl setScrolledToEdge:]
-[TabGridPageControl setBackground:]
-[TabGridPageControl setIncognitoGuide:]
-[TabGridPageControl setRegularGuide:]
-[TabGridPageControl setRemoteGuide:]
-[TabGridPageControl newSeparator]
-[TabGridPageControl setFirstSeparator:]
-[TabGridPageControl setSecondSeparator:]
-[TabGridPageControl setSliderView:]
-[TabGridPageControl sliderView]
-[TabGridPageControl setSelectedImageView:]
-[TabGridPageControl addTabsIcon:]
-[TabGridPageControl setRegularSelectedIcon:]
-[TabGridPageControl setRegularNotSelectedIcon:]
-[TabGridPageControl selectedImageView]
-[TabGridPageControl setIncognitoSelectedIcon:]
-[TabGridPageControl setIncognitoNotSelectedIcon:]
-[TabGridPageControl setRemoteSelectedIcon:]
-[TabGridPageControl setRemoteNotSelectedIcon:]
-[TabGridPageControl labelSelected:]
-[TabGridPageControl setRegularLabel:]
-[TabGridPageControl setRegularSelectedLabel:]
-[TabGridPageControl configureHoverView]
-[TabGridPageControl setIncognitoHoverView:]
-[TabGridPageControl setRegularHoverView:]
-[TabGridPageControl setRemoteHoverView:]
-[TabGridPageControl setRegularTabCount:]
-[TabGridPageControl updateRegularLabels]
-[TabGridPageControl regularTabCount]
-[TabGridPageControl pinnedTabCount]
-[TabGridPageControl regularLabel]
-[TabGridPageControl regularSelectedLabel]
-[TabGridPageControl layoutSubviews]
-[TabGridPageControl updateAccessibilityFrames]
-[TabGridPageControl incognitoGuide]
-[TabGridPageControl regularGuide]
-[TabGridPageControl remoteGuide]
-[TabGridPageControl centerOfSegment:]
-[TabGridPageControl incognitoNotSelectedIcon]
-[TabGridPageControl incognitoSelectedIcon]
-[TabGridPageControl regularNotSelectedIcon]
-[TabGridPageControl regularSelectedIcon]
-[TabGridPageControl remoteNotSelectedIcon]
-[TabGridPageControl remoteSelectedIcon]
-[TabGridPageControl incognitoHoverView]
-[TabGridPageControl regularHoverView]
-[TabGridPageControl remoteHoverView]
-[TabGridPageControl setSliderOrigin:]
-[TabGridPageControl sliderOrigin]
-[TabGridPageControl setSliderRange:]
-[TabGridPageControl setSliderPosition:]
-[TabGridPageControl sliderRange]
-[TabGridPageControl firstSeparator]
-[TabGridPageControl secondSeparator]
-[TabGridPageControl updateSelectedPageAccessibility]
-[TabGridPageControl selectedPage]
-[TabGridPageControl accessibilityIdentifierForPage:]
-[TabGridPageControl setTapRecognizer:]
-[TabGridPageControl setScrollViewScrolledToEdge:]
-[TabGridTopToolbar setItemsForTraitCollection:]
-[TabGridTopToolbar shouldUseCompactLayout:]
-[TabGridToolbarsCoordinator setTopToolbar:]
-[TabGridToolbarsCoordinator searchDelegate]
-[TabGridTopToolbar setSearchBarDelegate:]
-[TabGridTopToolbar pageControl]
-[TabGridToolbarsCoordinator setupBottomToolbar]
-[TabGridBottomToolbar initWithFrame:]
-[TabGridBottomToolbar setupViews]
-[TabGridBottomToolbar createScrolledBackgrounds]
-[TabGridNewTabButton initWithLargeSize:]
-[TabGridBottomToolbar page]
-[TabGridNewTabButton setPage:]
-[TabGridNewTabButton setSymbolPage:]
-[TabGridNewTabButton symbol]
-[TabGridBottomToolbar updateCloseTabsButtonTitle]
__ZN9l10n_util18GetPluralNSStringFEii
-[TabGridToolbarsCoordinator setBottomToolbar:]
-[TabGridToolbarsCoordinator topToolbar]
-[TabGridToolbarsMediator setTopToolbarConsumer:]
-[TabGridToolbarsCoordinator bottomToolbar]
-[TabGridToolbarsMediator setBottomToolbarConsumer:]
-[TabGridViewController setTopToolbar:]
-[TabGridViewController setBottomToolbar:]
-[TabGridToolbarsCoordinator toolbarsMutator]
-[BaseGridCoordinator initWithBaseViewController:browser:toolbarsMutator:gridMediatorDelegate:]
-[BaseGridCoordinator setDisabledTabViewControllerDelegate:]
-[RegularGridCoordinator setTabContextMenuDelegate:]
-[RegularGridCoordinator start]
-[RegularGridCoordinator tabContextMenuDelegate]
-[TabContextMenuHelper initWithBrowserState:tabContextMenuDelegate:]
-[BaseGridCoordinator setGridContainerViewController:]
-[BaseGridViewController .cxx_construct]
-[BaseGridViewController init]
-[GridContainerViewController setContainedViewController:]
-[BaseGridViewController loadView]
__Z35IsTabGridCompositionalLayoutEnabledv
-[GridLayout init]
-[GridLayout flipsHorizontallyInOppositeLayoutDirection]
___copy_helper_block_e8_32r
-[BaseGridViewController setGridLayout:]
-[BaseGridViewController gridLayout]
-[RegularGridViewController createRegistrations]
-[BaseGridViewController createRegistrations]
-[BaseGridViewController setGroupGridCellRegistration:]
-[BaseGridViewController setGridCellRegistration:]
-[BaseGridViewController setSuggestedActionsCellRegistration:]
-[BaseGridViewController setGridHeaderRegistration:]
-[BaseGridViewController setDiffableDataSource:]
-[BaseGridViewController diffableDataSource]
-[BaseGridViewController setCollectionView:]
-[BaseGridViewController shouldEnableDrapAndDropInteraction]
-[BaseGridViewController mode]
-[BaseGridViewController collectionView]
-[BaseGridViewController setPointerInteractionCells:]
-[BaseGridViewController updateTabsSectionHeaderType]
-[RegularGridViewController tabsSectionHeaderTypeForMode:]
__Z23IsInactiveTabsAvailablev
-[BaseGridViewController isClosingAllOrUndoRunning]
-[GridLayout setTabsSectionHeaderType:]
-[RegularGridCoordinator setGridViewController:]
-[BaseGridMediator .cxx_construct]
-[RegularGridMediator .cxx_construct]
-[BaseGridMediator init]
-[BaseGridMediator setConsumer:]
-[BaseGridMediator resetToAllItems]
-[BaseGridMediator populateConsumerItems]
-[BaseGridMediator webStateList]
-[RegularGridMediator setBrowser:]
-[BaseGridMediator setBrowser:]
-[BaseGridMediator snapshotStorage]
-[BaseGridMediator browser]
-[SnapshotStorage addObserver:]
-[SnapshotStorage observers]
-[BaseGridMediator addWebStateObservations]
-[SelectedGridItems .cxx_construct]
-[SelectedGridItems initWithWebStateList:]
-[BaseGridMediator consumer]
__Z11CreateItemsP12WebStateList
__ZNK12WebStateList18IsWebStatePinnedAtEi
__ZNK12WebStateList20GetGroupOfWebStateAtEi
-[TabSwitcherItem .cxx_construct]
-[WebStateTabSwitcherItem .cxx_construct]
-[WebStateTabSwitcherItem initWithWebState:]
-[TabSwitcherItem initWithIdentifier:]
+[GridItemIdentifier tabIdentifier:]
_GetHashForTabSwitcherItem
-[TabSwitcherItem identifier]
__Z27GetActiveWebStateIdentifierP12WebStateListN22WebStateSearchCriteria11PinnedStateE
-[BaseGridViewController populateItems:selectedItemID:]
__Z36HasDuplicateGroupsAndTabsIdentifiersP7NSArrayIP18GridItemIdentifierE
-[GridItemIdentifier type]
-[GridItemIdentifier tabSwitcherItem]
__ZNSt4__Cr6__treeIPK8TabGroupNS_4lessIS3_EENS_9allocatorIS3_EEE7destroyEPNS_11__tree_nodeIS3_PvEE
-[BaseGridViewController setSelectedItemID:]
-[GridItemIdentifier hash]
-[BaseGridViewController showingSuggestedActions]
-[BaseGridViewController updateSelectedCollectionViewItemRingAndBringIntoView:]
-[BaseGridViewController selectedIndex]
-[BaseGridViewController selectedItemID]
-[BaseGridViewController indexPathForID:]
-[GridItemIdentifier isEqual:]
-[GridItemIdentifier isEqualToItemIdentifier:]
_CompareTabSwitcherItems
-[GridItemIdentifier .cxx_destruct]
-[TabSwitcherItem .cxx_destruct]
-[BaseGridViewController numberOfTabs]
-[BaseGridViewController shouldShowEmptyState]
-[BaseGridViewController isGridEmpty]
-[BaseGridViewController removeEmptyStateAnimated:]
-[BaseGridViewController emptyStateAnimator]
-[BaseGridViewController emptyStateView]
-[BaseGridViewController setEmptyStateAnimator:]
___51-[BaseGridViewController removeEmptyStateAnimated:]_block_invoke
-[BaseGridViewController delegate]
__ZN10TabsCloserC1EP7BrowserNS_11ClosePolicyE
__ZN10TabsCloserC2EP7BrowserNS_11ClosePolicyE
-[BaseGridCoordinator gridMediatorDelegate]
-[BaseGridMediator setDelegate:]
-[BaseGridCoordinator toolbarsMutator]
-[BaseGridMediator setToolbarsMutator:]
-[BaseGridMediator setDispatcher:]
-[BaseGridViewController setDragDropHandler:]
-[BaseGridViewController setMutator:]
-[BaseGridViewController setGridProvider:]
-[BaseGridViewController setMenuProvider:]
-[TabGridEmptyStateView initWithPage:]
-[BaseGridViewController setEmptyStateView:]
-[TabGridEmptyStateView setScrollViewContentInsets:]
-[TabGridEmptyStateView scrollView]
-[TabGridEmptyStateView scrollViewHeight]
-[TabGridEmptyStateView willMoveToSuperview:]
-[TabGridEmptyStateView setupViews]
-[TabGridEmptyStateView setContainer:]
-[TabGridEmptyStateView setScrollView:]
-[TabGridEmptyStateView scrollViewContentInsets]
__Z28VerticalConstraintsWithInsetP6UIViewS0_d
-[TabGridEmptyStateView setScrollViewHeight:]
-[TabGridEmptyStateView container]
-[BaseGridViewController setTheme:]
-[BaseGridCoordinator gridContainerViewController]
-[PinnedTabsViewController .cxx_construct]
-[PinnedTabsViewController init]
-[PinnedTabsLayout init]
-[PinnedTabsLayout flipsHorizontallyInOppositeLayoutDirection]
-[RegularGridCoordinator setPinnedTabsViewController:]
-[PinnedTabsMediator .cxx_construct]
-[PinnedTabsMediator initWithConsumer:]
-[PinnedTabsMediator setBrowser:]
-[PinnedTabsMediator addWebStateObservations]
-[PinnedTabsMediator populateConsumerItems]
-[PinnedTabsMediator consumer]
-[PinnedTabsMediator webStateList]
-[PinnedTabsViewController populateItems:selectedItemID:]
__Z23HasDuplicateIdentifiersP7NSArrayIP15TabSwitcherItemE
-[PinnedTabsViewController updatePinnedTabsVisibility]
-[PinnedTabsViewController pinnedTabsAvailable:]
-[PinnedTabsViewController delegate]
-[PinnedTabsViewController viewDidLoad]
-[PinnedTabsViewController configureCollectionView]
-[PinnedTabsViewController configureDropOverlayView]
-[PinnedTabsViewController updateDropOverlayViewVisibility]
-[PinnedTabsViewController deselectAllCollectionViewItemsAnimated:]
-[PinnedTabsViewController selectCollectionViewItemWithID:animated:]
-[PinnedTabsViewController indexOfItemWithID:]
-[PinnedTabsViewController scrollCollectionViewToSelectedItemAnimated:]
-[PinnedTabsViewController selectedIndex]
-[PinnedTabsViewController scrollCollectionViewToItemWithIndex:animated:]
-[PinnedTabsViewController setMenuProvider:]
-[PinnedTabsViewController setDragDropHandler:]
-[BaseGridCoordinator start]
-[RegularGridCoordinator gridViewController]
-[TabGridViewController setRegularTabsViewController:]
-[TabGridViewController tabGridMode]
-[BaseGridViewController setMode:]
-[BaseGridViewController setDelegate:]
-[BaseGridViewController setSuggestedActionsDelegate:]
-[TabGridViewController currentPage]
-[BaseGridCoordinator disabledViewController]
-[TabGridViewController setRegularDisabledGridViewController:]
-[TabGridViewController setRegularGridContainerViewController:]
-[RegularGridCoordinator pinnedTabsViewController]
-[TabGridViewController setPinnedTabsViewController:]
-[RegularGridCoordinator gridHandler]
-[TabGridViewController setRegularGridHandler:]
-[RegularGridCoordinator regularGridMediator]
-[TabGridCoordinator setRegularTabsMediator:]
-[TabGridCoordinator regularTabsMediator]
-[BaseGridMediator setToolbarTabGridDelegate:]
-[PriceCardMediator initWithWebStateList:]
-[TabGridCoordinator setPriceCardMediator:]
-[InactiveTabsButtonMediator .cxx_construct]
-[InactiveTabsButtonMediator initWithConsumer:webStateList:prefService:]
-[RegularGridViewController updateInactiveTabsCount:]
-[RegularGridViewController updateInactiveTabsDaysThreshold:]
-[RegularGridViewController updateInactiveTabsButtonHeader]
-[RegularGridViewController configureInactiveTabsButtonHeader:]
-[RegularGridViewController updateInactiveTabsPreambleHeader]
-[TabGridCoordinator setInactiveTabsButtonMediator:]
-[TabGridCoordinator priceCardMediator]
-[TabGridViewController setPriceCardDataSource:]
-[TabGridViewController regularTabsViewController]
-[BaseGridViewController setPriceCardDataSource:]
-[IncognitoGridCoordinator .cxx_construct]
-[IncognitoGridCoordinator initWithBaseViewController:browser:toolbarsMutator:gridMediatorDelegate:]
-[IncognitoGridCoordinator browser]
-[IncognitoGridCoordinator setAudience:]
-[IncognitoGridCoordinator setTabContextMenuDelegate:]
-[IncognitoGridCoordinator start]
-[IncognitoGridMediator .cxx_construct]
-[IncognitoGridCoordinator tabContextMenuDelegate]
-[IncognitoGridCoordinator createGridViewController]
-[IncognitoGridViewController setReauthHandler:]
-[BaseGridViewController tabsSectionHeaderTypeForMode:]
-[IncognitoGridCoordinator setGridViewController:]
-[IncognitoGridCoordinator gridViewController]
-[IncognitoGridMediator setBrowser:]
-[IncognitoGridMediator isIncognitoModeDisabled]
-[IncognitoGridMediator setIncognitoDelegate:]
-[IncognitoGridMediator setReauthSceneAgent:]
-[IncognitoGridViewController setItemsRequireAuthentication:]
-[IncognitoGridViewController setContentNeedsAuthentication:]
___61-[IncognitoGridViewController setItemsRequireAuthentication:]_block_invoke
-[IncognitoGridViewController hideBlockingView]
-[IncognitoGridCoordinator incognitoGridMediator]
-[TabGridCoordinator setIncognitoTabsMediator:]
-[TabGridCoordinator incognitoTabsMediator]
-[IncognitoGridCoordinator gridHandler]
-[TabGridViewController setIncognitoGridHandler:]
-[TabGridViewController setIncognitoTabsViewController:]
-[TabGridViewController setIncognitoDisabledGridViewController:]
-[TabGridViewController setIncognitoGridContainerViewController:]
-[RecentTabsContextMenuHelper initWithBrowser:recentTabsPresentationDelegate:tabContextMenuDelegate:]
-[TabGridCoordinator setRecentTabsContextMenuHelper:]
-[TabGridCoordinator recentTabsContextMenuHelper]
-[TabGridViewController remoteTabsViewController]
-[RecentTabsTableViewController setMenuProvider:]
-[InactiveTabsCoordinator initWithBaseViewController:browser:delegate:]
-[TabGridCoordinator setInactiveTabsCoordinator:]
-[TabGridCoordinator inactiveTabsCoordinator]
-[InactiveTabsCoordinator setTabContextMenuDelegate:]
-[InactiveTabsCoordinator start]
__ZN11BrowserImpl16GetActiveBrowserEv
-[InactiveTabsCoordinator tabContextMenuDelegate]
-[InactiveTabsMediator .cxx_construct]
-[InactiveTabsMediator initWithWebStateList:prefService:snapshotStorage:tabsCloser:]
-[InactiveTabsCoordinator setMediator:]
-[InactiveTabsCoordinator gridCommandsHandler]
-[InactiveTabsCoordinator mediator]
-[TabGridViewController setInactiveGridHandler:]
-[InactiveTabsCoordinator toolbarsConfigurationProvider]
-[BaseGridMediator setContainedGridToolbarsProvider:]
-[RegularGridMediator setInactiveTabsGridCommands:]
-[RecentTabsTableViewController setBrowser:]
-[RecentTabsTableViewController syncService]
__ZN32IOSChromeTabRestoreServiceClientC1EP18ChromeBrowserState
__ZN32IOSChromeTabRestoreServiceClientC2EP18ChromeBrowserState
__ZN32IOSChromeTabRestoreServiceClient15GetPathToSaveToEv
-[RecentTabsMediator .cxx_construct]
-[RecentTabsMediator initWithSessionSyncService:identityManager:restoreService:faviconLoader:syncService:browserList:sceneState:disabledByPolicy:]
-[TabGridCoordinator setRemoteTabsMediator:]
-[TabGridViewController remoteTabsConsumer]
-[TabGridCoordinator remoteTabsMediator]
-[RecentTabsMediator setConsumer:]
-[RecentTabsMediator setToolbarTabGridDelegate:]
-[RecentTabsTableViewController setImageDataSource:]
-[RecentTabsTableViewController setDelegate:]
-[RecentTabsTableViewController setApplicationHandler:]
-[RecentTabsTableViewController setLoadStrategy:]
-[RecentTabsTableViewController setPresentationDelegate:]
-[TabGridViewController setActivityObserver:]
-[TabGridViewController setRemoteGridContainerViewController:]
-[TabGridCoordinator setFirstPresentation:]
-[TabGridCoordinator window]
-[TabGridViewController viewDidLoad]
-[TabGridViewController setupScrollView]
-[TabGridViewController incognitoGridContainerViewController]
-[TabGridViewController regularGridContainerViewController]
-[TabGridViewController remoteGridContainerViewController]
-[TabGridViewController setScrollView:]
-[TabGridViewController scrollView]
-[TabGridViewController setupRemoteTabsViewController]
-[RecentTabsTableViewController setUIDelegate:]
-[ChromeTableViewStyler setTableViewBackgroundColor:]
-[LegacyChromeTableViewController setStyler:]
-[ChromeTableViewStyler .cxx_destruct]
-[RecentTabsTableViewController viewDidLoad]
-[LegacyChromeTableViewController viewDidLoad]
-[LegacyChromeTableViewController styler]
-[ChromeTableViewStyler tableViewBackgroundColor]
-[RecentTabsTableViewController setDragDropHandler:]
-[RecentTabsTableViewController dragDropHandler]
-[TableViewURLDragDropHandler setOrigin:]
-[TableViewURLDragDropHandler setDragDataSource:]
-[TabGridViewController setupSearchUI]
-[TabGridViewController setScrimView:]
-[TabGridViewController scrimView]
-[TabGridViewController setSearchResultPanRecognizer:]
-[TabGridViewController searchResultPanRecognizer]
-[TabGridViewController setupTopToolbar]
-[TabGridViewController topToolbar]
-[TabGridTopToolbar didMoveToSuperview]
-[TabGridViewController setupBottomToolbar]
-[TabGridViewController bottomToolbar]
-[TabGridBottomToolbar didMoveToSuperview]
-[TabGridViewController layoutGuideCenter]
-[TabGridViewController pinnedTabsViewController]
-[TabGridViewController setupPinnedTabsViewController]
-[PinnedTabsViewController setDelegate:]
-[TabGridViewController updatePinnedTabsViewControllerConstraints]
-[TabGridViewController pinnedTabsConstraints]
-[TabGridViewController shouldUseCompactLayout]
-[TabGridViewController setPinnedTabsConstraints:]
-[TabGridViewController hideToolbars]
-[TabGridTopToolbar hide]
-[TabGridBottomToolbar hide]
-[BaseGridViewController viewWillAppear:]
-[BaseGridViewController contentWillAppearAnimated:]
-[GridLayout setAnimatesItemUpdates:]
-[BaseGridViewController animateEmptyStateIn]
___45-[BaseGridViewController animateEmptyStateIn]_block_invoke
-[TabGridViewController gridViewController:didChangeItemCount:]
__ZN10crash_keys18SetRegularTabCountEi
-[PreviousSessionInfo updateCurrentSessionTabCount:]
-[TabGridViewController handleTabCountChangeWithTabCount:]
-[TabGridViewController broadcastIncognitoContentVisibility]
-[TabGridViewController viewVisible]
-[BaseGridViewController setLastInsertedItemID:]
-[RecentTabsTableViewController viewWillAppear:]
-[LegacyChromeTableViewController numberOfSectionsInTableView:]
-[LegacyChromeTableViewController tableViewModel]
-[RecentTabsTableViewController preventUpdates]
-[PinnedTabsViewController viewWillAppear:]
-[PinnedTabsViewController contentWillAppearAnimated:]
-[TabGridViewController pinnedTabsViewController:didChangeItemCount:]
-[TabGridPageControl setPinnedTabCount:]
-[TabGridTopToolbar traitCollectionDidChange:]
-[TabGridTopToolbar positionForBar:]
-[LegacyChromeTableViewController viewSafeAreaInsetsDidChange]
-[LegacyChromeTableViewController updateEmptyViewInsets]
-[LegacyChromeTableViewController emptyViewTopOffset]
-[RecentTabsTableViewController scrollViewDidScroll:]
-[RecentTabsTableViewController UIDelegate]
-[TabGridViewController recentTabsScrollViewDidScroll:]
-[TabGridViewController updateToolbarsAppearance]
-[TabGridViewController incognitoTabsViewController]
-[BaseGridViewController isScrolledToTop]
__Z25IsScrollViewScrolledToTopP12UIScrollView
-[BaseGridViewController isScrolledToBottom]
__Z28IsScrollViewScrolledToBottomP12UIScrollView
-[TabGridTopToolbar setScrollViewScrolledToEdge:]
-[TabGridBottomToolbar setScrollViewScrolledToEdge:]
-[TabGridViewController childViewControllerForStatusBarStyle]
-[TabGridViewController preferredStatusBarStyle]
-[RecentTabsMediator initObservers]
-[RecentTabsMediator sessionSyncService]
__ZN15synced_sessions28SyncedSessionsObserverBridgeC1EPU33objcproto22SyncedSessionsObserver11objc_objectPN13sync_sessions18SessionSyncServiceE
__ZN15synced_sessions28SyncedSessionsObserverBridgeC2EPU33objcproto22SyncedSessionsObserver11objc_objectPN13sync_sessions18SessionSyncServiceE
__ZN4base8internal17UnretainedWrapperIN15synced_sessions28SyncedSessionsObserverBridgeENS_17unretained_traits12MayNotDangleELN15partition_alloc8internal12RawPtrTraitsE0EEC2EPS3_QeqT1_LS8_0E
__ZN4base8internal9BindStateILb1ELb1ELb0EMN15synced_sessions28SyncedSessionsObserverBridgeEFvvEJNS0_17UnretainedWrapperIS3_NS_17unretained_traits12MayNotDangleELN15partition_alloc8internal12RawPtrTraitsE0EEEEEC2IS5_JSC_EQntsr18CancellationTraitsE14is_cancellableEEPFvvEOT_DpOT0_
-[RecentTabsMediator identityManager]
__ZN11recent_tabs24ClosedTabsObserverBridgeC1EPU30objcproto19ClosedTabsObserving11objc_object
-[RecentTabsMediator restoreService]
-[RecentTabsMediator consumer]
-[RecentTabsTableViewController setTabRestoreService:]
-[RecentTabsMediator refreshSessionsView]
-[RecentTabsMediator userSignedInState]
-[RecentTabsTableViewController refreshUserState:]
-[RecentTabsTableViewController sessionState]
-[TabGridMediator setRegularPageMutator:]
-[TabGridMediator setIncognitoPageMutator:]
-[TabGridMediator setRemotePageMutator:]
-[TabGridMediator setToolbarsMutator:]
-[RecentTabsMediator setToolbarsMutator:]
-[BaseGridMediator setTabPresentationDelegate:]
-[BaseGridMediator setGridConsumer:]
-[RecentTabsMediator setGridConsumer:]
-[SnackbarCoordinator initWithBaseViewController:browser:delegate:]
-[TabGridCoordinator setSnackbarCoordinator:]
-[TabGridCoordinator snackbarCoordinator]
-[SnackbarCoordinator start]
__ZN3ios8provider30ApplyBrandingToSnackbarManagerEP18MDCSnackbarManager
-[TabGridCoordinator setIncognitoSnackbarCoordinator:]
-[TabGridCoordinator incognitoSnackbarCoordinator]
-[TabGridCoordinator bookmarksCoordinator]
-[SceneController activePage]
-[TabGridCoordinator setActivePage:]
-[TabGridMediator setPage:]
-[TabGridMediator notifyPageMutatorAboutPage:]
-[TabGridMediator updateCurrentPageMutatorForPage:]
-[TabGridMediator regularPageMutator]
-[RegularGridMediator currentlySelectedGrid:]
-[RegularGridMediator configureToolbarsButtons]
-[BaseGridMediator toolbarsMutator]
-[TabGridToolbarsMediator setToolbarsButtonsDelegate:]
-[TabGridToolbarsMediator topToolbarConsumer]
-[TabGridTopToolbar setButtonsDelegate:]
-[TabGridToolbarsMediator bottomToolbarConsumer]
-[TabGridBottomToolbar setButtonsDelegate:]
-[TabGridToolbarsConfiguration initWithPage:]
-[BaseGridMediator currentMode]
-[TabGridToolbarsConfiguration setMode:]
-[RegularGridMediator canCloseRegularOrInactiveTabs]
-[RegularGridMediator canCloseTabs]
__ZNK10TabsCloser12CanCloseTabsEv
-[TabGridToolbarsConfiguration setCloseAllButton:]
-[TabGridToolbarsConfiguration setDoneButton:]
-[TabGridToolbarsConfiguration setNewTabButton:]
-[TabGridToolbarsConfiguration setSearchButton:]
-[RegularGridMediator hasRegularTabs]
-[TabGridToolbarsConfiguration setSelectTabsButton:]
-[RegularGridMediator canUndoCloseRegularOrInactiveTabs]
-[RegularGridMediator canUndoCloseTabs]
__ZNK10TabsCloser16CanUndoCloseTabsEv
-[BaseGridMediator containedGridToolbarsProvider]
-[InactiveTabsMediator toolbarsConfiguration]
-[InactiveTabsMediator canCloseTabs]
-[InactiveTabsMediator canUndoCloseAllTabs]
-[TabGridToolbarsConfiguration setUndoButton:]
-[TabGridToolbarsConfiguration undoButton]
-[TabGridToolbarsConfiguration .cxx_destruct]
-[TabGridToolbarsMediator setToolbarConfiguration:]
-[TabGridToolbarsConfiguration page]
-[TabGridTopToolbar setPage:]
-[TabGridToolbarsConfiguration mode]
-[TabGridTopToolbar setMode:]
-[TabGridBottomToolbar setPage:]
-[TabGridBottomToolbar updateLayout]
-[TabGridBottomToolbar mode]
-[TabGridBottomToolbar shouldUseCompactLayout]
-[TabGridBottomToolbar updateBackgroundVisibility]
-[TabGridBottomToolbar isShowingFloatingButton]
-[TabGridBottomToolbar setMode:]
-[TabGridToolbarsMediator configureSelectionModeButtons]
-[TabGridToolbarsConfiguration shareButton]
-[TabGridBottomToolbar setShareTabsButtonEnabled:]
-[TabGridToolbarsConfiguration addToButton]
-[TabGridBottomToolbar setAddToButtonEnabled:]
-[TabGridToolbarsConfiguration closeSelectedTabsButton]
-[TabGridBottomToolbar setCloseTabsButtonEnabled:]
-[TabGridToolbarsConfiguration selectAllButton]
-[TabGridToolbarsConfiguration deselectAllButton]
-[TabGridTopToolbar setSelectAllButtonEnabled:]
-[TabGridToolbarsConfiguration selectedItemsCount]
-[TabGridTopToolbar setSelectedTabsCount:]
-[TabGridBottomToolbar setSelectedTabsCount:]
-[TabGridTopToolbar configureDeselectAllButtonTitle]
-[TabGridToolbarsMediator configureEditOrUndoButton]
-[TabGridBottomToolbar useUndoCloseAll:]
-[TabGridToolbarsConfiguration closeAllButton]
-[TabGridTopToolbar setCloseAllButtonEnabled:]
-[TabGridBottomToolbar setCloseAllButtonEnabled:]
-[TabGridToolbarsMediator configureEditButtons]
-[ActionFactory actionToCloseAllTabsWithBlock:]
-[ActionFactory actionWithTitle:image:type:block:]
-[ActionFactory histogram]
___copy_helper_block_e8_32b
-[TabGridToolbarsConfiguration selectTabsButton]
-[ActionFactory actionToSelectTabsWithBlock:]
-[TabGridTopToolbar setEditButtonMenu:]
-[TabGridBottomToolbar setEditButtonMenu:]
-[TabGridBottomToolbar setEditButtonEnabled:]
-[TabGridTopToolbar setEditButtonEnabled:]
-[TabGridToolbarsConfiguration newTabButton]
-[TabGridBottomToolbar setNewTabButtonEnabled:]
-[TabGridToolbarsConfiguration doneButton]
-[TabGridTopToolbar setDoneButtonEnabled:]
-[TabGridBottomToolbar setDoneButtonEnabled:]
-[TabGridToolbarsConfiguration searchButton]
-[TabGridTopToolbar setSearchButtonEnabled:]
-[TabGridViewController setActivePage:]
-[TabGridViewController scrollToPage:animated:]
-[TabGridViewController setCurrentPage:]
-[TabGridViewController currentPageViewController]
-[TabGridViewController pinnedTabsViewControllerVisibilityDidChange:]
-[TabGridViewController calculateInsetsForRegularGridView]
-[TabGridViewController calculateInsetsForIncognitoGridView]
-[TabGridViewController configuration]
-[TabGridTopToolbar intrinsicContentSize]
-[PinnedTabsViewController visible]
___69-[TabGridViewController pinnedTabsViewControllerVisibilityDidChange:]_block_invoke
-[BaseGridViewController setContentInsets:]
-[BaseGridViewController scrollViewDidChangeAdjustedContentInset:]
-[GridLayout setSectionInsets:]
___48-[PinnedTabsViewController pinnedTabsAvailable:]_block_invoke
-[TabGridPageControl background]
-[TabGridViewController nextResponder]
-[TabGridViewController activityObserver]
-[RecentTabsMediator updateLastActiveTabPage:]
-[SceneController reconcileEulaAsAccepted]
___42-[SceneController reconcileEulaAsAccepted]_block_invoke
-[SceneController setCurrentInterfaceForMode:]
-[SceneController updateActiveWebStateSnapshot]
-[BrowserViewWrangler setCurrentInterface:]
__ZN25DeviceSharingBrowserAgent22UpdateForActiveBrowserEv
__ZN24DeviceSharingManagerImpl16SetActiveBrowserEP7Browser
-[SceneController activatingBrowser]
-[SceneController displayCurrentBVCAndFocusOmnibox:]
-[WrangledBrowser viewController]
-[WrangledBrowser incognito]
-[WrangledBrowser browserState]
-[TabGridCoordinator showTabViewController:incognito:completion:]
-[TabGridCoordinator tabGridEnterTime]
-[TabGridCoordinator bvcContainer]
-[TabGridCoordinator setBvcContainer:]
-[BVCContainerViewController setCurrentBVC:]
-[BVCContainerViewController currentBVC]
-[BVCContainerViewController viewDidLoad]
-[BVCContainerViewController setIncognito:]
-[BVCContainerViewController setFallbackPresenterViewController:]
-[TabGridCoordinator animationsDisabledForTesting]
-[TabGridCoordinator firstPresentation]
___copy_helper_block_e8_32s40b
-[TabGridViewController setChildViewControllerForStatusBarStyle:]
-[TabGridViewController contentWillDisappearAnimated:]
-[TabGridViewController recordIdlePageStatus]
-[TabGridViewController setTabGridMode:]
-[TabGridViewController regularGridHandler]
-[RegularGridMediator discardSavedClosedItems]
-[TabGridViewController inactiveGridHandler]
-[InactiveTabsMediator discardSavedClosedItems]
-[TabGridViewController swipeToIncognitoIPH]
-[TabGridViewController setViewVisible:]
-[PinnedTabsViewController contentWillDisappear]
-[RecentTabsTableViewController setPreventUpdates:]
-[TabGridViewController setTabGridEnterTime:]
__Z30IsNewTabGridTransitionsEnabledv
-[TabGridViewController activePage]
-[TabGridCoordinator performLegacyTabGridToBrowserTransitionWithActivePage:animationEnabled:completion:]
-[TabGridCoordinator createTransitionHanlderWithAnimationEnabled:]
-[LegacyTabGridTransitionHandler initWithLayoutProvider:]
-[LegacyTabGridTransitionHandler setAnimationDisabled:]
-[TabGridCoordinator setLegacyTransitionHandler:]
-[TabGridCoordinator legacyTransitionHandler]
-[LegacyTabGridTransitionHandler transitionFromTabGrid:toBrowser:activePage:withCompletion:]
-[BrowserViewController viewWillAppear:]
-[BrowserViewController setVisible:]
-[BrowserViewController webUsageEnabled]
-[NewTabPageCoordinator viewController]
-[BrowserViewController displayTabView]
-[BrowserViewController isInNewTabAnimation]
-[BrowserViewController findInPageCommandsHandler]
-[BrowserCoordinator hideFindUI]
__ZN13FindTabHelper20DismissFindNavigatorEv
-[FindInPageController disableFindInPage]
__ZN3web21FindInPageManagerImpl11StopFindingEv
__ZN3web21FindInPageManagerImpl10StopSearchEv
__ZN3web21FindInPageManagerImpl20GetActiveFindSessionEv
__ZN3web12WebStateImpl18GetFindInteractionEv
__ZN3web12WebStateImpl16RealizedWebState16GetWebControllerEv
-[CRWWebController findInteraction]
__ZN3web31FindInPageManagerDelegateBridge19DidHighlightMatchesEPNS_25AbstractFindInPageManagerEPNS_8WebStateEiP8NSString
-[FindInPageController findInPageManager:didHighlightMatchesOfQuery:withMatchCount:forWebState:]
-[FindInPageController responseDelegate]
-[FindInPageController logFindInPageSearchUKM]
__ZN3ukm30GetSourceIdForWebStateDocumentEPN3web8WebStateE
-[BrowserViewController textZoomHandler]
-[BrowserCoordinator hideTextZoomUI]
-[BrowserCoordinator textZoomCoordinator]
__ZNK24FullscreenControllerImpl24GetCurrentViewportInsetsEv
-[BrowserViewController ntpFrameForCurrentWebState]
-[NewTabPageViewController pinFakeOmniboxToTop]
-[NewTabPageViewController stickFakeOmniboxToTop]
-[NewTabPageViewController setHeaderTopAnchor:]
-[NewTabPageViewController headerTopAnchor]
-[BrowserContainerViewController setContentView:]
-[BrowserContainerViewController removeOldContentViewController]
-[BrowserContainerViewController setContentViewController:]
-[NewTabPageCoordinator constrainDiscoverHeaderMenuButtonNamedGuide]
-[BrowserViewController updateWebStateVisibility:]
__ZN3web12WebStateImpl8WasShownEv
__ZN3web12WebStateImpl16RealizedWebState8WasShownEv
-[CRWWebController isVisible]
-[CRWWebController wasShown]
-[CRWWebController setVisible:]
-[CRWWebController addCustomURLDropInteractionIfNeeded]
__ZN3web16WebStateObserver8WasShownEPNS_8WebStateE
__ZThn16_N25TailoredSecurityTabHelper8WasShownEPN3web8WebStateE
__ZThn8_N24DownloadManagerTabHelper8WasShownEPN3web8WebStateE
__ZN25DocumentDownloadTabHelper8WasShownEPN3web8WebStateE
__ZThn8_N35PageloadForegroundDurationTabHelper8WasShownEPN3web8WebStateE
__ZThn8_N15SadTabTabHelper8WasShownEPN3web8WebStateE
__ZN15SadTabTabHelper8WasShownEPN3web8WebStateE
__ZThn8_N24PagePlaceholderTabHelper8WasShownEPN3web8WebStateE
__ZThn8_N24ChromeIOSTranslateClient8WasShownEPN3web8WebStateE
__ZN3web22WebStateObserverBridge8WasShownEPNS_8WebStateE
-[PasswordController webStateWasShown:]
-[AutofillAgent webStateWasShown:]
__ZThn16_N3web21FindInPageManagerImpl8WasShownEPNS_8WebStateE
__ZThn24_N32IOSChromeLocalSessionEventRouter8Observer8WasShownEPN3web8WebStateE
__ZN32IOSChromeLocalSessionEventRouter8Observer8WasShownEPN3web8WebStateE
__ZNK26IOSChromeSyncedTabDelegate16IsPlaceholderTabEv
__ZNK3web21NavigationManagerImpl26IsRestoreSessionInProgressEv
__ZN26IOSChromeSyncedTabDelegate10ShouldSyncEPN13sync_sessions18SyncSessionsClientE
__ZN12_GLOBAL__N_122SyncSessionsClientImpl30GetSyncedWindowDelegatesGetterEv
__ZNK26IOSChromeSyncedTabDelegate11GetWindowIdEv
__ZN30IOSSyncedWindowDelegatesGetter8FindByIdE9SessionID
__ZNK32SyncedWindowDelegateBrowserAgent12GetSessionIdEv
__ZNK26IOSChromeSyncedTabDelegate24IsInitialBlankNavigationEv
__ZNK26IOSChromeSyncedTabDelegate25GetSessionStorageIfNeededEv
__ZNK26IOSChromeSyncedTabDelegate13GetEntryCountEv
__ZNK26IOSChromeSyncedTabDelegate20GetVirtualURLAtIndexEi
__ZNK3web21NavigationManagerImpl19GetPendingItemIndexEv
__ZNK12_GLOBAL__N_122SyncSessionsClientImpl13ShouldSyncURLERK4GURL
__ZN12_GLOBAL__N_117ShouldSyncURLImplERK4GURL
__ZN34SessionRestorationWebStateObserver8WasShownEPN3web8WebStateE
__ZN34SessionRestorationWebStateObserver9MarkDirtyEv
__ZNK3web21NavigationManagerImpl25GetLastCommittedItemIndexEv
__ZN4base8internal7InvokerINS0_13FunctorTraitsIRKM38SessionRestorationWebStateListObserverFvPN3web8WebStateEEJPS3_EEENS0_9BindStateILb1ELb1ELb0ES8_JNS0_17UnretainedWrapperIS3_NS_17unretained_traits12MayNotDangleELN15partition_alloc8internal12RawPtrTraitsE0EEEEEEFvS6_EE3RunEPNS0_13BindStateBaseES6_
__ZN26FullscreenWebStateObserver8WasShownEPN3web8WebStateE
-[ToolbarMediator webStateWasShown:]
-[FormInputAccessoryMediator webStateWasShown:]
-[NewTabPageViewController viewWillAppear:]
-[NewTabPageHeaderViewController setShowing:]
-[NewTabPageViewController updateNTPLayout]
-[NewTabPageViewController updateFeedInsetsForContentAbove]
-[NewTabPageHeaderViewController updateLogoForOffset:]
-[NewTabPageHeaderViewController toolbarDelegate]
-[ToolbarCoordinator setScrollProgressForTabletOmnibox:]
-[ToolbarCoordinator coordinators]
-[AdaptiveToolbarCoordinator setScrollProgressForTabletOmnibox:]
-[PrimaryToolbarViewController setScrollProgressForTabletOmnibox:]
-[AdaptiveToolbarViewController setScrollProgressForTabletOmnibox:]
-[PrimaryToolbarViewController isNTP]
-[PrimaryToolbarView fakeOmniboxTarget]
-[NewTabPageViewController updateFakeOmniboxOnNewWidth:]
-[NewTabPageViewController hasSavedOffsetFromPreviousScrollState]
-[NewTabPageViewController focusAccessibilityOmniboxWhenViewAppears]
-[OmniboxViewController viewWillAppear:]
-[FeedHeaderViewController traitCollectionDidChange:]
-[MagicStackModuleContainer traitCollectionDidChange:]
-[NewTabPageHeaderViewController traitCollectionDidChange:]
-[NewTabPageHeaderView traitCollectionDidChange:]
-[GradientView traitCollectionDidChange:]
-[OmniboxTextFieldExperimental traitCollectionDidChange:]
-[OverlayContainerView didMoveToWindow]
-[OverlayContainerView viewController]
-[OverlayContainerViewController delegate]
-[OverlayContainerCoordinator containerViewController:didMoveToWindow:]
__ZN30OverlayPresentationContextImpl9SetWindowEP8UIWindow
__ZN4base12ObserverListI34OverlayPresentationContextObserverLb1ELb1ENS_8internal22CheckedObserverAdapterEE4IterC2EPKS4_
__ZN4base8internal12WeakLinkNodeINS_12ObserverListI34OverlayPresentationContextObserverLb1ELb1ENS0_22CheckedObserverAdapterEEEE7SetListEPS5_
__ZN4base12ObserverListI34OverlayPresentationContextObserverLb1ELb1ENS_8internal22CheckedObserverAdapterEE4Iter16EnsureValidIndexEv
__ZNK4base12ObserverListI34OverlayPresentationContextObserverLb1ELb1ENS_8internal22CheckedObserverAdapterEE4ItereqERKS5_
__ZNK4base12ObserverListI34OverlayPresentationContextObserverLb1ELb1ENS_8internal22CheckedObserverAdapterEE4Iter6is_endEv
__ZNK4base12ObserverListI34OverlayPresentationContextObserverLb1ELb1ENS_8internal22CheckedObserverAdapterEE4Iter10GetCurrentEv
__ZThn32_N20OverlayPresenterImpl41OverlayPresentationContextDidMoveToWindowEP26OverlayPresentationContextP8UIWindow
__ZN20OverlayPresenterImpl41OverlayPresentationContextDidMoveToWindowEP26OverlayPresentationContextP8UIWindow
__ZN4base12ObserverListI34OverlayPresentationContextObserverLb1ELb1ENS_8internal22CheckedObserverAdapterEE4IterD2Ev
__ZN4base12ObserverListI34OverlayPresentationContextObserverLb1ELb1ENS_8internal22CheckedObserverAdapterEE7CompactEv
__ZNSt4__Cr9remove_ifINS_11__wrap_iterIPN4base8internal22CheckedObserverAdapterEEEZNS2_12ObserverListI34OverlayPresentationContextObserverLb1ELb1ES4_E7CompactEvEUlRKT_E_EESA_SA_SA_T0_
-[BrowserViewController preferredStatusBarStyle]
-[OmniboxViewController textInputModeDidChange]
-[TabGridBottomToolbar intrinsicContentSize]
-[TabGridPageControl intrinsicContentSize]
-[BrowserViewController viewSafeAreaInsetsDidChange]
-[BrowserViewController tabStripView]
-[LegacyTabGridTransitionHandler animationDisabled]
___65-[TabGridCoordinator showTabViewController:incognito:completion:]_block_invoke
-[TabGridCoordinator delegate]
-[SceneController tabGridDismissTransitionDidEnd:]
-[BVCContainerViewController incognito]
__Z30GetFirstResponderInWindowSceneP13UIWindowScene
-[BrowserViewController canBecomeFirstResponder]
___destroy_helper_block_e8_32s40s
-[SceneController setIncognitoContentVisible:]
-[SceneState setIncognitoContentVisible:]
__ZN28TabUsageRecorderBrowserAgent26RecordPrimaryBrowserChangeEb
-[TabGridCoordinator isTabGridActive]
-[SceneController shouldOpenNTPTabOnActivationOfBrowser:]
-[SceneController startupParameters]
+[GeolocationLogger sharedInstance]
-[GeolocationLogger init]
___25-[GeolocationLogger init]_block_invoke
-[GeolocationLogger locationManager]
__Z19ShouldDisplayPromosv
__Z23IsAppStoreRatingEnabledv
-[AppStoreRatingSceneAgent initWithPromosManager:]
-[WhatsNewSceneAgent initWithPromosManager:]
-[WhatsNewSceneAgent setPromosManager:]
-[CredentialProviderPromoSceneAgent initWithPromosManager:prefService:]
__Z31IsBottomOmniboxPromoFlagEnabled22BottomOmniboxPromoType
-[OmniboxPositionChoiceSceneAgent .cxx_construct]
-[OmniboxPositionChoiceSceneAgent initWithPromosManager:forBrowserState:]
-[OmniboxPositionChoiceSceneAgent setPromosManager:]
-[SceneState setUIEnabled:]
-[AppState sceneStateDidEnableUI:]
-[AppState firstSceneHasInitializedUI]
-[AppState setFirstSceneHasInitializedUI:]
-[MainController appState:firstSceneHasInitializedUI:]
-[FirstRunAppAgent appState:firstSceneHasInitializedUI:]
-[FirstRunAppAgent setPresentingSceneState:]
-[FirstRunAppAgent presentingSceneState]
-[BrowserViewWrangler currentBrowserProvider]
-[FirstRunAppAgent setPresentingInterface:]
-[BrowserViewWrangler mainBrowserProvider]
-[FirstRunAppAgent setMainBrowser:]
-[IncognitoReauthSceneAgent sceneStateDidEnableUI:]
-[IncognitoReauthSceneAgent logEnabledHistogramOnce]
___52-[IncognitoReauthSceneAgent logEnabledHistogramOnce]_block_invoke
-[BaseDefaultBrowserPromoSchedulerSceneAgent sceneStateDidEnableUI:]
-[BaseDefaultBrowserPromoSchedulerSceneAgent setBrowser:]
__ZN21BrowserObserverBridgeC1EP7BrowserPU27objcproto16BrowserObserving11objc_object
-[BaseDefaultBrowserPromoSchedulerSceneAgent setWebStateList:]
-[BaseDefaultBrowserPromoSchedulerSceneAgent setOverlayPresenter:]
-[NonModalDefaultBrowserPromoSchedulerSceneAgent initPromoHandler:]
-[BaseDefaultBrowserPromoSchedulerSceneAgent browser]
-[SigninPolicySceneAgent sceneStateDidEnableUI:]
-[SigninPolicySceneAgent setMainBrowser:]
-[SigninPolicySceneAgent setupObservers]
-[SigninPolicySceneAgent mainBrowser]
-[IdleTimeoutPolicySceneAgent sceneStateDidEnableUI:]
-[IdleTimeoutPolicySceneAgent setupObserver]
__ZN25IdleServiceObserverBridgeC1EPN15enterprise_idle11IdleServiceEPU31objcproto20IdleServiceObserving11objc_object
__ZN25IdleServiceObserverBridgeC2EPN15enterprise_idle11IdleServiceEPU31objcproto20IdleServiceObserving11objc_object
__ZN4base17ScopedObservationIN15enterprise_idle11IdleServiceENS2_8ObserverEEC2EPS3_
__ZN4base17ScopedObservationIN15enterprise_idle11IdleServiceENS2_8ObserverEE7ObserveEPS2_
__ZN15enterprise_idle11IdleService11AddObserverEPNS0_8ObserverE
__ZN4base12ObserverListIN15enterprise_idle11IdleService8ObserverELb1ELb1ENS_8internal22CheckedObserverAdapterEE11AddObserverEPS3_
-[OmniboxPositionChoiceSceneAgent sceneStateDidEnableUI:]
-[OmniboxPositionChoiceSceneAgent setupObservers]
-[OmniboxPositionChoiceSceneAgent booleanDidChange:]
-[OmniboxPositionChoiceSceneAgent promosManager]
__Z39ShouldShowOmniboxPositionChoiceIPHPromoP18ChromeBrowserState
__ZN17PromosManagerImpl15DeregisterPromoEN14promos_manager5PromoE
__ZNSt4__Cr6__treeINS_12__value_typeIN14promos_manager5PromoEN4base4TimeEEENS_19__map_value_compareIS3_S6_NS_4lessIS3_EELb1EEENS_9allocatorIS6_EEE14__erase_uniqueIS3_EEmRKT_
-[PreviousSessionInfo addSceneSessionID:]
-[SceneController displayTitleForAppSwitcher]
-[SceneController recordWindowCreationForSceneState:]
-[MainController startUpAfterFirstWindowCreated]
-[StartupTasks registerForApplicationWillResignActiveNotification]
-[MainController registerForOrientationChangeNotifications]
-[MainController scheduleExternalFileClenup]
__Z21CustomizeUIAppearancev
-[MainController scheduleStartupCleanupTasks]
-[MainController schedulePrefObserverInitialization]
+[DeferredInitializationRunner sharedInstance]
___46+[DeferredInitializationRunner sharedInstance]_block_invoke
-[DeferredInitializationRunner init]
-[DeferredInitializationRunner enqueueBlockNamed:block:]
-[DeferredInitializationRunner cancelBlockNamed:]
-[DeferredInitializationBlock initWithName:block:]
-[DeferredInitializationRunner delayBeforeFirstBlock]
-[DeferredInitializationRunner scheduleNextBlockWithDelay:]
___copy_helper_block_e8_32s40w
-[MainController scheduleCrashReportUpload]
__ZN11cookie_util25ShouldClearSessionCookiesEP11PrefService
-[MainController scheduleDiscardedSessionsCleanup]
-[MainController scheduleSnapshotsCleanup]
-[MainController scheduleSessionStateCacheCleanup]
+[MetricsMediator logLaunchMetricsWithStartupInformation:connectedScenes:]
__Z40RecordAndResetUkmLogSizeOnSuccessCounterv
__ZNK3web12WebStateImpl17GetLastActiveTimeEv
__ZNK3web12WebStateImpl16RealizedWebState17GetLastActiveTimeEv
__ZNK3web12WebStateImpl15GetCreationTimeEv
__ZNK3web12WebStateImpl16RealizedWebState15GetCreationTimeEv
__ZNSt4__Cr6vectorIN4base9TimeDeltaENS_9allocatorIS2_EEE21__push_back_slow_pathIRKS2_EEPS2_OT_
+[MetricsMediator recordInactiveTabsSettingsAtStartup:]
+[MetricsMediator recordStartupActiveTabCount:]
+[MetricsMediator recordStartupInactiveTabCount:]
+[MetricsMediator recordStartupAbsoluteInactiveTabCount:]
+[MetricsMediator recordStartupPinnedTabCount:]
+[MetricsMediator recordStartupTabCount:]
+[MetricsMediator recordStartupNTPTabCount:]
+[MetricsMediator recordStartupOldTabCount:]
+[MetricsMediator recordStartupDuplicatedTabCount:]
+[MetricsMediator recordTabsAgeAtStartup:]
+[MetricsMediator tabsAgeGroupFromTimeSinceCreation:]
+[MetricsMediator recordAndResetWarmStartCount]
-[PreviousSessionInfo warmStartCount]
-[PreviousSessionInfo resetWarmStartCount]
__Z18LogBrowserLaunchedb
-[MainController scheduleLowPriorityStartupTasks]
-[StartupTasks initializeOmaha]
__ZN4base8internal9BindStateILb0ELb1ELb0EU8__strongU13block_pointerFvRK25UpgradeRecommendedDetailsEJEE6CreateIS7_JEEEPS8_PFvvEOT_DpOT0_
__ZN12OmahaService5StartENSt4__Cr10unique_ptrIN7network29PendingSharedURLLoaderFactoryENS0_14default_deleteIS3_EEEERKN4base17RepeatingCallbackIFvRK25UpgradeRecommendedDetailsEEE
__ZN4base8internal9BindStateILb0ELb1ELb0EU8__strongU13block_pointerFvRK25UpgradeRecommendedDetailsEJEE7DestroyEPKNS0_13BindStateBaseE
-[MainController scheduleMemoryDebuggingTools]
__ZN18experimental_flags24IsMemoryDebuggingEnabledEv
+[StartupTasks scheduleDeferredBrowserStateInitialization:]
-[MainController sendQueuedFeedback]
__ZN3ios8provider23IsUserFeedbackSupportedEv
-[MainController scheduleSpotlightResync]
-[MainController scheduleDeleteTempDownloadsDirectory]
-[MainController scheduleDeleteTempPasswordsDirectory]
-[MainController scheduleLogSiriShortcuts]
-[MainController scheduleStartupAttemptReset]
-[MainController startFreeMemoryMonitoring]
__Z22StartFreeMemoryMonitorv
-[MainController scheduleAppDistributionPings]
-[MainController initializeMailtoHandling]
-[MainController scheduleSaveFieldTrialValuesForExternals]
-[MainController scheduleEnterpriseManagedDeviceCheck]
-[MainController scheduleFaviconsCleanup]
-[MainController scheduleLogDocumentsSize]
__ZN15enterprise_idle11IdleService32OnApplicationWillEnterForegroundEv
__ZNK15enterprise_idle11IdleService10GetTimeoutEv
__ZN15enterprise_idle11IdleService17GetLastActiveTimeEv
__ZN10tests_hook17RunTestsIfPresentEv
-[MainController setScreenshotMetricsRecorder:]
-[MainController screenshotMetricsRecorder]
-[ScreenshotMetricsRecorder startRecordingMetrics]
-[StartSurfaceSceneAgent waitingForAppStateAfterSceneStateReady]
-[FirstRunAppAgent handleFirstRunStage]
-[SceneObservingAppAgent notifiedForeground]
-[SceneObservingAppAgent setNotifiedForeground:]
-[SceneObservingAppAgent setNotifiedBackground:]
-[FeedAppAgent appDidEnterForeground]
-[SceneObservingAppAgent appDidEnterForeground]
__Z35ShouldShowStartSurfaceForSceneStateP10SceneState
-[FirstRunAppAgent dealloc]
-[FirstRunAppAgent .cxx_destruct]
__Z21GetPreRestoreIdentityP11PrefService
-[PostRestoreAppAgent setHasAccountInfo:]
-[PostRestoreAppAgent maybeRegisterPromo]
-[PostRestoreAppAgent shouldRegisterPromo]
-[PostRestoreAppAgent deregisterPromos]
-[PostRestoreAppAgent setAuthenticationService:]
-[PostRestoreAppAgent hasAccountInfo]
-[PostRestoreAppAgent shutdown]
-[PostRestoreAppAgent authenticationService]
-[PostRestoreAppAgent setPromosManager:]
-[PostRestoreAppAgent .cxx_destruct]
-[DockingPromoAppAgent maybeRegisterPromo]
__Z30IsDockingPromoForcedForDisplayv
__ZN18experimental_flags23GetForcedPromoToDisplayEv
-[DockingPromoAppAgent .cxx_destruct]
-[NewTabPageHeaderViewController focusAccessibilityOnOmnibox]
-[AppMetricsAppStateAgent sceneState:transitionedToActivationLevel:]
-[AppMetricsAppStateAgent firstSceneHasConnected]
-[MainController setFirstSceneConnectionTime:]
-[AppMetricsAppStateAgent setFirstSceneHasConnected:]
+[MetricsMediator createStartupTrackingTask]
+[MetricKitSubscriber createExtendedLaunchTask]
-[AppMetricsAppStateAgent handleSessionStart]
-[AppState setLastTimeInForeground:]
-[AppMetricsAppStateAgent psdService]
__ZN40IOSProfileSessionDurationsServiceFactory18GetForBrowserStateEP18ChromeBrowserState
__ZNK40IOSProfileSessionDurationsServiceFactory20GetBrowserStateToUseEPN3web12BrowserStateE
__ZNK40IOSProfileSessionDurationsServiceFactory23BuildServiceInstanceForEPN3web12BrowserStateE
__ZN33IOSProfileSessionDurationsServiceC1EPN6syncer11SyncServiceEP11PrefServicePN6signin15IdentityManagerE
__ZN33IOSProfileSessionDurationsServiceC2EPN6syncer11SyncServiceEP11PrefServicePN6signin15IdentityManagerE
__ZN21IOSChromeSigninClient16DelayNetworkCallEN4base12OnceCallbackIFvvEEE
__ZN21IOSChromeSigninClient21CreateGaiaAuthFetcherEP16GaiaAuthConsumerN4gaia10GaiaSourceE
__ZN21IOSChromeSigninClient19GetURLLoaderFactoryEv
__ZN18GaiaAuthFetcherIOSC1EP16GaiaAuthConsumerN4gaia10GaiaSourceE13scoped_refptrIN7network22SharedURLLoaderFactoryEEPN3web12BrowserStateE
__ZN18GaiaAuthFetcherIOSC2EP16GaiaAuthConsumerN4gaia10GaiaSourceE13scoped_refptrIN7network22SharedURLLoaderFactoryEEPN3web12BrowserStateE
__ZN24GaiaAuthFetcherIOSBridge32GaiaAuthFetcherIOSBridgeDelegateC2Ev
__ZN36GaiaAuthFetcherIOSNSURLSessionBridgeC1EPN24GaiaAuthFetcherIOSBridge32GaiaAuthFetcherIOSBridgeDelegateEPN3web12BrowserStateE
__ZN36GaiaAuthFetcherIOSNSURLSessionBridgeC2EPN24GaiaAuthFetcherIOSBridge32GaiaAuthFetcherIOSBridgeDelegateEPN3web12BrowserStateE
__ZN24GaiaAuthFetcherIOSBridgeC2EPNS_32GaiaAuthFetcherIOSBridgeDelegateE
-[GaiaAuthFetcherIOSURLSessionDelegate setBridge:]
__ZN18GaiaAuthFetcherIOS25CreateAndStartGaiaFetcherERKNSt4__Cr12basic_stringIcNS0_11char_traitsIcEENS0_9allocatorIcEEEES8_S8_RK4GURLN7network5mojom15CredentialsModeERKN3net27NetworkTrafficAnnotationTagE
__ZN36GaiaAuthFetcherIOSNSURLSessionBridge5FetchERK4GURLRKNSt4__Cr12basic_stringIcNS3_11char_traitsIcEENS3_9allocatorIcEEEESB_b
__ZN36GaiaAuthFetcherIOSNSURLSessionBridge7RequestC2ERK4GURLRKNSt4__Cr12basic_stringIcNS4_11char_traitsIcEENS4_9allocatorIcEEEESC_b
__ZN4base8internal17UnretainedWrapperI36GaiaAuthFetcherIOSNSURLSessionBridgeNS_17unretained_traits12MayNotDangleELN15partition_alloc8internal12RawPtrTraitsE0EEC2EPS2_QeqT1_LS7_0E
__ZN4base8internal9BindStateILb1ELb1ELb0EM36GaiaAuthFetcherIOSNSURLSessionBridgeFvRKNSt4__Cr6vectorIN3net22CookieWithAccessResultENS3_9allocatorIS6_EEEESB_EJNS0_17UnretainedWrapperIS2_NS_17unretained_traits12MayNotDangleELN15partition_alloc8internal12RawPtrTraitsE0EEEEEC2ISD_JSK_EQntsr18CancellationTraitsE14is_cancellableEEPFvvEOT_DpOT0_
__ZN33IOSProfileSessionDurationsService16OnSessionStartedEN4base9TimeTicksE
-[SafeModeAppAgent sceneState:transitionedToActivationLevel:]
-[SceneObservingAppAgent sceneState:transitionedToActivationLevel:]
-[SearchEngineChoiceAppAgent sceneState:transitionedToActivationLevel:]
-[VariationsAppStateAgent sceneState:transitionedToActivationLevel:]
-[IncognitoUsageAppStateAgent sceneState:transitionedToActivationLevel:]
-[ScreenObserver mainScreenChanged]
-[OverscrollActionsController deviceOrientationDidChange]
-[OverscrollActionsController overscrollState]
-[NewTabPageViewController deviceOrientationDidChange]
-[MainController orientationDidChange:]
__Z23GetInterfaceOrientationv
__ZN10crash_keys21SetCurrentOrientationEii
-[MainApplicationDelegate firstSceneWillEnterForeground:]
+[PushNotificationUtil registerDeviceWithAPNS]
+[PushNotificationUtil getPermissionSettings:]
___copy_helper_block_e8_32b40c49_ZTS13scoped_refptrIN4base19SequencedTaskRunnerEE
-[UserInterfaceStyleRecorder applicationWillEnterForeground:]
-[UserInterfaceStyleRecorder setApplicationInBackground:]
____ZN4base24PowerMonitorDeviceSource12PlatformInitEv_block_invoke
-[BaseSpotlightManager appWillEnterForeground]
-[BaseSpotlightManager setIsAppInBackground:]
-[BookmarksSpotlightManager appWillEnterForeground]
-[BookmarksSpotlightManager needsClearAndReindex]
-[BookmarksSpotlightManager indexNextBatchInStack]
-[BookmarksSpotlightManager setNextBatchOperation:]
-[BookmarksSpotlightManager setModelUpdatesShouldCauseFullReindex:]
-[BookmarksSpotlightManager logInitialIndexComplete]
-[BookmarksSpotlightManager stopIndexing]
__ZNSt4__Cr5dequeINS_4pairI17BookmarkModelTypeN4base4UuidEEENS_9allocatorIS5_EEE5clearEv
__ZNSt4__Cr5dequeINS_4pairI17BookmarkModelTypeN4base4UuidEEENS_9allocatorIS5_EEE13shrink_to_fitEv
__ZNSt4__Cr14__split_bufferIPNS_4pairI17BookmarkModelTypeN4base4UuidEEENS_9allocatorIS6_EEE13shrink_to_fitEv
-[BookmarksSpotlightManager nextBatchOperation]
-[ReadingListSpotlightManager appWillEnterForeground]
-[ReadingListSpotlightManager clearAndReindexIfNeeded]
-[ReadingListSpotlightManager needsClearAndReindex]
-[ReadingListSpotlightManager indexAllItemsIfNeeded]
-[ReadingListSpotlightManager needsFullIndex]
-[OpenTabsSpotlightManager appWillEnterForeground]
-[OpenTabsSpotlightManager needsClearAndReindex]
-[OpenTabsSpotlightManager needsFullIndex]
____ZN21TabPickupBrowserAgentC2EP7Browser_block_invoke
____ZN28TabUsageRecorderBrowserAgentC2EP7Browser_block_invoke_2
-[UpgradeCenter applicationWillEnterForeground:]
-[FullscreenSystemNotificationObserver applicationWillEnterForeground]
-[FullscreenSystemNotificationObserver mediator]
__ZN18FullscreenMediator14ExitFullscreenEv
__ZNK15FullscreenModel21IsForceFullscreenModeEv
__ZN15FullscreenModel30IgnoreRemainderOfCurrentScrollEv
__ZN18FullscreenMediator16AnimateWithStyleE23FullscreenAnimatorStyle
__Z38GetFinalFullscreenProgressForAnimation23FullscreenAnimatorStyle
__Z16AreCGFloatsEqualdd
-[ZeroSuggestPrefetchHelper updateForAppWillForeground]
__ZN30AutocompleteProviderClientImpl23set_in_background_stateEb
-[FullscreenAnimator .cxx_construct]
-[FullscreenAnimator initWithStartProgress:style:]
__ZN4base14WeakPtrFactoryI18FullscreenMediatorE10GetWeakPtrEvQntsr3stdE10is_const_vIT_E
-[OptionalPropertyAnimator addAnimations:]
-[OptionalPropertyAnimator setHasAnimations:]
___copy_helper_block_e8_32c41_ZTSN4base7WeakPtrI18FullscreenMediatorEE
__ZN19FullscreenUIUpdater37FullscreenControllerObserverForwarder21FullscreenWillAnimateEP20FullscreenControllerP18FullscreenAnimator
-[FullscreenAnimator finalProgress]
-[LocationBarViewController animateFullscreenWithAnimator:]
-[AdaptiveToolbarViewController animateFullscreenWithAnimator:]
___63-[AdaptiveToolbarViewController animateFullscreenWithAnimator:]_block_invoke
-[OptionalPropertyAnimator hasAnimations]
-[OptionalPropertyAnimator startAnimation]
-[FullscreenAnimator isInterruptible]
____ZN18FullscreenMediator16AnimateWithStyleE23FullscreenAnimatorStyle_block_invoke
-[FullscreenWebViewResizer forceToUpdateToProgress:]
____ZN19FullscreenUIUpdater37FullscreenControllerObserverForwarder21FullscreenWillAnimateEP20FullscreenControllerP18FullscreenAnimator_block_invoke
___59-[LocationBarViewController animateFullscreenWithAnimator:]_block_invoke
___destroy_helper_block_e8_32c41_ZTSN4base7WeakPtrI18FullscreenMediatorEE
____ZN13safe_browsing29ChromeTailoredSecurityServiceC2EP18ChromeBrowserStatePN6signin15IdentityManagerEPN6syncer11SyncServiceE_block_invoke.3
____ZN4base15CallbackToBlockIvJU8__strongP14NSNotificationEEEDaNS_17RepeatingCallbackIFT_DpT0_EEE_block_invoke
__ZNKR4base17RepeatingCallbackIFvP14NSNotificationEE3RunES2_
__ZN4base8internal7InvokerINS0_13FunctorTraitsIRKZNS_10IgnoreArgsIJU8__strongP14NSNotificationEJEEENS_17RepeatingCallbackIFvDpT_DpT0_EEENS7_IFvSB_EEEEUlNS7_IFvvEEES5_E_JRKSH_EEENS0_9BindStateILb0ELb0ELb0ESI_JSH_EEEFvS5_EE3RunEPNS0_13BindStateBaseEOS6_
__ZNO4base17RepeatingCallbackIFvvEE3RunEv
__ZN4base8internal7InvokerINS0_13FunctorTraitsIRKM35PageloadForegroundDurationTabHelperFvvEJRKNS_7WeakPtrIS3_EEEEENS0_9BindStateILb1ELb1ELb0ES5_JS9_EEEFvvEE3RunEPNS0_13BindStateBaseE
__ZN35PageloadForegroundDurationTabHelper26UpdateForAppWillForegroundEv
__ZNK3web12WebStateImpl16RealizedWebState9IsVisibleEv
-[OmniboxTextFieldExperimental selectionRectsForRange:]
-[OmniboxTextFieldExperimental isPreEditing]
-[GeolocationLogger setPermissionStatus:]
___46+[PushNotificationUtil getPermissionSettings:]_block_invoke.22
___destroy_helper_block_e8_32s40c49_ZTS13scoped_refptrIN4base19SequencedTaskRunnerEE
-[TabGridViewController viewDidLayoutSubviews]
-[TabGridViewController setInsetForGridViews]
-[TabGridViewController isScrollViewAnimatingContentOffset]
-[TabGridViewController scrollViewDidScroll:]
-[PinnedTabsLayout prepareLayout]
-[PinnedTabsViewController numberOfSectionsInCollectionView:]
-[PinnedTabsViewController collectionView:numberOfItemsInSection:]
-[BaseGridViewController scrollViewDidScroll:]
-[TabGridViewController gridViewControllerScrollViewDidScroll:]
___18-[GridLayout init]_block_invoke
-[GridLayout sectionAtIndex:layoutEnvironment:]
-[GridLayout tabsSectionHeaderType]
-[GridLayout sectionInsets]
__ZN12_GLOBAL__N_111TabsSectionEPU40objcproto29NSCollectionLayoutEnvironment11objc_object21TabsSectionHeaderType23NSDirectionalEdgeInsets
___34-[BaseGridViewController loadView]_block_invoke
-[BaseGridViewController cellForItemAtIndexPath:itemIdentifier:]
__Z23IsTabGroupInGridEnabledv
-[BaseGridViewController gridCellRegistration]
-[TabCell .cxx_construct]
-[GridCell initWithFrame:]
-[GridCell setupSelectedBackgroundView]
-[GridCell isInSelectionMode]
-[GridCell state]
-[GridCell setupTopBar]
-[GridCell selectIconImageForCurrentState]
-[GridCell updateTopBarSize]
-[GridCell topBarHeight]
-[GridCell topBarHeightConstraint]
-[GridCell titleLabel]
-[GridCell configureCloseOrSelectIconConstraints]
-[GridCell closeIconView]
-[GridCell selectIconView]
__Z24AddSameCenterXConstraintP6UIViewPU30objcproto19LayoutGuideProvider11objc_objectS2_
__Z24AddSameCenterYConstraintP6UIViewPU30objcproto19LayoutGuideProvider11objc_objectS2_
-[TopAlignedImageView init]
-[PriceCardView willMoveToSuperview:]
-[PriceCardView setupViews]
-[GridCell snapshotView]
-[GridCell topBar]
-[GridCell setAlpha:]
___45-[BaseGridViewController createRegistrations]_block_invoke.558
-[BaseGridViewController configureCell:withItem:atIndex:]
-[GridCell setDelegate:]
-[BaseGridViewController theme]
-[GridCell setTheme:]
-[GridCell border]
-[TabCell setItemIdentifier:]
-[WebStateTabSwitcherItem title]
__ZN8tab_util11GetTabTitleEPKN3web8WebStateE
-[GridCell setTitle:]
-[WebStateTabSwitcherItem hidesTitle]
-[GridCell setTitleHidden:]
-[GridCell setState:]
-[WebStateTabSwitcherItem fetchFavicon:]
-[WebStateTabSwitcherItem NTPFavicon]
___57-[BaseGridViewController configureCell:withItem:atIndex:]_block_invoke
-[TabCell itemIdentifier]
-[GridCell setIcon:]
-[GridCell iconView]
-[WebStateTabSwitcherItem fetchSnapshot:]
__ZN17SnapshotTabHelper21RetrieveColorSnapshotEU13block_pointerFvP7UIImageE
-[SnapshotManager retrieveSnapshot:]
-[SnapshotStorage retrieveImageForSnapshotID:callback:]
-[LegacySnapshotLRUCache objectForKey:]
__ZN4base8internal9BindStateILb0ELb1ELb0EU8__strongU13block_pointerFvP7UIImageEJEE6CreateIS6_JEEEPS7_PFvvEOT_DpOT0_
-[LegacyImageFileManager readImageWithSnapshotID:completion:]
__ZN4base8BindOnceIPFP7UIImage10SnapshotIDN12_GLOBAL__N_19ImageTypeE10ImageScaleRKNS_8FilePathEEJRS3_S5_RS6_RS7_EEEDaOT_DpOT0_
__ZN4base10TaskRunner26PostTaskAndReplyWithResultIU8__strongP7UIImageS4_NS_12OnceCallbackES5_Qaa14IsBaseCallbackIT1_IFvvEEE14IsBaseCallbackIT2_IS7_EEEEbRKNS_8LocationES6_IFT_vEES9_IFvT0_EE
__ZN4base8internal9BindStateILb0ELb1ELb0EPFvNS_12OnceCallbackIFP7UIImagevEEEPNSt4__Cr10unique_ptrIU8__strongS4_NS7_14default_deleteIS9_EEEEEJS6_NS0_17UnretainedWrapperISC_NS_17unretained_traits12MayNotDangleELN15partition_alloc8internal12RawPtrTraitsE0EEEEEC2ISF_JS6_RSD_EQntsr18CancellationTraitsE14is_cancellableEEPFvvEOT_DpOT0_
__ZN4base8internal17UnretainedWrapperINSt4__Cr10unique_ptrIU8__strongP7UIImageNS2_14default_deleteIS6_EEEENS_17unretained_traits12MayNotDangleELN15partition_alloc8internal12RawPtrTraitsE0EEC2EPS9_QeqT1_LSE_0E
__ZN4base8internal9BindStateILb0ELb1ELb0EPFvNS_12OnceCallbackIFvP7UIImageEEEPNSt4__Cr10unique_ptrIU8__strongS4_NS7_14default_deleteIS9_EEEEEJS6_NS0_12OwnedWrapperISC_NSA_ISC_EEEEEEC2ISF_JS6_SI_EQntsr18CancellationTraitsE14is_cancellableEEPFvvEOT_DpOT0_
-[BaseGridViewController priceCardDataSource]
-[PriceCardMediator priceCardForIdentifier:completion:]
-[PriceCardMediator webStateList]
__ZN4base8internal7InvokerINS0_13FunctorTraitsIOPFvNS_12OnceCallbackIFP7UIImagevEEEPNSt4__Cr10unique_ptrIU8__strongS5_NS8_14default_deleteISA_EEEEEJOS7_OSE_EEENS0_9BindStateILb0ELb1ELb0ESG_JS7_NS0_17UnretainedWrapperISD_NS_17unretained_traits12MayNotDangleELN15partition_alloc8internal12RawPtrTraitsE0EEEEEEFvvEE7RunOnceEPNS0_13BindStateBaseE
__Z11GetWebStateP12WebStateList22WebStateSearchCriteria
__Z16GetWebStateIndexP12WebStateList22WebStateSearchCriteria
__ZN4base8internal20ReturnAsParamAdapterIU8__strongP7UIImageEEvNS_12OnceCallbackIFT_vEEEPNSt4__Cr10unique_ptrIS6_NS9_14default_deleteIS6_EEEE
__ZNO4base12OnceCallbackIFP7UIImagevEE3RunEv
__Z19CreatePriceCardItemPN3web8WebStateE
___57-[BaseGridViewController configureCell:withItem:atIndex:]_block_invoke_3
__ZN4base8internal7InvokerINS0_13FunctorTraitsIOPFP7UIImage10SnapshotIDN12_GLOBAL__N_19ImageTypeE10ImageScaleRKNS_8FilePathEEJOS5_OS7_OS8_OS9_EEENS0_9BindStateILb0ELb1ELb0ESD_JS5_S7_S8_S9_EEEFS4_vEE7RunOnceEPNS0_13BindStateBaseE
__ZN12_GLOBAL__N_130ReadImageForSnapshotIDFromDiskE10SnapshotIDNS_9ImageTypeE10ImageScaleRKN4base8FilePathE
-[GridCell setOpacity:]
-[WebStateTabSwitcherItem showsActivity]
__ZN12_GLOBAL__N_19ImagePathE10SnapshotIDNS_9ImageTypeE10ImageScaleRKN4base8FilePathE
-[GridCell showActivityIndicator]
-[GridCell activityIndicator]
-[BaseGridViewController pointerInteractionCells]
+[SnapshotImageScale floatImageScaleForDevice]
-[GridCell didMoveToWindow]
-[GridCell theme]
__ZN4base8internal9BindStateILb0ELb1ELb0EPFP7UIImage10SnapshotIDN12_GLOBAL__N_19ImageTypeE10ImageScaleRKNS_8FilePathEEJS4_S6_S7_S8_EE7DestroyEPKNS0_13BindStateBaseE
__ZN4base8internal9BindStateILb0ELb1ELb0EPFvNS_12OnceCallbackIFP7UIImagevEEEPNSt4__Cr10unique_ptrIU8__strongS4_NS7_14default_deleteIS9_EEEEEJS6_NS0_17UnretainedWrapperISC_NS_17unretained_traits12MayNotDangleELN15partition_alloc8internal12RawPtrTraitsE0EEEEE7DestroyEPKNS0_13BindStateBaseE
__ZN4base8internal9BindStateILb0ELb1ELb0EPFvNS_12OnceCallbackIFP7UIImagevEEEPNSt4__Cr10unique_ptrIU8__strongS4_NS7_14default_deleteIS9_EEEEEJS6_NS0_17UnretainedWrapperISC_NS_17unretained_traits12MayNotDangleELN15partition_alloc8internal12RawPtrTraitsE0EEEEED2Ev
-[TopAlignedImageView layoutSubviews]
-[TopAlignedImageView image]
-[TopAlignedImageView innerImageView]
-[TabGridViewController keyCommands]
+[UIKeyCommand(Chrome) cr_openNewRegularTab]
+[UIKeyCommand(Chrome) cr_select2]
+[UIKeyCommand(Chrome) cr_select3]
-[MainApplicationDelegate buildMenuWithBuilder:]
+[MenuBuilder buildMainMenuWithBuilder:]
+[UIKeyCommand(Chrome) cr_openNewTab]
+[UIKeyCommand(Chrome) cr_commandWithInput:modifierFlags:action:titleIDAsString:]
+[UIKeyCommand(Chrome) cr_openNewIncognitoTab]
+[UIKeyCommand(Chrome) cr_openNewWindow]
+[UIKeyCommand(Chrome) cr_openNewIncognitoWindow]
+[UIKeyCommand(Chrome) cr_openLocation]
+[UIKeyCommand(Chrome) cr_closeTab]
+[UIKeyCommand(Chrome) cr_voiceSearch]
+[UIKeyCommand(Chrome) cr_closeAll]
+[UIKeyCommand(Chrome) cr_find]
+[UIKeyCommand(Chrome) cr_findNext]
+[UIKeyCommand(Chrome) cr_findPrevious]
+[UIKeyCommand(Chrome) cr_stop]
+[UIKeyCommand(Chrome) cr_reload]
+[UIKeyCommand(Chrome) cr_goToTabGrid]
+[UIKeyCommand(Chrome) cr_back]
+[UIKeyCommand(Chrome) cr_forward]
+[UIKeyCommand(Chrome) cr_reopenLastClosedTab]
+[UIKeyCommand(Chrome) cr_showHistory]
+[UIKeyCommand(Chrome) cr_clearBrowsingData]
+[UIKeyCommand(Chrome) cr_showBookmarks]
+[UIKeyCommand(Chrome) cr_addToBookmarks]
+[UIKeyCommand(Chrome) cr_showReadingList]
+[UIKeyCommand(Chrome) cr_addToReadingList]
+[UIKeyCommand(Chrome) cr_showNextTab]
+[UIKeyCommand(Chrome) cr_showPreviousTab]
+[UIKeyCommand(Chrome) cr_select1]
+[UIKeyCommand(Chrome) cr_select9]
+[UIKeyCommand(Chrome) cr_showDownloads]
+[UIKeyCommand(Chrome) cr_showSettings]
+[UIKeyCommand(Chrome) cr_showHelp]
+[UIKeyCommand(Chrome) cr_reportAnIssue]
-[GeolocationLogger locationManagerDidChangeAuthorization:]
-[GeolocationLogger permissionStatus]
____ZN3web25WKContentRuleListProviderC2Eb_block_invoke.6
____ZN12_GLOBAL__N_128FieldTrialListObserverBridge26OnFieldTrialGroupFinalizedERKN4base10FieldTrialERKNSt4__Cr12basic_stringIcNS5_11char_traitsIcEENS5_9allocatorIcEEEE_block_invoke
___55-[OpenTabsSpotlightManager addAllURLsFromWebStateList:]_block_invoke
-[OpenTabsSpotlightManager indexNextBatchFromQueue]
___104-[OmniboxFocusOrchestrator transitionToStateOmniboxFocused:toolbarExpanded:trigger:animated:completion:]_block_invoke
-[OmniboxFocusOrchestrator defocusOmniboxAnimated:]
___51-[OmniboxFocusOrchestrator defocusOmniboxAnimated:]_block_invoke
-[OmniboxFocusOrchestrator locationBarAnimatee]
-[LocationBarViewController setEditViewHidden:]
-[LocationBarViewController setSteadyViewHidden:]
-[LocationBarViewController showSteadyViewBadgeView]
-[LocationBarSteadyView displayBadgeView:animated:]
___51-[LocationBarSteadyView displayBadgeView:animated:]_block_invoke
-[LocationBarViewController resetTransforms]
-[LocationBarViewController textField]
-[LocationBarViewController setSteadyViewFaded:]
-[OmniboxFocusOrchestrator editViewAnimatee]
-[OmniboxViewController setLeadingIconScale:]
-[OmniboxContainerView setLeadingImageScale:]
-[OmniboxViewController setClearButtonFaded:]
-[OmniboxFocusOrchestrator inProgressAnimationCount]
___55-[BrowserViewController setItemsRequireAuthentication:]_block_invoke_2
___61-[IncognitoGridViewController setItemsRequireAuthentication:]_block_invoke.46
-[IncognitoGridViewController blockingViewDidHide:]
-[IncognitoGridViewController contentNeedsAuthentication]
____ZN18FullscreenMediator16AnimateWithStyleE23FullscreenAnimatorStyle_block_invoke.36
__ZN15FullscreenModel26AnimationEndedWithProgressEd
-[FullscreenAnimator .cxx_destruct]
-[SceneDelegate sceneDidBecomeActive:]
-[AppState uiBlockerTarget]
-[SceneState setPresentingModalOverlay:]
-[PushNotificationDelegate appState:sceneDidBecomeActive:]
__ZN22ApplicationContextImpl26GetPushNotificationServiceEv
__ZN3ios8provider29CreatePushNotificationServiceEv
__ZN23PushNotificationServiceC2Ev
__ZN29PushNotificationClientManagerC1Ev
__ZN29PushNotificationClientManagerC2Ev
__Z27IsPriceNotificationsEnabledv
__ZN30CommercePushNotificationClientC1Ev
__ZN22PushNotificationClientC2E24PushNotificationClientId
__ZN22PushNotificationClient11GetClientIdEv
__ZNSt4__Cr12__hash_tableINS_17__hash_value_typeI24PushNotificationClientIdNS_10unique_ptrI22PushNotificationClientNS_14default_deleteIS4_EEEEEENS_22__unordered_map_hasherIS2_S8_NS_4hashIS2_EENS_8equal_toIS2_EELb1EEENS_21__unordered_map_equalIS2_S8_SD_SB_Lb1EEENS_9allocatorIS8_EEE25__emplace_unique_key_argsIS2_JNS_4pairIS2_S7_EEEEENSL_INS_15__hash_iteratorIPNS_11__hash_nodeIS8_PvEEEEbEERKT_DpOT0_
__ZNSt4__Cr12__hash_tableINS_17__hash_value_typeI24PushNotificationClientIdNS_10unique_ptrI22PushNotificationClientNS_14default_deleteIS4_EEEEEENS_22__unordered_map_hasherIS2_S8_NS_4hashIS2_EENS_8equal_toIS2_EELb1EEENS_21__unordered_map_equalIS2_S8_SD_SB_Lb1EEENS_9allocatorIS8_EEE11__do_rehashILb1EEEvm
-[PushNotificationAccountContextManager .cxx_construct]
-[PushNotificationAccountContextManager initWithChromeBrowserStateManager:]
-[PushNotificationAccountContextManager addAccount:]
__ZN23PushNotificationService32GetPushNotificationClientManagerEv
__ZN29PushNotificationClientManager35OnSceneActiveForegroundBrowserReadyEv
__ZN22PushNotificationClient35OnSceneActiveForegroundBrowserReadyEv
-[SceneController backgroundedSinceLastActivated]
-[SceneController tryPresentSigninModalUI]
-[SceneController shouldPresentSigninUpgradePromo]
-[SceneController isTabAvailableToPresentViewController]
-[SceneController signinCoordinator]
-[SceneController settingsNavigationController]
-[AppState currentUIBlocker]
__ZN6signin30ShouldPresentUserSigninUpgradeEP18ChromeBrowserStateP11PrefServiceRKN4base7VersionE
__ZN10tests_hook25DisableUpgradeSigninPromoEv
-[SceneController handleExternalIntents]
-[SceneController canHandleIntents]
-[SceneState presentingModalOverlay]
-[BubblePresenter presentTabGridToolbarItemBubble]
__ZN23iph_for_new_chrome_user23IsUserNewSafariSwitcherEPN21segmentation_platform30DeviceSwitcherResultDispatcherE
__ZN18experimental_flags43GetSegmentForForcedDeviceSwitcherExperienceEv
-[BrowserViewWrangler hasIncognitoBrowserProvider]
-[BrowserViewWrangler incognitoBrowserProvider]
-[AppMetricsAppStateAgent firstSceneHasActivated]
-[AppMetricsAppStateAgent setFirstSceneHasActivated:]
+[MetricsMediator logStartupDuration:]
+[MetricKitSubscriber endExtendedLaunchTask]
-[MainController appLaunchTime]
-[MainController didFinishLaunchingTime]
-[MainController firstSceneConnectionTime]
-[SearchEngineChoiceAppAgent maybeShowChoiceScreen:]
__Z37ShouldDisplaySearchEngineChoiceScreenR18ChromeBrowserStateN14search_engines11ChoicePromoE
__ZN10tests_hook32DisableDefaultSearchEngineChoiceEv
__ZN3ios8provider32DisableDefaultSearchEngineChoiceEv
-[AppLauncherSceneStateObserver sceneState:transitionedToActivationLevel:]
__ZN4base8internal7InvokerINS0_13FunctorTraitsIRKMN23AppLauncherBrowserAgent17TabHelperDelegateEFvvEJRKNS_7WeakPtrIS4_EEEEENS0_9BindStateILb1ELb1ELb0ES6_JSA_EEEFvvEE3RunEPNS0_13BindStateBaseE
__ZN23AppLauncherBrowserAgent17TabHelperDelegate27SceneActivationLevelChangedEv
-[PopupMenuHelpCoordinator sceneState:transitionedToActivationLevel:]
-[PopupMenuHelpCoordinator prepareToShowPopupMenuBubble]
-[PopupMenuHelpCoordinator featureEngagementTracker]
-[PopupMenuHelpCoordinator browserState]
__ZN4base8internal9BindStateILb0ELb1ELb0EU8__strongU13block_pointerFvbEJEE6CreateIS4_JEEEPS5_PFvvEOT_DpOT0_
-[DefaultBrowserPromoSceneAgent sceneState:transitionedToActivationLevel:]
-[DefaultBrowserPromoSceneAgent promosManager]
-[DefaultBrowserPromoSceneAgent updatePostRestorePromoRegistration]
__Z39IsPostRestoreDefaultBrowserEligibleUserv
-[DefaultBrowserPromoSceneAgent updatePostDefaultAbandonmentPromoRegistration]
__Z40IsEligibleForPostDefaultAbandonmentPromov
-[DefaultBrowserPromoSceneAgent updateAllTabsPromoRegistration]
-[DefaultBrowserPromoSceneAgent isSignedIn]
-[DefaultBrowserPromoSceneAgent updateMadeForIOSPromoRegistration]
__ZN17PromosManagerImpl29RegisterPromoForSingleDisplayEN14promos_manager5PromoE
__ZN12_GLOBAL__N_134ConditionallyAppendPromoToPrefListEN14promos_manager5PromoERKNSt4__Cr12basic_stringIcNS2_11char_traitsIcEENS2_9allocatorIcEEEEP11PrefService
-[DefaultBrowserPromoSceneAgent updateStaySafePromoRegistration]
__Z35ShouldRegisterPromoWithPromoManagerb
__Z29UserInFullscreenPromoCooldownv
__ZN12_GLOBAL__N_126GetObjectFromStorageForKeyI8NSNumberEEPT_P8NSString
__ZN4base4Time10FromNSDateEP6NSDate
-[BaseDefaultBrowserPromoSchedulerSceneAgent sceneState:transitionedToActivationLevel:]
-[NonModalDefaultBrowserPromoSchedulerSceneAgent onEnteringForeground]
-[SigninPolicySceneAgent sceneState:transitionedToActivationLevel:]
-[SceneState signinInProgress]
-[AppState shouldShowForceSignOutPrompt]
-[SigninPolicySceneAgent isForcedSignInRequiredByPolicy]
-[IdleTimeoutPolicySceneAgent sceneState:transitionedToActivationLevel:]
-[IdleTimeoutPolicySceneAgent handleExtendedLaunchScreenWindowForSceneActivationLevel:]
-[IdleTimeoutPolicySceneAgent maybeShowPostActionSnackbar]
-[IdleTimeoutPolicySceneAgent isLaunchScreenDisplayed]
-[IdleTimeoutPolicySceneAgent isUIAvailableToShowSnackbar]
-[NewTabPageCoordinator sceneState:transitionedToActivationLevel:]
-[SetUpListMediator sceneState:transitionedToActivationLevel:]
-[TabGridCoordinator sceneState:transitionedToActivationLevel:]
-[AppStoreRatingSceneAgent sceneState:transitionedToActivationLevel:]
-[AppStoreRatingSceneAgent isUserEngaged]
-[AppStoreRatingSceneAgent isDefaultBrowserConditionMet]
__Z42IsDefaultBrowserConditionExclusionInEffectv
__Z47GetCountriesExcludedFromDefaultBrowserConditionv
-[AppStoreRatingSceneAgent isCredentialsProviderConditionMet]
-[WhatsNewSceneAgent sceneState:transitionedToActivationLevel:]
-[WhatsNewSceneAgent promosManager]
__ZN17PromosManagerImpl33RegisterPromoForContinuousDisplayEN14promos_manager5PromoE
-[CredentialProviderPromoSceneAgent sceneState:transitionedToActivationLevel:]
-[CredentialProviderPromoSceneAgent isCPEEnabled]
-[OmniboxPositionChoiceSceneAgent sceneState:transitionedToActivationLevel:]
-[OmniboxPositionChoiceSceneAgent registerPromoIfNecessary]
__ZZN12_GLOBAL__N_111AddObserverIN8crashpad8internal22IOSSystemDataCollectorETnMT_FvvEXadL_ZNS3_38ApplicationDidChangeActiveNotificationEvEEEEvPK10__CFStringPS4_ENUlP22__CFNotificationCenterPvS9_PKvPK14__CFDictionaryE_8__invokeESC_SD_S9_SF_SI_
-[UserInterfaceStyleRecorder applicationDidBecomeActive:]
-[UserInterfaceStyleRecorder setInitialUserInterfaceStyle:]
-[ClipboardRecentContentImplIOS didBecomeActive:]
-[WindowConfigurationRecorder applicationDidBecomeActive]
-[WindowConfigurationRecorder setRecording:]
__ZN4base8internal7InvokerINS0_13FunctorTraitsIRKM15SadTabTabHelperFvvEJRKNS_7WeakPtrIS3_EEEEENS0_9BindStateILb1ELb1ELb0ES5_JS9_EEEFvvEE3RunEPNS0_13BindStateBaseE
__ZN15SadTabTabHelper20OnAppDidBecomeActiveEv
-[OmniboxViewController applicationDidBecomeActive:]
-[OmniboxViewController updateCachedClipboardState]
-[OmniboxViewController isUpdatingCachedClipboardState]
-[OmniboxViewController setIsUpdatingCachedClipboardState:]
-[OmniboxViewController setHasCopiedContent:]
__ZNSt4__Cr6__treeI20ClipboardContentTypeNS_4lessIS1_EENS_9allocatorIS1_EEE30__emplace_hint_unique_key_argsIS1_JRKS1_EEENS_4pairINS_15__tree_iteratorIS1_PNS_11__tree_nodeIS1_PvEElEEbEENS_21__tree_const_iteratorIS1_SF_lEERKT_DpOT0_
__ZNSt4__Cr6__treeI20ClipboardContentTypeNS_4lessIS1_EENS_9allocatorIS1_EEE12__find_equalIS1_EERPNS_16__tree_node_baseIPvEENS_21__tree_const_iteratorIS1_PNS_11__tree_nodeIS1_S9_EElEERPNS_15__tree_end_nodeISB_EESC_RKT_
__ZN4base8internal9BindStateILb0ELb1ELb0EU8__strongU13block_pointerFvNSt4__Cr3setI20ClipboardContentTypeNS2_4lessIS4_EENS2_9allocatorIS4_EEEEEJEE6CreateISC_JEEEPSD_PFvvEOT_DpOT0_
__ZN25ClipboardRecentContentIOS29HasRecentContentFromClipboardENSt4__Cr3setI20ClipboardContentTypeNS0_4lessIS2_EENS0_9allocatorIS2_EEEEN4base12OnceCallbackIFvS7_EEE
___copy_helper_block_e8_32r40c49_ZTS13scoped_refptrIN4base19SequencedTaskRunnerEE
__ZNSt4__Cr6__treeI20ClipboardContentTypeNS_4lessIS1_EENS_9allocatorIS1_EEE7destroyEPNS_11__tree_nodeIS1_PvEE
-[LaunchScreenViewController .cxx_destruct]
-[BrowserViewController viewDidAppear:]
-[BrowserViewController setViewVisible:]
__ZN24FullscreenControllerImpl11broadcasterEv
-[ToolbarUIState setCollapsedTopToolbarHeight:]
-[ToolbarUIState setExpandedTopToolbarHeight:]
-[ToolbarUIState setCollapsedBottomToolbarHeight:]
-[ToolbarUIState setExpandedBottomToolbarHeight:]
__Z26StartBroadcastingToolbarUIPU19objcproto9ToolbarUI11objc_objectP17ChromeBroadcaster
-[ChromeBroadcaster broadcastValue:ofObject:selector:]
-[BroadcastItem initWithObject:key:name:]
-[BroadcastItem addObserver:]
-[BroadcastItem object]
-[BroadcastItem key]
-[BroadcastItem name]
-[ToolbarUIState collapsedTopToolbarHeight]
-[ChromeBroadcaster observeValueForKeyPath:ofObject:change:context:]
-[ChromeBroadcaster invocationForName:value:]
-[ChromeBroadcastOberverBridge broadcastCollapsedTopToolbarHeight:]
-[ChromeBroadcastOberverBridge observer]
__ZN15FullscreenModel38OnCollapsedTopToolbarHeightBroadcastedEd
__ZN15FullscreenModel28SetCollapsedTopToolbarHeightEd
__ZN18FullscreenMediator36FullscreenModelToolbarHeightsUpdatedEP15FullscreenModel
-[ToolbarUIState expandedTopToolbarHeight]
-[ChromeBroadcastOberverBridge broadcastExpandedTopToolbarHeight:]
__ZN15FullscreenModel37OnExpandedTopToolbarHeightBroadcastedEd
__ZN15FullscreenModel27SetExpandedTopToolbarHeightEd
-[ToolbarUIState collapsedBottomToolbarHeight]
-[ChromeBroadcastOberverBridge broadcastCollapsedBottomToolbarHeight:]
__ZN15FullscreenModel41OnCollapsedBottomToolbarHeightBroadcastedEd
__ZN15FullscreenModel31SetCollapsedBottomToolbarHeightEd
-[ToolbarUIState expandedBottomToolbarHeight]
-[ChromeBroadcastOberverBridge broadcastExpandedBottomToolbarHeight:]
__ZN15FullscreenModel40OnExpandedBottomToolbarHeightBroadcastedEd
__ZN15FullscreenModel30SetExpandedBottomToolbarHeightEd
-[MainContentUIStateUpdater initWithState:]
-[WebScrollViewMainContentUIForwarder .cxx_construct]
-[WebScrollViewMainContentUIForwarder initWithUpdater:webStateList:]
-[MainContentUIStateUpdater scrollViewSizeDidChange:]
-[MainContentUIStateUpdater state]
-[MainContentUIState setScrollViewSize:]
-[MainContentUIStateUpdater scrollViewDidResetContentSize:]
-[MainContentUIState setContentSize:]
-[MainContentUIStateUpdater scrollViewDidResetContentInset:]
-[MainContentUIState setContentInset:]
__Z30StartBroadcastingMainContentUIPU24objcproto13MainContentUI11objc_objectP17ChromeBroadcaster
-[BrowserViewController mainContentUIState]
-[MainContentUIState contentSize]
-[ChromeBroadcastOberverBridge broadcastScrollViewContentSize:]
__ZN15FullscreenModel34OnScrollViewContentSizeBroadcastedE6CGSize
__ZN15FullscreenModel37UpdateDisabledCounterForContentHeightEv
-[MainContentUIState scrollViewSize]
-[ChromeBroadcastOberverBridge broadcastScrollViewSize:]
__ZN15FullscreenModel27OnScrollViewSizeBroadcastedE6CGSize
-[MainContentUIState isScrolling]
-[ChromeBroadcastOberverBridge broadcastScrollViewIsScrolling:]
__ZN15FullscreenModel34OnScrollViewIsScrollingBroadcastedEb
__ZN15FullscreenModel24SetScrollViewIsScrollingEb
-[MainContentUIState isDragging]
-[ChromeBroadcastOberverBridge broadcastScrollViewIsDragging:]
__ZN15FullscreenModel33OnScrollViewIsDraggingBroadcastedEb
-[MainContentUIState isZooming]
-[ChromeBroadcastOberverBridge broadcastScrollViewIsZooming:]
__ZN15FullscreenModel32OnScrollViewIsZoomingBroadcastedEb
-[MainContentUIState contentInset]
-[ChromeBroadcastOberverBridge broadcastScrollViewContentInset:]
__ZN15FullscreenModel35OnScrollViewContentInsetBroadcastedE12UIEdgeInsets
-[MainContentUIState yContentOffset]
-[ChromeBroadcastOberverBridge broadcastContentScrollOffset:]
__ZN15FullscreenModel32OnContentScrollOffsetBroadcastedEd
__ZN15FullscreenModel17SetYContentOffsetEd
__ZNK15FullscreenModel25ActionForScrollFromOffsetEd
__ZN15FullscreenModel16UpdateBaseOffsetEv
__ZNK24FullscreenControllerImpl11GetProgressEv
-[HeaderDefinition behaviour]
-[BrowserViewController secondaryToolbarHeightDelta]
-[BrowserViewController headerHeight]
-[BrowserViewController updateContentPaddingForTopToolbarHeight:bottomToolbarHeight:]
-[CRWWebViewProxyImpl contentInset]
-[CRWWebViewContentView contentInset]
-[CRWWebViewContentView shouldUseViewContentInset]
-[CRWWebViewProxyImpl setContentInset:]
-[CRWWebViewContentView setContentInset:]
-[NewTabPageViewController viewDidAppear:]
-[NewTabPageViewController bubblePresenter]
-[BubblePresenter presentDiscoverFeedHeaderTipBubble]
-[BubblePresenter layoutGuideCenter]
-[BubblePresenter canPresentBubble]
-[BubblePresenter canPresentBubbleWithCheckTabScrolledToTop:]
-[BubblePresenter isStarted]
-[BubblePresenter delegate]
-[BrowserCoordinator rootViewVisibleForBubblePresenter:]
-[BubblePresenter webStateList]
-[BubblePresenter isTabScrolledToTop]
-[BrowserCoordinator isNTPActiveForBubblePresenter:]
-[BrowserCoordinator NTPCoordinator]
-[BrowserCoordinator isNTPScrolledToTopForBubblePresenter:]
-[NewTabPageCoordinator isScrolledToTop]
-[BubblePresenter presentBubbleForFeature:direction:text:voiceOverAnnouncement:anchorPoint:]
-[BubblePresenter presentBubbleForFeature:direction:alignment:text:voiceOverAnnouncement:anchorPoint:presentAction:dismissAction:]
-[BubblePresenter engagementTracker]
-[BubblePresenter bubblePresenterForFeature:direction:alignment:text:dismissAction:]
-[BubblePresenter isLongDurationBubble:]
-[BubbleViewControllerPresenter initDefaultBubbleWithText:arrowDirection:alignment:isLongDurationBubble:dismissalCallback:]
-[BubbleViewControllerPresenter setIsLongDurationBubble:]
-[BubbleViewControllerPresenter initWithText:title:image:arrowDirection:alignment:bubbleType:dismissalCallback:]
-[BubbleViewController initWithText:title:image:arrowDirection:alignment:bubbleViewType:delegate:]
-[BubbleViewControllerPresenter setVoiceOverAnnouncement:]
-[BubblePresenter rootViewController]
-[BubbleViewControllerPresenter canPresentInView:anchorPoint:]
-[BubbleViewControllerPresenter frameForBubbleInRect:atAnchorPoint:]
-[BubbleViewControllerPresenter bubbleType]
__ZN11bubble_util28BubbleDefaultAlignmentOffsetEv
-[BubbleViewControllerPresenter bubbleViewController]
-[BubbleViewController setBubbleAlignmentOffset:]
-[BubbleViewController loadView]
-[BubbleViewController bubbleViewType]
-[BubbleViewController text]
-[BubbleViewController image]
-[BubbleViewController arrowDirection]
-[BubbleViewController alignment]
-[BubbleViewController delegate]
-[BubbleView initWithText:arrowDirection:alignment:showsCloseButton:title:image:showsSnoozeButton:textAlignment:delegate:]
__ZN12_GLOBAL__N_119BubbleLabelWithTextEP8NSString15NSTextAlignment
-[BubbleView setAlignmentOffset:]
-[BubbleView updateArrowAlignmentConstraint]
-[BubbleView arrowAlignmentConstraint]
-[BubbleView alignmentOffset]
-[BubbleView arrowAlignmentConstraintWithOffset:]
-[BubbleView direction]
-[BubbleView alignment]
-[BubbleView arrow]
-[BubbleView setArrowAlignmentConstraint:]
-[BubbleViewControllerPresenter arrowDirection]
-[BubbleViewControllerPresenter alignment]
__ZN11bubble_util13BubbleMaxSizeE7CGPointd20BubbleArrowDirection15BubbleAlignment6CGSize
__ZN11bubble_util13BubbleMaxSizeE7CGPointd20BubbleArrowDirection15BubbleAlignment6CGSizeb
-[BubbleView sizeThatFits:]
-[BubbleView showsCloseButton]
-[BubbleView imageView]
-[BubbleView optimalTextSize:]
-[BubbleView label]
-[BubbleView titleLabel]
-[BubbleView showsSnoozeButton]
-[BubbleView minBubbleWidth]
__ZN11bubble_util11BubbleFrameE7CGPointd6CGSize20BubbleArrowDirection15BubbleAlignmentd
__ZN11bubble_util11BubbleFrameE7CGPointd6CGSize20BubbleArrowDirection15BubbleAlignmentdb
__Z14LayoutRectMakeddddd
-[BubblePresenter shouldForcePresentBubbleForFeature:]
-[BubblePresenter setDiscoverFeedHeaderMenuTipBubblePresenter:]
-[NewTabPageViewController shouldScrollIntoFeed]
-[NewTabPageViewController updateFeedSigninPromoIsVisible]
-[NewTabPageViewController shouldFocusFakebox]
-[NewTabPageViewController setViewDidAppear:]
-[ContentSuggestionsViewController viewDidAppear:]
-[NewTabPageHeaderViewController viewDidAppear:]
-[AdaptiveToolbarViewController viewDidAppear:]
__ZN4base8internal7InvokerINS0_13FunctorTraitsIOPFvNS_12OnceCallbackIFvP12UIPasteboardEEEPNSt4__Cr10unique_ptrIU8__strongS5_NS8_14default_deleteISA_EEEEEJOS7_SE_EEENS0_9BindStateILb0ELb1ELb0ESG_JS7_NS0_12OwnedWrapperISD_NSB_ISD_EEEEEEEFvvEE7RunOnceEPNS0_13BindStateBaseE
__ZN4base8internal12ReplyAdapterIU8__strongP12UIPasteboardS4_EEvNS_12OnceCallbackIFvT0_EEEPNSt4__Cr10unique_ptrIT_NS9_14default_deleteISB_EEEE
__ZNO4base12OnceCallbackIFvP12UIPasteboardEE3RunES2_
__ZN4base8internal7InvokerINS0_13FunctorTraitsIOU8__strongU13block_pointerFvP12UIPasteboardEJEEENS0_9BindStateILb0ELb1ELb0ES7_JEEES5_E7RunOnceEPNS0_13BindStateBaseEOU8__strongS4_
___75-[ClipboardRecentContentImplIOS hasContentMatchingTypes:completionHandler:]_block_invoke
-[ClipboardRecentContentImplIOS hasContentMatchingTypes:pasteboard:completionHandler:]
-[ClipboardRecentContentImplIOS updateIfNeededWithPasteboard:]
-[ClipboardRecentContentImplIOS hasPasteboardChanged:]
-[ClipboardRecentContentImplIOS lastPasteboardChangeCount]
-[ClipboardRecentContentImplIOS shouldReturnValueOfClipboard:]
-[ClipboardRecentContentImplIOS clipboardContentAge]
-[ClipboardRecentContentImplIOS lastPasteboardChangeDate]
-[ClipboardRecentContentImplIOS maximumAgeOfClipboard]
-[ClipboardRecentContentImplIOS hasContentMatchingRemainingTypes:pasteboard:results:completionHandler:]
-[ClipboardRecentContentImplIOS checkForContentType:pasteboard:completionHandler:]
-[ClipboardRecentContentImplIOS hasRecentURLFromClipboardInternalWithPasteboard:callback:]
-[ClipboardRecentContentImplIOS cachedURL]
___copy_helper_block_e8_32s40s48s56s64b72w
__ZN4base8internal9BindStateILb0ELb1ELb0EU8__strongU13block_pointerFvP12UIPasteboardEJEE7DestroyEPKNS0_13BindStateBaseE
___destroy_helper_block_e8_32s40s48w
__ZN4base8internal9BindStateILb0ELb1ELb0EPFvNS_12OnceCallbackIFvP12UIPasteboardEEEPNSt4__Cr10unique_ptrIU8__strongS4_NS7_14default_deleteIS9_EEEEEJS6_NS0_12OwnedWrapperISC_NSA_ISC_EEEEEE7DestroyEPKNS0_13BindStateBaseE
-[KeyCommandsProvider respondBetweenViewController:andResponder:]
-[KeyCommandsProvider nextResponder]
___110-[ClipboardRecentContentImplIOS initWithMaxAge:authorizedSchemes:userDefaults:onlyUseClipboardAsync:delegate:]_block_invoke
__ZN19BookmarkModelBridge19BookmarkModelLoadedEb
-[BookmarksSpotlightManager bookmarkModelLoaded:]
-[BookmarksSpotlightManager reindexBookmarksIfNeeded]
__ZThn8_N21ShareExtensionService19BookmarkModelLoadedEb
__ZN21ShareExtensionService14AnyModelLoadedEv
___90-[ClipboardRecentContentImplIOS hasRecentURLFromClipboardInternalWithPasteboard:callback:]_block_invoke
___82-[ClipboardRecentContentImplIOS checkForContentType:pasteboard:completionHandler:]_block_invoke.128
___103-[ClipboardRecentContentImplIOS hasContentMatchingRemainingTypes:pasteboard:results:completionHandler:]_block_invoke
-[ClipboardRecentContentImplIOS hasRecentTextFromClipboardInternalWithPasteboard:callback:]
-[ClipboardRecentContentImplIOS cachedText]
__ZN9bookmarks21BookmarkModelObserver33ExtensiveBookmarkChangesBeginningEv
__ZN9bookmarks21BookmarkModelObserver29ExtensiveBookmarkChangesEndedEv
-[BookmarksSpotlightManager shouldReindex]
___destroy_helper_block_e8_32s40s48s56s64s72w
____ZN3web23WKHTTPSystemCookieStore23GetCookiesAsyncInternalERK4GURLN4base12OnceCallbackIFvP7NSArrayIP12NSHTTPCookieEEEE_block_invoke
-[CRWWKHTTPCookieStore getAllCookies:]
___91-[ClipboardRecentContentImplIOS hasRecentTextFromClipboardInternalWithPasteboard:callback:]_block_invoke
___82-[ClipboardRecentContentImplIOS checkForContentType:pasteboard:completionHandler:]_block_invoke
___copy_helper_block_e8_32r40c54_ZTSN4base7WeakPtrIN3net25CookieCreationTimeManagerEEE56c9_ZTS4GURL
-[ClipboardRecentContentImplIOS hasRecentImageFromClipboardInternalWithPasteboard:callback:]
-[ClipboardRecentContentImplIOS cachedImage]
___destroy_helper_block_e8_32r40w48c54_ZTSN4base7WeakPtrIN3net25CookieCreationTimeManagerEEE64c9_ZTS4GURL
__ZN4base10ThreadPool26PostTaskAndReplyWithResultINS_12OnceCallbackENSt4__Cr12basic_stringIcNS3_11char_traitsIcEENS3_9allocatorIcEEEES9_Q14IsBaseCallbackIT_IFvvEEEEEbRKNS_8LocationERKNS_10TaskTraitsESA_IFT0_vEESA_IFvT1_EE
__ZN4base7SysInfo19GetHardwareInfoSyncEv
__ZN4base8internal9BindStateILb0ELb1ELb0EPFvNS_12OnceCallbackIFvNSt4__Cr12basic_stringIcNS3_11char_traitsIcEENS3_9allocatorIcEEEEEEEPNS3_10unique_ptrIS9_NS3_14default_deleteIS9_EEEEEJSB_NS0_12OwnedWrapperISF_NSD_ISF_EEEEEEC2ISI_JSB_SL_EQntsr18CancellationTraitsE14is_cancellableEEPFvvEOT_DpOT0_
__ZN6syncer35GetPersonalizableDeviceNameInternalEv
__ZN4base8internal7InvokerINS0_13FunctorTraitsIOM23SafeBrowsingServiceImplFvN4mojo15PendingReceiverIN7network5mojom16URLLoaderFactoryEEEEJO13scoped_refptrIS3_EOS9_EEENS0_9BindStateILb1ELb1ELb0ESB_JSE_S9_EEEFvvEE7RunOnceEPNS0_13BindStateBaseE
__ZN4base8internal20DecayedFunctorTraitsIM23SafeBrowsingServiceImplFvN4mojo15PendingReceiverIN7network5mojom16URLLoaderFactoryEEEEJO13scoped_refptrIS2_EOS8_EE6InvokeISA_SC_JS8_EEEvT_OT0_DpOT1_
__ZN23SafeBrowsingServiceImpl21SetUpURLLoaderFactoryEN4mojo15PendingReceiverIN7network5mojom16URLLoaderFactoryEEE
__ZN4base8internal9BindStateILb1ELb1ELb0EM23SafeBrowsingServiceImplFvN4mojo15PendingReceiverIN7network5mojom16URLLoaderFactoryEEEEJ13scoped_refptrIS2_ES8_EE7DestroyEPKNS0_13BindStateBaseE
___82-[ClipboardRecentContentImplIOS checkForContentType:pasteboard:completionHandler:]_block_invoke_2
___59-[ClipboardRecentContentImplIOS updateCachedClipboardState]_block_invoke
__ZNSt4__Cr6__treeINS_12__value_typeI4GURLmEENS_19__map_value_compareIS2_S3_NS_4lessIS2_EELb1EEENS_9allocatorIS3_EEE7destroyEPNS_11__tree_nodeIS3_PvEE
__ZN9ntp_tiles30MostVisitedSitesObserverBridge15OnURLsAvailableERKNSt4__Cr3mapINS_11SectionTypeENS1_6vectorINS_7NTPTileENS1_9allocatorIS5_EEEENS1_4lessIS3_EENS6_INS1_4pairIKS3_S8_EEEEEE
-[MostVisitedTilesMediator onMostVisitedURLsAvailable:]
__ZN9app_group27ContentWidgetFaviconsFolderEv
+[AppGroupHelper widgetsFaviconsFolder]
__ZN30content_suggestions_tile_saver21SaveMostVisitedToDiskERKNSt4__Cr6vectorIN9ntp_tiles7NTPTileENS0_9allocatorIS3_EEEEP25FaviconAttributesProviderP5NSURL
__ZN30content_suggestions_tile_saver14UpdateTileListERKNSt4__Cr6vectorIN9ntp_tiles7NTPTileENS0_9allocatorIS3_EEEE
__ZN30content_suggestions_tile_saver20ReadSavedMostVisitedEv
-[NTPTile initWithCoder:]
__ZNSt4__Cr6vectorIN12favicon_base22FaviconRawBitmapResultENS_9allocatorIS2_EEE21__push_back_slow_pathIRKS2_EEPS2_OT_
__ZNSt4__Cr6vectorIN12favicon_base22FaviconRawBitmapResultENS_9allocatorIS2_EEE26__swap_out_circular_bufferERNS_14__split_bufferIS2_RS4_EE
-[NTPTile initWithTitle:URL:faviconFileName:fallbackTextColor:fallbackBackgroundColor:fallbackIsDefaultColor:fallbackMonogram:position:]
__ZN3net13NSURLWithGURLERK4GURL
__ZNK4GURL3refEv
-[NTPTile initWithTitle:URL:position:]
__ZN30content_suggestions_tile_saver18GetFaviconFileNameERK4GURL
-[NTPTile setFaviconFileName:]
-[NTPTile fallbackMonogram]
-[NTPTile setFallbackMonogram:]
-[NTPTile fallbackTextColor]
-[NTPTile setFallbackTextColor:]
-[NTPTile fallbackIsDefaultColor]
-[NTPTile setFallbackIsDefaultColor:]
-[NTPTile fallbackBackgroundColor]
-[NTPTile setFallbackBackgroundColor:]
-[NTPTile URL]
__ZN30content_suggestions_tile_saver21WriteSavedMostVisitedEP12NSDictionaryIP5NSURLP7NTPTileE
-[NTPTile encodeWithCoder:]
-[NTPTile title]
-[NTPTile faviconFileName]
-[NTPTile position]
-[NTPTile .cxx_destruct]
__ZN4base8internal9BindStateILb0ELb1ELb0EPFvRKNSt4__Cr6vectorIN9ntp_tiles7NTPTileENS2_9allocatorIS5_EEEEP5NSURLEJS8_NS0_17UnretainedWrapperISB_NS_17unretained_traits12MayNotDangleELN15partition_alloc8internal12RawPtrTraitsE0EEEEEC2ISE_JSA_RU8__strongSC_EQntsr18CancellationTraitsE14is_cancellableEEPFvvEOT_DpOT0_
__ZNSt4__Cr12__tuple_implINS_15__tuple_indicesIJLm0ELm1EEEEJNS_6vectorIN9ntp_tiles7NTPTileENS_9allocatorIS5_EEEEN4base8internal17UnretainedWrapperI5NSURLNS9_17unretained_traits12MayNotDangleELN15partition_alloc8internal12RawPtrTraitsE0EEEEEC2IJLm0ELm1EEJS8_SI_ETpTnmJEJEJRKS8_RU8__strongPSC_EEENS1_IJXspT_EEEENS_13__tuple_typesIJDpT0_EEENS1_IJXspT1_EEEENSR_IJDpT2_EEEDpOT3_
___copy_helper_block_e8_32s40s
__ZN4base8internal9BindStateILb0ELb1ELb0EU8__strongU13block_pointerFvRKNSt4__Cr6vectorIN9ntp_tiles7NTPTileENS2_9allocatorIS5_EEEEEJS8_EEC2ISD_JSA_EQntsr18CancellationTraitsE14is_cancellableEEPFvvEOT_DpOT0_
-[MostVisitedTilesMediator convertNTPTile:]
-[ContentSuggestionsMostVisitedItem .cxx_construct]
-[ContentSuggestionsMostVisitedItem setTitle:]
-[ContentSuggestionsMostVisitedItem setURL:]
-[ContentSuggestionsMostVisitedItem setSource:]
-[ContentSuggestionsMostVisitedItem setTitleSource:]
-[ContentSuggestionsMostVisitedItem setCommandHandler:]
-[ContentSuggestionsMostVisitedItem setIncognitoAvailable:]
-[ContentSuggestionsMostVisitedItem setIndex:]
-[ContentSuggestionsMostVisitedItem setMenuProvider:]
-[MostVisitedTilesMediator useFreshMostVisited]
-[ContentSuggestionsMostVisitedItem URL]
-[MostVisitedTilesMediator lookForNewMostVisitedSite:oldMostVisitedSites:]
-[MostVisitedTilesConfig setImageDataSource:]
-[MostVisitedTilesConfig setCommandHandler:]
-[MostVisitedTilesConfig setMostVisitedItems:]
-[MostVisitedTilesMediator consumer]
-[ContentSuggestionsViewController setMostVisitedTilesConfig:]
-[ContentSuggestionsViewController mostVisitedModuleContainer]
-[ContentSuggestionsViewController setMostVisitedModuleContainer:]
-[MostVisitedTilesConfig type]
-[MagicStackModuleContentsFactory mostVisitedTilesStackViewForConfig:tileSpacing:]
-[MostVisitedTilesConfig mostVisitedItems]
-[ContentSuggestionsMostVisitedTileView initWithConfiguration:]
-[ContentSuggestionsMostVisitedTileView initWithFrame:]
-[ContentSuggestionsTileView titleLabelFont]
-[FaviconView initWithFrame:]
-[FaviconView setFont:]
-[FaviconView faviconFallbackLabel]
-[ContentSuggestionsMostVisitedItem title]
-[ContentSuggestionsMostVisitedItem incognitoAvailable]
-[ContentSuggestionsMostVisitedItem attributes]
-[FaviconView configureWithAttributes:]
-[FaviconView faviconImageView]
-[ContentSuggestionsMostVisitedItem commandHandler]
-[ContentSuggestionsMostVisitedTileView customActions]
-[ContentSuggestionsMostVisitedTileView incognitoAvailable]
-[ContentSuggestionsMostVisitedItem menuProvider]
-[ContentSuggestionsMostVisitedTileView setMenuProvider:]
-[MostVisitedTilesConfig imageDataSource]
-[MostVisitedTilesMediator fetchFaviconForURL:completion:]
__ZNSt4__Cr6__treeINS_12__value_typeI4GURLU8__strongU13block_pointerFvP17FaviconAttributesEEENS_19__map_value_compareIS2_S8_NS_4lessIS2_EELb1EEENS_9allocatorIS8_EEE25__emplace_unique_key_argsIS2_JRKNS_21piecewise_construct_tENS_5tupleIJRKS2_EEENSK_IJEEEEEENS_4pairINS_15__tree_iteratorIS8_PNS_11__tree_nodeIS8_PvEElEEbEERKT_DpOT0_
-[FaviconAttributesProvider fetchFaviconAttributesForURL:completion:]
___copy_helper_block_e8_32b40c9_ZTS4GURL
___copy_helper_block_e8_32b40w48c9_ZTS4GURL
-[FaviconAttributesProvider cache]
-[FaviconAttributesProvider faviconSize]
-[FaviconAttributesProvider minSize]
-[FaviconAttributesProvider largeIconService]
-[MostVisitedTilesConfig commandHandler]
-[ContentSuggestionsMostVisitedTileView setTapRecognizer:]
-[ContentSuggestionsViewController createAndInsertMostVisitedModule]
-[ContentSuggestionsTileView traitCollectionDidChange:]
-[ContentSuggestionsViewController contentSuggestionsMetricsRecorder]
-[ContentSuggestionsMostVisitedItem index]
-[ContentSuggestionsMetricsRecorder recordMostVisitedTileShown:atIndex:]
-[ContentSuggestionsMostVisitedItem source]
-[ContentSuggestionsMostVisitedItem titleSource]
-[ContentSuggestionsMetricsRecorder getVisualTypeFromAttributes:]
-[ContentSuggestionsMetricsRecorder getIconTypeFromAttributes:]
-[ContentSuggestionsMetricsRecorder recordMostVisitedTilesShown]
-[MostVisitedTilesMediator contentSuggestionsDelegate]
-[NewTabPageCoordinator contentSuggestionsWasUpdated]
-[NewTabPageViewController updateHeightAboveFeed]
-[NewTabPageViewController viewDidFinishLoading]
-[MostVisitedTilesMediator recordMostVisitedTilesDisplayed]
__ZN23SpotlightTopSitesBridge14TopSitesLoadedEPN7history8TopSitesE
__ZNK17component_updater12_GLOBAL__N_115IOSConfigurator14GetPrefServiceEv
__ZNK17component_updater12_GLOBAL__N_115IOSConfigurator12InitialDelayEv
__ZNK17component_updater12_GLOBAL__N_115IOSConfigurator14NextCheckDelayEv
__ZN4base8internal9BindStateILb0ELb0ELb0EZNS_17RepeatingCallbackIFvvEEC1ENS0_20DoNothingCallbackTagEQsr3stdE9is_void_vIT_EEUlvE_JEE7DestroyEPKNS0_13BindStateBaseE
__ZN29PasswordCounterDelegateBridge24OnPasswordCounterChangedEv
-[FormInputAccessoryMediator passwordCounterChanged:]
-[FormInputAccessoryViewController setPasswordButtonHidden:]
-[ManualFillAccessoryViewController setPasswordButtonHidden:]
__ZN8autofill33PersonalDataManagerObserverBridge21OnPersonalDataChangedEv
-[FormInputAccessoryMediator onPersonalDataChanged]
__ZN4base8internal9BindStateILb1ELb1ELb0EM25PolicyWatcherBrowserAgentFvvEJNS_7WeakPtrIS2_EEEE23QueryCancellationTraitsEPKNS0_13BindStateBaseENS8_21CancellationQueryModeE
__ZN4base8internal7InvokerINS0_13FunctorTraitsIOM25PolicyWatcherBrowserAgentFvvEJONS_7WeakPtrIS3_EEEEENS0_9BindStateILb1ELb1ELb0ES5_JS8_EEEFvvEE7RunOnceEPNS0_13BindStateBaseE
__ZN25PolicyWatcherBrowserAgent30ShowSyncDisabledPromptIfNeededEv
__ZN4base8internal9BindStateILb1ELb1ELb0EM25PolicyWatcherBrowserAgentFvvEJNS_7WeakPtrIS2_EEEE7DestroyEPKNS0_13BindStateBaseE
__ZN25PolicyWatcherBrowserAgent33UpdateAppContainerBackupExclusionEv
__ZN4base5apple18GetUserLibraryPathEv
__ZN4base8internal9BindStateILb0ELb1ELb0ENS0_18IgnoreResultHelperIPFbRKNS_8FilePathEEEEJS3_EEC2IS8_JS3_EQntsr18CancellationTraitsE14is_cancellableEEPFvvEOT_DpOT0_
__ZN4base8internal7InvokerINS0_13FunctorTraitsIONS0_18IgnoreResultHelperIPFbRKNS_8FilePathEEEEJOS4_EEENS0_9BindStateILb0ELb1ELb0ES9_JS4_EEEFvvEE7RunOnceEPNS0_13BindStateBaseE
__ZN4base5apple20ClearBackupExclusionERKNS_8FilePathE
__ZNSt4__Cr12__destroy_atIN4base7raw_ptrI11TemplateURLLN15partition_alloc8internal12RawPtrTraitsE1EEETnNS_9enable_ifIXntsr8is_arrayIT_EE5valueEiE4typeELi0EEEvPS9_
__ZN26SearchEngineObserverBridge27OnTemplateURLServiceChangedEv
-[OmniboxMediator searchEngineChanged]
-[OmniboxMediator setCurrentDefaultSearchEngineFavicon:]
