Certificate:
    Data:
        Version: 3 (0x2)
        Serial Number:
            1c:a0:2d:c1:52:3b:6a:6d:8b:5c:1f:95:4a:ed:ac:30
    Signature Algorithm: sha1WithRSAEncryption
        Issuer: C=US, O=Network Solutions L.L.C., CN=Network Solutions Certificate Authority
        Validity
            Not Before: Jan  1 00:00:00 2011 GMT
            Not After : Dec 31 23:59:59 2030 GMT
        Subject: C=US, O=Network Solutions L.L.C., CN=Network Solutions Certificate Authority
        Subject Public Key Info:
            Public Key Algorithm: rsaEncryption
                Public-Key: (2048 bit)
                Modulus:
                    00:e4:bc:7e:92:30:6d:c6:d8:8e:2b:0b:bc:46:ce:
                    e0:27:96:de:de:f9:fa:12:d3:3c:33:73:b3:04:2f:
                    bc:71:8c:e5:9f:b6:22:60:3e:5f:5d:ce:09:ff:82:
                    0c:1b:9a:51:50:1a:26:89:dd:d5:61:5d:19:dc:12:
                    0f:2d:0a:a2:43:5d:17:d0:34:92:20:ea:73:cf:38:
                    2c:06:26:09:7a:72:f7:fa:50:32:f8:c2:93:d3:69:
                    a2:23:ce:41:b1:cc:e4:d5:1f:36:d1:8a:3a:f8:8c:
                    63:e2:14:59:69:ed:0d:d3:7f:6b:e8:b8:03:e5:4f:
                    6a:e5:98:63:69:48:05:be:2e:ff:33:b6:e9:97:59:
                    69:f8:67:19:ae:93:61:96:44:15:d3:72:b0:3f:bc:
                    6a:7d:ec:48:7f:8d:c3:ab:aa:71:2b:53:69:41:53:
                    34:b5:b0:b9:c5:06:0a:c4:b0:45:f5:41:5d:6e:89:
                    45:7b:3d:3b:26:8c:74:c2:e5:d2:d1:7d:b2:11:d4:
                    fb:58:32:22:9a:80:c9:dc:fd:0c:e9:7f:5e:03:97:
                    ce:3b:00:14:87:27:70:38:a9:8e:6e:b3:27:76:98:
                    51:e0:05:e3:21:ab:1a:d5:85:22:3c:29:b5:9a:16:
                    c5:80:a8:f4:bb:6b:30:8f:2f:46:02:a2:b1:0c:22:
                    e0:d3
                Exponent: 65537 (0x10001)
        X509v3 extensions:
            X509v3 Subject Key Identifier: 
                21:30:C9:FB:00:D7:4E:98:DA:87:AA:2A:D0:A7:2E:B1:40:31:A7:4C
            X509v3 Key Usage: critical
                Certificate Sign, CRL Sign
            X509v3 Basic Constraints: critical
                CA:TRUE
    Signature Algorithm: sha1WithRSAEncryption
         c2:89:84:a0:e8:8c:66:fd:ff:13:05:1b:c3:3a:8e:98:49:8a:
         f8:aa:00:5c:26:fd:72:6a:a3:7e:12:1b:94:ae:54:f8:21:8f:
         a7:93:4f:f7:16:ef:b9:b9:b3:32:c0:25:21:31:66:37:2c:09:
         b0:fe:32:b0:37:ec:3c:b8:ce:8f:08:aa:08:90:07:5c:75:d5:
         e1:4e:2c:cb:02:24:e9:a2:5e:e9:f5:78:35:22:06:1c:f2:1f:
         88:b1:e1:5c:cc:96:54:fa:6f:49:cc:8d:f1:56:03:ed:cf:2c:
         9f:27:de:e5:ca:83:44:be:46:40:f9:57:2e:d2:7f:31:2d:ce:
         83:dc:fe:70:6b:84:d0:a3:9f:ff:97:d0:a8:d7:02:ec:b1:2c:
         f0:ef:73:38:3d:99:ac:c4:4f:01:bf:d5:6a:ea:c6:2e:32:29:
         17:0a:cb:e6:69:9e:d1:4a:b5:f6:df:8e:19:f8:95:e9:45:a9:
         0e:cd:6d:41:59:20:9e:73:c6:6c:71:1c:9c:d4:4d:30:a8:73:
         09:a0:15:f3:a0:45:26:c3:5b:fd:bb:b9:d8:2d:d7:1f:f5:05:
         30:19:f6:ae:0f:8e:62:8f:df:c8:4f:86:d9:1d:61:16:b3:c9:
         f0:bb:fb:c7:f5:af:01:22:47:ec:d8:da:cf:1c:f3:53:66:ba:
         53:09:01:f9
-----BEGIN CERTIFICATE-----
MIIDkDCCAnigAwIBAgIQHKAtwVI7am2LXB+VSu2sMDANBgkqhkiG9w0BAQUFADBi
MQswCQYDVQQGEwJVUzEhMB8GA1UEChMYTmV0d29yayBTb2x1dGlvbnMgTC5MLkMu
MTAwLgYDVQQDEydOZXR3b3JrIFNvbHV0aW9ucyBDZXJ0aWZpY2F0ZSBBdXRob3Jp
dHkwHhcNMTEwMTAxMDAwMDAwWhcNMzAxMjMxMjM1OTU5WjBiMQswCQYDVQQGEwJV
UzEhMB8GA1UEChMYTmV0d29yayBTb2x1dGlvbnMgTC5MLkMuMTAwLgYDVQQDEydO
ZXR3b3JrIFNvbHV0aW9ucyBDZXJ0aWZpY2F0ZSBBdXRob3JpdHkwggEiMA0GCSqG
SIb3DQEBAQUAA4IBDwAwggEKAoIBAQDkvH6SMG3G2I4rC7xGzuAnlt7e+foS0zwz
c7MEL7xxjOWftiJgPl9dzgn/ggwbmlFQGiaJ3dVhXRncEg8tCqJDXRfQNJIg6nPP
OCwGJgl6cvf6UDL4wpPTaaIjzkGxzOTVHzbRijr4jGPiFFlp7Q3Tf2vouAPlT2rl
mGNpSAW+Lv8ztumXWWn4Zxmuk2GWRBXTcrA/vGp97Eh/jcOrqnErU2lBUzS1sLnF
BgrEsEX1QV1uiUV7PTsmjHTC5dLRfbIR1PtYMiKagMnc/Qzpf14Dl847ABSHJ3A4
qY5usyd2mFHgBeMhqxrVhSI8KbWaFsWAqPS7azCPL0YCorEMIuDTAgMBAAGjQjBA
MB0GA1UdDgQWBBQhMMn7ANdOmNqHqirQpy6xQDGnTDAOBgNVHQ8BAf8EBAMCAQYw
DwYDVR0TAQH/BAUwAwEB/zANBgkqhkiG9w0BAQUFAAOCAQEAwomEoOiMZv3/EwUb
wzqOmEmK+KoAXCb9cmqjfhIblK5U+CGPp5NP9xbvubmzMsAlITFmNywJsP4ysDfs
PLjOjwiqCJAHXHXV4U4sywIk6aJe6fV4NSIGHPIfiLHhXMyWVPpvScyN8VYD7c8s
nyfe5cqDRL5GQPlXLtJ/MS3Og9z+cGuE0KOf/5fQqNcC7LEs8O9zOD2ZrMRPAb/V
aurGLjIpFwrL5mme0Uq19t+OGfiV6UWpDs1tQVkgnnPGbHEcnNRNMKhzCaAV86BF
JsNb/bu52C3XH/UFMBn2rg+OYo/fyE+G2R1hFrPJ8Lv7x/WvASJH7NjazxzzU2a6
UwkB+Q==
-----END CERTIFICATE-----
