Certificate:
    Data:
        Version: 3 (0x2)
        Serial Number:
            a6:8b:79:29:00:00:00:00:50:d0:91:f9
    Signature Algorithm: ecdsa-with-SHA384
        Issuer: C=US, O=Entrust, Inc., OU=See www.entrust.net/legal-terms, OU=(c) 2012 Entrust, Inc. - for authorized use only, CN=Entrust Root Certification Authority - EC1
        Validity
            Not Before: Dec 18 15:25:36 2012 GMT
            Not After : Dec 18 15:55:36 2037 GMT
        Subject: C=US, O=Entrust, Inc., OU=See www.entrust.net/legal-terms, OU=(c) 2012 Entrust, Inc. - for authorized use only, CN=Entrust Root Certification Authority - EC1
        Subject Public Key Info:
            Public Key Algorithm: id-ecPublicKey
                Public-Key: (384 bit)
                pub: 
                    04:84:13:c9:d0:ba:6d:41:7b:e2:6c:d0:eb:55:5f:
                    66:02:1a:24:f4:5b:89:69:47:e3:b8:c2:7d:f1:f2:
                    02:c5:9f:a0:f6:5b:d5:8b:06:19:86:4f:53:10:6d:
                    07:24:27:a1:a0:f8:d5:47:19:61:4c:7d:ca:93:27:
                    ea:74:0c:ef:6f:96:09:fe:63:ec:70:5d:36:ad:67:
                    77:ae:c9:9d:7c:55:44:3a:a2:63:51:1f:f5:e3:62:
                    d4:a9:47:07:3e:cc:20
                ASN1 OID: secp384r1
        X509v3 extensions:
            X509v3 Key Usage: critical
                Certificate Sign, CRL Sign
            X509v3 Basic Constraints: critical
                CA:TRUE
            X509v3 Subject Key Identifier: 
                B7:63:E7:1A:DD:8D:E9:08:A6:55:83:A4:E0:6A:50:41:65:11:42:49
    Signature Algorithm: ecdsa-with-SHA384
         30:64:02:30:61:79:d8:e5:42:47:df:1c:ae:53:99:17:b6:6f:
         1c:7d:e1:bf:11:94:d1:03:88:75:e4:8d:89:a4:8a:77:46:de:
         6d:61:ef:02:f5:fb:b5:df:cc:fe:4e:ff:fe:a9:e6:a7:02:30:
         5b:99:d7:85:37:06:b5:7b:08:fd:eb:27:8b:4a:94:f9:e1:fa:
         a7:8e:26:08:e8:7c:92:68:6d:73:d8:6f:26:ac:21:02:b8:99:
         b7:26:41:5b:25:60:ae:d0:48:1a:ee:06
-----BEGIN CERTIFICATE-----
MIIC+TCCAoCgAwIBAgINAKaLeSkAAAAAUNCR+TAKBggqhkjOPQQDAzCBvzELMAkG
A1UEBhMCVVMxFjAUBgNVBAoTDUVudHJ1c3QsIEluYy4xKDAmBgNVBAsTH1NlZSB3
d3cuZW50cnVzdC5uZXQvbGVnYWwtdGVybXMxOTA3BgNVBAsTMChjKSAyMDEyIEVu
dHJ1c3QsIEluYy4gLSBmb3IgYXV0aG9yaXplZCB1c2Ugb25seTEzMDEGA1UEAxMq
RW50cnVzdCBSb290IENlcnRpZmljYXRpb24gQXV0aG9yaXR5IC0gRUMxMB4XDTEy
MTIxODE1MjUzNloXDTM3MTIxODE1NTUzNlowgb8xCzAJBgNVBAYTAlVTMRYwFAYD
VQQKEw1FbnRydXN0LCBJbmMuMSgwJgYDVQQLEx9TZWUgd3d3LmVudHJ1c3QubmV0
L2xlZ2FsLXRlcm1zMTkwNwYDVQQLEzAoYykgMjAxMiBFbnRydXN0LCBJbmMuIC0g
Zm9yIGF1dGhvcml6ZWQgdXNlIG9ubHkxMzAxBgNVBAMTKkVudHJ1c3QgUm9vdCBD
ZXJ0aWZpY2F0aW9uIEF1dGhvcml0eSAtIEVDMTB2MBAGByqGSM49AgEGBSuBBAAi
A2IABIQTydC6bUF74mzQ61VfZgIaJPRbiWlH47jCffHyAsWfoPZb1YsGGYZPUxBt
ByQnoaD41UcZYUx9ypMn6nQM72+WCf5j7HBdNq1nd67JnXxVRDqiY1Ef9eNi1KlH
Bz7MIKNCMEAwDgYDVR0PAQH/BAQDAgEGMA8GA1UdEwEB/wQFMAMBAf8wHQYDVR0O
BBYEFLdj5xrdjekIplWDpOBqUEFlEUJJMAoGCCqGSM49BAMDA2cAMGQCMGF52OVC
R98crlOZF7ZvHH3hvxGU0QOIdeSNiaSKd0bebWHvAvX7td/M/k7//qnmpwIwW5nX
hTcGtXsI/esni0qU+eH6p44mCOh8kmhtc9hvJqwhAriZtyZBWyVgrtBIGu4G
-----END CERTIFICATE-----
