Certificate:
    Data:
        Version: 3 (0x2)
        Serial Number: 6047274297262753887 (0x53ec3beefbb2485f)
    Signature Algorithm: sha1WithRSAEncryption
        Issuer: C=ES, CN=Autoridad de Certificacion Firmaprofesional CIF A62634068
        Validity
            Not Before: May 20 08:38:15 2009 GMT
            Not After : Dec 31 08:38:15 2030 GMT
        Subject: C=ES, CN=Autoridad de Certificacion Firmaprofesional CIF A62634068
        Subject Public Key Info:
            Public Key Algorithm: rsaEncryption
                Public-Key: (4096 bit)
                Modulus:
                    00:ca:96:6b:8e:ea:f8:fb:f1:a2:35:e0:7f:4c:da:
                    e0:c3:52:d7:7d:b6:10:c8:02:5e:b3:43:2a:c4:4f:
                    6a:b2:ca:1c:5d:28:9a:78:11:1a:69:59:57:af:b5:
                    20:42:e4:8b:0f:e6:df:5b:a6:03:92:2f:f5:11:e4:
                    62:d7:32:71:38:d9:04:0c:71:ab:3d:51:7e:0f:07:
                    df:63:05:5c:e9:bf:94:6f:c1:29:82:c0:b4:da:51:
                    b0:c1:3c:bb:ad:37:4a:5c:ca:f1:4b:36:0e:24:ab:
                    bf:c3:84:77:fd:a8:50:f4:b1:e7:c6:2f:d2:2d:59:
                    8d:7a:0a:4e:96:69:52:02:aa:36:98:ec:fc:fa:14:
                    83:0c:37:1f:c9:92:37:7f:d7:81:2d:e5:c4:b9:e0:
                    3e:34:fe:67:f4:3e:66:d1:d3:f4:40:cf:5e:62:34:
                    0f:70:06:3e:20:18:5a:ce:f7:72:1b:25:6c:93:74:
                    14:93:a3:73:b1:0e:aa:87:10:23:59:5f:20:05:19:
                    47:ed:68:8e:92:12:ca:5d:fc:d6:2b:b2:92:3c:20:
                    cf:e1:5f:af:20:be:a0:76:7f:76:e5:ec:1a:86:61:
                    33:3e:e7:7b:b4:3f:a0:0f:8e:a2:b9:6a:6f:b9:87:
                    26:6f:41:6c:88:a6:50:fd:6a:63:0b:f5:93:16:1b:
                    19:8f:b2:ed:9b:9b:c9:90:f5:01:0c:df:19:3d:0f:
                    3e:38:23:c9:2f:8f:0c:d1:02:fe:1b:55:d6:4e:d0:
                    8d:3c:af:4f:a4:f3:fe:af:2a:d3:05:9d:79:08:a1:
                    cb:57:31:b4:9c:c8:90:b2:67:f4:18:16:93:3a:fc:
                    47:d8:d1:78:96:31:1f:ba:2b:0c:5f:5d:99:ad:63:
                    89:5a:24:20:76:d8:df:fd:ab:4e:a6:22:aa:9d:5e:
                    e6:27:8a:7d:68:29:a3:e7:8a:b8:da:11:bb:17:2d:
                    99:9d:13:24:46:f7:c5:e2:d8:9f:8e:7f:c7:8f:74:
                    6d:5a:b2:e8:72:f5:ac:ee:24:10:ad:2f:14:da:ff:
                    2d:9a:46:71:47:be:42:df:bb:01:db:f4:7f:d3:28:
                    8f:31:59:5b:d3:c9:02:a6:b4:52:ca:6e:97:fb:43:
                    c5:08:26:6f:8a:f4:bb:fd:9f:28:aa:0d:d5:45:f3:
                    13:3a:1d:d8:c0:78:8f:41:67:3c:1e:94:64:ae:7b:
                    0b:c5:e8:d9:01:88:39:1a:97:86:64:41:d5:3b:87:
                    0c:6e:fa:0f:c6:bd:48:14:bf:39:4d:d4:9e:41:b6:
                    8f:96:1d:63:96:93:d9:95:06:78:31:68:9e:37:06:
                    3b:80:89:45:61:39:23:c7:1b:44:a3:15:e5:1c:f8:
                    92:30:bb
                Exponent: 65537 (0x10001)
        X509v3 extensions:
            X509v3 Basic Constraints: critical
                CA:TRUE, pathlen:1
            X509v3 Key Usage: critical
                Certificate Sign, CRL Sign
            X509v3 Subject Key Identifier: 
                65:CD:EB:AB:35:1E:00:3E:7E:D5:74:C0:1C:B4:73:47:0E:1A:64:2F
            X509v3 Certificate Policies: 
                Policy: X509v3 Any Policy
                  CPS: http://www.firmaprofesional.com/cps
                  User Notice:
                    Explicit Text: 

    Signature Algorithm: sha1WithRSAEncryption
         17:7d:a0:f9:b4:dd:c5:c5:eb:ad:4b:24:b5:a1:02:ab:dd:a5:
         88:4a:b2:0f:55:4b:2b:57:8c:3b:e5:31:dd:fe:c4:32:f1:e7:
         5b:64:96:36:32:18:ec:a5:32:77:d7:e3:44:b6:c0:11:2a:80:
         b9:3d:6a:6e:7c:9b:d3:ad:fc:c3:d6:a3:e6:64:29:7c:d1:e1:
         38:1e:82:2b:ff:27:65:af:fb:16:15:c4:2e:71:84:e5:b5:ff:
         fa:a4:47:bd:64:32:bb:f6:25:84:a2:27:42:f5:20:b0:c2:13:
         10:11:cd:10:15:ba:42:90:2a:d2:44:e1:96:26:eb:31:48:12:
         fd:2a:da:c9:06:cf:74:1e:a9:4b:d5:87:28:f9:79:34:92:3e:
         2e:44:e8:f6:8f:4f:8f:35:3f:25:b3:39:dc:63:2a:90:6b:20:
         5f:c4:52:12:4e:97:2c:2a:ac:9d:97:de:48:f2:a3:66:db:c2:
         d2:83:95:a6:66:a7:9e:25:0f:e9:0b:33:91:65:0a:5a:c3:d9:
         54:12:dd:af:c3:4e:0e:1f:26:5e:0d:dc:b3:8d:ec:d5:81:70:
         de:d2:4f:24:05:f3:6c:4e:f5:4c:49:66:8d:d1:ff:d2:0b:25:
         41:48:fe:51:84:c6:42:af:80:04:cf:d0:7e:64:49:e4:f2:df:
         a2:ec:b1:4c:c0:2a:1d:e7:b4:b1:65:a2:c4:bc:f1:98:f4:aa:
         70:07:63:b4:b8:da:3b:4c:fa:40:22:30:5b:11:a6:f0:05:0e:
         c6:02:03:48:ab:86:9b:85:dd:db:dd:ea:a2:76:80:73:7d:f5:
         9c:04:c4:45:8d:e7:b9:1c:8b:9e:ea:d7:75:d1:72:b1:de:75:
         44:e7:42:7d:e2:57:6b:7d:dc:99:bc:3d:83:28:ea:80:93:8d:
         c5:4c:65:c1:70:81:b8:38:fc:43:31:b2:f6:03:34:47:b2:ac:
         fb:22:06:cb:1e:dd:17:47:1c:5f:66:b9:d3:1a:a2:da:11:b1:
         a4:bc:23:c9:e4:be:87:ff:b9:94:b6:f8:5d:20:4a:d4:5f:e7:
         bd:68:7b:65:f2:15:1e:d2:3a:a9:2d:e9:d8:6b:24:ac:97:58:
         44:47:ad:59:18:f1:21:65:70:de:ce:34:60:a8:40:f1:f3:3c:
         a4:c3:28:23:8c:fe:27:33:43:40:a0:17:3c:eb:ea:3b:b0:72:
         a6:a3:b9:4a:4b:5e:16:48:f4:b2:bc:c8:8c:92:c5:9d:9f:ac:
         72:36:bc:34:80:34:6b:a9:8b:92:c0:b8:17:ed:ec:76:53:f5:
         24:01:8c:b3:22:e8:4b:7c:55:c6:9d:fa:a3:14:bb:65:85:6e:
         6e:4f:12:7e:0a:3c:9d:95
-----BEGIN CERTIFICATE-----
MIIGFDCCA/ygAwIBAgIIU+w77vuySF8wDQYJKoZIhvcNAQEFBQAwUTELMAkGA1UE
BhMCRVMxQjBABgNVBAMMOUF1dG9yaWRhZCBkZSBDZXJ0aWZpY2FjaW9uIEZpcm1h
cHJvZmVzaW9uYWwgQ0lGIEE2MjYzNDA2ODAeFw0wOTA1MjAwODM4MTVaFw0zMDEy
MzEwODM4MTVaMFExCzAJBgNVBAYTAkVTMUIwQAYDVQQDDDlBdXRvcmlkYWQgZGUg
Q2VydGlmaWNhY2lvbiBGaXJtYXByb2Zlc2lvbmFsIENJRiBBNjI2MzQwNjgwggIi
MA0GCSqGSIb3DQEBAQUAA4ICDwAwggIKAoICAQDKlmuO6vj78aI14H9M2uDDUtd9
thDIAl6zQyrET2qyyhxdKJp4ERppWVevtSBC5IsP5t9bpgOSL/UR5GLXMnE42QQM
cas9UX4PB99jBVzpv5RvwSmCwLTaUbDBPLutN0pcyvFLNg4kq7/DhHf9qFD0sefG
L9ItWY16Ck6WaVICqjaY7Pz6FIMMNx/Jkjd/14Et5cS54D40/mf0PmbR0/RAz15i
NA9wBj4gGFrO93IbJWyTdBSTo3OxDqqHECNZXyAFGUftaI6SEspd/NYrspI8IM/h
X68gvqB2f3bl7BqGYTM+53u0P6APjqK5am+5hyZvQWyIplD9amML9ZMWGxmPsu2b
m8mQ9QEM3xk9Dz44I8kvjwzRAv4bVdZO0I08r0+k8/6vKtMFnXkIoctXMbScyJCy
Z/QYFpM6/EfY0XiWMR+6KwxfXZmtY4laJCB22N/9q06mIqqdXuYnin1oKaPnirja
EbsXLZmdEyRG98Xi2J+Of8ePdG1asuhy9azuJBCtLxTa/y2aRnFHvkLfuwHb9H/T
KI8xWVvTyQKmtFLKbpf7Q8UIJm+K9Lv9nyiqDdVF8xM6HdjAeI9BZzwelGSuewvF
6NkBiDkal4ZkQdU7hwxu+g/GvUgUvzlN1J5Bto+WHWOWk9mVBngxaJ43BjuAiUVh
OSPHG0SjFeUc+JIwuwIDAQABo4HvMIHsMBIGA1UdEwEB/wQIMAYBAf8CAQEwDgYD
VR0PAQH/BAQDAgEGMB0GA1UdDgQWBBRlzeurNR4APn7VdMActHNHDhpkLzCBpgYD
VR0gBIGeMIGbMIGYBgRVHSAAMIGPMC8GCCsGAQUFBwIBFiNodHRwOi8vd3d3LmZp
cm1hcHJvZmVzaW9uYWwuY29tL2NwczBcBggrBgEFBQcCAjBQHk4AUABhAHMAZQBv
ACAAZABlACAAbABhACAAQgBvAG4AYQBuAG8AdgBhACAANAA3ACAAQgBhAHIAYwBl
AGwAbwBuAGEAIAAwADgAMAAxADcwDQYJKoZIhvcNAQEFBQADggIBABd9oPm03cXF
661LJLWhAqvdpYhKsg9VSytXjDvlMd3+xDLx51tkljYyGOylMnfX40S2wBEqgLk9
am58m9Ot/MPWo+ZkKXzR4Tgegiv/J2Wv+xYVxC5xhOW1//qkR71kMrv2JYSiJ0L1
ILDCExARzRAVukKQKtJE4ZYm6zFIEv0q2skGz3QeqUvVhyj5eTSSPi5E6PaPT481
PyWzOdxjKpBrIF/EUhJOlywqrJ2X3kjyo2bbwtKDlaZmp54lD+kLM5FlClrD2VQS
3a/DTg4fJl4N3LON7NWBcN7STyQF82xO9UxJZo3R/9ILJUFI/lGExkKvgATP0H5k
SeTy36LssUzAKh3ntLFlosS88Zj0qnAHY7S42jtM+kAiMFsRpvAFDsYCA0irhpuF
3dvd6qJ2gHN99ZwExEWN57kci57q13XRcrHedUTnQn3iV2t93Jm8PYMo6oCTjcVM
ZcFwgbg4/EMxsvYDNEeyrPsiBsse3RdHHF9mudMaotoRsaS8I8nkvof/uZS2+F0g
StRf571oe2XyFR7SOqkt6dhrJKyXWERHrVkY8SFlcN7ONGCoQPHzPKTDKCOM/icz
Q0CgFzzr6juwcqajuUpLXhZI9LK8yIySxZ2frHI2vDSANGupi5LAuBft7HZT9SQB
jLMi6Et8Vcad+qMUu2WFbm5PEn4KPJ2V
-----END CERTIFICATE-----
