Certificate:
    Data:
        Version: 3 (0x2)
        Serial Number: 11806822484801597146 (0xa3da427ea4b1aeda)
    Signature Algorithm: sha1WithRSAEncryption
        Issuer: C=EU, L=Madrid (see current address at www.camerfirma.com/address)/serialNumber=A82743287, O=AC Camerfirma S.A., CN=Chambers of Commerce Root - 2008
        Validity
            Not Before: Aug  1 12:29:50 2008 GMT
            Not After : Jul 31 12:29:50 2038 GMT
        Subject: C=EU, L=Madrid (see current address at www.camerfirma.com/address)/serialNumber=A82743287, O=AC Camerfirma S.A., CN=Chambers of Commerce Root - 2008
        Subject Public Key Info:
            Public Key Algorithm: rsaEncryption
                Public-Key: (4096 bit)
                Modulus:
                    00:af:00:cb:70:37:2b:80:5a:4a:3a:6c:78:94:7d:
                    a3:7f:1a:1f:f6:35:d5:bd:db:cb:0d:44:72:3e:26:
                    b2:90:52:ba:63:3b:28:58:6f:a5:b3:6d:94:a6:f3:
                    dd:64:0c:55:f6:f6:e7:f2:22:22:80:5e:e1:62:c6:
                    b6:29:e1:81:6c:f2:bf:e5:7d:32:6a:54:a0:32:19:
                    59:fe:1f:8b:d7:3d:60:86:85:24:6f:e3:11:b3:77:
                    3e:20:96:35:21:6b:b3:08:d9:70:2e:64:f7:84:92:
                    53:d6:0e:b0:90:8a:8a:e3:87:8d:06:d3:bd:90:0e:
                    e2:99:a1:1b:86:0e:da:9a:0a:bb:0b:61:50:06:52:
                    f1:9e:7f:76:ec:cb:0f:d0:1e:0d:cf:99:30:3d:1c:
                    c4:45:10:58:ac:d6:d3:e8:d7:e5:ea:c5:01:07:77:
                    d6:51:e6:03:7f:8a:48:a5:4d:68:75:b9:e9:bc:9e:
                    4e:19:71:f5:32:4b:9c:6d:60:19:0b:fb:cc:9d:75:
                    dc:bf:26:cd:8f:93:78:39:79:73:5e:25:0e:ca:5c:
                    eb:77:12:07:cb:64:41:47:72:93:ab:50:c3:eb:09:
                    76:64:34:d2:39:b7:76:11:09:0d:76:45:c4:a9:ae:
                    3d:6a:af:b5:7d:65:2f:94:58:10:ec:5c:7c:af:7e:
                    e2:b6:18:d9:d0:9b:4e:5a:49:df:a9:66:0b:cc:3c:
                    c6:78:7c:a7:9c:1d:e3:ce:8e:53:be:05:de:60:0f:
                    6b:e5:1a:db:3f:e3:e1:21:c9:29:c1:f1:eb:07:9c:
                    52:1b:01:44:51:3c:7b:25:d7:c4:e5:52:54:5d:25:
                    07:ca:16:20:b8:ad:e4:41:ee:7a:08:fe:99:6f:83:
                    a6:91:02:b0:6c:36:55:6a:e7:7d:f5:96:e6:ca:81:
                    d6:97:f1:94:83:e9:ed:b0:b1:6b:12:69:1e:ac:fb:
                    5d:a9:c5:98:e9:b4:5b:58:7a:be:3d:a2:44:3a:63:
                    59:d4:0b:25:de:1b:4f:bd:e5:01:9e:cd:d2:29:d5:
                    9f:17:19:0a:6f:bf:0c:90:d3:09:5f:d9:e3:8a:35:
                    cc:79:5a:4d:19:37:92:b7:c4:c1:ad:af:f4:79:24:
                    9a:b2:01:0b:b1:af:5c:96:f3:80:32:fb:5c:3d:98:
                    f1:a0:3f:4a:de:be:af:94:2e:d9:55:9a:17:6e:60:
                    9d:63:6c:b8:63:c9:ae:81:5c:18:35:e0:90:bb:be:
                    3c:4f:37:22:b9:7e:eb:cf:9e:77:21:a6:3d:38:81:
                    fb:48:da:31:3d:2b:e3:89:f5:d0:b5:bd:7e:e0:50:
                    c4:12:89:b3:23:9a:10:31:85:db:ae:6f:ef:38:33:
                    18:76:11
                Exponent: 65537 (0x10001)
        X509v3 extensions:
            X509v3 Basic Constraints: critical
                CA:TRUE, pathlen:12
            X509v3 Subject Key Identifier: 
                F9:24:AC:0F:B2:B5:F8:79:C0:FA:60:88:1B:C4:D9:4D:02:9E:17:19
            X509v3 Authority Key Identifier: 
                keyid:F9:24:AC:0F:B2:B5:F8:79:C0:FA:60:88:1B:C4:D9:4D:02:9E:17:19
                DirName:/C=EU/L=Madrid (see current address at www.camerfirma.com/address)/serialNumber=A82743287/O=AC Camerfirma S.A./CN=Chambers of Commerce Root - 2008
                serial:A3:DA:42:7E:A4:B1:AE:DA

            X509v3 Key Usage: critical
                Certificate Sign, CRL Sign
            X509v3 Certificate Policies: 
                Policy: X509v3 Any Policy
                  CPS: http://policy.camerfirma.com

    Signature Algorithm: sha1WithRSAEncryption
         90:12:af:22:35:c2:a3:39:f0:2e:de:e9:b5:e9:78:7c:48:be:
         3f:7d:45:92:5e:e9:da:b1:19:fc:16:3c:9f:b4:5b:66:9e:6a:
         e7:c3:b9:5d:88:e8:0f:ad:cf:23:0f:de:25:3a:5e:cc:4f:a5:
         c1:b5:2d:ac:24:d2:58:07:de:a2:cf:69:84:60:33:e8:10:0d:
         13:a9:23:d0:85:e5:8e:7b:a6:9e:3d:72:13:72:33:f5:aa:7d:
         c6:63:1f:08:f4:fe:01:7f:24:cf:2b:2c:54:09:de:e2:2b:6d:
         92:c6:39:4f:16:ea:3c:7e:7a:46:d4:45:6a:46:a8:eb:75:82:
         56:a7:ab:a0:7c:68:13:33:f6:9d:30:f0:6f:27:39:24:23:2a:
         90:fd:90:29:35:f2:93:df:34:a5:c6:f7:f8:ef:8c:0f:62:4a:
         7c:ae:d3:f5:54:f8:8d:b6:9a:56:87:16:82:3a:33:ab:5a:22:
         08:f7:82:ba:ea:2e:e0:47:9a:b4:b5:45:a3:05:3b:d9:dc:2e:
         45:40:3b:ea:dc:7f:e8:3b:eb:d1:ec:26:d8:35:a4:30:c5:3a:
         ac:57:9e:b3:76:a5:20:7b:f9:1e:4a:05:62:01:a6:28:75:60:
         97:92:0d:6e:3e:4d:37:43:0d:92:15:9c:18:22:cd:51:99:a0:
         29:1a:3c:5f:8a:32:33:5b:30:c7:89:2f:47:98:0f:a3:03:c6:
         f6:f1:ac:df:32:f0:d9:81:1a:e4:9c:bd:f6:80:14:f0:d1:2c:
         b9:85:f5:d8:a3:b1:c8:a5:21:e5:1c:13:97:ee:0e:bd:df:29:
         a9:ef:34:53:5b:d3:e4:6a:13:84:06:b6:32:02:c4:52:ae:22:
         d2:dc:b2:21:42:1a:da:40:f0:29:c9:ec:0a:0c:5c:e2:d0:ba:
         cc:48:d3:37:0a:cc:12:0a:8a:79:b0:3d:03:7f:69:4b:f4:34:
         20:7d:b3:34:ea:8e:4b:64:f5:3e:fd:b3:23:67:15:0d:04:b8:
         f0:2d:c1:09:51:3c:b2:6c:15:f0:a5:23:d7:83:74:e4:e5:2e:
         c9:fe:98:27:42:c6:ab:c6:9e:b0:d0:5b:38:a5:9b:50:de:7e:
         18:98:b5:45:3b:f6:79:b4:e8:f7:1a:7b:06:83:fb:d0:8b:da:
         bb:c7:bd:18:ab:08:6f:3c:80:6b:40:3f:19:19:ba:65:8a:e6:
         be:d5:5c:d3:36:d7:ef:40:52:24:60:38:67:04:31:ec:8f:f3:
         82:c6:de:b9:55:f3:3b:31:91:5a:dc:b5:08:15:ad:76:25:0a:
         0d:7b:2e:87:e2:0c:a6:06:bc:26:10:6d:37:9d:ec:dd:78:8c:
         7c:80:c5:f0:d9:77:48:d0
-----BEGIN CERTIFICATE-----
MIIHTzCCBTegAwIBAgIJAKPaQn6ksa7aMA0GCSqGSIb3DQEBBQUAMIGuMQswCQYD
VQQGEwJFVTFDMEEGA1UEBxM6TWFkcmlkIChzZWUgY3VycmVudCBhZGRyZXNzIGF0
IHd3dy5jYW1lcmZpcm1hLmNvbS9hZGRyZXNzKTESMBAGA1UEBRMJQTgyNzQzMjg3
MRswGQYDVQQKExJBQyBDYW1lcmZpcm1hIFMuQS4xKTAnBgNVBAMTIENoYW1iZXJz
IG9mIENvbW1lcmNlIFJvb3QgLSAyMDA4MB4XDTA4MDgwMTEyMjk1MFoXDTM4MDcz
MTEyMjk1MFowga4xCzAJBgNVBAYTAkVVMUMwQQYDVQQHEzpNYWRyaWQgKHNlZSBj
dXJyZW50IGFkZHJlc3MgYXQgd3d3LmNhbWVyZmlybWEuY29tL2FkZHJlc3MpMRIw
EAYDVQQFEwlBODI3NDMyODcxGzAZBgNVBAoTEkFDIENhbWVyZmlybWEgUy5BLjEp
MCcGA1UEAxMgQ2hhbWJlcnMgb2YgQ29tbWVyY2UgUm9vdCAtIDIwMDgwggIiMA0G
CSqGSIb3DQEBAQUAA4ICDwAwggIKAoICAQCvAMtwNyuAWko6bHiUfaN/Gh/2NdW9
28sNRHI+JrKQUrpjOyhYb6WzbZSm891kDFX29ufyIiKAXuFixrYp4YFs8r/lfTJq
VKAyGVn+H4vXPWCGhSRv4xGzdz4gljUha7MI2XAuZPeEklPWDrCQiorjh40G072Q
DuKZoRuGDtqaCrsLYVAGUvGef3bsyw/QHg3PmTA9HMRFEFis1tPo1+XqxQEHd9ZR
5gN/ikilTWh1uem8nk4ZcfUyS5xtYBkL+8ydddy/Js2Pk3g5eXNeJQ7KXOt3EgfL
ZEFHcpOrUMPrCXZkNNI5t3YRCQ12RcSprj1qr7V9ZS+UWBDsXHyvfuK2GNnQm05a
Sd+pZgvMPMZ4fKecHePOjlO+Bd5gD2vlGts/4+EhySnB8esHnFIbAURRPHsl18Tl
UlRdJQfKFiC4reRB7noI/plvg6aRArBsNlVq5331lubKgdaX8ZSD6e2wsWsSaR6s
+12pxZjptFtYer49okQ6Y1nUCyXeG0+95QGezdIp1Z8XGQpvvwyQ0wlf2eOKNcx5
Wk0ZN5K3xMGtr/R5JJqyAQuxr1yW84Ay+1w9mPGgP0revq+ULtlVmhduYJ1jbLhj
ya6BXBg14JC7vjxPNyK5fuvPnnchpj04gftI2jE9K+OJ9dC1vX7gUMQSibMjmhAx
hduub+84Mxh2EQIDAQABo4IBbDCCAWgwEgYDVR0TAQH/BAgwBgEB/wIBDDAdBgNV
HQ4EFgQU+SSsD7K1+HnA+mCIG8TZTQKeFxkwgeMGA1UdIwSB2zCB2IAU+SSsD7K1
+HnA+mCIG8TZTQKeFxmhgbSkgbEwga4xCzAJBgNVBAYTAkVVMUMwQQYDVQQHEzpN
YWRyaWQgKHNlZSBjdXJyZW50IGFkZHJlc3MgYXQgd3d3LmNhbWVyZmlybWEuY29t
L2FkZHJlc3MpMRIwEAYDVQQFEwlBODI3NDMyODcxGzAZBgNVBAoTEkFDIENhbWVy
ZmlybWEgUy5BLjEpMCcGA1UEAxMgQ2hhbWJlcnMgb2YgQ29tbWVyY2UgUm9vdCAt
IDIwMDiCCQCj2kJ+pLGu2jAOBgNVHQ8BAf8EBAMCAQYwPQYDVR0gBDYwNDAyBgRV
HSAAMCowKAYIKwYBBQUHAgEWHGh0dHA6Ly9wb2xpY3kuY2FtZXJmaXJtYS5jb20w
DQYJKoZIhvcNAQEFBQADggIBAJASryI1wqM58C7e6bXpeHxIvj99RZJe6dqxGfwW
PJ+0W2aeaufDuV2I6A+tzyMP3iU6XsxPpcG1Lawk0lgH3qLPaYRgM+gQDROpI9CF
5Y57pp49chNyM/WqfcZjHwj0/gF/JM8rLFQJ3uIrbZLGOU8W6jx+ekbURWpGqOt1
glanq6B8aBMz9p0w8G8nOSQjKpD9kCk18pPfNKXG9/jvjA9iSnyu0/VU+I22mlaH
FoI6M6taIgj3grrqLuBHmrS1RaMFO9ncLkVAO+rcf+g769HsJtg1pDDFOqxXnrN2
pSB7+R5KBWIBpih1YJeSDW4+TTdDDZIVnBgizVGZoCkaPF+KMjNbMMeJL0eYD6MD
xvbxrN8y8NmBGuScvfaAFPDRLLmF9dijscilIeUcE5fuDr3fKanvNFNb0+RqE4QG
tjICxFKuItLcsiFCGtpA8CnJ7AoMXOLQusxI0zcKzBIKinmwPQN/aUv0NCB9szTq
jktk9T79syNnFQ0EuPAtwQlRPLJsFfClI9eDdOTlLsn+mCdCxqvGnrDQWzilm1De
fhiYtUU79nm06PcaewaD+9CL2rvHvRirCG88gGtAPxkZumWK5r7VXNM21+9AUiRg
OGcEMeyP84LG3rlV8zsxkVrctQgVrXYlCg17LofiDKYGvCYQbTed7N14jHyAxfDZ
d0jQ
-----END CERTIFICATE-----
