Certificate:
    Data:
        Version: 3 (0x2)
        Serial Number:
            57:cb:33:6f:c2:5c:16:e6:47:16:17:e3:90:31:68:e0
    Signature Algorithm: sha1WithRSAEncryption
        Issuer: C=US, O=Network Solutions L.L.C., CN=Network Solutions Certificate Authority
        Validity
            Not Before: Dec  1 00:00:00 2006 GMT
            Not After : Dec 31 23:59:59 2029 GMT
        Subject: C=US, O=Network Solutions L.L.C., CN=Network Solutions Certificate Authority
        Subject Public Key Info:
            Public Key Algorithm: rsaEncryption
                Public-Key: (2048 bit)
                Modulus:
                    00:e4:bc:7e:92:30:6d:c6:d8:8e:2b:0b:bc:46:ce:
                    e0:27:96:de:de:f9:fa:12:d3:3c:33:73:b3:04:2f:
                    bc:71:8c:e5:9f:b6:22:60:3e:5f:5d:ce:09:ff:82:
                    0c:1b:9a:51:50:1a:26:89:dd:d5:61:5d:19:dc:12:
                    0f:2d:0a:a2:43:5d:17:d0:34:92:20:ea:73:cf:38:
                    2c:06:26:09:7a:72:f7:fa:50:32:f8:c2:93:d3:69:
                    a2:23:ce:41:b1:cc:e4:d5:1f:36:d1:8a:3a:f8:8c:
                    63:e2:14:59:69:ed:0d:d3:7f:6b:e8:b8:03:e5:4f:
                    6a:e5:98:63:69:48:05:be:2e:ff:33:b6:e9:97:59:
                    69:f8:67:19:ae:93:61:96:44:15:d3:72:b0:3f:bc:
                    6a:7d:ec:48:7f:8d:c3:ab:aa:71:2b:53:69:41:53:
                    34:b5:b0:b9:c5:06:0a:c4:b0:45:f5:41:5d:6e:89:
                    45:7b:3d:3b:26:8c:74:c2:e5:d2:d1:7d:b2:11:d4:
                    fb:58:32:22:9a:80:c9:dc:fd:0c:e9:7f:5e:03:97:
                    ce:3b:00:14:87:27:70:38:a9:8e:6e:b3:27:76:98:
                    51:e0:05:e3:21:ab:1a:d5:85:22:3c:29:b5:9a:16:
                    c5:80:a8:f4:bb:6b:30:8f:2f:46:02:a2:b1:0c:22:
                    e0:d3
                Exponent: 65537 (0x10001)
        X509v3 extensions:
            X509v3 Subject Key Identifier: 
                21:30:C9:FB:00:D7:4E:98:DA:87:AA:2A:D0:A7:2E:B1:40:31:A7:4C
            X509v3 Key Usage: critical
                Certificate Sign, CRL Sign
            X509v3 Basic Constraints: critical
                CA:TRUE
            X509v3 CRL Distribution Points: 

                Full Name:
                  URI:http://crl.netsolssl.com/NetworkSolutionsCertificateAuthority.crl

    Signature Algorithm: sha1WithRSAEncryption
         bb:ae:4b:e7:b7:57:eb:7f:aa:2d:b7:73:47:85:6a:c1:e4:a5:
         1d:e4:e7:3c:e9:f4:59:65:77:b5:7a:5b:5a:8d:25:36:e0:7a:
         97:2e:38:c0:57:60:83:98:06:83:9f:b9:76:7a:6e:50:e0:ba:
         88:2c:fc:45:cc:18:b0:99:95:51:0e:ec:1d:b8:88:ff:87:50:
         1c:82:c2:e3:e0:32:80:bf:a0:0b:47:c8:c3:31:ef:99:67:32:
         80:4f:17:21:79:0c:69:5c:de:5e:34:ae:02:b5:26:ea:50:df:
         7f:18:65:2c:c9:f2:63:e1:a9:07:fe:7c:71:1f:6b:33:24:6a:
         1e:05:f7:05:68:c0:6a:12:cb:2e:5e:61:cb:ae:28:d3:7e:c2:
         b4:66:91:26:5f:3c:2e:24:5f:cb:58:0f:eb:28:ec:af:11:96:
         f3:dc:7b:6f:c0:a7:88:f2:53:77:b3:60:5e:ae:ae:28:da:35:
         2c:6f:34:45:d3:26:e1:de:ec:5b:4f:27:6b:16:7c:bd:44:04:
         18:82:b3:89:79:17:10:71:3d:7a:a2:16:4e:f5:01:cd:a4:6c:
         65:68:a1:49:76:5c:43:c9:d8:bc:36:67:6c:a5:94:b5:d4:cc:
         b9:bd:6a:35:56:21:de:d8:c3:eb:fb:cb:a4:60:4c:b0:55:a0:
         a0:7b:57:b2
-----BEGIN CERTIFICATE-----
MIID5jCCAs6gAwIBAgIQV8szb8JcFuZHFhfjkDFo4DANBgkqhkiG9w0BAQUFADBi
MQswCQYDVQQGEwJVUzEhMB8GA1UEChMYTmV0d29yayBTb2x1dGlvbnMgTC5MLkMu
MTAwLgYDVQQDEydOZXR3b3JrIFNvbHV0aW9ucyBDZXJ0aWZpY2F0ZSBBdXRob3Jp
dHkwHhcNMDYxMjAxMDAwMDAwWhcNMjkxMjMxMjM1OTU5WjBiMQswCQYDVQQGEwJV
UzEhMB8GA1UEChMYTmV0d29yayBTb2x1dGlvbnMgTC5MLkMuMTAwLgYDVQQDEydO
ZXR3b3JrIFNvbHV0aW9ucyBDZXJ0aWZpY2F0ZSBBdXRob3JpdHkwggEiMA0GCSqG
SIb3DQEBAQUAA4IBDwAwggEKAoIBAQDkvH6SMG3G2I4rC7xGzuAnlt7e+foS0zwz
c7MEL7xxjOWftiJgPl9dzgn/ggwbmlFQGiaJ3dVhXRncEg8tCqJDXRfQNJIg6nPP
OCwGJgl6cvf6UDL4wpPTaaIjzkGxzOTVHzbRijr4jGPiFFlp7Q3Tf2vouAPlT2rl
mGNpSAW+Lv8ztumXWWn4Zxmuk2GWRBXTcrA/vGp97Eh/jcOrqnErU2lBUzS1sLnF
BgrEsEX1QV1uiUV7PTsmjHTC5dLRfbIR1PtYMiKagMnc/Qzpf14Dl847ABSHJ3A4
qY5usyd2mFHgBeMhqxrVhSI8KbWaFsWAqPS7azCPL0YCorEMIuDTAgMBAAGjgZcw
gZQwHQYDVR0OBBYEFCEwyfsA106Y2oeqKtCnLrFAMadMMA4GA1UdDwEB/wQEAwIB
BjAPBgNVHRMBAf8EBTADAQH/MFIGA1UdHwRLMEkwR6BFoEOGQWh0dHA6Ly9jcmwu
bmV0c29sc3NsLmNvbS9OZXR3b3JrU29sdXRpb25zQ2VydGlmaWNhdGVBdXRob3Jp
dHkuY3JsMA0GCSqGSIb3DQEBBQUAA4IBAQC7rkvnt1frf6ott3NHhWrB5KUd5Oc8
6fRZZXe1eltajSU24HqXLjjAV2CDmAaDn7l2em5Q4LqILPxFzBiwmZVRDuwduIj/
h1AcgsLj4DKAv6ALR8jDMe+ZZzKATxcheQxpXN5eNK4CtSbqUN9/GGUsyfJj4akH
/nxxH2szJGoeBfcFaMBqEssuXmHLrijTfsK0ZpEmXzwuJF/LWA/rKOyvEZbz3Htv
wKeI8lN3s2Berq4o2jUsbzRF0ybh3uxbTydrFny9RAQYgrOJeRcQcT16ohZO9QHN
pGxlaKFJdlxDydi8NmdspZS11My5vWo1ViHe2MPr+8ukYEywVaCge1ey
-----END CERTIFICATE-----
