Certificate:
    Data:
        Version: 3 (0x2)
        Serial Number:
            1f:47:af:aa:62:00:70:50:54:4c:01:9e:9b:63:99:2a
    Signature Algorithm: ecdsa-with-SHA384
        Issuer: C=GB, ST=Greater Manchester, L=Salford, O=COMODO CA Limited, CN=COMODO ECC Certification Authority
        Validity
            Not Before: Mar  6 00:00:00 2008 GMT
            Not After : Jan 18 23:59:59 2038 GMT
        Subject: C=GB, ST=Greater Manchester, L=Salford, O=COMODO CA Limited, CN=COMODO ECC Certification Authority
        Subject Public Key Info:
            Public Key Algorithm: id-ecPublicKey
                Public-Key: (384 bit)
                pub: 
                    04:03:47:7b:2f:75:c9:82:15:85:fb:75:e4:91:16:
                    d4:ab:62:99:f5:3e:52:0b:06:ce:41:00:7f:97:e1:
                    0a:24:3c:1d:01:04:ee:3d:d2:8d:09:97:0c:e0:75:
                    e4:fa:fb:77:8a:2a:f5:03:60:4b:36:8b:16:23:16:
                    ad:09:71:f4:4a:f4:28:50:b4:fe:88:1c:6e:3f:6c:
                    2f:2f:09:59:5b:a5:5b:0b:33:99:e2:c3:3d:89:f9:
                    6a:2c:ef:b2:d3:06:e9
                ASN1 OID: secp384r1
        X509v3 extensions:
            X509v3 Subject Key Identifier: 
                75:71:A7:19:48:19:BC:9D:9D:EA:41:47:DF:94:C4:48:77:99:D3:79
            X509v3 Key Usage: critical
                Certificate Sign, CRL Sign
            X509v3 Basic Constraints: critical
                CA:TRUE
    Signature Algorithm: ecdsa-with-SHA384
         30:65:02:31:00:ef:03:5b:7a:ac:b7:78:0a:72:b7:88:df:ff:
         b5:46:14:09:0a:fa:a0:e6:7d:08:c6:1a:87:bd:18:a8:73:bd:
         26:ca:60:0c:9d:ce:99:9f:cf:5c:0f:30:e1:be:14:31:ea:02:
         30:14:f4:93:3c:49:a7:33:7a:90:46:47:b3:63:7d:13:9b:4e:
         b7:6f:18:37:80:53:fe:dd:20:e0:35:9a:36:d1:c7:01:b9:e6:
         dc:dd:f3:ff:1d:2c:3a:16:57:d9:92:39:d6
-----BEGIN CERTIFICATE-----
MIICiTCCAg+gAwIBAgIQH0evqmIAcFBUTAGem2OZKjAKBggqhkjOPQQDAzCBhTEL
MAkGA1UEBhMCR0IxGzAZBgNVBAgTEkdyZWF0ZXIgTWFuY2hlc3RlcjEQMA4GA1UE
BxMHU2FsZm9yZDEaMBgGA1UEChMRQ09NT0RPIENBIExpbWl0ZWQxKzApBgNVBAMT
IkNPTU9ETyBFQ0MgQ2VydGlmaWNhdGlvbiBBdXRob3JpdHkwHhcNMDgwMzA2MDAw
MDAwWhcNMzgwMTE4MjM1OTU5WjCBhTELMAkGA1UEBhMCR0IxGzAZBgNVBAgTEkdy
ZWF0ZXIgTWFuY2hlc3RlcjEQMA4GA1UEBxMHU2FsZm9yZDEaMBgGA1UEChMRQ09N
T0RPIENBIExpbWl0ZWQxKzApBgNVBAMTIkNPTU9ETyBFQ0MgQ2VydGlmaWNhdGlv
biBBdXRob3JpdHkwdjAQBgcqhkjOPQIBBgUrgQQAIgNiAAQDR3svdcmCFYX7deSR
FtSrYpn1PlILBs5BAH+X4QokPB0BBO490o0JlwzgdeT6+3eKKvUDYEs2ixYjFq0J
cfRK9ChQtP6IHG4/bC8vCVlbpVsLM5niwz2J+Wos77LTBumjQjBAMB0GA1UdDgQW
BBR1cacZSBm8nZ3qQUfflMRId5nTeTAOBgNVHQ8BAf8EBAMCAQYwDwYDVR0TAQH/
BAUwAwEB/zAKBggqhkjOPQQDAwNoADBlAjEA7wNbeqy3eApyt4jf/7VGFAkK+qDm
fQjGGoe9GKhzvSbKYAydzpmfz1wPMOG+FDHqAjAU9JM8SaczepBGR7NjfRObTrdv
GDeAU/7dIOA1mjbRxwG55tzd8/8dLDoWV9mSOdY=
-----END CERTIFICATE-----
