Certificate:
    Data:
        Version: 3 (0x2)
        Serial Number:
            60:59:49:e0:26:2e:bb:55:f9:0a:77:8a:71:f9:4a:d8:6c
    Signature Algorithm: ecdsa-with-SHA384
        Issuer: OU=GlobalSign ECC Root CA - R5, O=GlobalSign, CN=GlobalSign
        Validity
            Not Before: Nov 13 00:00:00 2012 GMT
            Not After : Jan 19 03:14:07 2038 GMT
        Subject: OU=GlobalSign ECC Root CA - R5, O=GlobalSign, CN=GlobalSign
        Subject Public Key Info:
            Public Key Algorithm: id-ecPublicKey
                Public-Key: (384 bit)
                pub: 
                    04:47:45:0e:96:fb:7d:5d:bf:e9:39:d1:21:f8:9f:
                    0b:b6:d5:7b:1e:92:3a:48:59:1c:f0:62:31:2d:c0:
                    7a:28:fe:1a:a7:5c:b3:b6:cc:97:e7:45:d4:58:fa:
                    d1:77:6d:43:a2:c0:87:65:34:0a:1f:7a:dd:eb:3c:
                    33:a1:c5:9d:4d:a4:6f:41:95:38:7f:c9:1e:84:eb:
                    d1:9e:49:92:87:94:87:0c:3a:85:4a:66:9f:9d:59:
                    93:4d:97:61:06:86:4a
                ASN1 OID: secp384r1
        X509v3 extensions:
            X509v3 Key Usage: critical
                Certificate Sign, CRL Sign
            X509v3 Basic Constraints: critical
                CA:TRUE
            X509v3 Subject Key Identifier: 
                3D:E6:29:48:9B:EA:07:CA:21:44:4A:26:DE:6E:DE:D2:83:D0:9F:59
    Signature Algorithm: ecdsa-with-SHA384
         30:65:02:31:00:e5:69:12:c9:6e:db:c6:31:ba:09:41:e1:97:
         f8:fb:fd:9a:e2:7d:12:c9:ed:7c:64:d3:cb:05:25:8b:56:d9:
         a0:e7:5e:5d:4e:0b:83:9c:5b:76:29:a0:09:26:21:6a:62:02:
         30:71:d2:b5:8f:5c:ea:3b:e1:78:09:85:a8:75:92:3b:c8:5c:
         fd:48:ef:0d:74:22:a8:08:e2:6e:c5:49:ce:c7:0c:bc:a7:61:
         69:f1:f7:3b:e1:2a:cb:f9:2b:f3:66:90:37
-----BEGIN CERTIFICATE-----
MIICHjCCAaSgAwIBAgIRYFlJ4CYuu1X5CneKcflK2GwwCgYIKoZIzj0EAwMwUDEk
MCIGA1UECxMbR2xvYmFsU2lnbiBFQ0MgUm9vdCBDQSAtIFI1MRMwEQYDVQQKEwpH
bG9iYWxTaWduMRMwEQYDVQQDEwpHbG9iYWxTaWduMB4XDTEyMTExMzAwMDAwMFoX
DTM4MDExOTAzMTQwN1owUDEkMCIGA1UECxMbR2xvYmFsU2lnbiBFQ0MgUm9vdCBD
QSAtIFI1MRMwEQYDVQQKEwpHbG9iYWxTaWduMRMwEQYDVQQDEwpHbG9iYWxTaWdu
MHYwEAYHKoZIzj0CAQYFK4EEACIDYgAER0UOlvt9Xb/pOdEh+J8LttV7HpI6SFkc
8GIxLcB6KP4ap1yztsyX50XUWPrRd21DosCHZTQKH3rd6zwzocWdTaRvQZU4f8ke
hOvRnkmSh5SHDDqFSmafnVmTTZdhBoZKo0IwQDAOBgNVHQ8BAf8EBAMCAQYwDwYD
VR0TAQH/BAUwAwEB/zAdBgNVHQ4EFgQUPeYpSJvqB8ohREom3m7e0oPQn1kwCgYI
KoZIzj0EAwMDaAAwZQIxAOVpEslu28YxuglB4Zf4+/2a4n0Sye18ZNPLBSWLVtmg
515dTguDnFt2KaAJJiFqYgIwcdK1j1zqO+F4CYWodZI7yFz9SO8NdCKoCOJuxUnO
xwy8p2Fp8fc74SrL+SvzZpA3
-----END CERTIFICATE-----
