Certificate:
    Data:
        Version: 3 (0x2)
        Serial Number:
            06:6c:9f:d5:74:97:36:66:3f:3b:0b:9a:d9:e8:9e:76:03:f2:4a
    Signature Algorithm: ecdsa-with-SHA256
        Issuer: C=US, O=Amazon, CN=Amazon Root CA 3
        Validity
            Not Before: May 26 00:00:00 2015 GMT
            Not After : May 26 00:00:00 2040 GMT
        Subject: C=US, O=Amazon, CN=Amazon Root CA 3
        Subject Public Key Info:
            Public Key Algorithm: id-ecPublicKey
                Public-Key: (256 bit)
                pub: 
                    04:29:97:a7:c6:41:7f:c0:0d:9b:e8:01:1b:56:c6:
                    f2:52:a5:ba:2d:b2:12:e8:d2:2e:d7:fa:c9:c5:d8:
                    aa:6d:1f:73:81:3b:3b:98:6b:39:7c:33:a5:c5:4e:
                    86:8e:80:17:68:62:45:57:7d:44:58:1d:b3:37:e5:
                    67:08:eb:66:de
                ASN1 OID: prime256v1
        X509v3 extensions:
            X509v3 Basic Constraints: critical
                CA:TRUE
            X509v3 Key Usage: critical
                Digital Signature, Certificate Sign, CRL Sign
            X509v3 Subject Key Identifier: 
                AB:B6:DB:D7:06:9E:37:AC:30:86:07:91:70:C7:9C:C4:19:B1:78:C0
    Signature Algorithm: ecdsa-with-SHA256
         30:46:02:21:00:e0:85:92:a3:17:b7:8d:f9:2b:06:a5:93:ac:
         1a:98:68:61:72:fa:e1:a1:d0:fb:1c:78:60:a6:43:99:c5:b8:
         c4:02:21:00:9c:02:ef:f1:94:9c:b3:96:f9:eb:c6:2a:f8:b6:
         2c:fe:3a:90:14:16:d7:8c:63:24:48:1c:df:30:7d:d5:68:3b
-----BEGIN CERTIFICATE-----
MIIBtjCCAVugAwIBAgITBmyf1XSXNmY/Owua2eiedgPySjAKBggqhkjOPQQDAjA5
MQswCQYDVQQGEwJVUzEPMA0GA1UEChMGQW1hem9uMRkwFwYDVQQDExBBbWF6b24g
Um9vdCBDQSAzMB4XDTE1MDUyNjAwMDAwMFoXDTQwMDUyNjAwMDAwMFowOTELMAkG
A1UEBhMCVVMxDzANBgNVBAoTBkFtYXpvbjEZMBcGA1UEAxMQQW1hem9uIFJvb3Qg
Q0EgMzBZMBMGByqGSM49AgEGCCqGSM49AwEHA0IABCmXp8ZBf8ANm+gBG1bG8lKl
ui2yEujSLtf6ycXYqm0fc4E7O5hrOXwzpcVOho6AF2hiRVd9RFgdszflZwjrZt6j
QjBAMA8GA1UdEwEB/wQFMAMBAf8wDgYDVR0PAQH/BAQDAgGGMB0GA1UdDgQWBBSr
ttvXBp43rDCGB5Fwx5zEGbF4wDAKBggqhkjOPQQDAgNJADBGAiEA4IWSoxe3jfkr
BqWTrBqYaGFy+uGh0PsceGCmQ5nFuMQCIQCcAu/xlJyzlvnrxir4tiz+OpAUFteM
YyRIHN8wfdVoOw==
-----END CERTIFICATE-----
