Certificate:
    Data:
        Version: 3 (0x2)
        Serial Number:
            20:a4:c4:7f:dd:df:e1:c7:53:63:07:13:88:77:60:12
    Signature Algorithm: sha1WithRSAEncryption
        Issuer: C=GB, ST=Greater Manchester, L=Salford, O=COMODO CA Limited, CN=COMODO Certification Authority
        Validity
            Not Before: Jan  1 00:00:00 2011 GMT
            Not After : Dec 31 23:59:59 2030 GMT
        Subject: C=GB, ST=Greater Manchester, L=Salford, O=COMODO CA Limited, CN=COMODO Certification Authority
        Subject Public Key Info:
            Public Key Algorithm: rsaEncryption
                Public-Key: (2048 bit)
                Modulus:
                    00:d0:40:8b:8b:72:e3:91:1b:f7:51:c1:1b:54:04:
                    98:d3:a9:bf:c1:e6:8a:5d:3b:87:fb:bb:88:ce:0d:
                    e3:2f:3f:06:96:f0:a2:29:50:99:ae:db:3b:a1:57:
                    b0:74:51:71:cd:ed:42:91:4d:41:fe:a9:c8:d8:6a:
                    86:77:44:bb:59:66:97:50:5e:b4:d4:2c:70:44:cf:
                    da:37:95:42:69:3c:30:c4:71:b3:52:f0:21:4d:a1:
                    d8:ba:39:7c:1c:9e:a3:24:9d:f2:83:16:98:aa:16:
                    7c:43:9b:15:5b:b7:ae:34:91:fe:d4:62:26:18:46:
                    9a:3f:eb:c1:f9:f1:90:57:eb:ac:7a:0d:8b:db:72:
                    30:6a:66:d5:e0:46:a3:70:dc:68:d9:ff:04:48:89:
                    77:de:b5:e9:fb:67:6d:41:e9:bc:39:bd:32:d9:62:
                    02:f1:b1:a8:3d:6e:37:9c:e2:2f:e2:d3:a2:26:8b:
                    c6:b8:55:43:88:e1:23:3e:a5:d2:24:39:6a:47:ab:
                    00:d4:a1:b3:a9:25:fe:0d:3f:a7:1d:ba:d3:51:c1:
                    0b:a4:da:ac:38:ef:55:50:24:05:65:46:93:34:4f:
                    2d:8d:ad:c6:d4:21:19:d2:8e:ca:05:61:71:07:73:
                    47:e5:8a:19:12:bd:04:4d:ce:4e:9c:a5:48:ac:bb:
                    26:f7
                Exponent: 65537 (0x10001)
        X509v3 extensions:
            X509v3 Subject Key Identifier: 
                0B:58:E5:8B:C6:4C:15:37:A4:40:A9:30:A9:21:BE:47:36:5A:56:FF
            X509v3 Key Usage: critical
                Certificate Sign, CRL Sign
            X509v3 Basic Constraints: critical
                CA:TRUE
    Signature Algorithm: sha1WithRSAEncryption
         2f:c9:c4:1c:07:3b:cf:61:02:00:b1:d9:21:51:75:72:03:30:
         b0:c4:16:1f:6c:00:8b:10:ac:af:f1:47:d4:ae:10:3c:0c:1a:
         f8:d4:93:6c:ac:10:37:7c:b7:a6:83:64:ad:cd:df:0e:87:33:
         9d:37:b0:c6:7b:38:72:b1:f3:1a:0e:a3:f9:55:7a:6d:03:66:
         03:17:95:4a:f1:b1:7a:df:56:21:06:42:8f:b1:d3:a8:85:de:
         ee:97:1d:62:eb:a7:e7:31:12:66:c3:0f:a6:4b:2e:41:82:f7:
         fd:c9:1b:a8:1b:af:ee:3c:ce:e3:9c:ae:28:07:a1:2c:9b:24:
         c2:0f:23:26:83:32:8b:86:0f:1f:2b:12:46:25:16:8f:76:90:
         03:6b:de:bc:aa:22:68:6b:8c:a1:ac:2b:11:39:a6:db:70:c2:
         7d:72:e9:33:e7:fc:26:f1:74:5a:91:e6:9d:84:ac:f8:a8:06:
         19:46:e6:a7:e9:aa:34:22:a4:a1:9f:7a:ad:b7:b2:a4:9a:33:
         88:71:02:3c:2e:d6:7a:b2:1f:a2:ca:c0:dd:2f:10:94:fd:b3:
         8c:84:20:79:46:d5:05:d4:10:e4:d2:db:64:4f:b8:5b:ee:1b:
         c5:20:47:5b:94:ab:6e:d4:95:33:1d:a6:15:71:f1:f8:94:ca:
         54:39:3e:c1
-----BEGIN CERTIFICATE-----
MIID0DCCArigAwIBAgIQIKTEf93f4cdTYwcTiHdgEjANBgkqhkiG9w0BAQUFADCB
gTELMAkGA1UEBhMCR0IxGzAZBgNVBAgTEkdyZWF0ZXIgTWFuY2hlc3RlcjEQMA4G
A1UEBxMHU2FsZm9yZDEaMBgGA1UEChMRQ09NT0RPIENBIExpbWl0ZWQxJzAlBgNV
BAMTHkNPTU9ETyBDZXJ0aWZpY2F0aW9uIEF1dGhvcml0eTAeFw0xMTAxMDEwMDAw
MDBaFw0zMDEyMzEyMzU5NTlaMIGBMQswCQYDVQQGEwJHQjEbMBkGA1UECBMSR3Jl
YXRlciBNYW5jaGVzdGVyMRAwDgYDVQQHEwdTYWxmb3JkMRowGAYDVQQKExFDT01P
RE8gQ0EgTGltaXRlZDEnMCUGA1UEAxMeQ09NT0RPIENlcnRpZmljYXRpb24gQXV0
aG9yaXR5MIIBIjANBgkqhkiG9w0BAQEFAAOCAQ8AMIIBCgKCAQEA0ECLi3LjkRv3
UcEbVASY06m/weaKXTuH+7uIzg3jLz8GlvCiKVCZrts7oVewdFFxze1CkU1B/qnI
2GqGd0S7WWaXUF601CxwRM/aN5VCaTwwxHGzUvAhTaHYujl8HJ6jJJ3ygxaYqhZ8
Q5sVW7euNJH+1GImGEaaP+vB+fGQV+useg2L23IwambV4EajcNxo2f8ESIl33rXp
+2dtQem8Ob0y2WIC8bGoPW43nOIv4tOiJovGuFVDiOEjPqXSJDlqR6sA1KGzqSX+
DT+nHbrTUcELpNqsOO9VUCQFZUaTNE8tja3G1CEZ0o7KBWFxB3NH5YoZEr0ETc5O
nKVIrLsm9wIDAQABo0IwQDAdBgNVHQ4EFgQUC1jli8ZMFTekQKkwqSG+RzZaVv8w
DgYDVR0PAQH/BAQDAgEGMA8GA1UdEwEB/wQFMAMBAf8wDQYJKoZIhvcNAQEFBQAD
ggEBAC/JxBwHO89hAgCx2SFRdXIDMLDEFh9sAIsQrK/xR9SuEDwMGvjUk2ysEDd8
t6aDZK3N3w6HM503sMZ7OHKx8xoOo/lVem0DZgMXlUrxsXrfViEGQo+x06iF3u6X
HWLrp+cxEmbDD6ZLLkGC9/3JG6gbr+48zuOcrigHoSybJMIPIyaDMouGDx8rEkYl
Fo92kANr3ryqImhrjKGsKxE5pttwwn1y6TPn/CbxdFqR5p2ErPioBhlG5qfpqjQi
pKGfeq23sqSaM4hxAjwu1nqyH6LKwN0vEJT9s4yEIHlG1QXUEOTS22RPuFvuG8Ug
R1uUq27UlTMdphVx8fiUylQ5PsE=
-----END CERTIFICATE-----
