Certificate:
    Data:
        Version: 3 (0x2)
        Serial Number:
            06:6c:9f:d2:96:35:86:9f:0a:0f:e5:86:78:f8:5b:26:bb:8a:37
    Signature Algorithm: sha384WithRSAEncryption
        Issuer: C=US, O=Amazon, CN=Amazon Root CA 2
        Validity
            Not Before: May 26 00:00:00 2015 GMT
            Not After : May 26 00:00:00 2040 GMT
        Subject: C=US, O=Amazon, CN=Amazon Root CA 2
        Subject Public Key Info:
            Public Key Algorithm: rsaEncryption
                Public-Key: (4096 bit)
                Modulus:
                    00:ad:96:9f:2d:9c:4a:4c:4a:81:79:51:99:ec:8a:
                    cb:6b:60:51:13:bc:4d:6d:06:fc:b0:08:8d:dd:19:
                    10:6a:c7:26:0c:35:d8:c0:6f:20:84:e9:94:b1:9b:
                    85:03:c3:5b:db:4a:e8:c8:f8:90:76:d9:5b:4f:e3:
                    4c:e8:06:36:4d:cc:9a:ac:3d:0c:90:2b:92:d4:06:
                    19:60:ac:37:44:79:85:81:82:ad:5a:37:e0:0d:cc:
                    9d:a6:4c:52:76:ea:43:9d:b7:04:d1:50:f6:55:e0:
                    d5:d2:a6:49:85:e9:37:e9:ca:7e:ae:5c:95:4d:48:
                    9a:3f:ae:20:5a:6d:88:95:d9:34:b8:52:1a:43:90:
                    b0:bf:6c:05:b9:b6:78:b7:ea:d0:e4:3a:3c:12:53:
                    62:ff:4a:f2:7b:be:35:05:a9:12:34:e3:f3:64:74:
                    62:2c:3d:00:49:5a:28:fe:32:44:bb:87:dd:65:27:
                    02:71:3b:da:4a:f7:1f:da:cd:f7:21:55:90:4f:0f:
                    ec:ae:82:e1:9f:6b:d9:45:d3:bb:f0:5f:87:ed:3c:
                    2c:39:86:da:3f:de:ec:72:55:eb:79:a3:ad:db:dd:
                    7c:b0:ba:1c:ce:fc:de:4f:35:76:cf:0f:f8:78:1f:
                    6a:36:51:46:27:61:5b:e9:9e:cf:f0:a2:55:7d:7c:
                    25:8a:6f:2f:b4:c5:cf:84:2e:2b:fd:0d:51:10:6c:
                    fb:5f:1b:bc:1b:7e:c5:ae:3b:98:01:31:92:ff:0b:
                    57:f4:9a:b2:b9:57:e9:ab:ef:0d:76:d1:f0:ee:f4:
                    ce:86:a7:e0:6e:e9:b4:69:a1:df:69:f6:33:c6:69:
                    2e:97:13:9e:a5:87:b0:57:10:81:37:c9:53:b3:bb:
                    7f:f6:92:d1:9c:d0:18:f4:92:6e:da:83:4f:a6:63:
                    99:4c:a5:fb:5e:ef:21:64:7a:20:5f:6c:64:85:15:
                    cb:37:e9:62:0c:0b:2a:16:dc:01:2e:32:da:3e:4b:
                    f5:9e:3a:f6:17:40:94:ef:9e:91:08:86:fa:be:63:
                    a8:5a:33:ec:cb:74:43:95:f9:6c:69:52:36:c7:29:
                    6f:fc:55:03:5c:1f:fb:9f:bd:47:eb:e7:49:47:95:
                    0b:4e:89:22:09:49:e0:f5:61:1e:f1:bf:2e:8a:72:
                    6e:80:59:ff:57:3a:f9:75:32:a3:4e:5f:ec:ed:28:
                    62:d9:4d:73:f2:cc:81:17:60:ed:cd:eb:dc:db:a7:
                    ca:c5:7e:02:bd:f2:54:08:54:fd:b4:2d:09:2c:17:
                    54:4a:98:d1:54:e1:51:67:08:d2:ed:6e:7e:6f:3f:
                    d2:2d:81:59:29:66:cb:90:39:95:11:1e:74:27:fe:
                    dd:eb:af
                Exponent: 65537 (0x10001)
        X509v3 extensions:
            X509v3 Basic Constraints: critical
                CA:TRUE
            X509v3 Key Usage: critical
                Digital Signature, Certificate Sign, CRL Sign
            X509v3 Subject Key Identifier: 
                B0:0C:F0:4C:30:F4:05:58:02:48:FD:33:E5:52:AF:4B:84:E3:66:52
    Signature Algorithm: sha384WithRSAEncryption
         aa:a8:80:8f:0e:78:a3:e0:a2:d4:cd:e6:f5:98:7a:3b:ea:00:
         03:b0:97:0e:93:bc:5a:a8:f6:2c:8c:72:87:a9:b1:fc:7f:73:
         fd:63:71:78:a5:87:59:cf:30:e1:0d:10:b2:13:5a:6d:82:f5:
         6a:e6:80:9f:a0:05:0b:68:e4:47:6b:c7:6a:df:b6:fd:77:32:
         72:e5:18:fa:09:f4:a0:93:2c:5d:d2:8c:75:85:76:65:90:0c:
         03:79:b7:31:23:63:ad:78:83:09:86:68:84:ca:ff:f9:cf:26:
         9a:92:79:e7:cd:4b:c5:e7:61:a7:17:cb:f3:a9:12:93:93:6b:
         a7:e8:2f:53:92:c4:60:58:b0:cc:02:51:18:5b:85:8d:62:59:
         63:b6:ad:b4:de:9a:fb:26:f7:00:27:c0:5d:55:37:74:99:c9:
         50:7f:e3:59:2e:44:e3:2c:25:ee:ec:4c:32:77:b4:9f:1a:e9:
         4b:5d:20:c5:da:fd:1c:87:16:c6:43:e8:d4:bb:26:9a:45:70:
         5e:a9:0b:37:53:e2:46:7b:27:fd:e0:46:f2:89:b7:cc:42:b6:
         cb:28:26:6e:d9:a5:c9:3a:c8:41:13:60:f7:50:8c:15:ae:b2:
         6d:1a:15:1a:57:78:e6:92:2a:d9:65:90:82:3f:6c:02:af:ae:
         12:3a:27:96:36:04:d7:1d:a2:80:63:a9:9b:f1:e5:ba:b4:7c:
         14:b0:4e:c9:b1:1f:74:5f:38:f6:51:ea:9b:fa:2c:a2:11:d4:
         a9:2d:27:1a:45:b1:af:b2:4e:71:0d:c0:58:46:d6:69:06:cb:
         53:cb:b3:fe:6b:41:cd:41:7e:7d:4c:0f:7c:72:79:7a:59:cd:
         5e:4a:0e:ac:9b:a9:98:73:79:7c:b4:f4:cc:b9:b8:07:0c:b2:
         74:5c:b8:c7:6f:88:a1:90:a7:f4:aa:f9:bf:67:3a:f4:1a:15:
         62:1e:b7:9f:be:3d:b1:29:af:67:a1:12:f2:58:10:19:53:03:
         30:1b:b8:1a:89:f6:9c:bd:97:03:8e:a3:09:f3:1d:8b:21:f1:
         b4:df:e4:1c:d1:9f:65:02:06:ea:5c:d6:13:b3:84:ef:a2:a5:
         5c:8c:77:29:a7:68:c0:6b:ae:40:d2:a8:b4:ea:cd:f0:8d:4b:
         38:9c:19:9a:1b:28:54:b8:89:90:ef:ca:75:81:3e:1e:f2:64:
         24:c7:18:af:4e:ff:47:9e:07:f6:35:65:a4:d3:0a:56:ff:f5:
         17:64:6c:ef:a8:22:25:49:93:b6:df:00:17:da:58:7e:5d:ee:
         c5:1b:b0:d1:d1:5f:21:10:c7:f9:f3:ba:02:0a:27:07:c5:f1:
         d6:c7:d3:e0:fb:09:60:6c
-----BEGIN CERTIFICATE-----
MIIFQTCCAymgAwIBAgITBmyf0pY1hp8KD+WGePhbJruKNzANBgkqhkiG9w0BAQwF
ADA5MQswCQYDVQQGEwJVUzEPMA0GA1UEChMGQW1hem9uMRkwFwYDVQQDExBBbWF6
b24gUm9vdCBDQSAyMB4XDTE1MDUyNjAwMDAwMFoXDTQwMDUyNjAwMDAwMFowOTEL
MAkGA1UEBhMCVVMxDzANBgNVBAoTBkFtYXpvbjEZMBcGA1UEAxMQQW1hem9uIFJv
b3QgQ0EgMjCCAiIwDQYJKoZIhvcNAQEBBQADggIPADCCAgoCggIBAK2Wny2cSkxK
gXlRmeyKy2tgURO8TW0G/LAIjd0ZEGrHJgw12MBvIITplLGbhQPDW9tK6Mj4kHbZ
W0/jTOgGNk3Mmqw9DJArktQGGWCsN0R5hYGCrVo34A3MnaZMUnbqQ523BNFQ9lXg
1dKmSYXpN+nKfq5clU1Imj+uIFptiJXZNLhSGkOQsL9sBbm2eLfq0OQ6PBJTYv9K
8nu+NQWpEjTj82R0Yiw9AElaKP4yRLuH3WUnAnE72kr3H9rN9yFVkE8P7K6C4Z9r
2UXTu/Bfh+08LDmG2j/e7HJV63mjrdvdfLC6HM783k81ds8P+HgfajZRRidhW+me
z/CiVX18JYpvL7TFz4QuK/0NURBs+18bvBt+xa47mAExkv8LV/SasrlX6avvDXbR
8O70zoan4G7ptGmh32n2M8ZpLpcTnqWHsFcQgTfJU7O7f/aS0ZzQGPSSbtqDT6Zj
mUyl+17vIWR6IF9sZIUVyzfpYgwLKhbcAS4y2j5L9Z469hdAlO+ekQiG+r5jqFoz
7Mt0Q5X5bGlSNscpb/xVA1wf+5+9R+vnSUeVC06JIglJ4PVhHvG/LopyboBZ/1c6
+XUyo05f7O0oYtlNc/LMgRdg7c3r3NunysV+Ar3yVAhU/bQtCSwXVEqY0VThUWcI
0u1ufm8/0i2BWSlmy5A5lREedCf+3euvAgMBAAGjQjBAMA8GA1UdEwEB/wQFMAMB
Af8wDgYDVR0PAQH/BAQDAgGGMB0GA1UdDgQWBBSwDPBMMPQFWAJI/TPlUq9LhONm
UjANBgkqhkiG9w0BAQwFAAOCAgEAqqiAjw54o+Ci1M3m9Zh6O+oAA7CXDpO8Wqj2
LIxyh6mx/H9z/WNxeKWHWc8w4Q0QshNabYL1auaAn6AFC2jkR2vHat+2/XcycuUY
+gn0oJMsXdKMdYV2ZZAMA3m3MSNjrXiDCYZohMr/+c8mmpJ5581LxedhpxfL86kS
k5Nrp+gvU5LEYFiwzAJRGFuFjWJZY7attN6a+yb3ACfAXVU3dJnJUH/jWS5E4ywl
7uxMMne0nxrpS10gxdr9HIcWxkPo1LsmmkVwXqkLN1PiRnsn/eBG8om3zEK2yygm
btmlyTrIQRNg91CMFa6ybRoVGld45pIq2WWQgj9sAq+uEjonljYE1x2igGOpm/Hl
urR8FLBOybEfdF849lHqm/osohHUqS0nGkWxr7JOcQ3AWEbWaQbLU8uz/mtBzUF+
fUwPfHJ5elnNXkoOrJupmHN5fLT0zLm4BwyydFy4x2+IoZCn9Kr5v2c69BoVYh63
n749sSmvZ6ES8lgQGVMDMBu4Gon2nL2XA46jCfMdiyHxtN/kHNGfZQIG6lzWE7OE
76KlXIx3KadowGuuQNKotOrN8I1LOJwZmhsoVLiJkO/KdYE+HvJkJMcYr07/R54H
9jVlpNMKVv/1F2Rs76giJUmTtt8AF9pYfl3uxRuw0dFfIRDH+fO6AgonB8Xx1sfT
4PsJYGw=
-----END CERTIFICATE-----
