Certificate:
    Data:
        Version: 3 (0x2)
        Serial Number: 3182246526754555285 (0x2c299c5b16ed0595)
        Signature Algorithm: ecdsa-with-SHA256
        Issuer: C = US, ST = Texas, L = Houston, O = SSL Corporation, CN = SSL.com EV Root Certification Authority ECC
        Validity
            Not Before: Feb 12 18:15:23 2016 GMT
            Not After : Feb 12 18:15:23 2041 GMT
        Subject: C = US, ST = Texas, L = Houston, O = SSL Corporation, CN = SSL.com EV Root Certification Authority ECC
        Subject Public Key Info:
            Public Key Algorithm: id-ecPublicKey
                Public-Key: (384 bit)
                pub:
                    04:aa:12:47:90:98:1b:fb:ef:c3:40:07:83:20:4e:
                    f1:30:82:a2:06:d1:f2:92:86:61:f2:f6:21:68:ca:
                    00:c4:c7:ea:43:00:54:86:dc:fd:1f:df:00:b8:41:
                    62:5c:dc:70:16:32:de:1f:99:d4:cc:c5:07:c8:08:
                    1f:61:16:07:51:3d:7d:5c:07:53:e3:35:38:8c:df:
                    cd:9f:d9:2e:0d:4a:b6:19:2e:5a:70:5a:06:ed:be:
                    f0:a1:b0:ca:d0:09:29
                ASN1 OID: secp384r1
                NIST CURVE: P-384
        X509v3 extensions:
            X509v3 Subject Key Identifier: 
                5B:CA:5E:E5:DE:D2:81:AA:CD:A8:2D:64:51:B6:D9:72:9B:97:E6:4F
            X509v3 Basic Constraints: critical
                CA:TRUE
            X509v3 Authority Key Identifier: 
                keyid:5B:CA:5E:E5:DE:D2:81:AA:CD:A8:2D:64:51:B6:D9:72:9B:97:E6:4F

            X509v3 Key Usage: critical
                Digital Signature, Certificate Sign, CRL Sign
    Signature Algorithm: ecdsa-with-SHA256
         30:65:02:31:00:8a:e6:40:89:37:eb:e9:d5:13:d9:ca:d4:6b:
         24:f3:b0:3d:87:46:58:1a:ec:b1:df:6f:fb:56:ba:70:6b:c7:
         38:cc:e8:b1:8c:4f:0f:f7:f1:67:76:0e:83:d0:1e:51:8f:02:
         30:3d:f6:23:28:26:4c:c6:60:87:93:26:9b:b2:35:1e:ba:d6:
         f7:3c:d1:1c:ce:fa:25:3c:a6:1a:81:15:5b:f3:12:0f:6c:ee:
         65:8a:c9:87:a8:f9:07:e0:62:9a:8c:5c:4a
-----BEGIN CERTIFICATE-----
MIIClDCCAhqgAwIBAgIILCmcWxbtBZUwCgYIKoZIzj0EAwIwfzELMAkGA1UEBhMC
VVMxDjAMBgNVBAgMBVRleGFzMRAwDgYDVQQHDAdIb3VzdG9uMRgwFgYDVQQKDA9T
U0wgQ29ycG9yYXRpb24xNDAyBgNVBAMMK1NTTC5jb20gRVYgUm9vdCBDZXJ0aWZp
Y2F0aW9uIEF1dGhvcml0eSBFQ0MwHhcNMTYwMjEyMTgxNTIzWhcNNDEwMjEyMTgx
NTIzWjB/MQswCQYDVQQGEwJVUzEOMAwGA1UECAwFVGV4YXMxEDAOBgNVBAcMB0hv
dXN0b24xGDAWBgNVBAoMD1NTTCBDb3Jwb3JhdGlvbjE0MDIGA1UEAwwrU1NMLmNv
bSBFViBSb290IENlcnRpZmljYXRpb24gQXV0aG9yaXR5IEVDQzB2MBAGByqGSM49
AgEGBSuBBAAiA2IABKoSR5CYG/vvw0AHgyBO8TCCogbR8pKGYfL2IWjKAMTH6kMA
VIbc/R/fALhBYlzccBYy3h+Z1MzFB8gIH2EWB1E9fVwHU+M1OIzfzZ/ZLg1Kthku
WnBaBu2+8KGwytAJKaNjMGEwHQYDVR0OBBYEFFvKXuXe0oGqzagtZFG22XKbl+ZP
MA8GA1UdEwEB/wQFMAMBAf8wHwYDVR0jBBgwFoAUW8pe5d7SgarNqC1kUbbZcpuX
5k8wDgYDVR0PAQH/BAQDAgGGMAoGCCqGSM49BAMCA2gAMGUCMQCK5kCJN+vp1RPZ
ytRrJPOwPYdGWBrssd9v+1a6cGvHOMzosYxPD/fxZ3YOg9AeUY8CMD32IygmTMZg
h5Mmm7I1HrrW9zzRHM76JTymGoEVW/MSD2zuZYrJh6j5B+BimoxcSg==
-----END CERTIFICATE-----
