Certificate:
    Data:
        Version: 3 (0x2)
        Serial Number:
            06:e8:46:27:2f:1f:0a:8f:d1:84:5c:e3:69:f6:d5
    Signature Algorithm: sha1WithRSAEncryption
        Issuer: C=ES, O=IZENPE S.A., CN=Izenpe.com
        Validity
            Not Before: Dec 13 13:08:27 2007 GMT
            Not After : Dec 13 08:27:25 2037 GMT
        Subject: C=ES, O=IZENPE S.A., CN=Izenpe.com
        Subject Public Key Info:
            Public Key Algorithm: rsaEncryption
                Public-Key: (4096 bit)
                Modulus:
                    00:c9:d3:7a:ca:0f:1e:ac:a7:86:e8:16:65:6a:b1:
                    c2:1b:45:32:71:95:d9:fe:10:5b:cc:af:e7:a5:79:
                    01:8f:89:c3:ca:f2:55:71:f7:77:be:77:94:f3:72:
                    a4:2c:44:d8:9e:92:9b:14:3a:a1:e7:24:90:0a:0a:
                    56:8e:c5:d8:26:94:e1:d9:48:e1:2d:3e:da:0a:72:
                    dd:a3:99:15:da:81:a2:87:f4:7b:6e:26:77:89:58:
                    ad:d6:eb:0c:b2:41:7a:73:6e:6d:db:7a:78:41:e9:
                    08:88:12:7e:87:2e:66:11:63:6c:54:fb:3c:9d:72:
                    c0:bc:2e:ff:c2:b7:dd:0d:76:e3:3a:d7:f7:b4:68:
                    be:a2:f5:e3:81:6e:c1:46:6f:5d:8d:e0:4d:c6:54:
                    55:89:1a:33:31:0a:b1:57:b9:a3:8a:98:c3:ec:3b:
                    34:c5:95:41:69:7e:75:c2:3c:20:c5:61:ba:51:47:
                    a0:20:90:93:a1:90:4b:f3:4e:7c:85:45:54:9a:d1:
                    05:26:41:b0:b5:4d:1d:33:be:c4:03:c8:25:7c:c1:
                    70:db:3b:f4:09:2d:54:27:48:ac:2f:e1:c4:ac:3e:
                    c8:cb:92:4c:53:39:37:23:ec:d3:01:f9:e0:09:44:
                    4d:4d:64:c0:e1:0d:5a:87:22:bc:ad:1b:a3:fe:26:
                    b5:15:f3:a7:fc:84:19:e9:ec:a1:88:b4:44:69:84:
                    83:f3:89:d1:74:06:a9:cc:0b:d6:c2:de:27:85:50:
                    26:ca:17:b8:c9:7a:87:56:2c:1a:01:1e:6c:be:13:
                    ad:10:ac:b5:24:f5:38:91:a1:d6:4b:da:f1:bb:d2:
                    de:47:b5:f1:bc:81:f6:59:6b:cf:19:53:e9:8d:15:
                    cb:4a:cb:a9:6f:44:e5:1b:41:cf:e1:86:a7:ca:d0:
                    6a:9f:bc:4c:8d:06:33:5a:a2:85:e5:90:35:a0:62:
                    5c:16:4e:f0:e3:a2:fa:03:1a:b4:2c:71:b3:58:2c:
                    de:7b:0b:db:1a:0f:eb:de:21:1f:06:77:06:03:b0:
                    c9:ef:99:fc:c0:b9:4f:0b:86:28:fe:d2:b9:ea:e3:
                    da:a5:c3:47:69:12:e0:db:f0:f6:19:8b:ed:7b:70:
                    d7:02:d6:ed:87:18:28:2c:04:24:4c:77:e4:48:8a:
                    1a:c6:3b:9a:d4:0f:ca:fa:75:d2:01:40:5a:8d:79:
                    bf:8b:cf:4b:cf:aa:16:c1:95:e4:ad:4c:8a:3e:17:
                    91:d4:b1:62:e5:82:e5:80:04:a4:03:7e:8d:bf:da:
                    7f:a2:0f:97:4f:0c:d3:0d:fb:d7:d1:e5:72:7e:1c:
                    c8:77:ff:5b:9a:0f:b7:ae:05:46:e5:f1:a8:16:ec:
                    47:a4:17
                Exponent: 65537 (0x10001)
        X509v3 extensions:
            X509v3 Subject Alternative Name: 
                email:info@izenpe.com, DirName:/O=IZENPE S.A. - CIF A01337260-RMerc.Vitoria-Gasteiz T1055 F62 S8/street=Avda del Mediterraneo Etorbidea 14 - 01010 Vitoria-Gasteiz
            X509v3 Basic Constraints: critical
                CA:TRUE
            X509v3 Key Usage: critical
                Certificate Sign, CRL Sign
            X509v3 Subject Key Identifier: 
                1D:1C:65:0E:A8:F2:25:7B:B4:91:CF:E4:B1:B1:E6:BD:55:74:6C:05
    Signature Algorithm: sha1WithRSAEncryption
         c7:81:46:6f:21:18:4f:a0:05:ef:e7:d5:ba:97:50:a2:60:ed:
         a5:92:14:1a:52:9b:f9:f1:88:4a:a0:dc:78:75:d1:d5:1f:95:
         4e:c5:e7:b7:69:e6:22:f4:f8:29:a8:2a:89:be:cf:cf:76:8f:
         e3:31:73:9d:26:d3:1c:1b:47:16:29:07:68:84:8a:d2:fb:b1:
         1b:24:3e:d2:98:18:2c:24:8e:af:f6:7b:ea:44:16:1b:2a:c4:
         fa:a0:97:e9:ea:6c:58:a4:ef:75:ab:00:62:d1:9d:ed:13:36:
         db:22:0b:b6:f0:d1:f4:6e:7b:46:87:c2:9d:bc:bd:be:42:3b:
         b7:73:d0:9a:2a:3c:b4:5b:12:16:00:af:19:39:8d:ad:83:50:
         1c:c8:81:4f:bd:02:0f:3d:9e:35:96:ee:ef:e4:c2:03:7c:29:
         1c:02:7e:bd:34:27:5e:af:53:d6:9d:17:bf:57:6c:e9:d0:83:
         10:af:bf:5d:4d:ef:90:7b:5d:2b:ac:ec:ea:7d:00:26:17:cc:
         02:5c:63:d7:19:18:a7:ec:2b:c7:8a:3e:58:0e:8a:87:e6:83:
         9f:4e:b2:34:1e:ac:54:09:4f:1d:02:0b:39:7e:81:08:15:b9:
         a0:69:13:c8:32:2b:e3:ad:6c:13:d6:83:9d:23:2d:b2:6d:a2:
         88:86:7e:a8:0d:01:26:09:40:d9:ed:28:4e:8c:93:24:0f:db:
         f1:1e:4d:7a:7a:5a:e2:a5:58:f1:dc:8f:5f:99:82:0c:2e:cf:
         b2:dd:98:cc:92:94:3f:f9:09:b3:a5:96:25:5b:37:f5:12:85:
         41:e2:19:4c:c6:8a:08:c1:dc:18:7a:0f:1e:3f:82:59:a2:9a:
         3e:3f:f9:e0:09:9f:fd:c1:91:4b:5d:c9:7b:d6:b6:89:fc:df:
         1d:7c:86:aa:cd:03:f2:0b:52:92:f1:62:6f:7f:87:ea:ab:76:
         c9:6c:50:c2:19:82:af:aa:1d:f5:20:28:68:2e:d5:fc:64:37:
         4f:cf:a5:44:c4:be:72:b4:8c:74:b4:6c:a7:fa:f2:bd:74:38:
         43:2b:de:af:f9:dc:d8:e0:9d:9f:dc:3d:ca:a5:63:44:bf:92:
         a2:4f:4c:80:1c:bb:1a:c3:9a:4a:04:55:4d:ca:ee:26:0b:1c:
         bf:02:c5:64:d3:9e:7e:d2:d3:91:1c:4b:a2:f5:1c:e5:17:1c:
         0d:0c:52:a3:91:1f:9c:f0:21:ed:02:94:6f:a9:a0:49:ca:e8:
         43:8c:c4:f4:34:da:7c:22:a3:c6:66:3e:b8:1b:05:88:5d:ba:
         bc:f7:bc:e5:dc:14:3d:a7:86:a8:b6:59:52:21:03:5e:8b:e3:
         04:ed:4b:2a:1e:a3:4f:50
-----BEGIN CERTIFICATE-----
MIIF8DCCA9igAwIBAgIPBuhGJy8fCo/RhFzjafbVMA0GCSqGSIb3DQEBBQUAMDgx
CzAJBgNVBAYTAkVTMRQwEgYDVQQKDAtJWkVOUEUgUy5BLjETMBEGA1UEAwwKSXpl
bnBlLmNvbTAeFw0wNzEyMTMxMzA4MjdaFw0zNzEyMTMwODI3MjVaMDgxCzAJBgNV
BAYTAkVTMRQwEgYDVQQKDAtJWkVOUEUgUy5BLjETMBEGA1UEAwwKSXplbnBlLmNv
bTCCAiIwDQYJKoZIhvcNAQEBBQADggIPADCCAgoCggIBAMnTesoPHqynhugWZWqx
whtFMnGV2f4QW8yv56V5AY+Jw8ryVXH3d753lPNypCxE2J6SmxQ6oeckkAoKVo7F
2CaU4dlI4S0+2gpy3aOZFdqBoof0e24md4lYrdbrDLJBenNubdt6eEHpCIgSfocu
ZhFjbFT7PJ1ywLwu/8K33Q124zrX97RovqL144FuwUZvXY3gTcZUVYkaMzEKsVe5
o4qYw+w7NMWVQWl+dcI8IMVhulFHoCCQk6GQS/NOfIVFVJrRBSZBsLVNHTO+xAPI
JXzBcNs79AktVCdIrC/hxKw+yMuSTFM5NyPs0wH54AlETU1kwOENWocivK0bo/4m
tRXzp/yEGensoYi0RGmEg/OJ0XQGqcwL1sLeJ4VQJsoXuMl6h1YsGgEebL4TrRCs
tST1OJGh1kva8bvS3ke18byB9llrzxlT6Y0Vy0rLqW9E5RtBz+GGp8rQap+8TI0G
M1qiheWQNaBiXBZO8OOi+gMatCxxs1gs3nsL2xoP694hHwZ3BgOwye+Z/MC5TwuG
KP7Suerj2qXDR2kS4Nvw9hmL7Xtw1wLW7YcYKCwEJEx35EiKGsY7mtQPyvp10gFA
Wo15v4vPS8+qFsGV5K1Mij4XkdSxYuWC5YAEpAN+jb/af6IPl08M0w3719Hlcn4c
yHf/W5oPt64FRuXxqBbsR6QXAgMBAAGjgfYwgfMwgbAGA1UdEQSBqDCBpYEPaW5m
b0BpemVucGUuY29tpIGRMIGOMUcwRQYDVQQKDD5JWkVOUEUgUy5BLiAtIENJRiBB
MDEzMzcyNjAtUk1lcmMuVml0b3JpYS1HYXN0ZWl6IFQxMDU1IEY2MiBTODFDMEEG
A1UECQw6QXZkYSBkZWwgTWVkaXRlcnJhbmVvIEV0b3JiaWRlYSAxNCAtIDAxMDEw
IFZpdG9yaWEtR2FzdGVpejAPBgNVHRMBAf8EBTADAQH/MA4GA1UdDwEB/wQEAwIB
BjAdBgNVHQ4EFgQUHRxlDqjyJXu0kc/ksbHmvVV0bAUwDQYJKoZIhvcNAQEFBQAD
ggIBAMeBRm8hGE+gBe/n1bqXUKJg7aWSFBpSm/nxiEqg3Hh10dUflU7F57dp5iL0
+CmoKom+z892j+Mxc50m0xwbRxYpB2iEitL7sRskPtKYGCwkjq/2e+pEFhsqxPqg
l+nqbFik73WrAGLRne0TNtsiC7bw0fRue0aHwp28vb5CO7dz0JoqPLRbEhYArxk5
ja2DUBzIgU+9Ag89njWW7u/kwgN8KRwCfr00J16vU9adF79XbOnQgxCvv11N75B7
XSus7Op9ACYXzAJcY9cZGKfsK8eKPlgOiofmg59OsjQerFQJTx0CCzl+gQgVuaBp
E8gyK+OtbBPWg50jLbJtooiGfqgNASYJQNntKE6MkyQP2/EeTXp6WuKlWPHcj1+Z
ggwuz7LdmMySlD/5CbOlliVbN/UShUHiGUzGigjB3Bh6Dx4/glmimj4/+eAJn/3B
kUtdyXvWton83x18hqrNA/ILUpLxYm9/h+qrdslsUMIZgq+qHfUgKGgu1fxkN0/P
pUTEvnK0jHS0bKf68r10OEMr3q/53NjgnZ/cPcqlY0S/kqJPTIAcuxrDmkoEVU3K
7iYLHL8CxWTTnn7S05EcS6L1HOUXHA0MUqORH5zwIe0ClG+poEnK6EOMxPQ02nwi
o8ZmPrgbBYhdurz3vOXcFD2nhqi2WVIhA16L4wTtSyoeo09Q
-----END CERTIFICATE-----
