Certificate:
    Data:
        Version: 3 (0x2)
        Serial Number:
            05:55:56:bc:f2:5e:a4:35:35:c3:a4:0f:d5:ab:45:72
    Signature Algorithm: ecdsa-with-SHA384
        Issuer: C=US, O=DigiCert Inc, OU=www.digicert.com, CN=DigiCert Global Root G3
        Validity
            Not Before: Aug  1 12:00:00 2013 GMT
            Not After : Jan 15 12:00:00 2038 GMT
        Subject: C=US, O=DigiCert Inc, OU=www.digicert.com, CN=DigiCert Global Root G3
        Subject Public Key Info:
            Public Key Algorithm: id-ecPublicKey
                Public-Key: (384 bit)
                pub: 
                    04:dd:a7:d9:bb:8a:b8:0b:fb:0b:7f:21:d2:f0:be:
                    be:73:f3:33:5d:1a:bc:34:ea:de:c6:9b:bc:d0:95:
                    f6:f0:cc:d0:0b:ba:61:5b:51:46:7e:9e:2d:9f:ee:
                    8e:63:0c:17:ec:07:70:f5:cf:84:2e:40:83:9c:e8:
                    3f:41:6d:3b:ad:d3:a4:14:59:36:78:9d:03:43:ee:
                    10:13:6c:72:de:ae:88:a7:a1:6b:b5:43:ce:67:dc:
                    23:ff:03:1c:a3:e2:3e
                ASN1 OID: secp384r1
        X509v3 extensions:
            X509v3 Basic Constraints: critical
                CA:TRUE
            X509v3 Key Usage: critical
                Digital Signature, Certificate Sign, CRL Sign
            X509v3 Subject Key Identifier: 
                B3:DB:48:A4:F9:A1:C5:D8:AE:36:41:CC:11:63:69:62:29:BC:4B:C6
    Signature Algorithm: ecdsa-with-SHA384
         30:65:02:31:00:ad:bc:f2:6c:3f:12:4a:d1:2d:39:c3:0a:09:
         97:73:f4:88:36:8c:88:27:bb:e6:88:8d:50:85:a7:63:f9:9e:
         32:de:66:93:0f:f1:cc:b1:09:8f:dd:6c:ab:fa:6b:7f:a0:02:
         30:39:66:5b:c2:64:8d:b8:9e:50:dc:a8:d5:49:a2:ed:c7:dc:
         d1:49:7f:17:01:b8:c8:86:8f:4e:8c:88:2b:a8:9a:a9:8a:c5:
         d1:00:bd:f8:54:e2:9a:e5:5b:7c:b3:27:17
-----BEGIN CERTIFICATE-----
MIICPzCCAcWgAwIBAgIQBVVWvPJepDU1w6QP1atFcjAKBggqhkjOPQQDAzBhMQsw
CQYDVQQGEwJVUzEVMBMGA1UEChMMRGlnaUNlcnQgSW5jMRkwFwYDVQQLExB3d3cu
ZGlnaWNlcnQuY29tMSAwHgYDVQQDExdEaWdpQ2VydCBHbG9iYWwgUm9vdCBHMzAe
Fw0xMzA4MDExMjAwMDBaFw0zODAxMTUxMjAwMDBaMGExCzAJBgNVBAYTAlVTMRUw
EwYDVQQKEwxEaWdpQ2VydCBJbmMxGTAXBgNVBAsTEHd3dy5kaWdpY2VydC5jb20x
IDAeBgNVBAMTF0RpZ2lDZXJ0IEdsb2JhbCBSb290IEczMHYwEAYHKoZIzj0CAQYF
K4EEACIDYgAE3afZu4q4C/sLfyHS8L6+c/MzXRq8NOrexpu80JX28MzQC7phW1FG
fp4tn+6OYwwX7Adw9c+ELkCDnOg/QW07rdOkFFk2eJ0DQ+4QE2xy3q6Ip6FrtUPO
Z9wj/wMco+I+o0IwQDAPBgNVHRMBAf8EBTADAQH/MA4GA1UdDwEB/wQEAwIBhjAd
BgNVHQ4EFgQUs9tIpPmhxdiuNkHMEWNpYim8S8YwCgYIKoZIzj0EAwMDaAAwZQIx
AK288mw/EkrRLTnDCgmXc/SINoyIJ7vmiI1Qhadj+Z4y3maTD/HMsQmP3Wyr+mt/
oAIwOWZbwmSNuJ5Q3KjVSaLtx9zRSX8XAbjIho9OjIgrqJqpisXRAL34VOKa5Vt8
sycX
-----END CERTIFICATE-----
