Certificate:
    Data:
        Version: 3 (0x2)
        Serial Number:
            0c:e7:e0:e5:17:d8:46:fe:8f:e5:60:fc:1b:f0:30:39
    Signature Algorithm: sha1WithRSAEncryption
        Issuer: C=US, O=DigiCert Inc, OU=www.digicert.com, CN=DigiCert Assured ID Root CA
        Validity
            Not Before: Nov 10 00:00:00 2006 GMT
            Not After : Nov 10 00:00:00 2031 GMT
        Subject: C=US, O=DigiCert Inc, OU=www.digicert.com, CN=DigiCert Assured ID Root CA
        Subject Public Key Info:
            Public Key Algorithm: rsaEncryption
                Public-Key: (2048 bit)
                Modulus:
                    00:ad:0e:15:ce:e4:43:80:5c:b1:87:f3:b7:60:f9:
                    71:12:a5:ae:dc:26:94:88:aa:f4:ce:f5:20:39:28:
                    58:60:0c:f8:80:da:a9:15:95:32:61:3c:b5:b1:28:
                    84:8a:8a:dc:9f:0a:0c:83:17:7a:8f:90:ac:8a:e7:
                    79:53:5c:31:84:2a:f6:0f:98:32:36:76:cc:de:dd:
                    3c:a8:a2:ef:6a:fb:21:f2:52:61:df:9f:20:d7:1f:
                    e2:b1:d9:fe:18:64:d2:12:5b:5f:f9:58:18:35:bc:
                    47:cd:a1:36:f9:6b:7f:d4:b0:38:3e:c1:1b:c3:8c:
                    33:d9:d8:2f:18:fe:28:0f:b3:a7:83:d6:c3:6e:44:
                    c0:61:35:96:16:fe:59:9c:8b:76:6d:d7:f1:a2:4b:
                    0d:2b:ff:0b:72:da:9e:60:d0:8e:90:35:c6:78:55:
                    87:20:a1:cf:e5:6d:0a:c8:49:7c:31:98:33:6c:22:
                    e9:87:d0:32:5a:a2:ba:13:82:11:ed:39:17:9d:99:
                    3a:72:a1:e6:fa:a4:d9:d5:17:31:75:ae:85:7d:22:
                    ae:3f:01:46:86:f6:28:79:c8:b1:da:e4:57:17:c4:
                    7e:1c:0e:b0:b4:92:a6:56:b3:bd:b2:97:ed:aa:a7:
                    f0:b7:c5:a8:3f:95:16:d0:ff:a1:96:eb:08:5f:18:
                    77:4f
                Exponent: 65537 (0x10001)
        X509v3 extensions:
            X509v3 Key Usage: critical
                Digital Signature, Certificate Sign, CRL Sign
            X509v3 Basic Constraints: critical
                CA:TRUE
            X509v3 Subject Key Identifier: 
                45:EB:A2:AF:F4:92:CB:82:31:2D:51:8B:A7:A7:21:9D:F3:6D:C8:0F
            X509v3 Authority Key Identifier: 
                keyid:45:EB:A2:AF:F4:92:CB:82:31:2D:51:8B:A7:A7:21:9D:F3:6D:C8:0F

    Signature Algorithm: sha1WithRSAEncryption
         a2:0e:bc:df:e2:ed:f0:e3:72:73:7a:64:94:bf:f7:72:66:d8:
         32:e4:42:75:62:ae:87:eb:f2:d5:d9:de:56:b3:9f:cc:ce:14:
         28:b9:0d:97:60:5c:12:4c:58:e4:d3:3d:83:49:45:58:97:35:
         69:1a:a8:47:ea:56:c6:79:ab:12:d8:67:81:84:df:7f:09:3c:
         94:e6:b8:26:2c:20:bd:3d:b3:28:89:f7:5f:ff:22:e2:97:84:
         1f:e9:65:ef:87:e0:df:c1:67:49:b3:5d:eb:b2:09:2a:eb:26:
         ed:78:be:7d:3f:2b:f3:b7:26:35:6d:5f:89:01:b6:49:5b:9f:
         01:05:9b:ab:3d:25:c1:cc:b6:7f:c2:f1:6f:86:c6:fa:64:68:
         eb:81:2d:94:eb:42:b7:fa:8c:1e:dd:62:f1:be:50:67:b7:6c:
         bd:f3:f1:1f:6b:0c:36:07:16:7f:37:7c:a9:5b:6d:7a:f1:12:
         46:60:83:d7:27:04:be:4b:ce:97:be:c3:67:2a:68:11:df:80:
         e7:0c:33:66:bf:13:0d:14:6e:f3:7f:1f:63:10:1e:fa:8d:1b:
         25:6d:6c:8f:a5:b7:61:01:b1:d2:a3:26:a1:10:71:9d:ad:e2:
         c3:f9:c3:99:51:b7:2b:07:08:ce:2e:e6:50:b2:a7:fa:0a:45:
         2f:a2:f0:f2
-----BEGIN CERTIFICATE-----
MIIDtzCCAp+gAwIBAgIQDOfg5RfYRv6P5WD8G/AwOTANBgkqhkiG9w0BAQUFADBl
MQswCQYDVQQGEwJVUzEVMBMGA1UEChMMRGlnaUNlcnQgSW5jMRkwFwYDVQQLExB3
d3cuZGlnaWNlcnQuY29tMSQwIgYDVQQDExtEaWdpQ2VydCBBc3N1cmVkIElEIFJv
b3QgQ0EwHhcNMDYxMTEwMDAwMDAwWhcNMzExMTEwMDAwMDAwWjBlMQswCQYDVQQG
EwJVUzEVMBMGA1UEChMMRGlnaUNlcnQgSW5jMRkwFwYDVQQLExB3d3cuZGlnaWNl
cnQuY29tMSQwIgYDVQQDExtEaWdpQ2VydCBBc3N1cmVkIElEIFJvb3QgQ0EwggEi
MA0GCSqGSIb3DQEBAQUAA4IBDwAwggEKAoIBAQCtDhXO5EOAXLGH87dg+XESpa7c
JpSIqvTO9SA5KFhgDPiA2qkVlTJhPLWxKISKityfCgyDF3qPkKyK53lTXDGEKvYP
mDI2dsze3Tyoou9q+yHyUmHfnyDXH+Kx2f4YZNISW1/5WBg1vEfNoTb5a3/UsDg+
wRvDjDPZ2C8Y/igPs6eD1sNuRMBhNZYW/lmci3Zt1/GiSw0r/wty2p5g0I6QNcZ4
VYcgoc/lbQrISXwxmDNsIumH0DJaoroTghHtORedmTpyoeb6pNnVFzF1roV9Iq4/
AUaG9ih5yLHa5FcXxH4cDrC0kqZWs72yl+2qp/C3xag/lRbQ/6GW6whfGHdPAgMB
AAGjYzBhMA4GA1UdDwEB/wQEAwIBhjAPBgNVHRMBAf8EBTADAQH/MB0GA1UdDgQW
BBRF66Kv9JLLgjEtUYunpyGd823IDzAfBgNVHSMEGDAWgBRF66Kv9JLLgjEtUYun
pyGd823IDzANBgkqhkiG9w0BAQUFAAOCAQEAog683+Lt8ONyc3pklL/3cmbYMuRC
dWKuh+vy1dneVrOfzM4UKLkNl2BcEkxY5NM9g0lFWJc1aRqoR+pWxnmrEthngYTf
fwk8lOa4JiwgvT2zKIn3X/8i4peEH+ll74fg38FnSbNd67IJKusm7Xi+fT8r87cm
NW1fiQG2SVufAQWbqz0lwcy2f8Lxb4bG+mRo64EtlOtCt/qMHt1i8b5QZ7dsvfPx
H2sMNgcWfzd8qVttevESRmCD1ycEvkvOl77DZypoEd+A5wwzZr8TDRRu838fYxAe
+o0bJW1sj6W3YQGx0qMmoRBxna3iw/nDmVG3KwcIzi7mULKn+gpFL6Lw8g==
-----END CERTIFICATE-----
