Certificate:
    Data:
        Version: 3 (0x2)
        Serial Number:
            67:74:9d:8d:77:d8:3b:6a:db:22:f4:ff:59:e2:bf:ce
        Signature Algorithm: ecdsa-with-SHA384
        Issuer: C = GR, O = Hellenic Academic and Research Institutions CA, CN = HARICA TLS ECC Root CA 2021
        Validity
            Not Before: Feb 19 11:01:10 2021 GMT
            Not After : Feb 13 11:01:09 2045 GMT
        Subject: C = GR, O = Hellenic Academic and Research Institutions CA, CN = HARICA TLS ECC Root CA 2021
        Subject Public Key Info:
            Public Key Algorithm: id-ecPublicKey
                Public-Key: (384 bit)
                pub:
                    04:38:08:fe:b1:a0:96:d2:7a:ac:af:49:3a:d0:c0:
                    e0:c3:3b:28:aa:f1:72:6d:65:00:47:88:84:fc:9a:
                    26:6b:aa:4b:ba:6c:04:0a:88:5e:17:f2:55:87:fc:
                    30:b0:34:e2:34:58:57:1a:84:53:e9:30:d9:a9:f2:
                    96:74:c3:51:1f:58:49:31:cc:98:4e:60:11:87:75:
                    d3:72:94:90:4f:9b:10:25:2a:a8:78:2d:be:90:41:
                    58:90:15:72:a7:a1:b7
                ASN1 OID: secp384r1
                NIST CURVE: P-384
        X509v3 extensions:
            X509v3 Basic Constraints: critical
                CA:TRUE
            X509v3 Subject Key Identifier: 
                C9:1B:53:81:12:FE:04:D5:16:D1:AA:BC:9A:6F:B7:A0:95:19:6E:CA
            X509v3 Key Usage: critical
                Digital Signature, Certificate Sign, CRL Sign
    Signature Algorithm: ecdsa-with-SHA384
         30:64:02:30:11:de:ae:f8:dc:4e:88:b0:a9:f0:22:ad:c2:51:
         40:ef:60:71:2d:ee:8f:02:c4:5d:03:70:49:a4:92:ea:c5:14:
         88:70:a6:d3:0d:b0:aa:ca:2c:40:9c:fb:e9:82:6e:9a:02:30:
         2b:47:9a:07:c6:d1:c2:81:7c:ca:0b:96:18:41:1b:a3:f4:30:
         09:9e:b5:23:28:0d:9f:14:b6:3c:53:a2:4c:06:69:7d:fa:6c:
         91:c6:2a:49:45:e6:ec:b7:13:e1:3a:6c
-----BEGIN CERTIFICATE-----
MIICVDCCAdugAwIBAgIQZ3SdjXfYO2rbIvT/WeK/zjAKBggqhkjOPQQDAzBsMQsw
CQYDVQQGEwJHUjE3MDUGA1UECgwuSGVsbGVuaWMgQWNhZGVtaWMgYW5kIFJlc2Vh
cmNoIEluc3RpdHV0aW9ucyBDQTEkMCIGA1UEAwwbSEFSSUNBIFRMUyBFQ0MgUm9v
dCBDQSAyMDIxMB4XDTIxMDIxOTExMDExMFoXDTQ1MDIxMzExMDEwOVowbDELMAkG
A1UEBhMCR1IxNzA1BgNVBAoMLkhlbGxlbmljIEFjYWRlbWljIGFuZCBSZXNlYXJj
aCBJbnN0aXR1dGlvbnMgQ0ExJDAiBgNVBAMMG0hBUklDQSBUTFMgRUNDIFJvb3Qg
Q0EgMjAyMTB2MBAGByqGSM49AgEGBSuBBAAiA2IABDgI/rGgltJ6rK9JOtDA4MM7
KKrxcm1lAEeIhPyaJmuqS7psBAqIXhfyVYf8MLA04jRYVxqEU+kw2anylnTDUR9Y
STHMmE5gEYd103KUkE+bECUqqHgtvpBBWJAVcqeht6NCMEAwDwYDVR0TAQH/BAUw
AwEB/zAdBgNVHQ4EFgQUyRtTgRL+BNUW0aq8mm+3oJUZbsowDgYDVR0PAQH/BAQD
AgGGMAoGCCqGSM49BAMDA2cAMGQCMBHervjcToiwqfAircJRQO9gcS3ujwLEXQNw
SaSS6sUUiHCm0w2wqsosQJz76YJumgIwK0eaB8bRwoF8yguWGEEbo/QwCZ61IygN
nxS2PFOiTAZpffpskcYqSUXm7LcT4Tps
-----END CERTIFICATE-----
