Certificate:
    Data:
        Version: 3 (0x2)
        Serial Number:
            07:56:22:a4:e8:d4:8a:89:4d:f4:13:c8:f0:f8:ea:a5
    Signature Algorithm: sha1WithRSAEncryption
        Issuer: C=US, O=SecureTrust Corporation, CN=Secure Global CA
        Validity
            Not Before: Nov  7 19:42:28 2006 GMT
            Not After : Dec 31 19:52:06 2029 GMT
        Subject: C=US, O=SecureTrust Corporation, CN=Secure Global CA
        Subject Public Key Info:
            Public Key Algorithm: rsaEncryption
                Public-Key: (2048 bit)
                Modulus:
                    00:af:35:2e:d8:ac:6c:55:69:06:71:e5:13:68:24:
                    b3:4f:d8:cc:21:47:f8:f1:60:38:89:89:03:e9:bd:
                    ea:5e:46:53:09:dc:5c:f5:5a:e8:f7:45:2a:02:eb:
                    31:61:d7:29:33:4c:ce:c7:7c:0a:37:7e:0f:ba:32:
                    98:e1:1d:97:af:8f:c7:dc:c9:38:96:f3:db:1a:fc:
                    51:ed:68:c6:d0:6e:a4:7c:24:d1:ae:42:c8:96:50:
                    63:2e:e0:fe:75:fe:98:a7:5f:49:2e:95:e3:39:33:
                    64:8e:1e:a4:5f:90:d2:67:3c:b2:d9:fe:41:b9:55:
                    a7:09:8e:72:05:1e:8b:dd:44:85:82:42:d0:49:c0:
                    1d:60:f0:d1:17:2c:95:eb:f6:a5:c1:92:a3:c5:c2:
                    a7:08:60:0d:60:04:10:96:79:9e:16:34:e6:a9:b6:
                    fa:25:45:39:c8:1e:65:f9:93:f5:aa:f1:52:dc:99:
                    98:3d:a5:86:1a:0c:35:33:fa:4b:a5:04:06:15:1c:
                    31:80:ef:aa:18:6b:c2:7b:d7:da:ce:f9:33:20:d5:
                    f5:bd:6a:33:2d:81:04:fb:b0:5c:d4:9c:a3:e2:5c:
                    1d:e3:a9:42:75:5e:7b:d4:77:ef:39:54:ba:c9:0a:
                    18:1b:12:99:49:2f:88:4b:fd:50:62:d1:73:e7:8f:
                    7a:43
                Exponent: 65537 (0x10001)
        X509v3 extensions:
            1.3.6.1.4.1.311.20.2: 
                ...C.A
            X509v3 Key Usage: 
                Digital Signature, Certificate Sign, CRL Sign
            X509v3 Basic Constraints: critical
                CA:TRUE
            X509v3 Subject Key Identifier: 
                AF:44:04:C2:41:7E:48:83:DB:4E:39:02:EC:EC:84:7A:E6:CE:C9:A4
            X509v3 CRL Distribution Points: 

                Full Name:
                  URI:http://crl.securetrust.com/SGCA.crl

            1.3.6.1.4.1.311.21.1: 
                ...
    Signature Algorithm: sha1WithRSAEncryption
         63:1a:08:40:7d:a4:5e:53:0d:77:d8:7a:ae:1f:0d:0b:51:16:
         03:ef:18:7c:c8:e3:af:6a:58:93:14:60:91:b2:84:dc:88:4e:
         be:39:8a:3a:f3:e6:82:89:5d:01:37:b3:ab:24:a4:15:0e:92:
         35:5a:4a:44:5e:4e:57:fa:75:ce:1f:48:ce:66:f4:3c:40:26:
         92:98:6c:1b:ee:24:46:0c:17:b3:52:a5:db:a5:91:91:cf:37:
         d3:6f:e7:27:08:3a:4e:19:1f:3a:a7:58:5c:17:cf:79:3f:8b:
         e4:a7:d3:26:23:9d:26:0f:58:69:fc:47:7e:b2:d0:8d:8b:93:
         bf:29:4f:43:69:74:76:67:4b:cf:07:8c:e6:02:f7:b5:e1:b4:
         43:b5:4b:2d:14:9f:f9:dc:26:0d:bf:a6:47:74:06:d8:88:d1:
         3a:29:30:84:ce:d2:39:80:62:1b:a8:c7:57:49:bc:6a:55:51:
         67:15:4a:be:35:07:e4:d5:75:98:37:79:30:14:db:29:9d:6c:
         c5:69:cc:47:55:a2:30:f7:cc:5c:7f:c2:c3:98:1c:6b:4e:16:
         80:eb:7a:78:65:45:a2:00:1a:af:0c:0d:55:64:34:48:b8:92:
         b9:f1:b4:50:29:f2:4f:23:1f:da:6c:ac:1f:44:e1:dd:23:78:
         51:5b:c7:16
-----BEGIN CERTIFICATE-----
MIIDvDCCAqSgAwIBAgIQB1YipOjUiolN9BPI8PjqpTANBgkqhkiG9w0BAQUFADBK
MQswCQYDVQQGEwJVUzEgMB4GA1UEChMXU2VjdXJlVHJ1c3QgQ29ycG9yYXRpb24x
GTAXBgNVBAMTEFNlY3VyZSBHbG9iYWwgQ0EwHhcNMDYxMTA3MTk0MjI4WhcNMjkx
MjMxMTk1MjA2WjBKMQswCQYDVQQGEwJVUzEgMB4GA1UEChMXU2VjdXJlVHJ1c3Qg
Q29ycG9yYXRpb24xGTAXBgNVBAMTEFNlY3VyZSBHbG9iYWwgQ0EwggEiMA0GCSqG
SIb3DQEBAQUAA4IBDwAwggEKAoIBAQCvNS7YrGxVaQZx5RNoJLNP2MwhR/jxYDiJ
iQPpvepeRlMJ3Fz1Wuj3RSoC6zFh1ykzTM7HfAo3fg+6MpjhHZevj8fcyTiW89sa
/FHtaMbQbqR8JNGuQsiWUGMu4P51/pinX0kuleM5M2SOHqRfkNJnPLLZ/kG5VacJ
jnIFHovdRIWCQtBJwB1g8NEXLJXr9qXBkqPFwqcIYA1gBBCWeZ4WNOaptvolRTnI
HmX5k/Wq8VLcmZg9pYYaDDUz+kulBAYVHDGA76oYa8J719rO+TMg1fW9ajMtgQT7
sFzUnKPiXB3jqUJ1XnvUd+85VLrJChgbEplJL4hL/VBi0XPnj3pDAgMBAAGjgZ0w
gZowEwYJKwYBBAGCNxQCBAYeBABDAEEwCwYDVR0PBAQDAgGGMA8GA1UdEwEB/wQF
MAMBAf8wHQYDVR0OBBYEFK9EBMJBfkiD2045AuzshHrmzsmkMDQGA1UdHwQtMCsw
KaAnoCWGI2h0dHA6Ly9jcmwuc2VjdXJldHJ1c3QuY29tL1NHQ0EuY3JsMBAGCSsG
AQQBgjcVAQQDAgEAMA0GCSqGSIb3DQEBBQUAA4IBAQBjGghAfaReUw132HquHw0L
URYD7xh8yOOvaliTFGCRsoTciE6+OYo68+aCiV0BN7OrJKQVDpI1WkpEXk5X+nXO
H0jOZvQ8QCaSmGwb7iRGDBezUqXbpZGRzzfTb+cnCDpOGR86p1hcF895P4vkp9Mm
I50mD1hp/Ed+stCNi5O/KU9DaXR2Z0vPB4zmAve14bRDtUstFJ/53CYNv6ZHdAbY
iNE6KTCEztI5gGIbqMdXSbxqVVFnFUq+NQfk1XWYN3kwFNspnWzFacxHVaIw98xc
f8LDmBxrThaA63p4ZUWiABqvDA1VZDRIuJK58bRQKfJPIx/abKwfROHdI3hRW8cW
-----END CERTIFICATE-----
