Certificate:
    Data:
        Version: 3 (0x2)
        Serial Number:
            0a:7e:a6:df:4b:44:9e:da:6a:24:85:9e:e6:b8:15:d3:16:7f:bb:b1
    Signature Algorithm: sha256WithRSAEncryption
        Issuer: C=LU, O=LuxTrust S.A., CN=LuxTrust Global Root 2
        Validity
            Not Before: Mar  5 13:21:57 2015 GMT
            Not After : Mar  5 13:21:57 2035 GMT
        Subject: C=LU, O=LuxTrust S.A., CN=LuxTrust Global Root 2
        Subject Public Key Info:
            Public Key Algorithm: rsaEncryption
                Public-Key: (4096 bit)
                Modulus:
                    00:d7:85:97:bf:11:98:e9:f0:62:83:4c:3c:87:f9:
                    53:6a:37:0b:f2:0f:3c:87:ce:6f:dc:26:29:bd:c5:
                    89:ba:c9:83:3d:f7:ee:ca:5b:c6:6d:49:73:b4:c9:
                    46:a3:1b:34:13:3f:c1:89:45:57:f4:d9:b1:fb:36:
                    65:4b:fb:08:e2:48:71:11:c8:6e:3b:9e:9d:df:89:
                    65:37:a6:85:f6:3b:44:18:b6:c6:37:30:62:44:92:
                    97:69:7d:42:30:24:e4:0d:0c:89:6b:63:de:c5:e1:
                    df:4e:a9:14:6c:53:e0:61:ce:f6:17:2f:1d:3c:bd:
                    e6:22:4c:1d:93:f5:10:c4:a1:76:ec:6a:de:c5:6c:
                    df:96:b4:56:40:42:c0:62:92:30:a1:2d:15:94:a0:
                    d2:20:06:09:6e:6a:6d:e5:eb:b7:be:d4:f0:f1:15:
                    7c:8b:e6:4e:ba:13:cc:4b:27:5e:99:3c:17:5d:8f:
                    81:7f:33:3d:4f:d3:3f:1b:ec:5c:3f:f0:3c:4c:75:
                    6e:f2:a6:d5:9d:da:2d:07:63:02:c6:72:e9:94:bc:
                    4c:49:95:4f:88:52:c8:db:e8:69:82:f8:cc:34:5b:
                    22:f0:86:a7:89:bd:48:0a:6d:66:81:6d:c8:c8:64:
                    fb:01:e1:f4:e1:de:d9:9e:dd:db:5b:d4:2a:99:26:
                    15:1b:1e:4c:92:29:82:9e:d5:92:81:92:41:70:19:
                    f7:a4:e5:93:4b:bc:77:67:31:dd:1c:fd:31:70:0d:
                    17:99:0c:f9:0c:39:19:2a:17:b5:30:71:55:d5:0f:
                    ae:58:e1:3d:2f:34:9b:cf:9f:f6:78:85:c2:93:7a:
                    72:3e:66:8f:9c:16:11:60:8f:9e:89:6f:67:be:e0:
                    47:5a:3b:0c:9a:67:8b:cf:46:c6:ae:38:a3:f2:a7:
                    bc:e6:d6:85:6b:33:24:70:22:4b:cb:08:9b:bb:c8:
                    f8:02:29:1d:be:20:0c:46:bf:6b:87:9b:b3:2a:66:
                    42:35:46:6c:aa:ba:ad:f9:98:7b:e9:50:55:14:31:
                    bf:b1:da:2d:ed:80:ad:68:24:fb:69:ab:d8:71:13:
                    30:e6:67:b3:87:40:fd:89:7e:f2:43:d1:11:df:2f:
                    65:2f:64:ce:5f:14:b9:b1:bf:31:bd:87:78:5a:59:
                    65:88:aa:fc:59:32:48:86:d6:4c:b9:29:4b:95:d3:
                    76:f3:77:25:6d:42:1c:38:83:4d:fd:a3:5f:9b:7f:
                    2d:ac:79:1b:0e:42:31:97:63:a4:fb:8a:69:d5:22:
                    0d:34:90:30:2e:a8:b4:e0:6d:b6:94:ac:bc:8b:4e:
                    d7:70:fc:c5:38:8e:64:25:e1:4d:39:90:ce:c9:87:
                    84:58:71
                Exponent: 65537 (0x10001)
        X509v3 extensions:
            X509v3 Basic Constraints: critical
                CA:TRUE
            X509v3 Certificate Policies: 
                Policy: 1.3.171.1.1.1.10
                  CPS: https://repository.luxtrust.lu

            X509v3 Key Usage: critical
                Certificate Sign, CRL Sign
            X509v3 Authority Key Identifier: 
                keyid:FF:18:28:76:F9:48:05:2C:A1:AE:F1:2B:1B:2B:B2:53:F8:4B:7C:B3

            X509v3 Subject Key Identifier: 
                FF:18:28:76:F9:48:05:2C:A1:AE:F1:2B:1B:2B:B2:53:F8:4B:7C:B3
    Signature Algorithm: sha256WithRSAEncryption
         6a:19:14:ed:6e:79:c1:2c:87:d4:0d:70:7e:d7:f6:78:c9:0b:
         04:4e:c4:b1:ce:93:70:fe:b0:54:c0:32:cd:99:30:64:17:bf:
         0f:e5:e2:33:fd:07:36:40:72:0e:1a:b6:6a:59:d6:00:e5:68:
         20:dd:2e:72:0d:1f:6a:64:31:20:84:7d:49:a6:5a:37:eb:45:
         c9:85:f5:d4:c7:17:99:07:e6:9b:55:e4:0c:e8:a9:b4:ce:8c:
         5b:b5:11:5c:cf:8a:0e:0d:d6:ac:77:81:fe:32:9c:24:9e:72:
         ce:54:f3:d0:6f:a2:56:d6:ec:c3:37:2c:65:58:be:57:00:1a:
         f2:35:fa:eb:7b:31:5d:c2:c1:12:3d:96:81:88:96:89:c1:59:
         5c:7a:e6:7f:70:34:e7:83:e2:b1:e1:e1:b8:58:ef:d4:95:e4:
         60:9c:f0:96:97:72:8c:eb:84:02:2e:65:8f:a4:b7:d2:7f:67:
         dd:c8:d3:9e:5c:aa:a9:a4:a0:25:14:06:9b:ec:4f:7e:2d:0b:
         7f:1d:75:f1:33:d8:ed:ce:b8:75:6d:3e:5b:b9:98:1d:31:0d:
         56:d8:43:0f:30:91:b2:04:6b:dd:56:be:95:80:55:67:be:d8:
         cd:83:d9:18:ee:2e:0f:86:2d:92:9e:70:13:ec:de:51:c9:43:
         78:02:a5:4d:c8:f9:5f:c4:91:58:46:16:77:5a:74:aa:40:bc:
         07:9f:30:b9:b1:f7:12:17:dd:e3:ff:24:40:1d:7a:6a:d1:4f:
         18:0a:aa:90:1d:eb:40:1e:df:a1:1e:44:92:10:9a:f2:8d:e1:
         d1:4b:46:9e:e8:45:42:97:ea:45:99:f3:ec:66:d5:02:fa:f2:
         a6:4a:24:aa:de:ce:b9:ca:f9:3f:93:6f:f9:a3:ba:ea:a5:3e:
         99:ad:fd:ff:7b:99:f5:65:ee:f0:59:28:67:d7:90:95:a4:13:
         84:a9:84:c1:e8:ce:ce:75:93:63:1a:bc:3c:ea:d5:64:1f:2d:
         2a:12:39:c6:c3:5a:32:ed:47:91:16:0e:bc:38:c1:50:de:8f:
         ca:2a:90:34:1c:ee:41:94:9c:5e:19:2e:f8:45:49:99:74:91:
         b0:04:6f:e3:04:5a:b1:ab:2a:ab:fe:c7:d0:96:b6:da:e1:4a:
         64:06:6e:60:4d:bd:42:4e:ff:78:da:24:ca:1b:b4:d7:96:39:
         6c:ae:f1:0e:aa:a7:7d:48:8b:20:4c:cf:64:d6:b8:97:46:b0:
         4e:d1:2a:56:3a:a0:93:bd:af:80:24:e0:0a:7e:e7:ca:d5:ca:
         e8:85:55:dc:36:2a:e1:94:68:93:c7:66:72:44:0f:80:21:32:
         6c:25:c7:23:80:83:0a:eb
-----BEGIN CERTIFICATE-----
MIIFwzCCA6ugAwIBAgIUCn6m30tEntpqJIWe5rgV0xZ/u7EwDQYJKoZIhvcNAQEL
BQAwRjELMAkGA1UEBhMCTFUxFjAUBgNVBAoMDUx1eFRydXN0IFMuQS4xHzAdBgNV
BAMMFkx1eFRydXN0IEdsb2JhbCBSb290IDIwHhcNMTUwMzA1MTMyMTU3WhcNMzUw
MzA1MTMyMTU3WjBGMQswCQYDVQQGEwJMVTEWMBQGA1UECgwNTHV4VHJ1c3QgUy5B
LjEfMB0GA1UEAwwWTHV4VHJ1c3QgR2xvYmFsIFJvb3QgMjCCAiIwDQYJKoZIhvcN
AQEBBQADggIPADCCAgoCggIBANeFl78RmOnwYoNMPIf5U2o3C/IPPIfOb9wmKb3F
ibrJgz337spbxm1Jc7TJRqMbNBM/wYlFV/TZsfs2ZUv7COJIcRHIbjuend+JZTem
hfY7RBi2xjcwYkSSl2l9QjAk5A0MiWtj3sXh306pFGxT4GHO9hcvHTy95iJMHZP1
EMShduxq3sVs35a0VkBCwGKSMKEtFZSg0iAGCW5qbeXrt77U8PEVfIvmTroTzEsn
Xpk8F12PgX8zPU/TPxvsXD/wPEx1bvKm1Z3aLQdjAsZy6ZS8TEmVT4hSyNvoaYL4
zDRbIvCGp4m9SAptZoFtyMhk+wHh9OHe2Z7d21vUKpkmFRseTJIpgp7VkoGSQXAZ
96Tlk0u8d2cx3Rz9MXANF5kM+Qw5GSoXtTBxVdUPrljhPS80m8+f9niFwpN6cj5m
j5wWEWCPnolvZ77gR1o7DJpni89Gxq44o/KnvObWhWszJHAiS8sIm7vI+AIpHb4g
DEa/a4ebsypmQjVGbKq6rfmYe+lQVRQxv7HaLe2ArWgk+2mr2HETMOZns4dA/Yl+
8kPREd8vZS9kzl8UubG/Mb2HeFpZZYiq/FkySIbWTLkpS5XTdvN3JW1CHDiDTf2j
X5t/Lax5Gw5CMZdjpPuKadUiDTSQMC6otOBttpSsvItO13D8xTiOZCXhTTmQzsmH
hFhxAgMBAAGjgagwgaUwDwYDVR0TAQH/BAUwAwEB/zBCBgNVHSAEOzA5MDcGByuB
KwEBAQowLDAqBggrBgEFBQcCARYeaHR0cHM6Ly9yZXBvc2l0b3J5Lmx1eHRydXN0
Lmx1MA4GA1UdDwEB/wQEAwIBBjAfBgNVHSMEGDAWgBT/GCh2+UgFLKGu8SsbK7JT
+Et8szAdBgNVHQ4EFgQU/xgodvlIBSyhrvErGyuyU/hLfLMwDQYJKoZIhvcNAQEL
BQADggIBAGoZFO1uecEsh9QNcH7X9njJCwROxLHOk3D+sFTAMs2ZMGQXvw/l4jP9
BzZAcg4atmpZ1gDlaCDdLnINH2pkMSCEfUmmWjfrRcmF9dTHF5kH5ptV5AzoqbTO
jFu1EVzPig4N1qx3gf4ynCSecs5U89BvolbW7MM3LGVYvlcAGvI1+ut7MV3CwRI9
loGIlonBWVx65n9wNOeD4rHh4bhY79SV5GCc8JaXcozrhAIuZY+kt9J/Z93I055c
qqmkoCUUBpvsT34tC38ddfEz2O3OuHVtPlu5mB0xDVbYQw8wkbIEa91WvpWAVWe+
2M2D2RjuLg+GLZKecBPs3lHJQ3gCpU3I+V/EkVhGFndadKpAvAefMLmx9xIX3eP/
JEAdemrRTxgKqpAd60Ae36EeRJIQmvKN4dFLRp7oRUKX6kWZ8+xm1QL68qZKJKre
zrnK+T+Tb/mjuuqlPpmt/f97mfVl7vBZKGfXkJWkE4SphMHozs51k2MavDzq1WQf
LSoSOcbDWjLtR5EWDrw4wVDej8oqkDQc7kGUnF4ZLvhFSZl0kbAEb+MEWrGrKqv+
x9CWttrhSmQGbmBNvUJO/3jaJMobtNeWOWyu8Q6qp31IiyBMz2TWuJdGsE7RKlY6
oJO9r4Ak4Ap+58rVyuiFVdw2KuGUaJPHZnJED4AhMmwlxyOAgwrr
-----END CERTIFICATE-----
