Certificate:
    Data:
        Version: 3 (0x2)
        Serial Number: 0 (0x0)
    Signature Algorithm: sha256WithRSAEncryption
        Issuer: C=US, ST=Arizona, L=Scottsdale, O=Starfield Technologies, Inc., CN=Starfield Services Root Certificate Authority - G2
        Validity
            Not Before: Sep  1 00:00:00 2009 GMT
            Not After : Dec 31 23:59:59 2037 GMT
        Subject: C=US, ST=Arizona, L=Scottsdale, O=Starfield Technologies, Inc., CN=Starfield Services Root Certificate Authority - G2
        Subject Public Key Info:
            Public Key Algorithm: rsaEncryption
                Public-Key: (2048 bit)
                Modulus:
                    00:d5:0c:3a:c4:2a:f9:4e:e2:f5:be:19:97:5f:8e:
                    88:53:b1:1f:3f:cb:cf:9f:20:13:6d:29:3a:c8:0f:
                    7d:3c:f7:6b:76:38:63:d9:36:60:a8:9b:5e:5c:00:
                    80:b2:2f:59:7f:f6:87:f9:25:43:86:e7:69:1b:52:
                    9a:90:e1:71:e3:d8:2d:0d:4e:6f:f6:c8:49:d9:b6:
                    f3:1a:56:ae:2b:b6:74:14:eb:cf:fb:26:e3:1a:ba:
                    1d:96:2e:6a:3b:58:94:89:47:56:ff:25:a0:93:70:
                    53:83:da:84:74:14:c3:67:9e:04:68:3a:df:8e:40:
                    5a:1d:4a:4e:cf:43:91:3b:e7:56:d6:00:70:cb:52:
                    ee:7b:7d:ae:3a:e7:bc:31:f9:45:f6:c2:60:cf:13:
                    59:02:2b:80:cc:34:47:df:b9:de:90:65:6d:02:cf:
                    2c:91:a6:a6:e7:de:85:18:49:7c:66:4e:a3:3a:6d:
                    a9:b5:ee:34:2e:ba:0d:03:b8:33:df:47:eb:b1:6b:
                    8d:25:d9:9b:ce:81:d1:45:46:32:96:70:87:de:02:
                    0e:49:43:85:b6:6c:73:bb:64:ea:61:41:ac:c9:d4:
                    54:df:87:2f:c7:22:b2:26:cc:9f:59:54:68:9f:fc:
                    be:2a:2f:c4:55:1c:75:40:60:17:85:02:55:39:8b:
                    7f:05
                Exponent: 65537 (0x10001)
        X509v3 extensions:
            X509v3 Basic Constraints: critical
                CA:TRUE
            X509v3 Key Usage: critical
                Certificate Sign, CRL Sign
            X509v3 Subject Key Identifier: 
                9C:5F:00:DF:AA:01:D7:30:2B:38:88:A2:B8:6D:4A:9C:F2:11:91:83
    Signature Algorithm: sha256WithRSAEncryption
         4b:36:a6:84:77:69:dd:3b:19:9f:67:23:08:6f:0e:61:c9:fd:
         84:dc:5f:d8:36:81:cd:d8:1b:41:2d:9f:60:dd:c7:1a:68:d9:
         d1:6e:86:e1:88:23:cf:13:de:43:cf:e2:34:b3:04:9d:1f:29:
         d5:bf:f8:5e:c8:d5:c1:bd:ee:92:6f:32:74:f2:91:82:2f:bd:
         82:42:7a:ad:2a:b7:20:7d:4d:bc:7a:55:12:c2:15:ea:bd:f7:
         6a:95:2e:6c:74:9f:cf:1c:b4:f2:c5:01:a3:85:d0:72:3e:ad:
         73:ab:0b:9b:75:0c:6d:45:b7:8e:94:ac:96:37:b5:a0:d0:8f:
         15:47:0e:e3:e8:83:dd:8f:fd:ef:41:01:77:cc:27:a9:62:85:
         33:f2:37:08:ef:71:cf:77:06:de:c8:19:1d:88:40:cf:7d:46:
         1d:ff:1e:c7:e1:ce:ff:23:db:c6:fa:8d:55:4e:a9:02:e7:47:
         11:46:3e:f4:fd:bd:7b:29:26:bb:a9:61:62:37:28:b6:2d:2a:
         f6:10:86:64:c9:70:a7:d2:ad:b7:29:70:79:ea:3c:da:63:25:
         9f:fd:68:b7:30:ec:70:fb:75:8a:b7:6d:60:67:b2:1e:c8:b9:
         e9:d8:a8:6f:02:8b:67:0d:4d:26:57:71:da:20:fc:c1:4a:50:
         8d:b1:28:ba
-----BEGIN CERTIFICATE-----
MIID7zCCAtegAwIBAgIBADANBgkqhkiG9w0BAQsFADCBmDELMAkGA1UEBhMCVVMx
EDAOBgNVBAgTB0FyaXpvbmExEzARBgNVBAcTClNjb3R0c2RhbGUxJTAjBgNVBAoT
HFN0YXJmaWVsZCBUZWNobm9sb2dpZXMsIEluYy4xOzA5BgNVBAMTMlN0YXJmaWVs
ZCBTZXJ2aWNlcyBSb290IENlcnRpZmljYXRlIEF1dGhvcml0eSAtIEcyMB4XDTA5
MDkwMTAwMDAwMFoXDTM3MTIzMTIzNTk1OVowgZgxCzAJBgNVBAYTAlVTMRAwDgYD
VQQIEwdBcml6b25hMRMwEQYDVQQHEwpTY290dHNkYWxlMSUwIwYDVQQKExxTdGFy
ZmllbGQgVGVjaG5vbG9naWVzLCBJbmMuMTswOQYDVQQDEzJTdGFyZmllbGQgU2Vy
dmljZXMgUm9vdCBDZXJ0aWZpY2F0ZSBBdXRob3JpdHkgLSBHMjCCASIwDQYJKoZI
hvcNAQEBBQADggEPADCCAQoCggEBANUMOsQq+U7i9b4Zl1+OiFOxHz/Lz58gE20p
OsgPfTz3a3Y4Y9k2YKibXlwAgLIvWX/2h/klQ4bnaRtSmpDhcePYLQ1Ob/bISdm2
8xpWriu2dBTrz/sm4xq6HZYuajtYlIlHVv8loJNwU4PahHQUw2eeBGg6345AWh1K
Ts9DkTvnVtYAcMtS7nt9rjrnvDH5RfbCYM8TWQIrgMw0R9+53pBlbQLPLJGmpufe
hRhJfGZOozptqbXuNC66DQO4M99H67FrjSXZm86B0UVGMpZwh94CDklDhbZsc7tk
6mFBrMnUVN+HL8cisibMn1lUaJ/8viovxFUcdUBgF4UCVTmLfwUCAwEAAaNCMEAw
DwYDVR0TAQH/BAUwAwEB/zAOBgNVHQ8BAf8EBAMCAQYwHQYDVR0OBBYEFJxfAN+q
AdcwKziIorhtSpzyEZGDMA0GCSqGSIb3DQEBCwUAA4IBAQBLNqaEd2ndOxmfZyMI
bw5hyf2E3F/YNoHN2BtBLZ9g3ccaaNnRbobhiCPPE95Dz+I0swSdHynVv/heyNXB
ve6SbzJ08pGCL72CQnqtKrcgfU28elUSwhXqvfdqlS5sdJ/PHLTyxQGjhdByPq1z
qwubdQxtRbeOlKyWN7Wg0I8VRw7j6IPdj/3vQQF3zCepYoUz8jcI73HPdwbeyBkd
iEDPfUYd/x7H4c7/I9vG+o1VTqkC50cRRj70/b17KSa7qWFiNyi2LSr2EIZkyXCn
0q23KXB56jzaYyWf/Wi3MOxw+3WKt21gZ7IeyLnp2KhvAotnDU0mV3HaIPzBSlCN
sSi6
-----END CERTIFICATE-----
