Certificate:
    Data:
        Version: 3 (0x2)
        Serial Number: 1164660820 (0x456b5054)
    Signature Algorithm: sha1WithRSAEncryption
        Issuer: C=US, O=Entrust, Inc., OU=www.entrust.net/CPS is incorporated by reference, OU=(c) 2006 Entrust, Inc., CN=Entrust Root Certification Authority
        Validity
            Not Before: Nov 27 20:23:42 2006 GMT
            Not After : Nov 27 20:53:42 2026 GMT
        Subject: C=US, O=Entrust, Inc., OU=www.entrust.net/CPS is incorporated by reference, OU=(c) 2006 Entrust, Inc., CN=Entrust Root Certification Authority
        Subject Public Key Info:
            Public Key Algorithm: rsaEncryption
                Public-Key: (2048 bit)
                Modulus:
                    00:b6:95:b6:43:42:fa:c6:6d:2a:6f:48:df:94:4c:
                    39:57:05:ee:c3:79:11:41:68:36:ed:ec:fe:9a:01:
                    8f:a1:38:28:fc:f7:10:46:66:2e:4d:1e:1a:b1:1a:
                    4e:c6:d1:c0:95:88:b0:c9:ff:31:8b:33:03:db:b7:
                    83:7b:3e:20:84:5e:ed:b2:56:28:a7:f8:e0:b9:40:
                    71:37:c5:cb:47:0e:97:2a:68:c0:22:95:62:15:db:
                    47:d9:f5:d0:2b:ff:82:4b:c9:ad:3e:de:4c:db:90:
                    80:50:3f:09:8a:84:00:ec:30:0a:3d:18:cd:fb:fd:
                    2a:59:9a:23:95:17:2c:45:9e:1f:6e:43:79:6d:0c:
                    5c:98:fe:48:a7:c5:23:47:5c:5e:fd:6e:e7:1e:b4:
                    f6:68:45:d1:86:83:5b:a2:8a:8d:b1:e3:29:80:fe:
                    25:71:88:ad:be:bc:8f:ac:52:96:4b:aa:51:8d:e4:
                    13:31:19:e8:4e:4d:9f:db:ac:b3:6a:d5:bc:39:54:
                    71:ca:7a:7a:7f:90:dd:7d:1d:80:d9:81:bb:59:26:
                    c2:11:fe:e6:93:e2:f7:80:e4:65:fb:34:37:0e:29:
                    80:70:4d:af:38:86:2e:9e:7f:57:af:9e:17:ae:eb:
                    1c:cb:28:21:5f:b6:1c:d8:e7:a2:04:22:f9:d3:da:
                    d8:cb
                Exponent: 65537 (0x10001)
        X509v3 extensions:
            X509v3 Key Usage: critical
                Certificate Sign, CRL Sign
            X509v3 Basic Constraints: critical
                CA:TRUE
            X509v3 Private Key Usage Period: 
                Not Before: Nov 27 20:23:42 2006 GMT, Not After: Nov 27 20:53:42 2026 GMT
            X509v3 Authority Key Identifier: 
                keyid:68:90:E4:67:A4:A6:53:80:C7:86:66:A4:F1:F7:4B:43:FB:84:BD:6D

            X509v3 Subject Key Identifier: 
                68:90:E4:67:A4:A6:53:80:C7:86:66:A4:F1:F7:4B:43:FB:84:BD:6D
            1.2.840.113533.7.65.0: 
                0...V7.1:4.0....
    Signature Algorithm: sha1WithRSAEncryption
         93:d4:30:b0:d7:03:20:2a:d0:f9:63:e8:91:0c:05:20:a9:5f:
         19:ca:7b:72:4e:d4:b1:db:d0:96:fb:54:5a:19:2c:0c:08:f7:
         b2:bc:85:a8:9d:7f:6d:3b:52:b3:2a:db:e7:d4:84:8c:63:f6:
         0f:cb:26:01:91:50:6c:f4:5f:14:e2:93:74:c0:13:9e:30:3a:
         50:e3:b4:60:c5:1c:f0:22:44:8d:71:47:ac:c8:1a:c9:e9:9b:
         9a:00:60:13:ff:70:7e:5f:11:4d:49:1b:b3:15:52:7b:c9:54:
         da:bf:9d:95:af:6b:9a:d8:9e:e9:f1:e4:43:8d:e2:11:44:3a:
         bf:af:bd:83:42:73:52:8b:aa:bb:a7:29:cf:f5:64:1c:0a:4d:
         d1:bc:aa:ac:9f:2a:d0:ff:7f:7f:da:7d:ea:b1:ed:30:25:c1:
         84:da:34:d2:5b:78:83:56:ec:9c:36:c3:26:e2:11:f6:67:49:
         1d:92:ab:8c:fb:eb:ff:7a:ee:85:4a:a7:50:80:f0:a7:5c:4a:
         94:2e:5f:05:99:3c:52:41:e0:cd:b4:63:cf:01:43:ba:9c:83:
         dc:8f:60:3b:f3:5a:b4:b4:7b:ae:da:0b:90:38:75:ef:81:1d:
         66:d2:f7:57:70:36:b3:bf:fc:28:af:71:25:85:5b:13:fe:1e:
         7f:5a:b4:3c
-----BEGIN CERTIFICATE-----
MIIEkTCCA3mgAwIBAgIERWtQVDANBgkqhkiG9w0BAQUFADCBsDELMAkGA1UEBhMC
VVMxFjAUBgNVBAoTDUVudHJ1c3QsIEluYy4xOTA3BgNVBAsTMHd3dy5lbnRydXN0
Lm5ldC9DUFMgaXMgaW5jb3Jwb3JhdGVkIGJ5IHJlZmVyZW5jZTEfMB0GA1UECxMW
KGMpIDIwMDYgRW50cnVzdCwgSW5jLjEtMCsGA1UEAxMkRW50cnVzdCBSb290IENl
cnRpZmljYXRpb24gQXV0aG9yaXR5MB4XDTA2MTEyNzIwMjM0MloXDTI2MTEyNzIw
NTM0MlowgbAxCzAJBgNVBAYTAlVTMRYwFAYDVQQKEw1FbnRydXN0LCBJbmMuMTkw
NwYDVQQLEzB3d3cuZW50cnVzdC5uZXQvQ1BTIGlzIGluY29ycG9yYXRlZCBieSBy
ZWZlcmVuY2UxHzAdBgNVBAsTFihjKSAyMDA2IEVudHJ1c3QsIEluYy4xLTArBgNV
BAMTJEVudHJ1c3QgUm9vdCBDZXJ0aWZpY2F0aW9uIEF1dGhvcml0eTCCASIwDQYJ
KoZIhvcNAQEBBQADggEPADCCAQoCggEBALaVtkNC+sZtKm9I35RMOVcF7sN5EUFo
Nu3s/poBj6E4KPz3EEZmLk0eGrEaTsbRwJWIsMn/MYszA9u3g3s+IIRe7bJWKKf4
4LlAcTfFy0cOlypowCKVYhXbR9n10Cv/gkvJrT7eTNuQgFA/CYqEAOwwCj0Yzfv9
KlmaI5UXLEWeH25DeW0MXJj+SKfFI0dcXv1u5x609mhF0YaDW6KKjbHjKYD+JXGI
rb68j6xSlkuqUY3kEzEZ6E5Nn9uss2rVvDlUccp6en+Q3X0dgNmBu1kmwhH+5pPi
94DkZfs0Nw4pgHBNrziGLp5/V6+eF67rHMsoIV+2HNjnogQi+dPa2MsCAwEAAaOB
sDCBrTAOBgNVHQ8BAf8EBAMCAQYwDwYDVR0TAQH/BAUwAwEB/zArBgNVHRAEJDAi
gA8yMDA2MTEyNzIwMjM0MlqBDzIwMjYxMTI3MjA1MzQyWjAfBgNVHSMEGDAWgBRo
kORnpKZTgMeGZqTx90tD+4S9bTAdBgNVHQ4EFgQUaJDkZ6SmU4DHhmak8fdLQ/uE
vW0wHQYJKoZIhvZ9B0EABBAwDhsIVjcuMTo0LjADAgSQMA0GCSqGSIb3DQEBBQUA
A4IBAQCT1DCw1wMgKtD5Y+iRDAUgqV8ZyntyTtSx29CW+1RaGSwMCPeyvIWonX9t
O1KzKtvn1ISMY/YPyyYBkVBs9F8U4pN0wBOeMDpQ47RgxRzwIkSNcUesyBrJ6Zua
AGAT/3B+XxFNSRuzFVJ7yVTav52Vr2ua2J7p8eRDjeIRRDq/r72DQnNSi6q7pynP
9WQcCk3RvKqsnyrQ/39/2n3qse0wJcGE2jTSW3iDVuycNsMm4hH2Z0kdkquM++v/
eu6FSqdQgPCnXEqULl8FmTxSQeDNtGPPAUO6nIPcj2A781q0tHuu2guQOHXvgR1m
0vdXcDazv/wor3ElhVsT/h5/WrQ8
-----END CERTIFICATE-----
