Certificate:
    Data:
        Version: 3 (0x2)
        Serial Number: 1289 (0x509)
    Signature Algorithm: sha1WithRSAEncryption
        Issuer: C=BM, O=QuoVadis Limited, CN=QuoVadis Root CA 2
        Validity
            Not Before: Nov 24 18:27:00 2006 GMT
            Not After : Nov 24 18:23:33 2031 GMT
        Subject: C=BM, O=QuoVadis Limited, CN=QuoVadis Root CA 2
        Subject Public Key Info:
            Public Key Algorithm: rsaEncryption
                Public-Key: (4096 bit)
                Modulus:
                    00:9a:18:ca:4b:94:0d:00:2d:af:03:29:8a:f0:0f:
                    81:c8:ae:4c:19:85:1d:08:9f:ab:29:44:85:f3:2f:
                    81:ad:32:1e:90:46:bf:a3:86:26:1a:1e:fe:7e:1c:
                    18:3a:5c:9c:60:17:2a:3a:74:83:33:30:7d:61:54:
                    11:cb:ed:ab:e0:e6:d2:a2:7e:f5:6b:6f:18:b7:0a:
                    0b:2d:fd:e9:3e:ef:0a:c6:b3:10:e9:dc:c2:46:17:
                    f8:5d:fd:a4:da:ff:9e:49:5a:9c:e6:33:e6:24:96:
                    f7:3f:ba:5b:2b:1c:7a:35:c2:d6:67:fe:ab:66:50:
                    8b:6d:28:60:2b:ef:d7:60:c3:c7:93:bc:8d:36:91:
                    f3:7f:f8:db:11:13:c4:9c:77:76:c1:ae:b7:02:6a:
                    81:7a:a9:45:83:e2:05:e6:b9:56:c1:94:37:8f:48:
                    71:63:22:ec:17:65:07:95:8a:4b:df:8f:c6:5a:0a:
                    e5:b0:e3:5f:5e:6b:11:ab:0c:f9:85:eb:44:e9:f8:
                    04:73:f2:e9:fe:5c:98:8c:f5:73:af:6b:b4:7e:cd:
                    d4:5c:02:2b:4c:39:e1:b2:95:95:2d:42:87:d7:d5:
                    b3:90:43:b7:6c:13:f1:de:dd:f6:c4:f8:89:3f:d1:
                    75:f5:92:c3:91:d5:8a:88:d0:90:ec:dc:6d:de:89:
                    c2:65:71:96:8b:0d:03:fd:9c:bf:5b:16:ac:92:db:
                    ea:fe:79:7c:ad:eb:af:f7:16:cb:db:cd:25:2b:e5:
                    1f:fb:9a:9f:e2:51:cc:3a:53:0c:48:e6:0e:bd:c9:
                    b4:76:06:52:e6:11:13:85:72:63:03:04:e0:04:36:
                    2b:20:19:02:e8:74:a7:1f:b6:c9:56:66:f0:75:25:
                    dc:67:c1:0e:61:60:88:b3:3e:d1:a8:fc:a3:da:1d:
                    b0:d1:b1:23:54:df:44:76:6d:ed:41:d8:c1:b2:22:
                    b6:53:1c:df:35:1d:dc:a1:77:2a:31:e4:2d:f5:e5:
                    e5:db:c8:e0:ff:e5:80:d7:0b:63:a0:ff:33:a1:0f:
                    ba:2c:15:15:ea:97:b3:d2:a2:b5:be:f2:8c:96:1e:
                    1a:8f:1d:6c:a4:61:37:b9:86:73:33:d7:97:96:9e:
                    23:7d:82:a4:4c:81:e2:a1:d1:ba:67:5f:95:07:a3:
                    27:11:ee:16:10:7b:bc:45:4a:4c:b2:04:d2:ab:ef:
                    d5:fd:0c:51:ce:50:6a:08:31:f9:91:da:0c:8f:64:
                    5c:03:c3:3a:8b:20:3f:6e:8d:67:3d:3a:d6:fe:7d:
                    5b:88:c9:5e:fb:cc:61:dc:8b:33:77:d3:44:32:35:
                    09:62:04:92:16:10:d8:9e:27:47:fb:3b:21:e3:f8:
                    eb:1d:5b
                Exponent: 65537 (0x10001)
        X509v3 extensions:
            X509v3 Basic Constraints: critical
                CA:TRUE
            X509v3 Key Usage: 
                Certificate Sign, CRL Sign
            X509v3 Subject Key Identifier: 
                1A:84:62:BC:48:4C:33:25:04:D4:EE:D0:F6:03:C4:19:46:D1:94:6B
            X509v3 Authority Key Identifier: 
                keyid:1A:84:62:BC:48:4C:33:25:04:D4:EE:D0:F6:03:C4:19:46:D1:94:6B
                DirName:/C=BM/O=QuoVadis Limited/CN=QuoVadis Root CA 2
                serial:05:09

    Signature Algorithm: sha1WithRSAEncryption
         3e:0a:16:4d:9f:06:5b:a8:ae:71:5d:2f:05:2f:67:e6:13:45:
         83:c4:36:f6:f3:c0:26:0c:0d:b5:47:64:5d:f8:b4:72:c9:46:
         a5:03:18:27:55:89:78:7d:76:ea:96:34:80:17:20:dc:e7:83:
         f8:8d:fc:07:b8:da:5f:4d:2e:67:b2:84:fd:d9:44:fc:77:50:
         81:e6:7c:b4:c9:0d:0b:72:53:f8:76:07:07:41:47:96:0c:fb:
         e0:82:26:93:55:8c:fe:22:1f:60:65:7c:5f:e7:26:b3:f7:32:
         90:98:50:d4:37:71:55:f6:92:21:78:f7:95:79:fa:f8:2d:26:
         87:66:56:30:77:a6:37:78:33:52:10:58:ae:3f:61:8e:f2:6a:
         b1:ef:18:7e:4a:59:63:ca:8d:a2:56:d5:a7:2f:bc:56:1f:cf:
         39:c1:e2:fb:0a:a8:15:2c:7d:4d:7a:63:c6:6c:97:44:3c:d2:
         6f:c3:4a:17:0a:f8:90:d2:57:a2:19:51:a5:2d:97:41:da:07:
         4f:a9:50:da:90:8d:94:46:e1:3e:f0:94:fd:10:00:38:f5:3b:
         e8:40:e1:b4:6e:56:1a:20:cc:6f:58:8d:ed:2e:45:8f:d6:e9:
         93:3f:e7:b1:2c:df:3a:d6:22:8c:dc:84:bb:22:6f:d0:f8:e4:
         c6:39:e9:04:88:3c:c3:ba:eb:55:7a:6d:80:99:24:f5:6c:01:
         fb:f8:97:b0:94:5b:eb:fd:d2:6f:f1:77:68:0d:35:64:23:ac:
         b8:55:a1:03:d1:4d:42:19:dc:f8:75:59:56:a3:f9:a8:49:79:
         f8:af:0e:b9:11:a0:7c:b7:6a:ed:34:d0:b6:26:62:38:1a:87:
         0c:f8:e8:fd:2e:d3:90:7f:07:91:2a:1d:d6:7e:5c:85:83:99:
         b0:38:08:3f:e9:5e:f9:35:07:e4:c9:62:6e:57:7f:a7:50:95:
         f7:ba:c8:9b:e6:8e:a2:01:c5:d6:66:bf:79:61:f3:3c:1c:e1:
         b9:82:5c:5d:a0:c3:e9:d8:48:bd:19:a2:11:14:19:6e:b2:86:
         1b:68:3e:48:37:1a:88:b7:5d:96:5e:9c:c7:ef:27:62:08:e2:
         91:19:5c:d2:f1:21:dd:ba:17:42:82:97:71:81:53:31:a9:9f:
         f6:7d:62:bf:72:e1:a3:93:1d:cc:8a:26:5a:09:38:d0:ce:d7:
         0d:80:16:b4:78:a5:3a:87:4c:8d:8a:a5:d5:46:97:f2:2c:10:
         b9:bc:54:22:c0:01:50:69:43:9e:f4:b2:ef:6d:f8:ec:da:f1:
         e3:b1:ef:df:91:8f:54:2a:0b:25:c1:26:19:c4:52:10:05:65:
         d5:82:10:ea:c2:31:cd:2e
-----BEGIN CERTIFICATE-----
MIIFtzCCA5+gAwIBAgICBQkwDQYJKoZIhvcNAQEFBQAwRTELMAkGA1UEBhMCQk0x
GTAXBgNVBAoTEFF1b1ZhZGlzIExpbWl0ZWQxGzAZBgNVBAMTElF1b1ZhZGlzIFJv
b3QgQ0EgMjAeFw0wNjExMjQxODI3MDBaFw0zMTExMjQxODIzMzNaMEUxCzAJBgNV
BAYTAkJNMRkwFwYDVQQKExBRdW9WYWRpcyBMaW1pdGVkMRswGQYDVQQDExJRdW9W
YWRpcyBSb290IENBIDIwggIiMA0GCSqGSIb3DQEBAQUAA4ICDwAwggIKAoICAQCa
GMpLlA0ALa8DKYrwD4HIrkwZhR0In6spRIXzL4GtMh6QRr+jhiYaHv5+HBg6XJxg
Fyo6dIMzMH1hVBHL7avg5tKifvVrbxi3Cgst/ek+7wrGsxDp3MJGF/hd/aTa/55J
WpzmM+Yklvc/ulsrHHo1wtZn/qtmUIttKGAr79dgw8eTvI02kfN/+NsRE8Scd3bB
rrcCaoF6qUWD4gXmuVbBlDePSHFjIuwXZQeVikvfj8ZaCuWw419eaxGrDPmF60Tp
+ARz8un+XJiM9XOva7R+zdRcAitMOeGylZUtQofX1bOQQ7dsE/He3fbE+Ik/0XX1
ksOR1YqI0JDs3G3eicJlcZaLDQP9nL9bFqyS2+r+eXyt66/3FsvbzSUr5R/7mp/i
Ucw6UwxI5g69ybR2BlLmEROFcmMDBOAENisgGQLodKcftslWZvB1JdxnwQ5hYIiz
PtGo/KPaHbDRsSNU30R2be1B2MGyIrZTHN81Hdyhdyox5C315eXbyOD/5YDXC2Og
/zOhD7osFRXql7PSorW+8oyWHhqPHWykYTe5hnMz15eWniN9gqRMgeKh0bpnX5UH
oycR7hYQe7xFSkyyBNKr79X9DFHOUGoIMfmR2gyPZFwDwzqLID9ujWc9Otb+fVuI
yV77zGHcizN300QyNQliBJIWENieJ0f7OyHj+OsdWwIDAQABo4GwMIGtMA8GA1Ud
EwEB/wQFMAMBAf8wCwYDVR0PBAQDAgEGMB0GA1UdDgQWBBQahGK8SEwzJQTU7tD2
A8QZRtGUazBuBgNVHSMEZzBlgBQahGK8SEwzJQTU7tD2A8QZRtGUa6FJpEcwRTEL
MAkGA1UEBhMCQk0xGTAXBgNVBAoTEFF1b1ZhZGlzIExpbWl0ZWQxGzAZBgNVBAMT
ElF1b1ZhZGlzIFJvb3QgQ0EgMoICBQkwDQYJKoZIhvcNAQEFBQADggIBAD4KFk2f
BluornFdLwUvZ+YTRYPENvbzwCYMDbVHZF34tHLJRqUDGCdViXh9duqWNIAXINzn
g/iN/Ae42l9NLmeyhP3ZRPx3UIHmfLTJDQtyU/h2BwdBR5YM++CCJpNVjP4iH2Bl
fF/nJrP3MpCYUNQ3cVX2kiF495V5+vgtJodmVjB3pjd4M1IQWK4/YY7yarHvGH5K
WWPKjaJW1acvvFYfzznB4vsKqBUsfU16Y8Zsl0Q80m/DShcK+JDSV6IZUaUtl0Ha
B0+pUNqQjZRG4T7wlP0QADj1O+hA4bRuVhogzG9Yje0uRY/W6ZM/57Es3zrWIozc
hLsib9D45MY56QSIPMO661V6bYCZJPVsAfv4l7CUW+v90m/xd2gNNWQjrLhVoQPR
TUIZ3Ph1WVaj+ahJefivDrkRoHy3au000LYmYjgahwz46P0u05B/B5EqHdZ+XIWD
mbA4CD/pXvk1B+TJYm5Xf6dQlfe6yJvmjqIBxdZmv3lh8zwc4bmCXF2gw+nYSL0Z
ohEUGW6yhhtoPkg3Goi3XZZenMfvJ2II4pEZXNLxId26F0KCl3GBUzGpn/Z9Yr9y
4aOTHcyKJloJONDO1w2AFrR4pTqHTI2KpdVGl/IsELm8VCLAAVBpQ570su9t+Oza
8eOx79+Rj1QqCyXBJhnEUhAFZdWCEOrCMc0u
-----END CERTIFICATE-----
