Certificate:
    Data:
        Version: 3 (0x2)
        Serial Number:
            06:6c:9f:cf:99:bf:8c:0a:39:e2:f0:78:8a:43:e6:96:36:5b:ca
    Signature Algorithm: sha256WithRSAEncryption
        Issuer: C=US, O=Amazon, CN=Amazon Root CA 1
        Validity
            Not Before: May 26 00:00:00 2015 GMT
            Not After : Jan 17 00:00:00 2038 GMT
        Subject: C=US, O=Amazon, CN=Amazon Root CA 1
        Subject Public Key Info:
            Public Key Algorithm: rsaEncryption
                Public-Key: (2048 bit)
                Modulus:
                    00:b2:78:80:71:ca:78:d5:e3:71:af:47:80:50:74:
                    7d:6e:d8:d7:88:76:f4:99:68:f7:58:21:60:f9:74:
                    84:01:2f:ac:02:2d:86:d3:a0:43:7a:4e:b2:a4:d0:
                    36:ba:01:be:8d:db:48:c8:07:17:36:4c:f4:ee:88:
                    23:c7:3e:eb:37:f5:b5:19:f8:49:68:b0:de:d7:b9:
                    76:38:1d:61:9e:a4:fe:82:36:a5:e5:4a:56:e4:45:
                    e1:f9:fd:b4:16:fa:74:da:9c:9b:35:39:2f:fa:b0:
                    20:50:06:6c:7a:d0:80:b2:a6:f9:af:ec:47:19:8f:
                    50:38:07:dc:a2:87:39:58:f8:ba:d5:a9:f9:48:67:
                    30:96:ee:94:78:5e:6f:89:a3:51:c0:30:86:66:a1:
                    45:66:ba:54:eb:a3:c3:91:f9:48:dc:ff:d1:e8:30:
                    2d:7d:2d:74:70:35:d7:88:24:f7:9e:c4:59:6e:bb:
                    73:87:17:f2:32:46:28:b8:43:fa:b7:1d:aa:ca:b4:
                    f2:9f:24:0e:2d:4b:f7:71:5c:5e:69:ff:ea:95:02:
                    cb:38:8a:ae:50:38:6f:db:fb:2d:62:1b:c5:c7:1e:
                    54:e1:77:e0:67:c8:0f:9c:87:23:d6:3f:40:20:7f:
                    20:80:c4:80:4c:3e:3b:24:26:8e:04:ae:6c:9a:c8:
                    aa:0d
                Exponent: 65537 (0x10001)
        X509v3 extensions:
            X509v3 Basic Constraints: critical
                CA:TRUE
            X509v3 Key Usage: critical
                Digital Signature, Certificate Sign, CRL Sign
            X509v3 Subject Key Identifier: 
                84:18:CC:85:34:EC:BC:0C:94:94:2E:08:59:9C:C7:B2:10:4E:0A:08
    Signature Algorithm: sha256WithRSAEncryption
         98:f2:37:5a:41:90:a1:1a:c5:76:51:28:20:36:23:0e:ae:e6:
         28:bb:aa:f8:94:ae:48:a4:30:7f:1b:fc:24:8d:4b:b4:c8:a1:
         97:f6:b6:f1:7a:70:c8:53:93:cc:08:28:e3:98:25:cf:23:a4:
         f9:de:21:d3:7c:85:09:ad:4e:9a:75:3a:c2:0b:6a:89:78:76:
         44:47:18:65:6c:8d:41:8e:3b:7f:9a:cb:f4:b5:a7:50:d7:05:
         2c:37:e8:03:4b:ad:e9:61:a0:02:6e:f5:f2:f0:c5:b2:ed:5b:
         b7:dc:fa:94:5c:77:9e:13:a5:7f:52:ad:95:f2:f8:93:3b:de:
         8b:5c:5b:ca:5a:52:5b:60:af:14:f7:4b:ef:a3:fb:9f:40:95:
         6d:31:54:fc:42:d3:c7:46:1f:23:ad:d9:0f:48:70:9a:d9:75:
         78:71:d1:72:43:34:75:6e:57:59:c2:02:5c:26:60:29:cf:23:
         19:16:8e:88:43:a5:d4:e4:cb:08:fb:23:11:43:e8:43:29:72:
         62:a1:a9:5d:5e:08:d4:90:ae:b8:d8:ce:14:c2:d0:55:f2:86:
         f6:c4:93:43:77:66:61:c0:b9:e8:41:d7:97:78:60:03:6e:4a:
         72:ae:a5:d1:7d:ba:10:9e:86:6c:1b:8a:b9:59:33:f8:eb:c4:
         90:be:f1:b9
-----BEGIN CERTIFICATE-----
MIIDQTCCAimgAwIBAgITBmyfz5m/jAo54vB4ikPmljZbyjANBgkqhkiG9w0BAQsF
ADA5MQswCQYDVQQGEwJVUzEPMA0GA1UEChMGQW1hem9uMRkwFwYDVQQDExBBbWF6
b24gUm9vdCBDQSAxMB4XDTE1MDUyNjAwMDAwMFoXDTM4MDExNzAwMDAwMFowOTEL
MAkGA1UEBhMCVVMxDzANBgNVBAoTBkFtYXpvbjEZMBcGA1UEAxMQQW1hem9uIFJv
b3QgQ0EgMTCCASIwDQYJKoZIhvcNAQEBBQADggEPADCCAQoCggEBALJ4gHHKeNXj
ca9HgFB0fW7Y14h29Jlo91ghYPl0hAEvrAIthtOgQ3pOsqTQNroBvo3bSMgHFzZM
9O6II8c+6zf1tRn4SWiw3te5djgdYZ6k/oI2peVKVuRF4fn9tBb6dNqcmzU5L/qw
IFAGbHrQgLKm+a/sRxmPUDgH3KKHOVj4utWp+UhnMJbulHheb4mjUcAwhmahRWa6
VOujw5H5SNz/0egwLX0tdHA114gk957EWW67c4cX8jJGKLhD+rcdqsq08p8kDi1L
93FcXmn/6pUCyziKrlA4b9v7LWIbxcceVOF34GfID5yHI9Y/QCB/IIDEgEw+OyQm
jgSubJrIqg0CAwEAAaNCMEAwDwYDVR0TAQH/BAUwAwEB/zAOBgNVHQ8BAf8EBAMC
AYYwHQYDVR0OBBYEFIQYzIU07LwMlJQuCFmcx7IQTgoIMA0GCSqGSIb3DQEBCwUA
A4IBAQCY8jdaQZChGsV2USggNiMOruYou6r4lK5IpDB/G/wkjUu0yKGX9rbxenDI
U5PMCCjjmCXPI6T53iHTfIUJrU6adTrCC2qJeHZERxhlbI1Bjjt/msv0tadQ1wUs
N+gDS63pYaACbvXy8MWy7Vu33PqUXHeeE6V/Uq2V8viTO96LXFvKWlJbYK8U90vv
o/ufQJVtMVT8QtPHRh8jrdkPSHCa2XV4cdFyQzR1bldZwgJcJmApzyMZFo6IQ6XU
5MsI+yMRQ+hDKXJioaldXgjUkK642M4UwtBV8ob2xJNDd2ZhwLnoQdeXeGADbkpy
rqXRfboQnoZsG4q5WTP468SQvvG5
-----END CERTIFICATE-----
