Certificate:
    Data:
        Version: 3 (0x2)
        Serial Number:
            44:57:34:24:5b:81:89:9b:35:f2:ce:b8:2b:3b:5b:a7:26:f0:75:28
    Signature Algorithm: sha256WithRSAEncryption
        Issuer: C=BM, O=QuoVadis Limited, CN=QuoVadis Root CA 2 G3
        Validity
            Not Before: Jan 12 18:59:32 2012 GMT
            Not After : Jan 12 18:59:32 2042 GMT
        Subject: C=BM, O=QuoVadis Limited, CN=QuoVadis Root CA 2 G3
        Subject Public Key Info:
            Public Key Algorithm: rsaEncryption
                Public-Key: (4096 bit)
                Modulus:
                    00:a1:ae:25:b2:01:18:dc:57:88:3f:46:eb:f9:af:
                    e2:eb:23:71:e2:9a:d1:61:66:21:5f:aa:af:27:51:
                    e5:6e:1b:16:d4:2d:7d:50:b0:53:77:bd:78:3a:60:
                    e2:64:02:9b:7c:86:9b:d6:1a:8e:ad:ff:1f:15:7f:
                    d5:95:1e:12:cb:e6:14:84:04:c1:df:36:b3:16:9f:
                    8a:e3:c9:db:98:34:ce:d8:33:17:28:46:fc:a7:c9:
                    f0:d2:b4:d5:4d:09:72:49:f9:f2:87:e3:a9:da:7d:
                    a1:7d:6b:b2:3a:25:a9:6d:52:44:ac:f8:be:6e:fb:
                    dc:a6:73:91:90:61:a6:03:14:20:f2:e7:87:a3:88:
                    ad:ad:a0:8c:ff:a6:0b:25:52:25:e7:16:01:d5:cb:
                    b8:35:81:0c:a3:3b:f0:e1:e1:fc:5a:5d:ce:80:71:
                    6d:f8:49:ab:3e:3b:ba:b8:d7:80:01:fb:a5:eb:5b:
                    b3:c5:5e:60:2a:31:a0:af:37:e8:20:3a:9f:a8:32:
                    2c:0c:cc:09:1d:d3:9e:8e:5d:bc:4c:98:ee:c5:1a:
                    68:7b:ec:53:a6:e9:14:35:a3:df:cd:80:9f:0c:48:
                    fb:1c:f4:f1:bf:4a:b8:fa:d5:8c:71:4a:c7:1f:ad:
                    fe:41:9a:b3:83:5d:f2:84:56:ef:a5:57:43:ce:29:
                    ad:8c:ab:55:bf:c4:fb:5b:01:dd:23:21:a1:58:00:
                    8e:c3:d0:6a:13:ed:13:e3:12:2b:80:dc:67:e6:95:
                    b2:cd:1e:22:6e:2a:f8:41:d4:f2:ca:14:07:8d:8a:
                    55:12:c6:69:f5:b8:86:68:2f:53:5e:b0:d2:aa:21:
                    c1:98:e6:30:e3:67:55:c7:9b:6e:ac:19:a8:55:a6:
                    45:06:d0:23:3a:db:eb:65:5d:2a:11:11:f0:3b:4f:
                    ca:6d:f4:34:c4:71:e4:ff:00:5a:f6:5c:ae:23:60:
                    85:73:f1:e4:10:b1:25:ae:d5:92:bb:13:c1:0c:e0:
                    39:da:b4:39:57:b5:ab:35:aa:72:21:3b:83:35:e7:
                    31:df:7a:21:6e:b8:32:08:7d:1d:32:91:15:4a:62:
                    72:cf:e3:77:a1:bc:d5:11:1b:76:01:67:08:e0:41:
                    0b:c3:eb:15:6e:f8:a4:19:d9:a2:ab:af:e2:27:52:
                    56:2b:02:8a:2c:14:24:f9:bf:42:02:bf:26:c8:c6:
                    8f:e0:6e:38:7d:53:2d:e5:ed:98:b3:95:63:68:7f:
                    f9:35:f4:df:88:c5:60:35:92:c0:7c:69:1c:61:95:
                    16:d0:eb:de:0b:af:3e:04:10:45:65:58:50:38:af:
                    48:f2:59:b6:16:f2:3c:0d:90:02:c6:70:2e:01:ad:
                    3c:15:d7
                Exponent: 65537 (0x10001)
        X509v3 extensions:
            X509v3 Basic Constraints: critical
                CA:TRUE
            X509v3 Key Usage: critical
                Certificate Sign, CRL Sign
            X509v3 Subject Key Identifier: 
                ED:E7:6F:76:5A:BF:60:EC:49:5B:C6:A5:77:BB:72:16:71:9B:C4:3D
    Signature Algorithm: sha256WithRSAEncryption
         91:df:80:3f:43:09:7e:71:c2:f7:eb:b3:88:8f:e1:51:b2:bc:
         3d:75:f9:28:5d:c8:bc:99:9b:7b:5d:aa:e5:ca:e1:0a:f7:e8:
         b2:d3:9f:dd:67:31:7e:ba:01:aa:c7:6a:41:3b:90:d4:08:5c:
         b2:60:6a:90:f0:c8:ce:03:62:f9:8b:ed:fb:6e:2a:dc:06:4d:
         3c:29:0f:89:16:8a:58:4c:48:0f:e8:84:61:ea:3c:72:a6:77:
         e4:42:ae:88:a3:43:58:79:7e:ae:ca:a5:53:0d:a9:3d:70:bd:
         20:19:61:a4:6c:38:fc:43:32:e1:c1:47:ff:f8:ec:f1:11:22:
         32:96:9c:c2:f6:5b:69:96:7b:20:0c:43:41:9a:5b:f6:59:19:
         88:de:55:88:37:51:0b:78:5c:0a:1e:a3:42:fd:c7:9d:88:0f:
         c0:f2:78:02:24:54:93:af:89:87:88:c9:4a:80:1d:ea:d0:6e:
         3e:61:2e:36:bb:35:0e:27:96:fd:66:34:3b:61:72:73:f1:16:
         5c:47:06:54:49:00:7a:58:12:b0:0a:ef:85:fd:b1:b8:33:75:
         6a:93:1c:12:e6:60:5e:6f:1d:7f:c9:1f:23:cb:84:61:9f:1e:
         82:44:f9:5f:ad:62:55:24:9a:52:98:ed:51:e7:a1:7e:97:3a:
         e6:2f:1f:11:da:53:80:2c:85:9e:ab:35:10:db:22:5f:6a:c5:
         5e:97:53:f2:32:02:09:30:a3:58:f0:0d:01:d5:72:c6:b1:7c:
         69:7b:c3:f5:36:45:cc:61:6e:5e:4c:94:c5:5e:ae:e8:0e:5e:
         8b:bf:f7:cd:e0:ed:a1:0e:1b:33:ee:54:18:fe:0f:be:ef:7e:
         84:6b:43:e3:70:98:db:5d:75:b2:0d:59:07:85:15:23:39:d6:
         f1:df:a9:26:0f:d6:48:c7:b3:a6:22:f5:33:37:5a:95:47:9f:
         7b:ba:18:15:6f:ff:d6:14:64:83:49:d2:0a:67:21:db:0f:35:
         63:60:28:22:e3:b1:95:83:cd:85:a6:dd:2f:0f:e7:67:52:6e:
         bb:2f:85:7c:f5:4a:73:e7:c5:3e:c0:bd:21:12:05:3f:fc:b7:
         03:49:02:5b:c8:25:e6:e2:54:38:f5:79:87:8c:1d:53:b2:4e:
         85:7b:06:38:c7:2c:f8:f8:b0:72:8d:25:e5:77:52:f4:03:1c:
         48:a6:50:5f:88:20:30:6e:f2:82:43:ab:3d:97:84:e7:53:fb:
         21:c1:4f:0f:22:9a:86:b8:59:2a:f6:47:3d:19:88:2d:e8:85:
         e1:9e:ec:85:08:6a:b1:6c:34:c9:1d:ec:48:2b:3b:78:ed:66:
         c4:8e:79:69:83:de:7f:8c
-----BEGIN CERTIFICATE-----
MIIFYDCCA0igAwIBAgIURFc0JFuBiZs18s64KztbpybwdSgwDQYJKoZIhvcNAQEL
BQAwSDELMAkGA1UEBhMCQk0xGTAXBgNVBAoTEFF1b1ZhZGlzIExpbWl0ZWQxHjAc
BgNVBAMTFVF1b1ZhZGlzIFJvb3QgQ0EgMiBHMzAeFw0xMjAxMTIxODU5MzJaFw00
MjAxMTIxODU5MzJaMEgxCzAJBgNVBAYTAkJNMRkwFwYDVQQKExBRdW9WYWRpcyBM
aW1pdGVkMR4wHAYDVQQDExVRdW9WYWRpcyBSb290IENBIDIgRzMwggIiMA0GCSqG
SIb3DQEBAQUAA4ICDwAwggIKAoICAQChriWyARjcV4g/Ruv5r+LrI3HimtFhZiFf
qq8nUeVuGxbULX1QsFN3vXg6YOJkApt8hpvWGo6t/x8Vf9WVHhLL5hSEBMHfNrMW
n4rjyduYNM7YMxcoRvynyfDStNVNCXJJ+fKH46nafaF9a7I6JaltUkSs+L5u+9ym
c5GQYaYDFCDy54ejiK2toIz/pgslUiXnFgHVy7g1gQyjO/Dh4fxaXc6AcW34Sas+
O7q414AB+6XrW7PFXmAqMaCvN+ggOp+oMiwMzAkd056OXbxMmO7FGmh77FOm6RQ1
o9/NgJ8MSPsc9PG/Srj61YxxSscfrf5BmrODXfKEVu+lV0POKa2Mq1W/xPtbAd0j
IaFYAI7D0GoT7RPjEiuA3GfmlbLNHiJuKvhB1PLKFAeNilUSxmn1uIZoL1NesNKq
IcGY5jDjZ1XHm26sGahVpkUG0CM62+tlXSoREfA7T8pt9DTEceT/AFr2XK4jYIVz
8eQQsSWu1ZK7E8EM4DnatDlXtas1qnIhO4M15zHfeiFuuDIIfR0ykRVKYnLP43eh
vNURG3YBZwjgQQvD6xVu+KQZ2aKrr+InUlYrAoosFCT5v0ICvybIxo/gbjh9Uy3l
7ZizlWNof/k19N+IxWA1ksB8aRxhlRbQ694Lrz4EEEVlWFA4r0jyWbYW8jwNkALG
cC4BrTwV1wIDAQABo0IwQDAPBgNVHRMBAf8EBTADAQH/MA4GA1UdDwEB/wQEAwIB
BjAdBgNVHQ4EFgQU7edvdlq/YOxJW8ald7tyFnGbxD0wDQYJKoZIhvcNAQELBQAD
ggIBAJHfgD9DCX5xwvfrs4iP4VGyvD11+ShdyLyZm3tdquXK4Qr36LLTn91nMX66
AarHakE7kNQIXLJgapDwyM4DYvmL7ftuKtwGTTwpD4kWilhMSA/ohGHqPHKmd+RC
roijQ1h5fq7KpVMNqT1wvSAZYaRsOPxDMuHBR//47PERIjKWnML2W2mWeyAMQ0Ga
W/ZZGYjeVYg3UQt4XAoeo0L9x52ID8DyeAIkVJOviYeIyUqAHerQbj5hLja7NQ4n
lv1mNDthcnPxFlxHBlRJAHpYErAK74X9sbgzdWqTHBLmYF5vHX/JHyPLhGGfHoJE
+V+tYlUkmlKY7VHnoX6XOuYvHxHaU4AshZ6rNRDbIl9qxV6XU/IyAgkwo1jwDQHV
csaxfGl7w/U2Rcxhbl5MlMVerugOXou/983g7aEOGzPuVBj+D77vfoRrQ+NwmNtd
dbINWQeFFSM51vHfqSYP1kjHs6Yi9TM3WpVHn3u6GBVv/9YUZINJ0gpnIdsPNWNg
KCLjsZWDzYWm3S8P52dSbrsvhXz1SnPnxT7AvSESBT/8twNJAlvIJebiVDj1eYeM
HVOyToV7BjjHLPj4sHKNJeV3UvQDHEimUF+IIDBu8oJDqz2XhOdT+yHBTw8imoa4
WSr2Rz0ZiC3oheGe7IUIarFsNMkd7EgrO3jtZsSOeWmD3n+M
-----END CERTIFICATE-----
