Certificate:
    Data:
        Version: 3 (0x2)
        Serial Number:
            5a:4b:bd:5a:fb:4f:8a:5b:fa:65:e5
        Signature Algorithm: sha256WithRSAEncryption
        Issuer: C = AT, O = e-commerce monitoring GmbH, CN = GLOBALTRUST 2020
        Validity
            Not Before: Feb 10 00:00:00 2020 GMT
            Not After : Jun 10 00:00:00 2040 GMT
        Subject: C = AT, O = e-commerce monitoring GmbH, CN = GLOBALTRUST 2020
        Subject Public Key Info:
            Public Key Algorithm: rsaEncryption
                RSA Public-Key: (4096 bit)
                Modulus:
                    00:ae:2e:56:ad:1b:1c:ef:f6:95:8f:a0:77:1b:2b:
                    d3:63:8f:84:4d:45:a2:0f:9f:5b:45:ab:59:7b:51:
                    34:f9:ec:8b:8a:78:c5:dd:6b:af:bd:c4:df:93:45:
                    1e:bf:91:38:0b:ae:0e:16:e7:41:73:f8:db:bb:d1:
                    b8:51:e0:cb:83:3b:73:38:6e:77:8a:0f:59:63:26:
                    cd:a7:2a:ce:54:fb:b8:e2:c0:7c:47:ce:60:7c:3f:
                    b2:73:f2:c0:19:b6:8a:92:87:35:0d:90:28:a2:e4:
                    15:04:63:3e:ba:af:ee:7c:5e:cc:a6:8b:50:b2:38:
                    f7:41:63:ca:ce:ff:69:8f:68:0e:95:36:e5:cc:b9:
                    8c:09:ca:4b:dd:31:90:96:c8:cc:1f:fd:56:96:34:
                    db:8e:1c:ea:2c:be:85:2e:63:dd:aa:a9:95:d3:fd:
                    29:95:13:f0:c8:98:93:d9:2d:16:47:90:11:83:a2:
                    3a:22:a2:28:57:a2:eb:fe:c0:8c:28:a0:a6:7d:e7:
                    2a:42:3b:82:80:63:a5:63:1f:19:cc:7c:b2:66:a8:
                    c2:d3:6d:37:6f:e2:7e:06:51:d9:45:84:1f:12:ce:
                    24:52:64:85:0b:48:80:4e:87:b1:22:22:30:aa:eb:
                    ae:be:e0:02:e0:40:e8:b0:42:80:03:51:aa:b4:7e:
                    aa:44:d7:43:61:f3:a2:6b:16:89:49:a4:a3:a4:2b:
                    8a:02:c4:78:f4:68:8a:c1:e4:7a:36:b1:6f:1b:96:
                    1b:77:49:8d:d4:c9:06:72:8f:cf:53:e3:dc:17:85:
                    20:4a:dc:98:27:d3:91:26:2b:47:1e:69:07:af:de:
                    a2:e4:e4:d4:6b:0b:b3:5e:7c:d4:24:80:47:29:69:
                    3b:6e:e8:ac:fd:40:eb:d8:ed:71:71:2b:f2:e8:58:
                    1d:eb:41:97:22:c5:1f:d4:39:d0:27:8f:87:e3:18:
                    f4:e0:a9:46:0d:f5:74:3a:82:2e:d0:6e:2c:91:a3:
                    31:5c:3b:46:ea:7b:04:10:56:5e:80:1d:f5:a5:65:
                    e8:82:fc:e2:07:8c:62:45:f5:20:de:46:70:86:a1:
                    bc:93:d3:1e:74:a6:6c:b0:2c:f7:03:0c:88:0c:cb:
                    d4:72:53:86:bc:60:46:f3:98:6a:c2:f1:bf:43:f9:
                    70:20:77:ca:37:41:79:55:52:63:8d:5b:12:9f:c5:
                    68:c4:88:9d:ac:f2:30:ab:b7:a3:31:97:67:ad:8f:
                    17:0f:6c:c7:73:ed:24:94:6b:c8:83:9a:d0:9a:37:
                    49:04:ab:b1:16:c8:6c:49:49:2d:ab:a1:d0:8c:92:
                    f2:41:4a:79:21:25:db:63:d7:b6:9c:a7:7e:42:69:
                    fb:3a:63
                Exponent: 65537 (0x10001)
        X509v3 extensions:
            X509v3 Basic Constraints: critical
                CA:TRUE
            X509v3 Key Usage: critical
                Certificate Sign, CRL Sign
            X509v3 Subject Key Identifier: 
                DC:2E:1F:D1:61:37:79:E4:AB:D5:D5:B3:12:71:68:3D:6A:68:9C:22
            X509v3 Authority Key Identifier: 
                keyid:DC:2E:1F:D1:61:37:79:E4:AB:D5:D5:B3:12:71:68:3D:6A:68:9C:22

    Signature Algorithm: sha256WithRSAEncryption
         91:f0:42:02:68:40:ee:c3:68:c0:54:2f:df:ec:62:c3:c3:9e:
         8a:a0:31:28:aa:83:8e:a4:56:96:12:10:86:56:ba:97:72:d2:
         54:30:7c:ad:19:d5:1d:68:6f:fb:14:42:d8:8d:0e:f3:b5:d1:
         a5:e3:02:42:5e:dc:e8:46:58:07:35:02:30:e0:bc:74:4a:c1:
         43:2a:ff:db:1a:d0:b0:af:6c:c3:fd:cb:b3:f5:7f:6d:03:2e:
         59:56:9d:2d:2d:35:8c:b2:d6:43:17:2c:92:0a:cb:5d:e8:8c:
         0f:4b:70:43:d0:82:ff:a8:cc:bf:a4:94:c0:be:87:bd:8a:e3:
         93:7b:c6:8f:9b:16:9d:27:65:bc:7a:c5:42:82:6c:5c:07:d0:
         a9:c1:88:60:44:e9:98:85:16:5f:f8:8f:ca:01:10:ce:25:c3:
         f9:60:1b:a0:c5:97:c3:d3:2c:88:31:a2:bd:30:ec:d0:d0:c0:
         12:f1:c1:39:e3:e5:f5:f8:d6:4a:dd:34:cd:fb:6f:c1:4f:e3:
         00:8b:56:e2:92:f7:28:b2:42:77:72:23:67:c7:3f:11:15:b2:
         c4:03:05:be:bb:11:7b:0a:bf:a8:6e:e7:ff:58:43:cf:9b:67:
         a0:80:07:b6:1d:ca:ad:6d:ea:41:11:7e:2d:74:93:fb:c2:bc:
         be:51:44:c5:ef:68:25:27:80:e3:c8:a0:d4:12:ec:d9:a5:37:
         1d:37:7c:b4:91:ca:da:d4:b1:96:81:ef:68:5c:76:10:49:af:
         7e:a5:37:80:b1:1c:52:bd:33:81:4c:8f:f9:dd:65:d9:14:cd:
         8a:25:58:f4:e2:c5:83:a5:09:90:d4:6c:14:63:b5:40:df:eb:
         c0:fc:c4:58:7e:0d:14:16:87:54:27:6e:56:e4:70:84:b8:6c:
         32:12:7e:82:31:43:be:d7:dd:7c:a1:ad:ae:d6:ab:20:12:ef:
         0a:c3:10:8c:49:96:35:dc:0b:75:5e:b1:4f:d5:4f:34:0e:11:
         20:07:75:43:45:e9:a3:11:da:ac:a3:99:c2:b6:79:27:e2:b9:
         ef:c8:e2:f6:35:29:7a:74:fa:c5:7f:82:05:62:a6:0a:ea:68:
         b2:79:47:06:6e:f2:57:a8:15:33:c6:f7:78:4a:3d:42:7b:6b:
         7e:fe:f7:46:ea:d1:eb:8e:ef:88:68:5b:e8:c1:d9:71:7e:fd:
         64:ef:ff:67:47:88:58:25:2f:3e:86:07:bd:fb:a8:e5:82:a8:
         ac:a5:d3:69:43:cd:31:88:49:84:53:92:c0:b1:39:1b:39:83:
         01:30:c4:f2:a9:fa:d0:03:bd:72:37:60:56:1f:36:7c:bd:39:
         91:f5:6d:0d:bf:7b:d7:92
-----BEGIN CERTIFICATE-----
MIIFgjCCA2qgAwIBAgILWku9WvtPilv6ZeUwDQYJKoZIhvcNAQELBQAwTTELMAkG
A1UEBhMCQVQxIzAhBgNVBAoTGmUtY29tbWVyY2UgbW9uaXRvcmluZyBHbWJIMRkw
FwYDVQQDExBHTE9CQUxUUlVTVCAyMDIwMB4XDTIwMDIxMDAwMDAwMFoXDTQwMDYx
MDAwMDAwMFowTTELMAkGA1UEBhMCQVQxIzAhBgNVBAoTGmUtY29tbWVyY2UgbW9u
aXRvcmluZyBHbWJIMRkwFwYDVQQDExBHTE9CQUxUUlVTVCAyMDIwMIICIjANBgkq
hkiG9w0BAQEFAAOCAg8AMIICCgKCAgEAri5WrRsc7/aVj6B3GyvTY4+ETUWiD59b
RatZe1E0+eyLinjF3WuvvcTfk0Uev5E4C64OFudBc/jbu9G4UeDLgztzOG53ig9Z
YybNpyrOVPu44sB8R85gfD+yc/LAGbaKkoc1DZAoouQVBGM+uq/ufF7MpotQsjj3
QWPKzv9pj2gOlTblzLmMCcpL3TGQlsjMH/1WljTbjhzqLL6FLmPdqqmV0/0plRPw
yJiT2S0WR5ARg6I6IqIoV6Lr/sCMKKCmfecqQjuCgGOlYx8ZzHyyZqjC0203b+J+
BlHZRYQfEs4kUmSFC0iAToexIiIwquuuvuAC4EDosEKAA1GqtH6qRNdDYfOiaxaJ
SaSjpCuKAsR49GiKweR6NrFvG5Ybd0mN1MkGco/PU+PcF4UgStyYJ9ORJitHHmkH
r96i5OTUawuzXnzUJIBHKWk7buis/UDr2O1xcSvy6Fgd60GXIsUf1DnQJ4+H4xj0
4KlGDfV0OoIu0G4skaMxXDtG6nsEEFZegB31pWXogvziB4xiRfUg3kZwhqG8k9Me
dKZssCz3AwyIDMvUclOGvGBG85hqwvG/Q/lwIHfKN0F5VVJjjVsSn8VoxIidrPIw
q7ejMZdnrY8XD2zHc+0klGvIg5rQmjdJBKuxFshsSUktq6HQjJLyQUp5ISXbY9e2
nKd+Qmn7OmMCAwEAAaNjMGEwDwYDVR0TAQH/BAUwAwEB/zAOBgNVHQ8BAf8EBAMC
AQYwHQYDVR0OBBYEFNwuH9FhN3nkq9XVsxJxaD1qaJwiMB8GA1UdIwQYMBaAFNwu
H9FhN3nkq9XVsxJxaD1qaJwiMA0GCSqGSIb3DQEBCwUAA4ICAQCR8EICaEDuw2jA
VC/f7GLDw56KoDEoqoOOpFaWEhCGVrqXctJUMHytGdUdaG/7FELYjQ7ztdGl4wJC
XtzoRlgHNQIw4Lx0SsFDKv/bGtCwr2zD/cuz9X9tAy5ZVp0tLTWMstZDFyySCstd
6IwPS3BD0IL/qMy/pJTAvoe9iuOTe8aPmxadJ2W8esVCgmxcB9CpwYhgROmYhRZf
+I/KARDOJcP5YBugxZfD0yyIMaK9MOzQ0MAS8cE54+X1+NZK3TTN+2/BT+MAi1bi
kvcoskJ3ciNnxz8RFbLEAwW+uxF7Cr+obuf/WEPPm2eggAe2HcqtbepBEX4tdJP7
wry+UUTF72glJ4DjyKDUEuzZpTcdN3y0kcra1LGWge9oXHYQSa9+pTeAsRxSvTOB
TI/53WXZFM2KJVj04sWDpQmQ1GwUY7VA3+vA/MRYfg0UFodUJ25W5HCEuGwyEn6C
MUO+1918oa2u1qsgEu8KwxCMSZY13At1XrFP1U80DhEgB3VDRemjEdqso5nCtnkn
4rnvyOL2NSl6dPrFf4IFYqYK6miyeUcGbvJXqBUzxvd4Sj1Ce2t+/vdG6tHrju+I
aFvowdlxfv1k7/9nR4hYJS8+hge9+6jlgqispdNpQ80xiEmEU5LAsTkbOYMBMMTy
qfrQA71yN2BWHzZ8vTmR9W0Nv3vXkg==
-----END CERTIFICATE-----
