Certificate:
    Data:
        Version: 3 (0x2)
        Serial Number: 0 (0x0)
        Signature Algorithm: sha256WithRSAEncryption
        Issuer: C = GR, L = Athens, O = Hellenic Academic and Research Institutions Cert. Authority, CN = Hellenic Academic and Research Institutions RootCA 2015
        Validity
            Not Before: Jul  7 10:11:21 2015 GMT
            Not After : Jun 30 10:11:21 2040 GMT
        Subject: C = GR, L = Athens, O = Hellenic Academic and Research Institutions Cert. Authority, CN = Hellenic Academic and Research Institutions RootCA 2015
        Subject Public Key Info:
            Public Key Algorithm: rsaEncryption
                RSA Public-Key: (4096 bit)
                Modulus:
                    00:c2:f8:a9:3f:1b:89:fc:3c:3c:04:5d:3d:90:36:
                    b0:91:3a:79:3c:66:5a:ef:6d:39:01:49:1a:b4:b7:
                    cf:7f:4d:23:53:b7:90:00:e3:13:2a:28:a6:31:f1:
                    91:00:e3:28:ec:ae:21:41:ce:1f:da:fd:7d:12:5b:
                    01:83:0f:b9:b0:5f:99:e1:f2:12:83:80:4d:06:3e:
                    df:ac:af:e7:a1:88:6b:31:af:f0:8b:d0:18:33:b8:
                    db:45:6a:34:f4:02:80:24:28:0a:02:15:95:5e:76:
                    2a:0d:99:3a:14:5b:f6:cb:cb:53:bc:13:4d:01:88:
                    37:94:25:1b:42:bc:22:d8:8e:a3:96:5e:3a:d9:32:
                    db:3e:e8:f0:10:65:ed:74:e1:2f:a7:7c:af:27:34:
                    bb:29:7d:9b:b6:cf:09:c8:e5:d3:0a:fc:88:65:65:
                    74:0a:dc:73:1c:5c:cd:40:b1:1c:d4:b6:84:8c:4c:
                    50:cf:68:8e:a8:59:ae:c2:27:4e:82:a2:35:dd:14:
                    f4:1f:ff:b2:77:d5:87:2f:aa:6e:7d:24:27:e7:c6:
                    cb:26:e6:e5:fe:67:07:63:d8:45:0d:dd:3a:59:65:
                    39:58:7a:92:99:72:3d:9c:84:5e:88:21:b8:d5:f4:
                    2c:fc:d9:70:52:4f:78:b8:bd:3c:2b:8b:95:98:f5:
                    b3:d1:68:cf:20:14:7e:4c:5c:5f:e7:8b:e5:f5:35:
                    81:19:37:d7:11:08:b7:66:be:d3:4a:ce:83:57:00:
                    3a:c3:81:f8:17:cb:92:36:5d:d1:a3:d8:75:1b:e1:
                    8b:27:ea:7a:48:41:fd:45:19:06:ad:27:99:4e:c1:
                    70:47:dd:b5:9f:81:53:12:e5:b1:8c:48:5d:31:43:
                    17:e3:8c:c6:7a:63:96:4b:29:30:4e:84:4e:62:19:
                    5e:3c:ce:97:90:a5:7f:01:eb:9d:e0:f8:8b:89:dd:
                    25:98:3d:92:b6:7e:ef:d9:f1:51:51:7d:2d:26:c8:
                    69:59:61:e0:ac:6a:b8:2a:36:11:04:7a:50:bd:32:
                    84:be:2f:dc:72:d5:d7:1d:16:47:e4:47:66:20:3f:
                    f4:96:c5:af:8e:01:7a:a5:0f:7a:64:f5:0d:18:87:
                    d9:ae:88:d5:fa:84:c1:3a:c0:69:28:2d:f2:0d:68:
                    51:aa:e3:a5:77:c6:a4:90:0e:a1:37:8b:31:23:47:
                    c1:09:08:eb:6e:f7:78:9b:d7:82:fc:84:20:99:49:
                    19:b6:12:46:b1:fb:45:55:16:a9:a3:65:ac:9c:07:
                    0f:ea:6b:dc:1f:2e:06:72:ec:86:88:12:e4:2d:db:
                    5f:05:2f:e4:f0:03:d3:26:33:e7:80:c2:cd:42:a1:
                    17:34:0b
                Exponent: 65537 (0x10001)
        X509v3 extensions:
            X509v3 Basic Constraints: critical
                CA:TRUE
            X509v3 Key Usage: critical
                Certificate Sign, CRL Sign
            X509v3 Subject Key Identifier: 
                71:15:67:C8:C8:C9:BD:75:5D:72:D0:38:18:6A:9D:F3:71:24:54:0B
    Signature Algorithm: sha256WithRSAEncryption
         75:bb:6d:54:4b:aa:10:58:46:34:f2:62:d7:16:36:5d:08:5e:
         d5:6c:c8:87:bd:b4:2e:46:f2:31:f8:7c:ea:42:b5:93:16:55:
         dc:a1:0c:12:a0:da:61:7e:0f:58:58:73:64:72:c7:e8:45:8e:
         dc:a9:f2:26:3f:c6:79:8c:b1:53:08:33:81:b0:56:13:be:e6:
         51:5c:d8:9b:0a:4f:4b:9c:56:53:02:e9:4f:f6:0d:60:ea:4d:
         42:55:e8:7c:1b:21:21:d3:1b:3a:cc:77:f2:b8:90:f1:68:c7:
         f9:5a:fe:fa:2d:f4:bf:c9:f5:45:1b:ce:38:10:2a:37:8a:79:
         a3:b4:e3:09:6c:85:86:93:ff:89:96:27:78:81:8f:67:e3:46:
         74:54:8e:d9:0d:69:e2:4a:f4:4d:74:03:ff:b2:77:ed:95:67:
         97:e4:b1:c5:ab:bf:6a:23:e8:d4:94:e2:44:28:62:c4:4b:e2:
         f0:d8:e2:29:6b:1a:70:7e:24:61:93:7b:4f:03:32:25:0d:45:
         24:2b:96:b4:46:6a:bf:4a:0b:f7:9a:8f:c1:ac:1a:c5:67:f3:
         6f:34:d2:fa:73:63:8c:ef:16:b0:a8:a4:46:2a:f8:eb:12:ec:
         72:b4:ef:f8:2b:7e:8c:52:c0:8b:84:54:f9:2f:3e:e3:55:a8:
         dc:66:b1:d9:e1:5f:d8:b3:8c:59:34:59:a4:ab:4f:6c:bb:1f:
         18:db:75:ab:d8:cb:92:cd:94:38:61:0e:07:06:1f:4b:46:10:
         f1:15:be:8d:85:5c:3b:4a:2b:81:79:0f:b4:69:9f:49:50:97:
         4d:f7:0e:56:5d:c0:95:6a:c2:36:c3:1b:68:c9:f5:2a:dc:47:
         9a:be:b2:ce:c5:25:e8:fa:03:b9:da:f9:16:6e:91:84:f5:1c:
         28:c8:fc:26:cc:d7:1c:90:56:a7:5f:6f:3a:04:bc:cd:78:89:
         0b:8e:0f:2f:a3:aa:4f:a2:1b:12:3d:16:08:40:0f:f1:46:4c:
         d7:aa:7b:08:c1:0a:f5:6d:27:de:02:8f:ca:c3:b5:2b:ca:e9:
         eb:c8:21:53:38:a5:cc:3b:d8:77:37:30:a2:4f:d9:6f:d1:f2:
         40:ad:41:7a:17:c5:d6:4a:35:89:b7:41:d5:7c:86:7f:55:4d:
         83:4a:a5:73:20:c0:3a:af:90:f1:9a:24:8e:d9:8e:71:ca:7b:
         b8:86:da:b2:8f:99:3e:1d:13:0d:12:11:ee:d4:ab:f0:e9:15:
         76:02:e4:e0:df:aa:20:1e:5b:61:85:64:40:a9:90:97:0d:ad:
         53:d2:5a:1d:87:6a:00:97:65:62:b4:be:6f:6a:a7:f5:2c:42:
         ed:32:ad:b6:21:9e:be:bc
-----BEGIN CERTIFICATE-----
MIIGCzCCA/OgAwIBAgIBADANBgkqhkiG9w0BAQsFADCBpjELMAkGA1UEBhMCR1Ix
DzANBgNVBAcTBkF0aGVuczFEMEIGA1UEChM7SGVsbGVuaWMgQWNhZGVtaWMgYW5k
IFJlc2VhcmNoIEluc3RpdHV0aW9ucyBDZXJ0LiBBdXRob3JpdHkxQDA+BgNVBAMT
N0hlbGxlbmljIEFjYWRlbWljIGFuZCBSZXNlYXJjaCBJbnN0aXR1dGlvbnMgUm9v
dENBIDIwMTUwHhcNMTUwNzA3MTAxMTIxWhcNNDAwNjMwMTAxMTIxWjCBpjELMAkG
A1UEBhMCR1IxDzANBgNVBAcTBkF0aGVuczFEMEIGA1UEChM7SGVsbGVuaWMgQWNh
ZGVtaWMgYW5kIFJlc2VhcmNoIEluc3RpdHV0aW9ucyBDZXJ0LiBBdXRob3JpdHkx
QDA+BgNVBAMTN0hlbGxlbmljIEFjYWRlbWljIGFuZCBSZXNlYXJjaCBJbnN0aXR1
dGlvbnMgUm9vdENBIDIwMTUwggIiMA0GCSqGSIb3DQEBAQUAA4ICDwAwggIKAoIC
AQDC+Kk/G4n8PDwEXT2QNrCROnk8ZlrvbTkBSRq0t89/TSNTt5AA4xMqKKYx8ZEA
4yjsriFBzh/a/X0SWwGDD7mwX5nh8hKDgE0GPt+sr+ehiGsxr/CL0BgzuNtFajT0
AoAkKAoCFZVedioNmToUW/bLy1O8E00BiDeUJRtCvCLYjqOWXjrZMts+6PAQZe10
4S+nfK8nNLspfZu2zwnI5dMK/IhlZXQK3HMcXM1AsRzUtoSMTFDPaI6oWa7CJ06C
ojXdFPQf/7J31Ycvqm59JCfnxssm5uX+Zwdj2EUN3TpZZTlYepKZcj2chF6IIbjV
9Cz82XBST3i4vTwri5WY9bPRaM8gFH5MXF/ni+X1NYEZN9cRCLdmvtNKzoNXADrD
gfgXy5I2XdGj2HUb4Ysn6npIQf1FGQatJ5lOwXBH3bWfgVMS5bGMSF0xQxfjjMZ6
Y5ZLKTBOhE5iGV48zpeQpX8B653g+IuJ3SWYPZK2fu/Z8VFRfS0myGlZYeCsargq
NhEEelC9MoS+L9xy1dcdFkfkR2YgP/SWxa+OAXqlD3pk9Q0Yh9muiNX6hME6wGko
LfINaFGq46V3xqSQDqE3izEjR8EJCOtu93ib14L8hCCZSRm2Ekax+0VVFqmjZayc
Bw/qa9wfLgZy7IaIEuQt218FL+TwA9MmM+eAws1CoRc0CwIDAQABo0IwQDAPBgNV
HRMBAf8EBTADAQH/MA4GA1UdDwEB/wQEAwIBBjAdBgNVHQ4EFgQUcRVnyMjJvXVd
ctA4GGqd83EkVAswDQYJKoZIhvcNAQELBQADggIBAHW7bVRLqhBYRjTyYtcWNl0I
XtVsyIe9tC5G8jH4fOpCtZMWVdyhDBKg2mF+D1hYc2Ryx+hFjtyp8iY/xnmMsVMI
M4GwVhO+5lFc2JsKT0ucVlMC6U/2DWDqTUJV6HwbISHTGzrMd/K4kPFox/la/vot
9L/J9UUbzjgQKjeKeaO04wlshYaT/4mWJ3iBj2fjRnRUjtkNaeJK9E10A/+yd+2V
Z5fkscWrv2oj6NSU4kQoYsRL4vDY4ilrGnB+JGGTe08DMiUNRSQrlrRGar9KC/ea
j8GsGsVn82800vpzY4zvFrCopEYq+OsS7HK07/grfoxSwIuEVPkvPuNVqNxmsdnh
X9izjFk0WaSrT2y7HxjbdavYy5LNlDhhDgcGH0tGEPEVvo2FXDtKK4F5D7Rpn0lQ
l033DlZdwJVqwjbDG2jJ9SrcR5q+ss7FJej6A7na+RZukYT1HCjI/CbM1xyQVqdf
bzoEvM14iQuODy+jqk+iGxI9FghAD/FGTNeqewjBCvVtJ94Cj8rDtSvK6evIIVM4
pcw72Hc3MKJP2W/R8kCtQXoXxdZKNYm3QdV8hn9VTYNKpXMgwDqvkPGaJI7ZjnHK
e7iG2rKPmT4dEw0SEe7Uq/DpFXYC5ODfqiAeW2GFZECpkJcNrVPSWh2HagCXZWK0
vm9qp/UsQu0yrbYhnr68
-----END CERTIFICATE-----
