Certificate:
    Data:
        Version: 3 (0x2)
        Serial Number: 7667447206703254355 (0x6a683e9c519bcb53)
    Signature Algorithm: sha256WithRSAEncryption
        Issuer: C=TR, L=Ankara, O=E-Tu\xC4\x9Fra EBG Bili\xC5\x9Fim Teknolojileri ve Hizmetleri A.\xC5\x9E., OU=E-Tugra Sertifikasyon Merkezi, CN=E-Tugra Certification Authority
        Validity
            Not Before: Mar  5 12:09:48 2013 GMT
            Not After : Mar  3 12:09:48 2023 GMT
        Subject: C=TR, L=Ankara, O=E-Tu\xC4\x9Fra EBG Bili\xC5\x9Fim Teknolojileri ve Hizmetleri A.\xC5\x9E., OU=E-Tugra Sertifikasyon Merkezi, CN=E-Tugra Certification Authority
        Subject Public Key Info:
            Public Key Algorithm: rsaEncryption
                Public-Key: (4096 bit)
                Modulus:
                    00:e2:f5:3f:93:05:51:1e:85:62:54:5e:7a:0b:f5:
                    18:07:83:ae:7e:af:7c:f7:d4:8a:6b:a5:63:43:39:
                    b9:4b:f7:c3:c6:64:89:3d:94:2e:54:80:52:39:39:
                    07:4b:4b:dd:85:07:76:87:cc:bf:2f:95:4c:cc:7d:
                    a7:3d:bc:47:0f:98:70:f8:8c:85:1e:74:8e:92:6d:
                    1b:40:d1:99:0d:bb:75:6e:c8:a9:6b:9a:c0:84:31:
                    af:ca:43:cb:eb:2b:34:e8:8f:97:6b:01:9b:d5:0e:
                    4a:08:aa:5b:92:74:85:43:d3:80:ae:a1:88:5b:ae:
                    b3:ea:5e:cb:16:9a:77:44:c8:a1:f6:54:68:ce:de:
                    8f:97:2b:ba:5b:40:02:0c:64:17:c0:b5:93:cd:e1:
                    f1:13:66:ce:0c:79:ef:d1:91:28:ab:5f:a0:12:52:
                    30:73:19:8e:8f:e1:8c:07:a2:c3:bb:4a:f0:ea:1f:
                    15:a8:ee:25:cc:a4:46:f8:1b:22:ef:b3:0e:43:ba:
                    2c:24:b8:c5:2c:5c:d4:1c:f8:5d:64:bd:c3:93:5e:
                    28:a7:3f:27:f1:8e:1e:d3:2a:50:05:a3:55:d9:cb:
                    e7:39:53:c0:98:9e:8c:54:62:8b:26:b0:f7:7d:8d:
                    7c:e4:c6:9e:66:42:55:82:47:e7:b2:58:8d:66:f7:
                    07:7c:2e:36:e6:50:1c:3f:db:43:24:c5:bf:86:47:
                    79:b3:79:1c:f7:5a:f4:13:ec:6c:f8:3f:e2:59:1f:
                    95:ee:42:3e:b9:ad:a8:32:85:49:97:46:fe:4b:31:
                    8f:5a:cb:ad:74:47:1f:e9:91:b7:df:28:04:22:a0:
                    d4:0f:5d:e2:79:4f:ea:6c:85:86:bd:a8:a6:ce:e4:
                    fa:c3:e1:b3:ae:de:3c:51:ee:cb:13:7c:01:7f:84:
                    0e:5d:51:94:9e:13:0c:b6:2e:a5:4c:f9:39:70:36:
                    6f:96:ca:2e:0c:44:55:c5:ca:fa:5d:02:a3:df:d6:
                    64:8c:5a:b3:01:0a:a9:b5:0a:47:17:ff:ef:91:40:
                    2a:8e:a1:46:3a:31:98:e5:11:fc:cc:bb:49:56:8a:
                    fc:b9:d0:61:9a:6f:65:6c:e6:c3:cb:3e:75:49:fe:
                    8f:a7:e2:89:c5:67:d7:9d:46:13:4e:31:76:3b:24:
                    b3:9e:11:65:86:ab:7f:ef:1d:d4:f8:bc:e7:ac:5a:
                    5c:b7:5a:47:5c:55:ce:55:b4:22:71:5b:5b:0b:f0:
                    cf:dc:a0:61:64:ea:a9:d7:68:0a:63:a7:e0:0d:3f:
                    a0:af:d3:aa:d2:7e:ef:51:a0:e6:51:2b:55:92:15:
                    17:53:cb:b7:66:0e:66:4c:f8:f9:75:4c:90:e7:12:
                    70:c7:45
                Exponent: 65537 (0x10001)
        X509v3 extensions:
            X509v3 Subject Key Identifier: 
                2E:E3:DB:B2:49:D0:9C:54:79:5C:FA:27:2A:FE:CC:4E:D2:E8:4E:54
            X509v3 Basic Constraints: critical
                CA:TRUE
            X509v3 Authority Key Identifier: 
                keyid:2E:E3:DB:B2:49:D0:9C:54:79:5C:FA:27:2A:FE:CC:4E:D2:E8:4E:54

            X509v3 Key Usage: critical
                Certificate Sign, CRL Sign
    Signature Algorithm: sha256WithRSAEncryption
         05:37:3a:f4:4d:b7:45:e2:45:75:24:8f:b6:77:52:e8:1c:d8:
         10:93:65:f3:f2:59:06:a4:3e:1e:29:ec:5d:d1:d0:ab:7c:e0:
         0a:90:48:78:ed:4e:98:03:99:fe:28:60:91:1d:30:1d:b8:63:
         7c:a8:e6:35:b5:fa:d3:61:76:e6:d6:07:4b:ca:69:9a:b2:84:
         7a:77:93:45:17:15:9f:24:d0:98:13:12:ff:bb:a0:2e:fd:4e:
         4c:87:f8:ce:5c:aa:98:1b:05:e0:00:46:4a:82:80:a5:33:8b:
         28:dc:ed:38:d3:df:e5:3e:e9:fe:fb:59:dd:61:84:4f:d2:54:
         96:13:61:13:3e:8f:80:69:be:93:47:b5:35:43:d2:5a:bb:3d:
         5c:ef:b3:42:47:cd:3b:55:13:06:b0:09:db:fd:63:f6:3a:88:
         0a:99:6f:7e:e1:ce:1b:53:6a:44:66:23:51:08:7b:bc:5b:52:
         a2:fd:06:37:38:40:61:8f:4a:96:b8:90:37:f8:66:c7:78:90:
         00:15:2e:8b:ad:51:35:53:07:a8:6b:68:ae:f9:4e:3c:07:26:
         cd:08:05:70:cc:39:3f:76:bd:a5:d3:67:26:01:86:a6:53:d2:
         60:3b:7c:43:7f:55:8a:bc:95:1a:c1:28:39:4c:1f:43:d2:91:
         f4:72:59:8a:b9:56:fc:3f:b4:9d:da:70:9c:76:5a:8c:43:50:
         ee:8e:30:72:4d:df:ff:49:f7:c6:a9:67:d9:6d:ac:02:11:e2:
         3a:16:25:a7:58:08:cb:6f:53:41:9c:48:38:47:68:33:d1:d7:
         c7:8f:d4:74:21:d4:c3:05:90:7a:ff:ce:96:88:b1:15:29:5d:
         23:ab:d0:60:a1:12:4f:de:f4:17:cd:32:e5:c9:bf:c8:43:ad:
         fd:2e:8e:f1:af:e2:f4:98:fa:12:1f:20:d8:c0:a7:0c:85:c5:
         90:f4:3b:2d:96:26:b1:2c:be:4c:ab:eb:b1:d2:8a:c9:db:78:
         13:0f:1e:09:9d:6d:8f:00:9f:02:da:c1:fa:1f:7a:7a:09:c4:
         4a:e6:88:2a:97:9f:89:8b:fd:37:5f:5f:3a:ce:38:59:86:4b:
         af:71:0b:b4:d8:f2:70:4f:9f:32:13:e3:b0:a7:57:e5:da:da:
         43:cb:84:34:f2:28:c4:ea:6d:f4:2a:ef:c1:6b:76:da:fb:7e:
         bb:85:3c:d2:53:c2:4d:be:71:e1:45:d1:fd:23:67:0d:13:75:
         fb:cf:65:67:22:9d:ae:b0:09:d1:09:ff:1d:34:bf:fe:23:97:
         37:d2:39:fa:3d:0d:06:0b:b4:db:3b:a3:ab:6f:5c:1d:b6:7e:
         e8:b3:82:34:ed:06:5c:24
-----BEGIN CERTIFICATE-----
MIIGSzCCBDOgAwIBAgIIamg+nFGby1MwDQYJKoZIhvcNAQELBQAwgbIxCzAJBgNV
BAYTAlRSMQ8wDQYDVQQHDAZBbmthcmExQDA+BgNVBAoMN0UtVHXEn3JhIEVCRyBC
aWxpxZ9pbSBUZWtub2xvamlsZXJpIHZlIEhpem1ldGxlcmkgQS7Fni4xJjAkBgNV
BAsMHUUtVHVncmEgU2VydGlmaWthc3lvbiBNZXJrZXppMSgwJgYDVQQDDB9FLVR1
Z3JhIENlcnRpZmljYXRpb24gQXV0aG9yaXR5MB4XDTEzMDMwNTEyMDk0OFoXDTIz
MDMwMzEyMDk0OFowgbIxCzAJBgNVBAYTAlRSMQ8wDQYDVQQHDAZBbmthcmExQDA+
BgNVBAoMN0UtVHXEn3JhIEVCRyBCaWxpxZ9pbSBUZWtub2xvamlsZXJpIHZlIEhp
em1ldGxlcmkgQS7Fni4xJjAkBgNVBAsMHUUtVHVncmEgU2VydGlmaWthc3lvbiBN
ZXJrZXppMSgwJgYDVQQDDB9FLVR1Z3JhIENlcnRpZmljYXRpb24gQXV0aG9yaXR5
MIICIjANBgkqhkiG9w0BAQEFAAOCAg8AMIICCgKCAgEA4vU/kwVRHoViVF56C/UY
B4Oufq9899SKa6VjQzm5S/fDxmSJPZQuVIBSOTkHS0vdhQd2h8y/L5VMzH2nPbxH
D5hw+IyFHnSOkm0bQNGZDbt1bsipa5rAhDGvykPL6ys06I+XawGb1Q5KCKpbknSF
Q9OArqGIW66z6l7LFpp3RMih9lRozt6Plyu6W0ACDGQXwLWTzeHxE2bODHnv0ZEo
q1+gElIwcxmOj+GMB6LDu0rw6h8VqO4lzKRG+Bsi77MOQ7osJLjFLFzUHPhdZL3D
k14opz8n8Y4e0ypQBaNV2cvnOVPAmJ6MVGKLJrD3fY185MaeZkJVgkfnsliNZvcH
fC425lAcP9tDJMW/hkd5s3kc91r0E+xs+D/iWR+V7kI+ua2oMoVJl0b+SzGPWsut
dEcf6ZG33ygEIqDUD13ieU/qbIWGvaimzuT6w+Gzrt48Ue7LE3wBf4QOXVGUnhMM
ti6lTPk5cDZvlsouDERVxcr6XQKj39ZkjFqzAQqptQpHF//vkUAqjqFGOjGY5RH8
zLtJVor8udBhmm9lbObDyz51Sf6Pp+KJxWfXnUYTTjF2OySznhFlhqt/7x3U+Lzn
rFpct1pHXFXOVbQicVtbC/DP3KBhZOqp12gKY6fgDT+gr9Oq0n7vUaDmUStVkhUX
U8u3Zg5mTPj5dUyQ5xJwx0UCAwEAAaNjMGEwHQYDVR0OBBYEFC7j27JJ0JxUeVz6
Jyr+zE7S6E5UMA8GA1UdEwEB/wQFMAMBAf8wHwYDVR0jBBgwFoAULuPbsknQnFR5
XPonKv7MTtLoTlQwDgYDVR0PAQH/BAQDAgEGMA0GCSqGSIb3DQEBCwUAA4ICAQAF
Nzr0TbdF4kV1JI+2d1LoHNgQk2Xz8lkGpD4eKexd0dCrfOAKkEh47U6YA5n+KGCR
HTAduGN8qOY1tfrTYXbm1gdLymmasoR6d5NFFxWfJNCYExL/u6Au/U5Mh/jOXKqY
GwXgAEZKgoClM4so3O0409/lPun++1ndYYRP0lSWE2ETPo+Aab6TR7U1Q9Jauz1c
77NCR807VRMGsAnb/WP2OogKmW9+4c4bU2pEZiNRCHu8W1Ki/QY3OEBhj0qWuJA3
+GbHeJAAFS6LrVE1Uweoa2iu+U48BybNCAVwzDk/dr2l02cmAYamU9JgO3xDf1WK
vJUawSg5TB9D0pH0clmKuVb8P7Sd2nCcdlqMQ1DujjByTd//SffGqWfZbawCEeI6
FiWnWAjLb1NBnEg4R2gz0dfHj9R0IdTDBZB6/86WiLEVKV0jq9BgoRJP3vQXzTLl
yb/IQ639Lo7xr+L0mPoSHyDYwKcMhcWQ9DstliaxLL5Mq+ux0orJ23gTDx4JnW2P
AJ8C2sH6H3p6CcRK5ogql5+Ji/03X186zjhZhkuvcQu02PJwT58yE+Owp1fl2tpD
y4Q08ijE6m30Ku/Ba3ba+367hTzSU8JNvnHhRdH9I2cNE3X7z2VnIp2usAnRCf8d
NL/+I5c30jn6PQ0GC7TbO6Orb1wdtn7os4I07QZcJA==
-----END CERTIFICATE-----
