Certificate:
    Data:
        Version: 3 (0x2)
        Serial Number:
            04:00:00:00:00:01:21:58:53:08:a2
    Signature Algorithm: sha256WithRSAEncryption
        Issuer: OU=GlobalSign Root CA - R3, O=GlobalSign, CN=GlobalSign
        Validity
            Not Before: Mar 18 10:00:00 2009 GMT
            Not After : Mar 18 10:00:00 2029 GMT
        Subject: OU=GlobalSign Root CA - R3, O=GlobalSign, CN=GlobalSign
        Subject Public Key Info:
            Public Key Algorithm: rsaEncryption
                Public-Key: (2048 bit)
                Modulus:
                    00:cc:25:76:90:79:06:78:22:16:f5:c0:83:b6:84:
                    ca:28:9e:fd:05:76:11:c5:ad:88:72:fc:46:02:43:
                    c7:b2:8a:9d:04:5f:24:cb:2e:4b:e1:60:82:46:e1:
                    52:ab:0c:81:47:70:6c:dd:64:d1:eb:f5:2c:a3:0f:
                    82:3d:0c:2b:ae:97:d7:b6:14:86:10:79:bb:3b:13:
                    80:77:8c:08:e1:49:d2:6a:62:2f:1f:5e:fa:96:68:
                    df:89:27:95:38:9f:06:d7:3e:c9:cb:26:59:0d:73:
                    de:b0:c8:e9:26:0e:83:15:c6:ef:5b:8b:d2:04:60:
                    ca:49:a6:28:f6:69:3b:f6:cb:c8:28:91:e5:9d:8a:
                    61:57:37:ac:74:14:dc:74:e0:3a:ee:72:2f:2e:9c:
                    fb:d0:bb:bf:f5:3d:00:e1:06:33:e8:82:2b:ae:53:
                    a6:3a:16:73:8c:dd:41:0e:20:3a:c0:b4:a7:a1:e9:
                    b2:4f:90:2e:32:60:e9:57:cb:b9:04:92:68:68:e5:
                    38:26:60:75:b2:9f:77:ff:91:14:ef:ae:20:49:fc:
                    ad:40:15:48:d1:02:31:61:19:5e:b8:97:ef:ad:77:
                    b7:64:9a:7a:bf:5f:c1:13:ef:9b:62:fb:0d:6c:e0:
                    54:69:16:a9:03:da:6e:e9:83:93:71:76:c6:69:85:
                    82:17
                Exponent: 65537 (0x10001)
        X509v3 extensions:
            X509v3 Key Usage: critical
                Certificate Sign, CRL Sign
            X509v3 Basic Constraints: critical
                CA:TRUE
            X509v3 Subject Key Identifier: 
                8F:F0:4B:7F:A8:2E:45:24:AE:4D:50:FA:63:9A:8B:DE:E2:DD:1B:BC
    Signature Algorithm: sha256WithRSAEncryption
         4b:40:db:c0:50:aa:fe:c8:0c:ef:f7:96:54:45:49:bb:96:00:
         09:41:ac:b3:13:86:86:28:07:33:ca:6b:e6:74:b9:ba:00:2d:
         ae:a4:0a:d3:f5:f1:f1:0f:8a:bf:73:67:4a:83:c7:44:7b:78:
         e0:af:6e:6c:6f:03:29:8e:33:39:45:c3:8e:e4:b9:57:6c:aa:
         fc:12:96:ec:53:c6:2d:e4:24:6c:b9:94:63:fb:dc:53:68:67:
         56:3e:83:b8:cf:35:21:c3:c9:68:fe:ce:da:c2:53:aa:cc:90:
         8a:e9:f0:5d:46:8c:95:dd:7a:58:28:1a:2f:1d:de:cd:00:37:
         41:8f:ed:44:6d:d7:53:28:97:7e:f3:67:04:1e:15:d7:8a:96:
         b4:d3:de:4c:27:a4:4c:1b:73:73:76:f4:17:99:c2:1f:7a:0e:
         e3:2d:08:ad:0a:1c:2c:ff:3c:ab:55:0e:0f:91:7e:36:eb:c3:
         57:49:be:e1:2e:2d:7c:60:8b:c3:41:51:13:23:9d:ce:f7:32:
         6b:94:01:a8:99:e7:2c:33:1f:3a:3b:25:d2:86:40:ce:3b:2c:
         86:78:c9:61:2f:14:ba:ee:db:55:6f:df:84:ee:05:09:4d:bd:
         28:d8:72:ce:d3:62:50:65:1e:eb:92:97:83:31:d9:b3:b5:ca:
         47:58:3f:5f
-----BEGIN CERTIFICATE-----
MIIDXzCCAkegAwIBAgILBAAAAAABIVhTCKIwDQYJKoZIhvcNAQELBQAwTDEgMB4G
A1UECxMXR2xvYmFsU2lnbiBSb290IENBIC0gUjMxEzARBgNVBAoTCkdsb2JhbFNp
Z24xEzARBgNVBAMTCkdsb2JhbFNpZ24wHhcNMDkwMzE4MTAwMDAwWhcNMjkwMzE4
MTAwMDAwWjBMMSAwHgYDVQQLExdHbG9iYWxTaWduIFJvb3QgQ0EgLSBSMzETMBEG
A1UEChMKR2xvYmFsU2lnbjETMBEGA1UEAxMKR2xvYmFsU2lnbjCCASIwDQYJKoZI
hvcNAQEBBQADggEPADCCAQoCggEBAMwldpB5BngiFvXAg7aEyiie/QV2EcWtiHL8
RgJDx7KKnQRfJMsuS+FggkbhUqsMgUdwbN1k0ev1LKMPgj0MK66X17YUhhB5uzsT
gHeMCOFJ0mpiLx9e+pZo34knlTifBtc+ycsmWQ1z3rDI6SYOgxXG71uL0gRgykmm
KPZpO/bLyCiR5Z2KYVc3rHQU3HTgOu5yLy6c+9C7v/U9AOEGM+iCK65TpjoWc4zd
QQ4gOsC0p6Hpsk+QLjJg6VfLuQSSaGjlOCZgdbKfd/+RFO+uIEn8rUAVSNECMWEZ
XriX7613t2Saer9fwRPvm2L7DWzgVGkWqQPabumDk3F2xmmFghcCAwEAAaNCMEAw
DgYDVR0PAQH/BAQDAgEGMA8GA1UdEwEB/wQFMAMBAf8wHQYDVR0OBBYEFI/wS3+o
LkUkrk1Q+mOai97i3Ru8MA0GCSqGSIb3DQEBCwUAA4IBAQBLQNvAUKr+yAzv95ZU
RUm7lgAJQayzE4aGKAczymvmdLm6AC2upArT9fHxD4q/c2dKg8dEe3jgr25sbwMp
jjM5RcOO5LlXbKr8EpbsU8Yt5CRsuZRj+9xTaGdWPoO4zzUhw8lo/s7awlOqzJCK
6fBdRoyV3XpYKBovHd7NADdBj+1EbddTKJd+82cEHhXXipa0095MJ6RMG3NzdvQX
mcIfeg7jLQitChws/zyrVQ4PkX4268NXSb7hLi18YIvDQVETI53O9zJrlAGomecs
Mx86OyXShkDOOyyGeMlhLxS67ttVb9+E7gUJTb0o2HLO02JQZR7rkpeDMdmztcpH
WD9f
-----END CERTIFICATE-----
