Certificate:
    Data:
        Version: 3 (0x2)
        Serial Number:
            39:ca:93:1c:ef:43:f3:c6:8e:93:c7:f4:64:89:38:7e
        Signature Algorithm: sha256WithRSAEncryption
        Issuer: C = GR, O = Hellenic Academic and Research Institutions CA, CN = HARICA TLS RSA Root CA 2021
        Validity
            Not Before: Feb 19 10:55:38 2021 GMT
            Not After : Feb 13 10:55:37 2045 GMT
        Subject: C = GR, O = Hellenic Academic and Research Institutions CA, CN = HARICA TLS RSA Root CA 2021
        Subject Public Key Info:
            Public Key Algorithm: rsaEncryption
                RSA Public-Key: (4096 bit)
                Modulus:
                    00:8b:c2:e7:af:65:9b:05:67:96:c9:0d:24:b9:d0:
                    0e:64:fc:ce:e2:24:18:2c:84:7f:77:51:cb:04:11:
                    36:b8:5e:ed:69:71:a7:9e:e4:25:09:97:67:c1:47:
                    c2:cf:91:16:36:62:3d:38:04:e1:51:82:ff:ac:d2:
                    b4:69:dd:2e:ec:11:a3:45:ee:6b:6b:3b:4c:bf:8c:
                    8d:a4:1e:9d:11:b9:e9:38:f9:7a:0e:0c:98:e2:23:
                    1d:d1:4e:63:d4:e7:b8:41:44:fb:6b:af:6b:da:1f:
                    d3:c5:91:88:5b:a4:89:92:d1:81:e6:8c:39:58:a0:
                    d6:69:43:a9:ad:98:52:58:6e:db:0a:fb:6b:cf:68:
                    fa:e3:a4:5e:3a:45:73:98:07:ea:5f:02:72:de:0c:
                    a5:b3:9f:ae:a9:1d:b7:1d:b3:fc:8a:59:e7:6e:72:
                    65:ad:f5:30:94:23:07:f3:82:16:4b:35:98:9c:53:
                    bb:2f:ca:e4:5a:d9:c7:8d:1d:fc:98:99:fb:2c:a4:
                    82:6b:f0:2a:1f:8e:0b:5f:71:5c:5c:ae:42:7b:29:
                    89:81:cb:03:a3:99:ca:88:9e:0b:40:09:41:33:db:
                    e6:58:7a:fd:ae:99:70:c0:5a:0f:d6:13:86:71:2f:
                    76:69:fc:90:dd:db:2d:6e:d1:f2:9b:f5:1a:6b:9e:
                    6f:15:8c:7a:f0:4b:28:a0:22:38:80:24:6c:36:a4:
                    3b:f2:30:91:f3:78:13:cf:c1:3f:35:ab:f1:1d:11:
                    23:b5:43:22:9e:01:92:b7:18:02:e5:11:d1:82:db:
                    15:00:cc:61:37:c1:2a:7c:9a:e1:d0:ba:b3:50:46:
                    ee:82:ac:9d:31:f8:fb:23:e2:03:00:48:70:a3:09:
                    26:79:15:53:60:f3:38:5c:ad:38:ea:81:00:63:14:
                    b9:33:5e:dd:0b:db:a0:45:07:1a:33:09:f8:4d:b4:
                    a7:02:a6:69:f4:c2:59:05:88:65:85:56:ae:4b:cb:
                    e0:de:3c:7d:2d:1a:c8:e9:fb:1f:a3:61:4a:d6:2a:
                    13:ad:77:4c:1a:18:9b:91:0f:58:d8:06:54:c5:97:
                    f8:aa:3f:20:8a:a6:85:a6:77:f6:a6:fc:1c:e2:ee:
                    6e:94:33:2a:83:50:84:0a:e5:4f:86:f8:50:45:78:
                    00:81:eb:5b:68:e3:26:8d:cc:7b:5c:51:f4:14:2c:
                    40:be:1a:60:1d:7a:72:61:1d:1f:63:2d:88:aa:ce:
                    a2:45:90:08:fc:6b:be:b3:50:2a:5a:fd:a8:48:18:
                    46:d6:90:40:92:90:0a:84:5e:68:31:f8:eb:ed:0d:
                    d3:1d:c6:7d:99:18:55:56:27:65:2e:8d:45:c5:24:
                    ec:ce:e3
                Exponent: 65537 (0x10001)
        X509v3 extensions:
            X509v3 Basic Constraints: critical
                CA:TRUE
            X509v3 Subject Key Identifier: 
                0A:48:23:A6:60:A4:92:0A:33:EA:93:5B:C5:57:EA:25:4D:BD:12:EE
            X509v3 Key Usage: critical
                Digital Signature, Certificate Sign, CRL Sign
    Signature Algorithm: sha256WithRSAEncryption
         3e:90:48:aa:6e:62:15:25:66:7b:0c:d5:8c:8b:89:9d:d7:ed:
         4e:07:ef:9c:d0:14:5f:5e:50:bd:68:96:90:a4:14:11:aa:68:
         6d:09:35:39:40:09:da:f4:09:2c:34:a5:7b:59:84:49:29:97:
         74:c8:07:1e:47:6d:f2:ce:1c:50:26:e3:9e:3d:40:53:3f:f7:
         7f:96:76:10:c5:46:a5:d0:20:4b:50:f4:35:3b:18:f4:55:6a:
         41:1b:47:06:68:3c:bb:09:08:62:d9:5f:55:42:aa:ac:53:85:
         ac:95:56:36:56:ab:e4:05:8c:c5:a8:da:1f:a3:69:bd:53:0f:
         c4:ff:dc:ca:e3:7e:f2:4c:88:86:47:46:1a:f3:00:f5:80:91:
         a2:dc:43:42:94:9b:20:f0:d1:cd:b2:eb:2c:53:c2:53:78:4a:
         4f:04:94:41:9a:8f:27:32:c1:e5:49:19:bf:f1:f2:c2:8b:a8:
         0a:39:31:28:b4:7d:62:36:2c:4d:ec:1f:33:b6:7e:77:6d:7e:
         50:f0:9f:0e:d7:11:8f:cf:18:c5:e3:27:fe:26:ef:05:9d:cf:
         cf:37:c5:d0:7b:da:3b:b0:16:84:0c:3a:93:d6:be:17:db:0f:
         3e:0e:19:78:09:c7:a9:02:72:22:4b:f7:37:76:ba:75:c4:85:
         03:5a:63:d5:b1:75:05:c2:b9:bd:94:ad:8c:15:99:a7:93:7d:
         f6:c5:f3:aa:74:cf:04:85:94:98:00:f4:e2:f9:ca:24:65:bf:
         e0:62:af:c8:c5:fa:b2:c9:9e:56:48:da:79:fd:96:76:15:be:
         a3:8e:56:c4:b3:34:fc:be:47:f4:c1:b4:a8:fc:d5:30:88:68:
         ee:cb:ae:c9:63:c4:76:be:ac:38:18:e1:5e:5c:cf:ae:3a:22:
         51:eb:d1:8b:b3:f3:2b:33:07:54:87:fa:b4:b2:13:7b:ba:53:
         04:62:01:9d:f1:c0:4f:ee:e1:3a:d4:8b:20:10:fa:02:57:e6:
         ef:c1:0b:b7:90:46:9c:19:29:8c:dc:6f:a0:4a:69:69:94:b7:
         24:65:a0:ff:ac:3f:ce:01:fb:21:2e:fd:68:f8:9b:f2:a5:cf:
         31:38:5c:15:aa:e6:97:00:c1:df:5a:a5:a7:39:aa:e9:84:7f:
         3c:51:a8:3a:d9:94:5b:8c:bf:4f:08:71:e5:db:a8:5c:d4:d2:
         a6:fe:00:a3:c6:16:c7:0f:e8:80:ce:1c:28:64:74:19:08:d3:
         42:e3:ce:00:5d:7f:b1:dc:13:b0:e1:05:cb:d1:20:aa:86:74:
         9e:39:e7:91:fd:ff:5b:d6:f7:ad:a6:2f:03:0b:6d:e3:57:54:
         eb:76:53:18:8d:11:98:ba
-----BEGIN CERTIFICATE-----
MIIFpDCCA4ygAwIBAgIQOcqTHO9D88aOk8f0ZIk4fjANBgkqhkiG9w0BAQsFADBs
MQswCQYDVQQGEwJHUjE3MDUGA1UECgwuSGVsbGVuaWMgQWNhZGVtaWMgYW5kIFJl
c2VhcmNoIEluc3RpdHV0aW9ucyBDQTEkMCIGA1UEAwwbSEFSSUNBIFRMUyBSU0Eg
Um9vdCBDQSAyMDIxMB4XDTIxMDIxOTEwNTUzOFoXDTQ1MDIxMzEwNTUzN1owbDEL
MAkGA1UEBhMCR1IxNzA1BgNVBAoMLkhlbGxlbmljIEFjYWRlbWljIGFuZCBSZXNl
YXJjaCBJbnN0aXR1dGlvbnMgQ0ExJDAiBgNVBAMMG0hBUklDQSBUTFMgUlNBIFJv
b3QgQ0EgMjAyMTCCAiIwDQYJKoZIhvcNAQEBBQADggIPADCCAgoCggIBAIvC569l
mwVnlskNJLnQDmT8zuIkGCyEf3dRywQRNrhe7Wlxp57kJQmXZ8FHws+RFjZiPTgE
4VGC/6zStGndLuwRo0Xua2s7TL+MjaQenRG56Tj5eg4MmOIjHdFOY9TnuEFE+2uv
a9of08WRiFukiZLRgeaMOVig1mlDqa2YUlhu2wr7a89o+uOkXjpFc5gH6l8Cct4M
pbOfrqkdtx2z/IpZ525yZa31MJQjB/OCFks1mJxTuy/K5FrZx40d/JiZ+yykgmvw
Kh+OC19xXFyuQnspiYHLA6OZyoieC0AJQTPb5lh6/a6ZcMBaD9YThnEvdmn8kN3b
LW7R8pv1GmuebxWMevBLKKAiOIAkbDakO/IwkfN4E8/BPzWr8R0RI7VDIp4BkrcY
AuUR0YLbFQDMYTfBKnya4dC6s1BG7oKsnTH4+yPiAwBIcKMJJnkVU2DzOFytOOqB
AGMUuTNe3QvboEUHGjMJ+E20pwKmafTCWQWIZYVWrkvL4N48fS0ayOn7H6NhStYq
E613TBoYm5EPWNgGVMWX+Ko/IIqmhaZ39qb8HOLubpQzKoNQhArlT4b4UEV4AIHr
W2jjJo3Me1xR9BQsQL4aYB16cmEdH2MtiKrOokWQCPxrvrNQKlr9qEgYRtaQQJKQ
CoReaDH46+0N0x3GfZkYVVYnZS6NRcUk7M7jAgMBAAGjQjBAMA8GA1UdEwEB/wQF
MAMBAf8wHQYDVR0OBBYEFApII6ZgpJIKM+qTW8VX6iVNvRLuMA4GA1UdDwEB/wQE
AwIBhjANBgkqhkiG9w0BAQsFAAOCAgEAPpBIqm5iFSVmewzVjIuJndftTgfvnNAU
X15QvWiWkKQUEapobQk1OUAJ2vQJLDSle1mESSmXdMgHHkdt8s4cUCbjnj1AUz/3
f5Z2EMVGpdAgS1D0NTsY9FVqQRtHBmg8uwkIYtlfVUKqrFOFrJVWNlar5AWMxaja
H6NpvVMPxP/cyuN+8kyIhkdGGvMA9YCRotxDQpSbIPDRzbLrLFPCU3hKTwSUQZqP
JzLB5UkZv/HywouoCjkxKLR9YjYsTewfM7Z+d21+UPCfDtcRj88YxeMn/ibvBZ3P
zzfF0HvaO7AWhAw6k9a+F9sPPg4ZeAnHqQJyIkv3N3a6dcSFA1pj1bF1BcK5vZSt
jBWZp5N99sXzqnTPBIWUmAD04vnKJGW/4GKvyMX6ssmeVkjaef2WdhW+o45WxLM0
/L5H9MG0qPzVMIho7suuyWPEdr6sOBjhXlzPrjoiUevRi7PzKzMHVIf6tLITe7pT
BGIBnfHAT+7hOtSLIBD6Alfm78ELt5BGnBkpjNxvoEppaZS3JGWg/6w/zgH7IS79
aPib8qXPMThcFarmlwDB31qlpzmq6YR/PFGoOtmUW4y/Twhx5duoXNTSpv4Ao8YW
xw/ogM4cKGR0GQjTQuPOAF1/sdwTsOEFy9EgqoZ0njnnkf3/W9b3raYvAwtt41dU
63ZTGI0RmLo=
-----END CERTIFICATE-----
