Certificate:
    Data:
        Version: 3 (0x2)
        Serial Number:
            d9:b5:43:7f:af:a9:39:0f:00:00:00:00:55:65:ad:58
        Signature Algorithm: sha256WithRSAEncryption
        Issuer: C = US, O = "Entrust, Inc.", OU = See www.entrust.net/legal-terms, OU = "(c) 2015 Entrust, Inc. - for authorized use only", CN = Entrust Root Certification Authority - G4
        Validity
            Not Before: May 27 11:11:16 2015 GMT
            Not After : Dec 27 11:41:16 2037 GMT
        Subject: C = US, O = "Entrust, Inc.", OU = See www.entrust.net/legal-terms, OU = "(c) 2015 Entrust, Inc. - for authorized use only", CN = Entrust Root Certification Authority - G4
        Subject Public Key Info:
            Public Key Algorithm: rsaEncryption
                RSA Public-Key: (4096 bit)
                Modulus:
                    00:b1:ec:2c:42:ee:e2:d1:30:ff:a5:92:47:e2:2d:
                    c3:ba:64:97:6d:ca:f7:0d:b5:59:c1:b3:cb:a8:68:
                    19:d8:af:84:6d:30:70:5d:7e:f3:2e:d2:53:99:e1:
                    fe:1f:5e:d9:48:af:5d:13:8d:db:ff:63:33:4d:d3:
                    00:02:bc:c4:f8:d1:06:08:94:79:58:8a:15:de:29:
                    b3:fd:fd:c4:4f:e8:aa:e2:a0:3b:79:cd:bf:6b:43:
                    32:dd:d9:74:10:b9:f7:f4:68:d4:bb:d0:87:d5:aa:
                    4b:8a:2a:6f:2a:04:b5:b2:a6:c7:a0:7a:e6:48:ab:
                    d2:d1:59:cc:d6:7e:23:e6:97:6c:f0:42:e5:dc:51:
                    4b:15:41:ed:49:4a:c9:de:10:97:d6:76:c1:ef:a5:
                    b5:36:14:97:35:d8:78:22:35:52:ef:43:bd:db:27:
                    db:61:56:82:34:dc:cb:88:60:0c:0b:5a:e5:2c:01:
                    c6:54:af:d7:aa:c1:10:7b:d2:05:5a:b8:40:9e:86:
                    a7:c3:90:86:02:56:52:09:7a:9c:d2:27:82:53:4a:
                    65:52:6a:f5:3c:e7:a8:f2:9c:af:8b:bd:d3:0e:d4:
                    d4:5e:6e:87:9e:6a:3d:45:1d:d1:5d:1b:f4:e9:0a:
                    ac:60:99:fb:89:b4:ff:98:2c:cf:7c:1d:e9:02:aa:
                    04:9a:1e:b8:dc:88:6e:25:b3:6c:66:f7:3c:90:f3:
                    57:c1:b3:2f:f5:6d:f2:fb:ca:a1:f8:29:9d:46:8b:
                    b3:6a:f6:e6:67:07:be:2c:67:0a:2a:1f:5a:b2:3e:
                    57:c4:d3:21:21:63:65:52:91:1b:b1:99:8e:79:7e:
                    e6:eb:8d:00:d9:5a:aa:ea:73:e8:a4:82:02:47:96:
                    fe:5b:8e:54:61:a3:eb:2f:4b:30:b0:8b:23:75:72:
                    7c:21:3c:c8:f6:f1:74:d4:1c:7b:a3:05:55:ee:bb:
                    4d:3b:32:be:9a:77:66:9e:ac:69:90:22:07:1f:61:
                    3a:96:be:e5:9a:4f:cc:05:3c:28:59:d3:c1:0c:54:
                    a8:59:61:bd:c8:72:4c:e8:dc:9f:87:7f:bd:9c:48:
                    36:5e:95:a3:0e:b9:38:24:55:fc:75:66:eb:02:e3:
                    08:34:29:4a:c6:e3:2b:2f:33:a0:da:a3:86:a5:12:
                    97:fd:80:2b:da:14:42:e3:92:bd:3e:f2:5d:5e:67:
                    74:2e:1c:88:47:29:34:5f:e2:32:a8:9c:25:37:8c:
                    ba:98:00:97:8b:49:96:1e:fd:25:8a:ac:dc:da:d8:
                    5d:74:6e:66:b0:ff:44:df:a1:18:c6:be:48:2f:37:
                    94:78:f8:95:4a:3f:7f:13:5e:5d:59:fd:74:86:43:
                    63:73:49
                Exponent: 65537 (0x10001)
        X509v3 extensions:
            X509v3 Basic Constraints: critical
                CA:TRUE
            X509v3 Key Usage: critical
                Certificate Sign, CRL Sign
            X509v3 Subject Key Identifier: 
                9F:38:C4:56:23:C3:39:E8:A0:71:6C:E8:54:4C:E4:E8:3A:B1:BF:67
    Signature Algorithm: sha256WithRSAEncryption
         12:e5:42:a6:7b:8b:0f:0c:e4:46:a5:b6:60:40:87:8c:25:7e:
         ad:b8:68:2e:5b:c6:40:76:3c:03:f8:c9:59:f4:f3:ab:62:ce:
         10:8d:b4:5a:64:8c:68:c0:b0:72:43:34:d2:1b:0b:f6:2c:53:
         d2:ca:90:4b:86:66:fc:aa:83:22:f4:8b:1a:6f:26:48:ac:76:
         77:08:bf:c5:98:5c:f4:26:89:9e:7b:c3:b9:64:32:01:7f:d3:
         c3:dd:58:6d:ec:b1:ab:84:55:74:77:84:04:27:52:6b:86:4c:
         ce:dd:b9:65:ff:d6:c6:5e:9f:9a:10:99:4b:75:6a:fe:6a:e9:
         97:20:e4:e4:76:7a:c6:d0:24:aa:90:cd:20:90:ba:47:64:fb:
         7f:07:b3:53:78:b5:0a:62:f2:73:43:ce:41:2b:81:6a:2e:85:
         16:94:53:d4:6b:5f:72:22:ab:51:2d:42:d5:00:9c:99:bf:de:
         bb:94:3b:57:fd:9a:f5:86:cb:56:3b:5b:88:01:e5:7c:28:4b:
         03:f9:49:83:7c:b2:7f:7c:e3:ed:8e:a1:7f:60:53:8e:55:9d:
         50:34:12:0f:b7:97:7b:6c:87:4a:44:e7:f5:6d:ec:80:37:f0:
         58:19:6e:4a:68:76:f0:1f:92:e4:ea:b5:92:d3:61:51:10:0b:
         ad:a7:d9:5f:c7:5f:dc:1f:a3:5c:8c:a1:7e:9b:b7:9e:d3:56:
         6f:66:5e:07:96:20:ed:0b:74:fb:66:4e:8b:11:15:e9:81:49:
         7e:6f:b0:d4:50:7f:22:d7:5f:65:02:0d:a6:f4:85:1e:d8:ae:
         06:4b:4a:a7:d2:31:66:c2:f8:ce:e5:08:a6:a4:02:96:44:68:
         57:c4:d5:33:cf:19:2f:14:c4:94:1c:7b:a4:d9:f0:9f:0e:b1:
         80:e2:d1:9e:11:64:a9:88:11:3a:76:82:e5:62:c2:80:d8:a4:
         83:ed:93:ef:7c:2f:90:b0:32:4c:96:15:68:48:52:d4:99:08:
         c0:24:e8:1c:e3:b3:a5:21:0e:92:c0:90:1f:cf:20:5f:ca:3b:
         38:c7:b7:6d:3a:f3:e6:44:b8:0e:31:6b:88:8e:70:eb:9c:17:
         52:a8:41:94:2e:87:b6:e7:a6:12:c5:75:df:5b:c0:0a:6e:7b:
         a4:e4:5e:86:f9:36:94:df:77:c3:e9:0d:c0:39:f1:79:bb:46:
         8e:ab:43:59:27:b7:20:bb:23:e9:56:40:21:ec:31:3d:65:aa:
         43:f2:3d:df:70:44:e1:ba:4d:26:10:3b:98:9f:f3:c8:8e:1b:
         38:56:21:6a:51:93:d3:91:ca:46:da:89:b7:3d:53:83:2c:08:
         1f:8b:8f:53:dd:ff:ac:1f
-----BEGIN CERTIFICATE-----
MIIGSzCCBDOgAwIBAgIRANm1Q3+vqTkPAAAAAFVlrVgwDQYJKoZIhvcNAQELBQAw
gb4xCzAJBgNVBAYTAlVTMRYwFAYDVQQKEw1FbnRydXN0LCBJbmMuMSgwJgYDVQQL
Ex9TZWUgd3d3LmVudHJ1c3QubmV0L2xlZ2FsLXRlcm1zMTkwNwYDVQQLEzAoYykg
MjAxNSBFbnRydXN0LCBJbmMuIC0gZm9yIGF1dGhvcml6ZWQgdXNlIG9ubHkxMjAw
BgNVBAMTKUVudHJ1c3QgUm9vdCBDZXJ0aWZpY2F0aW9uIEF1dGhvcml0eSAtIEc0
MB4XDTE1MDUyNzExMTExNloXDTM3MTIyNzExNDExNlowgb4xCzAJBgNVBAYTAlVT
MRYwFAYDVQQKEw1FbnRydXN0LCBJbmMuMSgwJgYDVQQLEx9TZWUgd3d3LmVudHJ1
c3QubmV0L2xlZ2FsLXRlcm1zMTkwNwYDVQQLEzAoYykgMjAxNSBFbnRydXN0LCBJ
bmMuIC0gZm9yIGF1dGhvcml6ZWQgdXNlIG9ubHkxMjAwBgNVBAMTKUVudHJ1c3Qg
Um9vdCBDZXJ0aWZpY2F0aW9uIEF1dGhvcml0eSAtIEc0MIICIjANBgkqhkiG9w0B
AQEFAAOCAg8AMIICCgKCAgEAsewsQu7i0TD/pZJH4i3DumSXbcr3DbVZwbPLqGgZ
2K+EbTBwXX7zLtJTmeH+H17ZSK9dE43b/2MzTdMAArzE+NEGCJR5WIoV3imz/f3E
T+iq4qA7ec2/a0My3dl0ELn39GjUu9CH1apLiipvKgS1sqbHoHrmSKvS0VnM1n4j
5pds8ELl3FFLFUHtSUrJ3hCX1nbB76W1NhSXNdh4IjVS70O92yfbYVaCNNzLiGAM
C1rlLAHGVK/XqsEQe9IFWrhAnoanw5CGAlZSCXqc0ieCU0plUmr1POeo8pyvi73T
DtTUXm6Hnmo9RR3RXRv06QqsYJn7ibT/mCzPfB3pAqoEmh643IhuJbNsZvc8kPNX
wbMv9W3y+8qh+CmdRouzavbmZwe+LGcKKh9asj5XxNMhIWNlUpEbsZmOeX7m640A
2Vqq6nPopIICR5b+W45UYaPrL0swsIsjdXJ8ITzI9vF01Bx7owVV7rtNOzK+mndm
nqxpkCIHH2E6lr7lmk/MBTwoWdPBDFSoWWG9yHJM6Nyfh3+9nEg2XpWjDrk4JFX8
dWbrAuMINClKxuMrLzOg2qOGpRKX/YAr2hRC45K9PvJdXmd0LhyIRyk0X+IyqJwl
N4y6mACXi0mWHv0liqzc2thddG5msP9E36EYxr5ILzeUePiVSj9/E15dWf10hkNj
c0kCAwEAAaNCMEAwDwYDVR0TAQH/BAUwAwEB/zAOBgNVHQ8BAf8EBAMCAQYwHQYD
VR0OBBYEFJ84xFYjwznooHFs6FRM5Og6sb9nMA0GCSqGSIb3DQEBCwUAA4ICAQAS
5UKme4sPDORGpbZgQIeMJX6tuGguW8ZAdjwD+MlZ9POrYs4QjbRaZIxowLByQzTS
Gwv2LFPSypBLhmb8qoMi9IsabyZIrHZ3CL/FmFz0Jomee8O5ZDIBf9PD3Vht7LGr
hFV0d4QEJ1JrhkzO3bll/9bGXp+aEJlLdWr+aumXIOTkdnrG0CSqkM0gkLpHZPt/
B7NTeLUKYvJzQ85BK4FqLoUWlFPUa19yIqtRLULVAJyZv967lDtX/Zr1hstWO1uI
AeV8KEsD+UmDfLJ/fOPtjqF/YFOOVZ1QNBIPt5d7bIdKROf1beyAN/BYGW5KaHbw
H5Lk6rWS02FREAutp9lfx1/cH6NcjKF+m7ee01ZvZl4HliDtC3T7Zk6LERXpgUl+
b7DUUH8i119lAg2m9IUe2K4GS0qn0jFmwvjO5QimpAKWRGhXxNUzzxkvFMSUHHuk
2fCfDrGA4tGeEWSpiBE6doLlYsKA2KSD7ZPvfC+QsDJMlhVoSFLUmQjAJOgc47Ol
IQ6SwJAfzyBfyjs4x7dtOvPmRLgOMWuIjnDrnBdSqEGULoe256YSxXXfW8AKbnuk
5F6G+TaU33fD6Q3AOfF5u0aOq0NZJ7cguyPpVkAh7DE9ZapD8j3fcEThuk0mEDuY
n/PIjhs4ViFqUZPTkcpG2om3PVODLAgfi49T3f+sHw==
-----END CERTIFICATE-----
