Certificate:
    Data:
        Version: 3 (0x2)
        Serial Number:
            06:6c:9f:d7:c1:bb:10:4c:29:43:e5:71:7b:7b:2c:c8:1a:c1:0e
    Signature Algorithm: ecdsa-with-SHA384
        Issuer: C=US, O=Amazon, CN=Amazon Root CA 4
        Validity
            Not Before: May 26 00:00:00 2015 GMT
            Not After : May 26 00:00:00 2040 GMT
        Subject: C=US, O=Amazon, CN=Amazon Root CA 4
        Subject Public Key Info:
            Public Key Algorithm: id-ecPublicKey
                Public-Key: (384 bit)
                pub: 
                    04:d2:ab:8a:37:4f:a3:53:0d:fe:c1:8a:7b:4b:a8:
                    7b:46:4b:63:b0:62:f6:2d:1b:db:08:71:21:d2:00:
                    e8:63:bd:9a:27:fb:f0:39:6e:5d:ea:3d:a5:c9:81:
                    aa:a3:5b:20:98:45:5d:16:db:fd:e8:10:6d:e3:9c:
                    e0:e3:bd:5f:84:62:f3:70:64:33:a0:cb:24:2f:70:
                    ba:88:a1:2a:a0:75:f8:81:ae:62:06:c4:81:db:39:
                    6e:29:b0:1e:fa:2e:5c
                ASN1 OID: secp384r1
        X509v3 extensions:
            X509v3 Basic Constraints: critical
                CA:TRUE
            X509v3 Key Usage: critical
                Digital Signature, Certificate Sign, CRL Sign
            X509v3 Subject Key Identifier: 
                D3:EC:C7:3A:65:6E:CC:E1:DA:76:9A:56:FB:9C:F3:86:6D:57:E5:81
    Signature Algorithm: ecdsa-with-SHA384
         30:65:02:30:3a:8b:21:f1:bd:7e:11:ad:d0:ef:58:96:2f:d6:
         eb:9d:7e:90:8d:2b:cf:66:55:c3:2c:e3:28:a9:70:0a:47:0e:
         f0:37:59:12:ff:2d:99:94:28:4e:2a:4f:35:4d:33:5a:02:31:
         00:ea:75:00:4e:3b:c4:3a:94:12:91:c9:58:46:9d:21:13:72:
         a7:88:9c:8a:e4:4c:4a:db:96:d4:ac:8b:6b:6b:49:12:53:33:
         ad:d7:e4:be:24:fc:b5:0a:76:d4:a5:bc:10
-----BEGIN CERTIFICATE-----
MIIB8jCCAXigAwIBAgITBmyf18G7EEwpQ+Vxe3ssyBrBDjAKBggqhkjOPQQDAzA5
MQswCQYDVQQGEwJVUzEPMA0GA1UEChMGQW1hem9uMRkwFwYDVQQDExBBbWF6b24g
Um9vdCBDQSA0MB4XDTE1MDUyNjAwMDAwMFoXDTQwMDUyNjAwMDAwMFowOTELMAkG
A1UEBhMCVVMxDzANBgNVBAoTBkFtYXpvbjEZMBcGA1UEAxMQQW1hem9uIFJvb3Qg
Q0EgNDB2MBAGByqGSM49AgEGBSuBBAAiA2IABNKrijdPo1MN/sGKe0uoe0ZLY7Bi
9i0b2whxIdIA6GO9mif78DluXeo9pcmBqqNbIJhFXRbb/egQbeOc4OO9X4Ri83Bk
M6DLJC9wuoihKqB1+IGuYgbEgds5bimwHvouXKNCMEAwDwYDVR0TAQH/BAUwAwEB
/zAOBgNVHQ8BAf8EBAMCAYYwHQYDVR0OBBYEFNPsxzplbszh2naaVvuc84ZtV+WB
MAoGCCqGSM49BAMDA2gAMGUCMDqLIfG9fhGt0O9Yli/W651+kI0rz2ZVwyzjKKlw
CkcO8DdZEv8tmZQoTipPNU0zWgIxAOp1AE47xDqUEpHJWEadIRNyp4iciuRMStuW
1KyLa2tJElMzrdfkviT8tQp21KW8EA==
-----END CERTIFICATE-----
