Certificate:
    Data:
        Version: 3 (0x2)
        Serial Number: 623604 (0x983f4)
    Signature Algorithm: sha256WithRSAEncryption
        Issuer: C=DE, O=D-Trust GmbH, CN=D-TRUST Root Class 3 CA 2 EV 2009
        Validity
            Not Before: Nov  5 08:50:46 2009 GMT
            Not After : Nov  5 08:50:46 2029 GMT
        Subject: C=DE, O=D-Trust GmbH, CN=D-TRUST Root Class 3 CA 2 EV 2009
        Subject Public Key Info:
            Public Key Algorithm: rsaEncryption
                Public-Key: (2048 bit)
                Modulus:
                    00:99:f1:84:34:70:ba:2f:b7:30:a0:8e:bd:7c:04:
                    cf:be:62:bc:99:fd:82:97:d2:7a:0a:67:96:38:09:
                    f6:10:4e:95:22:73:99:8d:da:15:2d:e7:05:fc:19:
                    73:22:b7:8e:98:00:bc:3c:3d:ac:a1:6c:fb:d6:79:
                    25:4b:ad:f0:cc:64:da:88:3e:29:b8:0f:09:d3:34:
                    dd:33:f5:62:d1:e1:cd:19:e9:ee:18:4f:4c:58:ae:
                    e2:1e:d6:0c:5b:15:5a:d8:3a:b8:c4:18:64:1e:e3:
                    33:b2:b5:89:77:4e:0c:bf:d9:94:6b:13:97:6f:12:
                    a3:fe:99:a9:04:cc:15:ec:60:68:36:ed:08:7b:b7:
                    f5:bf:93:ed:66:31:83:8c:c6:71:34:87:4e:17:ea:
                    af:8b:91:8d:1c:56:41:ae:22:37:5e:37:f2:1d:d9:
                    d1:2d:0d:2f:69:51:a7:be:66:a6:8a:3a:2a:bd:c7:
                    1a:b1:e1:14:f0:be:3a:1d:b9:cf:5b:b1:6a:fe:b4:
                    b1:46:20:a2:fb:1e:3b:70:ef:93:98:7d:8c:73:96:
                    f2:c5:ef:85:70:ad:29:26:fc:1e:04:3e:1c:a0:d8:
                    0f:cb:52:83:62:7c:ee:8b:53:95:90:a9:57:a2:ea:
                    61:05:d8:f9:4d:c4:27:fa:6e:ad:ed:f9:d7:51:f7:
                    6b:a5
                Exponent: 65537 (0x10001)
        X509v3 extensions:
            X509v3 Basic Constraints: critical
                CA:TRUE
            X509v3 Subject Key Identifier: 
                D3:94:8A:4C:62:13:2A:19:2E:CC:AF:72:8A:7D:36:D7:9A:1C:DC:67
            X509v3 Key Usage: critical
                Certificate Sign, CRL Sign
            X509v3 CRL Distribution Points: 

                Full Name:
                  URI:ldap://directory.d-trust.net/CN=D-TRUST%20Root%20Class%203%20CA%202%20EV%202009,O=D-Trust%20GmbH,C=DE?certificaterevocationlist

                Full Name:
                  URI:http://www.d-trust.net/crl/d-trust_root_class_3_ca_2_ev_2009.crl

    Signature Algorithm: sha256WithRSAEncryption
         34:ed:7b:5a:3c:a4:94:88:ef:1a:11:75:07:2f:b3:fe:3c:fa:
         1e:51:26:eb:87:f6:29:de:e0:f1:d4:c6:24:09:e9:c1:cf:55:
         1b:b4:30:d9:ce:1a:fe:06:51:a6:15:a4:2d:ef:b2:4b:bf:20:
         28:25:49:d1:a6:36:77:34:e8:64:df:52:b1:11:c7:73:7a:cd:
         39:9e:c2:ad:8c:71:21:f2:5a:6b:af:df:3c:4e:55:af:b2:84:
         65:14:89:b9:77:cb:2a:31:be:cf:a3:6d:cf:6f:48:94:32:46:
         6f:e7:71:8c:a0:a6:84:19:37:07:f2:03:45:09:2b:86:75:7c:
         df:5f:69:57:00:db:6e:d8:a6:72:22:4b:50:d4:75:98:56:df:
         b7:18:ff:43:43:50:ae:7a:44:7b:f0:79:51:d7:43:3d:a7:d3:
         81:d3:f0:c9:4f:b9:da:c6:97:86:d0:82:c3:e4:42:6d:fe:b0:
         e2:64:4e:0e:26:e7:40:34:26:b5:08:89:d7:08:63:63:38:27:
         75:1e:33:ea:6e:a8:dd:9f:99:4f:74:4d:81:89:80:4b:dd:9a:
         97:29:5c:2f:be:81:41:b9:8c:ff:ea:7d:60:06:9e:cd:d7:3d:
         d3:2e:a3:15:bc:a8:e6:26:e5:6f:c3:dc:b8:03:21:ea:9f:16:
         f1:2c:54:b5
-----BEGIN CERTIFICATE-----
MIIEQzCCAyugAwIBAgIDCYP0MA0GCSqGSIb3DQEBCwUAMFAxCzAJBgNVBAYTAkRF
MRUwEwYDVQQKDAxELVRydXN0IEdtYkgxKjAoBgNVBAMMIUQtVFJVU1QgUm9vdCBD
bGFzcyAzIENBIDIgRVYgMjAwOTAeFw0wOTExMDUwODUwNDZaFw0yOTExMDUwODUw
NDZaMFAxCzAJBgNVBAYTAkRFMRUwEwYDVQQKDAxELVRydXN0IEdtYkgxKjAoBgNV
BAMMIUQtVFJVU1QgUm9vdCBDbGFzcyAzIENBIDIgRVYgMjAwOTCCASIwDQYJKoZI
hvcNAQEBBQADggEPADCCAQoCggEBAJnxhDRwui+3MKCOvXwEz75ivJn9gpfSegpn
ljgJ9hBOlSJzmY3aFS3nBfwZcyK3jpgAvDw9rKFs+9Z5JUut8Mxk2og+KbgPCdM0
3TP1YtHhzRnp7hhPTFiu4h7WDFsVWtg6uMQYZB7jM7K1iXdODL/ZlGsTl28So/6Z
qQTMFexgaDbtCHu39b+T7WYxg4zGcTSHThfqr4uRjRxWQa4iN1438h3Z0S0NL2lR
p75mpoo6Kr3HGrHhFPC+Oh25z1uxav60sUYgovseO3Dvk5h9jHOW8sXvhXCtKSb8
HgQ+HKDYD8tSg2J87otTlZCpV6LqYQXY+U3EJ/pure3511H3a6UCAwEAAaOCASQw
ggEgMA8GA1UdEwEB/wQFMAMBAf8wHQYDVR0OBBYEFNOUikxiEyoZLsyvcop9Ntea
HNxnMA4GA1UdDwEB/wQEAwIBBjCB3QYDVR0fBIHVMIHSMIGHoIGEoIGBhn9sZGFw
Oi8vZGlyZWN0b3J5LmQtdHJ1c3QubmV0L0NOPUQtVFJVU1QlMjBSb290JTIwQ2xh
c3MlMjAzJTIwQ0ElMjAyJTIwRVYlMjAyMDA5LE89RC1UcnVzdCUyMEdtYkgsQz1E
RT9jZXJ0aWZpY2F0ZXJldm9jYXRpb25saXN0MEagRKBChkBodHRwOi8vd3d3LmQt
dHJ1c3QubmV0L2NybC9kLXRydXN0X3Jvb3RfY2xhc3NfM19jYV8yX2V2XzIwMDku
Y3JsMA0GCSqGSIb3DQEBCwUAA4IBAQA07XtaPKSUiO8aEXUHL7P+PPoeUSbrh/Yp
3uDx1MYkCenBz1UbtDDZzhr+BlGmFaQt77JLvyAoJUnRpjZ3NOhk31KxEcdzes05
nsKtjHEh8lprr988TlWvsoRlFIm5d8sqMb7Po23Pb0iUMkZv53GMoKaEGTcH8gNF
CSuGdXzfX2lXANtu2KZyIktQ1HWYVt+3GP9DQ1CuekR78HlR10M9p9OB0/DJT7na
xpeG0ILD5EJt/rDiZE4OJudANCa1CInXCGNjOCd1HjPqbqjdn5lPdE2BiYBL3ZqX
KVwvvoFBuYz/6n1gBp7N1z3TLqMVvKjmJuVvw9y4AyHqnxbxLFS1
-----END CERTIFICATE-----
