Certificate:
    Data:
        Version: 3 (0x2)
        Serial Number:
            0c:f0:8e:5c:08:16:a5:ad:42:7f:f0:eb:27:18:59:d0
    Signature Algorithm: sha1WithRSAEncryption
        Issuer: C=US, O=SecureTrust Corporation, CN=SecureTrust CA
        Validity
            Not Before: Nov  7 19:31:18 2006 GMT
            Not After : Dec 31 19:40:55 2029 GMT
        Subject: C=US, O=SecureTrust Corporation, CN=SecureTrust CA
        Subject Public Key Info:
            Public Key Algorithm: rsaEncryption
                Public-Key: (2048 bit)
                Modulus:
                    00:ab:a4:81:e5:95:cd:f5:f6:14:8e:c2:4f:ca:d4:
                    e2:78:95:58:9c:41:e1:0d:99:40:24:17:39:91:33:
                    66:e9:be:e1:83:af:62:5c:89:d1:fc:24:5b:61:b3:
                    e0:11:11:41:1c:1d:6e:f0:b8:bb:f8:de:a7:81:ba:
                    a6:48:c6:9f:1d:bd:be:8e:a9:41:3e:b8:94:ed:29:
                    1a:d4:8e:d2:03:1d:03:ef:6d:0d:67:1c:57:d7:06:
                    ad:ca:c8:f5:fe:0e:af:66:25:48:04:96:0b:5d:a3:
                    ba:16:c3:08:4f:d1:46:f8:14:5c:f2:c8:5e:01:99:
                    6d:fd:88:cc:86:a8:c1:6f:31:42:6c:52:3e:68:cb:
                    f3:19:34:df:bb:87:18:56:80:26:c4:d0:dc:c0:6f:
                    df:de:a0:c2:91:16:a0:64:11:4b:44:bc:1e:f6:e7:
                    fa:63:de:66:ac:76:a4:71:a3:ec:36:94:68:7a:77:
                    a4:b1:e7:0e:2f:81:7a:e2:b5:72:86:ef:a2:6b:8b:
                    f0:0f:db:d3:59:3f:ba:72:bc:44:24:9c:e3:73:b3:
                    f7:af:57:2f:42:26:9d:a9:74:ba:00:52:f2:4b:cd:
                    53:7c:47:0b:36:85:0e:66:a9:08:97:16:34:57:c1:
                    66:f7:80:e3:ed:70:54:c7:93:e0:2e:28:15:59:87:
                    ba:bb
                Exponent: 65537 (0x10001)
        X509v3 extensions:
            1.3.6.1.4.1.311.20.2: 
                ...C.A
            X509v3 Key Usage: 
                Digital Signature, Certificate Sign, CRL Sign
            X509v3 Basic Constraints: critical
                CA:TRUE
            X509v3 Subject Key Identifier: 
                42:32:B6:16:FA:04:FD:FE:5D:4B:7A:C3:FD:F7:4C:40:1D:5A:43:AF
            X509v3 CRL Distribution Points: 

                Full Name:
                  URI:http://crl.securetrust.com/STCA.crl

            1.3.6.1.4.1.311.21.1: 
                ...
    Signature Algorithm: sha1WithRSAEncryption
         30:ed:4f:4a:e1:58:3a:52:72:5b:b5:a6:a3:65:18:a6:bb:51:
         3b:77:e9:9d:ea:d3:9f:5c:e0:45:65:7b:0d:ca:5b:e2:70:50:
         b2:94:05:14:ae:49:c7:8d:41:07:12:73:94:7e:0c:23:21:fd:
         bc:10:7f:60:10:5a:72:f5:98:0e:ac:ec:b9:7f:dd:7a:6f:5d:
         d3:1c:f4:ff:88:05:69:42:a9:05:71:c8:b7:ac:26:e8:2e:b4:
         8c:6a:ff:71:dc:b8:b1:df:99:bc:7c:21:54:2b:e4:58:a2:bb:
         57:29:ae:9e:a9:a3:19:26:0f:99:2e:08:b0:ef:fd:69:cf:99:
         1a:09:8d:e3:a7:9f:2b:c9:36:34:7b:24:b3:78:4c:95:17:a4:
         06:26:1e:b6:64:52:36:5f:60:67:d9:9c:c5:05:74:0b:e7:67:
         23:d2:08:fc:88:e9:ae:8b:7f:e1:30:f4:37:7e:fd:c6:32:da:
         2d:9e:44:30:30:6c:ee:07:de:d2:34:fc:d2:ff:40:f6:4b:f4:
         66:46:06:54:a6:f2:32:0a:63:26:30:6b:9b:d1:dc:8b:47:ba:
         e1:b9:d5:62:d0:a2:a0:f4:67:05:78:29:63:1a:6f:04:d6:f8:
         c6:4c:a3:9a:b1:37:b4:8d:e5:28:4b:1d:9e:2c:c2:b8:68:bc:
         ed:02:ee:31
-----BEGIN CERTIFICATE-----
MIIDuDCCAqCgAwIBAgIQDPCOXAgWpa1Cf/DrJxhZ0DANBgkqhkiG9w0BAQUFADBI
MQswCQYDVQQGEwJVUzEgMB4GA1UEChMXU2VjdXJlVHJ1c3QgQ29ycG9yYXRpb24x
FzAVBgNVBAMTDlNlY3VyZVRydXN0IENBMB4XDTA2MTEwNzE5MzExOFoXDTI5MTIz
MTE5NDA1NVowSDELMAkGA1UEBhMCVVMxIDAeBgNVBAoTF1NlY3VyZVRydXN0IENv
cnBvcmF0aW9uMRcwFQYDVQQDEw5TZWN1cmVUcnVzdCBDQTCCASIwDQYJKoZIhvcN
AQEBBQADggEPADCCAQoCggEBAKukgeWVzfX2FI7CT8rU4niVWJxB4Q2ZQCQXOZEz
Zum+4YOvYlyJ0fwkW2Gz4BERQRwdbvC4u/jep4G6pkjGnx29vo6pQT64lO0pGtSO
0gMdA+9tDWccV9cGrcrI9f4Or2YlSASWC12juhbDCE/RRvgUXPLIXgGZbf2IzIao
wW8xQmxSPmjL8xk037uHGFaAJsTQ3MBv396gwpEWoGQRS0S8Hvbn+mPeZqx2pHGj
7DaUaHp3pLHnDi+BeuK1cobvomuL8A/b01k/unK8RCSc43Oz969XL0Imnal0ugBS
8kvNU3xHCzaFDmapCJcWNFfBZveA4+1wVMeT4C4oFVmHursCAwEAAaOBnTCBmjAT
BgkrBgEEAYI3FAIEBh4EAEMAQTALBgNVHQ8EBAMCAYYwDwYDVR0TAQH/BAUwAwEB
/zAdBgNVHQ4EFgQUQjK2FvoE/f5dS3rD/fdMQB1aQ68wNAYDVR0fBC0wKzApoCeg
JYYjaHR0cDovL2NybC5zZWN1cmV0cnVzdC5jb20vU1RDQS5jcmwwEAYJKwYBBAGC
NxUBBAMCAQAwDQYJKoZIhvcNAQEFBQADggEBADDtT0rhWDpSclu1pqNlGKa7UTt3
6Z3q059c4EVlew3KW+JwULKUBRSuSceNQQcSc5R+DCMh/bwQf2AQWnL1mA6s7Ll/
3XpvXdMc9P+IBWlCqQVxyLesJugutIxq/3HcuLHfmbx8IVQr5Fiiu1cprp6poxkm
D5kuCLDv/WnPmRoJjeOnnyvJNjR7JLN4TJUXpAYmHrZkUjZfYGfZnMUFdAvnZyPS
CPyI6a6Lf+Ew9Dd+/cYy2i2eRDAwbO4H3tI0/NL/QPZL9GZGBlSm8jIKYyYwa5vR
3ItHuuG51WLQoqD0ZwV4KWMabwTW+MZMo5qxN7SN5ShLHZ4swrhovO0C7jE=
-----END CERTIFICATE-----
