Certificate:
    Data:
        Version: 3 (0x2)
        Serial Number: 1 (0x1)
    Signature Algorithm: sha256WithRSAEncryption
        Issuer: C=DE, O=T-Systems Enterprise Services GmbH, OU=T-Systems Trust Center, CN=T-TeleSec GlobalRoot Class 3
        Validity
            Not Before: Oct  1 10:29:56 2008 GMT
            Not After : Oct  1 23:59:59 2033 GMT
        Subject: C=DE, O=T-Systems Enterprise Services GmbH, OU=T-Systems Trust Center, CN=T-TeleSec GlobalRoot Class 3
        Subject Public Key Info:
            Public Key Algorithm: rsaEncryption
                Public-Key: (2048 bit)
                Modulus:
                    00:bd:75:93:f0:62:22:6f:24:ae:e0:7a:76:ac:7d:
                    bd:d9:24:d5:b8:b7:fc:cd:f0:42:e0:eb:78:88:56:
                    5e:9b:9a:54:1d:4d:0c:8a:f6:d3:cf:70:f4:52:b5:
                    d8:93:04:e3:46:86:71:41:4a:2b:f0:2a:2c:55:03:
                    d6:48:c3:e0:39:38:ed:f2:5c:3c:3f:44:bc:93:3d:
                    61:ab:4e:cd:0d:be:f0:20:27:58:0e:44:7f:04:1a:
                    87:a5:d7:96:14:36:90:d0:49:7b:a1:75:fb:1a:6b:
                    73:b1:f8:ce:a9:09:2c:f2:53:d5:c3:14:44:b8:86:
                    a5:f6:8b:2b:39:da:a3:33:54:d9:fa:72:1a:f7:22:
                    15:1c:88:91:6b:7f:66:e5:c3:6a:80:b0:24:f3:df:
                    86:45:88:fd:19:7f:75:87:1f:1f:b1:1b:0a:73:24:
                    5b:b9:65:e0:2c:54:c8:60:d3:66:17:3f:e1:cc:54:
                    33:73:91:02:3a:a6:7f:7b:76:39:a2:1f:96:b6:38:
                    ae:b5:c8:93:74:1d:9e:b9:b4:e5:60:9d:2f:56:d1:
                    e0:eb:5e:5b:4c:12:70:0c:6c:44:20:ab:11:d8:f4:
                    19:f6:d2:9c:52:37:e7:fa:b6:c2:31:3b:4a:d4:14:
                    99:ad:c7:1a:f5:5d:5f:fa:07:b8:7c:0d:1f:d6:83:
                    1e:b3
                Exponent: 65537 (0x10001)
        X509v3 extensions:
            X509v3 Basic Constraints: critical
                CA:TRUE
            X509v3 Key Usage: critical
                Certificate Sign, CRL Sign
            X509v3 Subject Key Identifier: 
                B5:03:F7:76:3B:61:82:6A:12:AA:18:53:EB:03:21:94:BF:FE:CE:CA
    Signature Algorithm: sha256WithRSAEncryption
         56:3d:ef:94:d5:bd:da:73:b2:58:be:ae:90:ad:98:27:97:fe:
         01:b1:b0:52:00:b8:4d:e4:1b:21:74:1b:7e:c0:ee:5e:69:2a:
         25:af:5c:d6:1d:da:d2:79:c9:f3:97:29:e0:86:87:de:04:59:
         0f:f1:59:d4:64:85:4b:99:af:25:04:1e:c9:46:a9:97:de:82:
         b2:1b:70:9f:9c:f6:af:71:31:dd:7b:05:a5:2c:d3:b9:ca:47:
         f6:ca:f2:f6:e7:ad:b9:48:3f:bc:16:b7:c1:6d:f4:ea:09:af:
         ec:f3:b5:e7:05:9e:a6:1e:8a:53:51:d6:93:81:cc:74:93:f6:
         b9:da:a6:25:05:74:79:5a:7e:40:3e:82:4b:26:11:30:6e:e1:
         3f:41:c7:47:00:35:d5:f5:d3:f7:54:3e:81:3d:da:49:6a:9a:
         b3:ef:10:3d:e6:eb:6f:d1:c8:22:47:cb:cc:cf:01:31:92:d9:
         18:e3:22:be:09:1e:1a:3e:5a:b2:e4:6b:0c:54:7a:7d:43:4e:
         b8:89:a5:7b:d7:a2:3d:96:86:cc:f2:26:34:2d:6a:92:9d:9a:
         1a:d0:30:e2:5d:4e:04:b0:5f:8b:20:7e:77:c1:3d:95:82:d1:
         46:9a:3b:3c:78:b8:6f:a1:d0:0d:64:a2:78:1e:29:4e:93:c3:
         a4:54:14:5b
-----BEGIN CERTIFICATE-----
MIIDwzCCAqugAwIBAgIBATANBgkqhkiG9w0BAQsFADCBgjELMAkGA1UEBhMCREUx
KzApBgNVBAoMIlQtU3lzdGVtcyBFbnRlcnByaXNlIFNlcnZpY2VzIEdtYkgxHzAd
BgNVBAsMFlQtU3lzdGVtcyBUcnVzdCBDZW50ZXIxJTAjBgNVBAMMHFQtVGVsZVNl
YyBHbG9iYWxSb290IENsYXNzIDMwHhcNMDgxMDAxMTAyOTU2WhcNMzMxMDAxMjM1
OTU5WjCBgjELMAkGA1UEBhMCREUxKzApBgNVBAoMIlQtU3lzdGVtcyBFbnRlcnBy
aXNlIFNlcnZpY2VzIEdtYkgxHzAdBgNVBAsMFlQtU3lzdGVtcyBUcnVzdCBDZW50
ZXIxJTAjBgNVBAMMHFQtVGVsZVNlYyBHbG9iYWxSb290IENsYXNzIDMwggEiMA0G
CSqGSIb3DQEBAQUAA4IBDwAwggEKAoIBAQC9dZPwYiJvJK7genasfb3ZJNW4t/zN
8ELg63iIVl6bmlQdTQyK9tPPcPRStdiTBONGhnFBSivwKixVA9ZIw+A5OO3yXDw/
RLyTPWGrTs0NvvAgJ1gORH8EGoel15YUNpDQSXuhdfsaa3Ox+M6pCSzyU9XDFES4
hqX2iys52qMzVNn6chr3IhUciJFrf2blw2qAsCTz34ZFiP0Zf3WHHx+xGwpzJFu5
ZeAsVMhg02YXP+HMVDNzkQI6pn97djmiH5a2OK61yJN0HZ65tOVgnS9W0eDrXltM
EnAMbEQgqxHY9Bn20pxSN+f6tsIxO0rUFJmtxxr1XV/6B7h8DR/Wgx6zAgMBAAGj
QjBAMA8GA1UdEwEB/wQFMAMBAf8wDgYDVR0PAQH/BAQDAgEGMB0GA1UdDgQWBBS1
A/d2O2GCahKqGFPrAyGUv/7OyjANBgkqhkiG9w0BAQsFAAOCAQEAVj3vlNW92nOy
WL6ukK2YJ5f+AbGwUgC4TeQbIXQbfsDuXmkqJa9c1h3a0nnJ85cp4IaH3gRZD/FZ
1GSFS5mvJQQeyUapl96Cshtwn5z2r3Ex3XsFpSzTucpH9sry9uetuUg/vBa3wW30
6gmv7PO15wWeph6KU1HWk4HMdJP2udqmJQV0eVp+QD6CSyYRMG7hP0HHRwA11fXT
91Q+gT3aSWqas+8QPebrb9HIIkfLzM8BMZLZGOMivgkeGj5asuRrDFR6fUNOuIml
e9eiPZaGzPImNC1qkp2aGtAw4l1OBLBfiyB+d8E9lYLRRpo7PHi4b6HQDWSieB4p
TpPDpFQUWw==
-----END CERTIFICATE-----
